   1              		.file	"system_startup.c"
   2              		.option nopic
   3              		.attribute arch, "rv64i2p0_m2p0_a2p0_f2p0_d2p0_c2p0"
   4              		.attribute unaligned_access, 0
   5              		.attribute stack_align, 16
   6              		.text
   7              	.Ltext0:
   8              		.cfi_sections	.debug_frame
   9              		.section	.text.park_hart,"ax",@progbits
  10              		.align	1
  12              	park_hart:
  13              	.LFB23:
  14              		.file 1 "../src/platform/mpfs_hal/startup_gcc/system_startup.c"
   1:../src/platform/mpfs_hal/startup_gcc/system_startup.c **** /******************************************************************************************
   2:../src/platform/mpfs_hal/startup_gcc/system_startup.c ****  * Copyright 2019-2022 Microchip FPGA Embedded Systems Solutions.
   3:../src/platform/mpfs_hal/startup_gcc/system_startup.c ****  *
   4:../src/platform/mpfs_hal/startup_gcc/system_startup.c ****  * SPDX-License-Identifier: MIT
   5:../src/platform/mpfs_hal/startup_gcc/system_startup.c ****  *
   6:../src/platform/mpfs_hal/startup_gcc/system_startup.c ****  * Permission is hereby granted, free of charge, to any person obtaining a copy
   7:../src/platform/mpfs_hal/startup_gcc/system_startup.c ****  * of this software and associated documentation files (the "Software"), to
   8:../src/platform/mpfs_hal/startup_gcc/system_startup.c ****  * deal in the Software without restriction, including without limitation the
   9:../src/platform/mpfs_hal/startup_gcc/system_startup.c ****  * rights to use, copy, modify, merge, publish, distribute, sublicense, and/or
  10:../src/platform/mpfs_hal/startup_gcc/system_startup.c ****  * sell copies of the Software, and to permit persons to whom the Software is
  11:../src/platform/mpfs_hal/startup_gcc/system_startup.c ****  * furnished to do so, subject to the following conditions:
  12:../src/platform/mpfs_hal/startup_gcc/system_startup.c ****  *
  13:../src/platform/mpfs_hal/startup_gcc/system_startup.c ****  * The above copyright notice and this permission notice shall be included in
  14:../src/platform/mpfs_hal/startup_gcc/system_startup.c ****  * all copies or substantial portions of the Software.
  15:../src/platform/mpfs_hal/startup_gcc/system_startup.c ****  *
  16:../src/platform/mpfs_hal/startup_gcc/system_startup.c ****  * THE SOFTWARE IS PROVIDED "AS IS", WITHOUT WARRANTY OF ANY KIND, EXPRESS OR
  17:../src/platform/mpfs_hal/startup_gcc/system_startup.c ****  * IMPLIED, INCLUDING BUT NOT LIMITED TO THE WARRANTIES OF MERCHANTABILITY,
  18:../src/platform/mpfs_hal/startup_gcc/system_startup.c ****  * FITNESS FOR A PARTICULAR PURPOSE AND NONINFRINGEMENT. IN NO EVENT SHALL THE
  19:../src/platform/mpfs_hal/startup_gcc/system_startup.c ****  * AUTHORS OR COPYRIGHT HOLDERS BE LIABLE FOR ANY CLAIM, DAMAGES OR OTHER
  20:../src/platform/mpfs_hal/startup_gcc/system_startup.c ****  * LIABILITY, WHETHER IN AN ACTION OF CONTRACT, TORT OR OTHERWISE, ARISING
  21:../src/platform/mpfs_hal/startup_gcc/system_startup.c ****  * FROM, OUT OF OR IN CONNECTION WITH THE SOFTWARE OR THE USE OR OTHER DEALINGS
  22:../src/platform/mpfs_hal/startup_gcc/system_startup.c ****  * IN THE SOFTWARE.
  23:../src/platform/mpfs_hal/startup_gcc/system_startup.c ****  */
  24:../src/platform/mpfs_hal/startup_gcc/system_startup.c **** /***************************************************************************
  25:../src/platform/mpfs_hal/startup_gcc/system_startup.c ****  * @file system_startup.c
  26:../src/platform/mpfs_hal/startup_gcc/system_startup.c ****  * @author Microchip-FPGA Embedded Systems Solutions
  27:../src/platform/mpfs_hal/startup_gcc/system_startup.c ****  * @brief first C code called on startup. Will call user code created outside
  28:../src/platform/mpfs_hal/startup_gcc/system_startup.c ****  * the HAL.
  29:../src/platform/mpfs_hal/startup_gcc/system_startup.c ****  */
  30:../src/platform/mpfs_hal/startup_gcc/system_startup.c **** #include <stddef.h>
  31:../src/platform/mpfs_hal/startup_gcc/system_startup.c **** #include <stdbool.h>
  32:../src/platform/mpfs_hal/startup_gcc/system_startup.c **** #include "mpfs_hal/mss_hal.h"
  33:../src/platform/mpfs_hal/startup_gcc/system_startup.c **** #ifdef  MPFS_HAL_HW_CONFIG
  34:../src/platform/mpfs_hal/startup_gcc/system_startup.c **** #include "../common/nwc/mss_nwc_init.h"
  35:../src/platform/mpfs_hal/startup_gcc/system_startup.c **** #endif
  36:../src/platform/mpfs_hal/startup_gcc/system_startup.c **** #include "system_startup_defs.h"
  37:../src/platform/mpfs_hal/startup_gcc/system_startup.c **** 
  38:../src/platform/mpfs_hal/startup_gcc/system_startup.c **** 
  39:../src/platform/mpfs_hal/startup_gcc/system_startup.c **** /*==============================================================================
  40:../src/platform/mpfs_hal/startup_gcc/system_startup.c ****  * This function is called by the lowest enabled hart (MPFS_HAL_FIRST_HART) in
  41:../src/platform/mpfs_hal/startup_gcc/system_startup.c ****  * the configuration file :
  42:../src/platform/mpfs_hal/startup_gcc/system_startup.c ****  * (src/boards/<my-board/platform_config/mpfs_hal_config/mss_sw_config.h )
  43:../src/platform/mpfs_hal/startup_gcc/system_startup.c ****  *
  44:../src/platform/mpfs_hal/startup_gcc/system_startup.c ****  * The other harts up to MPFS_HAL_LAST_HART are placed in wfi at this point.
  45:../src/platform/mpfs_hal/startup_gcc/system_startup.c ****  * This function brings them out of wfi in sequence.
  46:../src/platform/mpfs_hal/startup_gcc/system_startup.c ****  * If you need to modify this function, create your own one in a user directory
  47:../src/platform/mpfs_hal/startup_gcc/system_startup.c ****  * space
  48:../src/platform/mpfs_hal/startup_gcc/system_startup.c ****  * e.g. /hart0/e51.c
  49:../src/platform/mpfs_hal/startup_gcc/system_startup.c ****  */
  50:../src/platform/mpfs_hal/startup_gcc/system_startup.c **** #if (IMAGE_LOADED_BY_BOOTLOADER == 0)
  51:../src/platform/mpfs_hal/startup_gcc/system_startup.c **** __attribute__((weak)) int main_first_hart(HLS_DATA* hls)
  52:../src/platform/mpfs_hal/startup_gcc/system_startup.c **** {
  53:../src/platform/mpfs_hal/startup_gcc/system_startup.c ****     uint64_t hartid = read_csr(mhartid);
  54:../src/platform/mpfs_hal/startup_gcc/system_startup.c **** 
  55:../src/platform/mpfs_hal/startup_gcc/system_startup.c ****     if(hartid == MPFS_HAL_FIRST_HART)
  56:../src/platform/mpfs_hal/startup_gcc/system_startup.c ****     {
  57:../src/platform/mpfs_hal/startup_gcc/system_startup.c ****         uint8_t hart_id;
  58:../src/platform/mpfs_hal/startup_gcc/system_startup.c ****         ptrdiff_t stack_top;
  59:../src/platform/mpfs_hal/startup_gcc/system_startup.c **** 
  60:../src/platform/mpfs_hal/startup_gcc/system_startup.c ****         /*
  61:../src/platform/mpfs_hal/startup_gcc/system_startup.c ****          * We only use code within the conditional compile
  62:../src/platform/mpfs_hal/startup_gcc/system_startup.c ****          * #ifdef MPFS_HAL_HW_CONFIG
  63:../src/platform/mpfs_hal/startup_gcc/system_startup.c ****          * if this program is used as part of the initial board bring-up
  64:../src/platform/mpfs_hal/startup_gcc/system_startup.c ****          * Please comment/uncomment MPFS_HAL_HW_CONFIG define in
  65:../src/platform/mpfs_hal/startup_gcc/system_startup.c ****          * src/boards/<my-board/platform_config/mpfs_hal_config/sw_config.h
  66:../src/platform/mpfs_hal/startup_gcc/system_startup.c ****          * as required.
  67:../src/platform/mpfs_hal/startup_gcc/system_startup.c ****          */
  68:../src/platform/mpfs_hal/startup_gcc/system_startup.c **** #ifdef  MPFS_HAL_HW_CONFIG
  69:../src/platform/mpfs_hal/startup_gcc/system_startup.c ****         config_l2_cache();
  70:../src/platform/mpfs_hal/startup_gcc/system_startup.c **** #endif  /* MPFS_HAL_HW_CONFIG */
  71:../src/platform/mpfs_hal/startup_gcc/system_startup.c **** 
  72:../src/platform/mpfs_hal/startup_gcc/system_startup.c ****         init_memory();
  73:../src/platform/mpfs_hal/startup_gcc/system_startup.c **** #ifndef MPFS_HAL_HW_CONFIG
  74:../src/platform/mpfs_hal/startup_gcc/system_startup.c ****         hls->my_hart_id = MPFS_HAL_FIRST_HART;
  75:../src/platform/mpfs_hal/startup_gcc/system_startup.c **** #endif
  76:../src/platform/mpfs_hal/startup_gcc/system_startup.c **** #ifdef  MPFS_HAL_HW_CONFIG
  77:../src/platform/mpfs_hal/startup_gcc/system_startup.c ****         load_virtual_rom();
  78:../src/platform/mpfs_hal/startup_gcc/system_startup.c ****         (void)init_bus_error_unit();
  79:../src/platform/mpfs_hal/startup_gcc/system_startup.c ****         (void)init_mem_protection_unit();
  80:../src/platform/mpfs_hal/startup_gcc/system_startup.c ****         (void)init_pmp((uint8_t)MPFS_HAL_FIRST_HART);
  81:../src/platform/mpfs_hal/startup_gcc/system_startup.c ****         (void)mss_set_apb_bus_cr((uint32_t)LIBERO_SETTING_APBBUS_CR);
  82:../src/platform/mpfs_hal/startup_gcc/system_startup.c ****         (void)mss_set_gpio_interrupt_fab_cr((uint32_t)LIBERO_SETTING_GPIO_INTERRUPT_FAB_CR);
  83:../src/platform/mpfs_hal/startup_gcc/system_startup.c **** #endif  /* MPFS_HAL_HW_CONFIG */
  84:../src/platform/mpfs_hal/startup_gcc/system_startup.c ****         /*
  85:../src/platform/mpfs_hal/startup_gcc/system_startup.c ****          * Initialise NWC
  86:../src/platform/mpfs_hal/startup_gcc/system_startup.c ****          *      Clocks
  87:../src/platform/mpfs_hal/startup_gcc/system_startup.c ****          *      SGMII
  88:../src/platform/mpfs_hal/startup_gcc/system_startup.c ****          *      DDR
  89:../src/platform/mpfs_hal/startup_gcc/system_startup.c ****          *      IOMUX
  90:../src/platform/mpfs_hal/startup_gcc/system_startup.c ****          */
  91:../src/platform/mpfs_hal/startup_gcc/system_startup.c **** #ifdef  MPFS_HAL_HW_CONFIG
  92:../src/platform/mpfs_hal/startup_gcc/system_startup.c ****         (void)mss_nwc_init();
  93:../src/platform/mpfs_hal/startup_gcc/system_startup.c ****         (void)mss_nwc_init_ddr();
  94:../src/platform/mpfs_hal/startup_gcc/system_startup.c **** 
  95:../src/platform/mpfs_hal/startup_gcc/system_startup.c ****         /* main hart init's the PLIC */
  96:../src/platform/mpfs_hal/startup_gcc/system_startup.c ****         PLIC_init_on_reset();
  97:../src/platform/mpfs_hal/startup_gcc/system_startup.c ****         /*
  98:../src/platform/mpfs_hal/startup_gcc/system_startup.c ****          * Start the other harts. They are put in wfi in entry.S
  99:../src/platform/mpfs_hal/startup_gcc/system_startup.c ****          * When debugging, harts are released from reset separately,
 100:../src/platform/mpfs_hal/startup_gcc/system_startup.c ****          * so we need to make sure hart is in wfi before we try and release.
 101:../src/platform/mpfs_hal/startup_gcc/system_startup.c ****         */
 102:../src/platform/mpfs_hal/startup_gcc/system_startup.c ****         stack_top = (ptrdiff_t)((uint8_t*)&__stack_top_h0$);
 103:../src/platform/mpfs_hal/startup_gcc/system_startup.c ****         hls = (HLS_DATA*)(stack_top - HLS_DEBUG_AREA_SIZE);
 104:../src/platform/mpfs_hal/startup_gcc/system_startup.c ****         hls->in_wfi_indicator = HLS_MAIN_HART_STARTED;
 105:../src/platform/mpfs_hal/startup_gcc/system_startup.c ****         hls->my_hart_id = MPFS_HAL_FIRST_HART;
 106:../src/platform/mpfs_hal/startup_gcc/system_startup.c ****         WFI_SM sm_check_thread = INIT_THREAD_PR;
 107:../src/platform/mpfs_hal/startup_gcc/system_startup.c ****         hart_id = MPFS_HAL_FIRST_HART + 1U;
 108:../src/platform/mpfs_hal/startup_gcc/system_startup.c ****         while( hart_id <= MPFS_HAL_LAST_HART)
 109:../src/platform/mpfs_hal/startup_gcc/system_startup.c ****         {
 110:../src/platform/mpfs_hal/startup_gcc/system_startup.c ****             uint32_t wait_count = 0U;
 111:../src/platform/mpfs_hal/startup_gcc/system_startup.c **** 
 112:../src/platform/mpfs_hal/startup_gcc/system_startup.c ****             switch(sm_check_thread)
 113:../src/platform/mpfs_hal/startup_gcc/system_startup.c ****             {
 114:../src/platform/mpfs_hal/startup_gcc/system_startup.c ****                 default:
 115:../src/platform/mpfs_hal/startup_gcc/system_startup.c ****                 case INIT_THREAD_PR:
 116:../src/platform/mpfs_hal/startup_gcc/system_startup.c **** 
 117:../src/platform/mpfs_hal/startup_gcc/system_startup.c ****                     switch (hart_id)
 118:../src/platform/mpfs_hal/startup_gcc/system_startup.c ****                     {
 119:../src/platform/mpfs_hal/startup_gcc/system_startup.c ****                         case 1:
 120:../src/platform/mpfs_hal/startup_gcc/system_startup.c ****                             stack_top = (ptrdiff_t)((uint8_t*)&__stack_top_h1$);
 121:../src/platform/mpfs_hal/startup_gcc/system_startup.c ****                             break;
 122:../src/platform/mpfs_hal/startup_gcc/system_startup.c ****                         case 2:
 123:../src/platform/mpfs_hal/startup_gcc/system_startup.c ****                             stack_top = (ptrdiff_t)((uint8_t*)&__stack_top_h2$);
 124:../src/platform/mpfs_hal/startup_gcc/system_startup.c ****                             break;
 125:../src/platform/mpfs_hal/startup_gcc/system_startup.c ****                         case 3:
 126:../src/platform/mpfs_hal/startup_gcc/system_startup.c ****                             stack_top = (ptrdiff_t)((uint8_t*)&__stack_top_h3$);
 127:../src/platform/mpfs_hal/startup_gcc/system_startup.c ****                             break;
 128:../src/platform/mpfs_hal/startup_gcc/system_startup.c ****                         case 4:
 129:../src/platform/mpfs_hal/startup_gcc/system_startup.c ****                             stack_top = (ptrdiff_t)((uint8_t*)&__stack_top_h4$);
 130:../src/platform/mpfs_hal/startup_gcc/system_startup.c ****                             break;
 131:../src/platform/mpfs_hal/startup_gcc/system_startup.c ****                     }
 132:../src/platform/mpfs_hal/startup_gcc/system_startup.c ****                     hls = (HLS_DATA*)(stack_top - HLS_DEBUG_AREA_SIZE);
 133:../src/platform/mpfs_hal/startup_gcc/system_startup.c ****                     sm_check_thread = CHECK_WFI;
 134:../src/platform/mpfs_hal/startup_gcc/system_startup.c ****                     wait_count = 0U;
 135:../src/platform/mpfs_hal/startup_gcc/system_startup.c ****                     break;
 136:../src/platform/mpfs_hal/startup_gcc/system_startup.c **** 
 137:../src/platform/mpfs_hal/startup_gcc/system_startup.c ****                 case CHECK_WFI:
 138:../src/platform/mpfs_hal/startup_gcc/system_startup.c ****                     if( hls->in_wfi_indicator == HLS_OTHER_HART_IN_WFI )
 139:../src/platform/mpfs_hal/startup_gcc/system_startup.c ****                     {
 140:../src/platform/mpfs_hal/startup_gcc/system_startup.c ****                         /* Separate state- to add a little delay */
 141:../src/platform/mpfs_hal/startup_gcc/system_startup.c ****                         sm_check_thread = SEND_WFI;
 142:../src/platform/mpfs_hal/startup_gcc/system_startup.c ****                     }
 143:../src/platform/mpfs_hal/startup_gcc/system_startup.c ****                     break;
 144:../src/platform/mpfs_hal/startup_gcc/system_startup.c **** 
 145:../src/platform/mpfs_hal/startup_gcc/system_startup.c ****                 case SEND_WFI:
 146:../src/platform/mpfs_hal/startup_gcc/system_startup.c ****                     hls->my_hart_id = hart_id; /* record hartid locally */
 147:../src/platform/mpfs_hal/startup_gcc/system_startup.c ****                     raise_soft_interrupt(hart_id);
 148:../src/platform/mpfs_hal/startup_gcc/system_startup.c ****                     sm_check_thread = CHECK_WAKE;
 149:../src/platform/mpfs_hal/startup_gcc/system_startup.c ****                     wait_count = 0UL;
 150:../src/platform/mpfs_hal/startup_gcc/system_startup.c ****                     break;
 151:../src/platform/mpfs_hal/startup_gcc/system_startup.c **** 
 152:../src/platform/mpfs_hal/startup_gcc/system_startup.c ****                 case CHECK_WAKE:
 153:../src/platform/mpfs_hal/startup_gcc/system_startup.c ****                     if( hls->in_wfi_indicator == HLS_OTHER_HART_PASSED_WFI )
 154:../src/platform/mpfs_hal/startup_gcc/system_startup.c ****                     {
 155:../src/platform/mpfs_hal/startup_gcc/system_startup.c ****                         sm_check_thread = INIT_THREAD_PR;
 156:../src/platform/mpfs_hal/startup_gcc/system_startup.c ****                         hart_id++;
 157:../src/platform/mpfs_hal/startup_gcc/system_startup.c ****                         wait_count = 0UL;
 158:../src/platform/mpfs_hal/startup_gcc/system_startup.c ****                     }
 159:../src/platform/mpfs_hal/startup_gcc/system_startup.c ****                     else
 160:../src/platform/mpfs_hal/startup_gcc/system_startup.c ****                     {
 161:../src/platform/mpfs_hal/startup_gcc/system_startup.c ****                         wait_count++;
 162:../src/platform/mpfs_hal/startup_gcc/system_startup.c ****                         if(wait_count > 0x10U)
 163:../src/platform/mpfs_hal/startup_gcc/system_startup.c ****                         {
 164:../src/platform/mpfs_hal/startup_gcc/system_startup.c ****                             if( hls->in_wfi_indicator == HLS_OTHER_HART_IN_WFI )
 165:../src/platform/mpfs_hal/startup_gcc/system_startup.c ****                             {
 166:../src/platform/mpfs_hal/startup_gcc/system_startup.c ****                                 hls->my_hart_id = hart_id; /* record hartid locally */
 167:../src/platform/mpfs_hal/startup_gcc/system_startup.c ****                                 raise_soft_interrupt(hart_id);
 168:../src/platform/mpfs_hal/startup_gcc/system_startup.c ****                                 wait_count = 0UL;
 169:../src/platform/mpfs_hal/startup_gcc/system_startup.c ****                             }
 170:../src/platform/mpfs_hal/startup_gcc/system_startup.c ****                         }
 171:../src/platform/mpfs_hal/startup_gcc/system_startup.c ****                     }
 172:../src/platform/mpfs_hal/startup_gcc/system_startup.c ****                     break;
 173:../src/platform/mpfs_hal/startup_gcc/system_startup.c ****             }
 174:../src/platform/mpfs_hal/startup_gcc/system_startup.c ****         }
 175:../src/platform/mpfs_hal/startup_gcc/system_startup.c ****         stack_top = (ptrdiff_t)((uint8_t*)&__stack_top_h0$);
 176:../src/platform/mpfs_hal/startup_gcc/system_startup.c ****         hls = (HLS_DATA*)(stack_top - HLS_DEBUG_AREA_SIZE);
 177:../src/platform/mpfs_hal/startup_gcc/system_startup.c ****         hls->in_wfi_indicator = HLS_MAIN_HART_FIN_INIT;
 178:../src/platform/mpfs_hal/startup_gcc/system_startup.c **** 
 179:../src/platform/mpfs_hal/startup_gcc/system_startup.c ****         /*
 180:../src/platform/mpfs_hal/startup_gcc/system_startup.c ****          * Turn on fic interfaces by default. Drivers will turn on/off other MSS
 181:../src/platform/mpfs_hal/startup_gcc/system_startup.c ****          * peripherals as required.
 182:../src/platform/mpfs_hal/startup_gcc/system_startup.c ****          */
 183:../src/platform/mpfs_hal/startup_gcc/system_startup.c ****         (void)mss_config_clk_rst(MSS_PERIPH_FIC0, (uint8_t)MPFS_HAL_FIRST_HART, PERIPHERAL_ON);
 184:../src/platform/mpfs_hal/startup_gcc/system_startup.c ****         (void)mss_config_clk_rst(MSS_PERIPH_FIC1, (uint8_t)MPFS_HAL_FIRST_HART, PERIPHERAL_ON);
 185:../src/platform/mpfs_hal/startup_gcc/system_startup.c ****         (void)mss_config_clk_rst(MSS_PERIPH_FIC2, (uint8_t)MPFS_HAL_FIRST_HART, PERIPHERAL_ON);
 186:../src/platform/mpfs_hal/startup_gcc/system_startup.c ****         (void)mss_config_clk_rst(MSS_PERIPH_FIC3, (uint8_t)MPFS_HAL_FIRST_HART, PERIPHERAL_ON);
 187:../src/platform/mpfs_hal/startup_gcc/system_startup.c ****         /* enable the fabric */
 188:../src/platform/mpfs_hal/startup_gcc/system_startup.c ****         mss_enable_fabric();
 189:../src/platform/mpfs_hal/startup_gcc/system_startup.c **** 
 190:../src/platform/mpfs_hal/startup_gcc/system_startup.c **** #endif /* MPFS_HAL_HW_CONFIG */
 191:../src/platform/mpfs_hal/startup_gcc/system_startup.c ****         (void)main_other_hart(hls);
 192:../src/platform/mpfs_hal/startup_gcc/system_startup.c ****     }
 193:../src/platform/mpfs_hal/startup_gcc/system_startup.c **** 
 194:../src/platform/mpfs_hal/startup_gcc/system_startup.c ****     __builtin_unreachable();
 195:../src/platform/mpfs_hal/startup_gcc/system_startup.c ****     /* should never get here */
 196:../src/platform/mpfs_hal/startup_gcc/system_startup.c ****     while(true)
 197:../src/platform/mpfs_hal/startup_gcc/system_startup.c ****     {
 198:../src/platform/mpfs_hal/startup_gcc/system_startup.c ****        static volatile uint64_t counter = 0U;
 199:../src/platform/mpfs_hal/startup_gcc/system_startup.c ****        /* Added some code as debugger hangs if in loop doing nothing */
 200:../src/platform/mpfs_hal/startup_gcc/system_startup.c ****        counter = counter + 1U;
 201:../src/platform/mpfs_hal/startup_gcc/system_startup.c ****     }
 202:../src/platform/mpfs_hal/startup_gcc/system_startup.c **** 
 203:../src/platform/mpfs_hal/startup_gcc/system_startup.c ****     return (0);
 204:../src/platform/mpfs_hal/startup_gcc/system_startup.c **** }
 205:../src/platform/mpfs_hal/startup_gcc/system_startup.c **** #endif
 206:../src/platform/mpfs_hal/startup_gcc/system_startup.c **** 
 207:../src/platform/mpfs_hal/startup_gcc/system_startup.c **** /*==============================================================================
 208:../src/platform/mpfs_hal/startup_gcc/system_startup.c ****  * This function is called by the lowest enabled hart (MPFS_HAL_FIRST_HART) in
 209:../src/platform/mpfs_hal/startup_gcc/system_startup.c ****  * the configuration file :
 210:../src/platform/mpfs_hal/startup_gcc/system_startup.c ****  * (src/boards/<my-board/platform_config/mpfs_hal_config/mss_sw_config.h )
 211:../src/platform/mpfs_hal/startup_gcc/system_startup.c ****  *
 212:../src/platform/mpfs_hal/startup_gcc/system_startup.c ****  * The other harts up to MPFS_HAL_LAST_HART are placed in wfi at this point.
 213:../src/platform/mpfs_hal/startup_gcc/system_startup.c ****  * This function brings them out of wfi in sequence.
 214:../src/platform/mpfs_hal/startup_gcc/system_startup.c ****  * If you need to modify this function, create your own one in a user directory
 215:../src/platform/mpfs_hal/startup_gcc/system_startup.c ****  * space
 216:../src/platform/mpfs_hal/startup_gcc/system_startup.c ****  * e.g. /hart0/e51.c
 217:../src/platform/mpfs_hal/startup_gcc/system_startup.c ****  */
 218:../src/platform/mpfs_hal/startup_gcc/system_startup.c **** #if (IMAGE_LOADED_BY_BOOTLOADER == 1)
 219:../src/platform/mpfs_hal/startup_gcc/system_startup.c **** 
 220:../src/platform/mpfs_hal/startup_gcc/system_startup.c **** __attribute__((weak)) int main_first_hart_app(HLS_DATA* hls)
 221:../src/platform/mpfs_hal/startup_gcc/system_startup.c **** {
 222:../src/platform/mpfs_hal/startup_gcc/system_startup.c ****     uint64_t hartid = read_csr(mhartid);
 223:../src/platform/mpfs_hal/startup_gcc/system_startup.c **** 
 224:../src/platform/mpfs_hal/startup_gcc/system_startup.c ****     if(hartid == MPFS_HAL_FIRST_HART)
 225:../src/platform/mpfs_hal/startup_gcc/system_startup.c ****     {
 226:../src/platform/mpfs_hal/startup_gcc/system_startup.c ****         uint8_t hart_id;
 227:../src/platform/mpfs_hal/startup_gcc/system_startup.c ****         ptrdiff_t stack_top;
 228:../src/platform/mpfs_hal/startup_gcc/system_startup.c **** 
 229:../src/platform/mpfs_hal/startup_gcc/system_startup.c ****         init_memory();
 230:../src/platform/mpfs_hal/startup_gcc/system_startup.c **** 
 231:../src/platform/mpfs_hal/startup_gcc/system_startup.c ****         hls->my_hart_id = MPFS_HAL_FIRST_HART;
 232:../src/platform/mpfs_hal/startup_gcc/system_startup.c ****         hls->in_wfi_indicator = HLS_MAIN_HART_STARTED;
 233:../src/platform/mpfs_hal/startup_gcc/system_startup.c ****         WFI_SM sm_check_thread = INIT_THREAD_PR;
 234:../src/platform/mpfs_hal/startup_gcc/system_startup.c ****         hart_id = MPFS_HAL_FIRST_HART + 1U;
 235:../src/platform/mpfs_hal/startup_gcc/system_startup.c ****         while( hart_id <= MPFS_HAL_LAST_HART)
 236:../src/platform/mpfs_hal/startup_gcc/system_startup.c ****         {
 237:../src/platform/mpfs_hal/startup_gcc/system_startup.c ****             uint32_t wait_count = 0U;
 238:../src/platform/mpfs_hal/startup_gcc/system_startup.c **** 
 239:../src/platform/mpfs_hal/startup_gcc/system_startup.c ****             switch(sm_check_thread)
 240:../src/platform/mpfs_hal/startup_gcc/system_startup.c ****             {
 241:../src/platform/mpfs_hal/startup_gcc/system_startup.c ****                 default:
 242:../src/platform/mpfs_hal/startup_gcc/system_startup.c ****                 case INIT_THREAD_PR:
 243:../src/platform/mpfs_hal/startup_gcc/system_startup.c **** 
 244:../src/platform/mpfs_hal/startup_gcc/system_startup.c ****                     switch (hart_id)
 245:../src/platform/mpfs_hal/startup_gcc/system_startup.c ****                     {
 246:../src/platform/mpfs_hal/startup_gcc/system_startup.c ****                         case 1:
 247:../src/platform/mpfs_hal/startup_gcc/system_startup.c ****                             stack_top = (ptrdiff_t)((uint8_t*)&__stack_top_h1$);
 248:../src/platform/mpfs_hal/startup_gcc/system_startup.c ****                             break;
 249:../src/platform/mpfs_hal/startup_gcc/system_startup.c ****                         case 2:
 250:../src/platform/mpfs_hal/startup_gcc/system_startup.c ****                             stack_top = (ptrdiff_t)((uint8_t*)&__stack_top_h2$);
 251:../src/platform/mpfs_hal/startup_gcc/system_startup.c ****                             break;
 252:../src/platform/mpfs_hal/startup_gcc/system_startup.c ****                         case 3:
 253:../src/platform/mpfs_hal/startup_gcc/system_startup.c ****                             stack_top = (ptrdiff_t)((uint8_t*)&__stack_top_h3$);
 254:../src/platform/mpfs_hal/startup_gcc/system_startup.c ****                             break;
 255:../src/platform/mpfs_hal/startup_gcc/system_startup.c ****                         case 4:
 256:../src/platform/mpfs_hal/startup_gcc/system_startup.c ****                             stack_top = (ptrdiff_t)((uint8_t*)&__stack_top_h4$);
 257:../src/platform/mpfs_hal/startup_gcc/system_startup.c ****                             break;
 258:../src/platform/mpfs_hal/startup_gcc/system_startup.c ****                     }
 259:../src/platform/mpfs_hal/startup_gcc/system_startup.c ****                     hls = (HLS_DATA*)(stack_top - HLS_DEBUG_AREA_SIZE);
 260:../src/platform/mpfs_hal/startup_gcc/system_startup.c ****                     sm_check_thread = CHECK_WFI;
 261:../src/platform/mpfs_hal/startup_gcc/system_startup.c ****                     wait_count = 0U;
 262:../src/platform/mpfs_hal/startup_gcc/system_startup.c ****                     break;
 263:../src/platform/mpfs_hal/startup_gcc/system_startup.c **** 
 264:../src/platform/mpfs_hal/startup_gcc/system_startup.c ****                 case CHECK_WFI:
 265:../src/platform/mpfs_hal/startup_gcc/system_startup.c ****                     if( hls->in_wfi_indicator == HLS_OTHER_HART_IN_WFI )
 266:../src/platform/mpfs_hal/startup_gcc/system_startup.c ****                     {
 267:../src/platform/mpfs_hal/startup_gcc/system_startup.c ****                         /* Separate state- to add a little delay */
 268:../src/platform/mpfs_hal/startup_gcc/system_startup.c ****                         sm_check_thread = SEND_WFI;
 269:../src/platform/mpfs_hal/startup_gcc/system_startup.c ****                     }
 270:../src/platform/mpfs_hal/startup_gcc/system_startup.c ****                     break;
 271:../src/platform/mpfs_hal/startup_gcc/system_startup.c **** 
 272:../src/platform/mpfs_hal/startup_gcc/system_startup.c ****                 case SEND_WFI:
 273:../src/platform/mpfs_hal/startup_gcc/system_startup.c ****                     hls->my_hart_id = hart_id; /* record hartid locally */
 274:../src/platform/mpfs_hal/startup_gcc/system_startup.c ****                     raise_soft_interrupt(hart_id);
 275:../src/platform/mpfs_hal/startup_gcc/system_startup.c ****                     sm_check_thread = CHECK_WAKE;
 276:../src/platform/mpfs_hal/startup_gcc/system_startup.c ****                     wait_count = 0UL;
 277:../src/platform/mpfs_hal/startup_gcc/system_startup.c ****                     break;
 278:../src/platform/mpfs_hal/startup_gcc/system_startup.c **** 
 279:../src/platform/mpfs_hal/startup_gcc/system_startup.c ****                 case CHECK_WAKE:
 280:../src/platform/mpfs_hal/startup_gcc/system_startup.c ****                     if( hls->in_wfi_indicator == HLS_OTHER_HART_PASSED_WFI )
 281:../src/platform/mpfs_hal/startup_gcc/system_startup.c ****                     {
 282:../src/platform/mpfs_hal/startup_gcc/system_startup.c ****                         sm_check_thread = INIT_THREAD_PR;
 283:../src/platform/mpfs_hal/startup_gcc/system_startup.c ****                         hart_id++;
 284:../src/platform/mpfs_hal/startup_gcc/system_startup.c ****                         wait_count = 0UL;
 285:../src/platform/mpfs_hal/startup_gcc/system_startup.c ****                     }
 286:../src/platform/mpfs_hal/startup_gcc/system_startup.c ****                     else
 287:../src/platform/mpfs_hal/startup_gcc/system_startup.c ****                     {
 288:../src/platform/mpfs_hal/startup_gcc/system_startup.c ****                         wait_count++;
 289:../src/platform/mpfs_hal/startup_gcc/system_startup.c ****                         if(wait_count > 0x10U)
 290:../src/platform/mpfs_hal/startup_gcc/system_startup.c ****                         {
 291:../src/platform/mpfs_hal/startup_gcc/system_startup.c ****                             if( hls->in_wfi_indicator == HLS_OTHER_HART_IN_WFI )
 292:../src/platform/mpfs_hal/startup_gcc/system_startup.c ****                             {
 293:../src/platform/mpfs_hal/startup_gcc/system_startup.c ****                                 hls->my_hart_id = hart_id; /* record hartid locally */
 294:../src/platform/mpfs_hal/startup_gcc/system_startup.c ****                                 raise_soft_interrupt(hart_id);
 295:../src/platform/mpfs_hal/startup_gcc/system_startup.c ****                                 wait_count = 0UL;
 296:../src/platform/mpfs_hal/startup_gcc/system_startup.c ****                             }
 297:../src/platform/mpfs_hal/startup_gcc/system_startup.c ****                         }
 298:../src/platform/mpfs_hal/startup_gcc/system_startup.c ****                     }
 299:../src/platform/mpfs_hal/startup_gcc/system_startup.c ****                     break;
 300:../src/platform/mpfs_hal/startup_gcc/system_startup.c ****             }
 301:../src/platform/mpfs_hal/startup_gcc/system_startup.c ****         }
 302:../src/platform/mpfs_hal/startup_gcc/system_startup.c ****         stack_top = (ptrdiff_t)((uint8_t*)&__stack_top_h1$);
 303:../src/platform/mpfs_hal/startup_gcc/system_startup.c ****         hls = (HLS_DATA*)(stack_top - HLS_DEBUG_AREA_SIZE);
 304:../src/platform/mpfs_hal/startup_gcc/system_startup.c ****         hls->in_wfi_indicator = HLS_MAIN_HART_FIN_INIT;
 305:../src/platform/mpfs_hal/startup_gcc/system_startup.c ****         (void)main_other_hart(hls);
 306:../src/platform/mpfs_hal/startup_gcc/system_startup.c ****     }
 307:../src/platform/mpfs_hal/startup_gcc/system_startup.c **** 
 308:../src/platform/mpfs_hal/startup_gcc/system_startup.c ****     __builtin_unreachable();
 309:../src/platform/mpfs_hal/startup_gcc/system_startup.c ****     /* should never get here */
 310:../src/platform/mpfs_hal/startup_gcc/system_startup.c ****     while(true)
 311:../src/platform/mpfs_hal/startup_gcc/system_startup.c ****     {
 312:../src/platform/mpfs_hal/startup_gcc/system_startup.c ****        static volatile uint64_t counter = 0U;
 313:../src/platform/mpfs_hal/startup_gcc/system_startup.c ****        /* Added some code as debugger hangs if in loop doing nothing */
 314:../src/platform/mpfs_hal/startup_gcc/system_startup.c ****        counter = counter + 1U;
 315:../src/platform/mpfs_hal/startup_gcc/system_startup.c ****     }
 316:../src/platform/mpfs_hal/startup_gcc/system_startup.c **** 
 317:../src/platform/mpfs_hal/startup_gcc/system_startup.c ****     return (0);
 318:../src/platform/mpfs_hal/startup_gcc/system_startup.c **** }
 319:../src/platform/mpfs_hal/startup_gcc/system_startup.c **** #endif
 320:../src/platform/mpfs_hal/startup_gcc/system_startup.c **** 
 321:../src/platform/mpfs_hal/startup_gcc/system_startup.c **** /*==============================================================================
 322:../src/platform/mpfs_hal/startup_gcc/system_startup.c ****  * U54s startup.
 323:../src/platform/mpfs_hal/startup_gcc/system_startup.c ****  * This is called from entry.S
 324:../src/platform/mpfs_hal/startup_gcc/system_startup.c ****  * If you need to modify this function, create your own one in a user directory
 325:../src/platform/mpfs_hal/startup_gcc/system_startup.c ****  * space.
 326:../src/platform/mpfs_hal/startup_gcc/system_startup.c ****  *
 327:../src/platform/mpfs_hal/startup_gcc/system_startup.c ****  * Please note: harts MPFS_HAL_FIRST_FIRST + 1 to MPFS_HAL_FIRST_LAST will wait
 328:../src/platform/mpfs_hal/startup_gcc/system_startup.c ****  * in startup code in entry.S as they run the wfi (wait for interrupt)
 329:../src/platform/mpfs_hal/startup_gcc/system_startup.c ****  * instruction.
 330:../src/platform/mpfs_hal/startup_gcc/system_startup.c ****  * They are woken up as required by the the MPFS_HAL_FIRST_HART, in the function
 331:../src/platform/mpfs_hal/startup_gcc/system_startup.c ****  * main_first_hart().
 332:../src/platform/mpfs_hal/startup_gcc/system_startup.c ****  * ( It triggers a software interrupt on the particular hart to be woken up )
 333:../src/platform/mpfs_hal/startup_gcc/system_startup.c ****  */
 334:../src/platform/mpfs_hal/startup_gcc/system_startup.c **** __attribute__((weak)) int main_other_hart(HLS_DATA* hls)
 335:../src/platform/mpfs_hal/startup_gcc/system_startup.c **** {
 336:../src/platform/mpfs_hal/startup_gcc/system_startup.c **** #if (IMAGE_LOADED_BY_BOOTLOADER == 0)   // This also means no hardware init is required
 337:../src/platform/mpfs_hal/startup_gcc/system_startup.c ****     extern char __app_stack_top_h0;
 338:../src/platform/mpfs_hal/startup_gcc/system_startup.c ****     extern char __app_stack_top_h1;
 339:../src/platform/mpfs_hal/startup_gcc/system_startup.c ****     extern char __app_stack_top_h2;
 340:../src/platform/mpfs_hal/startup_gcc/system_startup.c ****     extern char __app_stack_top_h3;
 341:../src/platform/mpfs_hal/startup_gcc/system_startup.c ****     extern char __app_stack_top_h4;
 342:../src/platform/mpfs_hal/startup_gcc/system_startup.c **** 
 343:../src/platform/mpfs_hal/startup_gcc/system_startup.c ****     const uint64_t app_stack_top_h0 = (const uint64_t)&__app_stack_top_h0 - (HLS_DEBUG_AREA_SIZE);
 344:../src/platform/mpfs_hal/startup_gcc/system_startup.c ****     const uint64_t app_stack_top_h1 = (const uint64_t)&__app_stack_top_h1 - (HLS_DEBUG_AREA_SIZE);
 345:../src/platform/mpfs_hal/startup_gcc/system_startup.c ****     const uint64_t app_stack_top_h2 = (const uint64_t)&__app_stack_top_h2 - (HLS_DEBUG_AREA_SIZE);
 346:../src/platform/mpfs_hal/startup_gcc/system_startup.c ****     const uint64_t app_stack_top_h3 = (const uint64_t)&__app_stack_top_h3 - (HLS_DEBUG_AREA_SIZE);
 347:../src/platform/mpfs_hal/startup_gcc/system_startup.c ****     const uint64_t app_stack_top_h4 = (const uint64_t)&__app_stack_top_h4 - (HLS_DEBUG_AREA_SIZE);
 348:../src/platform/mpfs_hal/startup_gcc/system_startup.c **** 
 349:../src/platform/mpfs_hal/startup_gcc/system_startup.c **** #ifdef  MPFS_HAL_HW_CONFIG
 350:../src/platform/mpfs_hal/startup_gcc/system_startup.c **** #ifdef  MPFS_HAL_SHARED_MEM_ENABLED
 351:../src/platform/mpfs_hal/startup_gcc/system_startup.c ****     /*
 352:../src/platform/mpfs_hal/startup_gcc/system_startup.c ****      * If we are a boot-loader, and shared memory enabled (MPFS_HAL_SHARED_MEM_ENABLED)
 353:../src/platform/mpfs_hal/startup_gcc/system_startup.c ****      * sets the pointer in each harts HLS to the shared memory.
 354:../src/platform/mpfs_hal/startup_gcc/system_startup.c ****      * This allows access to this shared memory across all harts.
 355:../src/platform/mpfs_hal/startup_gcc/system_startup.c ****      */
 356:../src/platform/mpfs_hal/startup_gcc/system_startup.c ****     const uint64_t app_hart_common_start = (const uint64_t)&__app_hart_common_start;
 357:../src/platform/mpfs_hal/startup_gcc/system_startup.c ****     hls->shared_mem = (uint64_t *)app_hart_common_start;
 358:../src/platform/mpfs_hal/startup_gcc/system_startup.c ****     hls->shared_mem_marker = SHARED_MEM_INITALISED_MARKER;
 359:../src/platform/mpfs_hal/startup_gcc/system_startup.c ****     hls->shared_mem_status = SHARED_MEM_DEFAULT_STATUS;
 360:../src/platform/mpfs_hal/startup_gcc/system_startup.c **** #endif
 361:../src/platform/mpfs_hal/startup_gcc/system_startup.c **** #else
 362:../src/platform/mpfs_hal/startup_gcc/system_startup.c **** #ifdef  MPFS_HAL_SHARED_MEM_ENABLED
 363:../src/platform/mpfs_hal/startup_gcc/system_startup.c ****     /* make sure each harts Harts Local Storage has pointer to common memory if enabled */
 364:../src/platform/mpfs_hal/startup_gcc/system_startup.c ****     /* store the value here received from boot-loader */
 365:../src/platform/mpfs_hal/startup_gcc/system_startup.c ****     /* a1 will contain pointer to the start of shared memory */
 366:../src/platform/mpfs_hal/startup_gcc/system_startup.c ****     //hls->shared_mem = (uint64_t *)__uninit_bottom$;
 367:../src/platform/mpfs_hal/startup_gcc/system_startup.c **** #else
 368:../src/platform/mpfs_hal/startup_gcc/system_startup.c ****     /*
 369:../src/platform/mpfs_hal/startup_gcc/system_startup.c ****      * We are not using shared memory
 370:../src/platform/mpfs_hal/startup_gcc/system_startup.c ****      */
 371:../src/platform/mpfs_hal/startup_gcc/system_startup.c ****     hls->shared_mem = (uint64_t *)NULL;
 372:../src/platform/mpfs_hal/startup_gcc/system_startup.c **** #endif
 373:../src/platform/mpfs_hal/startup_gcc/system_startup.c **** #endif
 374:../src/platform/mpfs_hal/startup_gcc/system_startup.c **** 
 375:../src/platform/mpfs_hal/startup_gcc/system_startup.c ****     volatile uint64_t dummy;
 376:../src/platform/mpfs_hal/startup_gcc/system_startup.c **** 
 377:../src/platform/mpfs_hal/startup_gcc/system_startup.c ****     switch(hls->my_hart_id)
 378:../src/platform/mpfs_hal/startup_gcc/system_startup.c ****     {
 379:../src/platform/mpfs_hal/startup_gcc/system_startup.c **** 
 380:../src/platform/mpfs_hal/startup_gcc/system_startup.c ****     case 0U:
 381:../src/platform/mpfs_hal/startup_gcc/system_startup.c ****         __asm volatile ("add sp, x0, %1" : "=r"(dummy) : "r"(app_stack_top_h0));
 382:../src/platform/mpfs_hal/startup_gcc/system_startup.c ****         e51();
 383:../src/platform/mpfs_hal/startup_gcc/system_startup.c ****         break;
 384:../src/platform/mpfs_hal/startup_gcc/system_startup.c **** 
 385:../src/platform/mpfs_hal/startup_gcc/system_startup.c ****     case 1U:
 386:../src/platform/mpfs_hal/startup_gcc/system_startup.c ****         (void)init_pmp((uint8_t)1);
 387:../src/platform/mpfs_hal/startup_gcc/system_startup.c ****         __asm volatile ("add sp, x0, %1" : "=r"(dummy) : "r"(app_stack_top_h1));
 388:../src/platform/mpfs_hal/startup_gcc/system_startup.c ****         u54_1();
 389:../src/platform/mpfs_hal/startup_gcc/system_startup.c ****         break;
 390:../src/platform/mpfs_hal/startup_gcc/system_startup.c **** 
 391:../src/platform/mpfs_hal/startup_gcc/system_startup.c ****     case 2U:
 392:../src/platform/mpfs_hal/startup_gcc/system_startup.c ****         (void)init_pmp((uint8_t)2);
 393:../src/platform/mpfs_hal/startup_gcc/system_startup.c ****         __asm volatile ("add sp, x0, %1" : "=r"(dummy) : "r"(app_stack_top_h2));
 394:../src/platform/mpfs_hal/startup_gcc/system_startup.c ****         u54_2();
 395:../src/platform/mpfs_hal/startup_gcc/system_startup.c ****         break;
 396:../src/platform/mpfs_hal/startup_gcc/system_startup.c **** 
 397:../src/platform/mpfs_hal/startup_gcc/system_startup.c ****     case 3U:
 398:../src/platform/mpfs_hal/startup_gcc/system_startup.c ****         (void)init_pmp((uint8_t)3);
 399:../src/platform/mpfs_hal/startup_gcc/system_startup.c ****         __asm volatile ("add sp, x0, %1" : "=r"(dummy) : "r"(app_stack_top_h3));
 400:../src/platform/mpfs_hal/startup_gcc/system_startup.c ****         u54_3();
 401:../src/platform/mpfs_hal/startup_gcc/system_startup.c ****         break;
 402:../src/platform/mpfs_hal/startup_gcc/system_startup.c **** 
 403:../src/platform/mpfs_hal/startup_gcc/system_startup.c ****     case 4U:
 404:../src/platform/mpfs_hal/startup_gcc/system_startup.c ****         (void)init_pmp((uint8_t)4);
 405:../src/platform/mpfs_hal/startup_gcc/system_startup.c ****         __asm volatile ("add sp, x0, %1" : "=r"(dummy) : "r"(app_stack_top_h4));
 406:../src/platform/mpfs_hal/startup_gcc/system_startup.c ****         u54_4();
 407:../src/platform/mpfs_hal/startup_gcc/system_startup.c ****         break;
 408:../src/platform/mpfs_hal/startup_gcc/system_startup.c **** 
 409:../src/platform/mpfs_hal/startup_gcc/system_startup.c ****     default:
 410:../src/platform/mpfs_hal/startup_gcc/system_startup.c ****         /* no more harts */
 411:../src/platform/mpfs_hal/startup_gcc/system_startup.c ****         break;
 412:../src/platform/mpfs_hal/startup_gcc/system_startup.c ****     }
 413:../src/platform/mpfs_hal/startup_gcc/system_startup.c **** 
 414:../src/platform/mpfs_hal/startup_gcc/system_startup.c ****     /* should never get here */
 415:../src/platform/mpfs_hal/startup_gcc/system_startup.c ****     while(true)
 416:../src/platform/mpfs_hal/startup_gcc/system_startup.c ****     {
 417:../src/platform/mpfs_hal/startup_gcc/system_startup.c ****        static volatile uint64_t counter = 0U;
 418:../src/platform/mpfs_hal/startup_gcc/system_startup.c ****        /* Added some code as debugger hangs if in loop doing nothing */
 419:../src/platform/mpfs_hal/startup_gcc/system_startup.c ****        counter = counter + 1U;
 420:../src/platform/mpfs_hal/startup_gcc/system_startup.c ****     }
 421:../src/platform/mpfs_hal/startup_gcc/system_startup.c **** #else /* (IMAGE_LOADED_BY_BOOTLOADER == 0) */
 422:../src/platform/mpfs_hal/startup_gcc/system_startup.c **** 
 423:../src/platform/mpfs_hal/startup_gcc/system_startup.c **** 
 424:../src/platform/mpfs_hal/startup_gcc/system_startup.c ****     uint64_t hartid = read_csr(mhartid);
 425:../src/platform/mpfs_hal/startup_gcc/system_startup.c **** 
 426:../src/platform/mpfs_hal/startup_gcc/system_startup.c ****     switch(hartid)
 427:../src/platform/mpfs_hal/startup_gcc/system_startup.c ****     {
 428:../src/platform/mpfs_hal/startup_gcc/system_startup.c **** 
 429:../src/platform/mpfs_hal/startup_gcc/system_startup.c ****     case 0U:
 430:../src/platform/mpfs_hal/startup_gcc/system_startup.c ****         e51();
 431:../src/platform/mpfs_hal/startup_gcc/system_startup.c ****         break;
 432:../src/platform/mpfs_hal/startup_gcc/system_startup.c **** 
 433:../src/platform/mpfs_hal/startup_gcc/system_startup.c ****     case 1U:
 434:../src/platform/mpfs_hal/startup_gcc/system_startup.c ****         u54_1();
 435:../src/platform/mpfs_hal/startup_gcc/system_startup.c ****         break;
 436:../src/platform/mpfs_hal/startup_gcc/system_startup.c **** 
 437:../src/platform/mpfs_hal/startup_gcc/system_startup.c ****     case 2U:
 438:../src/platform/mpfs_hal/startup_gcc/system_startup.c ****         u54_2();
 439:../src/platform/mpfs_hal/startup_gcc/system_startup.c ****         break;
 440:../src/platform/mpfs_hal/startup_gcc/system_startup.c **** 
 441:../src/platform/mpfs_hal/startup_gcc/system_startup.c ****     case 3U:
 442:../src/platform/mpfs_hal/startup_gcc/system_startup.c ****         u54_3();
 443:../src/platform/mpfs_hal/startup_gcc/system_startup.c ****         break;
 444:../src/platform/mpfs_hal/startup_gcc/system_startup.c **** 
 445:../src/platform/mpfs_hal/startup_gcc/system_startup.c ****     case 4U:
 446:../src/platform/mpfs_hal/startup_gcc/system_startup.c ****         u54_4();
 447:../src/platform/mpfs_hal/startup_gcc/system_startup.c ****         break;
 448:../src/platform/mpfs_hal/startup_gcc/system_startup.c **** 
 449:../src/platform/mpfs_hal/startup_gcc/system_startup.c ****     default:
 450:../src/platform/mpfs_hal/startup_gcc/system_startup.c ****         /* no more harts */
 451:../src/platform/mpfs_hal/startup_gcc/system_startup.c ****         break;
 452:../src/platform/mpfs_hal/startup_gcc/system_startup.c ****     }
 453:../src/platform/mpfs_hal/startup_gcc/system_startup.c **** #endif
 454:../src/platform/mpfs_hal/startup_gcc/system_startup.c **** 
 455:../src/platform/mpfs_hal/startup_gcc/system_startup.c ****   return (0);
 456:../src/platform/mpfs_hal/startup_gcc/system_startup.c **** 
 457:../src/platform/mpfs_hal/startup_gcc/system_startup.c **** }
 458:../src/platform/mpfs_hal/startup_gcc/system_startup.c **** 
 459:../src/platform/mpfs_hal/startup_gcc/system_startup.c **** /*==============================================================================
 460:../src/platform/mpfs_hal/startup_gcc/system_startup.c ****  * Load the virtual ROM located at address 0x20003120 within the SCB system
 461:../src/platform/mpfs_hal/startup_gcc/system_startup.c ****  * registers with an executable allowing to park a hart in an infinite loop.
 462:../src/platform/mpfs_hal/startup_gcc/system_startup.c ****  */
 463:../src/platform/mpfs_hal/startup_gcc/system_startup.c **** #ifdef  MPFS_HAL_HW_CONFIG
 464:../src/platform/mpfs_hal/startup_gcc/system_startup.c **** #define VIRTUAL_BOOTROM_BASE_ADDR   0x20003120UL
 465:../src/platform/mpfs_hal/startup_gcc/system_startup.c **** #define NB_BOOT_ROM_WORDS           8U
 466:../src/platform/mpfs_hal/startup_gcc/system_startup.c **** const uint32_t rom[NB_BOOT_ROM_WORDS] =
 467:../src/platform/mpfs_hal/startup_gcc/system_startup.c **** {
 468:../src/platform/mpfs_hal/startup_gcc/system_startup.c ****     0x00000513U,    /* li a0, 0 */
 469:../src/platform/mpfs_hal/startup_gcc/system_startup.c ****     0x34451073U,    /* csrw mip, a0 */
 470:../src/platform/mpfs_hal/startup_gcc/system_startup.c ****     0x10500073U,    /* wfi */
 471:../src/platform/mpfs_hal/startup_gcc/system_startup.c ****     0xFF5FF06FU,    /* j 0x20003120 */
 472:../src/platform/mpfs_hal/startup_gcc/system_startup.c ****     0xFF1FF06FU,    /* j 0x20003120 */
 473:../src/platform/mpfs_hal/startup_gcc/system_startup.c ****     0xFEDFF06FU,    /* j 0x20003120 */
 474:../src/platform/mpfs_hal/startup_gcc/system_startup.c ****     0xFE9FF06FU,    /* j 0x20003120 */
 475:../src/platform/mpfs_hal/startup_gcc/system_startup.c ****     0xFE5FF06FU     /* j 0x20003120 */
 476:../src/platform/mpfs_hal/startup_gcc/system_startup.c **** };
 477:../src/platform/mpfs_hal/startup_gcc/system_startup.c **** 
 478:../src/platform/mpfs_hal/startup_gcc/system_startup.c **** void load_virtual_rom(void)
 479:../src/platform/mpfs_hal/startup_gcc/system_startup.c **** {
 480:../src/platform/mpfs_hal/startup_gcc/system_startup.c ****     volatile uint32_t * p_virtual_bootrom = (uint32_t *)VIRTUAL_BOOTROM_BASE_ADDR;
 481:../src/platform/mpfs_hal/startup_gcc/system_startup.c ****     config_copy( (void *)p_virtual_bootrom, (void *)rom,sizeof(rom[NB_BOOT_ROM_WORDS]));
 482:../src/platform/mpfs_hal/startup_gcc/system_startup.c **** }
 483:../src/platform/mpfs_hal/startup_gcc/system_startup.c **** #endif  /* MPFS_HAL_HW_CONFIG */
 484:../src/platform/mpfs_hal/startup_gcc/system_startup.c **** 
 485:../src/platform/mpfs_hal/startup_gcc/system_startup.c **** /*==============================================================================
 486:../src/platform/mpfs_hal/startup_gcc/system_startup.c ****  * Put the hart executing this code into an infinite loop executing from the
 487:../src/platform/mpfs_hal/startup_gcc/system_startup.c ****  * SCB system register memory space.
 488:../src/platform/mpfs_hal/startup_gcc/system_startup.c ****  * This allows preventing a hart from accessing memory regardless of memory
 489:../src/platform/mpfs_hal/startup_gcc/system_startup.c ****  * hierarchy configuration or compiler/linker settings.
 490:../src/platform/mpfs_hal/startup_gcc/system_startup.c ****  * This function relies on load_virtual_rom() having been called previously to
 491:../src/platform/mpfs_hal/startup_gcc/system_startup.c ****  * populate the virtual ROM with a suitable executable.
 492:../src/platform/mpfs_hal/startup_gcc/system_startup.c ****  */
 493:../src/platform/mpfs_hal/startup_gcc/system_startup.c **** static void park_hart(void)
 494:../src/platform/mpfs_hal/startup_gcc/system_startup.c **** {
  15              		.loc 1 494 1
  16              		.cfi_startproc
 495:../src/platform/mpfs_hal/startup_gcc/system_startup.c ****     clear_csr(mstatus, MSTATUS_MIE);
  17              		.loc 1 495 5
  18              	.LBB9:
  19              		.loc 1 495 5
  20              		.loc 1 495 5
  21              	 #APP
  22              	# 495 "../src/platform/mpfs_hal/startup_gcc/system_startup.c" 1
 496              	    __asm volatile("fence.i");
  23              		csrrc a5, mstatus, 8
  24              	# 0 "" 2
  25              	.LVL0:
 495:../src/platform/mpfs_hal/startup_gcc/system_startup.c ****     clear_csr(mstatus, MSTATUS_MIE);
  26              		.loc 1 495 5
  27              	 #NO_APP
  28              	.LBE9:
  29              		.loc 1 496 5
  30              	 #APP
  31              	# 496 "../src/platform/mpfs_hal/startup_gcc/system_startup.c" 1
 497              	    __asm volatile("li ra,0x20003120");
  32              		fence.i
  33              	# 0 "" 2
  34              		.loc 1 497 5
  35              	# 497 "../src/platform/mpfs_hal/startup_gcc/system_startup.c" 1
 498              	    __asm volatile("ret");
  36              		li ra,0x20003120
  37              	# 0 "" 2
  38              		.loc 1 498 5
  39              	# 498 "../src/platform/mpfs_hal/startup_gcc/system_startup.c" 1
 499              	}
  40              		ret
  41              	# 0 "" 2
  42              		.loc 1 499 1 is_stmt 0
  43              	 #NO_APP
  44 0012 8280     		ret
  45              		.cfi_endproc
  46              	.LFE23:
  48              		.section	.text.load_virtual_rom,"ax",@progbits
  49              		.align	1
  50              		.globl	load_virtual_rom
  52              	load_virtual_rom:
  53              	.LFB22:
 479:../src/platform/mpfs_hal/startup_gcc/system_startup.c ****     volatile uint32_t * p_virtual_bootrom = (uint32_t *)VIRTUAL_BOOTROM_BASE_ADDR;
  54              		.loc 1 479 1 is_stmt 1
  55              		.cfi_startproc
 480:../src/platform/mpfs_hal/startup_gcc/system_startup.c ****     config_copy( (void *)p_virtual_bootrom, (void *)rom,sizeof(rom[NB_BOOT_ROM_WORDS]));
  56              		.loc 1 480 5
  57              	.LVL1:
 481:../src/platform/mpfs_hal/startup_gcc/system_startup.c **** }
  58              		.loc 1 481 5
  59 0000 37350020 		li	a0,536883200
  60 0004 1146     		li	a2,4
  61 0006 97050000 		lla	a1,.LANCHOR0
  61      93850500 
  62 000e 13050512 		addi	a0,a0,288
  63 0012 17030000 		tail	config_copy
  63      67000300 
  64              	.LVL2:
  65              		.cfi_endproc
  66              	.LFE22:
  68              		.section	.text.e51,"ax",@progbits
  69              		.align	1
  70              		.weak	e51
  72              	e51:
  73              	.LFB24:
 500:../src/platform/mpfs_hal/startup_gcc/system_startup.c **** 
 501:../src/platform/mpfs_hal/startup_gcc/system_startup.c **** /*==============================================================================
 502:../src/platform/mpfs_hal/startup_gcc/system_startup.c ****  * E51 code executing after system startup.
 503:../src/platform/mpfs_hal/startup_gcc/system_startup.c ****  * In absence of an application function of this name with strong linkage, this
 504:../src/platform/mpfs_hal/startup_gcc/system_startup.c ****  * function will get linked.
 505:../src/platform/mpfs_hal/startup_gcc/system_startup.c ****  * This default implementation is for illustration purpose only. If you need to
 506:../src/platform/mpfs_hal/startup_gcc/system_startup.c ****  * modify this function, create your own one in an application directory space.
 507:../src/platform/mpfs_hal/startup_gcc/system_startup.c ****  */
 508:../src/platform/mpfs_hal/startup_gcc/system_startup.c **** __attribute__((weak)) void e51(void)
 509:../src/platform/mpfs_hal/startup_gcc/system_startup.c **** {
  74              		.loc 1 509 1
  75              		.cfi_startproc
 510:../src/platform/mpfs_hal/startup_gcc/system_startup.c ****     /* Put hart in safe infinite WFI loop. */
 511:../src/platform/mpfs_hal/startup_gcc/system_startup.c ****      park_hart();
  76              		.loc 1 511 6
  77 0000 17030000 		tail	park_hart
  77      67000300 
  78              	.LVL3:
  79              		.cfi_endproc
  80              	.LFE24:
  82              		.section	.text.u54_1,"ax",@progbits
  83              		.align	1
  84              		.weak	u54_1
  86              	u54_1:
  87              	.LFB35:
  88              		.cfi_startproc
  89 0000 17030000 		tail	park_hart
  89      67000300 
  90              		.cfi_endproc
  91              	.LFE35:
  93              		.section	.text.u54_2,"ax",@progbits
  94              		.align	1
  95              		.weak	u54_2
  97              	u54_2:
  98              	.LFB37:
  99              		.cfi_startproc
 100 0000 17030000 		tail	park_hart
 100      67000300 
 101              		.cfi_endproc
 102              	.LFE37:
 104              		.section	.text.u54_3,"ax",@progbits
 105              		.align	1
 106              		.weak	u54_3
 108              	u54_3:
 109              	.LFB39:
 110              		.cfi_startproc
 111 0000 17030000 		tail	park_hart
 111      67000300 
 112              		.cfi_endproc
 113              	.LFE39:
 115              		.section	.text.u54_4,"ax",@progbits
 116              		.align	1
 117              		.weak	u54_4
 119              	u54_4:
 120              	.LFB41:
 121              		.cfi_startproc
 122 0000 17030000 		tail	park_hart
 122      67000300 
 123              		.cfi_endproc
 124              	.LFE41:
 126              		.section	.text.init_memory,"ax",@progbits
 127              		.align	1
 128              		.weak	init_memory
 130              	init_memory:
 131              	.LFB29:
 512:../src/platform/mpfs_hal/startup_gcc/system_startup.c **** }
 513:../src/platform/mpfs_hal/startup_gcc/system_startup.c **** 
 514:../src/platform/mpfs_hal/startup_gcc/system_startup.c **** /*==============================================================================
 515:../src/platform/mpfs_hal/startup_gcc/system_startup.c ****  * First U54.
 516:../src/platform/mpfs_hal/startup_gcc/system_startup.c ****  * In absence of an application function of this name with strong linkage, this
 517:../src/platform/mpfs_hal/startup_gcc/system_startup.c ****  * function will get linked.
 518:../src/platform/mpfs_hal/startup_gcc/system_startup.c ****  * This default implementation is for illustration purpose only. If you need to
 519:../src/platform/mpfs_hal/startup_gcc/system_startup.c ****  * modify this function, create your own one in an application directory space.
 520:../src/platform/mpfs_hal/startup_gcc/system_startup.c ****   */
 521:../src/platform/mpfs_hal/startup_gcc/system_startup.c **** __attribute__((weak)) void u54_1(void)
 522:../src/platform/mpfs_hal/startup_gcc/system_startup.c **** {
 523:../src/platform/mpfs_hal/startup_gcc/system_startup.c ****     /* Put hart in safe infinite WFI loop. */
 524:../src/platform/mpfs_hal/startup_gcc/system_startup.c ****      park_hart();
 525:../src/platform/mpfs_hal/startup_gcc/system_startup.c **** }
 526:../src/platform/mpfs_hal/startup_gcc/system_startup.c **** 
 527:../src/platform/mpfs_hal/startup_gcc/system_startup.c **** 
 528:../src/platform/mpfs_hal/startup_gcc/system_startup.c **** /*==============================================================================
 529:../src/platform/mpfs_hal/startup_gcc/system_startup.c ****  * Second U54.
 530:../src/platform/mpfs_hal/startup_gcc/system_startup.c ****  * In absence of an application function of this name with strong linkage, this
 531:../src/platform/mpfs_hal/startup_gcc/system_startup.c ****  * function will get linked.
 532:../src/platform/mpfs_hal/startup_gcc/system_startup.c ****  * This default implementation is for illustration purpose only. If you need to
 533:../src/platform/mpfs_hal/startup_gcc/system_startup.c ****  * modify this function, create your own one in an application directory space.
 534:../src/platform/mpfs_hal/startup_gcc/system_startup.c ****  */
 535:../src/platform/mpfs_hal/startup_gcc/system_startup.c **** __attribute__((weak)) void u54_2(void)
 536:../src/platform/mpfs_hal/startup_gcc/system_startup.c **** {
 537:../src/platform/mpfs_hal/startup_gcc/system_startup.c ****     /* Put hart in safe infinite WFI loop. */
 538:../src/platform/mpfs_hal/startup_gcc/system_startup.c ****     park_hart();
 539:../src/platform/mpfs_hal/startup_gcc/system_startup.c **** }
 540:../src/platform/mpfs_hal/startup_gcc/system_startup.c **** 
 541:../src/platform/mpfs_hal/startup_gcc/system_startup.c **** /*==============================================================================
 542:../src/platform/mpfs_hal/startup_gcc/system_startup.c ****  * Third U54.
 543:../src/platform/mpfs_hal/startup_gcc/system_startup.c ****  * In absence of an application function of this name with strong linkage, this
 544:../src/platform/mpfs_hal/startup_gcc/system_startup.c ****  * function will get linked.
 545:../src/platform/mpfs_hal/startup_gcc/system_startup.c ****  * This default implementation is for illustration purpose only. If you need to
 546:../src/platform/mpfs_hal/startup_gcc/system_startup.c ****  * modify this function, create your own one in an application directory space.
 547:../src/platform/mpfs_hal/startup_gcc/system_startup.c ****  */
 548:../src/platform/mpfs_hal/startup_gcc/system_startup.c **** __attribute__((weak)) void u54_3(void)
 549:../src/platform/mpfs_hal/startup_gcc/system_startup.c **** {
 550:../src/platform/mpfs_hal/startup_gcc/system_startup.c ****     /* Put hart in safe infinite WFI loop. */
 551:../src/platform/mpfs_hal/startup_gcc/system_startup.c ****      park_hart();
 552:../src/platform/mpfs_hal/startup_gcc/system_startup.c **** }
 553:../src/platform/mpfs_hal/startup_gcc/system_startup.c **** 
 554:../src/platform/mpfs_hal/startup_gcc/system_startup.c **** /*==============================================================================
 555:../src/platform/mpfs_hal/startup_gcc/system_startup.c ****  * Fourth U54.
 556:../src/platform/mpfs_hal/startup_gcc/system_startup.c ****  * In absence of an application function of this name with strong linkage, this
 557:../src/platform/mpfs_hal/startup_gcc/system_startup.c ****  * function will get linked.
 558:../src/platform/mpfs_hal/startup_gcc/system_startup.c ****  * This default implementation is for illustration purpose only. If you need to
 559:../src/platform/mpfs_hal/startup_gcc/system_startup.c ****  * modify this function, create your own one in an application directory space.
 560:../src/platform/mpfs_hal/startup_gcc/system_startup.c ****  */
 561:../src/platform/mpfs_hal/startup_gcc/system_startup.c **** __attribute__((weak)) void u54_4(void)
 562:../src/platform/mpfs_hal/startup_gcc/system_startup.c **** {
 563:../src/platform/mpfs_hal/startup_gcc/system_startup.c ****     /* Put hart in safe infinite WFI loop. */
 564:../src/platform/mpfs_hal/startup_gcc/system_startup.c ****      park_hart();
 565:../src/platform/mpfs_hal/startup_gcc/system_startup.c **** }
 566:../src/platform/mpfs_hal/startup_gcc/system_startup.c **** 
 567:../src/platform/mpfs_hal/startup_gcc/system_startup.c ****  /*-----------------------------------------------------------------------------
 568:../src/platform/mpfs_hal/startup_gcc/system_startup.c ****   * _start() function called invoked
 569:../src/platform/mpfs_hal/startup_gcc/system_startup.c ****   * This function is called on power up and warm reset.
 570:../src/platform/mpfs_hal/startup_gcc/system_startup.c ****   */
 571:../src/platform/mpfs_hal/startup_gcc/system_startup.c ****  __attribute__((weak)) void init_memory( void)
 572:../src/platform/mpfs_hal/startup_gcc/system_startup.c ****  {
 132              		.loc 1 572 2
 133              		.cfi_startproc
 573:../src/platform/mpfs_hal/startup_gcc/system_startup.c ****     copy_section(&__text_load, &__text_start, &__text_end);
 134              		.loc 1 573 5
 572:../src/platform/mpfs_hal/startup_gcc/system_startup.c ****     copy_section(&__text_load, &__text_start, &__text_end);
 135              		.loc 1 572 2 is_stmt 0
 136 0000 4111     		addi	sp,sp,-16
 137              		.cfi_def_cfa_offset 16
 138              		.loc 1 573 5
 139 0002 17060000 		lla	a2,__text_end
 139      13060600 
 140 000a 97050000 		lla	a1,__text_start
 140      93850500 
 141 0012 17050000 		lla	a0,__text_load
 141      13050500 
 572:../src/platform/mpfs_hal/startup_gcc/system_startup.c ****     copy_section(&__text_load, &__text_start, &__text_end);
 142              		.loc 1 572 2
 143 001a 06E4     		sd	ra,8(sp)
 144              		.cfi_offset 1, -8
 145              		.loc 1 573 5
 146 001c 97000000 		call	copy_section
 146      E7800000 
 147              	.LVL4:
 574:../src/platform/mpfs_hal/startup_gcc/system_startup.c ****     copy_section(&__sdata_load, &__sdata_start, &__sdata_end);
 148              		.loc 1 574 5 is_stmt 1
 149 0024 17060000 		lla	a2,__sdata_end
 149      13060600 
 150 002c 97050000 		lla	a1,__sdata_start
 150      93850500 
 151 0034 17050000 		lla	a0,__sdata_load
 151      13050500 
 152 003c 97000000 		call	copy_section
 152      E7800000 
 153              	.LVL5:
 575:../src/platform/mpfs_hal/startup_gcc/system_startup.c ****     copy_section(&__data_load, &__data_start, &__data_end);
 154              		.loc 1 575 5
 155 0044 17060000 		lla	a2,__data_end
 155      13060600 
 156 004c 97050000 		lla	a1,__data_start
 156      93850500 
 157 0054 17050000 		lla	a0,__data_load
 157      13050500 
 158 005c 97000000 		call	copy_section
 158      E7800000 
 159              	.LVL6:
 576:../src/platform/mpfs_hal/startup_gcc/system_startup.c **** 
 577:../src/platform/mpfs_hal/startup_gcc/system_startup.c ****     zero_section(&__sbss_start, &__sbss_end);
 160              		.loc 1 577 5
 161 0064 97050000 		lla	a1,__sbss_end
 161      93850500 
 162 006c 17050000 		lla	a0,__sbss_start
 162      13050500 
 163 0074 97000000 		call	zero_section
 163      E7800000 
 164              	.LVL7:
 578:../src/platform/mpfs_hal/startup_gcc/system_startup.c ****     zero_section(&__bss_start, &__bss_end);
 165              		.loc 1 578 5
 166 007c 97050000 		lla	a1,__bss_end
 166      93850500 
 167 0084 17050000 		lla	a0,__bss_start
 167      13050500 
 168 008c 97000000 		call	zero_section
 168      E7800000 
 169              	.LVL8:
 579:../src/platform/mpfs_hal/startup_gcc/system_startup.c **** 
 580:../src/platform/mpfs_hal/startup_gcc/system_startup.c ****     __disable_all_irqs();      /* disables local and global interrupt enable */
 170              		.loc 1 580 5
 581:../src/platform/mpfs_hal/startup_gcc/system_startup.c ****  }
 171              		.loc 1 581 2 is_stmt 0
 172 0094 A260     		ld	ra,8(sp)
 173              		.cfi_restore 1
 174 0096 4101     		addi	sp,sp,16
 175              		.cfi_def_cfa_offset 0
 580:../src/platform/mpfs_hal/startup_gcc/system_startup.c ****  }
 176              		.loc 1 580 5
 177 0098 17030000 		tail	__disable_all_irqs
 177      67000300 
 178              	.LVL9:
 179              		.cfi_endproc
 180              	.LFE29:
 182              		.section	.text.init_ddr,"ax",@progbits
 183              		.align	1
 184              		.weak	init_ddr
 186              	init_ddr:
 187              	.LFB30:
 582:../src/platform/mpfs_hal/startup_gcc/system_startup.c **** 
 583:../src/platform/mpfs_hal/startup_gcc/system_startup.c ****  /*-----------------------------------------------------------------------------
 584:../src/platform/mpfs_hal/startup_gcc/system_startup.c ****    * _start() function called invoked
 585:../src/platform/mpfs_hal/startup_gcc/system_startup.c ****    * This function is called on power up and warm reset.
 586:../src/platform/mpfs_hal/startup_gcc/system_startup.c ****    */
 587:../src/platform/mpfs_hal/startup_gcc/system_startup.c ****   __attribute__((weak)) void init_ddr(void)
 588:../src/platform/mpfs_hal/startup_gcc/system_startup.c ****   {
 188              		.loc 1 588 3 is_stmt 1
 189              		.cfi_startproc
 589:../src/platform/mpfs_hal/startup_gcc/system_startup.c ****     if ((LIBERO_SETTING_DDRPHY_MODE & DDRPHY_MODE_MASK) != DDR_OFF_MODE) {
 190              		.loc 1 589 5
 191              	.LBB10:
 590:../src/platform/mpfs_hal/startup_gcc/system_startup.c **** #ifdef DDR_SUPPORT
 591:../src/platform/mpfs_hal/startup_gcc/system_startup.c ****         uint64_t end_address;
 192              		.loc 1 591 9
 592:../src/platform/mpfs_hal/startup_gcc/system_startup.c **** 
 593:../src/platform/mpfs_hal/startup_gcc/system_startup.c **** #if 0 /* enable to init cache to zero using 64 bit writes */
 594:../src/platform/mpfs_hal/startup_gcc/system_startup.c ****         end_address = LIBERO_SETTING_DDR_64_NON_CACHE + LIBERO_SETTING_CFG_AXI_END_ADDRESS_AXI2_0 +
 595:../src/platform/mpfs_hal/startup_gcc/system_startup.c ****         zero_section((uint64_t *)LIBERO_SETTING_DDR_64_NON_CACHE, (uint64_t *)end_address);
 596:../src/platform/mpfs_hal/startup_gcc/system_startup.c **** #endif
 597:../src/platform/mpfs_hal/startup_gcc/system_startup.c **** 
 598:../src/platform/mpfs_hal/startup_gcc/system_startup.c ****         end_address = LIBERO_SETTING_DDR_64_CACHE + LIBERO_SETTING_CFG_AXI_END_ADDRESS_AXI1_0 + LIB
 193              		.loc 1 598 9
 194              	.LVL10:
 599:../src/platform/mpfs_hal/startup_gcc/system_startup.c ****         zero_section((uint64_t *)LIBERO_SETTING_DDR_64_CACHE, (uint64_t *)end_address);
 195              		.loc 1 599 9
 196 0000 93051002 		li	a1,33
 197 0004 FE05     		slli	a1,a1,31
 198 0006 0545     		li	a0,1
 199 0008 FD15     		addi	a1,a1,-1
 200 000a 1215     		slli	a0,a0,36
 201 000c 17030000 		tail	zero_section
 201      67000300 
 202              	.LVL11:
 203              	.LBE10:
 204              		.cfi_endproc
 205              	.LFE30:
 207              		.section	.text.init_bus_error_unit,"ax",@progbits
 208              		.align	1
 209              		.weak	init_bus_error_unit
 211              	init_bus_error_unit:
 212              	.LFB31:
 600:../src/platform/mpfs_hal/startup_gcc/system_startup.c **** #endif
 601:../src/platform/mpfs_hal/startup_gcc/system_startup.c ****     }
 602:../src/platform/mpfs_hal/startup_gcc/system_startup.c ****   }
 603:../src/platform/mpfs_hal/startup_gcc/system_startup.c **** 
 604:../src/platform/mpfs_hal/startup_gcc/system_startup.c ****  /**
 605:../src/platform/mpfs_hal/startup_gcc/system_startup.c ****   * This function is configured by editing parameters in
 606:../src/platform/mpfs_hal/startup_gcc/system_startup.c ****   * mss_sw_config.h as required.
 607:../src/platform/mpfs_hal/startup_gcc/system_startup.c ****   * @return
 608:../src/platform/mpfs_hal/startup_gcc/system_startup.c ****   */
 609:../src/platform/mpfs_hal/startup_gcc/system_startup.c **** 
 610:../src/platform/mpfs_hal/startup_gcc/system_startup.c **** __attribute__((weak)) uint8_t init_bus_error_unit(void)
 611:../src/platform/mpfs_hal/startup_gcc/system_startup.c **** {
 213              		.loc 1 611 1
 214              		.cfi_startproc
 612:../src/platform/mpfs_hal/startup_gcc/system_startup.c ****     uint8_t hart_id;
 215              		.loc 1 612 5
 613:../src/platform/mpfs_hal/startup_gcc/system_startup.c ****     /* Init BEU in all harts - enable local interrupt */
 614:../src/platform/mpfs_hal/startup_gcc/system_startup.c ****     for(hart_id = MPFS_HAL_FIRST_HART; hart_id <= MPFS_HAL_LAST_HART; hart_id++)
 216              		.loc 1 614 5
 217              	.LVL12:
 611:../src/platform/mpfs_hal/startup_gcc/system_startup.c ****     uint8_t hart_id;
 218              		.loc 1 611 1 is_stmt 0
 219 0000 8146     		li	a3,0
 615:../src/platform/mpfs_hal/startup_gcc/system_startup.c ****     {
 616:../src/platform/mpfs_hal/startup_gcc/system_startup.c ****         BEU->regs[hart_id].ENABLE      = (uint64_t)BEU_ENABLE;
 220              		.loc 1 616 40
 221 0002 37067001 		li	a2,24117248
 614:../src/platform/mpfs_hal/startup_gcc/system_startup.c ****     {
 222              		.loc 1 614 5
 223 0006 9545     		li	a1,5
 224              	.LVL13:
 225              	.L12:
 226              		.loc 1 616 9 is_stmt 1 discriminator 3
 227              		.loc 1 616 40 is_stmt 0 discriminator 3
 228 0008 1397C600 		slli	a4,a3,12
 229 000c 3297     		add	a4,a2,a4
 230 000e 23380700 		sd	zero,16(a4)
 617:../src/platform/mpfs_hal/startup_gcc/system_startup.c ****         BEU->regs[hart_id].PLIC_INT    = (uint64_t)BEU_PLIC_INT;
 231              		.loc 1 617 9 is_stmt 1 discriminator 3
 232 0012 93970602 		slli	a5,a3,32
 233              		.loc 1 617 40 is_stmt 0 discriminator 3
 234 0016 233C0700 		sd	zero,24(a4)
 618:../src/platform/mpfs_hal/startup_gcc/system_startup.c ****         BEU->regs[hart_id].LOCAL_INT   = (uint64_t)BEU_LOCAL_INT;
 235              		.loc 1 618 9 is_stmt 1 discriminator 3
 236 001a D183     		srli	a5,a5,20
 237              		.loc 1 618 40 is_stmt 0 discriminator 3
 238 001c 23340702 		sd	zero,40(a4)
 619:../src/platform/mpfs_hal/startup_gcc/system_startup.c ****         BEU->regs[hart_id].CAUSE       = 0ULL;
 239              		.loc 1 619 9 is_stmt 1 discriminator 3
 240 0020 B297     		add	a5,a2,a5
 241              		.loc 1 619 40 is_stmt 0 discriminator 3
 242 0022 23B00700 		sd	zero,0(a5)
 620:../src/platform/mpfs_hal/startup_gcc/system_startup.c ****         BEU->regs[hart_id].ACCRUED     = 0ULL;
 243              		.loc 1 620 9 is_stmt 1 discriminator 3
 244              		.loc 1 620 40 is_stmt 0 discriminator 3
 245 0026 23300702 		sd	zero,32(a4)
 621:../src/platform/mpfs_hal/startup_gcc/system_startup.c ****         BEU->regs[hart_id].VALUE       = 0ULL;
 246              		.loc 1 621 9 is_stmt 1 discriminator 3
 247              		.loc 1 621 40 is_stmt 0 discriminator 3
 248 002a 23B40700 		sd	zero,8(a5)
 249              	.LVL14:
 250 002e 8526     		addiw	a3,a3,1
 251              	.LVL15:
 614:../src/platform/mpfs_hal/startup_gcc/system_startup.c ****     {
 252              		.loc 1 614 5 discriminator 3
 253 0030 E39CB6FC 		bne	a3,a1,.L12
 622:../src/platform/mpfs_hal/startup_gcc/system_startup.c ****     }
 623:../src/platform/mpfs_hal/startup_gcc/system_startup.c ****     return (0U);
 254              		.loc 1 623 5 is_stmt 1
 624:../src/platform/mpfs_hal/startup_gcc/system_startup.c **** }
 255              		.loc 1 624 1 is_stmt 0
 256 0034 0145     		li	a0,0
 257 0036 8280     		ret
 258              		.cfi_endproc
 259              	.LFE31:
 261              		.section	.text.init_mem_protection_unit,"ax",@progbits
 262              		.align	1
 263              		.weak	init_mem_protection_unit
 265              	init_mem_protection_unit:
 266              	.LFB32:
 625:../src/platform/mpfs_hal/startup_gcc/system_startup.c **** 
 626:../src/platform/mpfs_hal/startup_gcc/system_startup.c **** /**
 627:../src/platform/mpfs_hal/startup_gcc/system_startup.c ****  * init_mem_protection_unit(void)
 628:../src/platform/mpfs_hal/startup_gcc/system_startup.c ****  * add this function to you code and configure as required
 629:../src/platform/mpfs_hal/startup_gcc/system_startup.c ****  * @return
 630:../src/platform/mpfs_hal/startup_gcc/system_startup.c ****  */
 631:../src/platform/mpfs_hal/startup_gcc/system_startup.c **** __attribute__((weak)) uint8_t init_mem_protection_unit(void)
 632:../src/platform/mpfs_hal/startup_gcc/system_startup.c **** {
 267              		.loc 1 632 1 is_stmt 1
 268              		.cfi_startproc
 633:../src/platform/mpfs_hal/startup_gcc/system_startup.c ****     mpu_configure();
 269              		.loc 1 633 5
 632:../src/platform/mpfs_hal/startup_gcc/system_startup.c ****     mpu_configure();
 270              		.loc 1 632 1 is_stmt 0
 271 0000 4111     		addi	sp,sp,-16
 272              		.cfi_def_cfa_offset 16
 273 0002 06E4     		sd	ra,8(sp)
 274              		.cfi_offset 1, -8
 275              		.loc 1 633 5
 276 0004 97000000 		call	mpu_configure
 276      E7800000 
 277              	.LVL16:
 634:../src/platform/mpfs_hal/startup_gcc/system_startup.c ****     return (0U);
 278              		.loc 1 634 5 is_stmt 1
 635:../src/platform/mpfs_hal/startup_gcc/system_startup.c **** }
 279              		.loc 1 635 1 is_stmt 0
 280 000c A260     		ld	ra,8(sp)
 281              		.cfi_restore 1
 282 000e 0145     		li	a0,0
 283 0010 4101     		addi	sp,sp,16
 284              		.cfi_def_cfa_offset 0
 285 0012 8280     		jr	ra
 286              		.cfi_endproc
 287              	.LFE32:
 289              		.section	.text.init_pmp,"ax",@progbits
 290              		.align	1
 291              		.weak	init_pmp
 293              	init_pmp:
 294              	.LFB33:
 636:../src/platform/mpfs_hal/startup_gcc/system_startup.c **** 
 637:../src/platform/mpfs_hal/startup_gcc/system_startup.c **** /**
 638:../src/platform/mpfs_hal/startup_gcc/system_startup.c ****  * init_pmp(void)
 639:../src/platform/mpfs_hal/startup_gcc/system_startup.c ****  * add this function to you code and configure as required
 640:../src/platform/mpfs_hal/startup_gcc/system_startup.c ****  * @return
 641:../src/platform/mpfs_hal/startup_gcc/system_startup.c ****  */
 642:../src/platform/mpfs_hal/startup_gcc/system_startup.c **** __attribute__((weak)) uint8_t init_pmp(uint8_t hart_id)
 643:../src/platform/mpfs_hal/startup_gcc/system_startup.c **** {
 295              		.loc 1 643 1 is_stmt 1
 296              		.cfi_startproc
 297              	.LVL17:
 644:../src/platform/mpfs_hal/startup_gcc/system_startup.c ****     pmp_configure(hart_id);
 298              		.loc 1 644 5
 643:../src/platform/mpfs_hal/startup_gcc/system_startup.c ****     pmp_configure(hart_id);
 299              		.loc 1 643 1 is_stmt 0
 300 0000 4111     		addi	sp,sp,-16
 301              		.cfi_def_cfa_offset 16
 302 0002 06E4     		sd	ra,8(sp)
 303              		.cfi_offset 1, -8
 304              		.loc 1 644 5
 305 0004 97000000 		call	pmp_configure
 305      E7800000 
 306              	.LVL18:
 645:../src/platform/mpfs_hal/startup_gcc/system_startup.c ****     return (0U);
 307              		.loc 1 645 5 is_stmt 1
 646:../src/platform/mpfs_hal/startup_gcc/system_startup.c **** }
 308              		.loc 1 646 1 is_stmt 0
 309 000c A260     		ld	ra,8(sp)
 310              		.cfi_restore 1
 311 000e 0145     		li	a0,0
 312 0010 4101     		addi	sp,sp,16
 313              		.cfi_def_cfa_offset 0
 314 0012 8280     		jr	ra
 315              		.cfi_endproc
 316              	.LFE33:
 318              		.section	.text.main_other_hart,"ax",@progbits
 319              		.align	1
 320              		.weak	main_other_hart
 322              	main_other_hart:
 323              	.LFB21:
 335:../src/platform/mpfs_hal/startup_gcc/system_startup.c **** #if (IMAGE_LOADED_BY_BOOTLOADER == 0)   // This also means no hardware init is required
 324              		.loc 1 335 1 is_stmt 1
 325              		.cfi_startproc
 326              	.LVL19:
 337:../src/platform/mpfs_hal/startup_gcc/system_startup.c ****     extern char __app_stack_top_h1;
 327              		.loc 1 337 5
 338:../src/platform/mpfs_hal/startup_gcc/system_startup.c ****     extern char __app_stack_top_h2;
 328              		.loc 1 338 5
 339:../src/platform/mpfs_hal/startup_gcc/system_startup.c ****     extern char __app_stack_top_h3;
 329              		.loc 1 339 5
 340:../src/platform/mpfs_hal/startup_gcc/system_startup.c ****     extern char __app_stack_top_h4;
 330              		.loc 1 340 5
 341:../src/platform/mpfs_hal/startup_gcc/system_startup.c **** 
 331              		.loc 1 341 5
 343:../src/platform/mpfs_hal/startup_gcc/system_startup.c ****     const uint64_t app_stack_top_h1 = (const uint64_t)&__app_stack_top_h1 - (HLS_DEBUG_AREA_SIZE);
 332              		.loc 1 343 5
 344:../src/platform/mpfs_hal/startup_gcc/system_startup.c ****     const uint64_t app_stack_top_h2 = (const uint64_t)&__app_stack_top_h2 - (HLS_DEBUG_AREA_SIZE);
 333              		.loc 1 344 5
 345:../src/platform/mpfs_hal/startup_gcc/system_startup.c ****     const uint64_t app_stack_top_h3 = (const uint64_t)&__app_stack_top_h3 - (HLS_DEBUG_AREA_SIZE);
 334              		.loc 1 345 5
 346:../src/platform/mpfs_hal/startup_gcc/system_startup.c ****     const uint64_t app_stack_top_h4 = (const uint64_t)&__app_stack_top_h4 - (HLS_DEBUG_AREA_SIZE);
 335              		.loc 1 346 5
 347:../src/platform/mpfs_hal/startup_gcc/system_startup.c **** 
 336              		.loc 1 347 5
 375:../src/platform/mpfs_hal/startup_gcc/system_startup.c **** 
 337              		.loc 1 375 5
 377:../src/platform/mpfs_hal/startup_gcc/system_startup.c ****     {
 338              		.loc 1 377 5
 377:../src/platform/mpfs_hal/startup_gcc/system_startup.c ****     {
 339              		.loc 1 377 15 is_stmt 0
 340 0000 5C41     		lw	a5,4(a0)
 377:../src/platform/mpfs_hal/startup_gcc/system_startup.c ****     {
 341              		.loc 1 377 5
 342 0002 1147     		li	a4,4
 377:../src/platform/mpfs_hal/startup_gcc/system_startup.c ****     {
 343              		.loc 1 377 15
 344 0004 8127     		sext.w	a5,a5
 377:../src/platform/mpfs_hal/startup_gcc/system_startup.c ****     {
 345              		.loc 1 377 5
 346 0006 6367F70C 		bgtu	a5,a4,.L28
 347 000a 17070000 		lla	a4,.L21
 347      13070700 
 348 0012 8A07     		slli	a5,a5,2
 349 0014 BA97     		add	a5,a5,a4
 350 0016 9C43     		lw	a5,0(a5)
 335:../src/platform/mpfs_hal/startup_gcc/system_startup.c **** #if (IMAGE_LOADED_BY_BOOTLOADER == 0)   // This also means no hardware init is required
 351              		.loc 1 335 1
 352 0018 0111     		addi	sp,sp,-32
 353              		.cfi_def_cfa_offset 32
 354 001a 06EC     		sd	ra,24(sp)
 355              		.cfi_offset 1, -8
 377:../src/platform/mpfs_hal/startup_gcc/system_startup.c ****     {
 356              		.loc 1 377 5
 357 001c BA97     		add	a5,a5,a4
 358 001e 8287     		jr	a5
 359              		.section	.rodata.main_other_hart,"a",@progbits
 360              		.align	2
 361              		.align	2
 362              	.L21:
 363 0000 00000000 		.word	.L25-.L21
 364 0004 00000000 		.word	.L24-.L21
 365 0008 00000000 		.word	.L23-.L21
 366 000c 00000000 		.word	.L22-.L21
 367 0010 00000000 		.word	.L20-.L21
 368              		.section	.text.main_other_hart
 369              	.L25:
 381:../src/platform/mpfs_hal/startup_gcc/system_startup.c ****         e51();
 370              		.loc 1 381 9 is_stmt 1
 343:../src/platform/mpfs_hal/startup_gcc/system_startup.c ****     const uint64_t app_stack_top_h1 = (const uint64_t)&__app_stack_top_h1 - (HLS_DEBUG_AREA_SIZE);
 371              		.loc 1 343 20 is_stmt 0
 372 0020 97070000 		lla	a5,__app_stack_top_h0-64
 372      93870700 
 381:../src/platform/mpfs_hal/startup_gcc/system_startup.c ****         e51();
 373              		.loc 1 381 9
 374              	 #APP
 375              	# 381 "../src/platform/mpfs_hal/startup_gcc/system_startup.c" 1
 376              		add sp, x0, a5
 377              	# 0 "" 2
 378              	 #NO_APP
 379 002c 3EE4     		sd	a5,8(sp)
 382:../src/platform/mpfs_hal/startup_gcc/system_startup.c ****         break;
 380              		.loc 1 382 9 is_stmt 1
 381 002e 97000000 		call	e51
 381      E7800000 
 382              	.LVL20:
 383:../src/platform/mpfs_hal/startup_gcc/system_startup.c **** 
 383              		.loc 1 383 9
 384              	.L19:
 385              	.LBB11:
 419:../src/platform/mpfs_hal/startup_gcc/system_startup.c ****     }
 386              		.loc 1 419 26 is_stmt 0 discriminator 1
 387 0036 17070000 		lla	a4,.LANCHOR1
 387      13070700 
 388              	.L26:
 389              	.LBE11:
 415:../src/platform/mpfs_hal/startup_gcc/system_startup.c ****     {
 390              		.loc 1 415 5 is_stmt 1 discriminator 1
 391              	.LBB12:
 417:../src/platform/mpfs_hal/startup_gcc/system_startup.c ****        /* Added some code as debugger hangs if in loop doing nothing */
 392              		.loc 1 417 8 discriminator 1
 419:../src/platform/mpfs_hal/startup_gcc/system_startup.c ****     }
 393              		.loc 1 419 8 discriminator 1
 419:../src/platform/mpfs_hal/startup_gcc/system_startup.c ****     }
 394              		.loc 1 419 26 is_stmt 0 discriminator 1
 395 003e 1C63     		ld	a5,0(a4)
 396 0040 8507     		addi	a5,a5,1
 419:../src/platform/mpfs_hal/startup_gcc/system_startup.c ****     }
 397              		.loc 1 419 16 discriminator 1
 398 0042 97060000 		sd	a5,.LANCHOR1,a3
 398      23B0F600 
 399 004a D5BF     		j	.L26
 400              	.LVL21:
 401              	.L24:
 402              	.LBE12:
 386:../src/platform/mpfs_hal/startup_gcc/system_startup.c ****         __asm volatile ("add sp, x0, %1" : "=r"(dummy) : "r"(app_stack_top_h1));
 403              		.loc 1 386 9 is_stmt 1
 386:../src/platform/mpfs_hal/startup_gcc/system_startup.c ****         __asm volatile ("add sp, x0, %1" : "=r"(dummy) : "r"(app_stack_top_h1));
 404              		.loc 1 386 15 is_stmt 0
 405 004c 0545     		li	a0,1
 406              	.LVL22:
 407 004e 97000000 		call	init_pmp
 407      E7800000 
 408              	.LVL23:
 387:../src/platform/mpfs_hal/startup_gcc/system_startup.c ****         u54_1();
 409              		.loc 1 387 9 is_stmt 1
 344:../src/platform/mpfs_hal/startup_gcc/system_startup.c ****     const uint64_t app_stack_top_h2 = (const uint64_t)&__app_stack_top_h2 - (HLS_DEBUG_AREA_SIZE);
 410              		.loc 1 344 20 is_stmt 0
 411 0056 97070000 		lla	a5,__app_stack_top_h1-64
 411      93870700 
 387:../src/platform/mpfs_hal/startup_gcc/system_startup.c ****         u54_1();
 412              		.loc 1 387 9
 413              	 #APP
 414              	# 387 "../src/platform/mpfs_hal/startup_gcc/system_startup.c" 1
 415              		add sp, x0, a5
 416              	# 0 "" 2
 417              	 #NO_APP
 418 0062 3EE4     		sd	a5,8(sp)
 388:../src/platform/mpfs_hal/startup_gcc/system_startup.c ****         break;
 419              		.loc 1 388 9 is_stmt 1
 420 0064 97000000 		call	u54_1
 420      E7800000 
 421              	.LVL24:
 389:../src/platform/mpfs_hal/startup_gcc/system_startup.c **** 
 422              		.loc 1 389 9
 423 006c E9B7     		j	.L19
 424              	.LVL25:
 425              	.L23:
 392:../src/platform/mpfs_hal/startup_gcc/system_startup.c ****         __asm volatile ("add sp, x0, %1" : "=r"(dummy) : "r"(app_stack_top_h2));
 426              		.loc 1 392 9
 392:../src/platform/mpfs_hal/startup_gcc/system_startup.c ****         __asm volatile ("add sp, x0, %1" : "=r"(dummy) : "r"(app_stack_top_h2));
 427              		.loc 1 392 15 is_stmt 0
 428 006e 0945     		li	a0,2
 429              	.LVL26:
 430 0070 97000000 		call	init_pmp
 430      E7800000 
 431              	.LVL27:
 393:../src/platform/mpfs_hal/startup_gcc/system_startup.c ****         u54_2();
 432              		.loc 1 393 9 is_stmt 1
 345:../src/platform/mpfs_hal/startup_gcc/system_startup.c ****     const uint64_t app_stack_top_h3 = (const uint64_t)&__app_stack_top_h3 - (HLS_DEBUG_AREA_SIZE);
 433              		.loc 1 345 20 is_stmt 0
 434 0078 97070000 		lla	a5,__app_stack_top_h2-64
 434      93870700 
 393:../src/platform/mpfs_hal/startup_gcc/system_startup.c ****         u54_2();
 435              		.loc 1 393 9
 436              	 #APP
 437              	# 393 "../src/platform/mpfs_hal/startup_gcc/system_startup.c" 1
 438              		add sp, x0, a5
 439              	# 0 "" 2
 440              	 #NO_APP
 441 0084 3EE4     		sd	a5,8(sp)
 394:../src/platform/mpfs_hal/startup_gcc/system_startup.c ****         break;
 442              		.loc 1 394 9 is_stmt 1
 443 0086 97000000 		call	u54_2
 443      E7800000 
 444              	.LVL28:
 395:../src/platform/mpfs_hal/startup_gcc/system_startup.c **** 
 445              		.loc 1 395 9
 446 008e 65B7     		j	.L19
 447              	.LVL29:
 448              	.L22:
 398:../src/platform/mpfs_hal/startup_gcc/system_startup.c ****         __asm volatile ("add sp, x0, %1" : "=r"(dummy) : "r"(app_stack_top_h3));
 449              		.loc 1 398 9
 398:../src/platform/mpfs_hal/startup_gcc/system_startup.c ****         __asm volatile ("add sp, x0, %1" : "=r"(dummy) : "r"(app_stack_top_h3));
 450              		.loc 1 398 15 is_stmt 0
 451 0090 0D45     		li	a0,3
 452              	.LVL30:
 453 0092 97000000 		call	init_pmp
 453      E7800000 
 454              	.LVL31:
 399:../src/platform/mpfs_hal/startup_gcc/system_startup.c ****         u54_3();
 455              		.loc 1 399 9 is_stmt 1
 346:../src/platform/mpfs_hal/startup_gcc/system_startup.c ****     const uint64_t app_stack_top_h4 = (const uint64_t)&__app_stack_top_h4 - (HLS_DEBUG_AREA_SIZE);
 456              		.loc 1 346 20 is_stmt 0
 457 009a 97070000 		lla	a5,__app_stack_top_h3-64
 457      93870700 
 399:../src/platform/mpfs_hal/startup_gcc/system_startup.c ****         u54_3();
 458              		.loc 1 399 9
 459              	 #APP
 460              	# 399 "../src/platform/mpfs_hal/startup_gcc/system_startup.c" 1
 461              		add sp, x0, a5
 462              	# 0 "" 2
 463              	 #NO_APP
 464 00a6 3EE4     		sd	a5,8(sp)
 400:../src/platform/mpfs_hal/startup_gcc/system_startup.c ****         break;
 465              		.loc 1 400 9 is_stmt 1
 466 00a8 97000000 		call	u54_3
 466      E7800000 
 467              	.LVL32:
 401:../src/platform/mpfs_hal/startup_gcc/system_startup.c **** 
 468              		.loc 1 401 9
 469 00b0 59B7     		j	.L19
 470              	.LVL33:
 471              	.L20:
 404:../src/platform/mpfs_hal/startup_gcc/system_startup.c ****         __asm volatile ("add sp, x0, %1" : "=r"(dummy) : "r"(app_stack_top_h4));
 472              		.loc 1 404 9
 404:../src/platform/mpfs_hal/startup_gcc/system_startup.c ****         __asm volatile ("add sp, x0, %1" : "=r"(dummy) : "r"(app_stack_top_h4));
 473              		.loc 1 404 15 is_stmt 0
 474 00b2 1145     		li	a0,4
 475              	.LVL34:
 476 00b4 97000000 		call	init_pmp
 476      E7800000 
 477              	.LVL35:
 405:../src/platform/mpfs_hal/startup_gcc/system_startup.c ****         u54_4();
 478              		.loc 1 405 9 is_stmt 1
 347:../src/platform/mpfs_hal/startup_gcc/system_startup.c **** 
 479              		.loc 1 347 20 is_stmt 0
 480 00bc 97070000 		lla	a5,__app_stack_top_h4-64
 480      93870700 
 405:../src/platform/mpfs_hal/startup_gcc/system_startup.c ****         u54_4();
 481              		.loc 1 405 9
 482              	 #APP
 483              	# 405 "../src/platform/mpfs_hal/startup_gcc/system_startup.c" 1
 484              		add sp, x0, a5
 485              	# 0 "" 2
 486              	 #NO_APP
 487 00c8 3EE4     		sd	a5,8(sp)
 406:../src/platform/mpfs_hal/startup_gcc/system_startup.c ****         break;
 488              		.loc 1 406 9 is_stmt 1
 489 00ca 97000000 		call	u54_4
 489      E7800000 
 490              	.LVL36:
 407:../src/platform/mpfs_hal/startup_gcc/system_startup.c **** 
 491              		.loc 1 407 9
 492 00d2 95B7     		j	.L19
 493              	.LVL37:
 494              	.L28:
 495              		.cfi_def_cfa_offset 0
 496              		.cfi_restore 1
 497              	.LBB13:
 419:../src/platform/mpfs_hal/startup_gcc/system_startup.c ****     }
 498              		.loc 1 419 26 is_stmt 0
 499 00d4 17070000 		lla	a4,.LANCHOR1
 499      13070700 
 500              	.L29:
 501              	.LBE13:
 415:../src/platform/mpfs_hal/startup_gcc/system_startup.c ****     {
 502              		.loc 1 415 5 is_stmt 1
 503              	.LBB14:
 417:../src/platform/mpfs_hal/startup_gcc/system_startup.c ****        /* Added some code as debugger hangs if in loop doing nothing */
 504              		.loc 1 417 8
 419:../src/platform/mpfs_hal/startup_gcc/system_startup.c ****     }
 505              		.loc 1 419 8
 419:../src/platform/mpfs_hal/startup_gcc/system_startup.c ****     }
 506              		.loc 1 419 26 is_stmt 0
 507 00dc 1C63     		ld	a5,0(a4)
 508 00de 8507     		addi	a5,a5,1
 419:../src/platform/mpfs_hal/startup_gcc/system_startup.c ****     }
 509              		.loc 1 419 16
 510 00e0 97060000 		sd	a5,.LANCHOR1,a3
 510      23B0F600 
 511 00e8 D5BF     		j	.L29
 512              	.LBE14:
 513              		.cfi_endproc
 514              	.LFE21:
 516              		.section	.text.main_first_hart,"ax",@progbits
 517              		.align	1
 518              		.weak	main_first_hart
 520              	main_first_hart:
 521              	.LFB20:
  52:../src/platform/mpfs_hal/startup_gcc/system_startup.c ****     uint64_t hartid = read_csr(mhartid);
 522              		.loc 1 52 1 is_stmt 1
 523              		.cfi_startproc
 524              	.LVL38:
  53:../src/platform/mpfs_hal/startup_gcc/system_startup.c **** 
 525              		.loc 1 53 5
 526              	.LBB33:
  53:../src/platform/mpfs_hal/startup_gcc/system_startup.c **** 
 527              		.loc 1 53 23
  53:../src/platform/mpfs_hal/startup_gcc/system_startup.c **** 
 528              		.loc 1 53 23
 529              	.LBE33:
  52:../src/platform/mpfs_hal/startup_gcc/system_startup.c ****     uint64_t hartid = read_csr(mhartid);
 530              		.loc 1 52 1 is_stmt 0
 531 0000 0111     		addi	sp,sp,-32
 532              		.cfi_def_cfa_offset 32
 533 0002 06EC     		sd	ra,24(sp)
 534              		.cfi_offset 1, -8
 535              	.LBB34:
  53:../src/platform/mpfs_hal/startup_gcc/system_startup.c **** 
 536              		.loc 1 53 23
 537              	 #APP
 538              	# 53 "../src/platform/mpfs_hal/startup_gcc/system_startup.c" 1
 539              		csrr a5, mhartid
 540              	# 0 "" 2
 541              	.LVL39:
  53:../src/platform/mpfs_hal/startup_gcc/system_startup.c **** 
 542              		.loc 1 53 23 is_stmt 1
 543              	 #NO_APP
 544              	.LBE34:
  55:../src/platform/mpfs_hal/startup_gcc/system_startup.c ****     {
 545              		.loc 1 55 5
 546              	.LBB35:
  57:../src/platform/mpfs_hal/startup_gcc/system_startup.c ****         ptrdiff_t stack_top;
 547              		.loc 1 57 9
  58:../src/platform/mpfs_hal/startup_gcc/system_startup.c **** 
 548              		.loc 1 58 9
  69:../src/platform/mpfs_hal/startup_gcc/system_startup.c **** #endif  /* MPFS_HAL_HW_CONFIG */
 549              		.loc 1 69 9
 550 0008 97000000 		call	config_l2_cache
 550      E7800000 
 551              	.LVL40:
  72:../src/platform/mpfs_hal/startup_gcc/system_startup.c **** #ifndef MPFS_HAL_HW_CONFIG
 552              		.loc 1 72 9
 553 0010 97000000 		call	init_memory
 553      E7800000 
 554              	.LVL41:
  77:../src/platform/mpfs_hal/startup_gcc/system_startup.c ****         (void)init_bus_error_unit();
 555              		.loc 1 77 9
 556 0018 97000000 		call	load_virtual_rom
 556      E7800000 
 557              	.LVL42:
  78:../src/platform/mpfs_hal/startup_gcc/system_startup.c ****         (void)init_mem_protection_unit();
 558              		.loc 1 78 9
  78:../src/platform/mpfs_hal/startup_gcc/system_startup.c ****         (void)init_mem_protection_unit();
 559              		.loc 1 78 15 is_stmt 0
 560 0020 97000000 		call	init_bus_error_unit
 560      E7800000 
 561              	.LVL43:
  79:../src/platform/mpfs_hal/startup_gcc/system_startup.c ****         (void)init_pmp((uint8_t)MPFS_HAL_FIRST_HART);
 562              		.loc 1 79 9 is_stmt 1
  79:../src/platform/mpfs_hal/startup_gcc/system_startup.c ****         (void)init_pmp((uint8_t)MPFS_HAL_FIRST_HART);
 563              		.loc 1 79 15 is_stmt 0
 564 0028 97000000 		call	init_mem_protection_unit
 564      E7800000 
 565              	.LVL44:
  80:../src/platform/mpfs_hal/startup_gcc/system_startup.c ****         (void)mss_set_apb_bus_cr((uint32_t)LIBERO_SETTING_APBBUS_CR);
 566              		.loc 1 80 9 is_stmt 1
  80:../src/platform/mpfs_hal/startup_gcc/system_startup.c ****         (void)mss_set_apb_bus_cr((uint32_t)LIBERO_SETTING_APBBUS_CR);
 567              		.loc 1 80 15 is_stmt 0
 568 0030 0145     		li	a0,0
 569 0032 97000000 		call	init_pmp
 569      E7800000 
 570              	.LVL45:
  81:../src/platform/mpfs_hal/startup_gcc/system_startup.c ****         (void)mss_set_gpio_interrupt_fab_cr((uint32_t)LIBERO_SETTING_GPIO_INTERRUPT_FAB_CR);
 571              		.loc 1 81 9 is_stmt 1
 572 003a 0145     		li	a0,0
 573 003c 97000000 		call	mss_set_apb_bus_cr
 573      E7800000 
 574              	.LVL46:
  82:../src/platform/mpfs_hal/startup_gcc/system_startup.c **** #endif  /* MPFS_HAL_HW_CONFIG */
 575              		.loc 1 82 9
 576 0044 0145     		li	a0,0
 577 0046 97000000 		call	mss_set_gpio_interrupt_fab_cr
 577      E7800000 
 578              	.LVL47:
  92:../src/platform/mpfs_hal/startup_gcc/system_startup.c ****         (void)mss_nwc_init_ddr();
 579              		.loc 1 92 9
  92:../src/platform/mpfs_hal/startup_gcc/system_startup.c ****         (void)mss_nwc_init_ddr();
 580              		.loc 1 92 15 is_stmt 0
 581 004e 97000000 		call	mss_nwc_init
 581      E7800000 
 582              	.LVL48:
  93:../src/platform/mpfs_hal/startup_gcc/system_startup.c **** 
 583              		.loc 1 93 9 is_stmt 1
  93:../src/platform/mpfs_hal/startup_gcc/system_startup.c **** 
 584              		.loc 1 93 15 is_stmt 0
 585 0056 97000000 		call	mss_nwc_init_ddr
 585      E7800000 
 586              	.LVL49:
  96:../src/platform/mpfs_hal/startup_gcc/system_startup.c ****         /*
 587              		.loc 1 96 9 is_stmt 1
 588              	.LBB36:
 589              	.LBB37:
 590              		.file 2 "/home/vinay/Desktop/softconsole_watershed/Water-shed/src/platform/mpfs_hal/common/mss_pli
   1:/home/vinay/Desktop/softconsole_watershed/Water-shed/src/platform/mpfs_hal/common/mss_plic.h **** /*******************************************************************************
   2:/home/vinay/Desktop/softconsole_watershed/Water-shed/src/platform/mpfs_hal/common/mss_plic.h ****  * Copyright 2019-2022 Microchip FPGA Embedded Systems Solutions.
   3:/home/vinay/Desktop/softconsole_watershed/Water-shed/src/platform/mpfs_hal/common/mss_plic.h ****  *
   4:/home/vinay/Desktop/softconsole_watershed/Water-shed/src/platform/mpfs_hal/common/mss_plic.h ****  * SPDX-License-Identifier: MIT
   5:/home/vinay/Desktop/softconsole_watershed/Water-shed/src/platform/mpfs_hal/common/mss_plic.h ****  *
   6:/home/vinay/Desktop/softconsole_watershed/Water-shed/src/platform/mpfs_hal/common/mss_plic.h ****  * MPFS HAL Embedded Software
   7:/home/vinay/Desktop/softconsole_watershed/Water-shed/src/platform/mpfs_hal/common/mss_plic.h ****  *
   8:/home/vinay/Desktop/softconsole_watershed/Water-shed/src/platform/mpfs_hal/common/mss_plic.h ****  */
   9:/home/vinay/Desktop/softconsole_watershed/Water-shed/src/platform/mpfs_hal/common/mss_plic.h **** 
  10:/home/vinay/Desktop/softconsole_watershed/Water-shed/src/platform/mpfs_hal/common/mss_plic.h **** /*******************************************************************************
  11:/home/vinay/Desktop/softconsole_watershed/Water-shed/src/platform/mpfs_hal/common/mss_plic.h ****  *
  12:/home/vinay/Desktop/softconsole_watershed/Water-shed/src/platform/mpfs_hal/common/mss_plic.h ****  * @file mss_plic.h
  13:/home/vinay/Desktop/softconsole_watershed/Water-shed/src/platform/mpfs_hal/common/mss_plic.h ****  * @author Microchip-FPGA Embedded Systems Solutions
  14:/home/vinay/Desktop/softconsole_watershed/Water-shed/src/platform/mpfs_hal/common/mss_plic.h ****  * @brief PolarFire SoC MSS PLIC and PRCI access data structures and functions.
  15:/home/vinay/Desktop/softconsole_watershed/Water-shed/src/platform/mpfs_hal/common/mss_plic.h ****  *
  16:/home/vinay/Desktop/softconsole_watershed/Water-shed/src/platform/mpfs_hal/common/mss_plic.h ****  * Definitions and functions associated with PLIC interrupts.
  17:/home/vinay/Desktop/softconsole_watershed/Water-shed/src/platform/mpfs_hal/common/mss_plic.h ****  *
  18:/home/vinay/Desktop/softconsole_watershed/Water-shed/src/platform/mpfs_hal/common/mss_plic.h ****  */
  19:/home/vinay/Desktop/softconsole_watershed/Water-shed/src/platform/mpfs_hal/common/mss_plic.h **** #ifndef MSS_PLIC_H
  20:/home/vinay/Desktop/softconsole_watershed/Water-shed/src/platform/mpfs_hal/common/mss_plic.h **** #define MSS_PLIC_H
  21:/home/vinay/Desktop/softconsole_watershed/Water-shed/src/platform/mpfs_hal/common/mss_plic.h **** 
  22:/home/vinay/Desktop/softconsole_watershed/Water-shed/src/platform/mpfs_hal/common/mss_plic.h **** #include <stdint.h>
  23:/home/vinay/Desktop/softconsole_watershed/Water-shed/src/platform/mpfs_hal/common/mss_plic.h **** #ifndef CONFIG_OPENSBI
  24:/home/vinay/Desktop/softconsole_watershed/Water-shed/src/platform/mpfs_hal/common/mss_plic.h **** #include "encoding.h"
  25:/home/vinay/Desktop/softconsole_watershed/Water-shed/src/platform/mpfs_hal/common/mss_plic.h **** #endif
  26:/home/vinay/Desktop/softconsole_watershed/Water-shed/src/platform/mpfs_hal/common/mss_plic.h **** 
  27:/home/vinay/Desktop/softconsole_watershed/Water-shed/src/platform/mpfs_hal/common/mss_plic.h **** #include "mss_legacy_defines.h"
  28:/home/vinay/Desktop/softconsole_watershed/Water-shed/src/platform/mpfs_hal/common/mss_plic.h **** #include "mss_assert.h"
  29:/home/vinay/Desktop/softconsole_watershed/Water-shed/src/platform/mpfs_hal/common/mss_plic.h **** 
  30:/home/vinay/Desktop/softconsole_watershed/Water-shed/src/platform/mpfs_hal/common/mss_plic.h **** #ifdef __cplusplus
  31:/home/vinay/Desktop/softconsole_watershed/Water-shed/src/platform/mpfs_hal/common/mss_plic.h **** extern "C" {
  32:/home/vinay/Desktop/softconsole_watershed/Water-shed/src/platform/mpfs_hal/common/mss_plic.h **** #endif
  33:/home/vinay/Desktop/softconsole_watershed/Water-shed/src/platform/mpfs_hal/common/mss_plic.h **** 
  34:/home/vinay/Desktop/softconsole_watershed/Water-shed/src/platform/mpfs_hal/common/mss_plic.h **** /*
  35:/home/vinay/Desktop/softconsole_watershed/Water-shed/src/platform/mpfs_hal/common/mss_plic.h ****  *Return value from External IRQ handler. This will be used to disable the
  36:/home/vinay/Desktop/softconsole_watershed/Water-shed/src/platform/mpfs_hal/common/mss_plic.h ****  *Return External interrupt.
  37:/home/vinay/Desktop/softconsole_watershed/Water-shed/src/platform/mpfs_hal/common/mss_plic.h ****  */
  38:/home/vinay/Desktop/softconsole_watershed/Water-shed/src/platform/mpfs_hal/common/mss_plic.h **** #define EXT_IRQ_KEEP_ENABLED                                0U
  39:/home/vinay/Desktop/softconsole_watershed/Water-shed/src/platform/mpfs_hal/common/mss_plic.h **** #define EXT_IRQ_DISABLE                                     1U
  40:/home/vinay/Desktop/softconsole_watershed/Water-shed/src/platform/mpfs_hal/common/mss_plic.h **** 
  41:/home/vinay/Desktop/softconsole_watershed/Water-shed/src/platform/mpfs_hal/common/mss_plic.h **** /*------------------------------------------------------------------------------
  42:/home/vinay/Desktop/softconsole_watershed/Water-shed/src/platform/mpfs_hal/common/mss_plic.h ****  *
  43:/home/vinay/Desktop/softconsole_watershed/Water-shed/src/platform/mpfs_hal/common/mss_plic.h ****  */
  44:/home/vinay/Desktop/softconsole_watershed/Water-shed/src/platform/mpfs_hal/common/mss_plic.h **** uint8_t  PLIC_Invalid_IRQHandler(void);
  45:/home/vinay/Desktop/softconsole_watershed/Water-shed/src/platform/mpfs_hal/common/mss_plic.h **** uint8_t  PLIC_l2_metadata_corr_IRQHandler(void);
  46:/home/vinay/Desktop/softconsole_watershed/Water-shed/src/platform/mpfs_hal/common/mss_plic.h **** uint8_t  PLIC_l2_metadata_uncorr_IRQHandler(void);
  47:/home/vinay/Desktop/softconsole_watershed/Water-shed/src/platform/mpfs_hal/common/mss_plic.h **** uint8_t  PLIC_l2_data_corr_IRQHandler(void);
  48:/home/vinay/Desktop/softconsole_watershed/Water-shed/src/platform/mpfs_hal/common/mss_plic.h **** uint8_t  PLIC_l2_data_uncorr_IRQHandler(void);
  49:/home/vinay/Desktop/softconsole_watershed/Water-shed/src/platform/mpfs_hal/common/mss_plic.h **** uint8_t  PLIC_dma_ch0_DONE_IRQHandler(void);
  50:/home/vinay/Desktop/softconsole_watershed/Water-shed/src/platform/mpfs_hal/common/mss_plic.h **** uint8_t  PLIC_dma_ch0_ERR_IRQHandler(void);
  51:/home/vinay/Desktop/softconsole_watershed/Water-shed/src/platform/mpfs_hal/common/mss_plic.h **** uint8_t  PLIC_dma_ch1_DONE_IRQHandler(void);
  52:/home/vinay/Desktop/softconsole_watershed/Water-shed/src/platform/mpfs_hal/common/mss_plic.h **** uint8_t  PLIC_dma_ch1_ERR_IRQHandler(void);
  53:/home/vinay/Desktop/softconsole_watershed/Water-shed/src/platform/mpfs_hal/common/mss_plic.h **** uint8_t  PLIC_dma_ch2_DONE_IRQHandler(void);
  54:/home/vinay/Desktop/softconsole_watershed/Water-shed/src/platform/mpfs_hal/common/mss_plic.h **** uint8_t  PLIC_dma_ch2_ERR_IRQHandler(void);
  55:/home/vinay/Desktop/softconsole_watershed/Water-shed/src/platform/mpfs_hal/common/mss_plic.h **** uint8_t  PLIC_dma_ch3_DONE_IRQHandler(void);
  56:/home/vinay/Desktop/softconsole_watershed/Water-shed/src/platform/mpfs_hal/common/mss_plic.h **** uint8_t  PLIC_dma_ch3_ERR_IRQHandler(void);
  57:/home/vinay/Desktop/softconsole_watershed/Water-shed/src/platform/mpfs_hal/common/mss_plic.h **** uint8_t  PLIC_gpio0_bit0_or_gpio2_bit13_IRQHandler(void);
  58:/home/vinay/Desktop/softconsole_watershed/Water-shed/src/platform/mpfs_hal/common/mss_plic.h **** uint8_t  PLIC_gpio0_bit1_or_gpio2_bit13_IRQHandler(void);
  59:/home/vinay/Desktop/softconsole_watershed/Water-shed/src/platform/mpfs_hal/common/mss_plic.h **** uint8_t  PLIC_gpio0_bit2_or_gpio2_bit13_IRQHandler(void);
  60:/home/vinay/Desktop/softconsole_watershed/Water-shed/src/platform/mpfs_hal/common/mss_plic.h **** uint8_t  PLIC_gpio0_bit3_or_gpio2_bit13_IRQHandler(void);
  61:/home/vinay/Desktop/softconsole_watershed/Water-shed/src/platform/mpfs_hal/common/mss_plic.h **** uint8_t  PLIC_gpio0_bit4_or_gpio2_bit13_IRQHandler(void);
  62:/home/vinay/Desktop/softconsole_watershed/Water-shed/src/platform/mpfs_hal/common/mss_plic.h **** uint8_t  PLIC_gpio0_bit5_or_gpio2_bit13_IRQHandler(void);
  63:/home/vinay/Desktop/softconsole_watershed/Water-shed/src/platform/mpfs_hal/common/mss_plic.h **** uint8_t  PLIC_gpio0_bit6_or_gpio2_bit13_IRQHandler(void);
  64:/home/vinay/Desktop/softconsole_watershed/Water-shed/src/platform/mpfs_hal/common/mss_plic.h **** uint8_t  PLIC_gpio0_bit7_or_gpio2_bit13_IRQHandler(void);
  65:/home/vinay/Desktop/softconsole_watershed/Water-shed/src/platform/mpfs_hal/common/mss_plic.h **** uint8_t  PLIC_gpio0_bit8_or_gpio2_bit13_IRQHandler(void);
  66:/home/vinay/Desktop/softconsole_watershed/Water-shed/src/platform/mpfs_hal/common/mss_plic.h **** uint8_t  PLIC_gpio0_bit9_or_gpio2_bit13_IRQHandler(void);
  67:/home/vinay/Desktop/softconsole_watershed/Water-shed/src/platform/mpfs_hal/common/mss_plic.h **** uint8_t  PLIC_gpio0_bit10_or_gpio2_bit13_IRQHandler(void);
  68:/home/vinay/Desktop/softconsole_watershed/Water-shed/src/platform/mpfs_hal/common/mss_plic.h **** uint8_t  PLIC_gpio0_bit11_or_gpio2_bit13_IRQHandler(void);
  69:/home/vinay/Desktop/softconsole_watershed/Water-shed/src/platform/mpfs_hal/common/mss_plic.h **** uint8_t  PLIC_gpio0_bit12_or_gpio2_bit13_IRQHandler(void);
  70:/home/vinay/Desktop/softconsole_watershed/Water-shed/src/platform/mpfs_hal/common/mss_plic.h **** 
  71:/home/vinay/Desktop/softconsole_watershed/Water-shed/src/platform/mpfs_hal/common/mss_plic.h **** uint8_t  PLIC_gpio0_bit13_or_gpio2_bit13_IRQHandler(void);
  72:/home/vinay/Desktop/softconsole_watershed/Water-shed/src/platform/mpfs_hal/common/mss_plic.h **** uint8_t  PLIC_gpio1_bit0_or_gpio2_bit14_IRQHandler(void);
  73:/home/vinay/Desktop/softconsole_watershed/Water-shed/src/platform/mpfs_hal/common/mss_plic.h **** uint8_t  PLIC_gpio1_bit1_or_gpio2_bit15_IRQHandler(void);
  74:/home/vinay/Desktop/softconsole_watershed/Water-shed/src/platform/mpfs_hal/common/mss_plic.h **** uint8_t  PLIC_gpio1_bit2_or_gpio2_bit16_IRQHandler(void);
  75:/home/vinay/Desktop/softconsole_watershed/Water-shed/src/platform/mpfs_hal/common/mss_plic.h **** uint8_t  PLIC_gpio1_bit3_or_gpio2_bit17_IRQHandler(void);
  76:/home/vinay/Desktop/softconsole_watershed/Water-shed/src/platform/mpfs_hal/common/mss_plic.h **** uint8_t  PLIC_gpio1_bit4_or_gpio2_bit18_IRQHandler(void);
  77:/home/vinay/Desktop/softconsole_watershed/Water-shed/src/platform/mpfs_hal/common/mss_plic.h **** uint8_t  PLIC_gpio1_bit5_or_gpio2_bit19_IRQHandler(void);
  78:/home/vinay/Desktop/softconsole_watershed/Water-shed/src/platform/mpfs_hal/common/mss_plic.h **** uint8_t  PLIC_gpio1_bit6_or_gpio2_bit20_IRQHandler(void);
  79:/home/vinay/Desktop/softconsole_watershed/Water-shed/src/platform/mpfs_hal/common/mss_plic.h **** uint8_t  PLIC_gpio1_bit7_or_gpio2_bit21_IRQHandler(void);
  80:/home/vinay/Desktop/softconsole_watershed/Water-shed/src/platform/mpfs_hal/common/mss_plic.h **** uint8_t  PLIC_gpio1_bit8_or_gpio2_bit22_IRQHandler(void);
  81:/home/vinay/Desktop/softconsole_watershed/Water-shed/src/platform/mpfs_hal/common/mss_plic.h **** uint8_t  PLIC_gpio1_bit9_or_gpio2_bit23_IRQHandler(void);
  82:/home/vinay/Desktop/softconsole_watershed/Water-shed/src/platform/mpfs_hal/common/mss_plic.h **** uint8_t  PLIC_gpio1_bit10_or_gpio2_bit24_IRQHandler(void);
  83:/home/vinay/Desktop/softconsole_watershed/Water-shed/src/platform/mpfs_hal/common/mss_plic.h **** uint8_t  PLIC_gpio1_bit11_or_gpio2_bit25_IRQHandler(void);
  84:/home/vinay/Desktop/softconsole_watershed/Water-shed/src/platform/mpfs_hal/common/mss_plic.h **** uint8_t  PLIC_gpio1_bit12_or_gpio2_bit26_IRQHandler(void);
  85:/home/vinay/Desktop/softconsole_watershed/Water-shed/src/platform/mpfs_hal/common/mss_plic.h **** uint8_t  PLIC_gpio1_bit13_or_gpio2_bit27_IRQHandler(void);
  86:/home/vinay/Desktop/softconsole_watershed/Water-shed/src/platform/mpfs_hal/common/mss_plic.h **** 
  87:/home/vinay/Desktop/softconsole_watershed/Water-shed/src/platform/mpfs_hal/common/mss_plic.h **** uint8_t  PLIC_gpio1_bit14_or_gpio2_bit28_IRQHandler(void);
  88:/home/vinay/Desktop/softconsole_watershed/Water-shed/src/platform/mpfs_hal/common/mss_plic.h **** uint8_t  PLIC_gpio1_bit15_or_gpio2_bit29_IRQHandler(void);
  89:/home/vinay/Desktop/softconsole_watershed/Water-shed/src/platform/mpfs_hal/common/mss_plic.h **** uint8_t  PLIC_gpio1_bit16_or_gpio2_bit30_IRQHandler(void);
  90:/home/vinay/Desktop/softconsole_watershed/Water-shed/src/platform/mpfs_hal/common/mss_plic.h **** uint8_t  PLIC_gpio1_bit17_or_gpio2_bit31_IRQHandler(void);
  91:/home/vinay/Desktop/softconsole_watershed/Water-shed/src/platform/mpfs_hal/common/mss_plic.h **** 
  92:/home/vinay/Desktop/softconsole_watershed/Water-shed/src/platform/mpfs_hal/common/mss_plic.h **** uint8_t  PLIC_gpio1_bit18_IRQHandler(void);
  93:/home/vinay/Desktop/softconsole_watershed/Water-shed/src/platform/mpfs_hal/common/mss_plic.h **** uint8_t  PLIC_gpio1_bit19_IRQHandler(void);
  94:/home/vinay/Desktop/softconsole_watershed/Water-shed/src/platform/mpfs_hal/common/mss_plic.h **** uint8_t  PLIC_gpio1_bit20_IRQHandler(void);
  95:/home/vinay/Desktop/softconsole_watershed/Water-shed/src/platform/mpfs_hal/common/mss_plic.h **** uint8_t  PLIC_gpio1_bit21_IRQHandler(void);
  96:/home/vinay/Desktop/softconsole_watershed/Water-shed/src/platform/mpfs_hal/common/mss_plic.h **** uint8_t  PLIC_gpio1_bit22_IRQHandler(void);
  97:/home/vinay/Desktop/softconsole_watershed/Water-shed/src/platform/mpfs_hal/common/mss_plic.h **** uint8_t  PLIC_gpio1_bit23_IRQHandler(void);
  98:/home/vinay/Desktop/softconsole_watershed/Water-shed/src/platform/mpfs_hal/common/mss_plic.h **** 
  99:/home/vinay/Desktop/softconsole_watershed/Water-shed/src/platform/mpfs_hal/common/mss_plic.h **** uint8_t  PLIC_gpio0_non_direct_IRQHandler(void);
 100:/home/vinay/Desktop/softconsole_watershed/Water-shed/src/platform/mpfs_hal/common/mss_plic.h **** uint8_t  PLIC_gpio1_non_direct_IRQHandler(void);
 101:/home/vinay/Desktop/softconsole_watershed/Water-shed/src/platform/mpfs_hal/common/mss_plic.h **** uint8_t  PLIC_gpio2_non_direct_IRQHandler(void);
 102:/home/vinay/Desktop/softconsole_watershed/Water-shed/src/platform/mpfs_hal/common/mss_plic.h **** 
 103:/home/vinay/Desktop/softconsole_watershed/Water-shed/src/platform/mpfs_hal/common/mss_plic.h **** uint8_t  PLIC_spi0_IRQHandler(void);
 104:/home/vinay/Desktop/softconsole_watershed/Water-shed/src/platform/mpfs_hal/common/mss_plic.h **** uint8_t  PLIC_spi1_IRQHandler(void);
 105:/home/vinay/Desktop/softconsole_watershed/Water-shed/src/platform/mpfs_hal/common/mss_plic.h **** uint8_t  PLIC_external_can0_IRQHandler(void);
 106:/home/vinay/Desktop/softconsole_watershed/Water-shed/src/platform/mpfs_hal/common/mss_plic.h **** uint8_t  PLIC_can1_IRQHandler(void);
 107:/home/vinay/Desktop/softconsole_watershed/Water-shed/src/platform/mpfs_hal/common/mss_plic.h **** uint8_t  PLIC_External_i2c0_main_IRQHandler(void);
 108:/home/vinay/Desktop/softconsole_watershed/Water-shed/src/platform/mpfs_hal/common/mss_plic.h **** uint8_t  PLIC_External_i2c0_alert_IRQHandler(void);
 109:/home/vinay/Desktop/softconsole_watershed/Water-shed/src/platform/mpfs_hal/common/mss_plic.h **** uint8_t  PLIC_i2c0_sus_IRQHandler(void);
 110:/home/vinay/Desktop/softconsole_watershed/Water-shed/src/platform/mpfs_hal/common/mss_plic.h **** uint8_t  PLIC_i2c1_main_IRQHandler(void);
 111:/home/vinay/Desktop/softconsole_watershed/Water-shed/src/platform/mpfs_hal/common/mss_plic.h **** uint8_t  PLIC_i2c1_alert_IRQHandler(void);
 112:/home/vinay/Desktop/softconsole_watershed/Water-shed/src/platform/mpfs_hal/common/mss_plic.h **** uint8_t  PLIC_i2c1_sus_IRQHandler(void);
 113:/home/vinay/Desktop/softconsole_watershed/Water-shed/src/platform/mpfs_hal/common/mss_plic.h **** uint8_t  PLIC_mac0_int_IRQHandler(void);
 114:/home/vinay/Desktop/softconsole_watershed/Water-shed/src/platform/mpfs_hal/common/mss_plic.h **** uint8_t  PLIC_mac0_queue1_IRQHandler(void);
 115:/home/vinay/Desktop/softconsole_watershed/Water-shed/src/platform/mpfs_hal/common/mss_plic.h **** uint8_t  PLIC_mac0_queue2_IRQHandler(void);
 116:/home/vinay/Desktop/softconsole_watershed/Water-shed/src/platform/mpfs_hal/common/mss_plic.h **** uint8_t  PLIC_mac0_queue3_IRQHandler(void);
 117:/home/vinay/Desktop/softconsole_watershed/Water-shed/src/platform/mpfs_hal/common/mss_plic.h **** uint8_t  PLIC_mac0_emac_IRQHandler(void);
 118:/home/vinay/Desktop/softconsole_watershed/Water-shed/src/platform/mpfs_hal/common/mss_plic.h **** uint8_t  PLIC_mac0_mmsl_IRQHandler(void);
 119:/home/vinay/Desktop/softconsole_watershed/Water-shed/src/platform/mpfs_hal/common/mss_plic.h **** uint8_t  PLIC_mac1_int_IRQHandler(void);
 120:/home/vinay/Desktop/softconsole_watershed/Water-shed/src/platform/mpfs_hal/common/mss_plic.h **** uint8_t  PLIC_mac1_queue1_IRQHandler(void);
 121:/home/vinay/Desktop/softconsole_watershed/Water-shed/src/platform/mpfs_hal/common/mss_plic.h **** uint8_t  PLIC_mac1_queue2_IRQHandler(void);
 122:/home/vinay/Desktop/softconsole_watershed/Water-shed/src/platform/mpfs_hal/common/mss_plic.h **** uint8_t  PLIC_mac1_queue3_IRQHandler(void);
 123:/home/vinay/Desktop/softconsole_watershed/Water-shed/src/platform/mpfs_hal/common/mss_plic.h **** uint8_t  PLIC_mac1_emac_IRQHandler(void);
 124:/home/vinay/Desktop/softconsole_watershed/Water-shed/src/platform/mpfs_hal/common/mss_plic.h **** uint8_t  PLIC_mac1_mmsl_IRQHandler(void);
 125:/home/vinay/Desktop/softconsole_watershed/Water-shed/src/platform/mpfs_hal/common/mss_plic.h **** uint8_t  PLIC_ddrc_train_IRQHandler(void);
 126:/home/vinay/Desktop/softconsole_watershed/Water-shed/src/platform/mpfs_hal/common/mss_plic.h **** uint8_t  PLIC_scb_interrupt_IRQHandler(void);
 127:/home/vinay/Desktop/softconsole_watershed/Water-shed/src/platform/mpfs_hal/common/mss_plic.h **** uint8_t  PLIC_ecc_error_IRQHandler(void);
 128:/home/vinay/Desktop/softconsole_watershed/Water-shed/src/platform/mpfs_hal/common/mss_plic.h **** uint8_t  PLIC_ecc_correct_IRQHandler(void);
 129:/home/vinay/Desktop/softconsole_watershed/Water-shed/src/platform/mpfs_hal/common/mss_plic.h **** uint8_t  PLIC_rtc_wakeup_IRQHandler(void);
 130:/home/vinay/Desktop/softconsole_watershed/Water-shed/src/platform/mpfs_hal/common/mss_plic.h **** uint8_t  PLIC_rtc_match_IRQHandler(void);
 131:/home/vinay/Desktop/softconsole_watershed/Water-shed/src/platform/mpfs_hal/common/mss_plic.h **** uint8_t  PLIC_timer1_IRQHandler(void);
 132:/home/vinay/Desktop/softconsole_watershed/Water-shed/src/platform/mpfs_hal/common/mss_plic.h **** uint8_t  PLIC_timer2_IRQHandler(void);
 133:/home/vinay/Desktop/softconsole_watershed/Water-shed/src/platform/mpfs_hal/common/mss_plic.h **** uint8_t  PLIC_envm_IRQHandler(void);
 134:/home/vinay/Desktop/softconsole_watershed/Water-shed/src/platform/mpfs_hal/common/mss_plic.h **** uint8_t  PLIC_qspi_IRQHandler(void);
 135:/home/vinay/Desktop/softconsole_watershed/Water-shed/src/platform/mpfs_hal/common/mss_plic.h **** uint8_t  PLIC_usb_dma_IRQHandler(void);
 136:/home/vinay/Desktop/softconsole_watershed/Water-shed/src/platform/mpfs_hal/common/mss_plic.h **** uint8_t  PLIC_usb_mc_IRQHandler(void);
 137:/home/vinay/Desktop/softconsole_watershed/Water-shed/src/platform/mpfs_hal/common/mss_plic.h **** uint8_t  PLIC_mmc_main_IRQHandler(void);
 138:/home/vinay/Desktop/softconsole_watershed/Water-shed/src/platform/mpfs_hal/common/mss_plic.h **** uint8_t  PLIC_mmc_wakeup_IRQHandler(void);
 139:/home/vinay/Desktop/softconsole_watershed/Water-shed/src/platform/mpfs_hal/common/mss_plic.h **** uint8_t  PLIC_mmuart0_IRQHandler(void);
 140:/home/vinay/Desktop/softconsole_watershed/Water-shed/src/platform/mpfs_hal/common/mss_plic.h **** uint8_t  PLIC_mmuart1_IRQHandler(void);
 141:/home/vinay/Desktop/softconsole_watershed/Water-shed/src/platform/mpfs_hal/common/mss_plic.h **** uint8_t  PLIC_mmuart2_IRQHandler(void);
 142:/home/vinay/Desktop/softconsole_watershed/Water-shed/src/platform/mpfs_hal/common/mss_plic.h **** uint8_t  PLIC_mmuart3_IRQHandler(void);
 143:/home/vinay/Desktop/softconsole_watershed/Water-shed/src/platform/mpfs_hal/common/mss_plic.h **** uint8_t  PLIC_mmuart4_IRQHandler(void);
 144:/home/vinay/Desktop/softconsole_watershed/Water-shed/src/platform/mpfs_hal/common/mss_plic.h **** uint8_t  PLIC_devrst_IRQHandler(void);
 145:/home/vinay/Desktop/softconsole_watershed/Water-shed/src/platform/mpfs_hal/common/mss_plic.h **** uint8_t  PLIC_g5c_message_IRQHandler(void);
 146:/home/vinay/Desktop/softconsole_watershed/Water-shed/src/platform/mpfs_hal/common/mss_plic.h **** uint8_t  PLIC_usoc_vc_interrupt_IRQHandler(void);
 147:/home/vinay/Desktop/softconsole_watershed/Water-shed/src/platform/mpfs_hal/common/mss_plic.h **** uint8_t  PLIC_usoc_smb_interrupt_IRQHandler(void);
 148:/home/vinay/Desktop/softconsole_watershed/Water-shed/src/platform/mpfs_hal/common/mss_plic.h **** uint8_t  PLIC_E51_Maintence_IRQHandler(void);
 149:/home/vinay/Desktop/softconsole_watershed/Water-shed/src/platform/mpfs_hal/common/mss_plic.h **** 
 150:/home/vinay/Desktop/softconsole_watershed/Water-shed/src/platform/mpfs_hal/common/mss_plic.h **** uint8_t  PLIC_wdog0_mvrp_IRQHandler(void);
 151:/home/vinay/Desktop/softconsole_watershed/Water-shed/src/platform/mpfs_hal/common/mss_plic.h **** uint8_t  PLIC_wdog1_mvrp_IRQHandler(void);
 152:/home/vinay/Desktop/softconsole_watershed/Water-shed/src/platform/mpfs_hal/common/mss_plic.h **** uint8_t  PLIC_wdog2_mvrp_IRQHandler(void);
 153:/home/vinay/Desktop/softconsole_watershed/Water-shed/src/platform/mpfs_hal/common/mss_plic.h **** uint8_t  PLIC_wdog3_mvrp_IRQHandler(void);
 154:/home/vinay/Desktop/softconsole_watershed/Water-shed/src/platform/mpfs_hal/common/mss_plic.h **** uint8_t  PLIC_wdog4_mvrp_IRQHandler(void);
 155:/home/vinay/Desktop/softconsole_watershed/Water-shed/src/platform/mpfs_hal/common/mss_plic.h **** uint8_t  PLIC_wdog0_tout_IRQHandler(void);
 156:/home/vinay/Desktop/softconsole_watershed/Water-shed/src/platform/mpfs_hal/common/mss_plic.h **** uint8_t  PLIC_wdog1_tout_IRQHandler(void);
 157:/home/vinay/Desktop/softconsole_watershed/Water-shed/src/platform/mpfs_hal/common/mss_plic.h **** uint8_t  PLIC_wdog2_tout_IRQHandler(void);
 158:/home/vinay/Desktop/softconsole_watershed/Water-shed/src/platform/mpfs_hal/common/mss_plic.h **** uint8_t  PLIC_wdog3_tout_IRQHandler(void);
 159:/home/vinay/Desktop/softconsole_watershed/Water-shed/src/platform/mpfs_hal/common/mss_plic.h **** uint8_t  PLIC_wdog4_tout_IRQHandler(void);
 160:/home/vinay/Desktop/softconsole_watershed/Water-shed/src/platform/mpfs_hal/common/mss_plic.h **** uint8_t  PLIC_g5c_mss_spi_IRQHandler(void);
 161:/home/vinay/Desktop/softconsole_watershed/Water-shed/src/platform/mpfs_hal/common/mss_plic.h **** uint8_t  PLIC_volt_temp_alarm_IRQHandler(void);
 162:/home/vinay/Desktop/softconsole_watershed/Water-shed/src/platform/mpfs_hal/common/mss_plic.h **** 
 163:/home/vinay/Desktop/softconsole_watershed/Water-shed/src/platform/mpfs_hal/common/mss_plic.h **** uint8_t  PLIC_athena_complete_IRQHandler(void);
 164:/home/vinay/Desktop/softconsole_watershed/Water-shed/src/platform/mpfs_hal/common/mss_plic.h **** uint8_t  PLIC_athena_alarm_IRQHandler(void);
 165:/home/vinay/Desktop/softconsole_watershed/Water-shed/src/platform/mpfs_hal/common/mss_plic.h **** uint8_t  PLIC_athena_bus_error_IRQHandler(void);
 166:/home/vinay/Desktop/softconsole_watershed/Water-shed/src/platform/mpfs_hal/common/mss_plic.h **** uint8_t  PLIC_usoc_axic_us_IRQHandler(void);
 167:/home/vinay/Desktop/softconsole_watershed/Water-shed/src/platform/mpfs_hal/common/mss_plic.h **** uint8_t  PLIC_usoc_axic_ds_IRQHandler(void);
 168:/home/vinay/Desktop/softconsole_watershed/Water-shed/src/platform/mpfs_hal/common/mss_plic.h **** 
 169:/home/vinay/Desktop/softconsole_watershed/Water-shed/src/platform/mpfs_hal/common/mss_plic.h **** uint8_t  PLIC_reserved_104_IRQHandler(void);
 170:/home/vinay/Desktop/softconsole_watershed/Water-shed/src/platform/mpfs_hal/common/mss_plic.h **** 
 171:/home/vinay/Desktop/softconsole_watershed/Water-shed/src/platform/mpfs_hal/common/mss_plic.h **** uint8_t  PLIC_f2m_0_IRQHandler(void);
 172:/home/vinay/Desktop/softconsole_watershed/Water-shed/src/platform/mpfs_hal/common/mss_plic.h **** uint8_t  PLIC_f2m_1_IRQHandler(void);
 173:/home/vinay/Desktop/softconsole_watershed/Water-shed/src/platform/mpfs_hal/common/mss_plic.h **** uint8_t  PLIC_f2m_2_IRQHandler(void);
 174:/home/vinay/Desktop/softconsole_watershed/Water-shed/src/platform/mpfs_hal/common/mss_plic.h **** uint8_t  PLIC_f2m_3_IRQHandler(void);
 175:/home/vinay/Desktop/softconsole_watershed/Water-shed/src/platform/mpfs_hal/common/mss_plic.h **** uint8_t  PLIC_f2m_4_IRQHandler(void);
 176:/home/vinay/Desktop/softconsole_watershed/Water-shed/src/platform/mpfs_hal/common/mss_plic.h **** uint8_t  PLIC_f2m_5_IRQHandler(void);
 177:/home/vinay/Desktop/softconsole_watershed/Water-shed/src/platform/mpfs_hal/common/mss_plic.h **** uint8_t  PLIC_f2m_6_IRQHandler(void);
 178:/home/vinay/Desktop/softconsole_watershed/Water-shed/src/platform/mpfs_hal/common/mss_plic.h **** uint8_t  PLIC_f2m_7_IRQHandler(void);
 179:/home/vinay/Desktop/softconsole_watershed/Water-shed/src/platform/mpfs_hal/common/mss_plic.h **** uint8_t  PLIC_f2m_8_IRQHandler(void);
 180:/home/vinay/Desktop/softconsole_watershed/Water-shed/src/platform/mpfs_hal/common/mss_plic.h **** uint8_t  PLIC_f2m_9_IRQHandler(void);
 181:/home/vinay/Desktop/softconsole_watershed/Water-shed/src/platform/mpfs_hal/common/mss_plic.h **** 
 182:/home/vinay/Desktop/softconsole_watershed/Water-shed/src/platform/mpfs_hal/common/mss_plic.h **** uint8_t  PLIC_f2m_10_IRQHandler(void);
 183:/home/vinay/Desktop/softconsole_watershed/Water-shed/src/platform/mpfs_hal/common/mss_plic.h **** uint8_t  PLIC_f2m_11_IRQHandler(void);
 184:/home/vinay/Desktop/softconsole_watershed/Water-shed/src/platform/mpfs_hal/common/mss_plic.h **** uint8_t  PLIC_f2m_12_IRQHandler(void);
 185:/home/vinay/Desktop/softconsole_watershed/Water-shed/src/platform/mpfs_hal/common/mss_plic.h **** uint8_t  PLIC_f2m_13_IRQHandler(void);
 186:/home/vinay/Desktop/softconsole_watershed/Water-shed/src/platform/mpfs_hal/common/mss_plic.h **** uint8_t  PLIC_f2m_14_IRQHandler(void);
 187:/home/vinay/Desktop/softconsole_watershed/Water-shed/src/platform/mpfs_hal/common/mss_plic.h **** uint8_t  PLIC_f2m_15_IRQHandler(void);
 188:/home/vinay/Desktop/softconsole_watershed/Water-shed/src/platform/mpfs_hal/common/mss_plic.h **** uint8_t  PLIC_f2m_16_IRQHandler(void);
 189:/home/vinay/Desktop/softconsole_watershed/Water-shed/src/platform/mpfs_hal/common/mss_plic.h **** uint8_t  PLIC_f2m_17_IRQHandler(void);
 190:/home/vinay/Desktop/softconsole_watershed/Water-shed/src/platform/mpfs_hal/common/mss_plic.h **** uint8_t  PLIC_f2m_18_IRQHandler(void);
 191:/home/vinay/Desktop/softconsole_watershed/Water-shed/src/platform/mpfs_hal/common/mss_plic.h **** uint8_t  PLIC_f2m_19_IRQHandler(void);
 192:/home/vinay/Desktop/softconsole_watershed/Water-shed/src/platform/mpfs_hal/common/mss_plic.h **** 
 193:/home/vinay/Desktop/softconsole_watershed/Water-shed/src/platform/mpfs_hal/common/mss_plic.h **** uint8_t  PLIC_f2m_20_IRQHandler(void);
 194:/home/vinay/Desktop/softconsole_watershed/Water-shed/src/platform/mpfs_hal/common/mss_plic.h **** uint8_t  PLIC_f2m_21_IRQHandler(void);
 195:/home/vinay/Desktop/softconsole_watershed/Water-shed/src/platform/mpfs_hal/common/mss_plic.h **** uint8_t  PLIC_f2m_22_IRQHandler(void);
 196:/home/vinay/Desktop/softconsole_watershed/Water-shed/src/platform/mpfs_hal/common/mss_plic.h **** uint8_t  PLIC_f2m_23_IRQHandler(void);
 197:/home/vinay/Desktop/softconsole_watershed/Water-shed/src/platform/mpfs_hal/common/mss_plic.h **** uint8_t  PLIC_f2m_24_IRQHandler(void);
 198:/home/vinay/Desktop/softconsole_watershed/Water-shed/src/platform/mpfs_hal/common/mss_plic.h **** uint8_t  PLIC_f2m_25_IRQHandler(void);
 199:/home/vinay/Desktop/softconsole_watershed/Water-shed/src/platform/mpfs_hal/common/mss_plic.h **** uint8_t  PLIC_f2m_26_IRQHandler(void);
 200:/home/vinay/Desktop/softconsole_watershed/Water-shed/src/platform/mpfs_hal/common/mss_plic.h **** uint8_t  PLIC_f2m_27_IRQHandler(void);
 201:/home/vinay/Desktop/softconsole_watershed/Water-shed/src/platform/mpfs_hal/common/mss_plic.h **** uint8_t  PLIC_f2m_28_IRQHandler(void);
 202:/home/vinay/Desktop/softconsole_watershed/Water-shed/src/platform/mpfs_hal/common/mss_plic.h **** uint8_t  PLIC_f2m_29_IRQHandler(void);
 203:/home/vinay/Desktop/softconsole_watershed/Water-shed/src/platform/mpfs_hal/common/mss_plic.h **** 
 204:/home/vinay/Desktop/softconsole_watershed/Water-shed/src/platform/mpfs_hal/common/mss_plic.h **** uint8_t  PLIC_f2m_30_IRQHandler(void);
 205:/home/vinay/Desktop/softconsole_watershed/Water-shed/src/platform/mpfs_hal/common/mss_plic.h **** uint8_t  PLIC_f2m_31_IRQHandler(void);
 206:/home/vinay/Desktop/softconsole_watershed/Water-shed/src/platform/mpfs_hal/common/mss_plic.h **** 
 207:/home/vinay/Desktop/softconsole_watershed/Water-shed/src/platform/mpfs_hal/common/mss_plic.h **** uint8_t  PLIC_f2m_32_IRQHandler(void);
 208:/home/vinay/Desktop/softconsole_watershed/Water-shed/src/platform/mpfs_hal/common/mss_plic.h **** uint8_t  PLIC_f2m_33_IRQHandler(void);
 209:/home/vinay/Desktop/softconsole_watershed/Water-shed/src/platform/mpfs_hal/common/mss_plic.h **** uint8_t  PLIC_f2m_34_IRQHandler(void);
 210:/home/vinay/Desktop/softconsole_watershed/Water-shed/src/platform/mpfs_hal/common/mss_plic.h **** uint8_t  PLIC_f2m_35_IRQHandler(void);
 211:/home/vinay/Desktop/softconsole_watershed/Water-shed/src/platform/mpfs_hal/common/mss_plic.h **** uint8_t  PLIC_f2m_36_IRQHandler(void);
 212:/home/vinay/Desktop/softconsole_watershed/Water-shed/src/platform/mpfs_hal/common/mss_plic.h **** uint8_t  PLIC_f2m_37_IRQHandler(void);
 213:/home/vinay/Desktop/softconsole_watershed/Water-shed/src/platform/mpfs_hal/common/mss_plic.h **** uint8_t  PLIC_f2m_38_IRQHandler(void);
 214:/home/vinay/Desktop/softconsole_watershed/Water-shed/src/platform/mpfs_hal/common/mss_plic.h **** uint8_t  PLIC_f2m_39_IRQHandler(void);
 215:/home/vinay/Desktop/softconsole_watershed/Water-shed/src/platform/mpfs_hal/common/mss_plic.h **** uint8_t  PLIC_f2m_40_IRQHandler(void);
 216:/home/vinay/Desktop/softconsole_watershed/Water-shed/src/platform/mpfs_hal/common/mss_plic.h **** uint8_t  PLIC_f2m_41_IRQHandler(void);
 217:/home/vinay/Desktop/softconsole_watershed/Water-shed/src/platform/mpfs_hal/common/mss_plic.h **** 
 218:/home/vinay/Desktop/softconsole_watershed/Water-shed/src/platform/mpfs_hal/common/mss_plic.h **** uint8_t PLIC_f2m_42_IRQHandler(void);
 219:/home/vinay/Desktop/softconsole_watershed/Water-shed/src/platform/mpfs_hal/common/mss_plic.h **** uint8_t PLIC_f2m_43_IRQHandler(void);
 220:/home/vinay/Desktop/softconsole_watershed/Water-shed/src/platform/mpfs_hal/common/mss_plic.h **** uint8_t PLIC_f2m_44_IRQHandler(void);
 221:/home/vinay/Desktop/softconsole_watershed/Water-shed/src/platform/mpfs_hal/common/mss_plic.h **** uint8_t PLIC_f2m_45_IRQHandler(void);
 222:/home/vinay/Desktop/softconsole_watershed/Water-shed/src/platform/mpfs_hal/common/mss_plic.h **** uint8_t PLIC_f2m_46_IRQHandler(void);
 223:/home/vinay/Desktop/softconsole_watershed/Water-shed/src/platform/mpfs_hal/common/mss_plic.h **** uint8_t PLIC_f2m_47_IRQHandler(void);
 224:/home/vinay/Desktop/softconsole_watershed/Water-shed/src/platform/mpfs_hal/common/mss_plic.h **** uint8_t PLIC_f2m_48_IRQHandler(void);
 225:/home/vinay/Desktop/softconsole_watershed/Water-shed/src/platform/mpfs_hal/common/mss_plic.h **** uint8_t PLIC_f2m_49_IRQHandler(void);
 226:/home/vinay/Desktop/softconsole_watershed/Water-shed/src/platform/mpfs_hal/common/mss_plic.h **** uint8_t PLIC_f2m_50_IRQHandler(void);
 227:/home/vinay/Desktop/softconsole_watershed/Water-shed/src/platform/mpfs_hal/common/mss_plic.h **** uint8_t PLIC_f2m_51_IRQHandler(void);
 228:/home/vinay/Desktop/softconsole_watershed/Water-shed/src/platform/mpfs_hal/common/mss_plic.h **** 
 229:/home/vinay/Desktop/softconsole_watershed/Water-shed/src/platform/mpfs_hal/common/mss_plic.h **** uint8_t PLIC_f2m_52_IRQHandler(void);
 230:/home/vinay/Desktop/softconsole_watershed/Water-shed/src/platform/mpfs_hal/common/mss_plic.h **** uint8_t PLIC_f2m_53_IRQHandler(void);
 231:/home/vinay/Desktop/softconsole_watershed/Water-shed/src/platform/mpfs_hal/common/mss_plic.h **** uint8_t PLIC_f2m_54_IRQHandler(void);
 232:/home/vinay/Desktop/softconsole_watershed/Water-shed/src/platform/mpfs_hal/common/mss_plic.h **** uint8_t PLIC_f2m_55_IRQHandler(void);
 233:/home/vinay/Desktop/softconsole_watershed/Water-shed/src/platform/mpfs_hal/common/mss_plic.h **** uint8_t PLIC_f2m_56_IRQHandler(void);
 234:/home/vinay/Desktop/softconsole_watershed/Water-shed/src/platform/mpfs_hal/common/mss_plic.h **** uint8_t PLIC_f2m_57_IRQHandler(void);
 235:/home/vinay/Desktop/softconsole_watershed/Water-shed/src/platform/mpfs_hal/common/mss_plic.h **** uint8_t PLIC_f2m_58_IRQHandler(void);
 236:/home/vinay/Desktop/softconsole_watershed/Water-shed/src/platform/mpfs_hal/common/mss_plic.h **** uint8_t PLIC_f2m_59_IRQHandler(void);
 237:/home/vinay/Desktop/softconsole_watershed/Water-shed/src/platform/mpfs_hal/common/mss_plic.h **** uint8_t PLIC_f2m_60_IRQHandler(void);
 238:/home/vinay/Desktop/softconsole_watershed/Water-shed/src/platform/mpfs_hal/common/mss_plic.h **** uint8_t PLIC_f2m_61_IRQHandler(void);
 239:/home/vinay/Desktop/softconsole_watershed/Water-shed/src/platform/mpfs_hal/common/mss_plic.h **** 
 240:/home/vinay/Desktop/softconsole_watershed/Water-shed/src/platform/mpfs_hal/common/mss_plic.h **** uint8_t PLIC_f2m_62_IRQHandler(void);
 241:/home/vinay/Desktop/softconsole_watershed/Water-shed/src/platform/mpfs_hal/common/mss_plic.h **** uint8_t PLIC_f2m_63_IRQHandler(void);
 242:/home/vinay/Desktop/softconsole_watershed/Water-shed/src/platform/mpfs_hal/common/mss_plic.h **** 
 243:/home/vinay/Desktop/softconsole_watershed/Water-shed/src/platform/mpfs_hal/common/mss_plic.h **** uint8_t PLIC_E51_bus_error_unit_IRQHandler(void);
 244:/home/vinay/Desktop/softconsole_watershed/Water-shed/src/platform/mpfs_hal/common/mss_plic.h **** uint8_t PLIC_U54_1_bus_error_unit_IRQHandler(void);
 245:/home/vinay/Desktop/softconsole_watershed/Water-shed/src/platform/mpfs_hal/common/mss_plic.h **** uint8_t PLIC_U54_2_bus_error_unit_IRQHandler(void);
 246:/home/vinay/Desktop/softconsole_watershed/Water-shed/src/platform/mpfs_hal/common/mss_plic.h **** uint8_t PLIC_U54_3_bus_error_unit_IRQHandler(void);
 247:/home/vinay/Desktop/softconsole_watershed/Water-shed/src/platform/mpfs_hal/common/mss_plic.h **** uint8_t PLIC_U54_4_bus_error_unit_IRQHandler(void);
 248:/home/vinay/Desktop/softconsole_watershed/Water-shed/src/platform/mpfs_hal/common/mss_plic.h **** 
 249:/home/vinay/Desktop/softconsole_watershed/Water-shed/src/platform/mpfs_hal/common/mss_plic.h **** /***************************************************************************//**
 250:/home/vinay/Desktop/softconsole_watershed/Water-shed/src/platform/mpfs_hal/common/mss_plic.h ****  * PLIC source Interrupt numbers:
 251:/home/vinay/Desktop/softconsole_watershed/Water-shed/src/platform/mpfs_hal/common/mss_plic.h ****  */
 252:/home/vinay/Desktop/softconsole_watershed/Water-shed/src/platform/mpfs_hal/common/mss_plic.h **** /* See section on PLIC Interrupt Sources in User Guide */
 253:/home/vinay/Desktop/softconsole_watershed/Water-shed/src/platform/mpfs_hal/common/mss_plic.h **** #define OFFSET_TO_MSS_GLOBAL_INTS 13U
 254:/home/vinay/Desktop/softconsole_watershed/Water-shed/src/platform/mpfs_hal/common/mss_plic.h **** typedef enum
 255:/home/vinay/Desktop/softconsole_watershed/Water-shed/src/platform/mpfs_hal/common/mss_plic.h **** {
 256:/home/vinay/Desktop/softconsole_watershed/Water-shed/src/platform/mpfs_hal/common/mss_plic.h ****     PLIC_INVALID_INT_OFFSET                 = 0,
 257:/home/vinay/Desktop/softconsole_watershed/Water-shed/src/platform/mpfs_hal/common/mss_plic.h ****     PLIC_L2_METADATA_CORR_INT_OFFSET        = 1,
 258:/home/vinay/Desktop/softconsole_watershed/Water-shed/src/platform/mpfs_hal/common/mss_plic.h ****     PLIC_L2_METADAT_UNCORR_INT_OFFSET       = 2,
 259:/home/vinay/Desktop/softconsole_watershed/Water-shed/src/platform/mpfs_hal/common/mss_plic.h ****     PLIC_L2_DATA_CORR_INT_OFFSET            = 3,
 260:/home/vinay/Desktop/softconsole_watershed/Water-shed/src/platform/mpfs_hal/common/mss_plic.h ****     PLIC_L2_DATA_UNCORR_INT_OFFSET          = 4,
 261:/home/vinay/Desktop/softconsole_watershed/Water-shed/src/platform/mpfs_hal/common/mss_plic.h ****     PLIC_DMA_CH0_DONE_INT_OFFSET            = 5,
 262:/home/vinay/Desktop/softconsole_watershed/Water-shed/src/platform/mpfs_hal/common/mss_plic.h ****     PLIC_DMA_CH0_ERR_INT_OFFSET             = 6,
 263:/home/vinay/Desktop/softconsole_watershed/Water-shed/src/platform/mpfs_hal/common/mss_plic.h ****     PLIC_DMA_CH1_DONE_INT_OFFSET            = 7,
 264:/home/vinay/Desktop/softconsole_watershed/Water-shed/src/platform/mpfs_hal/common/mss_plic.h ****     PLIC_DMA_CH1_ERR_INT_OFFSET             = 8,
 265:/home/vinay/Desktop/softconsole_watershed/Water-shed/src/platform/mpfs_hal/common/mss_plic.h ****     PLIC_DMA_CH2_DONE_INT_OFFSET            = 9,
 266:/home/vinay/Desktop/softconsole_watershed/Water-shed/src/platform/mpfs_hal/common/mss_plic.h ****     PLIC_DMA_CH2_ERR_INT_OFFSET             = 10,
 267:/home/vinay/Desktop/softconsole_watershed/Water-shed/src/platform/mpfs_hal/common/mss_plic.h ****     PLIC_DMA_CH3_DONE_INT_OFFSET            = 11,
 268:/home/vinay/Desktop/softconsole_watershed/Water-shed/src/platform/mpfs_hal/common/mss_plic.h ****     PLIC_DMA_CH3_ERR_INT_OFFSET             = 12,
 269:/home/vinay/Desktop/softconsole_watershed/Water-shed/src/platform/mpfs_hal/common/mss_plic.h ****     /* see PLIC_I2C Interrupt Multiplexing in the User Guide */
 270:/home/vinay/Desktop/softconsole_watershed/Water-shed/src/platform/mpfs_hal/common/mss_plic.h ****     PLIC_GPIO0_BIT0_or_GPIO2_BIT0_INT_OFFSET         = 0 + OFFSET_TO_MSS_GLOBAL_INTS,
 271:/home/vinay/Desktop/softconsole_watershed/Water-shed/src/platform/mpfs_hal/common/mss_plic.h ****     PLIC_GPIO0_BIT1_or_GPIO2_BIT1_INT_OFFSET         = 1 + OFFSET_TO_MSS_GLOBAL_INTS,
 272:/home/vinay/Desktop/softconsole_watershed/Water-shed/src/platform/mpfs_hal/common/mss_plic.h ****     PLIC_GPIO0_BIT2_or_GPIO2_BIT2_INT_OFFSET         = 2 + OFFSET_TO_MSS_GLOBAL_INTS,
 273:/home/vinay/Desktop/softconsole_watershed/Water-shed/src/platform/mpfs_hal/common/mss_plic.h ****     PLIC_GPIO0_BIT3_or_GPIO2_BIT3_INT_OFFSET         = 3 + OFFSET_TO_MSS_GLOBAL_INTS,
 274:/home/vinay/Desktop/softconsole_watershed/Water-shed/src/platform/mpfs_hal/common/mss_plic.h ****     PLIC_GPIO0_BIT4_or_GPIO2_BIT4_INT_OFFSET         = 4 + OFFSET_TO_MSS_GLOBAL_INTS,
 275:/home/vinay/Desktop/softconsole_watershed/Water-shed/src/platform/mpfs_hal/common/mss_plic.h ****     PLIC_GPIO0_BIT5_or_GPIO2_BIT5_INT_OFFSET         = 5 + OFFSET_TO_MSS_GLOBAL_INTS,
 276:/home/vinay/Desktop/softconsole_watershed/Water-shed/src/platform/mpfs_hal/common/mss_plic.h ****     PLIC_GPIO0_BIT6_or_GPIO2_BIT6_INT_OFFSET         = 6 + OFFSET_TO_MSS_GLOBAL_INTS,
 277:/home/vinay/Desktop/softconsole_watershed/Water-shed/src/platform/mpfs_hal/common/mss_plic.h ****     PLIC_GPIO0_BIT7_or_GPIO2_BIT7_INT_OFFSET         = 7 + OFFSET_TO_MSS_GLOBAL_INTS,
 278:/home/vinay/Desktop/softconsole_watershed/Water-shed/src/platform/mpfs_hal/common/mss_plic.h ****     PLIC_GPIO0_BIT8_or_GPIO2_BIT8_INT_OFFSET         = 8 + OFFSET_TO_MSS_GLOBAL_INTS,
 279:/home/vinay/Desktop/softconsole_watershed/Water-shed/src/platform/mpfs_hal/common/mss_plic.h ****     PLIC_GPIO0_BIT9_or_GPIO2_BIT9_INT_OFFSET         = 9 + OFFSET_TO_MSS_GLOBAL_INTS,
 280:/home/vinay/Desktop/softconsole_watershed/Water-shed/src/platform/mpfs_hal/common/mss_plic.h ****     PLIC_GPIO0_BIT10_or_GPIO2_BIT10_INT_OFFSET      = 10 + OFFSET_TO_MSS_GLOBAL_INTS,
 281:/home/vinay/Desktop/softconsole_watershed/Water-shed/src/platform/mpfs_hal/common/mss_plic.h ****     PLIC_GPIO0_BIT11_or_GPIO2_BIT11_INT_OFFSET      = 11 + OFFSET_TO_MSS_GLOBAL_INTS,
 282:/home/vinay/Desktop/softconsole_watershed/Water-shed/src/platform/mpfs_hal/common/mss_plic.h ****     PLIC_GPIO0_BIT12_or_GPIO2_BIT12_INT_OFFSET      = 12 + OFFSET_TO_MSS_GLOBAL_INTS,
 283:/home/vinay/Desktop/softconsole_watershed/Water-shed/src/platform/mpfs_hal/common/mss_plic.h **** 
 284:/home/vinay/Desktop/softconsole_watershed/Water-shed/src/platform/mpfs_hal/common/mss_plic.h ****     PLIC_GPIO0_BIT13_or_GPIO2_BIT13_INT_OFFSET      = 13 + OFFSET_TO_MSS_GLOBAL_INTS,
 285:/home/vinay/Desktop/softconsole_watershed/Water-shed/src/platform/mpfs_hal/common/mss_plic.h ****     PLIC_GPIO1_BIT0_or_GPIO2_BIT14_INT_OFFSET       = 14 + OFFSET_TO_MSS_GLOBAL_INTS,
 286:/home/vinay/Desktop/softconsole_watershed/Water-shed/src/platform/mpfs_hal/common/mss_plic.h ****     PLIC_GPIO1_BIT1_or_GPIO2_BIT15_INT_OFFSET       = 15 + OFFSET_TO_MSS_GLOBAL_INTS,
 287:/home/vinay/Desktop/softconsole_watershed/Water-shed/src/platform/mpfs_hal/common/mss_plic.h ****     PLIC_GPIO1_BIT2_or_GPIO2_BIT16_INT_OFFSET       = 16 + OFFSET_TO_MSS_GLOBAL_INTS,
 288:/home/vinay/Desktop/softconsole_watershed/Water-shed/src/platform/mpfs_hal/common/mss_plic.h ****     PLIC_GPIO1_BIT3_or_GPIO2_BIT17_INT_OFFSET       = 17 + OFFSET_TO_MSS_GLOBAL_INTS,
 289:/home/vinay/Desktop/softconsole_watershed/Water-shed/src/platform/mpfs_hal/common/mss_plic.h ****     PLIC_GPIO1_BIT4_or_GPIO2_BIT18_INT_OFFSET       = 18 + OFFSET_TO_MSS_GLOBAL_INTS,
 290:/home/vinay/Desktop/softconsole_watershed/Water-shed/src/platform/mpfs_hal/common/mss_plic.h ****     PLIC_GPIO1_BIT5_or_GPIO2_BIT19_INT_OFFSET       = 19 + OFFSET_TO_MSS_GLOBAL_INTS,
 291:/home/vinay/Desktop/softconsole_watershed/Water-shed/src/platform/mpfs_hal/common/mss_plic.h ****     PLIC_GPIO1_BIT6_or_GPIO2_BIT20_INT_OFFSET       = 20 + OFFSET_TO_MSS_GLOBAL_INTS,
 292:/home/vinay/Desktop/softconsole_watershed/Water-shed/src/platform/mpfs_hal/common/mss_plic.h ****     PLIC_GPIO1_BIT7_or_GPIO2_BIT21_INT_OFFSET       = 21 + OFFSET_TO_MSS_GLOBAL_INTS,
 293:/home/vinay/Desktop/softconsole_watershed/Water-shed/src/platform/mpfs_hal/common/mss_plic.h ****     PLIC_GPIO1_BIT8_or_GPIO2_BIT22_INT_OFFSET       = 22 + OFFSET_TO_MSS_GLOBAL_INTS,
 294:/home/vinay/Desktop/softconsole_watershed/Water-shed/src/platform/mpfs_hal/common/mss_plic.h ****     PLIC_GPIO1_BIT9_or_GPIO2_BIT23_INT_OFFSET       = 23 + OFFSET_TO_MSS_GLOBAL_INTS,
 295:/home/vinay/Desktop/softconsole_watershed/Water-shed/src/platform/mpfs_hal/common/mss_plic.h ****     PLIC_GPIO1_BIT10_or_GPIO2_BIT24_INT_OFFSET      = 24 + OFFSET_TO_MSS_GLOBAL_INTS,
 296:/home/vinay/Desktop/softconsole_watershed/Water-shed/src/platform/mpfs_hal/common/mss_plic.h ****     PLIC_GPIO1_BIT11_or_GPIO2_BIT25_INT_OFFSET      = 25 + OFFSET_TO_MSS_GLOBAL_INTS,
 297:/home/vinay/Desktop/softconsole_watershed/Water-shed/src/platform/mpfs_hal/common/mss_plic.h ****     PLIC_GPIO1_BIT12_or_GPIO2_BIT26_INT_OFFSET      = 26 + OFFSET_TO_MSS_GLOBAL_INTS,
 298:/home/vinay/Desktop/softconsole_watershed/Water-shed/src/platform/mpfs_hal/common/mss_plic.h ****     PLIC_GPIO1_BIT13_or_GPIO2_BIT27_INT_OFFSET      = 27 + OFFSET_TO_MSS_GLOBAL_INTS,
 299:/home/vinay/Desktop/softconsole_watershed/Water-shed/src/platform/mpfs_hal/common/mss_plic.h **** 
 300:/home/vinay/Desktop/softconsole_watershed/Water-shed/src/platform/mpfs_hal/common/mss_plic.h ****     PLIC_GPIO1_BIT14_or_GPIO2_BIT28_INT_OFFSET       = 28 + OFFSET_TO_MSS_GLOBAL_INTS,
 301:/home/vinay/Desktop/softconsole_watershed/Water-shed/src/platform/mpfs_hal/common/mss_plic.h ****     PLIC_GPIO1_BIT15_or_GPIO2_BIT29_INT_OFFSET       = 29 + OFFSET_TO_MSS_GLOBAL_INTS,
 302:/home/vinay/Desktop/softconsole_watershed/Water-shed/src/platform/mpfs_hal/common/mss_plic.h ****     PLIC_GPIO1_BIT16_or_GPIO2_BIT30_INT_OFFSET       = 30 + OFFSET_TO_MSS_GLOBAL_INTS,
 303:/home/vinay/Desktop/softconsole_watershed/Water-shed/src/platform/mpfs_hal/common/mss_plic.h ****     PLIC_GPIO1_BIT17_or_GPIO2_BIT31_INT_OFFSET       = 31 + OFFSET_TO_MSS_GLOBAL_INTS,
 304:/home/vinay/Desktop/softconsole_watershed/Water-shed/src/platform/mpfs_hal/common/mss_plic.h **** 
 305:/home/vinay/Desktop/softconsole_watershed/Water-shed/src/platform/mpfs_hal/common/mss_plic.h ****     PLIC_GPIO1_BIT18_INT_OFFSET           = 32 + OFFSET_TO_MSS_GLOBAL_INTS,
 306:/home/vinay/Desktop/softconsole_watershed/Water-shed/src/platform/mpfs_hal/common/mss_plic.h ****     PLIC_GPIO1_BIT19_INT_OFFSET           = 33 + OFFSET_TO_MSS_GLOBAL_INTS,
 307:/home/vinay/Desktop/softconsole_watershed/Water-shed/src/platform/mpfs_hal/common/mss_plic.h ****     PLIC_GPIO1_BIT20_INT_OFFSET           = 34 + OFFSET_TO_MSS_GLOBAL_INTS,
 308:/home/vinay/Desktop/softconsole_watershed/Water-shed/src/platform/mpfs_hal/common/mss_plic.h ****     PLIC_GPIO1_BIT21_INT_OFFSET           = 35 + OFFSET_TO_MSS_GLOBAL_INTS,
 309:/home/vinay/Desktop/softconsole_watershed/Water-shed/src/platform/mpfs_hal/common/mss_plic.h ****     PLIC_GPIO1_BIT22_INT_OFFSET           = 36 + OFFSET_TO_MSS_GLOBAL_INTS,
 310:/home/vinay/Desktop/softconsole_watershed/Water-shed/src/platform/mpfs_hal/common/mss_plic.h ****     PLIC_GPIO1_BIT23_INT_OFFSET           = 37 + OFFSET_TO_MSS_GLOBAL_INTS,
 311:/home/vinay/Desktop/softconsole_watershed/Water-shed/src/platform/mpfs_hal/common/mss_plic.h **** 
 312:/home/vinay/Desktop/softconsole_watershed/Water-shed/src/platform/mpfs_hal/common/mss_plic.h ****     PLIC_GPIO0_NON_DIRECT_INT_OFFSET         = 38 + OFFSET_TO_MSS_GLOBAL_INTS,
 313:/home/vinay/Desktop/softconsole_watershed/Water-shed/src/platform/mpfs_hal/common/mss_plic.h ****     PLIC_GPIO1_NON_DIRECT_INT_OFFSET         = 39 + OFFSET_TO_MSS_GLOBAL_INTS,
 314:/home/vinay/Desktop/softconsole_watershed/Water-shed/src/platform/mpfs_hal/common/mss_plic.h ****     PLIC_GPIO2_NON_DIRECT_INT_OFFSET         = 40 + OFFSET_TO_MSS_GLOBAL_INTS,
 315:/home/vinay/Desktop/softconsole_watershed/Water-shed/src/platform/mpfs_hal/common/mss_plic.h **** 
 316:/home/vinay/Desktop/softconsole_watershed/Water-shed/src/platform/mpfs_hal/common/mss_plic.h ****     PLIC_SPI0_INT_OFFSET                    = 41 + OFFSET_TO_MSS_GLOBAL_INTS,
 317:/home/vinay/Desktop/softconsole_watershed/Water-shed/src/platform/mpfs_hal/common/mss_plic.h ****     PLIC_SPI1_INT_OFFSET                    = 42 + OFFSET_TO_MSS_GLOBAL_INTS,
 318:/home/vinay/Desktop/softconsole_watershed/Water-shed/src/platform/mpfs_hal/common/mss_plic.h ****     PLIC_CAN0_INT_OFFSET                    = 43 + OFFSET_TO_MSS_GLOBAL_INTS,
 319:/home/vinay/Desktop/softconsole_watershed/Water-shed/src/platform/mpfs_hal/common/mss_plic.h ****     PLIC_CAN1_INT_OFFSET                    = 44 + OFFSET_TO_MSS_GLOBAL_INTS,
 320:/home/vinay/Desktop/softconsole_watershed/Water-shed/src/platform/mpfs_hal/common/mss_plic.h ****     PLIC_I2C0_MAIN_INT_OFFSET               = 45 + OFFSET_TO_MSS_GLOBAL_INTS,
 321:/home/vinay/Desktop/softconsole_watershed/Water-shed/src/platform/mpfs_hal/common/mss_plic.h ****     PLIC_I2C0_ALERT_INT_OFFSET              = 46 + OFFSET_TO_MSS_GLOBAL_INTS,
 322:/home/vinay/Desktop/softconsole_watershed/Water-shed/src/platform/mpfs_hal/common/mss_plic.h ****     PLIC_I2C0_SUS_INT_OFFSET                = 47 + OFFSET_TO_MSS_GLOBAL_INTS,
 323:/home/vinay/Desktop/softconsole_watershed/Water-shed/src/platform/mpfs_hal/common/mss_plic.h ****     PLIC_I2C1_MAIN_INT_OFFSET               = 48 + OFFSET_TO_MSS_GLOBAL_INTS,
 324:/home/vinay/Desktop/softconsole_watershed/Water-shed/src/platform/mpfs_hal/common/mss_plic.h ****     PLIC_I2C1_ALERT_INT_OFFSET              = 49 + OFFSET_TO_MSS_GLOBAL_INTS,
 325:/home/vinay/Desktop/softconsole_watershed/Water-shed/src/platform/mpfs_hal/common/mss_plic.h ****     PLIC_I2C1_SUS_INT_OFFSET                = 50 + OFFSET_TO_MSS_GLOBAL_INTS,
 326:/home/vinay/Desktop/softconsole_watershed/Water-shed/src/platform/mpfs_hal/common/mss_plic.h ****     PLIC_MAC0_INT_INT_OFFSET                = 51 + OFFSET_TO_MSS_GLOBAL_INTS,
 327:/home/vinay/Desktop/softconsole_watershed/Water-shed/src/platform/mpfs_hal/common/mss_plic.h ****     PLIC_MAC0_QUEUE1_INT_OFFSET             = 52 + OFFSET_TO_MSS_GLOBAL_INTS,
 328:/home/vinay/Desktop/softconsole_watershed/Water-shed/src/platform/mpfs_hal/common/mss_plic.h ****     PLIC_MAC0_QUEUE2_INT_OFFSET             = 53 + OFFSET_TO_MSS_GLOBAL_INTS,
 329:/home/vinay/Desktop/softconsole_watershed/Water-shed/src/platform/mpfs_hal/common/mss_plic.h ****     PLIC_MAC0_QUEUE3_INT_OFFSET             = 54 + OFFSET_TO_MSS_GLOBAL_INTS,
 330:/home/vinay/Desktop/softconsole_watershed/Water-shed/src/platform/mpfs_hal/common/mss_plic.h ****     PLIC_MAC0_EMAC_INT_OFFSET               = 55 + OFFSET_TO_MSS_GLOBAL_INTS,
 331:/home/vinay/Desktop/softconsole_watershed/Water-shed/src/platform/mpfs_hal/common/mss_plic.h ****     PLIC_MAC0_MMSL_INT_OFFSET               = 56 + OFFSET_TO_MSS_GLOBAL_INTS,
 332:/home/vinay/Desktop/softconsole_watershed/Water-shed/src/platform/mpfs_hal/common/mss_plic.h ****     PLIC_MAC1_INT_INT_OFFSET                = 57 + OFFSET_TO_MSS_GLOBAL_INTS,
 333:/home/vinay/Desktop/softconsole_watershed/Water-shed/src/platform/mpfs_hal/common/mss_plic.h ****     PLIC_MAC1_QUEUE1_INT_OFFSET             = 58 + OFFSET_TO_MSS_GLOBAL_INTS,
 334:/home/vinay/Desktop/softconsole_watershed/Water-shed/src/platform/mpfs_hal/common/mss_plic.h ****     PLIC_MAC1_QUEUE2_INT_OFFSET             = 59 + OFFSET_TO_MSS_GLOBAL_INTS,
 335:/home/vinay/Desktop/softconsole_watershed/Water-shed/src/platform/mpfs_hal/common/mss_plic.h ****     PLIC_MAC1_QUEUE3_INT_OFFSET             = 60 + OFFSET_TO_MSS_GLOBAL_INTS,
 336:/home/vinay/Desktop/softconsole_watershed/Water-shed/src/platform/mpfs_hal/common/mss_plic.h ****     PLIC_MAC1_EMAC_INT_OFFSET               = 61 + OFFSET_TO_MSS_GLOBAL_INTS,
 337:/home/vinay/Desktop/softconsole_watershed/Water-shed/src/platform/mpfs_hal/common/mss_plic.h ****     PLIC_MAC1_MMSL_INT_OFFSET               = 62 + OFFSET_TO_MSS_GLOBAL_INTS,
 338:/home/vinay/Desktop/softconsole_watershed/Water-shed/src/platform/mpfs_hal/common/mss_plic.h ****     PLIC_DDRC_TRAIN_INT_OFFSET              = 63 + OFFSET_TO_MSS_GLOBAL_INTS,
 339:/home/vinay/Desktop/softconsole_watershed/Water-shed/src/platform/mpfs_hal/common/mss_plic.h ****     PLIC_SCB_INTERRUPT_INT_OFFSET           = 64 + OFFSET_TO_MSS_GLOBAL_INTS,
 340:/home/vinay/Desktop/softconsole_watershed/Water-shed/src/platform/mpfs_hal/common/mss_plic.h ****     PLIC_ECC_ERROR_INT_OFFSET               = 65 + OFFSET_TO_MSS_GLOBAL_INTS,
 341:/home/vinay/Desktop/softconsole_watershed/Water-shed/src/platform/mpfs_hal/common/mss_plic.h ****     PLIC_ECC_CORRECT_INT_OFFSET             = 66 + OFFSET_TO_MSS_GLOBAL_INTS,
 342:/home/vinay/Desktop/softconsole_watershed/Water-shed/src/platform/mpfs_hal/common/mss_plic.h ****     PLIC_RTC_WAKEUP_INT_OFFSET              = 67 + OFFSET_TO_MSS_GLOBAL_INTS,
 343:/home/vinay/Desktop/softconsole_watershed/Water-shed/src/platform/mpfs_hal/common/mss_plic.h ****     PLIC_RTC_MATCH_INT_OFFSET               = 68 + OFFSET_TO_MSS_GLOBAL_INTS,
 344:/home/vinay/Desktop/softconsole_watershed/Water-shed/src/platform/mpfs_hal/common/mss_plic.h ****     PLIC_TIMER1_INT_OFFSET                  = 69 + OFFSET_TO_MSS_GLOBAL_INTS,
 345:/home/vinay/Desktop/softconsole_watershed/Water-shed/src/platform/mpfs_hal/common/mss_plic.h ****     PLIC_TIMER2_INT_OFFSET                  = 70 + OFFSET_TO_MSS_GLOBAL_INTS,
 346:/home/vinay/Desktop/softconsole_watershed/Water-shed/src/platform/mpfs_hal/common/mss_plic.h ****     PLIC_ENVM_INT_OFFSET                    = 71 + OFFSET_TO_MSS_GLOBAL_INTS,
 347:/home/vinay/Desktop/softconsole_watershed/Water-shed/src/platform/mpfs_hal/common/mss_plic.h ****     PLIC_QSPI_INT_OFFSET                    = 72 + OFFSET_TO_MSS_GLOBAL_INTS,
 348:/home/vinay/Desktop/softconsole_watershed/Water-shed/src/platform/mpfs_hal/common/mss_plic.h ****     PLIC_USB_DMA_INT_OFFSET                 = 73 + OFFSET_TO_MSS_GLOBAL_INTS,
 349:/home/vinay/Desktop/softconsole_watershed/Water-shed/src/platform/mpfs_hal/common/mss_plic.h ****     PLIC_USB_MC_INT_OFFSET                  = 74 + OFFSET_TO_MSS_GLOBAL_INTS,
 350:/home/vinay/Desktop/softconsole_watershed/Water-shed/src/platform/mpfs_hal/common/mss_plic.h ****     PLIC_MMC_main_INT_OFFSET                = 75 + OFFSET_TO_MSS_GLOBAL_INTS,
 351:/home/vinay/Desktop/softconsole_watershed/Water-shed/src/platform/mpfs_hal/common/mss_plic.h ****     PLIC_MMC_wakeup_INT_OFFSET              = 76 + OFFSET_TO_MSS_GLOBAL_INTS,
 352:/home/vinay/Desktop/softconsole_watershed/Water-shed/src/platform/mpfs_hal/common/mss_plic.h ****     PLIC_MMUART0_INT_OFFSET                 = 77 + OFFSET_TO_MSS_GLOBAL_INTS,
 353:/home/vinay/Desktop/softconsole_watershed/Water-shed/src/platform/mpfs_hal/common/mss_plic.h ****     PLIC_MMUART1_INT_OFFSET                 = 78 + OFFSET_TO_MSS_GLOBAL_INTS,
 354:/home/vinay/Desktop/softconsole_watershed/Water-shed/src/platform/mpfs_hal/common/mss_plic.h ****     PLIC_MMUART2_INT_OFFSET                 = 79 + OFFSET_TO_MSS_GLOBAL_INTS,
 355:/home/vinay/Desktop/softconsole_watershed/Water-shed/src/platform/mpfs_hal/common/mss_plic.h ****     PLIC_MMUART3_INT_OFFSET                 = 80 + OFFSET_TO_MSS_GLOBAL_INTS,
 356:/home/vinay/Desktop/softconsole_watershed/Water-shed/src/platform/mpfs_hal/common/mss_plic.h ****     PLIC_MMUART4_INT_OFFSET                 = 81 + OFFSET_TO_MSS_GLOBAL_INTS,
 357:/home/vinay/Desktop/softconsole_watershed/Water-shed/src/platform/mpfs_hal/common/mss_plic.h **** 
 358:/home/vinay/Desktop/softconsole_watershed/Water-shed/src/platform/mpfs_hal/common/mss_plic.h ****     G5C_DEVRST_INT_OFFSET              = 82 + OFFSET_TO_MSS_GLOBAL_INTS,
 359:/home/vinay/Desktop/softconsole_watershed/Water-shed/src/platform/mpfs_hal/common/mss_plic.h ****     g5c_MESSAGE_INT_OFFSET             = 83 + OFFSET_TO_MSS_GLOBAL_INTS,
 360:/home/vinay/Desktop/softconsole_watershed/Water-shed/src/platform/mpfs_hal/common/mss_plic.h ****     USOC_VC_INTERRUPT_INT_OFFSET       = 84 + OFFSET_TO_MSS_GLOBAL_INTS,
 361:/home/vinay/Desktop/softconsole_watershed/Water-shed/src/platform/mpfs_hal/common/mss_plic.h ****     USOC_SMB_INTERRUPT_INT_OFFSET      = 85 + OFFSET_TO_MSS_GLOBAL_INTS,
 362:/home/vinay/Desktop/softconsole_watershed/Water-shed/src/platform/mpfs_hal/common/mss_plic.h ****     /* contains multiple interrupts- */
 363:/home/vinay/Desktop/softconsole_watershed/Water-shed/src/platform/mpfs_hal/common/mss_plic.h ****     E51_0_MAINTENACE_INT_OFFSET        = 86 + OFFSET_TO_MSS_GLOBAL_INTS,
 364:/home/vinay/Desktop/softconsole_watershed/Water-shed/src/platform/mpfs_hal/common/mss_plic.h **** 
 365:/home/vinay/Desktop/softconsole_watershed/Water-shed/src/platform/mpfs_hal/common/mss_plic.h ****     PLIC_WDOG0_MRVP_INT_OFFSET              = 87 + OFFSET_TO_MSS_GLOBAL_INTS,
 366:/home/vinay/Desktop/softconsole_watershed/Water-shed/src/platform/mpfs_hal/common/mss_plic.h ****     PLIC_WDOG1_MRVP_INT_OFFSET              = 88 + OFFSET_TO_MSS_GLOBAL_INTS,
 367:/home/vinay/Desktop/softconsole_watershed/Water-shed/src/platform/mpfs_hal/common/mss_plic.h ****     PLIC_WDOG2_MRVP_INT_OFFSET              = 89 + OFFSET_TO_MSS_GLOBAL_INTS,
 368:/home/vinay/Desktop/softconsole_watershed/Water-shed/src/platform/mpfs_hal/common/mss_plic.h ****     PLIC_WDOG3_MRVP_INT_OFFSET              = 90 + OFFSET_TO_MSS_GLOBAL_INTS,
 369:/home/vinay/Desktop/softconsole_watershed/Water-shed/src/platform/mpfs_hal/common/mss_plic.h ****     PLIC_WDOG4_MRVP_INT_OFFSET              = 91 + OFFSET_TO_MSS_GLOBAL_INTS,
 370:/home/vinay/Desktop/softconsole_watershed/Water-shed/src/platform/mpfs_hal/common/mss_plic.h ****     PLIC_WDOG0_TOUT_INT_OFFSET              = 92 + OFFSET_TO_MSS_GLOBAL_INTS,
 371:/home/vinay/Desktop/softconsole_watershed/Water-shed/src/platform/mpfs_hal/common/mss_plic.h ****     PLIC_WDOG1_TOUT_INT_OFFSET              = 93 + OFFSET_TO_MSS_GLOBAL_INTS,
 372:/home/vinay/Desktop/softconsole_watershed/Water-shed/src/platform/mpfs_hal/common/mss_plic.h ****     PLIC_WDOG2_TOUT_INT_OFFSET              = 94 + OFFSET_TO_MSS_GLOBAL_INTS,
 373:/home/vinay/Desktop/softconsole_watershed/Water-shed/src/platform/mpfs_hal/common/mss_plic.h ****     PLIC_WDOG3_TOUT_INT_OFFSET              = 95 + OFFSET_TO_MSS_GLOBAL_INTS,
 374:/home/vinay/Desktop/softconsole_watershed/Water-shed/src/platform/mpfs_hal/common/mss_plic.h ****     PLIC_WDOG4_TOUT_INT_OFFSET              = 96 + OFFSET_TO_MSS_GLOBAL_INTS,
 375:/home/vinay/Desktop/softconsole_watershed/Water-shed/src/platform/mpfs_hal/common/mss_plic.h ****     G5C_MSS_SPI_INT_OFFSET             = 97 + OFFSET_TO_MSS_GLOBAL_INTS,
 376:/home/vinay/Desktop/softconsole_watershed/Water-shed/src/platform/mpfs_hal/common/mss_plic.h ****     VOLT_TEMP_ALARM_INT_OFFSET         = 98 + OFFSET_TO_MSS_GLOBAL_INTS,
 377:/home/vinay/Desktop/softconsole_watershed/Water-shed/src/platform/mpfs_hal/common/mss_plic.h ****     ATHENA_COMPLETE_INT_OFFSET         = 99 + OFFSET_TO_MSS_GLOBAL_INTS,
 378:/home/vinay/Desktop/softconsole_watershed/Water-shed/src/platform/mpfs_hal/common/mss_plic.h ****     ATHENA_ALARM_INT_OFFSET            = 100 + OFFSET_TO_MSS_GLOBAL_INTS,
 379:/home/vinay/Desktop/softconsole_watershed/Water-shed/src/platform/mpfs_hal/common/mss_plic.h ****     ATHENA_BUS_ERROR_INT_OFFSET        = 101 + OFFSET_TO_MSS_GLOBAL_INTS,
 380:/home/vinay/Desktop/softconsole_watershed/Water-shed/src/platform/mpfs_hal/common/mss_plic.h ****     USOC_AXIC_US_INT_OFFSET            = 102 + OFFSET_TO_MSS_GLOBAL_INTS,
 381:/home/vinay/Desktop/softconsole_watershed/Water-shed/src/platform/mpfs_hal/common/mss_plic.h ****     USOC_AXIC_DS_INT_OFFSET            = 103 + OFFSET_TO_MSS_GLOBAL_INTS,
 382:/home/vinay/Desktop/softconsole_watershed/Water-shed/src/platform/mpfs_hal/common/mss_plic.h **** 
 383:/home/vinay/Desktop/softconsole_watershed/Water-shed/src/platform/mpfs_hal/common/mss_plic.h ****     PLIC_F2M_0_INT_OFFSET            = 105 + OFFSET_TO_MSS_GLOBAL_INTS,
 384:/home/vinay/Desktop/softconsole_watershed/Water-shed/src/platform/mpfs_hal/common/mss_plic.h ****     PLIC_F2M_1_INT_OFFSET            = 106 + OFFSET_TO_MSS_GLOBAL_INTS,
 385:/home/vinay/Desktop/softconsole_watershed/Water-shed/src/platform/mpfs_hal/common/mss_plic.h ****     PLIC_F2M_2_INT_OFFSET            = 107 + OFFSET_TO_MSS_GLOBAL_INTS,
 386:/home/vinay/Desktop/softconsole_watershed/Water-shed/src/platform/mpfs_hal/common/mss_plic.h ****     PLIC_F2M_3_INT_OFFSET            = 108 + OFFSET_TO_MSS_GLOBAL_INTS,
 387:/home/vinay/Desktop/softconsole_watershed/Water-shed/src/platform/mpfs_hal/common/mss_plic.h ****     PLIC_F2M_4_INT_OFFSET            = 109 + OFFSET_TO_MSS_GLOBAL_INTS,
 388:/home/vinay/Desktop/softconsole_watershed/Water-shed/src/platform/mpfs_hal/common/mss_plic.h ****     PLIC_F2M_5_INT_OFFSET            = 110 + OFFSET_TO_MSS_GLOBAL_INTS,
 389:/home/vinay/Desktop/softconsole_watershed/Water-shed/src/platform/mpfs_hal/common/mss_plic.h ****     PLIC_F2M_6_INT_OFFSET            = 111 + OFFSET_TO_MSS_GLOBAL_INTS,
 390:/home/vinay/Desktop/softconsole_watershed/Water-shed/src/platform/mpfs_hal/common/mss_plic.h ****     PLIC_F2M_7_INT_OFFSET            = 112 + OFFSET_TO_MSS_GLOBAL_INTS,
 391:/home/vinay/Desktop/softconsole_watershed/Water-shed/src/platform/mpfs_hal/common/mss_plic.h ****     PLIC_F2M_8_INT_OFFSET            = 113 + OFFSET_TO_MSS_GLOBAL_INTS,
 392:/home/vinay/Desktop/softconsole_watershed/Water-shed/src/platform/mpfs_hal/common/mss_plic.h ****     PLIC_F2M_9_INT_OFFSET            = 114 + OFFSET_TO_MSS_GLOBAL_INTS,
 393:/home/vinay/Desktop/softconsole_watershed/Water-shed/src/platform/mpfs_hal/common/mss_plic.h **** 
 394:/home/vinay/Desktop/softconsole_watershed/Water-shed/src/platform/mpfs_hal/common/mss_plic.h ****     PLIC_F2M_10_INT_OFFSET           = 115 + OFFSET_TO_MSS_GLOBAL_INTS,
 395:/home/vinay/Desktop/softconsole_watershed/Water-shed/src/platform/mpfs_hal/common/mss_plic.h ****     PLIC_F2M_11_INT_OFFSET           = 116 + OFFSET_TO_MSS_GLOBAL_INTS,
 396:/home/vinay/Desktop/softconsole_watershed/Water-shed/src/platform/mpfs_hal/common/mss_plic.h ****     PLIC_F2M_12_INT_OFFSET           = 117 + OFFSET_TO_MSS_GLOBAL_INTS,
 397:/home/vinay/Desktop/softconsole_watershed/Water-shed/src/platform/mpfs_hal/common/mss_plic.h ****     PLIC_F2M_13_INT_OFFSET           = 118 + OFFSET_TO_MSS_GLOBAL_INTS,
 398:/home/vinay/Desktop/softconsole_watershed/Water-shed/src/platform/mpfs_hal/common/mss_plic.h ****     PLIC_F2M_14_INT_OFFSET           = 119 + OFFSET_TO_MSS_GLOBAL_INTS,
 399:/home/vinay/Desktop/softconsole_watershed/Water-shed/src/platform/mpfs_hal/common/mss_plic.h ****     PLIC_F2M_15_INT_OFFSET           = 120 + OFFSET_TO_MSS_GLOBAL_INTS,
 400:/home/vinay/Desktop/softconsole_watershed/Water-shed/src/platform/mpfs_hal/common/mss_plic.h ****     PLIC_F2M_16_INT_OFFSET           = 121 + OFFSET_TO_MSS_GLOBAL_INTS,
 401:/home/vinay/Desktop/softconsole_watershed/Water-shed/src/platform/mpfs_hal/common/mss_plic.h ****     PLIC_F2M_17_INT_OFFSET           = 122 + OFFSET_TO_MSS_GLOBAL_INTS,
 402:/home/vinay/Desktop/softconsole_watershed/Water-shed/src/platform/mpfs_hal/common/mss_plic.h ****     PLIC_F2M_18_INT_OFFSET           = 123 + OFFSET_TO_MSS_GLOBAL_INTS,
 403:/home/vinay/Desktop/softconsole_watershed/Water-shed/src/platform/mpfs_hal/common/mss_plic.h ****     PLIC_F2M_19_INT_OFFSET           = 124 + OFFSET_TO_MSS_GLOBAL_INTS,
 404:/home/vinay/Desktop/softconsole_watershed/Water-shed/src/platform/mpfs_hal/common/mss_plic.h **** 
 405:/home/vinay/Desktop/softconsole_watershed/Water-shed/src/platform/mpfs_hal/common/mss_plic.h ****     PLIC_F2M_20_INT_OFFSET           = 125 + OFFSET_TO_MSS_GLOBAL_INTS,
 406:/home/vinay/Desktop/softconsole_watershed/Water-shed/src/platform/mpfs_hal/common/mss_plic.h ****     PLIC_F2M_21_INT_OFFSET           = 126 + OFFSET_TO_MSS_GLOBAL_INTS,
 407:/home/vinay/Desktop/softconsole_watershed/Water-shed/src/platform/mpfs_hal/common/mss_plic.h ****     PLIC_F2M_22_INT_OFFSET           = 127 + OFFSET_TO_MSS_GLOBAL_INTS,
 408:/home/vinay/Desktop/softconsole_watershed/Water-shed/src/platform/mpfs_hal/common/mss_plic.h ****     PLIC_F2M_23_INT_OFFSET           = 128 + OFFSET_TO_MSS_GLOBAL_INTS,
 409:/home/vinay/Desktop/softconsole_watershed/Water-shed/src/platform/mpfs_hal/common/mss_plic.h ****     PLIC_F2M_24_INT_OFFSET           = 129 + OFFSET_TO_MSS_GLOBAL_INTS,
 410:/home/vinay/Desktop/softconsole_watershed/Water-shed/src/platform/mpfs_hal/common/mss_plic.h ****     PLIC_F2M_25_INT_OFFSET           = 130 + OFFSET_TO_MSS_GLOBAL_INTS,
 411:/home/vinay/Desktop/softconsole_watershed/Water-shed/src/platform/mpfs_hal/common/mss_plic.h ****     PLIC_F2M_26_INT_OFFSET           = 131 + OFFSET_TO_MSS_GLOBAL_INTS,
 412:/home/vinay/Desktop/softconsole_watershed/Water-shed/src/platform/mpfs_hal/common/mss_plic.h ****     PLIC_F2M_27_INT_OFFSET           = 132 + OFFSET_TO_MSS_GLOBAL_INTS,
 413:/home/vinay/Desktop/softconsole_watershed/Water-shed/src/platform/mpfs_hal/common/mss_plic.h ****     PLIC_F2M_28_INT_OFFSET           = 133 + OFFSET_TO_MSS_GLOBAL_INTS,
 414:/home/vinay/Desktop/softconsole_watershed/Water-shed/src/platform/mpfs_hal/common/mss_plic.h ****     PLIC_F2M_29_INT_OFFSET           = 134 + OFFSET_TO_MSS_GLOBAL_INTS,
 415:/home/vinay/Desktop/softconsole_watershed/Water-shed/src/platform/mpfs_hal/common/mss_plic.h **** 
 416:/home/vinay/Desktop/softconsole_watershed/Water-shed/src/platform/mpfs_hal/common/mss_plic.h ****     PLIC_F2M_30_INT_OFFSET           = 135 + OFFSET_TO_MSS_GLOBAL_INTS,
 417:/home/vinay/Desktop/softconsole_watershed/Water-shed/src/platform/mpfs_hal/common/mss_plic.h ****     PLIC_F2M_31_INT_OFFSET           = 136 + OFFSET_TO_MSS_GLOBAL_INTS,
 418:/home/vinay/Desktop/softconsole_watershed/Water-shed/src/platform/mpfs_hal/common/mss_plic.h **** 
 419:/home/vinay/Desktop/softconsole_watershed/Water-shed/src/platform/mpfs_hal/common/mss_plic.h ****     PLIC_F2M_32_INT_OFFSET           = 137 + OFFSET_TO_MSS_GLOBAL_INTS,
 420:/home/vinay/Desktop/softconsole_watershed/Water-shed/src/platform/mpfs_hal/common/mss_plic.h ****     PLIC_F2M_33_INT_OFFSET           = 138 + OFFSET_TO_MSS_GLOBAL_INTS,
 421:/home/vinay/Desktop/softconsole_watershed/Water-shed/src/platform/mpfs_hal/common/mss_plic.h ****     PLIC_F2M_34_INT_OFFSET           = 139 + OFFSET_TO_MSS_GLOBAL_INTS,
 422:/home/vinay/Desktop/softconsole_watershed/Water-shed/src/platform/mpfs_hal/common/mss_plic.h ****     PLIC_F2M_35_INT_OFFSET           = 140 + OFFSET_TO_MSS_GLOBAL_INTS,
 423:/home/vinay/Desktop/softconsole_watershed/Water-shed/src/platform/mpfs_hal/common/mss_plic.h ****     PLIC_F2M_36_INT_OFFSET           = 141 + OFFSET_TO_MSS_GLOBAL_INTS,
 424:/home/vinay/Desktop/softconsole_watershed/Water-shed/src/platform/mpfs_hal/common/mss_plic.h ****     PLIC_F2M_37_INT_OFFSET           = 142 + OFFSET_TO_MSS_GLOBAL_INTS,
 425:/home/vinay/Desktop/softconsole_watershed/Water-shed/src/platform/mpfs_hal/common/mss_plic.h ****     PLIC_F2M_38_INT_OFFSET           = 143 + OFFSET_TO_MSS_GLOBAL_INTS,
 426:/home/vinay/Desktop/softconsole_watershed/Water-shed/src/platform/mpfs_hal/common/mss_plic.h ****     PLIC_F2M_39_INT_OFFSET           = 144 + OFFSET_TO_MSS_GLOBAL_INTS,
 427:/home/vinay/Desktop/softconsole_watershed/Water-shed/src/platform/mpfs_hal/common/mss_plic.h ****     PLIC_F2M_40_INT_OFFSET           = 145 + OFFSET_TO_MSS_GLOBAL_INTS,
 428:/home/vinay/Desktop/softconsole_watershed/Water-shed/src/platform/mpfs_hal/common/mss_plic.h ****     PLIC_F2M_41_INT_OFFSET           = 146 + OFFSET_TO_MSS_GLOBAL_INTS,
 429:/home/vinay/Desktop/softconsole_watershed/Water-shed/src/platform/mpfs_hal/common/mss_plic.h **** 
 430:/home/vinay/Desktop/softconsole_watershed/Water-shed/src/platform/mpfs_hal/common/mss_plic.h ****     PLIC_F2M_42_INT_OFFSET           = 147 + OFFSET_TO_MSS_GLOBAL_INTS,
 431:/home/vinay/Desktop/softconsole_watershed/Water-shed/src/platform/mpfs_hal/common/mss_plic.h ****     PLIC_F2M_43_INT_OFFSET           = 148 + OFFSET_TO_MSS_GLOBAL_INTS,
 432:/home/vinay/Desktop/softconsole_watershed/Water-shed/src/platform/mpfs_hal/common/mss_plic.h ****     PLIC_F2M_44_INT_OFFSET           = 149 + OFFSET_TO_MSS_GLOBAL_INTS,
 433:/home/vinay/Desktop/softconsole_watershed/Water-shed/src/platform/mpfs_hal/common/mss_plic.h ****     PLIC_F2M_45_INT_OFFSET           = 150 + OFFSET_TO_MSS_GLOBAL_INTS,
 434:/home/vinay/Desktop/softconsole_watershed/Water-shed/src/platform/mpfs_hal/common/mss_plic.h ****     PLIC_F2M_46_INT_OFFSET           = 151 + OFFSET_TO_MSS_GLOBAL_INTS,
 435:/home/vinay/Desktop/softconsole_watershed/Water-shed/src/platform/mpfs_hal/common/mss_plic.h ****     PLIC_F2M_47_INT_OFFSET           = 152 + OFFSET_TO_MSS_GLOBAL_INTS,
 436:/home/vinay/Desktop/softconsole_watershed/Water-shed/src/platform/mpfs_hal/common/mss_plic.h ****     PLIC_F2M_48_INT_OFFSET           = 153 + OFFSET_TO_MSS_GLOBAL_INTS,
 437:/home/vinay/Desktop/softconsole_watershed/Water-shed/src/platform/mpfs_hal/common/mss_plic.h ****     PLIC_F2M_49_INT_OFFSET           = 154 + OFFSET_TO_MSS_GLOBAL_INTS,
 438:/home/vinay/Desktop/softconsole_watershed/Water-shed/src/platform/mpfs_hal/common/mss_plic.h ****     PLIC_F2M_50_INT_OFFSET           = 155 + OFFSET_TO_MSS_GLOBAL_INTS,
 439:/home/vinay/Desktop/softconsole_watershed/Water-shed/src/platform/mpfs_hal/common/mss_plic.h ****     PLIC_F2M_51_INT_OFFSET           = 156 + OFFSET_TO_MSS_GLOBAL_INTS,
 440:/home/vinay/Desktop/softconsole_watershed/Water-shed/src/platform/mpfs_hal/common/mss_plic.h **** 
 441:/home/vinay/Desktop/softconsole_watershed/Water-shed/src/platform/mpfs_hal/common/mss_plic.h ****     PLIC_F2M_52_INT_OFFSET           = 157 + OFFSET_TO_MSS_GLOBAL_INTS,
 442:/home/vinay/Desktop/softconsole_watershed/Water-shed/src/platform/mpfs_hal/common/mss_plic.h ****     PLIC_F2M_53_INT_OFFSET           = 158 + OFFSET_TO_MSS_GLOBAL_INTS,
 443:/home/vinay/Desktop/softconsole_watershed/Water-shed/src/platform/mpfs_hal/common/mss_plic.h ****     PLIC_F2M_54_INT_OFFSET           = 159 + OFFSET_TO_MSS_GLOBAL_INTS,
 444:/home/vinay/Desktop/softconsole_watershed/Water-shed/src/platform/mpfs_hal/common/mss_plic.h ****     PLIC_F2M_55_INT_OFFSET           = 160 + OFFSET_TO_MSS_GLOBAL_INTS,
 445:/home/vinay/Desktop/softconsole_watershed/Water-shed/src/platform/mpfs_hal/common/mss_plic.h ****     PLIC_F2M_56_INT_OFFSET           = 161 + OFFSET_TO_MSS_GLOBAL_INTS,
 446:/home/vinay/Desktop/softconsole_watershed/Water-shed/src/platform/mpfs_hal/common/mss_plic.h ****     PLIC_F2M_57_INT_OFFSET           = 162 + OFFSET_TO_MSS_GLOBAL_INTS,
 447:/home/vinay/Desktop/softconsole_watershed/Water-shed/src/platform/mpfs_hal/common/mss_plic.h ****     PLIC_F2M_58_INT_OFFSET           = 163 + OFFSET_TO_MSS_GLOBAL_INTS,
 448:/home/vinay/Desktop/softconsole_watershed/Water-shed/src/platform/mpfs_hal/common/mss_plic.h ****     PLIC_F2M_59_INT_OFFSET           = 164 + OFFSET_TO_MSS_GLOBAL_INTS,
 449:/home/vinay/Desktop/softconsole_watershed/Water-shed/src/platform/mpfs_hal/common/mss_plic.h ****     PLIC_F2M_60_INT_OFFSET           = 165 + OFFSET_TO_MSS_GLOBAL_INTS,
 450:/home/vinay/Desktop/softconsole_watershed/Water-shed/src/platform/mpfs_hal/common/mss_plic.h ****     PLIC_F2M_61_INT_OFFSET           = 166 + OFFSET_TO_MSS_GLOBAL_INTS,
 451:/home/vinay/Desktop/softconsole_watershed/Water-shed/src/platform/mpfs_hal/common/mss_plic.h **** 
 452:/home/vinay/Desktop/softconsole_watershed/Water-shed/src/platform/mpfs_hal/common/mss_plic.h ****     PLIC_F2M_62_INT_OFFSET           = 167 + OFFSET_TO_MSS_GLOBAL_INTS,
 453:/home/vinay/Desktop/softconsole_watershed/Water-shed/src/platform/mpfs_hal/common/mss_plic.h ****     PLIC_F2M_63_INT_OFFSET           = 168 + OFFSET_TO_MSS_GLOBAL_INTS,
 454:/home/vinay/Desktop/softconsole_watershed/Water-shed/src/platform/mpfs_hal/common/mss_plic.h **** 
 455:/home/vinay/Desktop/softconsole_watershed/Water-shed/src/platform/mpfs_hal/common/mss_plic.h ****     PLIC_E51_BUS_ERROR_UNIT_OFFSET        = 182,
 456:/home/vinay/Desktop/softconsole_watershed/Water-shed/src/platform/mpfs_hal/common/mss_plic.h ****     PLIC_U54_1_BUS_ERROR_UNIT_OFFSET      = 183,
 457:/home/vinay/Desktop/softconsole_watershed/Water-shed/src/platform/mpfs_hal/common/mss_plic.h ****     PLIC_U54_2_BUS_ERROR_UNIT_OFFSET      = 184,
 458:/home/vinay/Desktop/softconsole_watershed/Water-shed/src/platform/mpfs_hal/common/mss_plic.h ****     PLIC_U54_3_BUS_ERROR_UNIT_OFFSET      = 185,
 459:/home/vinay/Desktop/softconsole_watershed/Water-shed/src/platform/mpfs_hal/common/mss_plic.h ****     PLIC_U54_4_BUS_ERROR_UNIT_OFFSET      = 186
 460:/home/vinay/Desktop/softconsole_watershed/Water-shed/src/platform/mpfs_hal/common/mss_plic.h **** 
 461:/home/vinay/Desktop/softconsole_watershed/Water-shed/src/platform/mpfs_hal/common/mss_plic.h **** } PLIC_IRQn_Type;
 462:/home/vinay/Desktop/softconsole_watershed/Water-shed/src/platform/mpfs_hal/common/mss_plic.h **** 
 463:/home/vinay/Desktop/softconsole_watershed/Water-shed/src/platform/mpfs_hal/common/mss_plic.h **** #define MAX_PLIC_INT PLIC_U54_4_BUS_ERROR_UNIT_OFFSET
 464:/home/vinay/Desktop/softconsole_watershed/Water-shed/src/platform/mpfs_hal/common/mss_plic.h **** 
 465:/home/vinay/Desktop/softconsole_watershed/Water-shed/src/platform/mpfs_hal/common/mss_plic.h **** typedef struct
 466:/home/vinay/Desktop/softconsole_watershed/Water-shed/src/platform/mpfs_hal/common/mss_plic.h **** {
 467:/home/vinay/Desktop/softconsole_watershed/Water-shed/src/platform/mpfs_hal/common/mss_plic.h ****     volatile uint32_t PRIORITY_THRESHOLD;
 468:/home/vinay/Desktop/softconsole_watershed/Water-shed/src/platform/mpfs_hal/common/mss_plic.h ****     volatile uint32_t CLAIM_COMPLETE;
 469:/home/vinay/Desktop/softconsole_watershed/Water-shed/src/platform/mpfs_hal/common/mss_plic.h ****     volatile uint32_t reserved[(0x1000/4)-2];
 470:/home/vinay/Desktop/softconsole_watershed/Water-shed/src/platform/mpfs_hal/common/mss_plic.h **** } IRQ_Target_Type;
 471:/home/vinay/Desktop/softconsole_watershed/Water-shed/src/platform/mpfs_hal/common/mss_plic.h **** 
 472:/home/vinay/Desktop/softconsole_watershed/Water-shed/src/platform/mpfs_hal/common/mss_plic.h **** typedef struct
 473:/home/vinay/Desktop/softconsole_watershed/Water-shed/src/platform/mpfs_hal/common/mss_plic.h **** {
 474:/home/vinay/Desktop/softconsole_watershed/Water-shed/src/platform/mpfs_hal/common/mss_plic.h ****     volatile uint32_t ENABLES[32U];
 475:/home/vinay/Desktop/softconsole_watershed/Water-shed/src/platform/mpfs_hal/common/mss_plic.h **** } Target_Enables_Type;
 476:/home/vinay/Desktop/softconsole_watershed/Water-shed/src/platform/mpfs_hal/common/mss_plic.h **** 
 477:/home/vinay/Desktop/softconsole_watershed/Water-shed/src/platform/mpfs_hal/common/mss_plic.h **** 
 478:/home/vinay/Desktop/softconsole_watershed/Water-shed/src/platform/mpfs_hal/common/mss_plic.h **** #define PLIC_SET_UP_REGISTERS 6U
 479:/home/vinay/Desktop/softconsole_watershed/Water-shed/src/platform/mpfs_hal/common/mss_plic.h **** 
 480:/home/vinay/Desktop/softconsole_watershed/Water-shed/src/platform/mpfs_hal/common/mss_plic.h **** #define PLIC_NUM_SOURCES 187U
 481:/home/vinay/Desktop/softconsole_watershed/Water-shed/src/platform/mpfs_hal/common/mss_plic.h **** 
 482:/home/vinay/Desktop/softconsole_watershed/Water-shed/src/platform/mpfs_hal/common/mss_plic.h **** #define PLIC_NUM_PRIORITIES 7U
 483:/home/vinay/Desktop/softconsole_watershed/Water-shed/src/platform/mpfs_hal/common/mss_plic.h **** #define NUM_CLAIM_REGS      9U
 484:/home/vinay/Desktop/softconsole_watershed/Water-shed/src/platform/mpfs_hal/common/mss_plic.h **** 
 485:/home/vinay/Desktop/softconsole_watershed/Water-shed/src/platform/mpfs_hal/common/mss_plic.h **** 
 486:/home/vinay/Desktop/softconsole_watershed/Water-shed/src/platform/mpfs_hal/common/mss_plic.h **** /* The FU540-C000 has 53 interrupt sources. */
 487:/home/vinay/Desktop/softconsole_watershed/Water-shed/src/platform/mpfs_hal/common/mss_plic.h ****  typedef struct
 488:/home/vinay/Desktop/softconsole_watershed/Water-shed/src/platform/mpfs_hal/common/mss_plic.h **** {
 489:/home/vinay/Desktop/softconsole_watershed/Water-shed/src/platform/mpfs_hal/common/mss_plic.h ****     volatile uint32_t RESERVED0;
 490:/home/vinay/Desktop/softconsole_watershed/Water-shed/src/platform/mpfs_hal/common/mss_plic.h ****     /*-------------------- Source Priority --------------------*/
 491:/home/vinay/Desktop/softconsole_watershed/Water-shed/src/platform/mpfs_hal/common/mss_plic.h ****     volatile uint32_t SOURCE_PRIORITY[PLIC_NUM_SOURCES];
 492:/home/vinay/Desktop/softconsole_watershed/Water-shed/src/platform/mpfs_hal/common/mss_plic.h ****     volatile uint32_t RESERVED1[(0x1000 / 4) - (PLIC_NUM_SOURCES + 1)];
 493:/home/vinay/Desktop/softconsole_watershed/Water-shed/src/platform/mpfs_hal/common/mss_plic.h ****     /*-------------------- Pending array --------------------*/
 494:/home/vinay/Desktop/softconsole_watershed/Water-shed/src/platform/mpfs_hal/common/mss_plic.h ****     volatile const uint32_t PENDING_ARRAY[PLIC_SET_UP_REGISTERS];
 495:/home/vinay/Desktop/softconsole_watershed/Water-shed/src/platform/mpfs_hal/common/mss_plic.h ****     volatile uint32_t RESERVED2[(0x1000/4) - PLIC_SET_UP_REGISTERS];
 496:/home/vinay/Desktop/softconsole_watershed/Water-shed/src/platform/mpfs_hal/common/mss_plic.h **** 
 497:/home/vinay/Desktop/softconsole_watershed/Water-shed/src/platform/mpfs_hal/common/mss_plic.h ****     /*-----------------Hart0 Mode Enables--------------------*/
 498:/home/vinay/Desktop/softconsole_watershed/Water-shed/src/platform/mpfs_hal/common/mss_plic.h ****     volatile uint32_t HART0_MMODE_ENA[PLIC_SET_UP_REGISTERS];
 499:/home/vinay/Desktop/softconsole_watershed/Water-shed/src/platform/mpfs_hal/common/mss_plic.h ****     volatile uint32_t RESERVED3[(0x80/4) - PLIC_SET_UP_REGISTERS];
 500:/home/vinay/Desktop/softconsole_watershed/Water-shed/src/platform/mpfs_hal/common/mss_plic.h **** 
 501:/home/vinay/Desktop/softconsole_watershed/Water-shed/src/platform/mpfs_hal/common/mss_plic.h ****     /*-----------------Hart1 Mode Enables--------------------*/
 502:/home/vinay/Desktop/softconsole_watershed/Water-shed/src/platform/mpfs_hal/common/mss_plic.h ****     volatile uint32_t HART1_MMODE_ENA[PLIC_SET_UP_REGISTERS];
 503:/home/vinay/Desktop/softconsole_watershed/Water-shed/src/platform/mpfs_hal/common/mss_plic.h ****     volatile uint32_t RESERVED4a[(0x80/4) - PLIC_SET_UP_REGISTERS];
 504:/home/vinay/Desktop/softconsole_watershed/Water-shed/src/platform/mpfs_hal/common/mss_plic.h ****     volatile uint32_t HART1_SMODE_ENA[PLIC_SET_UP_REGISTERS];
 505:/home/vinay/Desktop/softconsole_watershed/Water-shed/src/platform/mpfs_hal/common/mss_plic.h ****     volatile uint32_t RESERVED4[(0x80/4) - PLIC_SET_UP_REGISTERS];
 506:/home/vinay/Desktop/softconsole_watershed/Water-shed/src/platform/mpfs_hal/common/mss_plic.h **** 
 507:/home/vinay/Desktop/softconsole_watershed/Water-shed/src/platform/mpfs_hal/common/mss_plic.h ****     /*-----------------Hart2 Mode Enables--------------------*/
 508:/home/vinay/Desktop/softconsole_watershed/Water-shed/src/platform/mpfs_hal/common/mss_plic.h ****     volatile uint32_t HART2_MMODE_ENA[PLIC_SET_UP_REGISTERS];
 509:/home/vinay/Desktop/softconsole_watershed/Water-shed/src/platform/mpfs_hal/common/mss_plic.h ****     volatile uint32_t RESERVED5a[(0x80/4) - PLIC_SET_UP_REGISTERS];
 510:/home/vinay/Desktop/softconsole_watershed/Water-shed/src/platform/mpfs_hal/common/mss_plic.h ****     volatile uint32_t HART2_SMODE_ENA[PLIC_SET_UP_REGISTERS];
 511:/home/vinay/Desktop/softconsole_watershed/Water-shed/src/platform/mpfs_hal/common/mss_plic.h ****     volatile uint32_t RESERVED5[(0x80/4) - PLIC_SET_UP_REGISTERS];
 512:/home/vinay/Desktop/softconsole_watershed/Water-shed/src/platform/mpfs_hal/common/mss_plic.h **** 
 513:/home/vinay/Desktop/softconsole_watershed/Water-shed/src/platform/mpfs_hal/common/mss_plic.h ****     /*-----------------Hart3 Mode Enables--------------------*/
 514:/home/vinay/Desktop/softconsole_watershed/Water-shed/src/platform/mpfs_hal/common/mss_plic.h ****     volatile uint32_t HART3_MMODE_ENA[PLIC_SET_UP_REGISTERS];
 515:/home/vinay/Desktop/softconsole_watershed/Water-shed/src/platform/mpfs_hal/common/mss_plic.h ****     volatile uint32_t RESERVED6a[(0x80/4) - PLIC_SET_UP_REGISTERS];
 516:/home/vinay/Desktop/softconsole_watershed/Water-shed/src/platform/mpfs_hal/common/mss_plic.h ****     volatile uint32_t HART3_SMODE_ENA[PLIC_SET_UP_REGISTERS];
 517:/home/vinay/Desktop/softconsole_watershed/Water-shed/src/platform/mpfs_hal/common/mss_plic.h ****     volatile uint32_t RESERVED6[(0x80/4) - PLIC_SET_UP_REGISTERS];
 518:/home/vinay/Desktop/softconsole_watershed/Water-shed/src/platform/mpfs_hal/common/mss_plic.h **** 
 519:/home/vinay/Desktop/softconsole_watershed/Water-shed/src/platform/mpfs_hal/common/mss_plic.h ****     /*-----------------Hart4 Mode Enables--------------------*/
 520:/home/vinay/Desktop/softconsole_watershed/Water-shed/src/platform/mpfs_hal/common/mss_plic.h ****     volatile uint32_t HART4_MMODE_ENA[PLIC_SET_UP_REGISTERS];
 521:/home/vinay/Desktop/softconsole_watershed/Water-shed/src/platform/mpfs_hal/common/mss_plic.h ****     volatile uint32_t RESERVED7a[(0x80/4) - PLIC_SET_UP_REGISTERS];
 522:/home/vinay/Desktop/softconsole_watershed/Water-shed/src/platform/mpfs_hal/common/mss_plic.h ****     volatile uint32_t HART4_SMODE_ENA[PLIC_SET_UP_REGISTERS];
 523:/home/vinay/Desktop/softconsole_watershed/Water-shed/src/platform/mpfs_hal/common/mss_plic.h ****     volatile uint32_t RESERVED7[(0x80/4) - PLIC_SET_UP_REGISTERS];
 524:/home/vinay/Desktop/softconsole_watershed/Water-shed/src/platform/mpfs_hal/common/mss_plic.h **** 
 525:/home/vinay/Desktop/softconsole_watershed/Water-shed/src/platform/mpfs_hal/common/mss_plic.h ****     volatile uint32_t RESERVED8[(0x0C200000 - 0x0C002480)/4];
 526:/home/vinay/Desktop/softconsole_watershed/Water-shed/src/platform/mpfs_hal/common/mss_plic.h **** 
 527:/home/vinay/Desktop/softconsole_watershed/Water-shed/src/platform/mpfs_hal/common/mss_plic.h ****     /*--- Target Priority threshold and claim/complete---------*/
 528:/home/vinay/Desktop/softconsole_watershed/Water-shed/src/platform/mpfs_hal/common/mss_plic.h ****     IRQ_Target_Type TARGET[NUM_CLAIM_REGS];   /* See PLIC Register Map or
 529:/home/vinay/Desktop/softconsole_watershed/Water-shed/src/platform/mpfs_hal/common/mss_plic.h ****                                                  TARGET_OFFSET defines below
 530:/home/vinay/Desktop/softconsole_watershed/Water-shed/src/platform/mpfs_hal/common/mss_plic.h ****                                                  for offset details */
 531:/home/vinay/Desktop/softconsole_watershed/Water-shed/src/platform/mpfs_hal/common/mss_plic.h **** 
 532:/home/vinay/Desktop/softconsole_watershed/Water-shed/src/platform/mpfs_hal/common/mss_plic.h **** } PLIC_Type;
 533:/home/vinay/Desktop/softconsole_watershed/Water-shed/src/platform/mpfs_hal/common/mss_plic.h **** 
 534:/home/vinay/Desktop/softconsole_watershed/Water-shed/src/platform/mpfs_hal/common/mss_plic.h **** #define TARGET_OFFSET_HART0_M 0U
 535:/home/vinay/Desktop/softconsole_watershed/Water-shed/src/platform/mpfs_hal/common/mss_plic.h **** #define TARGET_OFFSET_HART1_M 1U
 536:/home/vinay/Desktop/softconsole_watershed/Water-shed/src/platform/mpfs_hal/common/mss_plic.h **** #define TARGET_OFFSET_HART1_S 2U
 537:/home/vinay/Desktop/softconsole_watershed/Water-shed/src/platform/mpfs_hal/common/mss_plic.h **** #define TARGET_OFFSET_HART2_M 3U
 538:/home/vinay/Desktop/softconsole_watershed/Water-shed/src/platform/mpfs_hal/common/mss_plic.h **** #define TARGET_OFFSET_HART2_S 4U
 539:/home/vinay/Desktop/softconsole_watershed/Water-shed/src/platform/mpfs_hal/common/mss_plic.h **** #define TARGET_OFFSET_HART3_M 5U
 540:/home/vinay/Desktop/softconsole_watershed/Water-shed/src/platform/mpfs_hal/common/mss_plic.h **** #define TARGET_OFFSET_HART3_S 6U
 541:/home/vinay/Desktop/softconsole_watershed/Water-shed/src/platform/mpfs_hal/common/mss_plic.h **** #define TARGET_OFFSET_HART4_M 7U
 542:/home/vinay/Desktop/softconsole_watershed/Water-shed/src/platform/mpfs_hal/common/mss_plic.h **** #define TARGET_OFFSET_HART4_S 8U
 543:/home/vinay/Desktop/softconsole_watershed/Water-shed/src/platform/mpfs_hal/common/mss_plic.h **** 
 544:/home/vinay/Desktop/softconsole_watershed/Water-shed/src/platform/mpfs_hal/common/mss_plic.h **** extern const unsigned long plic_hart_lookup[5U];
 545:/home/vinay/Desktop/softconsole_watershed/Water-shed/src/platform/mpfs_hal/common/mss_plic.h **** 
 546:/home/vinay/Desktop/softconsole_watershed/Water-shed/src/platform/mpfs_hal/common/mss_plic.h **** /***************************************************************************//**
 547:/home/vinay/Desktop/softconsole_watershed/Water-shed/src/platform/mpfs_hal/common/mss_plic.h ****  * PLIC: Platform Level Interrupt Controller
 548:/home/vinay/Desktop/softconsole_watershed/Water-shed/src/platform/mpfs_hal/common/mss_plic.h ****  */
 549:/home/vinay/Desktop/softconsole_watershed/Water-shed/src/platform/mpfs_hal/common/mss_plic.h **** #define PLIC_BASE_ADDR 0x0C000000UL
 550:/home/vinay/Desktop/softconsole_watershed/Water-shed/src/platform/mpfs_hal/common/mss_plic.h **** 
 551:/home/vinay/Desktop/softconsole_watershed/Water-shed/src/platform/mpfs_hal/common/mss_plic.h **** #define PLIC    ((PLIC_Type * const)PLIC_BASE_ADDR)
 552:/home/vinay/Desktop/softconsole_watershed/Water-shed/src/platform/mpfs_hal/common/mss_plic.h **** 
 553:/home/vinay/Desktop/softconsole_watershed/Water-shed/src/platform/mpfs_hal/common/mss_plic.h **** /*-------------------------------------------------------------------------*//**
 554:/home/vinay/Desktop/softconsole_watershed/Water-shed/src/platform/mpfs_hal/common/mss_plic.h ****  * The function PLIC_init() initializes the PLIC controller and enables the
 555:/home/vinay/Desktop/softconsole_watershed/Water-shed/src/platform/mpfs_hal/common/mss_plic.h ****  * global external interrupt bit.
 556:/home/vinay/Desktop/softconsole_watershed/Water-shed/src/platform/mpfs_hal/common/mss_plic.h ****  */
 557:/home/vinay/Desktop/softconsole_watershed/Water-shed/src/platform/mpfs_hal/common/mss_plic.h **** 
 558:/home/vinay/Desktop/softconsole_watershed/Water-shed/src/platform/mpfs_hal/common/mss_plic.h **** /*-----------------Hart Mode Enables--------------------*/
 559:/home/vinay/Desktop/softconsole_watershed/Water-shed/src/platform/mpfs_hal/common/mss_plic.h **** 
 560:/home/vinay/Desktop/softconsole_watershed/Water-shed/src/platform/mpfs_hal/common/mss_plic.h **** static inline void PLIC_init(void)
 561:/home/vinay/Desktop/softconsole_watershed/Water-shed/src/platform/mpfs_hal/common/mss_plic.h **** {
 562:/home/vinay/Desktop/softconsole_watershed/Water-shed/src/platform/mpfs_hal/common/mss_plic.h ****     uint32_t inc;
 563:/home/vinay/Desktop/softconsole_watershed/Water-shed/src/platform/mpfs_hal/common/mss_plic.h ****     uint64_t hart_id  = read_csr(mhartid);
 564:/home/vinay/Desktop/softconsole_watershed/Water-shed/src/platform/mpfs_hal/common/mss_plic.h **** 
 565:/home/vinay/Desktop/softconsole_watershed/Water-shed/src/platform/mpfs_hal/common/mss_plic.h ****     /* Disable all interrupts for the current hart. */
 566:/home/vinay/Desktop/softconsole_watershed/Water-shed/src/platform/mpfs_hal/common/mss_plic.h ****     switch(hart_id)
 567:/home/vinay/Desktop/softconsole_watershed/Water-shed/src/platform/mpfs_hal/common/mss_plic.h ****     {
 568:/home/vinay/Desktop/softconsole_watershed/Water-shed/src/platform/mpfs_hal/common/mss_plic.h ****         case 0:
 569:/home/vinay/Desktop/softconsole_watershed/Water-shed/src/platform/mpfs_hal/common/mss_plic.h ****             for(inc = 0UL; inc < PLIC_SET_UP_REGISTERS; inc++)
 570:/home/vinay/Desktop/softconsole_watershed/Water-shed/src/platform/mpfs_hal/common/mss_plic.h ****             {
 571:/home/vinay/Desktop/softconsole_watershed/Water-shed/src/platform/mpfs_hal/common/mss_plic.h ****                 PLIC->HART0_MMODE_ENA[inc] = 0U;
 572:/home/vinay/Desktop/softconsole_watershed/Water-shed/src/platform/mpfs_hal/common/mss_plic.h ****             }
 573:/home/vinay/Desktop/softconsole_watershed/Water-shed/src/platform/mpfs_hal/common/mss_plic.h **** 
 574:/home/vinay/Desktop/softconsole_watershed/Water-shed/src/platform/mpfs_hal/common/mss_plic.h ****             /* Set the threshold to zero.
 575:/home/vinay/Desktop/softconsole_watershed/Water-shed/src/platform/mpfs_hal/common/mss_plic.h ****              * PLIC provides context based threshold register for the settings of a
 576:/home/vinay/Desktop/softconsole_watershed/Water-shed/src/platform/mpfs_hal/common/mss_plic.h ****              * interrupt priority threshold of each context. The threshold register
 577:/home/vinay/Desktop/softconsole_watershed/Water-shed/src/platform/mpfs_hal/common/mss_plic.h ****              * is a WARL field. The PLIC will mask all PLIC interrupts of a priority
 578:/home/vinay/Desktop/softconsole_watershed/Water-shed/src/platform/mpfs_hal/common/mss_plic.h ****              * less than or equal to threshold. For example, a threshold value of zero
 579:/home/vinay/Desktop/softconsole_watershed/Water-shed/src/platform/mpfs_hal/common/mss_plic.h ****              * permits all interrupts with non-zero priority.*/
 580:/home/vinay/Desktop/softconsole_watershed/Water-shed/src/platform/mpfs_hal/common/mss_plic.h **** 
 581:/home/vinay/Desktop/softconsole_watershed/Water-shed/src/platform/mpfs_hal/common/mss_plic.h ****             PLIC->TARGET[TARGET_OFFSET_HART0_M].PRIORITY_THRESHOLD  = 0U;
 582:/home/vinay/Desktop/softconsole_watershed/Water-shed/src/platform/mpfs_hal/common/mss_plic.h ****             break;
 583:/home/vinay/Desktop/softconsole_watershed/Water-shed/src/platform/mpfs_hal/common/mss_plic.h ****         case 1:
 584:/home/vinay/Desktop/softconsole_watershed/Water-shed/src/platform/mpfs_hal/common/mss_plic.h ****             for(inc = 0UL; inc < PLIC_SET_UP_REGISTERS; inc++)
 585:/home/vinay/Desktop/softconsole_watershed/Water-shed/src/platform/mpfs_hal/common/mss_plic.h ****             {
 586:/home/vinay/Desktop/softconsole_watershed/Water-shed/src/platform/mpfs_hal/common/mss_plic.h ****                 PLIC->HART1_MMODE_ENA[inc] = 0U;
 587:/home/vinay/Desktop/softconsole_watershed/Water-shed/src/platform/mpfs_hal/common/mss_plic.h ****                 PLIC->HART1_SMODE_ENA[inc] = 0U;
 588:/home/vinay/Desktop/softconsole_watershed/Water-shed/src/platform/mpfs_hal/common/mss_plic.h ****             }
 589:/home/vinay/Desktop/softconsole_watershed/Water-shed/src/platform/mpfs_hal/common/mss_plic.h **** 
 590:/home/vinay/Desktop/softconsole_watershed/Water-shed/src/platform/mpfs_hal/common/mss_plic.h ****             PLIC->TARGET[TARGET_OFFSET_HART1_M].PRIORITY_THRESHOLD  = 0U;
 591:/home/vinay/Desktop/softconsole_watershed/Water-shed/src/platform/mpfs_hal/common/mss_plic.h ****             /* Disable supervisor level */
 592:/home/vinay/Desktop/softconsole_watershed/Water-shed/src/platform/mpfs_hal/common/mss_plic.h ****             PLIC->TARGET[TARGET_OFFSET_HART1_S].PRIORITY_THRESHOLD  = 7U;
 593:/home/vinay/Desktop/softconsole_watershed/Water-shed/src/platform/mpfs_hal/common/mss_plic.h ****             break;
 594:/home/vinay/Desktop/softconsole_watershed/Water-shed/src/platform/mpfs_hal/common/mss_plic.h ****         case 2:
 595:/home/vinay/Desktop/softconsole_watershed/Water-shed/src/platform/mpfs_hal/common/mss_plic.h ****             for(inc = 0UL; inc < PLIC_SET_UP_REGISTERS; inc++)
 596:/home/vinay/Desktop/softconsole_watershed/Water-shed/src/platform/mpfs_hal/common/mss_plic.h ****             {
 597:/home/vinay/Desktop/softconsole_watershed/Water-shed/src/platform/mpfs_hal/common/mss_plic.h ****                 PLIC->HART2_MMODE_ENA[inc] = 0U;
 598:/home/vinay/Desktop/softconsole_watershed/Water-shed/src/platform/mpfs_hal/common/mss_plic.h ****                 PLIC->HART2_SMODE_ENA[inc] = 0U;
 599:/home/vinay/Desktop/softconsole_watershed/Water-shed/src/platform/mpfs_hal/common/mss_plic.h ****             }
 600:/home/vinay/Desktop/softconsole_watershed/Water-shed/src/platform/mpfs_hal/common/mss_plic.h **** 
 601:/home/vinay/Desktop/softconsole_watershed/Water-shed/src/platform/mpfs_hal/common/mss_plic.h ****             PLIC->TARGET[TARGET_OFFSET_HART2_M].PRIORITY_THRESHOLD  = 0U;
 602:/home/vinay/Desktop/softconsole_watershed/Water-shed/src/platform/mpfs_hal/common/mss_plic.h ****             /* Disable supervisor level */
 603:/home/vinay/Desktop/softconsole_watershed/Water-shed/src/platform/mpfs_hal/common/mss_plic.h ****             PLIC->TARGET[TARGET_OFFSET_HART2_S].PRIORITY_THRESHOLD  = 7U;
 604:/home/vinay/Desktop/softconsole_watershed/Water-shed/src/platform/mpfs_hal/common/mss_plic.h ****             break;
 605:/home/vinay/Desktop/softconsole_watershed/Water-shed/src/platform/mpfs_hal/common/mss_plic.h ****         case 3:
 606:/home/vinay/Desktop/softconsole_watershed/Water-shed/src/platform/mpfs_hal/common/mss_plic.h ****             for(inc = 0UL; inc < PLIC_SET_UP_REGISTERS; inc++)
 607:/home/vinay/Desktop/softconsole_watershed/Water-shed/src/platform/mpfs_hal/common/mss_plic.h ****             {
 608:/home/vinay/Desktop/softconsole_watershed/Water-shed/src/platform/mpfs_hal/common/mss_plic.h ****                 PLIC->HART3_MMODE_ENA[inc] = 0U;
 609:/home/vinay/Desktop/softconsole_watershed/Water-shed/src/platform/mpfs_hal/common/mss_plic.h ****                 PLIC->HART3_SMODE_ENA[inc] = 0U;
 610:/home/vinay/Desktop/softconsole_watershed/Water-shed/src/platform/mpfs_hal/common/mss_plic.h ****             }
 611:/home/vinay/Desktop/softconsole_watershed/Water-shed/src/platform/mpfs_hal/common/mss_plic.h **** 
 612:/home/vinay/Desktop/softconsole_watershed/Water-shed/src/platform/mpfs_hal/common/mss_plic.h ****             PLIC->TARGET[TARGET_OFFSET_HART3_M].PRIORITY_THRESHOLD  = 0U;
 613:/home/vinay/Desktop/softconsole_watershed/Water-shed/src/platform/mpfs_hal/common/mss_plic.h ****             /* Disable supervisor level */
 614:/home/vinay/Desktop/softconsole_watershed/Water-shed/src/platform/mpfs_hal/common/mss_plic.h ****             PLIC->TARGET[TARGET_OFFSET_HART3_S].PRIORITY_THRESHOLD  = 7U;
 615:/home/vinay/Desktop/softconsole_watershed/Water-shed/src/platform/mpfs_hal/common/mss_plic.h ****             break;
 616:/home/vinay/Desktop/softconsole_watershed/Water-shed/src/platform/mpfs_hal/common/mss_plic.h ****         case 4:
 617:/home/vinay/Desktop/softconsole_watershed/Water-shed/src/platform/mpfs_hal/common/mss_plic.h ****             for(inc = 0UL; inc < PLIC_SET_UP_REGISTERS; inc++)
 618:/home/vinay/Desktop/softconsole_watershed/Water-shed/src/platform/mpfs_hal/common/mss_plic.h ****             {
 619:/home/vinay/Desktop/softconsole_watershed/Water-shed/src/platform/mpfs_hal/common/mss_plic.h ****                 PLIC->HART4_MMODE_ENA[inc] = 0U;
 620:/home/vinay/Desktop/softconsole_watershed/Water-shed/src/platform/mpfs_hal/common/mss_plic.h ****                 PLIC->HART4_SMODE_ENA[inc] = 0U;
 621:/home/vinay/Desktop/softconsole_watershed/Water-shed/src/platform/mpfs_hal/common/mss_plic.h ****             }
 622:/home/vinay/Desktop/softconsole_watershed/Water-shed/src/platform/mpfs_hal/common/mss_plic.h **** 
 623:/home/vinay/Desktop/softconsole_watershed/Water-shed/src/platform/mpfs_hal/common/mss_plic.h ****             PLIC->TARGET[TARGET_OFFSET_HART4_M].PRIORITY_THRESHOLD  = 0U;
 624:/home/vinay/Desktop/softconsole_watershed/Water-shed/src/platform/mpfs_hal/common/mss_plic.h ****             /* Disable supervisor level */
 625:/home/vinay/Desktop/softconsole_watershed/Water-shed/src/platform/mpfs_hal/common/mss_plic.h ****             PLIC->TARGET[TARGET_OFFSET_HART4_S].PRIORITY_THRESHOLD  = 7U;
 626:/home/vinay/Desktop/softconsole_watershed/Water-shed/src/platform/mpfs_hal/common/mss_plic.h ****             break;
 627:/home/vinay/Desktop/softconsole_watershed/Water-shed/src/platform/mpfs_hal/common/mss_plic.h ****         default:
 628:/home/vinay/Desktop/softconsole_watershed/Water-shed/src/platform/mpfs_hal/common/mss_plic.h ****             break;
 629:/home/vinay/Desktop/softconsole_watershed/Water-shed/src/platform/mpfs_hal/common/mss_plic.h ****     }
 630:/home/vinay/Desktop/softconsole_watershed/Water-shed/src/platform/mpfs_hal/common/mss_plic.h **** 
 631:/home/vinay/Desktop/softconsole_watershed/Water-shed/src/platform/mpfs_hal/common/mss_plic.h ****     /* Enable  PLIC_MMUARTine external interrupts. */
 632:/home/vinay/Desktop/softconsole_watershed/Water-shed/src/platform/mpfs_hal/common/mss_plic.h ****     set_csr(mie, MIP_MEIP);
 633:/home/vinay/Desktop/softconsole_watershed/Water-shed/src/platform/mpfs_hal/common/mss_plic.h **** }
 634:/home/vinay/Desktop/softconsole_watershed/Water-shed/src/platform/mpfs_hal/common/mss_plic.h **** 
 635:/home/vinay/Desktop/softconsole_watershed/Water-shed/src/platform/mpfs_hal/common/mss_plic.h **** 
 636:/home/vinay/Desktop/softconsole_watershed/Water-shed/src/platform/mpfs_hal/common/mss_plic.h **** 
 637:/home/vinay/Desktop/softconsole_watershed/Water-shed/src/platform/mpfs_hal/common/mss_plic.h **** /***************************************************************************//**
 638:/home/vinay/Desktop/softconsole_watershed/Water-shed/src/platform/mpfs_hal/common/mss_plic.h ****  * The function PLIC_EnableIRQ() enables the external interrupt for the
 639:/home/vinay/Desktop/softconsole_watershed/Water-shed/src/platform/mpfs_hal/common/mss_plic.h ****  * interrupt number indicated by the parameter IRQn.
 640:/home/vinay/Desktop/softconsole_watershed/Water-shed/src/platform/mpfs_hal/common/mss_plic.h ****  */
 641:/home/vinay/Desktop/softconsole_watershed/Water-shed/src/platform/mpfs_hal/common/mss_plic.h **** static inline void PLIC_EnableIRQ(PLIC_IRQn_Type IRQn)
 642:/home/vinay/Desktop/softconsole_watershed/Water-shed/src/platform/mpfs_hal/common/mss_plic.h **** {
 643:/home/vinay/Desktop/softconsole_watershed/Water-shed/src/platform/mpfs_hal/common/mss_plic.h ****     uint32_t current;
 644:/home/vinay/Desktop/softconsole_watershed/Water-shed/src/platform/mpfs_hal/common/mss_plic.h ****     uint64_t hart_id  = read_csr(mhartid);
 645:/home/vinay/Desktop/softconsole_watershed/Water-shed/src/platform/mpfs_hal/common/mss_plic.h **** 
 646:/home/vinay/Desktop/softconsole_watershed/Water-shed/src/platform/mpfs_hal/common/mss_plic.h ****     switch(hart_id)
 647:/home/vinay/Desktop/softconsole_watershed/Water-shed/src/platform/mpfs_hal/common/mss_plic.h ****     {
 648:/home/vinay/Desktop/softconsole_watershed/Water-shed/src/platform/mpfs_hal/common/mss_plic.h ****         case 0:
 649:/home/vinay/Desktop/softconsole_watershed/Water-shed/src/platform/mpfs_hal/common/mss_plic.h ****             current  = PLIC->HART0_MMODE_ENA[IRQn / 32U];
 650:/home/vinay/Desktop/softconsole_watershed/Water-shed/src/platform/mpfs_hal/common/mss_plic.h ****             current |= (uint32_t)1 << (IRQn % 32U);
 651:/home/vinay/Desktop/softconsole_watershed/Water-shed/src/platform/mpfs_hal/common/mss_plic.h ****             PLIC->HART0_MMODE_ENA[IRQn / 32U]  = current;
 652:/home/vinay/Desktop/softconsole_watershed/Water-shed/src/platform/mpfs_hal/common/mss_plic.h ****             break;
 653:/home/vinay/Desktop/softconsole_watershed/Water-shed/src/platform/mpfs_hal/common/mss_plic.h ****         case 1:
 654:/home/vinay/Desktop/softconsole_watershed/Water-shed/src/platform/mpfs_hal/common/mss_plic.h ****             current  = PLIC->HART1_MMODE_ENA[IRQn / 32U];
 655:/home/vinay/Desktop/softconsole_watershed/Water-shed/src/platform/mpfs_hal/common/mss_plic.h ****             current |= (uint32_t)1 << (IRQn % 32U);
 656:/home/vinay/Desktop/softconsole_watershed/Water-shed/src/platform/mpfs_hal/common/mss_plic.h ****             PLIC->HART1_MMODE_ENA[IRQn / 32U]  = current;
 657:/home/vinay/Desktop/softconsole_watershed/Water-shed/src/platform/mpfs_hal/common/mss_plic.h ****             break;
 658:/home/vinay/Desktop/softconsole_watershed/Water-shed/src/platform/mpfs_hal/common/mss_plic.h ****         case 2:
 659:/home/vinay/Desktop/softconsole_watershed/Water-shed/src/platform/mpfs_hal/common/mss_plic.h ****             current  = PLIC->HART2_MMODE_ENA[IRQn / 32U];
 660:/home/vinay/Desktop/softconsole_watershed/Water-shed/src/platform/mpfs_hal/common/mss_plic.h ****             current |= (uint32_t)1 << (IRQn % 32U);
 661:/home/vinay/Desktop/softconsole_watershed/Water-shed/src/platform/mpfs_hal/common/mss_plic.h ****             PLIC->HART2_MMODE_ENA[IRQn / 32U]  = current;
 662:/home/vinay/Desktop/softconsole_watershed/Water-shed/src/platform/mpfs_hal/common/mss_plic.h ****             break;
 663:/home/vinay/Desktop/softconsole_watershed/Water-shed/src/platform/mpfs_hal/common/mss_plic.h ****         case 3:
 664:/home/vinay/Desktop/softconsole_watershed/Water-shed/src/platform/mpfs_hal/common/mss_plic.h ****             current  = PLIC->HART3_MMODE_ENA[IRQn / 32U];
 665:/home/vinay/Desktop/softconsole_watershed/Water-shed/src/platform/mpfs_hal/common/mss_plic.h ****             current |= (uint32_t)1 << (IRQn % 32U);
 666:/home/vinay/Desktop/softconsole_watershed/Water-shed/src/platform/mpfs_hal/common/mss_plic.h ****             PLIC->HART3_MMODE_ENA[IRQn / 32U]  = current;
 667:/home/vinay/Desktop/softconsole_watershed/Water-shed/src/platform/mpfs_hal/common/mss_plic.h ****             break;
 668:/home/vinay/Desktop/softconsole_watershed/Water-shed/src/platform/mpfs_hal/common/mss_plic.h ****         case 4:
 669:/home/vinay/Desktop/softconsole_watershed/Water-shed/src/platform/mpfs_hal/common/mss_plic.h ****             current  = PLIC->HART4_MMODE_ENA[IRQn / 32U];
 670:/home/vinay/Desktop/softconsole_watershed/Water-shed/src/platform/mpfs_hal/common/mss_plic.h ****             current |= (uint32_t)1 << (IRQn % 32U);
 671:/home/vinay/Desktop/softconsole_watershed/Water-shed/src/platform/mpfs_hal/common/mss_plic.h ****             PLIC->HART4_MMODE_ENA[IRQn / 32U]  = current;
 672:/home/vinay/Desktop/softconsole_watershed/Water-shed/src/platform/mpfs_hal/common/mss_plic.h ****             break;
 673:/home/vinay/Desktop/softconsole_watershed/Water-shed/src/platform/mpfs_hal/common/mss_plic.h ****         default:
 674:/home/vinay/Desktop/softconsole_watershed/Water-shed/src/platform/mpfs_hal/common/mss_plic.h ****             break;
 675:/home/vinay/Desktop/softconsole_watershed/Water-shed/src/platform/mpfs_hal/common/mss_plic.h ****     }
 676:/home/vinay/Desktop/softconsole_watershed/Water-shed/src/platform/mpfs_hal/common/mss_plic.h **** }
 677:/home/vinay/Desktop/softconsole_watershed/Water-shed/src/platform/mpfs_hal/common/mss_plic.h **** 
 678:/home/vinay/Desktop/softconsole_watershed/Water-shed/src/platform/mpfs_hal/common/mss_plic.h **** /***************************************************************************//**
 679:/home/vinay/Desktop/softconsole_watershed/Water-shed/src/platform/mpfs_hal/common/mss_plic.h ****  * The function PLIC_DisableIRQ() disables the external interrupt for the
 680:/home/vinay/Desktop/softconsole_watershed/Water-shed/src/platform/mpfs_hal/common/mss_plic.h ****  * interrupt number indicated by the parameter IRQn.
 681:/home/vinay/Desktop/softconsole_watershed/Water-shed/src/platform/mpfs_hal/common/mss_plic.h **** 
 682:/home/vinay/Desktop/softconsole_watershed/Water-shed/src/platform/mpfs_hal/common/mss_plic.h ****  * NOTE:
 683:/home/vinay/Desktop/softconsole_watershed/Water-shed/src/platform/mpfs_hal/common/mss_plic.h ****  *     This function can be used to disable the external interrupt from outside
 684:/home/vinay/Desktop/softconsole_watershed/Water-shed/src/platform/mpfs_hal/common/mss_plic.h ****  *     external interrupt handler function.
 685:/home/vinay/Desktop/softconsole_watershed/Water-shed/src/platform/mpfs_hal/common/mss_plic.h ****  *     This function MUST NOT be used from within the External Interrupt
 686:/home/vinay/Desktop/softconsole_watershed/Water-shed/src/platform/mpfs_hal/common/mss_plic.h ****  *     handler.
 687:/home/vinay/Desktop/softconsole_watershed/Water-shed/src/platform/mpfs_hal/common/mss_plic.h ****  *     If you wish to disable the external interrupt while the interrupt handler
 688:/home/vinay/Desktop/softconsole_watershed/Water-shed/src/platform/mpfs_hal/common/mss_plic.h ****  *     for that external interrupt is executing then you must use the return
 689:/home/vinay/Desktop/softconsole_watershed/Water-shed/src/platform/mpfs_hal/common/mss_plic.h ****  *     value EXT_IRQ_DISABLE to return from the extern interrupt handler.
 690:/home/vinay/Desktop/softconsole_watershed/Water-shed/src/platform/mpfs_hal/common/mss_plic.h ****  */
 691:/home/vinay/Desktop/softconsole_watershed/Water-shed/src/platform/mpfs_hal/common/mss_plic.h **** static inline void PLIC_DisableIRQ(PLIC_IRQn_Type IRQn)
 692:/home/vinay/Desktop/softconsole_watershed/Water-shed/src/platform/mpfs_hal/common/mss_plic.h **** {
 693:/home/vinay/Desktop/softconsole_watershed/Water-shed/src/platform/mpfs_hal/common/mss_plic.h ****     uint32_t current;
 694:/home/vinay/Desktop/softconsole_watershed/Water-shed/src/platform/mpfs_hal/common/mss_plic.h ****     uint64_t hart_id  = read_csr(mhartid);
 695:/home/vinay/Desktop/softconsole_watershed/Water-shed/src/platform/mpfs_hal/common/mss_plic.h **** 
 696:/home/vinay/Desktop/softconsole_watershed/Water-shed/src/platform/mpfs_hal/common/mss_plic.h ****     switch(hart_id)
 697:/home/vinay/Desktop/softconsole_watershed/Water-shed/src/platform/mpfs_hal/common/mss_plic.h ****     {
 698:/home/vinay/Desktop/softconsole_watershed/Water-shed/src/platform/mpfs_hal/common/mss_plic.h ****         case 0:
 699:/home/vinay/Desktop/softconsole_watershed/Water-shed/src/platform/mpfs_hal/common/mss_plic.h ****             current = PLIC->HART0_MMODE_ENA[IRQn / 32U];
 700:/home/vinay/Desktop/softconsole_watershed/Water-shed/src/platform/mpfs_hal/common/mss_plic.h ****             current &= ~((uint32_t)1 << (IRQn % 32U));
 701:/home/vinay/Desktop/softconsole_watershed/Water-shed/src/platform/mpfs_hal/common/mss_plic.h ****             PLIC->HART0_MMODE_ENA[IRQn / 32U] = current;
 702:/home/vinay/Desktop/softconsole_watershed/Water-shed/src/platform/mpfs_hal/common/mss_plic.h ****             break;
 703:/home/vinay/Desktop/softconsole_watershed/Water-shed/src/platform/mpfs_hal/common/mss_plic.h ****         case 1:
 704:/home/vinay/Desktop/softconsole_watershed/Water-shed/src/platform/mpfs_hal/common/mss_plic.h ****             current = PLIC->HART1_MMODE_ENA[IRQn / 32U];
 705:/home/vinay/Desktop/softconsole_watershed/Water-shed/src/platform/mpfs_hal/common/mss_plic.h ****             current &= ~((uint32_t)1 << (IRQn % 32U));
 706:/home/vinay/Desktop/softconsole_watershed/Water-shed/src/platform/mpfs_hal/common/mss_plic.h ****             PLIC->HART1_MMODE_ENA[IRQn / 32U] = current;
 707:/home/vinay/Desktop/softconsole_watershed/Water-shed/src/platform/mpfs_hal/common/mss_plic.h ****             break;
 708:/home/vinay/Desktop/softconsole_watershed/Water-shed/src/platform/mpfs_hal/common/mss_plic.h ****         case 2:
 709:/home/vinay/Desktop/softconsole_watershed/Water-shed/src/platform/mpfs_hal/common/mss_plic.h ****             current = PLIC->HART2_MMODE_ENA[IRQn / 32U];
 710:/home/vinay/Desktop/softconsole_watershed/Water-shed/src/platform/mpfs_hal/common/mss_plic.h ****             current &= ~((uint32_t)1 << (IRQn % 32U));
 711:/home/vinay/Desktop/softconsole_watershed/Water-shed/src/platform/mpfs_hal/common/mss_plic.h ****             PLIC->HART2_MMODE_ENA[IRQn / 32U] = current;
 712:/home/vinay/Desktop/softconsole_watershed/Water-shed/src/platform/mpfs_hal/common/mss_plic.h ****             break;
 713:/home/vinay/Desktop/softconsole_watershed/Water-shed/src/platform/mpfs_hal/common/mss_plic.h ****         case 3:
 714:/home/vinay/Desktop/softconsole_watershed/Water-shed/src/platform/mpfs_hal/common/mss_plic.h ****             current = PLIC->HART3_MMODE_ENA[IRQn / 32U];
 715:/home/vinay/Desktop/softconsole_watershed/Water-shed/src/platform/mpfs_hal/common/mss_plic.h ****             current &= ~((uint32_t)1 << (IRQn % 32U));
 716:/home/vinay/Desktop/softconsole_watershed/Water-shed/src/platform/mpfs_hal/common/mss_plic.h ****             PLIC->HART3_MMODE_ENA[IRQn / 32U] = current;
 717:/home/vinay/Desktop/softconsole_watershed/Water-shed/src/platform/mpfs_hal/common/mss_plic.h ****             break;
 718:/home/vinay/Desktop/softconsole_watershed/Water-shed/src/platform/mpfs_hal/common/mss_plic.h ****         case 4:
 719:/home/vinay/Desktop/softconsole_watershed/Water-shed/src/platform/mpfs_hal/common/mss_plic.h ****             current = PLIC->HART4_MMODE_ENA[IRQn / 32U];
 720:/home/vinay/Desktop/softconsole_watershed/Water-shed/src/platform/mpfs_hal/common/mss_plic.h ****             current &= ~((uint32_t)1 << (IRQn % 32U));
 721:/home/vinay/Desktop/softconsole_watershed/Water-shed/src/platform/mpfs_hal/common/mss_plic.h ****             PLIC->HART4_MMODE_ENA[IRQn / 32U] = current;
 722:/home/vinay/Desktop/softconsole_watershed/Water-shed/src/platform/mpfs_hal/common/mss_plic.h ****             break;
 723:/home/vinay/Desktop/softconsole_watershed/Water-shed/src/platform/mpfs_hal/common/mss_plic.h ****         default:
 724:/home/vinay/Desktop/softconsole_watershed/Water-shed/src/platform/mpfs_hal/common/mss_plic.h ****             break;
 725:/home/vinay/Desktop/softconsole_watershed/Water-shed/src/platform/mpfs_hal/common/mss_plic.h ****     }
 726:/home/vinay/Desktop/softconsole_watershed/Water-shed/src/platform/mpfs_hal/common/mss_plic.h **** }
 727:/home/vinay/Desktop/softconsole_watershed/Water-shed/src/platform/mpfs_hal/common/mss_plic.h **** 
 728:/home/vinay/Desktop/softconsole_watershed/Water-shed/src/platform/mpfs_hal/common/mss_plic.h **** /***************************************************************************//**
 729:/home/vinay/Desktop/softconsole_watershed/Water-shed/src/platform/mpfs_hal/common/mss_plic.h ****  * The function PLIC_SetPriority() sets the priority for the external interrupt
 730:/home/vinay/Desktop/softconsole_watershed/Water-shed/src/platform/mpfs_hal/common/mss_plic.h ****  * for the interrupt number indicated by the parameter IRQn.
 731:/home/vinay/Desktop/softconsole_watershed/Water-shed/src/platform/mpfs_hal/common/mss_plic.h ****  */
 732:/home/vinay/Desktop/softconsole_watershed/Water-shed/src/platform/mpfs_hal/common/mss_plic.h **** static inline void PLIC_SetPriority(PLIC_IRQn_Type IRQn, uint32_t priority)
 733:/home/vinay/Desktop/softconsole_watershed/Water-shed/src/platform/mpfs_hal/common/mss_plic.h **** {
 734:/home/vinay/Desktop/softconsole_watershed/Water-shed/src/platform/mpfs_hal/common/mss_plic.h ****     if((IRQn > PLIC_INVALID_INT_OFFSET) && (IRQn < PLIC_NUM_SOURCES))
 735:/home/vinay/Desktop/softconsole_watershed/Water-shed/src/platform/mpfs_hal/common/mss_plic.h ****     {
 736:/home/vinay/Desktop/softconsole_watershed/Water-shed/src/platform/mpfs_hal/common/mss_plic.h ****         PLIC->SOURCE_PRIORITY[IRQn-1] = priority;
 737:/home/vinay/Desktop/softconsole_watershed/Water-shed/src/platform/mpfs_hal/common/mss_plic.h ****     }
 738:/home/vinay/Desktop/softconsole_watershed/Water-shed/src/platform/mpfs_hal/common/mss_plic.h **** }
 739:/home/vinay/Desktop/softconsole_watershed/Water-shed/src/platform/mpfs_hal/common/mss_plic.h **** 
 740:/home/vinay/Desktop/softconsole_watershed/Water-shed/src/platform/mpfs_hal/common/mss_plic.h **** /***************************************************************************//**
 741:/home/vinay/Desktop/softconsole_watershed/Water-shed/src/platform/mpfs_hal/common/mss_plic.h ****  * The function PLIC_GetPriority() returns the priority for the external
 742:/home/vinay/Desktop/softconsole_watershed/Water-shed/src/platform/mpfs_hal/common/mss_plic.h ****  * interrupt for the interrupt number indicated by the parameter IRQn.
 743:/home/vinay/Desktop/softconsole_watershed/Water-shed/src/platform/mpfs_hal/common/mss_plic.h ****  */
 744:/home/vinay/Desktop/softconsole_watershed/Water-shed/src/platform/mpfs_hal/common/mss_plic.h **** static inline uint32_t PLIC_GetPriority(PLIC_IRQn_Type IRQn)
 745:/home/vinay/Desktop/softconsole_watershed/Water-shed/src/platform/mpfs_hal/common/mss_plic.h **** {
 746:/home/vinay/Desktop/softconsole_watershed/Water-shed/src/platform/mpfs_hal/common/mss_plic.h ****     uint32_t ret_val = 0U;
 747:/home/vinay/Desktop/softconsole_watershed/Water-shed/src/platform/mpfs_hal/common/mss_plic.h **** 
 748:/home/vinay/Desktop/softconsole_watershed/Water-shed/src/platform/mpfs_hal/common/mss_plic.h ****     if((IRQn > PLIC_INVALID_INT_OFFSET) && (IRQn < PLIC_NUM_SOURCES))
 749:/home/vinay/Desktop/softconsole_watershed/Water-shed/src/platform/mpfs_hal/common/mss_plic.h ****     {
 750:/home/vinay/Desktop/softconsole_watershed/Water-shed/src/platform/mpfs_hal/common/mss_plic.h ****         ret_val = PLIC->SOURCE_PRIORITY[IRQn-1];
 751:/home/vinay/Desktop/softconsole_watershed/Water-shed/src/platform/mpfs_hal/common/mss_plic.h ****     }
 752:/home/vinay/Desktop/softconsole_watershed/Water-shed/src/platform/mpfs_hal/common/mss_plic.h **** 
 753:/home/vinay/Desktop/softconsole_watershed/Water-shed/src/platform/mpfs_hal/common/mss_plic.h ****     return(ret_val);
 754:/home/vinay/Desktop/softconsole_watershed/Water-shed/src/platform/mpfs_hal/common/mss_plic.h **** }
 755:/home/vinay/Desktop/softconsole_watershed/Water-shed/src/platform/mpfs_hal/common/mss_plic.h **** 
 756:/home/vinay/Desktop/softconsole_watershed/Water-shed/src/platform/mpfs_hal/common/mss_plic.h **** 
 757:/home/vinay/Desktop/softconsole_watershed/Water-shed/src/platform/mpfs_hal/common/mss_plic.h **** static inline uint32_t PLIC_pending(PLIC_IRQn_Type IRQn)
 758:/home/vinay/Desktop/softconsole_watershed/Water-shed/src/platform/mpfs_hal/common/mss_plic.h **** {
 759:/home/vinay/Desktop/softconsole_watershed/Water-shed/src/platform/mpfs_hal/common/mss_plic.h ****     return (PLIC->PENDING_ARRAY[IRQn/32U] & (0x01U<<(IRQn%32U)));
 760:/home/vinay/Desktop/softconsole_watershed/Water-shed/src/platform/mpfs_hal/common/mss_plic.h **** }
 761:/home/vinay/Desktop/softconsole_watershed/Water-shed/src/platform/mpfs_hal/common/mss_plic.h **** 
 762:/home/vinay/Desktop/softconsole_watershed/Water-shed/src/platform/mpfs_hal/common/mss_plic.h **** /***************************************************************************//**
 763:/home/vinay/Desktop/softconsole_watershed/Water-shed/src/platform/mpfs_hal/common/mss_plic.h ****  * The function PLIC_ClaimIRQ() claims the interrupt from the PLIC controller.
 764:/home/vinay/Desktop/softconsole_watershed/Water-shed/src/platform/mpfs_hal/common/mss_plic.h ****  */
 765:/home/vinay/Desktop/softconsole_watershed/Water-shed/src/platform/mpfs_hal/common/mss_plic.h **** static inline uint32_t PLIC_ClaimIRQ(void)
 766:/home/vinay/Desktop/softconsole_watershed/Water-shed/src/platform/mpfs_hal/common/mss_plic.h **** {
 767:/home/vinay/Desktop/softconsole_watershed/Water-shed/src/platform/mpfs_hal/common/mss_plic.h ****     uint64_t hart_id  = read_csr(mhartid);
 768:/home/vinay/Desktop/softconsole_watershed/Water-shed/src/platform/mpfs_hal/common/mss_plic.h **** 
 769:/home/vinay/Desktop/softconsole_watershed/Water-shed/src/platform/mpfs_hal/common/mss_plic.h ****     return (PLIC->TARGET[plic_hart_lookup[hart_id]].CLAIM_COMPLETE);
 770:/home/vinay/Desktop/softconsole_watershed/Water-shed/src/platform/mpfs_hal/common/mss_plic.h **** }
 771:/home/vinay/Desktop/softconsole_watershed/Water-shed/src/platform/mpfs_hal/common/mss_plic.h **** 
 772:/home/vinay/Desktop/softconsole_watershed/Water-shed/src/platform/mpfs_hal/common/mss_plic.h **** /***************************************************************************//**
 773:/home/vinay/Desktop/softconsole_watershed/Water-shed/src/platform/mpfs_hal/common/mss_plic.h ****  * The function PLIC_CompleteIRQ() indicates to the PLIC controller the
 774:/home/vinay/Desktop/softconsole_watershed/Water-shed/src/platform/mpfs_hal/common/mss_plic.h ****  * interrupt is processed and claim is complete.
 775:/home/vinay/Desktop/softconsole_watershed/Water-shed/src/platform/mpfs_hal/common/mss_plic.h ****  */
 776:/home/vinay/Desktop/softconsole_watershed/Water-shed/src/platform/mpfs_hal/common/mss_plic.h **** static inline void PLIC_CompleteIRQ(uint32_t source)
 777:/home/vinay/Desktop/softconsole_watershed/Water-shed/src/platform/mpfs_hal/common/mss_plic.h **** {
 778:/home/vinay/Desktop/softconsole_watershed/Water-shed/src/platform/mpfs_hal/common/mss_plic.h ****     uint64_t hart_id  = read_csr(mhartid);
 779:/home/vinay/Desktop/softconsole_watershed/Water-shed/src/platform/mpfs_hal/common/mss_plic.h **** 
 780:/home/vinay/Desktop/softconsole_watershed/Water-shed/src/platform/mpfs_hal/common/mss_plic.h ****     ASSERT(source <= MAX_PLIC_INT);
 781:/home/vinay/Desktop/softconsole_watershed/Water-shed/src/platform/mpfs_hal/common/mss_plic.h **** 
 782:/home/vinay/Desktop/softconsole_watershed/Water-shed/src/platform/mpfs_hal/common/mss_plic.h ****     PLIC->TARGET[plic_hart_lookup[hart_id]].CLAIM_COMPLETE  = source;
 783:/home/vinay/Desktop/softconsole_watershed/Water-shed/src/platform/mpfs_hal/common/mss_plic.h **** }
 784:/home/vinay/Desktop/softconsole_watershed/Water-shed/src/platform/mpfs_hal/common/mss_plic.h **** 
 785:/home/vinay/Desktop/softconsole_watershed/Water-shed/src/platform/mpfs_hal/common/mss_plic.h **** /***************************************************************************//**
 786:/home/vinay/Desktop/softconsole_watershed/Water-shed/src/platform/mpfs_hal/common/mss_plic.h ****  *
 787:/home/vinay/Desktop/softconsole_watershed/Water-shed/src/platform/mpfs_hal/common/mss_plic.h ****  * The function PLIC_SetPriority_Threshold() sets the threshold for a particular
 788:/home/vinay/Desktop/softconsole_watershed/Water-shed/src/platform/mpfs_hal/common/mss_plic.h ****  * hart. The default threshold on reset is 0.
 789:/home/vinay/Desktop/softconsole_watershed/Water-shed/src/platform/mpfs_hal/common/mss_plic.h ****  * The PFSoC Core Complex supports setting of an interrupt priority threshold
 790:/home/vinay/Desktop/softconsole_watershed/Water-shed/src/platform/mpfs_hal/common/mss_plic.h ****  * via the threshold register. The threshold is a WARL field, where the PFSoC
 791:/home/vinay/Desktop/softconsole_watershed/Water-shed/src/platform/mpfs_hal/common/mss_plic.h ****  * Core Complex supports a maximum threshold of 7.
 792:/home/vinay/Desktop/softconsole_watershed/Water-shed/src/platform/mpfs_hal/common/mss_plic.h ****  * The PFSoC Core Complex will mask all PLIC interrupts of a priority less than
 793:/home/vinay/Desktop/softconsole_watershed/Water-shed/src/platform/mpfs_hal/common/mss_plic.h ****  * or equal to threshold. For example, a threshold value of zero permits all
 794:/home/vinay/Desktop/softconsole_watershed/Water-shed/src/platform/mpfs_hal/common/mss_plic.h ****  * interrupts with non-zero priority, whereas a value of 7 masks all
 795:/home/vinay/Desktop/softconsole_watershed/Water-shed/src/platform/mpfs_hal/common/mss_plic.h ****  * interrupts.
 796:/home/vinay/Desktop/softconsole_watershed/Water-shed/src/platform/mpfs_hal/common/mss_plic.h ****  */
 797:/home/vinay/Desktop/softconsole_watershed/Water-shed/src/platform/mpfs_hal/common/mss_plic.h **** static inline void PLIC_SetPriority_Threshold(uint32_t threshold)
 798:/home/vinay/Desktop/softconsole_watershed/Water-shed/src/platform/mpfs_hal/common/mss_plic.h **** {
 799:/home/vinay/Desktop/softconsole_watershed/Water-shed/src/platform/mpfs_hal/common/mss_plic.h ****     uint64_t hart_id  = read_csr(mhartid);
 800:/home/vinay/Desktop/softconsole_watershed/Water-shed/src/platform/mpfs_hal/common/mss_plic.h **** 
 801:/home/vinay/Desktop/softconsole_watershed/Water-shed/src/platform/mpfs_hal/common/mss_plic.h ****     ASSERT(threshold <= 7);
 802:/home/vinay/Desktop/softconsole_watershed/Water-shed/src/platform/mpfs_hal/common/mss_plic.h **** 
 803:/home/vinay/Desktop/softconsole_watershed/Water-shed/src/platform/mpfs_hal/common/mss_plic.h ****     PLIC->TARGET[plic_hart_lookup[hart_id]].PRIORITY_THRESHOLD  = threshold;
 804:/home/vinay/Desktop/softconsole_watershed/Water-shed/src/platform/mpfs_hal/common/mss_plic.h **** }
 805:/home/vinay/Desktop/softconsole_watershed/Water-shed/src/platform/mpfs_hal/common/mss_plic.h **** 
 806:/home/vinay/Desktop/softconsole_watershed/Water-shed/src/platform/mpfs_hal/common/mss_plic.h **** /***************************************************************************//**
 807:/home/vinay/Desktop/softconsole_watershed/Water-shed/src/platform/mpfs_hal/common/mss_plic.h ****  *  PLIC_ClearPendingIRQ(void)
 808:/home/vinay/Desktop/softconsole_watershed/Water-shed/src/platform/mpfs_hal/common/mss_plic.h ****  *  This is only called by the startup hart and only once
 809:/home/vinay/Desktop/softconsole_watershed/Water-shed/src/platform/mpfs_hal/common/mss_plic.h ****  *  Clears any pending interrupts as PLIC can be in unknown state on startup
 810:/home/vinay/Desktop/softconsole_watershed/Water-shed/src/platform/mpfs_hal/common/mss_plic.h ****  */
 811:/home/vinay/Desktop/softconsole_watershed/Water-shed/src/platform/mpfs_hal/common/mss_plic.h **** static inline void PLIC_ClearPendingIRQ(void)
 812:/home/vinay/Desktop/softconsole_watershed/Water-shed/src/platform/mpfs_hal/common/mss_plic.h **** {
 813:/home/vinay/Desktop/softconsole_watershed/Water-shed/src/platform/mpfs_hal/common/mss_plic.h ****     volatile uint32_t int_num  = PLIC_ClaimIRQ();
 814:/home/vinay/Desktop/softconsole_watershed/Water-shed/src/platform/mpfs_hal/common/mss_plic.h ****     volatile int32_t wait_possible_int;
 815:/home/vinay/Desktop/softconsole_watershed/Water-shed/src/platform/mpfs_hal/common/mss_plic.h **** 
 816:/home/vinay/Desktop/softconsole_watershed/Water-shed/src/platform/mpfs_hal/common/mss_plic.h ****     while ( int_num != PLIC_INVALID_INT_OFFSET)
 817:/home/vinay/Desktop/softconsole_watershed/Water-shed/src/platform/mpfs_hal/common/mss_plic.h ****     {
 818:/home/vinay/Desktop/softconsole_watershed/Water-shed/src/platform/mpfs_hal/common/mss_plic.h ****         PLIC_CompleteIRQ(int_num);
 819:/home/vinay/Desktop/softconsole_watershed/Water-shed/src/platform/mpfs_hal/common/mss_plic.h ****         wait_possible_int = 0xFU;
 820:/home/vinay/Desktop/softconsole_watershed/Water-shed/src/platform/mpfs_hal/common/mss_plic.h ****         while (wait_possible_int)
 821:/home/vinay/Desktop/softconsole_watershed/Water-shed/src/platform/mpfs_hal/common/mss_plic.h ****         {
 822:/home/vinay/Desktop/softconsole_watershed/Water-shed/src/platform/mpfs_hal/common/mss_plic.h ****             wait_possible_int--;
 823:/home/vinay/Desktop/softconsole_watershed/Water-shed/src/platform/mpfs_hal/common/mss_plic.h ****         }
 824:/home/vinay/Desktop/softconsole_watershed/Water-shed/src/platform/mpfs_hal/common/mss_plic.h ****         int_num  = PLIC_ClaimIRQ(); /* obtain interrupt, auto clears  */
 825:/home/vinay/Desktop/softconsole_watershed/Water-shed/src/platform/mpfs_hal/common/mss_plic.h ****     }
 826:/home/vinay/Desktop/softconsole_watershed/Water-shed/src/platform/mpfs_hal/common/mss_plic.h **** }
 827:/home/vinay/Desktop/softconsole_watershed/Water-shed/src/platform/mpfs_hal/common/mss_plic.h **** 
 828:/home/vinay/Desktop/softconsole_watershed/Water-shed/src/platform/mpfs_hal/common/mss_plic.h **** /***************************************************************************//**
 829:/home/vinay/Desktop/softconsole_watershed/Water-shed/src/platform/mpfs_hal/common/mss_plic.h ****  * This function is only called from one hart on startup
 830:/home/vinay/Desktop/softconsole_watershed/Water-shed/src/platform/mpfs_hal/common/mss_plic.h ****  */
 831:/home/vinay/Desktop/softconsole_watershed/Water-shed/src/platform/mpfs_hal/common/mss_plic.h **** static inline void PLIC_init_on_reset(void)
 832:/home/vinay/Desktop/softconsole_watershed/Water-shed/src/platform/mpfs_hal/common/mss_plic.h **** {
 833:/home/vinay/Desktop/softconsole_watershed/Water-shed/src/platform/mpfs_hal/common/mss_plic.h ****     uint32_t inc;
 591              		.loc 2 833 5
 834:/home/vinay/Desktop/softconsole_watershed/Water-shed/src/platform/mpfs_hal/common/mss_plic.h **** 
 835:/home/vinay/Desktop/softconsole_watershed/Water-shed/src/platform/mpfs_hal/common/mss_plic.h ****     /* default all priorities so effectively disabled */
 836:/home/vinay/Desktop/softconsole_watershed/Water-shed/src/platform/mpfs_hal/common/mss_plic.h ****     for(inc = 0U; inc < PLIC_NUM_SOURCES; ++inc)
 592              		.loc 2 836 5
 593              		.loc 2 836 13 is_stmt 0
 594 005e 0147     		li	a4,0
 837:/home/vinay/Desktop/softconsole_watershed/Water-shed/src/platform/mpfs_hal/common/mss_plic.h ****     {
 838:/home/vinay/Desktop/softconsole_watershed/Water-shed/src/platform/mpfs_hal/common/mss_plic.h ****         /* priority must be greater than threshold to be enabled, so setting to
 839:/home/vinay/Desktop/softconsole_watershed/Water-shed/src/platform/mpfs_hal/common/mss_plic.h ****          * 7 disables */
 840:/home/vinay/Desktop/softconsole_watershed/Water-shed/src/platform/mpfs_hal/common/mss_plic.h ****         PLIC->SOURCE_PRIORITY[inc]  = 0U;
 595              		.loc 2 840 37
 596 0060 3706000C 		li	a2,201326592
 836:/home/vinay/Desktop/softconsole_watershed/Water-shed/src/platform/mpfs_hal/common/mss_plic.h ****     {
 597              		.loc 2 836 5
 598 0064 9306B00B 		li	a3,187
 599              	.LVL50:
 600              	.L33:
 601              		.loc 2 840 9 is_stmt 1
 602              		.loc 2 840 37 is_stmt 0
 603 0068 93170702 		slli	a5,a4,32
 604 006c F983     		srli	a5,a5,30
 605 006e B297     		add	a5,a2,a5
 606 0070 23A20700 		sw	zero,4(a5)
 836:/home/vinay/Desktop/softconsole_watershed/Water-shed/src/platform/mpfs_hal/common/mss_plic.h ****     {
 607              		.loc 2 836 43
 608 0074 0527     		addiw	a4,a4,1
 609              	.LVL51:
 836:/home/vinay/Desktop/softconsole_watershed/Water-shed/src/platform/mpfs_hal/common/mss_plic.h ****     {
 610              		.loc 2 836 5
 611 0076 E319D7FE 		bne	a4,a3,.L33
 841:/home/vinay/Desktop/softconsole_watershed/Water-shed/src/platform/mpfs_hal/common/mss_plic.h ****     }
 842:/home/vinay/Desktop/softconsole_watershed/Water-shed/src/platform/mpfs_hal/common/mss_plic.h **** 
 843:/home/vinay/Desktop/softconsole_watershed/Water-shed/src/platform/mpfs_hal/common/mss_plic.h ****     for(inc = 0U; inc < NUM_CLAIM_REGS; ++inc)
 612              		.loc 2 843 13
 613 007a 0147     		li	a4,0
 844:/home/vinay/Desktop/softconsole_watershed/Water-shed/src/platform/mpfs_hal/common/mss_plic.h ****     {
 845:/home/vinay/Desktop/softconsole_watershed/Water-shed/src/platform/mpfs_hal/common/mss_plic.h ****         PLIC->TARGET[inc].PRIORITY_THRESHOLD  = 7U;
 614              		.loc 2 845 47
 615 007c B705000C 		li	a1,201326592
 616 0080 1D46     		li	a2,7
 843:/home/vinay/Desktop/softconsole_watershed/Water-shed/src/platform/mpfs_hal/common/mss_plic.h ****     {
 617              		.loc 2 843 5
 618 0082 A546     		li	a3,9
 619              	.L34:
 620              	.LVL52:
 621              		.loc 2 845 9 is_stmt 1
 622              		.loc 2 845 47 is_stmt 0
 623 0084 93170702 		slli	a5,a4,32
 624 0088 8193     		srli	a5,a5,32
 625 008a 93870720 		addi	a5,a5,512
 626 008e B207     		slli	a5,a5,12
 627 0090 AE97     		add	a5,a1,a5
 628 0092 90C3     		sw	a2,0(a5)
 843:/home/vinay/Desktop/softconsole_watershed/Water-shed/src/platform/mpfs_hal/common/mss_plic.h ****     {
 629              		.loc 2 843 41
 630 0094 0527     		addiw	a4,a4,1
 631              	.LVL53:
 843:/home/vinay/Desktop/softconsole_watershed/Water-shed/src/platform/mpfs_hal/common/mss_plic.h ****     {
 632              		.loc 2 843 5
 633 0096 E317D7FE 		bne	a4,a3,.L34
 846:/home/vinay/Desktop/softconsole_watershed/Water-shed/src/platform/mpfs_hal/common/mss_plic.h ****     }
 847:/home/vinay/Desktop/softconsole_watershed/Water-shed/src/platform/mpfs_hal/common/mss_plic.h **** 
 848:/home/vinay/Desktop/softconsole_watershed/Water-shed/src/platform/mpfs_hal/common/mss_plic.h ****     /* and clear all the enables */
 849:/home/vinay/Desktop/softconsole_watershed/Water-shed/src/platform/mpfs_hal/common/mss_plic.h ****     for(inc = 0UL; inc < PLIC_SET_UP_REGISTERS; inc++)
 634              		.loc 2 849 13
 635 009a 0147     		li	a4,0
 636 009c 3706000C 		li	a2,201326592
 850:/home/vinay/Desktop/softconsole_watershed/Water-shed/src/platform/mpfs_hal/common/mss_plic.h ****     {
 851:/home/vinay/Desktop/softconsole_watershed/Water-shed/src/platform/mpfs_hal/common/mss_plic.h ****         PLIC->HART0_MMODE_ENA[inc] = 0U;
 637              		.loc 2 851 36
 638 00a0 8965     		li	a1,8192
 849:/home/vinay/Desktop/softconsole_watershed/Water-shed/src/platform/mpfs_hal/common/mss_plic.h ****     {
 639              		.loc 2 849 5
 640 00a2 9946     		li	a3,6
 641              	.L35:
 642              	.LVL54:
 643              		.loc 2 851 9 is_stmt 1
 644 00a4 93170702 		slli	a5,a4,32
 645 00a8 F983     		srli	a5,a5,30
 646 00aa B297     		add	a5,a2,a5
 647              		.loc 2 851 36 is_stmt 0
 648 00ac AE97     		add	a5,a5,a1
 649 00ae 23A00700 		sw	zero,0(a5)
 852:/home/vinay/Desktop/softconsole_watershed/Water-shed/src/platform/mpfs_hal/common/mss_plic.h ****         PLIC->HART1_MMODE_ENA[inc] = 0U;
 650              		.loc 2 852 9 is_stmt 1
 651              		.loc 2 852 36 is_stmt 0
 652 00b2 23A00708 		sw	zero,128(a5)
 853:/home/vinay/Desktop/softconsole_watershed/Water-shed/src/platform/mpfs_hal/common/mss_plic.h ****         PLIC->HART1_SMODE_ENA[inc] = 0U;
 653              		.loc 2 853 9 is_stmt 1
 654              		.loc 2 853 36 is_stmt 0
 655 00b6 23A00710 		sw	zero,256(a5)
 854:/home/vinay/Desktop/softconsole_watershed/Water-shed/src/platform/mpfs_hal/common/mss_plic.h ****         PLIC->HART2_MMODE_ENA[inc] = 0U;
 656              		.loc 2 854 9 is_stmt 1
 657              		.loc 2 854 36 is_stmt 0
 658 00ba 23A00718 		sw	zero,384(a5)
 855:/home/vinay/Desktop/softconsole_watershed/Water-shed/src/platform/mpfs_hal/common/mss_plic.h ****         PLIC->HART2_SMODE_ENA[inc] = 0U;
 659              		.loc 2 855 9 is_stmt 1
 660              		.loc 2 855 36 is_stmt 0
 661 00be 23A00720 		sw	zero,512(a5)
 856:/home/vinay/Desktop/softconsole_watershed/Water-shed/src/platform/mpfs_hal/common/mss_plic.h ****         PLIC->HART3_MMODE_ENA[inc] = 0U;
 662              		.loc 2 856 9 is_stmt 1
 663              		.loc 2 856 36 is_stmt 0
 664 00c2 23A00728 		sw	zero,640(a5)
 857:/home/vinay/Desktop/softconsole_watershed/Water-shed/src/platform/mpfs_hal/common/mss_plic.h ****         PLIC->HART3_SMODE_ENA[inc] = 0U;
 665              		.loc 2 857 9 is_stmt 1
 666              		.loc 2 857 36 is_stmt 0
 667 00c6 23A00730 		sw	zero,768(a5)
 858:/home/vinay/Desktop/softconsole_watershed/Water-shed/src/platform/mpfs_hal/common/mss_plic.h ****         PLIC->HART4_MMODE_ENA[inc] = 0U;
 668              		.loc 2 858 9 is_stmt 1
 669              		.loc 2 858 36 is_stmt 0
 670 00ca 23A00738 		sw	zero,896(a5)
 859:/home/vinay/Desktop/softconsole_watershed/Water-shed/src/platform/mpfs_hal/common/mss_plic.h ****         PLIC->HART4_SMODE_ENA[inc] = 0U;
 671              		.loc 2 859 9 is_stmt 1
 672              		.loc 2 859 36 is_stmt 0
 673 00ce 23A00740 		sw	zero,1024(a5)
 849:/home/vinay/Desktop/softconsole_watershed/Water-shed/src/platform/mpfs_hal/common/mss_plic.h ****     {
 674              		.loc 2 849 52
 675 00d2 0527     		addiw	a4,a4,1
 676              	.LVL55:
 849:/home/vinay/Desktop/softconsole_watershed/Water-shed/src/platform/mpfs_hal/common/mss_plic.h ****     {
 677              		.loc 2 849 5
 678 00d4 E318D7FC 		bne	a4,a3,.L35
 860:/home/vinay/Desktop/softconsole_watershed/Water-shed/src/platform/mpfs_hal/common/mss_plic.h ****     }
 861:/home/vinay/Desktop/softconsole_watershed/Water-shed/src/platform/mpfs_hal/common/mss_plic.h **** 
 862:/home/vinay/Desktop/softconsole_watershed/Water-shed/src/platform/mpfs_hal/common/mss_plic.h ****     /* clear any pending interrupts- in case already there */
 863:/home/vinay/Desktop/softconsole_watershed/Water-shed/src/platform/mpfs_hal/common/mss_plic.h ****     PLIC_ClearPendingIRQ();
 679              		.loc 2 863 5 is_stmt 1
 680              	.LBB38:
 681              	.LBB39:
 813:/home/vinay/Desktop/softconsole_watershed/Water-shed/src/platform/mpfs_hal/common/mss_plic.h ****     volatile int32_t wait_possible_int;
 682              		.loc 2 813 5
 683              	.LBB40:
 684              	.LBB41:
 767:/home/vinay/Desktop/softconsole_watershed/Water-shed/src/platform/mpfs_hal/common/mss_plic.h **** 
 685              		.loc 2 767 5
 686              	.LBB42:
 767:/home/vinay/Desktop/softconsole_watershed/Water-shed/src/platform/mpfs_hal/common/mss_plic.h **** 
 687              		.loc 2 767 25
 767:/home/vinay/Desktop/softconsole_watershed/Water-shed/src/platform/mpfs_hal/common/mss_plic.h **** 
 688              		.loc 2 767 25
 689              	 #APP
 690              	# 767 "/home/vinay/Desktop/softconsole_watershed/Water-shed/src/platform/mpfs_hal/common/mss_plic.h
 691              		csrr a3, mhartid
 692              	# 0 "" 2
 693              	.LVL56:
 767:/home/vinay/Desktop/softconsole_watershed/Water-shed/src/platform/mpfs_hal/common/mss_plic.h **** 
 694              		.loc 2 767 25
 695              	 #NO_APP
 696              	.LBE42:
 769:/home/vinay/Desktop/softconsole_watershed/Water-shed/src/platform/mpfs_hal/common/mss_plic.h **** }
 697              		.loc 2 769 5
 769:/home/vinay/Desktop/softconsole_watershed/Water-shed/src/platform/mpfs_hal/common/mss_plic.h **** }
 698              		.loc 2 769 42 is_stmt 0
 699 00dc 17070000 		lla	a4,plic_hart_lookup
 699      13070700 
 700 00e4 8E06     		slli	a3,a3,3
 701              	.LVL57:
 702 00e6 BA96     		add	a3,a4,a3
 703 00e8 9C62     		ld	a5,0(a3)
 704              	.LBE41:
 705              	.LBE40:
 706              	.LBB45:
 707              	.LBB46:
 780:/home/vinay/Desktop/softconsole_watershed/Water-shed/src/platform/mpfs_hal/common/mss_plic.h **** 
 708              		.loc 2 780 5
 709 00ea 9305A00B 		li	a1,186
 710              	.LBE46:
 711              	.LBE45:
 819:/home/vinay/Desktop/softconsole_watershed/Water-shed/src/platform/mpfs_hal/common/mss_plic.h ****         while (wait_possible_int)
 712              		.loc 2 819 27
 713 00ee 3D45     		li	a0,15
 714              	.LBB50:
 715              	.LBB43:
 769:/home/vinay/Desktop/softconsole_watershed/Water-shed/src/platform/mpfs_hal/common/mss_plic.h **** }
 716              		.loc 2 769 52
 717 00f0 93870720 		addi	a5,a5,512
 718 00f4 B207     		slli	a5,a5,12
 719 00f6 B297     		add	a5,a2,a5
 720 00f8 DC43     		lw	a5,4(a5)
 721              	.LBE43:
 722              	.LBE50:
 723              	.LBB51:
 724              	.LBB48:
 782:/home/vinay/Desktop/softconsole_watershed/Water-shed/src/platform/mpfs_hal/common/mss_plic.h **** }
 725              		.loc 2 782 61
 726 00fa 3706000C 		li	a2,201326592
 727              	.LBE48:
 728              	.LBE51:
 729              	.LBB52:
 730              	.LBB44:
 769:/home/vinay/Desktop/softconsole_watershed/Water-shed/src/platform/mpfs_hal/common/mss_plic.h **** }
 731              		.loc 2 769 52
 732 00fe 8127     		sext.w	a5,a5
 733              	.LBE44:
 734              	.LBE52:
 813:/home/vinay/Desktop/softconsole_watershed/Water-shed/src/platform/mpfs_hal/common/mss_plic.h ****     volatile int32_t wait_possible_int;
 735              		.loc 2 813 23
 736 0100 3EC4     		sw	a5,8(sp)
 814:/home/vinay/Desktop/softconsole_watershed/Water-shed/src/platform/mpfs_hal/common/mss_plic.h **** 
 737              		.loc 2 814 5 is_stmt 1
 816:/home/vinay/Desktop/softconsole_watershed/Water-shed/src/platform/mpfs_hal/common/mss_plic.h ****     {
 738              		.loc 2 816 5
 739              	.L36:
 816:/home/vinay/Desktop/softconsole_watershed/Water-shed/src/platform/mpfs_hal/common/mss_plic.h ****     {
 740              		.loc 2 816 21 is_stmt 0
 741 0102 A247     		lw	a5,8(sp)
 742 0104 8127     		sext.w	a5,a5
 816:/home/vinay/Desktop/softconsole_watershed/Water-shed/src/platform/mpfs_hal/common/mss_plic.h ****     {
 743              		.loc 2 816 11
 744 0106 FDEB     		bne	a5,zero,.L40
 745              	.LBE39:
 746              	.LBE38:
 747              	.LBE37:
 748              	.LBE36:
 102:../src/platform/mpfs_hal/startup_gcc/system_startup.c ****         hls = (HLS_DATA*)(stack_top - HLS_DEBUG_AREA_SIZE);
 749              		.loc 1 102 9 is_stmt 1
 750              	.LVL58:
 103:../src/platform/mpfs_hal/startup_gcc/system_startup.c ****         hls->in_wfi_indicator = HLS_MAIN_HART_STARTED;
 751              		.loc 1 103 9
 104:../src/platform/mpfs_hal/startup_gcc/system_startup.c ****         hls->my_hart_id = MPFS_HAL_FIRST_HART;
 752              		.loc 1 104 9
 104:../src/platform/mpfs_hal/startup_gcc/system_startup.c ****         hls->my_hart_id = MPFS_HAL_FIRST_HART;
 753              		.loc 1 104 31 is_stmt 0
 754 0108 B7473412 		li	a5,305414144
 755 010c 93871732 		addi	a5,a5,801
 756 0110 17070000 		sw	a5,__stack_top_h0$-64,a4
 756      2320F700 
 105:../src/platform/mpfs_hal/startup_gcc/system_startup.c ****         WFI_SM sm_check_thread = INIT_THREAD_PR;
 757              		.loc 1 105 9 is_stmt 1
 105:../src/platform/mpfs_hal/startup_gcc/system_startup.c ****         WFI_SM sm_check_thread = INIT_THREAD_PR;
 758              		.loc 1 105 25 is_stmt 0
 759 0118 97070000 		sw	zero,__stack_top_h0$-60,a5
 759      23A00700 
 106:../src/platform/mpfs_hal/startup_gcc/system_startup.c ****         hart_id = MPFS_HAL_FIRST_HART + 1U;
 760              		.loc 1 106 9 is_stmt 1
 761              	.LVL59:
 107:../src/platform/mpfs_hal/startup_gcc/system_startup.c ****         while( hart_id <= MPFS_HAL_LAST_HART)
 762              		.loc 1 107 9
 108:../src/platform/mpfs_hal/startup_gcc/system_startup.c ****         {
 763              		.loc 1 108 9
 764              	.LBB60:
 153:../src/platform/mpfs_hal/startup_gcc/system_startup.c ****                     {
 765              		.loc 1 153 23 is_stmt 0
 766 0120 37466587 		li	a2,-2023407616
 138:../src/platform/mpfs_hal/startup_gcc/system_startup.c ****                     {
 767              		.loc 1 138 23
 768 0124 B7553412 		li	a1,305418240
 769              	.LBE60:
 106:../src/platform/mpfs_hal/startup_gcc/system_startup.c ****         hart_id = MPFS_HAL_FIRST_HART + 1U;
 770              		.loc 1 106 16
 771 0128 8146     		li	a3,0
 105:../src/platform/mpfs_hal/startup_gcc/system_startup.c ****         WFI_SM sm_check_thread = INIT_THREAD_PR;
 772              		.loc 1 105 25
 773 012a 17070000 		lla	a4,__stack_top_h0$-64
 773      13070700 
 774              	.LVL60:
 107:../src/platform/mpfs_hal/startup_gcc/system_startup.c ****         while( hart_id <= MPFS_HAL_LAST_HART)
 775              		.loc 1 107 17
 776 0132 8547     		li	a5,1
 777              	.LBB65:
 112:../src/platform/mpfs_hal/startup_gcc/system_startup.c ****             {
 778              		.loc 1 112 13
 779 0134 0948     		li	a6,2
 780              	.LBB61:
 781              	.LBB62:
 782              		.file 3 "/home/vinay/Desktop/softconsole_watershed/Water-shed/src/platform/mpfs_hal/common/mss_cli
   1:/home/vinay/Desktop/softconsole_watershed/Water-shed/src/platform/mpfs_hal/common/mss_clint.h **** /*******************************************************************************
   2:/home/vinay/Desktop/softconsole_watershed/Water-shed/src/platform/mpfs_hal/common/mss_clint.h ****  * Copyright 2019-2022 Microchip FPGA Embedded Systems Solutions.
   3:/home/vinay/Desktop/softconsole_watershed/Water-shed/src/platform/mpfs_hal/common/mss_clint.h ****  *
   4:/home/vinay/Desktop/softconsole_watershed/Water-shed/src/platform/mpfs_hal/common/mss_clint.h ****  * SPDX-License-Identifier: MIT
   5:/home/vinay/Desktop/softconsole_watershed/Water-shed/src/platform/mpfs_hal/common/mss_clint.h ****  *
   6:/home/vinay/Desktop/softconsole_watershed/Water-shed/src/platform/mpfs_hal/common/mss_clint.h ****  * MPFS HAL Embedded Software
   7:/home/vinay/Desktop/softconsole_watershed/Water-shed/src/platform/mpfs_hal/common/mss_clint.h ****  *
   8:/home/vinay/Desktop/softconsole_watershed/Water-shed/src/platform/mpfs_hal/common/mss_clint.h ****  */
   9:/home/vinay/Desktop/softconsole_watershed/Water-shed/src/platform/mpfs_hal/common/mss_clint.h **** 
  10:/home/vinay/Desktop/softconsole_watershed/Water-shed/src/platform/mpfs_hal/common/mss_clint.h **** /*******************************************************************************
  11:/home/vinay/Desktop/softconsole_watershed/Water-shed/src/platform/mpfs_hal/common/mss_clint.h ****  *
  12:/home/vinay/Desktop/softconsole_watershed/Water-shed/src/platform/mpfs_hal/common/mss_clint.h ****  * @file mss_clint.h
  13:/home/vinay/Desktop/softconsole_watershed/Water-shed/src/platform/mpfs_hal/common/mss_clint.h ****  * @author Microchip-FPGA Embedded Systems Solutions
  14:/home/vinay/Desktop/softconsole_watershed/Water-shed/src/platform/mpfs_hal/common/mss_clint.h ****  * @brief CLINT access data structures and functions.
  15:/home/vinay/Desktop/softconsole_watershed/Water-shed/src/platform/mpfs_hal/common/mss_clint.h ****  *
  16:/home/vinay/Desktop/softconsole_watershed/Water-shed/src/platform/mpfs_hal/common/mss_clint.h ****  */
  17:/home/vinay/Desktop/softconsole_watershed/Water-shed/src/platform/mpfs_hal/common/mss_clint.h **** #ifndef MSS_CLINT_H
  18:/home/vinay/Desktop/softconsole_watershed/Water-shed/src/platform/mpfs_hal/common/mss_clint.h **** #define MSS_CLINT_H
  19:/home/vinay/Desktop/softconsole_watershed/Water-shed/src/platform/mpfs_hal/common/mss_clint.h **** 
  20:/home/vinay/Desktop/softconsole_watershed/Water-shed/src/platform/mpfs_hal/common/mss_clint.h **** #include <stdint.h>
  21:/home/vinay/Desktop/softconsole_watershed/Water-shed/src/platform/mpfs_hal/common/mss_clint.h **** #include "encoding.h"
  22:/home/vinay/Desktop/softconsole_watershed/Water-shed/src/platform/mpfs_hal/common/mss_clint.h **** #include "atomic.h"
  23:/home/vinay/Desktop/softconsole_watershed/Water-shed/src/platform/mpfs_hal/common/mss_clint.h **** 
  24:/home/vinay/Desktop/softconsole_watershed/Water-shed/src/platform/mpfs_hal/common/mss_clint.h **** #ifdef __cplusplus
  25:/home/vinay/Desktop/softconsole_watershed/Water-shed/src/platform/mpfs_hal/common/mss_clint.h **** extern "C" {
  26:/home/vinay/Desktop/softconsole_watershed/Water-shed/src/platform/mpfs_hal/common/mss_clint.h **** #endif
  27:/home/vinay/Desktop/softconsole_watershed/Water-shed/src/platform/mpfs_hal/common/mss_clint.h **** 
  28:/home/vinay/Desktop/softconsole_watershed/Water-shed/src/platform/mpfs_hal/common/mss_clint.h **** #define RTC_PRESCALER 100U
  29:/home/vinay/Desktop/softconsole_watershed/Water-shed/src/platform/mpfs_hal/common/mss_clint.h **** #define SUCCESS 0U
  30:/home/vinay/Desktop/softconsole_watershed/Water-shed/src/platform/mpfs_hal/common/mss_clint.h **** #define ERROR   1U
  31:/home/vinay/Desktop/softconsole_watershed/Water-shed/src/platform/mpfs_hal/common/mss_clint.h **** 
  32:/home/vinay/Desktop/softconsole_watershed/Water-shed/src/platform/mpfs_hal/common/mss_clint.h **** 
  33:/home/vinay/Desktop/softconsole_watershed/Water-shed/src/platform/mpfs_hal/common/mss_clint.h **** /*==============================================================================
  34:/home/vinay/Desktop/softconsole_watershed/Water-shed/src/platform/mpfs_hal/common/mss_clint.h ****  * CLINT: Core Local Interrupter
  35:/home/vinay/Desktop/softconsole_watershed/Water-shed/src/platform/mpfs_hal/common/mss_clint.h ****  */
  36:/home/vinay/Desktop/softconsole_watershed/Water-shed/src/platform/mpfs_hal/common/mss_clint.h **** typedef struct CLINT_Type_t
  37:/home/vinay/Desktop/softconsole_watershed/Water-shed/src/platform/mpfs_hal/common/mss_clint.h **** {
  38:/home/vinay/Desktop/softconsole_watershed/Water-shed/src/platform/mpfs_hal/common/mss_clint.h ****     volatile uint32_t MSIP[5];
  39:/home/vinay/Desktop/softconsole_watershed/Water-shed/src/platform/mpfs_hal/common/mss_clint.h ****     volatile uint32_t reserved1[(0x4000U - 0x14U)/4U];
  40:/home/vinay/Desktop/softconsole_watershed/Water-shed/src/platform/mpfs_hal/common/mss_clint.h ****     volatile uint64_t MTIMECMP[5];  /* mtime compare value for each hart. When mtime equals this va
  41:/home/vinay/Desktop/softconsole_watershed/Water-shed/src/platform/mpfs_hal/common/mss_clint.h ****     volatile uint32_t reserved2[((0xbff8U - 0x4028U)/4U)];
  42:/home/vinay/Desktop/softconsole_watershed/Water-shed/src/platform/mpfs_hal/common/mss_clint.h ****     volatile uint64_t MTIME;    /* contains the current mtime value */
  43:/home/vinay/Desktop/softconsole_watershed/Water-shed/src/platform/mpfs_hal/common/mss_clint.h **** } CLINT_Type;
  44:/home/vinay/Desktop/softconsole_watershed/Water-shed/src/platform/mpfs_hal/common/mss_clint.h **** 
  45:/home/vinay/Desktop/softconsole_watershed/Water-shed/src/platform/mpfs_hal/common/mss_clint.h **** #define CLINT    ((CLINT_Type *)CLINT_BASE)
  46:/home/vinay/Desktop/softconsole_watershed/Water-shed/src/platform/mpfs_hal/common/mss_clint.h **** 
  47:/home/vinay/Desktop/softconsole_watershed/Water-shed/src/platform/mpfs_hal/common/mss_clint.h **** 
  48:/home/vinay/Desktop/softconsole_watershed/Water-shed/src/platform/mpfs_hal/common/mss_clint.h **** /*==============================================================================
  49:/home/vinay/Desktop/softconsole_watershed/Water-shed/src/platform/mpfs_hal/common/mss_clint.h ****  * The function raise_soft_interrupt() raises a synchronous software interrupt by
  50:/home/vinay/Desktop/softconsole_watershed/Water-shed/src/platform/mpfs_hal/common/mss_clint.h ****  * writing into the MSIP register.
  51:/home/vinay/Desktop/softconsole_watershed/Water-shed/src/platform/mpfs_hal/common/mss_clint.h ****  */
  52:/home/vinay/Desktop/softconsole_watershed/Water-shed/src/platform/mpfs_hal/common/mss_clint.h **** static inline void raise_soft_interrupt(unsigned long hart_id)
  53:/home/vinay/Desktop/softconsole_watershed/Water-shed/src/platform/mpfs_hal/common/mss_clint.h **** {
  54:/home/vinay/Desktop/softconsole_watershed/Water-shed/src/platform/mpfs_hal/common/mss_clint.h ****     /*You need to make sure that the global interrupt is enabled*/
  55:/home/vinay/Desktop/softconsole_watershed/Water-shed/src/platform/mpfs_hal/common/mss_clint.h ****     /*Note:  set_csr(mie, MIP_MSIP) needs to be set on hart you are setting sw interrupt */
  56:/home/vinay/Desktop/softconsole_watershed/Water-shed/src/platform/mpfs_hal/common/mss_clint.h ****     CLINT->MSIP[hart_id] = 0x01U;   /*raise soft interrupt for hart(x) where x== hart ID*/
 783              		.loc 3 56 26
 784 0136 B70E0002 		li	t4,33554432
 785 013a 8548     		li	a7,1
 786              	.LBE62:
 787              	.LBE61:
 148:../src/platform/mpfs_hal/startup_gcc/system_startup.c ****                     wait_count = 0UL;
 788              		.loc 1 148 37
 789 013c 0D43     		li	t1,3
 153:../src/platform/mpfs_hal/startup_gcc/system_startup.c ****                     {
 790              		.loc 1 153 23
 791 013e 13061632 		addi	a2,a2,801
 138:../src/platform/mpfs_hal/startup_gcc/system_startup.c ****                     {
 792              		.loc 1 138 23
 793 0142 93858567 		addi	a1,a1,1656
 126:../src/platform/mpfs_hal/startup_gcc/system_startup.c ****                             break;
 794              		.loc 1 126 39
 795 0146 170F0000 		lla	t5,__stack_top_h3$
 795      130F0F00 
 796 014e 914F     		li	t6,4
 129:../src/platform/mpfs_hal/startup_gcc/system_startup.c ****                             break;
 797              		.loc 1 129 39
 798 0150 97020000 		lla	t0,__stack_top_h4$
 798      93820200 
 123:../src/platform/mpfs_hal/startup_gcc/system_startup.c ****                             break;
 799              		.loc 1 123 39
 800 0158 97030000 		lla	t2,__stack_top_h2$
 800      93830300 
 120:../src/platform/mpfs_hal/startup_gcc/system_startup.c ****                             break;
 801              		.loc 1 120 39
 802 0160 97000000 		lla	ra,__stack_top_h1$
 802      93800000 
 803              	.LBE65:
 108:../src/platform/mpfs_hal/startup_gcc/system_startup.c ****         {
 804              		.loc 1 108 14
 805 0168 154E     		li	t3,5
 806              	.LVL61:
 807              	.L49:
 808              	.LBB66:
 110:../src/platform/mpfs_hal/startup_gcc/system_startup.c **** 
 809              		.loc 1 110 13 is_stmt 1
 112:../src/platform/mpfs_hal/startup_gcc/system_startup.c ****             {
 810              		.loc 1 112 13
 811 016a 6383060F 		beq	a3,a6,.L41
 812 016e 638D660E 		beq	a3,t1,.L42
 813 0172 6389160D 		beq	a3,a7,.L43
 117:../src/platform/mpfs_hal/startup_gcc/system_startup.c ****                     {
 814              		.loc 1 117 21
 126:../src/platform/mpfs_hal/startup_gcc/system_startup.c ****                             break;
 815              		.loc 1 126 39 is_stmt 0
 816 0176 7A87     		mv	a4,t5
 817              	.LVL62:
 818 0178 63896700 		beq	a5,t1,.L47
 129:../src/platform/mpfs_hal/startup_gcc/system_startup.c ****                             break;
 819              		.loc 1 129 39
 820 017c 1687     		mv	a4,t0
 821 017e 6386F701 		beq	a5,t6,.L47
 123:../src/platform/mpfs_hal/startup_gcc/system_startup.c ****                             break;
 822              		.loc 1 123 39
 823 0182 1E87     		mv	a4,t2
 824 0184 63830701 		beq	a5,a6,.L47
 120:../src/platform/mpfs_hal/startup_gcc/system_startup.c ****                             break;
 825              		.loc 1 120 29 is_stmt 1
 120:../src/platform/mpfs_hal/startup_gcc/system_startup.c ****                             break;
 826              		.loc 1 120 39 is_stmt 0
 827 0188 0687     		mv	a4,ra
 828              	.LVL63:
 121:../src/platform/mpfs_hal/startup_gcc/system_startup.c ****                         case 2:
 829              		.loc 1 121 29 is_stmt 1
 830              	.L47:
 132:../src/platform/mpfs_hal/startup_gcc/system_startup.c ****                     sm_check_thread = CHECK_WFI;
 831              		.loc 1 132 21
 132:../src/platform/mpfs_hal/startup_gcc/system_startup.c ****                     sm_check_thread = CHECK_WFI;
 832              		.loc 1 132 49 is_stmt 0
 833 018a 130707FC 		addi	a4,a4,-64
 834              	.LVL64:
 133:../src/platform/mpfs_hal/startup_gcc/system_startup.c ****                     wait_count = 0U;
 835              		.loc 1 133 21 is_stmt 1
 134:../src/platform/mpfs_hal/startup_gcc/system_startup.c ****                     break;
 836              		.loc 1 134 21
 135:../src/platform/mpfs_hal/startup_gcc/system_startup.c **** 
 837              		.loc 1 135 21
 133:../src/platform/mpfs_hal/startup_gcc/system_startup.c ****                     wait_count = 0U;
 838              		.loc 1 133 37 is_stmt 0
 839 018e 8546     		li	a3,1
 840              	.LVL65:
 841              	.L48:
 842              	.LBE66:
 108:../src/platform/mpfs_hal/startup_gcc/system_startup.c ****         {
 843              		.loc 1 108 14
 844 0190 E39DC7FD 		bne	a5,t3,.L49
 175:../src/platform/mpfs_hal/startup_gcc/system_startup.c ****         hls = (HLS_DATA*)(stack_top - HLS_DEBUG_AREA_SIZE);
 845              		.loc 1 175 9 is_stmt 1
 846              	.LVL66:
 176:../src/platform/mpfs_hal/startup_gcc/system_startup.c ****         hls->in_wfi_indicator = HLS_MAIN_HART_FIN_INIT;
 847              		.loc 1 176 9
 177:../src/platform/mpfs_hal/startup_gcc/system_startup.c **** 
 848              		.loc 1 177 9
 177:../src/platform/mpfs_hal/startup_gcc/system_startup.c **** 
 849              		.loc 1 177 31 is_stmt 0
 850 0194 B7575555 		li	a5,1431654400
 851              	.LVL67:
 852 0198 93875755 		addi	a5,a5,1365
 183:../src/platform/mpfs_hal/startup_gcc/system_startup.c ****         (void)mss_config_clk_rst(MSS_PERIPH_FIC1, (uint8_t)MPFS_HAL_FIRST_HART, PERIPHERAL_ON);
 853              		.loc 1 183 15
 854 019c 0146     		li	a2,0
 855 019e 8145     		li	a1,0
 856 01a0 13050002 		li	a0,32
 177:../src/platform/mpfs_hal/startup_gcc/system_startup.c **** 
 857              		.loc 1 177 31
 858 01a4 17070000 		sw	a5,__stack_top_h0$-64,a4
 858      2320F700 
 183:../src/platform/mpfs_hal/startup_gcc/system_startup.c ****         (void)mss_config_clk_rst(MSS_PERIPH_FIC1, (uint8_t)MPFS_HAL_FIRST_HART, PERIPHERAL_ON);
 859              		.loc 1 183 9 is_stmt 1
 183:../src/platform/mpfs_hal/startup_gcc/system_startup.c ****         (void)mss_config_clk_rst(MSS_PERIPH_FIC1, (uint8_t)MPFS_HAL_FIRST_HART, PERIPHERAL_ON);
 860              		.loc 1 183 15 is_stmt 0
 861 01ac 97000000 		call	mss_config_clk_rst
 861      E7800000 
 862              	.LVL68:
 184:../src/platform/mpfs_hal/startup_gcc/system_startup.c ****         (void)mss_config_clk_rst(MSS_PERIPH_FIC2, (uint8_t)MPFS_HAL_FIRST_HART, PERIPHERAL_ON);
 863              		.loc 1 184 9 is_stmt 1
 184:../src/platform/mpfs_hal/startup_gcc/system_startup.c ****         (void)mss_config_clk_rst(MSS_PERIPH_FIC2, (uint8_t)MPFS_HAL_FIRST_HART, PERIPHERAL_ON);
 864              		.loc 1 184 15 is_stmt 0
 865 01b4 0146     		li	a2,0
 866 01b6 8145     		li	a1,0
 867 01b8 13051002 		li	a0,33
 868 01bc 97000000 		call	mss_config_clk_rst
 868      E7800000 
 869              	.LVL69:
 185:../src/platform/mpfs_hal/startup_gcc/system_startup.c ****         (void)mss_config_clk_rst(MSS_PERIPH_FIC3, (uint8_t)MPFS_HAL_FIRST_HART, PERIPHERAL_ON);
 870              		.loc 1 185 9 is_stmt 1
 185:../src/platform/mpfs_hal/startup_gcc/system_startup.c ****         (void)mss_config_clk_rst(MSS_PERIPH_FIC3, (uint8_t)MPFS_HAL_FIRST_HART, PERIPHERAL_ON);
 871              		.loc 1 185 15 is_stmt 0
 872 01c4 0146     		li	a2,0
 873 01c6 8145     		li	a1,0
 874 01c8 13052002 		li	a0,34
 875 01cc 97000000 		call	mss_config_clk_rst
 875      E7800000 
 876              	.LVL70:
 186:../src/platform/mpfs_hal/startup_gcc/system_startup.c ****         /* enable the fabric */
 877              		.loc 1 186 9 is_stmt 1
 186:../src/platform/mpfs_hal/startup_gcc/system_startup.c ****         /* enable the fabric */
 878              		.loc 1 186 15 is_stmt 0
 879 01d4 0146     		li	a2,0
 880 01d6 8145     		li	a1,0
 881 01d8 13053002 		li	a0,35
 882 01dc 97000000 		call	mss_config_clk_rst
 882      E7800000 
 883              	.LVL71:
 188:../src/platform/mpfs_hal/startup_gcc/system_startup.c **** 
 884              		.loc 1 188 9 is_stmt 1
 885 01e4 97000000 		call	mss_enable_fabric
 885      E7800000 
 886              	.LVL72:
 191:../src/platform/mpfs_hal/startup_gcc/system_startup.c ****     }
 887              		.loc 1 191 9
 191:../src/platform/mpfs_hal/startup_gcc/system_startup.c ****     }
 888              		.loc 1 191 15 is_stmt 0
 889 01ec 17050000 		lla	a0,__stack_top_h0$-64
 889      13050500 
 890              	.LVL73:
 891 01f4 97000000 		call	main_other_hart
 891      E7800000 
 892              	.LVL74:
 893              	.LBE35:
 194:../src/platform/mpfs_hal/startup_gcc/system_startup.c ****     /* should never get here */
 894              		.loc 1 194 5 is_stmt 1
 895              	.L40:
 896              	.LBB69:
 897              	.LBB67:
 898              	.LBB59:
 899              	.LBB58:
 900              	.LBB57:
 818:/home/vinay/Desktop/softconsole_watershed/Water-shed/src/platform/mpfs_hal/common/mss_plic.h ****         wait_possible_int = 0xFU;
 901              		.loc 2 818 9
 902 01fc A246     		lw	a3,8(sp)
 903 01fe 8126     		sext.w	a3,a3
 904              	.LVL75:
 905              	.LBB53:
 906              	.LBB49:
 778:/home/vinay/Desktop/softconsole_watershed/Water-shed/src/platform/mpfs_hal/common/mss_plic.h **** 
 907              		.loc 2 778 5
 908              	.LBB47:
 778:/home/vinay/Desktop/softconsole_watershed/Water-shed/src/platform/mpfs_hal/common/mss_plic.h **** 
 909              		.loc 2 778 25
 778:/home/vinay/Desktop/softconsole_watershed/Water-shed/src/platform/mpfs_hal/common/mss_plic.h **** 
 910              		.loc 2 778 25
 911              	 #APP
 912              	# 778 "/home/vinay/Desktop/softconsole_watershed/Water-shed/src/platform/mpfs_hal/common/mss_plic.h
 913              		csrr a5, mhartid
 914              	# 0 "" 2
 915              	.LVL76:
 778:/home/vinay/Desktop/softconsole_watershed/Water-shed/src/platform/mpfs_hal/common/mss_plic.h **** 
 916              		.loc 2 778 25
