   1              		.file	"mss_ddr_debug.c"
   2              		.option nopic
   3              		.attribute arch, "rv64i2p0_m2p0_a2p0_f2p0_d2p0_c2p0"
   4              		.attribute unaligned_access, 0
   5              		.attribute stack_align, 16
   6              		.text
   7              	.Ltext0:
   8              		.cfi_sections	.debug_frame
   9              		.section	.text.ddr_write,"ax",@progbits
  10              		.align	1
  12              	ddr_write:
  13              	.LFB24:
  14              		.file 1 "../src/platform/mpfs_hal/common/nwc/mss_ddr_debug.c"
   1:../src/platform/mpfs_hal/common/nwc/mss_ddr_debug.c **** /*******************************************************************************
   2:../src/platform/mpfs_hal/common/nwc/mss_ddr_debug.c ****  * Copyright 2019-2022 Microchip FPGA Embedded Systems Solutions.
   3:../src/platform/mpfs_hal/common/nwc/mss_ddr_debug.c ****  *
   4:../src/platform/mpfs_hal/common/nwc/mss_ddr_debug.c ****  * SPDX-License-Identifier: MIT
   5:../src/platform/mpfs_hal/common/nwc/mss_ddr_debug.c ****  *
   6:../src/platform/mpfs_hal/common/nwc/mss_ddr_debug.c ****  * MPFS HAL Embedded Software
   7:../src/platform/mpfs_hal/common/nwc/mss_ddr_debug.c ****  *
   8:../src/platform/mpfs_hal/common/nwc/mss_ddr_debug.c ****  */
   9:../src/platform/mpfs_hal/common/nwc/mss_ddr_debug.c **** 
  10:../src/platform/mpfs_hal/common/nwc/mss_ddr_debug.c **** /*******************************************************************************
  11:../src/platform/mpfs_hal/common/nwc/mss_ddr_debug.c ****  * @file mss_ddr_debug.h
  12:../src/platform/mpfs_hal/common/nwc/mss_ddr_debug.c ****  * @author Microchip FPGA Embedded Systems Solutions
  13:../src/platform/mpfs_hal/common/nwc/mss_ddr_debug.c ****  * @brief DDR write and read test functions
  14:../src/platform/mpfs_hal/common/nwc/mss_ddr_debug.c ****  *
  15:../src/platform/mpfs_hal/common/nwc/mss_ddr_debug.c ****  */
  16:../src/platform/mpfs_hal/common/nwc/mss_ddr_debug.c **** 
  17:../src/platform/mpfs_hal/common/nwc/mss_ddr_debug.c **** #include <stdio.h>
  18:../src/platform/mpfs_hal/common/nwc/mss_ddr_debug.c **** #include <stdlib.h>
  19:../src/platform/mpfs_hal/common/nwc/mss_ddr_debug.c **** #include <string.h>
  20:../src/platform/mpfs_hal/common/nwc/mss_ddr_debug.c **** #include "mpfs_hal/mss_hal.h"
  21:../src/platform/mpfs_hal/common/nwc/mss_ddr_debug.c **** #include "mss_nwc_init.h"
  22:../src/platform/mpfs_hal/common/nwc/mss_ddr_debug.c **** 
  23:../src/platform/mpfs_hal/common/nwc/mss_ddr_debug.c **** /*******************************************************************************
  24:../src/platform/mpfs_hal/common/nwc/mss_ddr_debug.c ****  * Local Defines
  25:../src/platform/mpfs_hal/common/nwc/mss_ddr_debug.c ****  */
  26:../src/platform/mpfs_hal/common/nwc/mss_ddr_debug.c **** #define DDR_BASE            0x80000000u
  27:../src/platform/mpfs_hal/common/nwc/mss_ddr_debug.c **** #define DDR_SIZE            0x40000000u
  28:../src/platform/mpfs_hal/common/nwc/mss_ddr_debug.c **** 
  29:../src/platform/mpfs_hal/common/nwc/mss_ddr_debug.c **** #define PDMA_CHANNEL0_BASE_ADDRESS  0x3000000ULL
  30:../src/platform/mpfs_hal/common/nwc/mss_ddr_debug.c **** #define PDMA_CHANNEL1_BASE_ADDRESS  0x3001000ULL
  31:../src/platform/mpfs_hal/common/nwc/mss_ddr_debug.c **** #define PDMA_CHANNEL2_BASE_ADDRESS  0x3002000ULL
  32:../src/platform/mpfs_hal/common/nwc/mss_ddr_debug.c **** #define PDMA_CHANNEL3_BASE_ADDRESS  0x3003000ULL
  33:../src/platform/mpfs_hal/common/nwc/mss_ddr_debug.c **** 
  34:../src/platform/mpfs_hal/common/nwc/mss_ddr_debug.c **** const char *progress[3] = {"|\r", "/\r", "-\r"};
  35:../src/platform/mpfs_hal/common/nwc/mss_ddr_debug.c **** typedef void(*pattern_fct_t)(void);
  36:../src/platform/mpfs_hal/common/nwc/mss_ddr_debug.c **** static uint32_t g_test_buffer_cached[765];
  37:../src/platform/mpfs_hal/common/nwc/mss_ddr_debug.c **** static uint32_t g_test_buffer_not_cached[765];
  38:../src/platform/mpfs_hal/common/nwc/mss_ddr_debug.c **** 
  39:../src/platform/mpfs_hal/common/nwc/mss_ddr_debug.c **** /*******************************************************************************
  40:../src/platform/mpfs_hal/common/nwc/mss_ddr_debug.c ****  * External Defines
  41:../src/platform/mpfs_hal/common/nwc/mss_ddr_debug.c ****  */
  42:../src/platform/mpfs_hal/common/nwc/mss_ddr_debug.c **** extern const uint32_t ddr_test_pattern[768];
  43:../src/platform/mpfs_hal/common/nwc/mss_ddr_debug.c **** 
  44:../src/platform/mpfs_hal/common/nwc/mss_ddr_debug.c **** /*******************************************************************************
  45:../src/platform/mpfs_hal/common/nwc/mss_ddr_debug.c ****  * External function declarations
  46:../src/platform/mpfs_hal/common/nwc/mss_ddr_debug.c ****  */
  47:../src/platform/mpfs_hal/common/nwc/mss_ddr_debug.c **** extern void pdma_transfer(uint64_t destination, uint64_t source, uint64_t size_in_bytes, uint64_t b
  48:../src/platform/mpfs_hal/common/nwc/mss_ddr_debug.c **** extern void pdma_transfer_complete( uint64_t base_address);
  49:../src/platform/mpfs_hal/common/nwc/mss_ddr_debug.c **** 
  50:../src/platform/mpfs_hal/common/nwc/mss_ddr_debug.c **** /*******************************************************************************
  51:../src/platform/mpfs_hal/common/nwc/mss_ddr_debug.c ****  * Local data declarations
  52:../src/platform/mpfs_hal/common/nwc/mss_ddr_debug.c ****  */
  53:../src/platform/mpfs_hal/common/nwc/mss_ddr_debug.c **** #ifdef DEBUG_DDR_INIT
  54:../src/platform/mpfs_hal/common/nwc/mss_ddr_debug.c **** mss_uart_instance_t *g_debug_uart;
  55:../src/platform/mpfs_hal/common/nwc/mss_ddr_debug.c **** #endif
  56:../src/platform/mpfs_hal/common/nwc/mss_ddr_debug.c **** 
  57:../src/platform/mpfs_hal/common/nwc/mss_ddr_debug.c **** uint64_t ddr_test;
  58:../src/platform/mpfs_hal/common/nwc/mss_ddr_debug.c **** 
  59:../src/platform/mpfs_hal/common/nwc/mss_ddr_debug.c **** /*******************************************************************************
  60:../src/platform/mpfs_hal/common/nwc/mss_ddr_debug.c ****  * Local function declarations
  61:../src/platform/mpfs_hal/common/nwc/mss_ddr_debug.c ****  */
  62:../src/platform/mpfs_hal/common/nwc/mss_ddr_debug.c **** static uint32_t ddr_write ( volatile uint64_t *DDR_word_ptr,\
  63:../src/platform/mpfs_hal/common/nwc/mss_ddr_debug.c ****         uint32_t no_of_access, uint8_t data_ptrn, DDR_ACCESS_SIZE data_size );
  64:../src/platform/mpfs_hal/common/nwc/mss_ddr_debug.c **** static uint32_t ddr_read ( volatile uint64_t *DDR_word_ptr,\
  65:../src/platform/mpfs_hal/common/nwc/mss_ddr_debug.c ****         uint32_t no_of_access, uint8_t data_ptrn,  DDR_ACCESS_SIZE data_size );
  66:../src/platform/mpfs_hal/common/nwc/mss_ddr_debug.c **** static void load_test_buffers(uint32_t * p_cached_ddr,\
  67:../src/platform/mpfs_hal/common/nwc/mss_ddr_debug.c ****         uint32_t * p_not_cached_ddr, uint64_t length);
  68:../src/platform/mpfs_hal/common/nwc/mss_ddr_debug.c **** 
  69:../src/platform/mpfs_hal/common/nwc/mss_ddr_debug.c **** #ifdef HSS
  70:../src/platform/mpfs_hal/common/nwc/mss_ddr_debug.c **** __attribute__((weak)) int rand(void)
  71:../src/platform/mpfs_hal/common/nwc/mss_ddr_debug.c **** {
  72:../src/platform/mpfs_hal/common/nwc/mss_ddr_debug.c ****     return(0);
  73:../src/platform/mpfs_hal/common/nwc/mss_ddr_debug.c **** }
  74:../src/platform/mpfs_hal/common/nwc/mss_ddr_debug.c **** #endif
  75:../src/platform/mpfs_hal/common/nwc/mss_ddr_debug.c **** 
  76:../src/platform/mpfs_hal/common/nwc/mss_ddr_debug.c **** #ifdef DEBUG_DDR_INIT
  77:../src/platform/mpfs_hal/common/nwc/mss_ddr_debug.c **** /***************************************************************************//**
  78:../src/platform/mpfs_hal/common/nwc/mss_ddr_debug.c ****  * Setup serial port if DDR debug required during start-up
  79:../src/platform/mpfs_hal/common/nwc/mss_ddr_debug.c ****  * @param uart Ref to uart you want to use
  80:../src/platform/mpfs_hal/common/nwc/mss_ddr_debug.c ****  * @return
  81:../src/platform/mpfs_hal/common/nwc/mss_ddr_debug.c ****  */
  82:../src/platform/mpfs_hal/common/nwc/mss_ddr_debug.c **** 
  83:../src/platform/mpfs_hal/common/nwc/mss_ddr_debug.c **** __attribute__((weak))\
  84:../src/platform/mpfs_hal/common/nwc/mss_ddr_debug.c ****         uint32_t setup_ddr_debug_port(mss_uart_instance_t * uart)
  85:../src/platform/mpfs_hal/common/nwc/mss_ddr_debug.c **** {
  86:../src/platform/mpfs_hal/common/nwc/mss_ddr_debug.c **** #ifdef DEBUG_DDR_INIT
  87:../src/platform/mpfs_hal/common/nwc/mss_ddr_debug.c ****     /* Turn on UART0 clock */
  88:../src/platform/mpfs_hal/common/nwc/mss_ddr_debug.c ****     SYSREG->SUBBLK_CLOCK_CR |= (SUBBLK_CLOCK_CR_MMUART0_MASK);
  89:../src/platform/mpfs_hal/common/nwc/mss_ddr_debug.c ****     /* Remove soft reset */
  90:../src/platform/mpfs_hal/common/nwc/mss_ddr_debug.c ****     SYSREG->SOFT_RESET_CR   &= (uint32_t)(~SUBBLK_CLOCK_CR_MMUART0_MASK);
  91:../src/platform/mpfs_hal/common/nwc/mss_ddr_debug.c ****     MSS_UART_init( uart,
  92:../src/platform/mpfs_hal/common/nwc/mss_ddr_debug.c ****         MSS_UART_115200_BAUD,
  93:../src/platform/mpfs_hal/common/nwc/mss_ddr_debug.c ****             MSS_UART_DATA_8_BITS | MSS_UART_NO_PARITY | MSS_UART_ONE_STOP_BIT);
  94:../src/platform/mpfs_hal/common/nwc/mss_ddr_debug.c ****     return(0U);
  95:../src/platform/mpfs_hal/common/nwc/mss_ddr_debug.c **** #endif
  96:../src/platform/mpfs_hal/common/nwc/mss_ddr_debug.c **** }
  97:../src/platform/mpfs_hal/common/nwc/mss_ddr_debug.c **** 
  98:../src/platform/mpfs_hal/common/nwc/mss_ddr_debug.c **** 
  99:../src/platform/mpfs_hal/common/nwc/mss_ddr_debug.c **** /***************************************************************************//**
 100:../src/platform/mpfs_hal/common/nwc/mss_ddr_debug.c ****  * Print in number hex format
 101:../src/platform/mpfs_hal/common/nwc/mss_ddr_debug.c ****  * @param uart
 102:../src/platform/mpfs_hal/common/nwc/mss_ddr_debug.c ****  * @param b
 103:../src/platform/mpfs_hal/common/nwc/mss_ddr_debug.c ****  */
 104:../src/platform/mpfs_hal/common/nwc/mss_ddr_debug.c **** 
 105:../src/platform/mpfs_hal/common/nwc/mss_ddr_debug.c **** static void dumpbyte(mss_uart_instance_t * uart, uint8_t b)
 106:../src/platform/mpfs_hal/common/nwc/mss_ddr_debug.c **** {
 107:../src/platform/mpfs_hal/common/nwc/mss_ddr_debug.c **** #ifdef DEBUG_DDR_INIT
 108:../src/platform/mpfs_hal/common/nwc/mss_ddr_debug.c ****     const uint8_t hexchrs[] = { '0','1','2','3','4','5','6','7','8','9','A','B',\
 109:../src/platform/mpfs_hal/common/nwc/mss_ddr_debug.c ****             'C','D','E','F' };
 110:../src/platform/mpfs_hal/common/nwc/mss_ddr_debug.c ****     MSS_UART_polled_tx(uart, &hexchrs[b >> 4u] , 1);
 111:../src/platform/mpfs_hal/common/nwc/mss_ddr_debug.c ****     MSS_UART_polled_tx(uart, &hexchrs[b & 0x0fu] , 1);
 112:../src/platform/mpfs_hal/common/nwc/mss_ddr_debug.c **** #endif
 113:../src/platform/mpfs_hal/common/nwc/mss_ddr_debug.c **** }
 114:../src/platform/mpfs_hal/common/nwc/mss_ddr_debug.c **** 
 115:../src/platform/mpfs_hal/common/nwc/mss_ddr_debug.c **** /***************************************************************************//**
 116:../src/platform/mpfs_hal/common/nwc/mss_ddr_debug.c ****  *
 117:../src/platform/mpfs_hal/common/nwc/mss_ddr_debug.c ****  * @param uart
 118:../src/platform/mpfs_hal/common/nwc/mss_ddr_debug.c ****  * @param msg
 119:../src/platform/mpfs_hal/common/nwc/mss_ddr_debug.c ****  * @param d
 120:../src/platform/mpfs_hal/common/nwc/mss_ddr_debug.c ****  */
 121:../src/platform/mpfs_hal/common/nwc/mss_ddr_debug.c **** __attribute__((weak))\
 122:../src/platform/mpfs_hal/common/nwc/mss_ddr_debug.c ****         void uprint32(mss_uart_instance_t * uart, const char* msg, uint32_t d)
 123:../src/platform/mpfs_hal/common/nwc/mss_ddr_debug.c **** {
 124:../src/platform/mpfs_hal/common/nwc/mss_ddr_debug.c ****     MSS_UART_polled_tx_string(uart, (const uint8_t *)msg);
 125:../src/platform/mpfs_hal/common/nwc/mss_ddr_debug.c ****     for (unsigned i=0; i < 4; i++)
 126:../src/platform/mpfs_hal/common/nwc/mss_ddr_debug.c ****     {
 127:../src/platform/mpfs_hal/common/nwc/mss_ddr_debug.c ****         dumpbyte(uart, (d >> (8*(3-i))) & 0xffu);
 128:../src/platform/mpfs_hal/common/nwc/mss_ddr_debug.c ****     }
 129:../src/platform/mpfs_hal/common/nwc/mss_ddr_debug.c **** }
 130:../src/platform/mpfs_hal/common/nwc/mss_ddr_debug.c **** 
 131:../src/platform/mpfs_hal/common/nwc/mss_ddr_debug.c **** /***************************************************************************//**
 132:../src/platform/mpfs_hal/common/nwc/mss_ddr_debug.c ****  *
 133:../src/platform/mpfs_hal/common/nwc/mss_ddr_debug.c ****  * @param uart
 134:../src/platform/mpfs_hal/common/nwc/mss_ddr_debug.c ****  * @param msg
 135:../src/platform/mpfs_hal/common/nwc/mss_ddr_debug.c ****  * @param d
 136:../src/platform/mpfs_hal/common/nwc/mss_ddr_debug.c ****  */
 137:../src/platform/mpfs_hal/common/nwc/mss_ddr_debug.c **** __attribute__((weak))\
 138:../src/platform/mpfs_hal/common/nwc/mss_ddr_debug.c ****         void uprint64(mss_uart_instance_t * uart, const char* msg, uint64_t d)
 139:../src/platform/mpfs_hal/common/nwc/mss_ddr_debug.c **** {
 140:../src/platform/mpfs_hal/common/nwc/mss_ddr_debug.c ****     MSS_UART_polled_tx_string(uart, (const uint8_t *)msg);
 141:../src/platform/mpfs_hal/common/nwc/mss_ddr_debug.c ****     for (unsigned i=4; i < 8; i++)
 142:../src/platform/mpfs_hal/common/nwc/mss_ddr_debug.c ****     {
 143:../src/platform/mpfs_hal/common/nwc/mss_ddr_debug.c ****         dumpbyte(uart, (d >> (8*(3-i))) & 0xffu);
 144:../src/platform/mpfs_hal/common/nwc/mss_ddr_debug.c ****     }
 145:../src/platform/mpfs_hal/common/nwc/mss_ddr_debug.c ****     for (unsigned i=0; i < 4; i++)
 146:../src/platform/mpfs_hal/common/nwc/mss_ddr_debug.c ****     {
 147:../src/platform/mpfs_hal/common/nwc/mss_ddr_debug.c ****         dumpbyte(uart, (d >> (8*(3-i))) & 0xffu);
 148:../src/platform/mpfs_hal/common/nwc/mss_ddr_debug.c ****     }
 149:../src/platform/mpfs_hal/common/nwc/mss_ddr_debug.c **** }
 150:../src/platform/mpfs_hal/common/nwc/mss_ddr_debug.c **** 
 151:../src/platform/mpfs_hal/common/nwc/mss_ddr_debug.c **** /***************************************************************************//**
 152:../src/platform/mpfs_hal/common/nwc/mss_ddr_debug.c ****  *
 153:../src/platform/mpfs_hal/common/nwc/mss_ddr_debug.c ****  * @param uart
 154:../src/platform/mpfs_hal/common/nwc/mss_ddr_debug.c ****  * @param msg
 155:../src/platform/mpfs_hal/common/nwc/mss_ddr_debug.c ****  */
 156:../src/platform/mpfs_hal/common/nwc/mss_ddr_debug.c **** __attribute__((weak))\
 157:../src/platform/mpfs_hal/common/nwc/mss_ddr_debug.c ****         void uprint(mss_uart_instance_t * uart, const char* msg)
 158:../src/platform/mpfs_hal/common/nwc/mss_ddr_debug.c **** {
 159:../src/platform/mpfs_hal/common/nwc/mss_ddr_debug.c ****     MSS_UART_polled_tx_string(uart, (const uint8_t *)msg);
 160:../src/platform/mpfs_hal/common/nwc/mss_ddr_debug.c **** }
 161:../src/platform/mpfs_hal/common/nwc/mss_ddr_debug.c **** 
 162:../src/platform/mpfs_hal/common/nwc/mss_ddr_debug.c **** /***************************************************************************//**
 163:../src/platform/mpfs_hal/common/nwc/mss_ddr_debug.c ****  * dump a number of 32bit contiguous registers
 164:../src/platform/mpfs_hal/common/nwc/mss_ddr_debug.c ****  * @param uart
 165:../src/platform/mpfs_hal/common/nwc/mss_ddr_debug.c ****  * @param reg_pointer
 166:../src/platform/mpfs_hal/common/nwc/mss_ddr_debug.c ****  * @param no_of_regs
 167:../src/platform/mpfs_hal/common/nwc/mss_ddr_debug.c ****  */
 168:../src/platform/mpfs_hal/common/nwc/mss_ddr_debug.c **** void print_reg_array(mss_uart_instance_t * uart, uint32_t *reg_pointer,\
 169:../src/platform/mpfs_hal/common/nwc/mss_ddr_debug.c ****         uint32_t no_of_regs)
 170:../src/platform/mpfs_hal/common/nwc/mss_ddr_debug.c **** {
 171:../src/platform/mpfs_hal/common/nwc/mss_ddr_debug.c **** #ifdef DEBUG_DDR_INIT
 172:../src/platform/mpfs_hal/common/nwc/mss_ddr_debug.c ****     while(no_of_regs > 0U)
 173:../src/platform/mpfs_hal/common/nwc/mss_ddr_debug.c ****     {
 174:../src/platform/mpfs_hal/common/nwc/mss_ddr_debug.c ****         uprint64(uart, "\n\rRegister, 0x", (uint64_t)reg_pointer);
 175:../src/platform/mpfs_hal/common/nwc/mss_ddr_debug.c ****         uprint32(uart, "  ,Value, 0x", *reg_pointer);
 176:../src/platform/mpfs_hal/common/nwc/mss_ddr_debug.c ****         reg_pointer++;
 177:../src/platform/mpfs_hal/common/nwc/mss_ddr_debug.c ****         no_of_regs--;
 178:../src/platform/mpfs_hal/common/nwc/mss_ddr_debug.c ****     }
 179:../src/platform/mpfs_hal/common/nwc/mss_ddr_debug.c **** #endif
 180:../src/platform/mpfs_hal/common/nwc/mss_ddr_debug.c **** }
 181:../src/platform/mpfs_hal/common/nwc/mss_ddr_debug.c **** 
 182:../src/platform/mpfs_hal/common/nwc/mss_ddr_debug.c **** #endif
 183:../src/platform/mpfs_hal/common/nwc/mss_ddr_debug.c **** 
 184:../src/platform/mpfs_hal/common/nwc/mss_ddr_debug.c **** /***************************************************************************//**
 185:../src/platform/mpfs_hal/common/nwc/mss_ddr_debug.c ****  * Write data to DDR
 186:../src/platform/mpfs_hal/common/nwc/mss_ddr_debug.c ****  * @param DDR_word_ptr
 187:../src/platform/mpfs_hal/common/nwc/mss_ddr_debug.c ****  * @param no_of_access
 188:../src/platform/mpfs_hal/common/nwc/mss_ddr_debug.c ****  * @param data_ptrn
 189:../src/platform/mpfs_hal/common/nwc/mss_ddr_debug.c ****  * @return
 190:../src/platform/mpfs_hal/common/nwc/mss_ddr_debug.c ****  */
 191:../src/platform/mpfs_hal/common/nwc/mss_ddr_debug.c **** static uint32_t ddr_write
 192:../src/platform/mpfs_hal/common/nwc/mss_ddr_debug.c **** (
 193:../src/platform/mpfs_hal/common/nwc/mss_ddr_debug.c ****     volatile uint64_t *DDR_word_ptr,
 194:../src/platform/mpfs_hal/common/nwc/mss_ddr_debug.c ****     uint32_t no_of_access,
 195:../src/platform/mpfs_hal/common/nwc/mss_ddr_debug.c ****     uint8_t data_ptrn,
 196:../src/platform/mpfs_hal/common/nwc/mss_ddr_debug.c ****     DDR_ACCESS_SIZE data_size
 197:../src/platform/mpfs_hal/common/nwc/mss_ddr_debug.c **** )
 198:../src/platform/mpfs_hal/common/nwc/mss_ddr_debug.c **** {
  15              		.loc 1 198 1
  16              		.cfi_startproc
  17              	.LVL0:
 199:../src/platform/mpfs_hal/common/nwc/mss_ddr_debug.c ****     uint32_t i;
  18              		.loc 1 199 5
 200:../src/platform/mpfs_hal/common/nwc/mss_ddr_debug.c ****     uint64_t DATA;
  19              		.loc 1 200 5
 201:../src/platform/mpfs_hal/common/nwc/mss_ddr_debug.c ****     uint32_t error_count = 0U;
  20              		.loc 1 201 5
 202:../src/platform/mpfs_hal/common/nwc/mss_ddr_debug.c **** 
 203:../src/platform/mpfs_hal/common/nwc/mss_ddr_debug.c ****     uint32_t *DDR_32_ptr = (uint32_t *)DDR_word_ptr;
  21              		.loc 1 203 5
 198:../src/platform/mpfs_hal/common/nwc/mss_ddr_debug.c ****     uint32_t i;
  22              		.loc 1 198 1 is_stmt 0
  23 0000 5971     		addi	sp,sp,-112
  24              		.cfi_def_cfa_offset 112
  25 0002 A2F0     		sd	s0,96(sp)
  26 0004 A6EC     		sd	s1,88(sp)
  27 0006 62F0     		sd	s8,32(sp)
  28 0008 66EC     		sd	s9,24(sp)
  29 000a 86F4     		sd	ra,104(sp)
  30 000c CAE8     		sd	s2,80(sp)
  31 000e CEE4     		sd	s3,72(sp)
  32 0010 D2E0     		sd	s4,64(sp)
  33 0012 56FC     		sd	s5,56(sp)
  34 0014 5AF8     		sd	s6,48(sp)
  35 0016 5EF4     		sd	s7,40(sp)
  36 0018 6AE8     		sd	s10,16(sp)
  37 001a 6EE4     		sd	s11,8(sp)
  38              		.cfi_offset 8, -16
  39              		.cfi_offset 9, -24
  40              		.cfi_offset 24, -80
  41              		.cfi_offset 25, -88
  42              		.cfi_offset 1, -8
  43              		.cfi_offset 18, -32
  44              		.cfi_offset 19, -40
  45              		.cfi_offset 20, -48
  46              		.cfi_offset 21, -56
  47              		.cfi_offset 22, -64
  48              		.cfi_offset 23, -72
  49              		.cfi_offset 26, -96
  50              		.cfi_offset 27, -104
 204:../src/platform/mpfs_hal/common/nwc/mss_ddr_debug.c ****     uint16_t *DDR_16_ptr = (uint16_t *)DDR_word_ptr;
 205:../src/platform/mpfs_hal/common/nwc/mss_ddr_debug.c ****     uint8_t *DDR_8_ptr   = (uint8_t *)DDR_word_ptr;
 206:../src/platform/mpfs_hal/common/nwc/mss_ddr_debug.c **** 
 207:../src/platform/mpfs_hal/common/nwc/mss_ddr_debug.c ****     switch (data_ptrn)
  51              		.loc 1 207 5
  52 001c A147     		li	a5,8
 198:../src/platform/mpfs_hal/common/nwc/mss_ddr_debug.c ****     uint32_t i;
  53              		.loc 1 198 1
  54 001e AA84     		mv	s1,a0
  55              	.LVL1:
 204:../src/platform/mpfs_hal/common/nwc/mss_ddr_debug.c ****     uint16_t *DDR_16_ptr = (uint16_t *)DDR_word_ptr;
  56              		.loc 1 204 5 is_stmt 1
 205:../src/platform/mpfs_hal/common/nwc/mss_ddr_debug.c **** 
  57              		.loc 1 205 5
  58              		.loc 1 207 5
 198:../src/platform/mpfs_hal/common/nwc/mss_ddr_debug.c ****     uint32_t i;
  59              		.loc 1 198 1 is_stmt 0
  60 0020 2E8C     		mv	s8,a1
  61 0022 3284     		mv	s0,a2
  62 0024 B68C     		mv	s9,a3
  63              		.loc 1 207 5
  64 0026 630DF606 		beq	a2,a5,.L2
  65 002a 63EFC704 		bgtu	a2,a5,.L3
  66 002e 8947     		li	a5,2
 208:../src/platform/mpfs_hal/common/nwc/mss_ddr_debug.c ****     {
 209:../src/platform/mpfs_hal/common/nwc/mss_ddr_debug.c ****         case PATTERN_INCREMENTAL : DATA = 0x00000000; break;
 210:../src/platform/mpfs_hal/common/nwc/mss_ddr_debug.c ****         case PATTERN_WALKING_ONE : DATA = 0x00000001; break;
  67              		.loc 1 210 41
  68 0030 0545     		li	a0,1
  69              	.LVL2:
 207:../src/platform/mpfs_hal/common/nwc/mss_ddr_debug.c ****     {
  70              		.loc 1 207 5
  71 0032 6307F600 		beq	a2,a5,.L4
  72 0036 9147     		li	a5,4
 211:../src/platform/mpfs_hal/common/nwc/mss_ddr_debug.c ****         case PATTERN_WALKING_ZERO : DATA = 0x01;
 212:../src/platform/mpfs_hal/common/nwc/mss_ddr_debug.c ****                  DATA = ~ DATA; break;
  73              		.loc 1 212 23
  74 0038 7955     		li	a0,-2
 207:../src/platform/mpfs_hal/common/nwc/mss_ddr_debug.c ****     {
  75              		.loc 1 207 5
  76 003a 6303F600 		beq	a2,a5,.L4
  77              	.L26:
 209:../src/platform/mpfs_hal/common/nwc/mss_ddr_debug.c ****         case PATTERN_WALKING_ONE : DATA = 0x00000001; break;
  78              		.loc 1 209 41
  79 003e 0145     		li	a0,0
  80              	.LVL3:
  81              	.L4:
 213:../src/platform/mpfs_hal/common/nwc/mss_ddr_debug.c ****         case PATTERN_RANDOM :
 214:../src/platform/mpfs_hal/common/nwc/mss_ddr_debug.c ****             DATA = (uint64_t)rand ( );
 215:../src/platform/mpfs_hal/common/nwc/mss_ddr_debug.c ****             break;
 216:../src/platform/mpfs_hal/common/nwc/mss_ddr_debug.c ****         case PATTERN_0xCCCCCCCC :
 217:../src/platform/mpfs_hal/common/nwc/mss_ddr_debug.c ****             DATA = 0xCCCCCCCCCCCCCCCC;
 218:../src/platform/mpfs_hal/common/nwc/mss_ddr_debug.c ****             break;
 219:../src/platform/mpfs_hal/common/nwc/mss_ddr_debug.c ****         case PATTERN_0x55555555 :
 220:../src/platform/mpfs_hal/common/nwc/mss_ddr_debug.c ****             DATA = 0x5555555555555555;
 221:../src/platform/mpfs_hal/common/nwc/mss_ddr_debug.c ****             break;
 222:../src/platform/mpfs_hal/common/nwc/mss_ddr_debug.c ****         case PATTERN_ZEROS :
 223:../src/platform/mpfs_hal/common/nwc/mss_ddr_debug.c ****             DATA = 0x00000000;
 224:../src/platform/mpfs_hal/common/nwc/mss_ddr_debug.c ****             break;
 225:../src/platform/mpfs_hal/common/nwc/mss_ddr_debug.c ****         default :
 226:../src/platform/mpfs_hal/common/nwc/mss_ddr_debug.c ****             DATA = 0x00000000;
 227:../src/platform/mpfs_hal/common/nwc/mss_ddr_debug.c ****             break;
 228:../src/platform/mpfs_hal/common/nwc/mss_ddr_debug.c ****     }
 229:../src/platform/mpfs_hal/common/nwc/mss_ddr_debug.c **** 
 230:../src/platform/mpfs_hal/common/nwc/mss_ddr_debug.c ****     for( i = 0; i< (no_of_access); i++)
 231:../src/platform/mpfs_hal/common/nwc/mss_ddr_debug.c ****     {
 232:../src/platform/mpfs_hal/common/nwc/mss_ddr_debug.c ****         switch(data_size)
 233:../src/platform/mpfs_hal/common/nwc/mss_ddr_debug.c ****         {
 234:../src/platform/mpfs_hal/common/nwc/mss_ddr_debug.c ****             case DDR_8_BIT:
 235:../src/platform/mpfs_hal/common/nwc/mss_ddr_debug.c ****                 DATA &= 0xFFUL;
 236:../src/platform/mpfs_hal/common/nwc/mss_ddr_debug.c ****                 *DDR_8_ptr = (uint8_t)DATA;
 237:../src/platform/mpfs_hal/common/nwc/mss_ddr_debug.c ****                 DDR_8_ptr = DDR_8_ptr + 1;
 238:../src/platform/mpfs_hal/common/nwc/mss_ddr_debug.c ****                 break;
 239:../src/platform/mpfs_hal/common/nwc/mss_ddr_debug.c ****             case DDR_16_BIT:
 240:../src/platform/mpfs_hal/common/nwc/mss_ddr_debug.c ****                 DATA &= 0xFFFFUL;
 241:../src/platform/mpfs_hal/common/nwc/mss_ddr_debug.c ****                 *DDR_16_ptr = (uint16_t)DATA;
 242:../src/platform/mpfs_hal/common/nwc/mss_ddr_debug.c ****                 DDR_16_ptr = DDR_16_ptr + 1;
 243:../src/platform/mpfs_hal/common/nwc/mss_ddr_debug.c ****                 break;
 244:../src/platform/mpfs_hal/common/nwc/mss_ddr_debug.c ****             case DDR_32_BIT:
 245:../src/platform/mpfs_hal/common/nwc/mss_ddr_debug.c ****                 DATA &= 0xFFFFFFFFUL;
  82              		.loc 1 245 22 discriminator 1
  83 0040 7D5A     		li	s4,-1
 246:../src/platform/mpfs_hal/common/nwc/mss_ddr_debug.c ****                 *DDR_32_ptr = (uint32_t)DATA;
 247:../src/platform/mpfs_hal/common/nwc/mss_ddr_debug.c ****                 DDR_32_ptr = DDR_32_ptr + 1;
 248:../src/platform/mpfs_hal/common/nwc/mss_ddr_debug.c ****                 break;
 249:../src/platform/mpfs_hal/common/nwc/mss_ddr_debug.c ****             default:
 250:../src/platform/mpfs_hal/common/nwc/mss_ddr_debug.c ****             case DDR_64_BIT:
 251:../src/platform/mpfs_hal/common/nwc/mss_ddr_debug.c ****                 *DDR_word_ptr = DATA;
 252:../src/platform/mpfs_hal/common/nwc/mss_ddr_debug.c ****                 DDR_word_ptr = DDR_word_ptr + 1;
 253:../src/platform/mpfs_hal/common/nwc/mss_ddr_debug.c ****                 break;
 254:../src/platform/mpfs_hal/common/nwc/mss_ddr_debug.c ****         }
 255:../src/platform/mpfs_hal/common/nwc/mss_ddr_debug.c **** 
 256:../src/platform/mpfs_hal/common/nwc/mss_ddr_debug.c **** #ifdef DEBUG_DDR_INIT
 257:../src/platform/mpfs_hal/common/nwc/mss_ddr_debug.c ****         if((i%0x1000000UL) ==0UL)
 258:../src/platform/mpfs_hal/common/nwc/mss_ddr_debug.c ****         {
 259:../src/platform/mpfs_hal/common/nwc/mss_ddr_debug.c ****             MSS_UART_polled_tx(g_debug_uart, (const uint8_t*)"w", (uint32_t)1UL);
 260:../src/platform/mpfs_hal/common/nwc/mss_ddr_debug.c ****         }
 261:../src/platform/mpfs_hal/common/nwc/mss_ddr_debug.c **** #endif
 262:../src/platform/mpfs_hal/common/nwc/mss_ddr_debug.c ****         switch (data_ptrn)
 263:../src/platform/mpfs_hal/common/nwc/mss_ddr_debug.c ****         {
 264:../src/platform/mpfs_hal/common/nwc/mss_ddr_debug.c ****             case PATTERN_INCREMENTAL : DATA = DATA + 0x00000001; break;
 265:../src/platform/mpfs_hal/common/nwc/mss_ddr_debug.c ****             case PATTERN_WALKING_ONE :
 266:../src/platform/mpfs_hal/common/nwc/mss_ddr_debug.c ****                 if (DATA == 0x80000000)
  84              		.loc 1 266 20 discriminator 1
  85 0042 854B     		li	s7,1
 267:../src/platform/mpfs_hal/common/nwc/mss_ddr_debug.c ****                     DATA = 0x00000001;
  86              		.loc 1 267 26 discriminator 1
  87 0044 A689     		mv	s3,s1
  88 0046 0149     		li	s2,0
 232:../src/platform/mpfs_hal/common/nwc/mss_ddr_debug.c ****         {
  89              		.loc 1 232 9 discriminator 1
  90 0048 894A     		li	s5,2
 245:../src/platform/mpfs_hal/common/nwc/mss_ddr_debug.c ****                 *DDR_32_ptr = (uint32_t)DATA;
  91              		.loc 1 245 22 discriminator 1
  92 004a 135A0A02 		srli	s4,s4,32
 262:../src/platform/mpfs_hal/common/nwc/mss_ddr_debug.c ****         {
  93              		.loc 1 262 9 discriminator 1
  94 004e 214B     		li	s6,8
 268:../src/platform/mpfs_hal/common/nwc/mss_ddr_debug.c ****                 else
 269:../src/platform/mpfs_hal/common/nwc/mss_ddr_debug.c ****                     DATA = (DATA << 1);
 270:../src/platform/mpfs_hal/common/nwc/mss_ddr_debug.c ****                 break;
 271:../src/platform/mpfs_hal/common/nwc/mss_ddr_debug.c ****             case PATTERN_WALKING_ZERO :
 272:../src/platform/mpfs_hal/common/nwc/mss_ddr_debug.c ****                 DATA = ~DATA;
 273:../src/platform/mpfs_hal/common/nwc/mss_ddr_debug.c ****                 if (DATA == 0x80000000)
 274:../src/platform/mpfs_hal/common/nwc/mss_ddr_debug.c ****                     DATA = 0x00000001;
 275:../src/platform/mpfs_hal/common/nwc/mss_ddr_debug.c ****                 else
 276:../src/platform/mpfs_hal/common/nwc/mss_ddr_debug.c ****                 {
 277:../src/platform/mpfs_hal/common/nwc/mss_ddr_debug.c ****                     DATA = (DATA << 1);
 278:../src/platform/mpfs_hal/common/nwc/mss_ddr_debug.c ****                 }
 279:../src/platform/mpfs_hal/common/nwc/mss_ddr_debug.c ****                 DATA = ~DATA;
 280:../src/platform/mpfs_hal/common/nwc/mss_ddr_debug.c ****                 break;
 281:../src/platform/mpfs_hal/common/nwc/mss_ddr_debug.c ****             case PATTERN_RANDOM :
 282:../src/platform/mpfs_hal/common/nwc/mss_ddr_debug.c ****                 DATA = (uint64_t)rand ( );
 283:../src/platform/mpfs_hal/common/nwc/mss_ddr_debug.c ****                 break;
 284:../src/platform/mpfs_hal/common/nwc/mss_ddr_debug.c ****             case PATTERN_0xCCCCCCCC :
 285:../src/platform/mpfs_hal/common/nwc/mss_ddr_debug.c ****                 DATA = 0xCCCCCCCCCCCCCCCC;
 286:../src/platform/mpfs_hal/common/nwc/mss_ddr_debug.c ****                 break;
 287:../src/platform/mpfs_hal/common/nwc/mss_ddr_debug.c ****             case PATTERN_0x55555555 :
 288:../src/platform/mpfs_hal/common/nwc/mss_ddr_debug.c ****                 DATA = 0x5555555555555555;
  95              		.loc 1 288 22 discriminator 1
  96 0050 970D0000 		lla	s11,.LC0
  96      938D0D00 
 285:../src/platform/mpfs_hal/common/nwc/mss_ddr_debug.c ****                 break;
  97              		.loc 1 285 22 discriminator 1
  98 0058 17070000 		lla	a4,.LC1
  98      13070700 
 266:../src/platform/mpfs_hal/common/nwc/mss_ddr_debug.c ****                     DATA = 0x00000001;
  99              		.loc 1 266 20 discriminator 1
 100 0060 139DFB01 		slli	s10,s7,31
 101              	.LVL4:
 102              	.L5:
 230:../src/platform/mpfs_hal/common/nwc/mss_ddr_debug.c ****     {
 103              		.loc 1 230 5 discriminator 1
 104 0064 63198905 		bne	s2,s8,.L15
 289:../src/platform/mpfs_hal/common/nwc/mss_ddr_debug.c ****                 break;
 290:../src/platform/mpfs_hal/common/nwc/mss_ddr_debug.c ****             case PATTERN_ZEROS :
 291:../src/platform/mpfs_hal/common/nwc/mss_ddr_debug.c ****                 DATA = 0x00000000;
 292:../src/platform/mpfs_hal/common/nwc/mss_ddr_debug.c ****                 break;
 293:../src/platform/mpfs_hal/common/nwc/mss_ddr_debug.c ****             default :
 294:../src/platform/mpfs_hal/common/nwc/mss_ddr_debug.c ****                 break;
 295:../src/platform/mpfs_hal/common/nwc/mss_ddr_debug.c ****         }
 296:../src/platform/mpfs_hal/common/nwc/mss_ddr_debug.c ****     }
 297:../src/platform/mpfs_hal/common/nwc/mss_ddr_debug.c ****     return error_count;
 105              		.loc 1 297 5 is_stmt 1
 298:../src/platform/mpfs_hal/common/nwc/mss_ddr_debug.c **** }
 106              		.loc 1 298 1 is_stmt 0
 107 0068 A670     		ld	ra,104(sp)
 108              		.cfi_remember_state
 109              		.cfi_restore 1
 110 006a 0674     		ld	s0,96(sp)
 111              		.cfi_restore 8
 112 006c E664     		ld	s1,88(sp)
 113              		.cfi_restore 9
 114              	.LVL5:
 115 006e 4669     		ld	s2,80(sp)
 116              		.cfi_restore 18
 117              	.LVL6:
 118 0070 A669     		ld	s3,72(sp)
 119              		.cfi_restore 19
 120              	.LVL7:
 121 0072 066A     		ld	s4,64(sp)
 122              		.cfi_restore 20
 123 0074 E27A     		ld	s5,56(sp)
 124              		.cfi_restore 21
 125 0076 427B     		ld	s6,48(sp)
 126              		.cfi_restore 22
 127 0078 A27B     		ld	s7,40(sp)
 128              		.cfi_restore 23
 129 007a 027C     		ld	s8,32(sp)
 130              		.cfi_restore 24
 131 007c E26C     		ld	s9,24(sp)
 132              		.cfi_restore 25
 133 007e 426D     		ld	s10,16(sp)
 134              		.cfi_restore 26
 135 0080 A26D     		ld	s11,8(sp)
 136              		.cfi_restore 27
 137 0082 0145     		li	a0,0
 138              	.LVL8:
 139 0084 6561     		addi	sp,sp,112
 140              		.cfi_def_cfa_offset 0
 141 0086 8280     		jr	ra
 142              	.LVL9:
 143              	.L3:
 144              		.cfi_restore_state
 207:../src/platform/mpfs_hal/common/nwc/mss_ddr_debug.c ****     {
 145              		.loc 1 207 5
 146 0088 C147     		li	a5,16
 147 008a 6300F602 		beq	a2,a5,.L18
 148 008e 93070002 		li	a5,32
 149 0092 E316F6FA 		bne	a2,a5,.L26
 220:../src/platform/mpfs_hal/common/nwc/mss_ddr_debug.c ****             break;
 150              		.loc 1 220 18
 151 0096 97070000 		lla	a5,.LC0
 151      93870700 
 152 009e 11A8     		j	.L27
 153              	.L2:
 214:../src/platform/mpfs_hal/common/nwc/mss_ddr_debug.c ****             break;
 154              		.loc 1 214 13 is_stmt 1
 214:../src/platform/mpfs_hal/common/nwc/mss_ddr_debug.c ****             break;
 155              		.loc 1 214 30 is_stmt 0
 156 00a0 97000000 		call	rand
 156      E7800000 
 157              	.LVL10:
 215:../src/platform/mpfs_hal/common/nwc/mss_ddr_debug.c ****         case PATTERN_0xCCCCCCCC :
 158              		.loc 1 215 13 is_stmt 1
 159 00a8 61BF     		j	.L4
 160              	.LVL11:
 161              	.L18:
 217:../src/platform/mpfs_hal/common/nwc/mss_ddr_debug.c ****             break;
 162              		.loc 1 217 18 is_stmt 0
 163 00aa 97070000 		lla	a5,.LC1
 163      93870700 
 164              	.L27:
 220:../src/platform/mpfs_hal/common/nwc/mss_ddr_debug.c ****             break;
 165              		.loc 1 220 18
 166 00b2 8863     		ld	a0,0(a5)
 167 00b4 71B7     		j	.L4
 168              	.LVL12:
 169              	.L15:
 232:../src/platform/mpfs_hal/common/nwc/mss_ddr_debug.c ****         {
 170              		.loc 1 232 9 is_stmt 1
 171 00b6 63955C03 		bne	s9,s5,.L6
 245:../src/platform/mpfs_hal/common/nwc/mss_ddr_debug.c ****                 *DDR_32_ptr = (uint32_t)DATA;
 172              		.loc 1 245 17
 173              	.LVL13:
 246:../src/platform/mpfs_hal/common/nwc/mss_ddr_debug.c ****                 DDR_32_ptr = DDR_32_ptr + 1;
 174              		.loc 1 246 17
 246:../src/platform/mpfs_hal/common/nwc/mss_ddr_debug.c ****                 DDR_32_ptr = DDR_32_ptr + 1;
 175              		.loc 1 246 31 is_stmt 0
 176 00ba 23A0A900 		sw	a0,0(s3)
 247:../src/platform/mpfs_hal/common/nwc/mss_ddr_debug.c ****                 break;
 177              		.loc 1 247 17 is_stmt 1
 247:../src/platform/mpfs_hal/common/nwc/mss_ddr_debug.c ****                 break;
 178              		.loc 1 247 28 is_stmt 0
 179 00be 9109     		addi	s3,s3,4
 180              	.LVL14:
 248:../src/platform/mpfs_hal/common/nwc/mss_ddr_debug.c ****             default:
 181              		.loc 1 248 17 is_stmt 1
 245:../src/platform/mpfs_hal/common/nwc/mss_ddr_debug.c ****                 *DDR_32_ptr = (uint32_t)DATA;
 182              		.loc 1 245 22 is_stmt 0
 183 00c0 33754501 		and	a0,a0,s4
 184              	.LVL15:
 185              	.L7:
 262:../src/platform/mpfs_hal/common/nwc/mss_ddr_debug.c ****         {
 186              		.loc 1 262 9 is_stmt 1
 187 00c4 630C6405 		beq	s0,s6,.L8
 188 00c8 636F8B00 		bgtu	s0,s6,.L9
 189 00cc 630A5403 		beq	s0,s5,.L10
 190 00d0 9147     		li	a5,4
 191 00d2 630BF402 		beq	s0,a5,.L11
 192 00d6 63137401 		bne	s0,s7,.L13
 264:../src/platform/mpfs_hal/common/nwc/mss_ddr_debug.c ****             case PATTERN_WALKING_ONE :
 193              		.loc 1 264 40
 264:../src/platform/mpfs_hal/common/nwc/mss_ddr_debug.c ****             case PATTERN_WALKING_ONE :
 194              		.loc 1 264 45 is_stmt 0
 195 00da 0505     		addi	a0,a0,1
 196              	.LVL16:
 264:../src/platform/mpfs_hal/common/nwc/mss_ddr_debug.c ****             case PATTERN_WALKING_ONE :
 197              		.loc 1 264 66 is_stmt 1
 198              	.L13:
 230:../src/platform/mpfs_hal/common/nwc/mss_ddr_debug.c ****     {
 199              		.loc 1 230 37 is_stmt 0 discriminator 2
 200 00dc 0529     		addiw	s2,s2,1
 201              	.LVL17:
 202 00de 59B7     		j	.L5
 203              	.LVL18:
 204              	.L6:
 251:../src/platform/mpfs_hal/common/nwc/mss_ddr_debug.c ****                 DDR_word_ptr = DDR_word_ptr + 1;
 205              		.loc 1 251 17 is_stmt 1
 251:../src/platform/mpfs_hal/common/nwc/mss_ddr_debug.c ****                 DDR_word_ptr = DDR_word_ptr + 1;
 206              		.loc 1 251 31 is_stmt 0
 207 00e0 88E0     		sd	a0,0(s1)
 252:../src/platform/mpfs_hal/common/nwc/mss_ddr_debug.c ****                 break;
 208              		.loc 1 252 17 is_stmt 1
 252:../src/platform/mpfs_hal/common/nwc/mss_ddr_debug.c ****                 break;
 209              		.loc 1 252 30 is_stmt 0
 210 00e2 A104     		addi	s1,s1,8
 211              	.LVL19:
 253:../src/platform/mpfs_hal/common/nwc/mss_ddr_debug.c ****         }
 212              		.loc 1 253 17 is_stmt 1
 213 00e4 C5B7     		j	.L7
 214              	.L9:
 262:../src/platform/mpfs_hal/common/nwc/mss_ddr_debug.c ****         {
 215              		.loc 1 262 9 is_stmt 0
 216 00e6 93070002 		li	a5,32
 217 00ea 6302F404 		beq	s0,a5,.L20
 218 00ee 93070004 		li	a5,64
 219 00f2 6301F404 		beq	s0,a5,.L21
 220 00f6 C147     		li	a5,16
 221 00f8 E312F4FE 		bne	s0,a5,.L13
 285:../src/platform/mpfs_hal/common/nwc/mss_ddr_debug.c ****                 break;
 222              		.loc 1 285 22
 223 00fc 0863     		ld	a0,0(a4)
 224              	.LVL20:
 225 00fe F9BF     		j	.L13
 226              	.LVL21:
 227              	.L10:
 266:../src/platform/mpfs_hal/common/nwc/mss_ddr_debug.c ****                     DATA = 0x00000001;
 228              		.loc 1 266 17 is_stmt 1
 266:../src/platform/mpfs_hal/common/nwc/mss_ddr_debug.c ****                     DATA = 0x00000001;
 229              		.loc 1 266 20 is_stmt 0
 230 0100 630CA503 		beq	a0,s10,.L23
 269:../src/platform/mpfs_hal/common/nwc/mss_ddr_debug.c ****                 break;
 231              		.loc 1 269 21 is_stmt 1
 269:../src/platform/mpfs_hal/common/nwc/mss_ddr_debug.c ****                 break;
 232              		.loc 1 269 26 is_stmt 0
 233 0104 0605     		slli	a0,a0,1
 234              	.LVL22:
 235 0106 D9BF     		j	.L13
 236              	.L11:
 272:../src/platform/mpfs_hal/common/nwc/mss_ddr_debug.c ****                 if (DATA == 0x80000000)
 237              		.loc 1 272 17 is_stmt 1
 272:../src/platform/mpfs_hal/common/nwc/mss_ddr_debug.c ****                 if (DATA == 0x80000000)
 238              		.loc 1 272 22 is_stmt 0
 239 0108 9347F5FF 		not	a5,a0
 240              	.LVL23:
 273:../src/platform/mpfs_hal/common/nwc/mss_ddr_debug.c ****                     DATA = 0x00000001;
 241              		.loc 1 273 17 is_stmt 1
 274:../src/platform/mpfs_hal/common/nwc/mss_ddr_debug.c ****                 else
 242              		.loc 1 274 26 is_stmt 0
 243 010c 0545     		li	a0,1
 273:../src/platform/mpfs_hal/common/nwc/mss_ddr_debug.c ****                     DATA = 0x00000001;
 244              		.loc 1 273 20
 245 010e 6384A701 		beq	a5,s10,.L14
 277:../src/platform/mpfs_hal/common/nwc/mss_ddr_debug.c ****                 }
 246              		.loc 1 277 21 is_stmt 1
 277:../src/platform/mpfs_hal/common/nwc/mss_ddr_debug.c ****                 }
 247              		.loc 1 277 26 is_stmt 0
 248 0112 13951700 		slli	a0,a5,1
 249              	.LVL24:
 250              	.L14:
 279:../src/platform/mpfs_hal/common/nwc/mss_ddr_debug.c ****                 break;
 251              		.loc 1 279 17 is_stmt 1
 279:../src/platform/mpfs_hal/common/nwc/mss_ddr_debug.c ****                 break;
 252              		.loc 1 279 22 is_stmt 0
 253 0116 1345F5FF 		not	a0,a0
 254              	.LVL25:
 280:../src/platform/mpfs_hal/common/nwc/mss_ddr_debug.c ****             case PATTERN_RANDOM :
 255              		.loc 1 280 17 is_stmt 1
 256 011a C9B7     		j	.L13
 257              	.L8:
 282:../src/platform/mpfs_hal/common/nwc/mss_ddr_debug.c ****                 break;
 258              		.loc 1 282 17
 282:../src/platform/mpfs_hal/common/nwc/mss_ddr_debug.c ****                 break;
 259              		.loc 1 282 34 is_stmt 0
 260 011c 97000000 		call	rand
 260      E7800000 
 261              	.LVL26:
 283:../src/platform/mpfs_hal/common/nwc/mss_ddr_debug.c ****             case PATTERN_0xCCCCCCCC :
 262              		.loc 1 283 17 is_stmt 1
 263 0124 17070000 		lla	a4,.LC1
 263      13070700 
 264 012c 45BF     		j	.L13
 265              	.L20:
 288:../src/platform/mpfs_hal/common/nwc/mss_ddr_debug.c ****                 break;
 266              		.loc 1 288 22 is_stmt 0
 267 012e 03B50D00 		ld	a0,0(s11)
 268              	.LVL27:
 269 0132 6DB7     		j	.L13
 270              	.LVL28:
 271              	.L21:
 291:../src/platform/mpfs_hal/common/nwc/mss_ddr_debug.c ****                 break;
 272              		.loc 1 291 22
 273 0134 0145     		li	a0,0
 274              	.LVL29:
 275 0136 5DB7     		j	.L13
 276              	.LVL30:
 277              	.L23:
 267:../src/platform/mpfs_hal/common/nwc/mss_ddr_debug.c ****                 else
 278              		.loc 1 267 26
 279 0138 0545     		li	a0,1
 280              	.LVL31:
 281 013a 4DB7     		j	.L13
 282              		.cfi_endproc
 283              	.LFE24:
 285              		.section	.text.ddr_read,"ax",@progbits
 286              		.align	1
 288              	ddr_read:
 289              	.LFB25:
 299:../src/platform/mpfs_hal/common/nwc/mss_ddr_debug.c **** 
 300:../src/platform/mpfs_hal/common/nwc/mss_ddr_debug.c **** /***************************************************************************//**
 301:../src/platform/mpfs_hal/common/nwc/mss_ddr_debug.c ****  * Reads and compares with what was written
 302:../src/platform/mpfs_hal/common/nwc/mss_ddr_debug.c ****  * @param DDR_word_ptr
 303:../src/platform/mpfs_hal/common/nwc/mss_ddr_debug.c ****  * @param no_of_access
 304:../src/platform/mpfs_hal/common/nwc/mss_ddr_debug.c ****  * @param data_ptrn
 305:../src/platform/mpfs_hal/common/nwc/mss_ddr_debug.c ****  * @return 0 => read backs all expected value, otherwise error count
 306:../src/platform/mpfs_hal/common/nwc/mss_ddr_debug.c ****  */
 307:../src/platform/mpfs_hal/common/nwc/mss_ddr_debug.c **** uint32_t ddr_read
 308:../src/platform/mpfs_hal/common/nwc/mss_ddr_debug.c **** (
 309:../src/platform/mpfs_hal/common/nwc/mss_ddr_debug.c ****     volatile uint64_t *DDR_word_ptr,
 310:../src/platform/mpfs_hal/common/nwc/mss_ddr_debug.c ****     uint32_t no_of_access,
 311:../src/platform/mpfs_hal/common/nwc/mss_ddr_debug.c ****     uint8_t data_ptrn,
 312:../src/platform/mpfs_hal/common/nwc/mss_ddr_debug.c ****     DDR_ACCESS_SIZE data_size
 313:../src/platform/mpfs_hal/common/nwc/mss_ddr_debug.c **** )
 314:../src/platform/mpfs_hal/common/nwc/mss_ddr_debug.c **** {
 290              		.loc 1 314 1 is_stmt 1
 291              		.cfi_startproc
 292              	.LVL32:
 315:../src/platform/mpfs_hal/common/nwc/mss_ddr_debug.c ****     uint32_t i;
 293              		.loc 1 315 5
 316:../src/platform/mpfs_hal/common/nwc/mss_ddr_debug.c ****     uint64_t DATA;
 294              		.loc 1 316 5
 317:../src/platform/mpfs_hal/common/nwc/mss_ddr_debug.c ****     uint32_t err_cnt;
 295              		.loc 1 317 5
 318:../src/platform/mpfs_hal/common/nwc/mss_ddr_debug.c ****     volatile uint64_t ddr_data;
 296              		.loc 1 318 5
 319:../src/platform/mpfs_hal/common/nwc/mss_ddr_debug.c ****     volatile uint64_t *DDR_word_pt_t, *first_DDR_word_pt_t;
 297              		.loc 1 319 5
 320:../src/platform/mpfs_hal/common/nwc/mss_ddr_debug.c ****     uint32_t rand_addr_offset;
 298              		.loc 1 320 5
 321:../src/platform/mpfs_hal/common/nwc/mss_ddr_debug.c ****     uint8_t *DDR_8_pt_t;
 299              		.loc 1 321 5
 322:../src/platform/mpfs_hal/common/nwc/mss_ddr_debug.c ****     uint16_t *DDR_16_pt_t;
 300              		.loc 1 322 5
 323:../src/platform/mpfs_hal/common/nwc/mss_ddr_debug.c ****     uint32_t *DDR_32_pt_t;
 301              		.loc 1 323 5
 324:../src/platform/mpfs_hal/common/nwc/mss_ddr_debug.c **** 
 325:../src/platform/mpfs_hal/common/nwc/mss_ddr_debug.c ****     err_cnt = 0U;
 302              		.loc 1 325 5
 326:../src/platform/mpfs_hal/common/nwc/mss_ddr_debug.c ****     first_DDR_word_pt_t = DDR_word_ptr;
 303              		.loc 1 326 5
 314:../src/platform/mpfs_hal/common/nwc/mss_ddr_debug.c ****     uint32_t i;
 304              		.loc 1 314 1 is_stmt 0
 305 0000 1971     		addi	sp,sp,-128
 306              		.cfi_def_cfa_offset 128
 307 0002 A6F4     		sd	s1,104(sp)
 308 0004 CAF0     		sd	s2,96(sp)
 309 0006 CEEC     		sd	s3,88(sp)
 310 0008 D2E8     		sd	s4,80(sp)
 311 000a 86FC     		sd	ra,120(sp)
 312 000c A2F8     		sd	s0,112(sp)
 313 000e D6E4     		sd	s5,72(sp)
 314 0010 DAE0     		sd	s6,64(sp)
 315 0012 5EFC     		sd	s7,56(sp)
 316 0014 62F8     		sd	s8,48(sp)
 317 0016 66F4     		sd	s9,40(sp)
 318 0018 6AF0     		sd	s10,32(sp)
 319 001a 6EEC     		sd	s11,24(sp)
 320              		.cfi_offset 9, -24
 321              		.cfi_offset 18, -32
 322              		.cfi_offset 19, -40
 323              		.cfi_offset 20, -48
 324              		.cfi_offset 1, -8
 325              		.cfi_offset 8, -16
 326              		.cfi_offset 21, -56
 327              		.cfi_offset 22, -64
 328              		.cfi_offset 23, -72
 329              		.cfi_offset 24, -80
 330              		.cfi_offset 25, -88
 331              		.cfi_offset 26, -96
 332              		.cfi_offset 27, -104
 327:../src/platform/mpfs_hal/common/nwc/mss_ddr_debug.c ****     DDR_8_pt_t = (uint8_t *)DDR_word_ptr;
 328:../src/platform/mpfs_hal/common/nwc/mss_ddr_debug.c ****     DDR_16_pt_t = (uint16_t *)DDR_word_ptr;
 329:../src/platform/mpfs_hal/common/nwc/mss_ddr_debug.c ****     DDR_32_pt_t = (uint32_t *)DDR_word_ptr;
 330:../src/platform/mpfs_hal/common/nwc/mss_ddr_debug.c **** 
 331:../src/platform/mpfs_hal/common/nwc/mss_ddr_debug.c ****     switch (data_ptrn)
 333              		.loc 1 331 5
 334 001c A147     		li	a5,8
 314:../src/platform/mpfs_hal/common/nwc/mss_ddr_debug.c ****     uint32_t i;
 335              		.loc 1 314 1
 336 001e 2A89     		mv	s2,a0
 337              	.LVL33:
 327:../src/platform/mpfs_hal/common/nwc/mss_ddr_debug.c ****     DDR_8_pt_t = (uint8_t *)DDR_word_ptr;
 338              		.loc 1 327 5 is_stmt 1
 328:../src/platform/mpfs_hal/common/nwc/mss_ddr_debug.c ****     DDR_32_pt_t = (uint32_t *)DDR_word_ptr;
 339              		.loc 1 328 5
 329:../src/platform/mpfs_hal/common/nwc/mss_ddr_debug.c **** 
 340              		.loc 1 329 5
 341              		.loc 1 331 5
 314:../src/platform/mpfs_hal/common/nwc/mss_ddr_debug.c ****     uint32_t i;
 342              		.loc 1 314 1 is_stmt 0
 343 0020 AE89     		mv	s3,a1
 344 0022 B284     		mv	s1,a2
 345 0024 368A     		mv	s4,a3
 346              		.loc 1 331 5
 347 0026 630EF602 		beq	a2,a5,.L29
 348 002a 63E0C702 		bgtu	a2,a5,.L30
 349 002e 8947     		li	a5,2
 332:../src/platform/mpfs_hal/common/nwc/mss_ddr_debug.c ****     {
 333:../src/platform/mpfs_hal/common/nwc/mss_ddr_debug.c ****         case PATTERN_INCREMENTAL : DATA = 0x00000000; break;
 334:../src/platform/mpfs_hal/common/nwc/mss_ddr_debug.c ****         case PATTERN_WALKING_ONE : DATA = 0x00000001; break;
 350              		.loc 1 334 41
 351 0030 0544     		li	s0,1
 331:../src/platform/mpfs_hal/common/nwc/mss_ddr_debug.c ****     {
 352              		.loc 1 331 5
 353 0032 6301F604 		beq	a2,a5,.L31
 354 0036 9147     		li	a5,4
 335:../src/platform/mpfs_hal/common/nwc/mss_ddr_debug.c ****         case PATTERN_WALKING_ZERO : DATA = 0x01;
 336:../src/platform/mpfs_hal/common/nwc/mss_ddr_debug.c ****             DATA = ~ DATA; break;
 355              		.loc 1 336 18
 356 0038 7954     		li	s0,-2
 331:../src/platform/mpfs_hal/common/nwc/mss_ddr_debug.c ****     {
 357              		.loc 1 331 5
 358 003a 630DF602 		beq	a2,a5,.L31
 359              	.L32:
 360              	.LVL34:
 337:../src/platform/mpfs_hal/common/nwc/mss_ddr_debug.c ****         case PATTERN_RANDOM :
 338:../src/platform/mpfs_hal/common/nwc/mss_ddr_debug.c ****             DATA = (uint64_t)rand ( );
 339:../src/platform/mpfs_hal/common/nwc/mss_ddr_debug.c ****             *DDR_word_ptr = DATA;
 340:../src/platform/mpfs_hal/common/nwc/mss_ddr_debug.c ****             *DDR_8_pt_t =  (uint8_t)DATA;
 341:../src/platform/mpfs_hal/common/nwc/mss_ddr_debug.c ****             *DDR_16_pt_t = (uint16_t)DATA;
 342:../src/platform/mpfs_hal/common/nwc/mss_ddr_debug.c ****             *DDR_32_pt_t = (uint32_t)DATA;
 343:../src/platform/mpfs_hal/common/nwc/mss_ddr_debug.c ****             break;
 344:../src/platform/mpfs_hal/common/nwc/mss_ddr_debug.c ****         case PATTERN_0xCCCCCCCC :
 345:../src/platform/mpfs_hal/common/nwc/mss_ddr_debug.c ****             DATA = 0xCCCCCCCCCCCCCCCC;
 346:../src/platform/mpfs_hal/common/nwc/mss_ddr_debug.c ****             break;
 347:../src/platform/mpfs_hal/common/nwc/mss_ddr_debug.c ****         case PATTERN_0x55555555 :
 348:../src/platform/mpfs_hal/common/nwc/mss_ddr_debug.c ****             DATA = 0x5555555555555555;
 349:../src/platform/mpfs_hal/common/nwc/mss_ddr_debug.c ****             break;
 350:../src/platform/mpfs_hal/common/nwc/mss_ddr_debug.c ****         case PATTERN_ZEROS :
 351:../src/platform/mpfs_hal/common/nwc/mss_ddr_debug.c ****             DATA = 0x00000000;
 352:../src/platform/mpfs_hal/common/nwc/mss_ddr_debug.c ****         break;
 353:../src/platform/mpfs_hal/common/nwc/mss_ddr_debug.c ****         default :
 354:../src/platform/mpfs_hal/common/nwc/mss_ddr_debug.c ****            DATA = 0x00000000;
 355:../src/platform/mpfs_hal/common/nwc/mss_ddr_debug.c ****            break;
 356:../src/platform/mpfs_hal/common/nwc/mss_ddr_debug.c ****     }
 357:../src/platform/mpfs_hal/common/nwc/mss_ddr_debug.c ****     if (data_ptrn == '4')
 361              		.loc 1 357 5 is_stmt 1
 362              		.loc 1 357 8 is_stmt 0
 363 003e 93074003 		li	a5,52
 364 0042 6386F408 		beq	s1,a5,.L34
 365              	.L36:
 333:../src/platform/mpfs_hal/common/nwc/mss_ddr_debug.c ****         case PATTERN_WALKING_ONE : DATA = 0x00000001; break;
 366              		.loc 1 333 41
 367 0046 0144     		li	s0,0
 368 0048 35A0     		j	.L31
 369              	.LVL35:
 370              	.L30:
 331:../src/platform/mpfs_hal/common/nwc/mss_ddr_debug.c ****     {
 371              		.loc 1 331 5
 372 004a C147     		li	a5,16
 373 004c 630BF606 		beq	a2,a5,.L50
 374 0050 93070002 		li	a5,32
 375 0054 E315F6FE 		bne	a2,a5,.L32
 348:../src/platform/mpfs_hal/common/nwc/mss_ddr_debug.c ****             break;
 376              		.loc 1 348 18
 377 0058 97070000 		lla	a5,.LC0
 377      93870700 
 378 0060 ADA0     		j	.L59
 379              	.L29:
 338:../src/platform/mpfs_hal/common/nwc/mss_ddr_debug.c ****             *DDR_word_ptr = DATA;
 380              		.loc 1 338 13 is_stmt 1
 338:../src/platform/mpfs_hal/common/nwc/mss_ddr_debug.c ****             *DDR_word_ptr = DATA;
 381              		.loc 1 338 30 is_stmt 0
 382 0062 97000000 		call	rand
 382      E7800000 
 383              	.LVL36:
 339:../src/platform/mpfs_hal/common/nwc/mss_ddr_debug.c ****             *DDR_8_pt_t =  (uint8_t)DATA;
 384              		.loc 1 339 27
 385 006a 2330A900 		sd	a0,0(s2)
 338:../src/platform/mpfs_hal/common/nwc/mss_ddr_debug.c ****             *DDR_word_ptr = DATA;
 386              		.loc 1 338 30
 387 006e 2A84     		mv	s0,a0
 388              	.LVL37:
 339:../src/platform/mpfs_hal/common/nwc/mss_ddr_debug.c ****             *DDR_8_pt_t =  (uint8_t)DATA;
 389              		.loc 1 339 13 is_stmt 1
 340:../src/platform/mpfs_hal/common/nwc/mss_ddr_debug.c ****             *DDR_16_pt_t = (uint16_t)DATA;
 390              		.loc 1 340 13
 341:../src/platform/mpfs_hal/common/nwc/mss_ddr_debug.c ****             *DDR_32_pt_t = (uint32_t)DATA;
 391              		.loc 1 341 13
 342:../src/platform/mpfs_hal/common/nwc/mss_ddr_debug.c ****             break;
 392              		.loc 1 342 13
 342:../src/platform/mpfs_hal/common/nwc/mss_ddr_debug.c ****             break;
 393              		.loc 1 342 28 is_stmt 0
 394 0070 2320A900 		sw	a0,0(s2)
 343:../src/platform/mpfs_hal/common/nwc/mss_ddr_debug.c ****         case PATTERN_0xCCCCCCCC :
 395              		.loc 1 343 13 is_stmt 1
 396              	.LVL38:
 397              	.L31:
 358:../src/platform/mpfs_hal/common/nwc/mss_ddr_debug.c ****     {
 359:../src/platform/mpfs_hal/common/nwc/mss_ddr_debug.c ****         delay(DELAY_CYCLES_500_NS);
 360:../src/platform/mpfs_hal/common/nwc/mss_ddr_debug.c ****     }
 361:../src/platform/mpfs_hal/common/nwc/mss_ddr_debug.c ****     for( i = 0; i< (no_of_access); i++)
 362:../src/platform/mpfs_hal/common/nwc/mss_ddr_debug.c ****     {
 363:../src/platform/mpfs_hal/common/nwc/mss_ddr_debug.c ****         switch(data_size)
 364:../src/platform/mpfs_hal/common/nwc/mss_ddr_debug.c ****         {
 365:../src/platform/mpfs_hal/common/nwc/mss_ddr_debug.c ****             case DDR_8_BIT:
 366:../src/platform/mpfs_hal/common/nwc/mss_ddr_debug.c ****                 DATA &= 0xFFUL;
 367:../src/platform/mpfs_hal/common/nwc/mss_ddr_debug.c ****                 ddr_data = *DDR_8_pt_t;
 368:../src/platform/mpfs_hal/common/nwc/mss_ddr_debug.c ****                 break;
 369:../src/platform/mpfs_hal/common/nwc/mss_ddr_debug.c ****             case DDR_16_BIT:
 370:../src/platform/mpfs_hal/common/nwc/mss_ddr_debug.c ****                 DATA &= 0xFFFFUL;
 371:../src/platform/mpfs_hal/common/nwc/mss_ddr_debug.c ****                 ddr_data = *DDR_16_pt_t;
 372:../src/platform/mpfs_hal/common/nwc/mss_ddr_debug.c ****                 break;
 373:../src/platform/mpfs_hal/common/nwc/mss_ddr_debug.c ****             case DDR_32_BIT:
 374:../src/platform/mpfs_hal/common/nwc/mss_ddr_debug.c ****                 DATA &= 0xFFFFFFFFUL;
 398              		.loc 1 374 22 is_stmt 0 discriminator 1
 399 0074 FD5B     		li	s7,-1
 375:../src/platform/mpfs_hal/common/nwc/mss_ddr_debug.c ****                 ddr_data = *DDR_32_pt_t;
 376:../src/platform/mpfs_hal/common/nwc/mss_ddr_debug.c ****                 break;
 377:../src/platform/mpfs_hal/common/nwc/mss_ddr_debug.c ****             default:
 378:../src/platform/mpfs_hal/common/nwc/mss_ddr_debug.c ****             case DDR_64_BIT:
 379:../src/platform/mpfs_hal/common/nwc/mss_ddr_debug.c ****                 DDR_word_pt_t = DDR_word_ptr;
 380:../src/platform/mpfs_hal/common/nwc/mss_ddr_debug.c ****                 ddr_data = *DDR_word_pt_t;
 381:../src/platform/mpfs_hal/common/nwc/mss_ddr_debug.c ****                 break;
 382:../src/platform/mpfs_hal/common/nwc/mss_ddr_debug.c ****         }
 383:../src/platform/mpfs_hal/common/nwc/mss_ddr_debug.c **** 
 384:../src/platform/mpfs_hal/common/nwc/mss_ddr_debug.c **** #ifdef DEBUG_DDR_INIT
 385:../src/platform/mpfs_hal/common/nwc/mss_ddr_debug.c ****         if((i%0x1000000UL) ==0UL)
 386:../src/platform/mpfs_hal/common/nwc/mss_ddr_debug.c ****         {
 387:../src/platform/mpfs_hal/common/nwc/mss_ddr_debug.c ****             MSS_UART_polled_tx(g_debug_uart, (const uint8_t*)"r", (uint32_t)1UL);
 388:../src/platform/mpfs_hal/common/nwc/mss_ddr_debug.c ****         }
 389:../src/platform/mpfs_hal/common/nwc/mss_ddr_debug.c **** #endif
 390:../src/platform/mpfs_hal/common/nwc/mss_ddr_debug.c **** 
 391:../src/platform/mpfs_hal/common/nwc/mss_ddr_debug.c ****         if (ddr_data != DATA)
 392:../src/platform/mpfs_hal/common/nwc/mss_ddr_debug.c ****         {
 393:../src/platform/mpfs_hal/common/nwc/mss_ddr_debug.c **** #ifdef DEBUG_DDR_INIT
 394:../src/platform/mpfs_hal/common/nwc/mss_ddr_debug.c **** #ifdef DEBUG_DDR_RD_RW_FAIL
 395:../src/platform/mpfs_hal/common/nwc/mss_ddr_debug.c ****             if (err_cnt <=0xF)
 396:../src/platform/mpfs_hal/common/nwc/mss_ddr_debug.c ****             {
 397:../src/platform/mpfs_hal/common/nwc/mss_ddr_debug.c ****                 uprint64(g_debug_uart,\
 398:../src/platform/mpfs_hal/common/nwc/mss_ddr_debug.c ****                         "\n\r READ/ WRITE ACCESS FAILED AT ADDR: 0x ",\
 399:../src/platform/mpfs_hal/common/nwc/mss_ddr_debug.c ****                             (uintptr_t)DDR_word_ptr);
 400:../src/platform/mpfs_hal/common/nwc/mss_ddr_debug.c ****                 uprint64(g_debug_uart,"\t Expected Data 0x ", DATA);
 401:../src/platform/mpfs_hal/common/nwc/mss_ddr_debug.c ****                 uprint64(g_debug_uart,"\t READ DATA: 0x ", ddr_data);
 402:../src/platform/mpfs_hal/common/nwc/mss_ddr_debug.c ****                 uprint64(g_debug_uart,"\t READ DATA: 0x ", *DDR_word_ptr);
 403:../src/platform/mpfs_hal/common/nwc/mss_ddr_debug.c ****                 uprint64(g_debug_uart,"\t READ DATA: 0x ", *DDR_word_ptr);
 404:../src/platform/mpfs_hal/common/nwc/mss_ddr_debug.c ****             }
 405:../src/platform/mpfs_hal/common/nwc/mss_ddr_debug.c **** #endif
 406:../src/platform/mpfs_hal/common/nwc/mss_ddr_debug.c **** #endif
 407:../src/platform/mpfs_hal/common/nwc/mss_ddr_debug.c ****             err_cnt++;
 408:../src/platform/mpfs_hal/common/nwc/mss_ddr_debug.c ****         }
 409:../src/platform/mpfs_hal/common/nwc/mss_ddr_debug.c ****         else
 410:../src/platform/mpfs_hal/common/nwc/mss_ddr_debug.c ****         {
 411:../src/platform/mpfs_hal/common/nwc/mss_ddr_debug.c **** #ifdef DEBUG_DDR_RD_RW_PASS
 412:../src/platform/mpfs_hal/common/nwc/mss_ddr_debug.c ****             //printf("\n\r READ/ WRITE ACCESS passED AT ADDR: 0x%x expected data = 0x%x, Data read 
 413:../src/platform/mpfs_hal/common/nwc/mss_ddr_debug.c ****             uprint64(g_debug_uart, "\n\r READ/ WRITE ACCESS PASSED AT ADDR: 0x"\
 414:../src/platform/mpfs_hal/common/nwc/mss_ddr_debug.c ****                     , (uintptr_t)DDR_word_ptr);
 415:../src/platform/mpfs_hal/common/nwc/mss_ddr_debug.c ****             uprint64(g_debug_uart,"\t READ DATA: 0x", *DDR_word_ptr);
 416:../src/platform/mpfs_hal/common/nwc/mss_ddr_debug.c **** #endif
 417:../src/platform/mpfs_hal/common/nwc/mss_ddr_debug.c ****         }
 418:../src/platform/mpfs_hal/common/nwc/mss_ddr_debug.c ****         DDR_word_ptr = DDR_word_ptr + 1U;
 419:../src/platform/mpfs_hal/common/nwc/mss_ddr_debug.c ****         DDR_8_pt_t   = DDR_8_pt_t +1U;
 420:../src/platform/mpfs_hal/common/nwc/mss_ddr_debug.c ****         DDR_16_pt_t  = DDR_16_pt_t +1U;
 421:../src/platform/mpfs_hal/common/nwc/mss_ddr_debug.c ****         DDR_32_pt_t  = DDR_32_pt_t +1U;
 422:../src/platform/mpfs_hal/common/nwc/mss_ddr_debug.c ****         switch (data_ptrn)
 423:../src/platform/mpfs_hal/common/nwc/mss_ddr_debug.c ****         {
 424:../src/platform/mpfs_hal/common/nwc/mss_ddr_debug.c ****             case PATTERN_INCREMENTAL : DATA = DATA + 0x01; break;
 425:../src/platform/mpfs_hal/common/nwc/mss_ddr_debug.c ****             case PATTERN_WALKING_ONE :
 426:../src/platform/mpfs_hal/common/nwc/mss_ddr_debug.c ****                 if (DATA == 0x80000000)
 427:../src/platform/mpfs_hal/common/nwc/mss_ddr_debug.c ****                     DATA = 0x00000001;
 428:../src/platform/mpfs_hal/common/nwc/mss_ddr_debug.c ****                 else
 429:../src/platform/mpfs_hal/common/nwc/mss_ddr_debug.c ****                     DATA = (DATA << 1);
 430:../src/platform/mpfs_hal/common/nwc/mss_ddr_debug.c ****                 break;
 431:../src/platform/mpfs_hal/common/nwc/mss_ddr_debug.c ****             case PATTERN_WALKING_ZERO :
 432:../src/platform/mpfs_hal/common/nwc/mss_ddr_debug.c ****                 DATA = ~DATA;
 433:../src/platform/mpfs_hal/common/nwc/mss_ddr_debug.c ****                 if (DATA == 0x80000000)
 434:../src/platform/mpfs_hal/common/nwc/mss_ddr_debug.c ****                 {
 435:../src/platform/mpfs_hal/common/nwc/mss_ddr_debug.c ****                     DATA = 0x00000001;
 436:../src/platform/mpfs_hal/common/nwc/mss_ddr_debug.c ****                 }
 437:../src/platform/mpfs_hal/common/nwc/mss_ddr_debug.c ****                 else
 438:../src/platform/mpfs_hal/common/nwc/mss_ddr_debug.c ****                 {
 439:../src/platform/mpfs_hal/common/nwc/mss_ddr_debug.c ****                     DATA = (DATA << 1);
 440:../src/platform/mpfs_hal/common/nwc/mss_ddr_debug.c ****                 }
 441:../src/platform/mpfs_hal/common/nwc/mss_ddr_debug.c ****                 DATA = ~DATA;
 442:../src/platform/mpfs_hal/common/nwc/mss_ddr_debug.c ****                 break;
 443:../src/platform/mpfs_hal/common/nwc/mss_ddr_debug.c ****             case PATTERN_RANDOM :
 444:../src/platform/mpfs_hal/common/nwc/mss_ddr_debug.c ****                 DATA = (uint64_t)rand ( );
 445:../src/platform/mpfs_hal/common/nwc/mss_ddr_debug.c ****                 rand_addr_offset = (uint32_t)(rand() & 0xFFFFCUL);
 400              		.loc 1 445 34 discriminator 1
 401 0076 370C1000 		li	s8,1048576
 426:../src/platform/mpfs_hal/common/nwc/mss_ddr_debug.c ****                     DATA = 0x00000001;
 402              		.loc 1 426 20 discriminator 1
 403 007a 854C     		li	s9,1
 427:../src/platform/mpfs_hal/common/nwc/mss_ddr_debug.c ****                 else
 404              		.loc 1 427 26 discriminator 1
 405 007c CA87     		mv	a5,s2
 406 007e 4A85     		mv	a0,s2
 407 0080 814A     		li	s5,0
 408 0082 014B     		li	s6,0
 374:../src/platform/mpfs_hal/common/nwc/mss_ddr_debug.c ****                 ddr_data = *DDR_32_pt_t;
 409              		.loc 1 374 22 discriminator 1
 410 0084 93DB0B02 		srli	s7,s7,32
 411              		.loc 1 445 34 discriminator 1
 412 0088 711C     		addi	s8,s8,-4
 446:../src/platform/mpfs_hal/common/nwc/mss_ddr_debug.c ****                 DDR_word_ptr = first_DDR_word_pt_t + rand_addr_offset;
 447:../src/platform/mpfs_hal/common/nwc/mss_ddr_debug.c ****                 DDR_8_pt_t   = (uint8_t *)(first_DDR_word_pt_t + rand_addr_offset);
 448:../src/platform/mpfs_hal/common/nwc/mss_ddr_debug.c ****                 DDR_16_pt_t  = (uint16_t *)(first_DDR_word_pt_t + rand_addr_offset);
 449:../src/platform/mpfs_hal/common/nwc/mss_ddr_debug.c ****                 DDR_32_pt_t  = (uint32_t *)(first_DDR_word_pt_t + rand_addr_offset);
 450:../src/platform/mpfs_hal/common/nwc/mss_ddr_debug.c ****                 *DDR_word_ptr   = DATA;
 451:../src/platform/mpfs_hal/common/nwc/mss_ddr_debug.c ****                 *DDR_8_pt_t     = (uint8_t)DATA;
 452:../src/platform/mpfs_hal/common/nwc/mss_ddr_debug.c ****                 *DDR_16_pt_t    = (uint16_t)DATA;
 453:../src/platform/mpfs_hal/common/nwc/mss_ddr_debug.c ****                 *DDR_32_pt_t    = (uint32_t)DATA;
 454:../src/platform/mpfs_hal/common/nwc/mss_ddr_debug.c ****                 break;
 455:../src/platform/mpfs_hal/common/nwc/mss_ddr_debug.c ****             case PATTERN_0xCCCCCCCC :
 456:../src/platform/mpfs_hal/common/nwc/mss_ddr_debug.c ****                 DATA = 0xCCCCCCCCCCCCCCCC;
 457:../src/platform/mpfs_hal/common/nwc/mss_ddr_debug.c ****                 break;
 458:../src/platform/mpfs_hal/common/nwc/mss_ddr_debug.c ****             case PATTERN_0x55555555 :
 459:../src/platform/mpfs_hal/common/nwc/mss_ddr_debug.c ****                 DATA = 0x5555555555555555;
 413              		.loc 1 459 22 discriminator 1
 414 008a 970D0000 		lla	s11,.LC0
 414      938D0D00 
 456:../src/platform/mpfs_hal/common/nwc/mss_ddr_debug.c ****                 break;
 415              		.loc 1 456 22 discriminator 1
 416 0092 97060000 		lla	a3,.LC1
 416      93860600 
 426:../src/platform/mpfs_hal/common/nwc/mss_ddr_debug.c ****                     DATA = 0x00000001;
 417              		.loc 1 426 20 discriminator 1
 418 009a 139DFC01 		slli	s10,s9,31
 419              	.LVL39:
 420              	.L33:
 361:../src/platform/mpfs_hal/common/nwc/mss_ddr_debug.c ****     {
 421              		.loc 1 361 5 discriminator 1
 422 009e 63133B05 		bne	s6,s3,.L47
 460:../src/platform/mpfs_hal/common/nwc/mss_ddr_debug.c ****                 break;
 461:../src/platform/mpfs_hal/common/nwc/mss_ddr_debug.c ****             case PATTERN_ZEROS :
 462:../src/platform/mpfs_hal/common/nwc/mss_ddr_debug.c ****                 DATA = 0x00000000;
 463:../src/platform/mpfs_hal/common/nwc/mss_ddr_debug.c ****                 break;
 464:../src/platform/mpfs_hal/common/nwc/mss_ddr_debug.c ****             default :
 465:../src/platform/mpfs_hal/common/nwc/mss_ddr_debug.c ****                 break;
 466:../src/platform/mpfs_hal/common/nwc/mss_ddr_debug.c ****           }
 467:../src/platform/mpfs_hal/common/nwc/mss_ddr_debug.c ****     }
 468:../src/platform/mpfs_hal/common/nwc/mss_ddr_debug.c ****     return (err_cnt);
 423              		.loc 1 468 5 is_stmt 1
 469:../src/platform/mpfs_hal/common/nwc/mss_ddr_debug.c **** }
 424              		.loc 1 469 1 is_stmt 0
 425 00a2 E670     		ld	ra,120(sp)
 426              		.cfi_remember_state
 427              		.cfi_restore 1
 428 00a4 4674     		ld	s0,112(sp)
 429              		.cfi_restore 8
 430              	.LVL40:
 431 00a6 5685     		mv	a0,s5
 432              	.LVL41:
 433 00a8 A674     		ld	s1,104(sp)
 434              		.cfi_restore 9
 435 00aa 0679     		ld	s2,96(sp)
 436              		.cfi_restore 18
 437              	.LVL42:
 438 00ac E669     		ld	s3,88(sp)
 439              		.cfi_restore 19
 440 00ae 466A     		ld	s4,80(sp)
 441              		.cfi_restore 20
 442 00b0 A66A     		ld	s5,72(sp)
 443              		.cfi_restore 21
 444              	.LVL43:
 445 00b2 066B     		ld	s6,64(sp)
 446              		.cfi_restore 22
 447              	.LVL44:
 448 00b4 E27B     		ld	s7,56(sp)
 449              		.cfi_restore 23
 450 00b6 427C     		ld	s8,48(sp)
 451              		.cfi_restore 24
 452 00b8 A27C     		ld	s9,40(sp)
 453              		.cfi_restore 25
 454 00ba 027D     		ld	s10,32(sp)
 455              		.cfi_restore 26
 456 00bc E26D     		ld	s11,24(sp)
 457              		.cfi_restore 27
 458 00be 0961     		addi	sp,sp,128
 459              		.cfi_def_cfa_offset 0
 460 00c0 8280     		jr	ra
 461              	.LVL45:
 462              	.L50:
 463              		.cfi_restore_state
 345:../src/platform/mpfs_hal/common/nwc/mss_ddr_debug.c ****             break;
 464              		.loc 1 345 18
 465 00c2 97070000 		lla	a5,.LC1
 465      93870700 
 466              	.L59:
 348:../src/platform/mpfs_hal/common/nwc/mss_ddr_debug.c ****             break;
 467              		.loc 1 348 18
 468 00ca 8063     		ld	s0,0(a5)
 469 00cc 65B7     		j	.L31
 470              	.LVL46:
 471              	.L34:
 359:../src/platform/mpfs_hal/common/nwc/mss_ddr_debug.c ****     }
 472              		.loc 1 359 9 is_stmt 1
 473              	.LBB8:
 474              	.LBB9:
 475              		.file 2 "../src/platform/mpfs_hal/common/nwc/mss_nwc_init.h"
   1:../src/platform/mpfs_hal/common/nwc/mss_nwc_init.h **** /*******************************************************************************
   2:../src/platform/mpfs_hal/common/nwc/mss_nwc_init.h ****  * Copyright 2019-2022 Microchip FPGA Embedded Systems Solutions.
   3:../src/platform/mpfs_hal/common/nwc/mss_nwc_init.h ****  *
   4:../src/platform/mpfs_hal/common/nwc/mss_nwc_init.h ****  * SPDX-License-Identifier: MIT
   5:../src/platform/mpfs_hal/common/nwc/mss_nwc_init.h ****  *
   6:../src/platform/mpfs_hal/common/nwc/mss_nwc_init.h ****  * MPFS HAL Embedded Software
   7:../src/platform/mpfs_hal/common/nwc/mss_nwc_init.h ****  *
   8:../src/platform/mpfs_hal/common/nwc/mss_nwc_init.h ****  */
   9:../src/platform/mpfs_hal/common/nwc/mss_nwc_init.h **** 
  10:../src/platform/mpfs_hal/common/nwc/mss_nwc_init.h **** /*******************************************************************************
  11:../src/platform/mpfs_hal/common/nwc/mss_nwc_init.h ****  * @file mss_nwc_init.h
  12:../src/platform/mpfs_hal/common/nwc/mss_nwc_init.h ****  * @author Microchip-FPGA Embedded Systems Solutions
  13:../src/platform/mpfs_hal/common/nwc/mss_nwc_init.h ****  * @brief defines for mss_nwc_init.c
  14:../src/platform/mpfs_hal/common/nwc/mss_nwc_init.h ****  *
  15:../src/platform/mpfs_hal/common/nwc/mss_nwc_init.h ****  */
  16:../src/platform/mpfs_hal/common/nwc/mss_nwc_init.h **** 
  17:../src/platform/mpfs_hal/common/nwc/mss_nwc_init.h **** /*=========================================================================*//**
  18:../src/platform/mpfs_hal/common/nwc/mss_nwc_init.h ****   @page MPFS MSS NWC configuration
  19:../src/platform/mpfs_hal/common/nwc/mss_nwc_init.h ****   ==============================================================================
  20:../src/platform/mpfs_hal/common/nwc/mss_nwc_init.h ****   @section intro_sec Introduction
  21:../src/platform/mpfs_hal/common/nwc/mss_nwc_init.h ****   ==============================================================================
  22:../src/platform/mpfs_hal/common/nwc/mss_nwc_init.h ****   The MPFS microcontroller subsystem (MSS) includes a number of hard core
  23:../src/platform/mpfs_hal/common/nwc/mss_nwc_init.h ****   components physically located in the north west corner of the MSS on the die.
  24:../src/platform/mpfs_hal/common/nwc/mss_nwc_init.h **** 
  25:../src/platform/mpfs_hal/common/nwc/mss_nwc_init.h ****   ==============================================================================
  26:../src/platform/mpfs_hal/common/nwc/mss_nwc_init.h ****   @section Items located in the north west corner
  27:../src/platform/mpfs_hal/common/nwc/mss_nwc_init.h ****   ==============================================================================
  28:../src/platform/mpfs_hal/common/nwc/mss_nwc_init.h ****   MSS PLL
  29:../src/platform/mpfs_hal/common/nwc/mss_nwc_init.h ****   SGMII
  30:../src/platform/mpfs_hal/common/nwc/mss_nwc_init.h ****   DDR phy
  31:../src/platform/mpfs_hal/common/nwc/mss_nwc_init.h ****   MSSIO
  32:../src/platform/mpfs_hal/common/nwc/mss_nwc_init.h **** 
  33:../src/platform/mpfs_hal/common/nwc/mss_nwc_init.h ****   ==============================================================================
  34:../src/platform/mpfs_hal/common/nwc/mss_nwc_init.h ****   @section Flow diagram
  35:../src/platform/mpfs_hal/common/nwc/mss_nwc_init.h ****   ==============================================================================
  36:../src/platform/mpfs_hal/common/nwc/mss_nwc_init.h ****   todo: remove, added line here as test *****
  37:../src/platform/mpfs_hal/common/nwc/mss_nwc_init.h ****   Simplified flow diagram
  38:../src/platform/mpfs_hal/common/nwc/mss_nwc_init.h ****                               +-----------------+
  39:../src/platform/mpfs_hal/common/nwc/mss_nwc_init.h ****                               |     start       |
  40:../src/platform/mpfs_hal/common/nwc/mss_nwc_init.h ****                               |  NWC setup      |
  41:../src/platform/mpfs_hal/common/nwc/mss_nwc_init.h ****                               +-------+---------+
  42:../src/platform/mpfs_hal/common/nwc/mss_nwc_init.h ****                                       v
  43:../src/platform/mpfs_hal/common/nwc/mss_nwc_init.h ****                               +-----------------+
  44:../src/platform/mpfs_hal/common/nwc/mss_nwc_init.h ****                               |   set SCB access|
  45:../src/platform/mpfs_hal/common/nwc/mss_nwc_init.h ****                               |   Parameters    |
  46:../src/platform/mpfs_hal/common/nwc/mss_nwc_init.h ****                               +-------+---------+
  47:../src/platform/mpfs_hal/common/nwc/mss_nwc_init.h ****                                       |
  48:../src/platform/mpfs_hal/common/nwc/mss_nwc_init.h ****                               +-------v---------+
  49:../src/platform/mpfs_hal/common/nwc/mss_nwc_init.h ****                               | Release APB NWC |
  50:../src/platform/mpfs_hal/common/nwc/mss_nwc_init.h ****                               | Turn on APB clk |
  51:../src/platform/mpfs_hal/common/nwc/mss_nwc_init.h ****                               +-------+---------+
  52:../src/platform/mpfs_hal/common/nwc/mss_nwc_init.h ****                                       |
  53:../src/platform/mpfs_hal/common/nwc/mss_nwc_init.h ****                               +-------v---------+
  54:../src/platform/mpfs_hal/common/nwc/mss_nwc_init.h ****                               | Set Dynamic     |
  55:../src/platform/mpfs_hal/common/nwc/mss_nwc_init.h ****                               | enable bits     |
  56:../src/platform/mpfs_hal/common/nwc/mss_nwc_init.h ****                               +-------++--------+
  57:../src/platform/mpfs_hal/common/nwc/mss_nwc_init.h ****                                       |
  58:../src/platform/mpfs_hal/common/nwc/mss_nwc_init.h ****                               +-------v---------+
  59:../src/platform/mpfs_hal/common/nwc/mss_nwc_init.h ****                               | Setup signals   |
  60:../src/platform/mpfs_hal/common/nwc/mss_nwc_init.h ****                               | DCE,CORE_UP,    |
  61:../src/platform/mpfs_hal/common/nwc/mss_nwc_init.h ****                               | Flash_Valid,    |
  62:../src/platform/mpfs_hal/common/nwc/mss_nwc_init.h ****                               | MSS_IO_EN       |
  63:../src/platform/mpfs_hal/common/nwc/mss_nwc_init.h ****                               +-------+---------+
  64:../src/platform/mpfs_hal/common/nwc/mss_nwc_init.h ****                                       |
  65:../src/platform/mpfs_hal/common/nwc/mss_nwc_init.h ****                               +-------v---------+
  66:../src/platform/mpfs_hal/common/nwc/mss_nwc_init.h ****                               | Setup SGMII     |
  67:../src/platform/mpfs_hal/common/nwc/mss_nwc_init.h ****                               |                 |
  68:../src/platform/mpfs_hal/common/nwc/mss_nwc_init.h ****                               +-------+---------+
  69:../src/platform/mpfs_hal/common/nwc/mss_nwc_init.h ****                                       |
  70:../src/platform/mpfs_hal/common/nwc/mss_nwc_init.h ****                               +-------v---------+
  71:../src/platform/mpfs_hal/common/nwc/mss_nwc_init.h ****                               | Setup DDR       |
  72:../src/platform/mpfs_hal/common/nwc/mss_nwc_init.h ****                               |                 |
  73:../src/platform/mpfs_hal/common/nwc/mss_nwc_init.h ****                               +-------+---------+
  74:../src/platform/mpfs_hal/common/nwc/mss_nwc_init.h ****                                       |
  75:../src/platform/mpfs_hal/common/nwc/mss_nwc_init.h ****                               +-------v---------+
  76:../src/platform/mpfs_hal/common/nwc/mss_nwc_init.h ****                               | Setup MSSIO     |
  77:../src/platform/mpfs_hal/common/nwc/mss_nwc_init.h ****                               |                 |
  78:../src/platform/mpfs_hal/common/nwc/mss_nwc_init.h ****                               +-------+---------+
  79:../src/platform/mpfs_hal/common/nwc/mss_nwc_init.h ****                                       |
  80:../src/platform/mpfs_hal/common/nwc/mss_nwc_init.h ****                               +-------v---------+
  81:../src/platform/mpfs_hal/common/nwc/mss_nwc_init.h ****                               |    Finished     |
  82:../src/platform/mpfs_hal/common/nwc/mss_nwc_init.h ****                               +-----------------+
  83:../src/platform/mpfs_hal/common/nwc/mss_nwc_init.h **** 
  84:../src/platform/mpfs_hal/common/nwc/mss_nwc_init.h ****  *//*=========================================================================*/
  85:../src/platform/mpfs_hal/common/nwc/mss_nwc_init.h **** #ifndef __MSS_NWC_INIT_H_
  86:../src/platform/mpfs_hal/common/nwc/mss_nwc_init.h **** #define __MSS_NWC_INIT_H_ 1
  87:../src/platform/mpfs_hal/common/nwc/mss_nwc_init.h **** 
  88:../src/platform/mpfs_hal/common/nwc/mss_nwc_init.h **** 
  89:../src/platform/mpfs_hal/common/nwc/mss_nwc_init.h **** #include <stddef.h>
  90:../src/platform/mpfs_hal/common/nwc/mss_nwc_init.h **** #include <stdint.h>
  91:../src/platform/mpfs_hal/common/nwc/mss_nwc_init.h **** #include "../encoding.h"
  92:../src/platform/mpfs_hal/common/nwc/mss_nwc_init.h **** 
  93:../src/platform/mpfs_hal/common/nwc/mss_nwc_init.h **** #ifdef __cplusplus
  94:../src/platform/mpfs_hal/common/nwc/mss_nwc_init.h **** extern "C" {
  95:../src/platform/mpfs_hal/common/nwc/mss_nwc_init.h **** #endif
  96:../src/platform/mpfs_hal/common/nwc/mss_nwc_init.h **** 
  97:../src/platform/mpfs_hal/common/nwc/mss_nwc_init.h **** #define DELAY_CYCLES_500_NS            ((uint32_t)(0.0000005 * LIBERO_SETTING_MSS_COREPLEX_CPU_CLK)
  98:../src/platform/mpfs_hal/common/nwc/mss_nwc_init.h **** #define DELAY_CYCLES_1_MICRO           ((uint32_t)(DELAY_CYCLES_500_NS * 2U))
  99:../src/platform/mpfs_hal/common/nwc/mss_nwc_init.h **** #define DELAY_CYCLES_5_MICRO           ((uint32_t)(DELAY_CYCLES_500_NS * 10U))
 100:../src/platform/mpfs_hal/common/nwc/mss_nwc_init.h **** #define DELAY_CYCLES_50_MICRO          ((uint32_t)(DELAY_CYCLES_500_NS * 100U))
 101:../src/platform/mpfs_hal/common/nwc/mss_nwc_init.h **** #define DELAY_CYCLES_150_MICRO         ((uint32_t)(DELAY_CYCLES_500_NS * 300U))
 102:../src/platform/mpfs_hal/common/nwc/mss_nwc_init.h **** #define DELAY_CYCLES_250_MICRO         ((uint32_t)(DELAY_CYCLES_500_NS * 500U))
 103:../src/platform/mpfs_hal/common/nwc/mss_nwc_init.h **** #define DELAY_CYCLES_500_MICRO         ((uint32_t)(DELAY_CYCLES_500_NS * 1000U))
 104:../src/platform/mpfs_hal/common/nwc/mss_nwc_init.h **** #define DELAY_CYCLES_2MS               ((uint32_t)(DELAY_CYCLES_500_NS * 4000U))
 105:../src/platform/mpfs_hal/common/nwc/mss_nwc_init.h **** #define DELAY_CYCLES_100MS             ((uint32_t)(DELAY_CYCLES_2MS * 50U))
 106:../src/platform/mpfs_hal/common/nwc/mss_nwc_init.h **** 
 107:../src/platform/mpfs_hal/common/nwc/mss_nwc_init.h **** /***************************************************************************//**
 108:../src/platform/mpfs_hal/common/nwc/mss_nwc_init.h **** 
 109:../src/platform/mpfs_hal/common/nwc/mss_nwc_init.h ****  */
 110:../src/platform/mpfs_hal/common/nwc/mss_nwc_init.h **** typedef enum {
 111:../src/platform/mpfs_hal/common/nwc/mss_nwc_init.h ****     DDR_BOOT_PROGRESS      = 0x00      //!< DDR_BOOT_PROGRESS
 112:../src/platform/mpfs_hal/common/nwc/mss_nwc_init.h **** } MSS_REPORT_STATUS;
 113:../src/platform/mpfs_hal/common/nwc/mss_nwc_init.h **** 
 114:../src/platform/mpfs_hal/common/nwc/mss_nwc_init.h **** /*-------------------------------------------------------------------------*//**
 115:../src/platform/mpfs_hal/common/nwc/mss_nwc_init.h ****  * delay()
 116:../src/platform/mpfs_hal/common/nwc/mss_nwc_init.h ****  * Simple wait delay based on mcycles count
 117:../src/platform/mpfs_hal/common/nwc/mss_nwc_init.h ****  * @param n Number of mcycles to wait.
 118:../src/platform/mpfs_hal/common/nwc/mss_nwc_init.h ****  */
 119:../src/platform/mpfs_hal/common/nwc/mss_nwc_init.h **** static inline void delay(uint32_t n)
 120:../src/platform/mpfs_hal/common/nwc/mss_nwc_init.h **** {
 121:../src/platform/mpfs_hal/common/nwc/mss_nwc_init.h ****     volatile uint64_t cycles_end = rdcycle() + n ;
 476              		.loc 2 121 5
 477              	.LBB10:
 478              		.loc 2 121 36
 479              		.loc 2 121 36
 480              	 #APP
 481              	# 121 "../src/platform/mpfs_hal/common/nwc/mss_nwc_init.h" 1
 122              	    while (rdcycle() < cycles_end)
 482              		csrr a5, cycle
 483              	# 0 "" 2
 484              	.LVL47:
 121:../src/platform/mpfs_hal/common/nwc/mss_nwc_init.h ****     volatile uint64_t cycles_end = rdcycle() + n ;
 485              		.loc 2 121 36
 486              	 #NO_APP
 487              	.LBE10:
 121:../src/platform/mpfs_hal/common/nwc/mss_nwc_init.h ****     volatile uint64_t cycles_end = rdcycle() + n ;
 488              		.loc 2 121 46 is_stmt 0
 489 00d2 9387C712 		addi	a5,a5,300
 490              	.LVL48:
 121:../src/platform/mpfs_hal/common/nwc/mss_nwc_init.h ****     volatile uint64_t cycles_end = rdcycle() + n ;
 491              		.loc 2 121 23
 492 00d6 3EE4     		sd	a5,8(sp)
 493              		.loc 2 122 5 is_stmt 1
 494              	.LVL49:
 495              	.L35:
 123:../src/platform/mpfs_hal/common/nwc/mss_nwc_init.h ****     {
 124:../src/platform/mpfs_hal/common/nwc/mss_nwc_init.h **** 
 125:../src/platform/mpfs_hal/common/nwc/mss_nwc_init.h ****     }
 496              		.loc 2 125 5
 497              	.LBB11:
 122:../src/platform/mpfs_hal/common/nwc/mss_nwc_init.h ****     {
 498              		.loc 2 122 12
 122:../src/platform/mpfs_hal/common/nwc/mss_nwc_init.h ****     {
 499              		.loc 2 122 12
 500              	 #APP
 501              	# 122 "../src/platform/mpfs_hal/common/nwc/mss_nwc_init.h" 1
 502              		csrr a4, cycle
 503              	# 0 "" 2
 504              	.LVL50:
 122:../src/platform/mpfs_hal/common/nwc/mss_nwc_init.h ****     {
 505              		.loc 2 122 12
 506              	 #NO_APP
 507              	.LBE11:
 122:../src/platform/mpfs_hal/common/nwc/mss_nwc_init.h ****     {
 508              		.loc 2 122 22 is_stmt 0
 509 00dc A267     		ld	a5,8(sp)
 122:../src/platform/mpfs_hal/common/nwc/mss_nwc_init.h ****     {
 510              		.loc 2 122 11
 511 00de E36DF7FE 		bltu	a4,a5,.L35
 512 00e2 95B7     		j	.L36
 513              	.LVL51:
 514              	.L47:
 515              	.LBE9:
 516              	.LBE8:
 363:../src/platform/mpfs_hal/common/nwc/mss_ddr_debug.c ****         {
 517              		.loc 1 363 9 is_stmt 1
 518 00e4 0947     		li	a4,2
 519 00e6 631DEA02 		bne	s4,a4,.L37
 374:../src/platform/mpfs_hal/common/nwc/mss_ddr_debug.c ****                 ddr_data = *DDR_32_pt_t;
 520              		.loc 1 374 17
 375:../src/platform/mpfs_hal/common/nwc/mss_ddr_debug.c ****                 break;
 521              		.loc 1 375 28 is_stmt 0
 522 00ea 03E70700 		lwu	a4,0(a5)
 374:../src/platform/mpfs_hal/common/nwc/mss_ddr_debug.c ****                 ddr_data = *DDR_32_pt_t;
 523              		.loc 1 374 22
 524 00ee 33747401 		and	s0,s0,s7
 525              	.LVL52:
 375:../src/platform/mpfs_hal/common/nwc/mss_ddr_debug.c ****                 break;
 526              		.loc 1 375 17 is_stmt 1
 527              	.L60:
 380:../src/platform/mpfs_hal/common/nwc/mss_ddr_debug.c ****                 break;
 528              		.loc 1 380 26 is_stmt 0
 529 00f2 3AE0     		sd	a4,0(sp)
 381:../src/platform/mpfs_hal/common/nwc/mss_ddr_debug.c ****         }
 530              		.loc 1 381 17 is_stmt 1
 391:../src/platform/mpfs_hal/common/nwc/mss_ddr_debug.c ****         {
 531              		.loc 1 391 9
 391:../src/platform/mpfs_hal/common/nwc/mss_ddr_debug.c ****         {
 532              		.loc 1 391 22 is_stmt 0
 533 00f4 0267     		ld	a4,0(sp)
 391:../src/platform/mpfs_hal/common/nwc/mss_ddr_debug.c ****         {
 534              		.loc 1 391 12
 535 00f6 63038700 		beq	a4,s0,.L39
 407:../src/platform/mpfs_hal/common/nwc/mss_ddr_debug.c ****         }
 536              		.loc 1 407 13 is_stmt 1
 407:../src/platform/mpfs_hal/common/nwc/mss_ddr_debug.c ****         }
 537              		.loc 1 407 20 is_stmt 0
 538 00fa 852A     		addiw	s5,s5,1
 539              	.LVL53:
 540              	.L39:
 417:../src/platform/mpfs_hal/common/nwc/mss_ddr_debug.c ****         DDR_word_ptr = DDR_word_ptr + 1U;
 541              		.loc 1 417 9 is_stmt 1
 418:../src/platform/mpfs_hal/common/nwc/mss_ddr_debug.c ****         DDR_8_pt_t   = DDR_8_pt_t +1U;
 542              		.loc 1 418 9
 422:../src/platform/mpfs_hal/common/nwc/mss_ddr_debug.c ****         {
 543              		.loc 1 422 9 is_stmt 0
 544 00fc 2147     		li	a4,8
 418:../src/platform/mpfs_hal/common/nwc/mss_ddr_debug.c ****         DDR_8_pt_t   = DDR_8_pt_t +1U;
 545              		.loc 1 418 22
 546 00fe 2105     		addi	a0,a0,8
 547              	.LVL54:
 419:../src/platform/mpfs_hal/common/nwc/mss_ddr_debug.c ****         DDR_16_pt_t  = DDR_16_pt_t +1U;
 548              		.loc 1 419 9 is_stmt 1
 420:../src/platform/mpfs_hal/common/nwc/mss_ddr_debug.c ****         DDR_32_pt_t  = DDR_32_pt_t +1U;
 549              		.loc 1 420 9
 421:../src/platform/mpfs_hal/common/nwc/mss_ddr_debug.c ****         switch (data_ptrn)
 550              		.loc 1 421 9
 421:../src/platform/mpfs_hal/common/nwc/mss_ddr_debug.c ****         switch (data_ptrn)
 551              		.loc 1 421 22 is_stmt 0
 552 0100 9107     		addi	a5,a5,4
 553              	.LVL55:
 422:../src/platform/mpfs_hal/common/nwc/mss_ddr_debug.c ****         {
 554              		.loc 1 422 9 is_stmt 1
 555 0102 638CE404 		beq	s1,a4,.L40
 556 0106 636F9700 		bgtu	s1,a4,.L41
 557 010a 0947     		li	a4,2
 558 010c 6389E402 		beq	s1,a4,.L42
 559 0110 1147     		li	a4,4
 560 0112 638AE402 		beq	s1,a4,.L43
 561 0116 63939401 		bne	s1,s9,.L45
 424:../src/platform/mpfs_hal/common/nwc/mss_ddr_debug.c ****             case PATTERN_WALKING_ONE :
 562              		.loc 1 424 40
 424:../src/platform/mpfs_hal/common/nwc/mss_ddr_debug.c ****             case PATTERN_WALKING_ONE :
 563              		.loc 1 424 45 is_stmt 0
 564 011a 0504     		addi	s0,s0,1
 565              	.LVL56:
 424:../src/platform/mpfs_hal/common/nwc/mss_ddr_debug.c ****             case PATTERN_WALKING_ONE :
 566              		.loc 1 424 60 is_stmt 1
 567              	.L45:
 361:../src/platform/mpfs_hal/common/nwc/mss_ddr_debug.c ****     {
 568              		.loc 1 361 37 is_stmt 0 discriminator 2
 569 011c 052B     		addiw	s6,s6,1
 570              	.LVL57:
 571 011e 41B7     		j	.L33
 572              	.LVL58:
 573              	.L37:
 379:../src/platform/mpfs_hal/common/nwc/mss_ddr_debug.c ****                 ddr_data = *DDR_word_pt_t;
 574              		.loc 1 379 17 is_stmt 1
 380:../src/platform/mpfs_hal/common/nwc/mss_ddr_debug.c ****                 break;
 575              		.loc 1 380 17
 380:../src/platform/mpfs_hal/common/nwc/mss_ddr_debug.c ****                 break;
 576              		.loc 1 380 28 is_stmt 0
 577 0120 1861     		ld	a4,0(a0)
 578 0122 C1BF     		j	.L60
 579              	.LVL59:
 580              	.L41:
 422:../src/platform/mpfs_hal/common/nwc/mss_ddr_debug.c ****         {
 581              		.loc 1 422 9
 582 0124 13070002 		li	a4,32
 583 0128 638FE404 		beq	s1,a4,.L52
 584 012c 13070004 		li	a4,64
 585 0130 638EE404 		beq	s1,a4,.L53
 586 0134 4147     		li	a4,16
 587 0136 E393E4FE 		bne	s1,a4,.L45
 456:../src/platform/mpfs_hal/common/nwc/mss_ddr_debug.c ****                 break;
 588              		.loc 1 456 22
 589 013a 8062     		ld	s0,0(a3)
 590              	.LVL60:
 591 013c C5B7     		j	.L45
 592              	.LVL61:
 593              	.L42:
 426:../src/platform/mpfs_hal/common/nwc/mss_ddr_debug.c ****                     DATA = 0x00000001;
 594              		.loc 1 426 17 is_stmt 1
 426:../src/platform/mpfs_hal/common/nwc/mss_ddr_debug.c ****                     DATA = 0x00000001;
 595              		.loc 1 426 20 is_stmt 0
 596 013e 6309A405 		beq	s0,s10,.L55
 429:../src/platform/mpfs_hal/common/nwc/mss_ddr_debug.c ****                 break;
 597              		.loc 1 429 21 is_stmt 1
 429:../src/platform/mpfs_hal/common/nwc/mss_ddr_debug.c ****                 break;
 598              		.loc 1 429 26 is_stmt 0
 599 0142 0604     		slli	s0,s0,1
 600              	.LVL62:
 601 0144 E1BF     		j	.L45
 602              	.L43:
 432:../src/platform/mpfs_hal/common/nwc/mss_ddr_debug.c ****                 if (DATA == 0x80000000)
 603              		.loc 1 432 17 is_stmt 1
 432:../src/platform/mpfs_hal/common/nwc/mss_ddr_debug.c ****                 if (DATA == 0x80000000)
 604              		.loc 1 432 22 is_stmt 0
 605 0146 1347F4FF 		not	a4,s0
 606              	.LVL63:
 433:../src/platform/mpfs_hal/common/nwc/mss_ddr_debug.c ****                 {
 607              		.loc 1 433 17 is_stmt 1
 435:../src/platform/mpfs_hal/common/nwc/mss_ddr_debug.c ****                 }
 608              		.loc 1 435 26 is_stmt 0
 609 014a 0544     		li	s0,1
 433:../src/platform/mpfs_hal/common/nwc/mss_ddr_debug.c ****                 {
 610              		.loc 1 433 20
 611 014c 6304A701 		beq	a4,s10,.L46
 439:../src/platform/mpfs_hal/common/nwc/mss_ddr_debug.c ****                 }
 612              		.loc 1 439 21 is_stmt 1
 439:../src/platform/mpfs_hal/common/nwc/mss_ddr_debug.c ****                 }
 613              		.loc 1 439 26 is_stmt 0
 614 0150 13141700 		slli	s0,a4,1
 615              	.LVL64:
 616              	.L46:
 441:../src/platform/mpfs_hal/common/nwc/mss_ddr_debug.c ****                 break;
 617              		.loc 1 441 17 is_stmt 1
 441:../src/platform/mpfs_hal/common/nwc/mss_ddr_debug.c ****                 break;
 618              		.loc 1 441 22 is_stmt 0
 619 0154 1344F4FF 		not	s0,s0
 620              	.LVL65:
 442:../src/platform/mpfs_hal/common/nwc/mss_ddr_debug.c ****             case PATTERN_RANDOM :
 621              		.loc 1 442 17 is_stmt 1
 622 0158 D1B7     		j	.L45
 623              	.L40:
 444:../src/platform/mpfs_hal/common/nwc/mss_ddr_debug.c ****                 rand_addr_offset = (uint32_t)(rand() & 0xFFFFCUL);
 624              		.loc 1 444 17
 444:../src/platform/mpfs_hal/common/nwc/mss_ddr_debug.c ****                 rand_addr_offset = (uint32_t)(rand() & 0xFFFFCUL);
 625              		.loc 1 444 34 is_stmt 0
 626 015a 97000000 		call	rand
 626      E7800000 
 627              	.LVL66:
 628 0162 2A84     		mv	s0,a0
 629              	.LVL67:
 445:../src/platform/mpfs_hal/common/nwc/mss_ddr_debug.c ****                 DDR_word_ptr = first_DDR_word_pt_t + rand_addr_offset;
 630              		.loc 1 445 17 is_stmt 1
 445:../src/platform/mpfs_hal/common/nwc/mss_ddr_debug.c ****                 DDR_word_ptr = first_DDR_word_pt_t + rand_addr_offset;
 631              		.loc 1 445 47 is_stmt 0
 632 0164 97000000 		call	rand
 632      E7800000 
 633              	.LVL68:
 446:../src/platform/mpfs_hal/common/nwc/mss_ddr_debug.c ****                 DDR_8_pt_t   = (uint8_t *)(first_DDR_word_pt_t + rand_addr_offset);
 634              		.loc 1 446 17 is_stmt 1
 445:../src/platform/mpfs_hal/common/nwc/mss_ddr_debug.c ****                 DDR_word_ptr = first_DDR_word_pt_t + rand_addr_offset;
 635              		.loc 1 445 34 is_stmt 0
 636 016c 33758501 		and	a0,a0,s8
 637              	.LVL69:
 446:../src/platform/mpfs_hal/common/nwc/mss_ddr_debug.c ****                 DDR_8_pt_t   = (uint8_t *)(first_DDR_word_pt_t + rand_addr_offset);
 638              		.loc 1 446 52
 639 0170 0215     		slli	a0,a0,32
 640 0172 7581     		srli	a0,a0,29
 446:../src/platform/mpfs_hal/common/nwc/mss_ddr_debug.c ****                 DDR_8_pt_t   = (uint8_t *)(first_DDR_word_pt_t + rand_addr_offset);
 641              		.loc 1 446 30
 642 0174 4A95     		add	a0,s2,a0
 643              	.LVL70:
 447:../src/platform/mpfs_hal/common/nwc/mss_ddr_debug.c ****                 DDR_16_pt_t  = (uint16_t *)(first_DDR_word_pt_t + rand_addr_offset);
 644              		.loc 1 447 17 is_stmt 1
 448:../src/platform/mpfs_hal/common/nwc/mss_ddr_debug.c ****                 DDR_32_pt_t  = (uint32_t *)(first_DDR_word_pt_t + rand_addr_offset);
 645              		.loc 1 448 17
 449:../src/platform/mpfs_hal/common/nwc/mss_ddr_debug.c ****                 *DDR_word_ptr   = DATA;
 646              		.loc 1 449 17
 450:../src/platform/mpfs_hal/common/nwc/mss_ddr_debug.c ****                 *DDR_8_pt_t     = (uint8_t)DATA;
 647              		.loc 1 450 17
 450:../src/platform/mpfs_hal/common/nwc/mss_ddr_debug.c ****                 *DDR_8_pt_t     = (uint8_t)DATA;
 648              		.loc 1 450 33 is_stmt 0
 649 0176 00E1     		sd	s0,0(a0)
 451:../src/platform/mpfs_hal/common/nwc/mss_ddr_debug.c ****                 *DDR_16_pt_t    = (uint16_t)DATA;
 650              		.loc 1 451 17 is_stmt 1
 452:../src/platform/mpfs_hal/common/nwc/mss_ddr_debug.c ****                 *DDR_32_pt_t    = (uint32_t)DATA;
 651              		.loc 1 452 17
 453:../src/platform/mpfs_hal/common/nwc/mss_ddr_debug.c ****                 break;
 652              		.loc 1 453 17
 453:../src/platform/mpfs_hal/common/nwc/mss_ddr_debug.c ****                 break;
 653              		.loc 1 453 35 is_stmt 0
 654 0178 00C1     		sw	s0,0(a0)
 454:../src/platform/mpfs_hal/common/nwc/mss_ddr_debug.c ****             case PATTERN_0xCCCCCCCC :
 655              		.loc 1 454 17 is_stmt 1
 656 017a AA87     		mv	a5,a0
 657 017c 97060000 		lla	a3,.LC1
 657      93860600 
 658 0184 61BF     		j	.L45
 659              	.LVL71:
 660              	.L52:
 459:../src/platform/mpfs_hal/common/nwc/mss_ddr_debug.c ****                 break;
 661              		.loc 1 459 22 is_stmt 0
 662 0186 03B40D00 		ld	s0,0(s11)
 663              	.LVL72:
 664 018a 49BF     		j	.L45
 665              	.LVL73:
 666              	.L53:
 462:../src/platform/mpfs_hal/common/nwc/mss_ddr_debug.c ****                 break;
 667              		.loc 1 462 22
 668 018c 0144     		li	s0,0
 669              	.LVL74:
 670 018e 79B7     		j	.L45
 671              	.LVL75:
 672              	.L55:
 427:../src/platform/mpfs_hal/common/nwc/mss_ddr_debug.c ****                 else
 673              		.loc 1 427 26
 674 0190 0544     		li	s0,1
 675              	.LVL76:
 676 0192 69B7     		j	.L45
 677              		.cfi_endproc
 678              	.LFE25:
 680              		.section	.text.ddr_read_write_fn,"ax",@progbits
 681              		.align	1
 682              		.globl	ddr_read_write_fn
 684              	ddr_read_write_fn:
 685              	.LFB26:
 470:../src/platform/mpfs_hal/common/nwc/mss_ddr_debug.c **** 
 471:../src/platform/mpfs_hal/common/nwc/mss_ddr_debug.c **** /***************************************************************************//**
 472:../src/platform/mpfs_hal/common/nwc/mss_ddr_debug.c ****  *
 473:../src/platform/mpfs_hal/common/nwc/mss_ddr_debug.c ****  * @param DDR_word_ptr  Address
 474:../src/platform/mpfs_hal/common/nwc/mss_ddr_debug.c ****  * @param no_access  Number of addresses
 475:../src/platform/mpfs_hal/common/nwc/mss_ddr_debug.c ****  * @param pattern bit mask with patterns you want to test against
 476:../src/platform/mpfs_hal/common/nwc/mss_ddr_debug.c ****  * @return
 477:../src/platform/mpfs_hal/common/nwc/mss_ddr_debug.c ****  */
 478:../src/platform/mpfs_hal/common/nwc/mss_ddr_debug.c **** uint32_t ddr_read_write_fn (uint64_t* DDR_word_ptr, uint32_t no_access,\
 479:../src/platform/mpfs_hal/common/nwc/mss_ddr_debug.c ****                                                                uint32_t pattern)
 480:../src/platform/mpfs_hal/common/nwc/mss_ddr_debug.c **** {
 686              		.loc 1 480 1 is_stmt 1
 687              		.cfi_startproc
 688              	.LVL77:
 481:../src/platform/mpfs_hal/common/nwc/mss_ddr_debug.c ****     uint32_t error_cnt = 0U;
 689              		.loc 1 481 5
 482:../src/platform/mpfs_hal/common/nwc/mss_ddr_debug.c ****     uint8_t pattern_mask;
 690              		.loc 1 482 5
 483:../src/platform/mpfs_hal/common/nwc/mss_ddr_debug.c ****     for (unsigned i=0; i < 1; i++)
 691              		.loc 1 483 5
 692              	.LBB12:
 693              		.loc 1 483 10
 694              	.LBE12:
 480:../src/platform/mpfs_hal/common/nwc/mss_ddr_debug.c ****     uint32_t error_cnt = 0U;
 695              		.loc 1 480 1 is_stmt 0
 696 0000 5D71     		addi	sp,sp,-80
 697              		.cfi_def_cfa_offset 80
 698 0002 4EF8     		sd	s3,48(sp)
 699 0004 52F4     		sd	s4,40(sp)
 700 0006 56F0     		sd	s5,32(sp)
 701 0008 5AEC     		sd	s6,24(sp)
 702 000a 5EE8     		sd	s7,16(sp)
 703 000c 62E4     		sd	s8,8(sp)
 704 000e 66E0     		sd	s9,0(sp)
 705 0010 86E4     		sd	ra,72(sp)
 706 0012 A2E0     		sd	s0,64(sp)
 707 0014 4AFC     		sd	s2,56(sp)
 708              		.cfi_offset 19, -32
 709              		.cfi_offset 20, -40
 710              		.cfi_offset 21, -48
 711              		.cfi_offset 22, -56
 712              		.cfi_offset 23, -64
 713              		.cfi_offset 24, -72
 714              		.cfi_offset 25, -80
 715              		.cfi_offset 1, -8
 716              		.cfi_offset 8, -16
 717              		.cfi_offset 18, -24
 480:../src/platform/mpfs_hal/common/nwc/mss_ddr_debug.c ****     uint32_t error_cnt = 0U;
 718              		.loc 1 480 1
 719 0016 2A8A     		mv	s4,a0
 720 0018 AE8A     		mv	s5,a1
 721 001a 328C     		mv	s8,a2
 722 001c 8149     		li	s3,0
 723 001e 014B     		li	s6,0
 724              	.LBB14:
 725              	.LBB13:
 484:../src/platform/mpfs_hal/common/nwc/mss_ddr_debug.c ****     {
 485:../src/platform/mpfs_hal/common/nwc/mss_ddr_debug.c ****         for (uint32_t pattern_shift=0U; pattern_shift < MAX_NO_PATTERNS;\
 486:../src/platform/mpfs_hal/common/nwc/mss_ddr_debug.c ****                                                                 pattern_shift++)
 487:../src/platform/mpfs_hal/common/nwc/mss_ddr_debug.c ****         {
 488:../src/platform/mpfs_hal/common/nwc/mss_ddr_debug.c ****             pattern_mask = (uint8_t)(0x01U << pattern_shift);
 726              		.loc 1 488 44
 727 0020 854C     		li	s9,1
 485:../src/platform/mpfs_hal/common/nwc/mss_ddr_debug.c ****                                                                 pattern_shift++)
 728              		.loc 1 485 9
 729 0022 9D4B     		li	s7,7
 730              	.LVL78:
 731              	.L63:
 732              		.loc 1 488 13 is_stmt 1
 733              		.loc 1 488 44 is_stmt 0
 734 0024 BB973C01 		sllw	a5,s9,s3
 735 0028 1B890700 		sext.w	s2,a5
 736              	.LVL79:
 489:../src/platform/mpfs_hal/common/nwc/mss_ddr_debug.c ****             if(pattern & pattern_mask)
 737              		.loc 1 489 13 is_stmt 1
 738              		.loc 1 489 24 is_stmt 0
 739 002c B377FC00 		and	a5,s8,a5
 740              		.loc 1 489 15
 741 0030 8127     		sext.w	a5,a5
 742 0032 B9CB     		beq	a5,zero,.L62
 488:../src/platform/mpfs_hal/common/nwc/mss_ddr_debug.c ****             if(pattern & pattern_mask)
 743              		.loc 1 488 26
 744 0034 1379F90F 		andi	s2,s2,0xff
 490:../src/platform/mpfs_hal/common/nwc/mss_ddr_debug.c ****             {
 491:../src/platform/mpfs_hal/common/nwc/mss_ddr_debug.c **** #ifdef DEBUG_DDR_INIT
 492:../src/platform/mpfs_hal/common/nwc/mss_ddr_debug.c ****                 uprint32(g_debug_uart,"\n\r\t Pattern: 0x", pattern_shift);
 493:../src/platform/mpfs_hal/common/nwc/mss_ddr_debug.c **** #endif
 494:../src/platform/mpfs_hal/common/nwc/mss_ddr_debug.c **** 
 495:../src/platform/mpfs_hal/common/nwc/mss_ddr_debug.c **** #if TEST_64BIT_ACCESS == 1
 496:../src/platform/mpfs_hal/common/nwc/mss_ddr_debug.c ****                 /* write the pattern */
 497:../src/platform/mpfs_hal/common/nwc/mss_ddr_debug.c ****                 error_cnt += ddr_write ((uint64_t *)DDR_word_ptr,\
 745              		.loc 1 497 17 is_stmt 1
 746              		.loc 1 497 30 is_stmt 0
 747 0038 8D46     		li	a3,3
 748 003a 4A86     		mv	a2,s2
 749 003c D685     		mv	a1,s5
 750 003e 5285     		mv	a0,s4
 751 0040 97000000 		call	ddr_write
 751      E7800000 
 752              	.LVL80:
 753 0048 1B040500 		sext.w	s0,a0
 754              	.LVL81:
 498:../src/platform/mpfs_hal/common/nwc/mss_ddr_debug.c ****                         no_access, pattern_mask, DDR_64_BIT);
 499:../src/platform/mpfs_hal/common/nwc/mss_ddr_debug.c ****                 /* read back and verifies */
 500:../src/platform/mpfs_hal/common/nwc/mss_ddr_debug.c ****                 error_cnt += ddr_read ((uint64_t *)DDR_word_ptr, \
 755              		.loc 1 500 17 is_stmt 1
 756              		.loc 1 500 30 is_stmt 0
 757 004c 8D46     		li	a3,3
 758 004e 4A86     		mv	a2,s2
 759 0050 D685     		mv	a1,s5
 760 0052 5285     		mv	a0,s4
 761 0054 97000000 		call	ddr_read
 761      E7800000 
 762              	.LVL82:
 763              		.loc 1 500 27
 764 005c 299C     		addw	s0,a0,s0
 765              	.LVL83:
 501:../src/platform/mpfs_hal/common/nwc/mss_ddr_debug.c ****                         no_access, pattern_mask, DDR_64_BIT);
 502:../src/platform/mpfs_hal/common/nwc/mss_ddr_debug.c **** #endif
 503:../src/platform/mpfs_hal/common/nwc/mss_ddr_debug.c **** 
 504:../src/platform/mpfs_hal/common/nwc/mss_ddr_debug.c **** #if TEST_32BIT_ACCESS == 1
 505:../src/platform/mpfs_hal/common/nwc/mss_ddr_debug.c ****                 /* write the pattern */
 506:../src/platform/mpfs_hal/common/nwc/mss_ddr_debug.c ****                 error_cnt += ddr_write ((uint64_t *)DDR_word_ptr,\
 766              		.loc 1 506 30
 767 005e 8946     		li	a3,2
 768 0060 4A86     		mv	a2,s2
 769 0062 D685     		mv	a1,s5
 770 0064 5285     		mv	a0,s4
 771 0066 97000000 		call	ddr_write
 771      E7800000 
 772              	.LVL84:
 500:../src/platform/mpfs_hal/common/nwc/mss_ddr_debug.c ****                         no_access, pattern_mask, DDR_64_BIT);
 773              		.loc 1 500 27
 774 006e 3B046401 		addw	s0,s0,s6
 775              	.LVL85:
 776              		.loc 1 506 17 is_stmt 1
 777              		.loc 1 506 27 is_stmt 0
 778 0072 299C     		addw	s0,a0,s0
 779              	.LVL86:
 507:../src/platform/mpfs_hal/common/nwc/mss_ddr_debug.c ****                         no_access, pattern_mask, DDR_32_BIT);
 508:../src/platform/mpfs_hal/common/nwc/mss_ddr_debug.c ****                 /* read back and verifies */
 509:../src/platform/mpfs_hal/common/nwc/mss_ddr_debug.c ****                 error_cnt += ddr_read ((uint64_t *)DDR_word_ptr, \
 780              		.loc 1 509 17 is_stmt 1
 781              		.loc 1 509 30 is_stmt 0
 782 0074 8946     		li	a3,2
 783 0076 4A86     		mv	a2,s2
 784 0078 D685     		mv	a1,s5
 785 007a 5285     		mv	a0,s4
 786 007c 97000000 		call	ddr_read
 786      E7800000 
 787              	.LVL87:
 788              		.loc 1 509 27
 789 0084 3B0B8500 		addw	s6,a0,s0
 790              	.LVL88:
 791              	.L62:
 486:../src/platform/mpfs_hal/common/nwc/mss_ddr_debug.c ****         {
 792              		.loc 1 486 78
 793 0088 8529     		addiw	s3,s3,1
 794              	.LVL89:
 485:../src/platform/mpfs_hal/common/nwc/mss_ddr_debug.c ****                                                                 pattern_shift++)
 795              		.loc 1 485 9
 796 008a E39D79F9 		bne	s3,s7,.L63
 797              	.LBE13:
 510:../src/platform/mpfs_hal/common/nwc/mss_ddr_debug.c ****                         no_access, pattern_mask, DDR_32_BIT);
 511:../src/platform/mpfs_hal/common/nwc/mss_ddr_debug.c **** #endif
 512:../src/platform/mpfs_hal/common/nwc/mss_ddr_debug.c ****             }
 513:../src/platform/mpfs_hal/common/nwc/mss_ddr_debug.c ****         }
 514:../src/platform/mpfs_hal/common/nwc/mss_ddr_debug.c ****         DDR_word_ptr++; /* increment the address */
 798              		.loc 1 514 9 is_stmt 1 discriminator 2
 799              	.LVL90:
 800              	.LBE14:
 515:../src/platform/mpfs_hal/common/nwc/mss_ddr_debug.c ****     }
 516:../src/platform/mpfs_hal/common/nwc/mss_ddr_debug.c ****     return error_cnt;
 801              		.loc 1 516 5 discriminator 2
 517:../src/platform/mpfs_hal/common/nwc/mss_ddr_debug.c **** }
 802              		.loc 1 517 1 is_stmt 0 discriminator 2
 803 008e A660     		ld	ra,72(sp)
 804              		.cfi_restore 1
 805 0090 0664     		ld	s0,64(sp)
 806              		.cfi_restore 8
 807 0092 5A85     		mv	a0,s6
 808 0094 6279     		ld	s2,56(sp)
 809              		.cfi_restore 18
 810 0096 C279     		ld	s3,48(sp)
 811              		.cfi_restore 19
 812 0098 227A     		ld	s4,40(sp)
 813              		.cfi_restore 20
 814              	.LVL91:
 815 009a 827A     		ld	s5,32(sp)
 816              		.cfi_restore 21
 817 009c 626B     		ld	s6,24(sp)
 818              		.cfi_restore 22
 819              	.LVL92:
 820 009e C26B     		ld	s7,16(sp)
 821              		.cfi_restore 23
 822 00a0 226C     		ld	s8,8(sp)
 823              		.cfi_restore 24
 824 00a2 826C     		ld	s9,0(sp)
 825              		.cfi_restore 25
 826 00a4 6161     		addi	sp,sp,80
 827              		.cfi_def_cfa_offset 0
 828 00a6 8280     		jr	ra
 829              		.cfi_endproc
 830              	.LFE26:
 832              		.section	.text.load_ddr_pattern,"ax",@progbits
 833              		.align	1
 834              		.globl	load_ddr_pattern
 836              	load_ddr_pattern:
 837              	.LFB27:
 518:../src/platform/mpfs_hal/common/nwc/mss_ddr_debug.c **** 
 519:../src/platform/mpfs_hal/common/nwc/mss_ddr_debug.c **** 
 520:../src/platform/mpfs_hal/common/nwc/mss_ddr_debug.c **** /***************************************************************************//**
 521:../src/platform/mpfs_hal/common/nwc/mss_ddr_debug.c ****  *
 522:../src/platform/mpfs_hal/common/nwc/mss_ddr_debug.c ****  * @param error
 523:../src/platform/mpfs_hal/common/nwc/mss_ddr_debug.c ****  * @return
 524:../src/platform/mpfs_hal/common/nwc/mss_ddr_debug.c ****  */
 525:../src/platform/mpfs_hal/common/nwc/mss_ddr_debug.c **** #ifdef DEBUG_DDR_INIT
 526:../src/platform/mpfs_hal/common/nwc/mss_ddr_debug.c **** uint32_t error_status(mss_uart_instance_t *g_mss_uart_debug_pt, uint32_t error)
 527:../src/platform/mpfs_hal/common/nwc/mss_ddr_debug.c **** {
 528:../src/platform/mpfs_hal/common/nwc/mss_ddr_debug.c ****     uprint32(g_mss_uart_debug_pt,  "\n\r ERROR_RESULT: ", error);
 529:../src/platform/mpfs_hal/common/nwc/mss_ddr_debug.c ****     return (0U);
 530:../src/platform/mpfs_hal/common/nwc/mss_ddr_debug.c **** }
 531:../src/platform/mpfs_hal/common/nwc/mss_ddr_debug.c **** #endif
 532:../src/platform/mpfs_hal/common/nwc/mss_ddr_debug.c **** 
 533:../src/platform/mpfs_hal/common/nwc/mss_ddr_debug.c **** /***************************************************************************//**
 534:../src/platform/mpfs_hal/common/nwc/mss_ddr_debug.c ****  * Calibration status
 535:../src/platform/mpfs_hal/common/nwc/mss_ddr_debug.c ****  * @return
 536:../src/platform/mpfs_hal/common/nwc/mss_ddr_debug.c ****  */
 537:../src/platform/mpfs_hal/common/nwc/mss_ddr_debug.c **** #ifdef DEBUG_DDR_INIT
 538:../src/platform/mpfs_hal/common/nwc/mss_ddr_debug.c **** uint32_t wrcalib_status(mss_uart_instance_t *g_mss_uart_debug_pt)
 539:../src/platform/mpfs_hal/common/nwc/mss_ddr_debug.c **** {
 540:../src/platform/mpfs_hal/common/nwc/mss_ddr_debug.c ****     uprint32(g_mss_uart_debug_pt,  "\n\r WRCALIB_RESULT: ",\
 541:../src/platform/mpfs_hal/common/nwc/mss_ddr_debug.c ****             CFG_DDR_SGMII_PHY->expert_wrcalib.expert_wrcalib);
 542:../src/platform/mpfs_hal/common/nwc/mss_ddr_debug.c ****     return (0U);
 543:../src/platform/mpfs_hal/common/nwc/mss_ddr_debug.c **** }
 544:../src/platform/mpfs_hal/common/nwc/mss_ddr_debug.c **** #endif
 545:../src/platform/mpfs_hal/common/nwc/mss_ddr_debug.c **** 
 546:../src/platform/mpfs_hal/common/nwc/mss_ddr_debug.c **** #ifdef DEBUG_DDR_INIT
 547:../src/platform/mpfs_hal/common/nwc/mss_ddr_debug.c **** /***************************************************************************//**
 548:../src/platform/mpfs_hal/common/nwc/mss_ddr_debug.c ****  * Prints out DDR status
 549:../src/platform/mpfs_hal/common/nwc/mss_ddr_debug.c ****  * @return
 550:../src/platform/mpfs_hal/common/nwc/mss_ddr_debug.c ****  */
 551:../src/platform/mpfs_hal/common/nwc/mss_ddr_debug.c **** uint32_t tip_register_status (mss_uart_instance_t *g_mss_uart_debug_pt)
 552:../src/platform/mpfs_hal/common/nwc/mss_ddr_debug.c **** {
 553:../src/platform/mpfs_hal/common/nwc/mss_ddr_debug.c **** 
 554:../src/platform/mpfs_hal/common/nwc/mss_ddr_debug.c ****     uint32_t t_status = 0U;
 555:../src/platform/mpfs_hal/common/nwc/mss_ddr_debug.c ****     uint32_t MSS_DDR_APB_ADDR;
 556:../src/platform/mpfs_hal/common/nwc/mss_ddr_debug.c ****     uint32_t ddr_lane_sel;
 557:../src/platform/mpfs_hal/common/nwc/mss_ddr_debug.c ****     uint32_t rank_sel;
 558:../src/platform/mpfs_hal/common/nwc/mss_ddr_debug.c ****     uint32_t dq0_dly = 0U;
 559:../src/platform/mpfs_hal/common/nwc/mss_ddr_debug.c ****     uint32_t dq1_dly = 0U;
 560:../src/platform/mpfs_hal/common/nwc/mss_ddr_debug.c ****     uint32_t dq2_dly = 0U;
 561:../src/platform/mpfs_hal/common/nwc/mss_ddr_debug.c ****     uint32_t dq3_dly = 0U;
 562:../src/platform/mpfs_hal/common/nwc/mss_ddr_debug.c ****     uint32_t dq4_dly = 0U;
 563:../src/platform/mpfs_hal/common/nwc/mss_ddr_debug.c ****     uint32_t dq5_dly = 0U;
 564:../src/platform/mpfs_hal/common/nwc/mss_ddr_debug.c **** 
 565:../src/platform/mpfs_hal/common/nwc/mss_ddr_debug.c ****     /*  MSS_UART_polled_tx_string(g_mss_uart_debug_pt, "\n\n\r TIP register status \n");
 566:../src/platform/mpfs_hal/common/nwc/mss_ddr_debug.c ****     delay(DELAY_CYCLES_50_MICRO);*/
 567:../src/platform/mpfs_hal/common/nwc/mss_ddr_debug.c ****     uprint32(g_mss_uart_debug_pt,  "\n\r\n\r training status = ",\
 568:../src/platform/mpfs_hal/common/nwc/mss_ddr_debug.c ****                             CFG_DDR_SGMII_PHY->training_status.training_status);
 569:../src/platform/mpfs_hal/common/nwc/mss_ddr_debug.c ****     uprint32(g_mss_uart_debug_pt,  "\n\r PCODE = ",\
 570:../src/platform/mpfs_hal/common/nwc/mss_ddr_debug.c ****                                 (CFG_DDR_SGMII_PHY->IOC_REG2.IOC_REG2 & 0x7F));
 571:../src/platform/mpfs_hal/common/nwc/mss_ddr_debug.c ****     uprint32(g_mss_uart_debug_pt,  "\n\r NCODE = ",\
 572:../src/platform/mpfs_hal/common/nwc/mss_ddr_debug.c ****                         (((CFG_DDR_SGMII_PHY->IOC_REG2.IOC_REG2) >> 7) & 0x7F));
 573:../src/platform/mpfs_hal/common/nwc/mss_ddr_debug.c ****     uprint32(g_mss_uart_debug_pt,  "\n\r WRCALIB_RESULT: "\
 574:../src/platform/mpfs_hal/common/nwc/mss_ddr_debug.c ****                             , CFG_DDR_SGMII_PHY->expert_wrcalib.expert_wrcalib);
 575:../src/platform/mpfs_hal/common/nwc/mss_ddr_debug.c ****     uprint32(g_mss_uart_debug_pt,  "\n\r sro_ref_slewr  = ",\
 576:../src/platform/mpfs_hal/common/nwc/mss_ddr_debug.c ****                         (((CFG_DDR_SGMII_PHY->IOC_REG5.IOC_REG5) >> 0) & 0x3F));
 577:../src/platform/mpfs_hal/common/nwc/mss_ddr_debug.c ****     uprint32(g_mss_uart_debug_pt,  "\n\r sro_ref_slewf  = ",\
 578:../src/platform/mpfs_hal/common/nwc/mss_ddr_debug.c ****                        (((CFG_DDR_SGMII_PHY->IOC_REG5.IOC_REG5) >> 6) & 0xFFF));
 579:../src/platform/mpfs_hal/common/nwc/mss_ddr_debug.c ****     uprint32(g_mss_uart_debug_pt,  "\n\r sro_slewr  = ",\
 580:../src/platform/mpfs_hal/common/nwc/mss_ddr_debug.c ****                        (((CFG_DDR_SGMII_PHY->IOC_REG5.IOC_REG5) >> 18) & 0x3F));
 581:../src/platform/mpfs_hal/common/nwc/mss_ddr_debug.c ****     uprint32(g_mss_uart_debug_pt,  "\n\r sro_slewf  = ",\
 582:../src/platform/mpfs_hal/common/nwc/mss_ddr_debug.c ****             (((CFG_DDR_SGMII_PHY->IOC_REG5.IOC_REG5) >> 24) & 0x3F));
 583:../src/platform/mpfs_hal/common/nwc/mss_ddr_debug.c **** 
 584:../src/platform/mpfs_hal/common/nwc/mss_ddr_debug.c ****     for (rank_sel=0; rank_sel < LIBERO_SETTING_CFG_NUM_RANKS; rank_sel++)
 585:../src/platform/mpfs_hal/common/nwc/mss_ddr_debug.c ****     {
 586:../src/platform/mpfs_hal/common/nwc/mss_ddr_debug.c ****         CFG_DDR_SGMII_PHY->rank_select.rank_select=rank_sel;
 587:../src/platform/mpfs_hal/common/nwc/mss_ddr_debug.c ****         uprint32(g_mss_uart_debug_pt, "\n\r\n\r rank number", rank_sel);
 588:../src/platform/mpfs_hal/common/nwc/mss_ddr_debug.c ****         MSS_UART_polled_tx_string(g_mss_uart_debug_pt, \
 589:../src/platform/mpfs_hal/common/nwc/mss_ddr_debug.c ****                 (const uint8_t*)"\n\n\r lane_select \t gt_err_comb \t gt_txdly \t gt_steps_180 \t g
 590:../src/platform/mpfs_hal/common/nwc/mss_ddr_debug.c ****         for (ddr_lane_sel=0U; ddr_lane_sel < LIBERO_SETTING_DATA_LANES_USED; ddr_lane_sel++)
 591:../src/platform/mpfs_hal/common/nwc/mss_ddr_debug.c ****         {
 592:../src/platform/mpfs_hal/common/nwc/mss_ddr_debug.c ****             CFG_DDR_SGMII_PHY->lane_select.lane_select = ddr_lane_sel;
 593:../src/platform/mpfs_hal/common/nwc/mss_ddr_debug.c ****             uprint32(g_mss_uart_debug_pt, "\n\r ", CFG_DDR_SGMII_PHY->lane_select.lane_select);
 594:../src/platform/mpfs_hal/common/nwc/mss_ddr_debug.c ****             delay(DELAY_CYCLES_50_MICRO);
 595:../src/platform/mpfs_hal/common/nwc/mss_ddr_debug.c ****             MSS_DDR_APB_ADDR = CFG_DDR_SGMII_PHY->gt_err_comb.gt_err_comb;
 596:../src/platform/mpfs_hal/common/nwc/mss_ddr_debug.c ****             uprint32(g_mss_uart_debug_pt, "\t ", MSS_DDR_APB_ADDR);
 597:../src/platform/mpfs_hal/common/nwc/mss_ddr_debug.c ****             t_status = t_status | MSS_DDR_APB_ADDR;
 598:../src/platform/mpfs_hal/common/nwc/mss_ddr_debug.c **** 
 599:../src/platform/mpfs_hal/common/nwc/mss_ddr_debug.c ****             MSS_DDR_APB_ADDR = CFG_DDR_SGMII_PHY->gt_txdly.gt_txdly;
 600:../src/platform/mpfs_hal/common/nwc/mss_ddr_debug.c ****             uprint32(g_mss_uart_debug_pt, "\t ", MSS_DDR_APB_ADDR);
 601:../src/platform/mpfs_hal/common/nwc/mss_ddr_debug.c **** 
 602:../src/platform/mpfs_hal/common/nwc/mss_ddr_debug.c ****             if((MSS_DDR_APB_ADDR & 0xFF) == 0)    t_status = 1;
 603:../src/platform/mpfs_hal/common/nwc/mss_ddr_debug.c ****             if((MSS_DDR_APB_ADDR & 0xFF00) == 0)  t_status = 1;
 604:../src/platform/mpfs_hal/common/nwc/mss_ddr_debug.c ****             if((MSS_DDR_APB_ADDR & 0xFF0000) == 0) t_status = 1;
 605:../src/platform/mpfs_hal/common/nwc/mss_ddr_debug.c ****             if((MSS_DDR_APB_ADDR & 0xFF000000) == 0) t_status = 1;
 606:../src/platform/mpfs_hal/common/nwc/mss_ddr_debug.c **** 
 607:../src/platform/mpfs_hal/common/nwc/mss_ddr_debug.c ****             uprint32(g_mss_uart_debug_pt, "\t ",\
 608:../src/platform/mpfs_hal/common/nwc/mss_ddr_debug.c ****                     CFG_DDR_SGMII_PHY->gt_steps_180.gt_steps_180);
 609:../src/platform/mpfs_hal/common/nwc/mss_ddr_debug.c ****             uprint32(g_mss_uart_debug_pt, "\t ",\
 610:../src/platform/mpfs_hal/common/nwc/mss_ddr_debug.c ****                     CFG_DDR_SGMII_PHY->gt_state.gt_state);
 611:../src/platform/mpfs_hal/common/nwc/mss_ddr_debug.c ****             uprint32(g_mss_uart_debug_pt, "\t ",\
 612:../src/platform/mpfs_hal/common/nwc/mss_ddr_debug.c ****                     CFG_DDR_SGMII_PHY->wl_delay_0.wl_delay_0);
 613:../src/platform/mpfs_hal/common/nwc/mss_ddr_debug.c ****             uprint32(g_mss_uart_debug_pt, "\t ",\
 614:../src/platform/mpfs_hal/common/nwc/mss_ddr_debug.c ****                     CFG_DDR_SGMII_PHY->dq_dqs_err_done.dq_dqs_err_done);
 615:../src/platform/mpfs_hal/common/nwc/mss_ddr_debug.c ****             t_status = t_status | (MSS_DDR_APB_ADDR  != 8);
 616:../src/platform/mpfs_hal/common/nwc/mss_ddr_debug.c **** 
 617:../src/platform/mpfs_hal/common/nwc/mss_ddr_debug.c ****             uprint32(g_mss_uart_debug_pt, "\t\t ",\
 618:../src/platform/mpfs_hal/common/nwc/mss_ddr_debug.c ****                     CFG_DDR_SGMII_PHY->dqdqs_state.dqdqs_state);
 619:../src/platform/mpfs_hal/common/nwc/mss_ddr_debug.c ****             uprint32(g_mss_uart_debug_pt, "\t ",\
 620:../src/platform/mpfs_hal/common/nwc/mss_ddr_debug.c ****                     CFG_DDR_SGMII_PHY->delta0.delta0);
 621:../src/platform/mpfs_hal/common/nwc/mss_ddr_debug.c ****             dq0_dly = (MSS_DDR_APB_ADDR & 0xFF);
 622:../src/platform/mpfs_hal/common/nwc/mss_ddr_debug.c ****             dq1_dly = (MSS_DDR_APB_ADDR & 0xFF00) >> 8;
 623:../src/platform/mpfs_hal/common/nwc/mss_ddr_debug.c ****             dq2_dly = (MSS_DDR_APB_ADDR & 0xFF0000) >> 16;
 624:../src/platform/mpfs_hal/common/nwc/mss_ddr_debug.c ****             dq3_dly = (MSS_DDR_APB_ADDR & 0xFF000000) >> 24;
 625:../src/platform/mpfs_hal/common/nwc/mss_ddr_debug.c ****             uprint32(g_mss_uart_debug_pt, "\t ",\
 626:../src/platform/mpfs_hal/common/nwc/mss_ddr_debug.c ****                     CFG_DDR_SGMII_PHY->delta1.delta1);
 627:../src/platform/mpfs_hal/common/nwc/mss_ddr_debug.c ****             dq4_dly = (MSS_DDR_APB_ADDR & 0xFF);
 628:../src/platform/mpfs_hal/common/nwc/mss_ddr_debug.c ****             dq5_dly = (MSS_DDR_APB_ADDR & 0xFF00) >> 8;
 629:../src/platform/mpfs_hal/common/nwc/mss_ddr_debug.c ****             dq2_dly = (MSS_DDR_APB_ADDR & 0xFF0000) >> 16;
 630:../src/platform/mpfs_hal/common/nwc/mss_ddr_debug.c ****             dq3_dly = (MSS_DDR_APB_ADDR & 0xFF000000) >> 24;
 631:../src/platform/mpfs_hal/common/nwc/mss_ddr_debug.c ****         }
 632:../src/platform/mpfs_hal/common/nwc/mss_ddr_debug.c **** 
 633:../src/platform/mpfs_hal/common/nwc/mss_ddr_debug.c ****         MSS_UART_polled_tx_string(g_mss_uart_debug_pt, (const uint8_t*)"\n\r\n\r lane_select\t rdqd
 634:../src/platform/mpfs_hal/common/nwc/mss_ddr_debug.c ****         for (ddr_lane_sel=0U; ddr_lane_sel < LIBERO_SETTING_DATA_LANES_USED;\
 635:../src/platform/mpfs_hal/common/nwc/mss_ddr_debug.c ****                                                                     ddr_lane_sel++)
 636:../src/platform/mpfs_hal/common/nwc/mss_ddr_debug.c ****         {
 637:../src/platform/mpfs_hal/common/nwc/mss_ddr_debug.c ****             CFG_DDR_SGMII_PHY->lane_select.lane_select = ddr_lane_sel;
 638:../src/platform/mpfs_hal/common/nwc/mss_ddr_debug.c ****             uprint32(g_mss_uart_debug_pt, "\n\r ",\
 639:../src/platform/mpfs_hal/common/nwc/mss_ddr_debug.c ****                                         CFG_DDR_SGMII_PHY->lane_select.lane_select);
 640:../src/platform/mpfs_hal/common/nwc/mss_ddr_debug.c ****             delay(DELAY_CYCLES_50_MICRO);
 641:../src/platform/mpfs_hal/common/nwc/mss_ddr_debug.c **** 
 642:../src/platform/mpfs_hal/common/nwc/mss_ddr_debug.c ****             if(dq0_dly > 20) t_status = 1;
 643:../src/platform/mpfs_hal/common/nwc/mss_ddr_debug.c ****             if(dq1_dly > 20) t_status = 1;
 644:../src/platform/mpfs_hal/common/nwc/mss_ddr_debug.c ****             if(dq2_dly > 20) t_status = 1;
 645:../src/platform/mpfs_hal/common/nwc/mss_ddr_debug.c ****             if(dq3_dly > 20) t_status = 1;
 646:../src/platform/mpfs_hal/common/nwc/mss_ddr_debug.c ****             if(dq4_dly > 20) t_status = 1;
 647:../src/platform/mpfs_hal/common/nwc/mss_ddr_debug.c ****             if(dq5_dly > 20) t_status = 1;
 648:../src/platform/mpfs_hal/common/nwc/mss_ddr_debug.c **** 
 649:../src/platform/mpfs_hal/common/nwc/mss_ddr_debug.c ****             uprint32(g_mss_uart_debug_pt, "\t ",\
 650:../src/platform/mpfs_hal/common/nwc/mss_ddr_debug.c ****                     CFG_DDR_SGMII_PHY->dqdqs_status2.dqdqs_status2);
 651:../src/platform/mpfs_hal/common/nwc/mss_ddr_debug.c **** 
 652:../src/platform/mpfs_hal/common/nwc/mss_ddr_debug.c ****             uprint32(g_mss_uart_debug_pt, "\t ",\
 653:../src/platform/mpfs_hal/common/nwc/mss_ddr_debug.c ****                     CFG_DDR_SGMII_PHY->addcmd_status0.addcmd_status0);
 654:../src/platform/mpfs_hal/common/nwc/mss_ddr_debug.c ****             uprint32(g_mss_uart_debug_pt, "\t ",\
 655:../src/platform/mpfs_hal/common/nwc/mss_ddr_debug.c ****                     CFG_DDR_SGMII_PHY->addcmd_status1.addcmd_status1);
 656:../src/platform/mpfs_hal/common/nwc/mss_ddr_debug.c ****             uprint32(g_mss_uart_debug_pt, "\t ",\
 657:../src/platform/mpfs_hal/common/nwc/mss_ddr_debug.c ****                     CFG_DDR_SGMII_PHY->addcmd_answer.addcmd_answer);
 658:../src/platform/mpfs_hal/common/nwc/mss_ddr_debug.c ****             uprint32(g_mss_uart_debug_pt, "\t ",\
 659:../src/platform/mpfs_hal/common/nwc/mss_ddr_debug.c ****                     CFG_DDR_SGMII_PHY->dqdqs_status1.dqdqs_status1);
 660:../src/platform/mpfs_hal/common/nwc/mss_ddr_debug.c **** 
 661:../src/platform/mpfs_hal/common/nwc/mss_ddr_debug.c ****         }
 662:../src/platform/mpfs_hal/common/nwc/mss_ddr_debug.c ****     } /* end rank select */
 663:../src/platform/mpfs_hal/common/nwc/mss_ddr_debug.c ****     return(t_status);
 664:../src/platform/mpfs_hal/common/nwc/mss_ddr_debug.c **** }
 665:../src/platform/mpfs_hal/common/nwc/mss_ddr_debug.c **** #endif
 666:../src/platform/mpfs_hal/common/nwc/mss_ddr_debug.c **** 
 667:../src/platform/mpfs_hal/common/nwc/mss_ddr_debug.c **** /**
 668:../src/platform/mpfs_hal/common/nwc/mss_ddr_debug.c ****  * Load a pattern to DDR
 669:../src/platform/mpfs_hal/common/nwc/mss_ddr_debug.c ****  */
 670:../src/platform/mpfs_hal/common/nwc/mss_ddr_debug.c **** void load_ddr_pattern(uint64_t base, uint32_t size, uint8_t pattern_offset)
 671:../src/platform/mpfs_hal/common/nwc/mss_ddr_debug.c **** {
 838              		.loc 1 671 1 is_stmt 1
 839              		.cfi_startproc
 840              	.LVL93:
 672:../src/platform/mpfs_hal/common/nwc/mss_ddr_debug.c ****     int alive = 0;
 841              		.loc 1 672 5
 673:../src/platform/mpfs_hal/common/nwc/mss_ddr_debug.c **** 
 674:../src/platform/mpfs_hal/common/nwc/mss_ddr_debug.c ****     uint8_t *p_ddr = (uint8_t *)base;
 842              		.loc 1 674 5
 671:../src/platform/mpfs_hal/common/nwc/mss_ddr_debug.c ****     int alive = 0;
 843              		.loc 1 671 1 is_stmt 0
 844 0000 3971     		addi	sp,sp,-64
 845              		.cfi_def_cfa_offset 64
 846 0002 22F8     		sd	s0,48(sp)
 847              		.cfi_offset 8, -16
 675:../src/platform/mpfs_hal/common/nwc/mss_ddr_debug.c ****     uint32_t pattern_length = (uint32_t)(sizeof(ddr_test_pattern) - pattern_offset) ;
 848              		.loc 1 675 14
 849 0004 0564     		li	s0,4096
 850 0006 1B0404C0 		addiw	s0,s0,-1024
 851 000a 119C     		subw	s0,s0,a2
 676:../src/platform/mpfs_hal/common/nwc/mss_ddr_debug.c **** 
 677:../src/platform/mpfs_hal/common/nwc/mss_ddr_debug.c **** #ifdef DEBUG_DDR_INIT
 678:../src/platform/mpfs_hal/common/nwc/mss_ddr_debug.c ****     uprint(g_debug_uart, (const char*)(const uint8_t*)"\r\nLoading test pattern\r\n");
 679:../src/platform/mpfs_hal/common/nwc/mss_ddr_debug.c **** #endif
 680:../src/platform/mpfs_hal/common/nwc/mss_ddr_debug.c **** 
 681:../src/platform/mpfs_hal/common/nwc/mss_ddr_debug.c ****     while(((uint64_t)p_ddr + pattern_length) <  (base + size))
 852              		.loc 1 681 55
 853 000c 8215     		slli	a1,a1,32
 854              	.LVL94:
 855              		.loc 1 681 28
 856 000e 0214     		slli	s0,s0,32
 857              		.loc 1 681 55
 858 0010 8191     		srli	a1,a1,32
 671:../src/platform/mpfs_hal/common/nwc/mss_ddr_debug.c ****     int alive = 0;
 859              		.loc 1 671 1
 860 0012 26F4     		sd	s1,40(sp)
 861 0014 4AF0     		sd	s2,32(sp)
 862 0016 4EEC     		sd	s3,24(sp)
 863 0018 56E4     		sd	s5,8(sp)
 864 001a 5AE0     		sd	s6,0(sp)
 865 001c 06FC     		sd	ra,56(sp)
 866 001e 52E8     		sd	s4,16(sp)
 867              		.cfi_offset 9, -24
 868              		.cfi_offset 18, -32
 869              		.cfi_offset 19, -40
 870              		.cfi_offset 21, -56
 871              		.cfi_offset 22, -64
 872              		.cfi_offset 1, -8
 873              		.cfi_offset 20, -48
 674:../src/platform/mpfs_hal/common/nwc/mss_ddr_debug.c ****     uint32_t pattern_length = (uint32_t)(sizeof(ddr_test_pattern) - pattern_offset) ;
 874              		.loc 1 674 14
 875 0020 AA84     		mv	s1,a0
 876              	.LVL95:
 675:../src/platform/mpfs_hal/common/nwc/mss_ddr_debug.c **** 
 877              		.loc 1 675 5 is_stmt 1
 878              		.loc 1 681 5
 879              		.loc 1 681 28 is_stmt 0
 880 0022 0190     		srli	s0,s0,32
 881              		.loc 1 681 55
 882 0024 B389A500 		add	s3,a1,a0
 682:../src/platform/mpfs_hal/common/nwc/mss_ddr_debug.c ****     {
 683:../src/platform/mpfs_hal/common/nwc/mss_ddr_debug.c **** 
 684:../src/platform/mpfs_hal/common/nwc/mss_ddr_debug.c ****         switch ( ((uint64_t)p_ddr)%8U )
 883              		.loc 1 684 9
 884 0028 194B     		li	s6,6
 685:../src/platform/mpfs_hal/common/nwc/mss_ddr_debug.c ****         {
 686:../src/platform/mpfs_hal/common/nwc/mss_ddr_debug.c ****             case 0:
 687:../src/platform/mpfs_hal/common/nwc/mss_ddr_debug.c ****             case 4:
 688:../src/platform/mpfs_hal/common/nwc/mss_ddr_debug.c ****                 pdma_transfer_complete(PDMA_CHANNEL0_BASE_ADDRESS);
 689:../src/platform/mpfs_hal/common/nwc/mss_ddr_debug.c ****                 pdma_transfer((uint64_t)p_ddr, (uint64_t)ddr_test_pattern, pattern_length, PDMA_CHA
 885              		.loc 1 689 17
 886 002a 17090000 		lla	s2,ddr_test_pattern
 886      13090900 
 684:../src/platform/mpfs_hal/common/nwc/mss_ddr_debug.c ****         {
 887              		.loc 1 684 9
 888 0032 970A0000 		lla	s5,.L73
 888      938A0A00 
 889              	.LVL96:
 890              	.L70:
 681:../src/platform/mpfs_hal/common/nwc/mss_ddr_debug.c ****     {
 891              		.loc 1 681 10
 892 003a 338A8400 		add	s4,s1,s0
 893 003e 63633A05 		bltu	s4,s3,.L77
 690:../src/platform/mpfs_hal/common/nwc/mss_ddr_debug.c ****                 break;
 691:../src/platform/mpfs_hal/common/nwc/mss_ddr_debug.c ****             case 1:
 692:../src/platform/mpfs_hal/common/nwc/mss_ddr_debug.c ****             case 5:
 693:../src/platform/mpfs_hal/common/nwc/mss_ddr_debug.c ****                 pdma_transfer_complete(PDMA_CHANNEL1_BASE_ADDRESS);
 694:../src/platform/mpfs_hal/common/nwc/mss_ddr_debug.c ****                 pdma_transfer((uint64_t)p_ddr, (uint64_t)ddr_test_pattern, pattern_length, PDMA_CHA
 695:../src/platform/mpfs_hal/common/nwc/mss_ddr_debug.c ****                 break;
 696:../src/platform/mpfs_hal/common/nwc/mss_ddr_debug.c ****             case 2:
 697:../src/platform/mpfs_hal/common/nwc/mss_ddr_debug.c ****             case 6:
 698:../src/platform/mpfs_hal/common/nwc/mss_ddr_debug.c ****                 pdma_transfer_complete(PDMA_CHANNEL2_BASE_ADDRESS);
 699:../src/platform/mpfs_hal/common/nwc/mss_ddr_debug.c ****                 pdma_transfer((uint64_t)p_ddr, (uint64_t)ddr_test_pattern, pattern_length, PDMA_CHA
 700:../src/platform/mpfs_hal/common/nwc/mss_ddr_debug.c ****                 break;
 701:../src/platform/mpfs_hal/common/nwc/mss_ddr_debug.c ****             case 3:
 702:../src/platform/mpfs_hal/common/nwc/mss_ddr_debug.c ****             case 7:
 703:../src/platform/mpfs_hal/common/nwc/mss_ddr_debug.c ****                 pdma_transfer_complete(PDMA_CHANNEL3_BASE_ADDRESS);
 704:../src/platform/mpfs_hal/common/nwc/mss_ddr_debug.c ****                 pdma_transfer((uint64_t)p_ddr, (uint64_t)ddr_test_pattern, pattern_length, PDMA_CHA
 705:../src/platform/mpfs_hal/common/nwc/mss_ddr_debug.c ****                 break;
 706:../src/platform/mpfs_hal/common/nwc/mss_ddr_debug.c ****         }
 707:../src/platform/mpfs_hal/common/nwc/mss_ddr_debug.c **** 
 708:../src/platform/mpfs_hal/common/nwc/mss_ddr_debug.c ****         p_ddr = p_ddr + (pattern_length);
 709:../src/platform/mpfs_hal/common/nwc/mss_ddr_debug.c ****         alive++;
 710:../src/platform/mpfs_hal/common/nwc/mss_ddr_debug.c ****         if (alive > 1000)
 711:../src/platform/mpfs_hal/common/nwc/mss_ddr_debug.c ****         {
 712:../src/platform/mpfs_hal/common/nwc/mss_ddr_debug.c ****             alive = 0;
 713:../src/platform/mpfs_hal/common/nwc/mss_ddr_debug.c **** #ifdef DEBUG_DDR_INIT
 714:../src/platform/mpfs_hal/common/nwc/mss_ddr_debug.c ****             uprint(g_debug_uart, (const char*)".");
 715:../src/platform/mpfs_hal/common/nwc/mss_ddr_debug.c **** #endif
 716:../src/platform/mpfs_hal/common/nwc/mss_ddr_debug.c ****         }
 717:../src/platform/mpfs_hal/common/nwc/mss_ddr_debug.c ****     }
 718:../src/platform/mpfs_hal/common/nwc/mss_ddr_debug.c **** #ifdef DEBUG_DDR_INIT
 719:../src/platform/mpfs_hal/common/nwc/mss_ddr_debug.c ****     uprint(g_debug_uart, (const char*)"\r\nFinished loading test pattern\r\n");
 720:../src/platform/mpfs_hal/common/nwc/mss_ddr_debug.c **** #endif
 721:../src/platform/mpfs_hal/common/nwc/mss_ddr_debug.c **** 
 722:../src/platform/mpfs_hal/common/nwc/mss_ddr_debug.c ****     pdma_transfer_complete(PDMA_CHANNEL0_BASE_ADDRESS);
 894              		.loc 1 722 5 is_stmt 1
 895 0042 37050003 		li	a0,50331648
 896 0046 97000000 		call	pdma_transfer_complete
 896      E7800000 
 897              	.LVL97:
 723:../src/platform/mpfs_hal/common/nwc/mss_ddr_debug.c ****     pdma_transfer_complete(PDMA_CHANNEL1_BASE_ADDRESS);
 898              		.loc 1 723 5
 899 004e 37150003 		li	a0,50335744
 900 0052 97000000 		call	pdma_transfer_complete
 900      E7800000 
 901              	.LVL98:
 724:../src/platform/mpfs_hal/common/nwc/mss_ddr_debug.c ****     pdma_transfer_complete(PDMA_CHANNEL2_BASE_ADDRESS);
 902              		.loc 1 724 5
 903 005a 37250003 		li	a0,50339840
 904 005e 97000000 		call	pdma_transfer_complete
 904      E7800000 
 905              	.LVL99:
 725:../src/platform/mpfs_hal/common/nwc/mss_ddr_debug.c ****     pdma_transfer_complete(PDMA_CHANNEL3_BASE_ADDRESS);
 906              		.loc 1 725 5
 726:../src/platform/mpfs_hal/common/nwc/mss_ddr_debug.c **** 
 727:../src/platform/mpfs_hal/common/nwc/mss_ddr_debug.c **** }
 907              		.loc 1 727 1 is_stmt 0
 908 0066 4274     		ld	s0,48(sp)
 909              		.cfi_remember_state
 910              		.cfi_restore 8
 911 0068 E270     		ld	ra,56(sp)
 912              		.cfi_restore 1
 913 006a A274     		ld	s1,40(sp)
 914              		.cfi_restore 9
 915              	.LVL100:
 916 006c 0279     		ld	s2,32(sp)
 917              		.cfi_restore 18
 918 006e E269     		ld	s3,24(sp)
 919              		.cfi_restore 19
 920 0070 426A     		ld	s4,16(sp)
 921              		.cfi_restore 20
 922 0072 A26A     		ld	s5,8(sp)
 923              		.cfi_restore 21
 924 0074 026B     		ld	s6,0(sp)
 925              		.cfi_restore 22
 725:../src/platform/mpfs_hal/common/nwc/mss_ddr_debug.c ****     pdma_transfer_complete(PDMA_CHANNEL3_BASE_ADDRESS);
 926              		.loc 1 725 5
 927 0076 37350003 		li	a0,50343936
 928              		.loc 1 727 1
 929 007a 2161     		addi	sp,sp,64
 930              		.cfi_def_cfa_offset 0
 725:../src/platform/mpfs_hal/common/nwc/mss_ddr_debug.c ****     pdma_transfer_complete(PDMA_CHANNEL3_BASE_ADDRESS);
 931              		.loc 1 725 5
 932 007c 17030000 		tail	pdma_transfer_complete
 932      67000300 
 933              	.LVL101:
 934              	.L77:
 935              		.cfi_restore_state
 684:../src/platform/mpfs_hal/common/nwc/mss_ddr_debug.c ****         {
 936              		.loc 1 684 9 is_stmt 1
 684:../src/platform/mpfs_hal/common/nwc/mss_ddr_debug.c ****         {
 937              		.loc 1 684 35 is_stmt 0
 938 0084 93F77400 		andi	a5,s1,7
 684:../src/platform/mpfs_hal/common/nwc/mss_ddr_debug.c ****         {
 939              		.loc 1 684 9
 940 0088 FD17     		addi	a5,a5,-1
 941 008a 6367FB00 		bgtu	a5,s6,.L71
 942 008e 8A07     		slli	a5,a5,2
 943 0090 D697     		add	a5,a5,s5
 944 0092 9C43     		lw	a5,0(a5)
 945 0094 D697     		add	a5,a5,s5
 946 0096 8287     		jr	a5
 947              		.section	.rodata.load_ddr_pattern,"a",@progbits
 948              		.align	2
 949              		.align	2
 950              	.L73:
 951 0000 00000000 		.word	.L75-.L73
 952 0004 00000000 		.word	.L74-.L73
 953 0008 00000000 		.word	.L72-.L73
 954 000c 00000000 		.word	.L71-.L73
 955 0010 00000000 		.word	.L75-.L73
 956 0014 00000000 		.word	.L74-.L73
 957 0018 00000000 		.word	.L72-.L73
 958              		.section	.text.load_ddr_pattern
 959              	.L71:
 688:../src/platform/mpfs_hal/common/nwc/mss_ddr_debug.c ****                 pdma_transfer((uint64_t)p_ddr, (uint64_t)ddr_test_pattern, pattern_length, PDMA_CHA
 960              		.loc 1 688 17 is_stmt 1
 961 0098 37050003 		li	a0,50331648
 962 009c 97000000 		call	pdma_transfer_complete
 962      E7800000 
 963              	.LVL102:
 689:../src/platform/mpfs_hal/common/nwc/mss_ddr_debug.c ****                 break;
 964              		.loc 1 689 17
 965 00a4 B7060003 		li	a3,50331648
 966              	.L79:
 704:../src/platform/mpfs_hal/common/nwc/mss_ddr_debug.c ****                 break;
 967              		.loc 1 704 17 is_stmt 0
 968 00a8 2685     		mv	a0,s1
 969 00aa 2286     		mv	a2,s0
 970 00ac CA85     		mv	a1,s2
 971 00ae 97000000 		call	pdma_transfer
 971      E7800000 
 972              	.LVL103:
 705:../src/platform/mpfs_hal/common/nwc/mss_ddr_debug.c ****         }
 973              		.loc 1 705 17 is_stmt 1
 708:../src/platform/mpfs_hal/common/nwc/mss_ddr_debug.c ****         alive++;
 974              		.loc 1 708 9
 708:../src/platform/mpfs_hal/common/nwc/mss_ddr_debug.c ****         alive++;
 975              		.loc 1 708 15 is_stmt 0
 976 00b6 D284     		mv	s1,s4
 977              	.LVL104:
 709:../src/platform/mpfs_hal/common/nwc/mss_ddr_debug.c ****         if (alive > 1000)
 978              		.loc 1 709 9 is_stmt 1
 710:../src/platform/mpfs_hal/common/nwc/mss_ddr_debug.c ****         {
 979              		.loc 1 710 9
 980 00b8 49B7     		j	.L70
 981              	.L75:
 693:../src/platform/mpfs_hal/common/nwc/mss_ddr_debug.c ****                 pdma_transfer((uint64_t)p_ddr, (uint64_t)ddr_test_pattern, pattern_length, PDMA_CHA
 982              		.loc 1 693 17
 983 00ba 37150003 		li	a0,50335744
 984 00be 97000000 		call	pdma_transfer_complete
 984      E7800000 
 985              	.LVL105:
 694:../src/platform/mpfs_hal/common/nwc/mss_ddr_debug.c ****                 break;
 986              		.loc 1 694 17
 987 00c6 B7160003 		li	a3,50335744
 988 00ca F9BF     		j	.L79
 989              	.L74:
 698:../src/platform/mpfs_hal/common/nwc/mss_ddr_debug.c ****                 pdma_transfer((uint64_t)p_ddr, (uint64_t)ddr_test_pattern, pattern_length, PDMA_CHA
 990              		.loc 1 698 17
 991 00cc 37250003 		li	a0,50339840
 992 00d0 97000000 		call	pdma_transfer_complete
 992      E7800000 
 993              	.LVL106:
 699:../src/platform/mpfs_hal/common/nwc/mss_ddr_debug.c ****                 break;
 994              		.loc 1 699 17
 995 00d8 B7260003 		li	a3,50339840
 996 00dc F1B7     		j	.L79
 997              	.L72:
 703:../src/platform/mpfs_hal/common/nwc/mss_ddr_debug.c ****                 pdma_transfer((uint64_t)p_ddr, (uint64_t)ddr_test_pattern, pattern_length, PDMA_CHA
 998              		.loc 1 703 17
 999 00de 37350003 		li	a0,50343936
 1000 00e2 97000000 		call	pdma_transfer_complete
 1000      E7800000 
 1001              	.LVL107:
 704:../src/platform/mpfs_hal/common/nwc/mss_ddr_debug.c ****                 break;
 1002              		.loc 1 704 17
 1003 00ea B7360003 		li	a3,50343936
 1004 00ee 6DBF     		j	.L79
 1005              		.cfi_endproc
 1006              	.LFE27:
 1008              		.section	.text.execute_ddr_pattern,"ax",@progbits
 1009              		.align	1
 1010              		.globl	execute_ddr_pattern
 1012              	execute_ddr_pattern:
 1013              	.LFB28:
 728:../src/platform/mpfs_hal/common/nwc/mss_ddr_debug.c **** 
 729:../src/platform/mpfs_hal/common/nwc/mss_ddr_debug.c **** /**
 730:../src/platform/mpfs_hal/common/nwc/mss_ddr_debug.c ****  * Run from address
 731:../src/platform/mpfs_hal/common/nwc/mss_ddr_debug.c ****  * @param start_addr address to run from.
 732:../src/platform/mpfs_hal/common/nwc/mss_ddr_debug.c ****  */
 733:../src/platform/mpfs_hal/common/nwc/mss_ddr_debug.c **** void execute_ddr_pattern(uint64_t start_addr)
 734:../src/platform/mpfs_hal/common/nwc/mss_ddr_debug.c **** {
 1014              		.loc 1 734 1
 1015              		.cfi_startproc
 1016              	.LVL108:
 735:../src/platform/mpfs_hal/common/nwc/mss_ddr_debug.c ****     pattern_fct_t p_pattern_fct = (pattern_fct_t)start_addr;
 1017              		.loc 1 735 5
 736:../src/platform/mpfs_hal/common/nwc/mss_ddr_debug.c **** 
 737:../src/platform/mpfs_hal/common/nwc/mss_ddr_debug.c ****     (*p_pattern_fct)();
 1018              		.loc 1 737 5
 1019              		.loc 1 737 6 is_stmt 0
 1020 0000 2A83     		mv	t1,a0
 1021 0002 0283     		jr	t1
 1022              	.LVL109:
 1023              		.cfi_endproc
 1024              	.LFE28:
 1026              		.section	.text.test_ddr,"ax",@progbits
 1027              		.align	1
 1028              		.globl	test_ddr
 1030              	test_ddr:
 1031              	.LFB30:
 738:../src/platform/mpfs_hal/common/nwc/mss_ddr_debug.c **** }
 739:../src/platform/mpfs_hal/common/nwc/mss_ddr_debug.c **** 
 740:../src/platform/mpfs_hal/common/nwc/mss_ddr_debug.c **** /**
 741:../src/platform/mpfs_hal/common/nwc/mss_ddr_debug.c ****  * Loads DDR with a pattern that triggers read issues if not enough margin.
 742:../src/platform/mpfs_hal/common/nwc/mss_ddr_debug.c ****  * Used to verify training is successful.
 743:../src/platform/mpfs_hal/common/nwc/mss_ddr_debug.c ****  * @param p_cached_ddr
 744:../src/platform/mpfs_hal/common/nwc/mss_ddr_debug.c ****  * @param p_not_cached_ddr
 745:../src/platform/mpfs_hal/common/nwc/mss_ddr_debug.c ****  * @param length
 746:../src/platform/mpfs_hal/common/nwc/mss_ddr_debug.c ****  */
 747:../src/platform/mpfs_hal/common/nwc/mss_ddr_debug.c **** static void load_test_buffers(uint32_t * p_cached_ddr, uint32_t * p_not_cached_ddr, uint64_t length
 748:../src/platform/mpfs_hal/common/nwc/mss_ddr_debug.c **** {
 749:../src/platform/mpfs_hal/common/nwc/mss_ddr_debug.c ****     (void)length;
 750:../src/platform/mpfs_hal/common/nwc/mss_ddr_debug.c **** 
 751:../src/platform/mpfs_hal/common/nwc/mss_ddr_debug.c ****     pdma_transfer((uint64_t)g_test_buffer_cached, (uint64_t)p_cached_ddr, length,  PDMA_CHANNEL0_BA
 752:../src/platform/mpfs_hal/common/nwc/mss_ddr_debug.c ****     pdma_transfer((uint64_t)g_test_buffer_not_cached, (uint64_t)p_not_cached_ddr, length,  PDMA_CHA
 753:../src/platform/mpfs_hal/common/nwc/mss_ddr_debug.c ****     pdma_transfer_complete(PDMA_CHANNEL0_BASE_ADDRESS);
 754:../src/platform/mpfs_hal/common/nwc/mss_ddr_debug.c ****     pdma_transfer_complete(PDMA_CHANNEL1_BASE_ADDRESS);
 755:../src/platform/mpfs_hal/common/nwc/mss_ddr_debug.c **** }
 756:../src/platform/mpfs_hal/common/nwc/mss_ddr_debug.c **** 
 757:../src/platform/mpfs_hal/common/nwc/mss_ddr_debug.c **** /**
 758:../src/platform/mpfs_hal/common/nwc/mss_ddr_debug.c ****  * test_ddr reads from cached and non cached DDR and compares
 759:../src/platform/mpfs_hal/common/nwc/mss_ddr_debug.c ****  * @param no_of_iterations
 760:../src/platform/mpfs_hal/common/nwc/mss_ddr_debug.c ****  * @param size
 761:../src/platform/mpfs_hal/common/nwc/mss_ddr_debug.c ****  * @return returns 1 if compare fails
 762:../src/platform/mpfs_hal/common/nwc/mss_ddr_debug.c ****  */
 763:../src/platform/mpfs_hal/common/nwc/mss_ddr_debug.c **** uint32_t test_ddr(uint32_t no_of_iterations, uint32_t size)
 764:../src/platform/mpfs_hal/common/nwc/mss_ddr_debug.c **** {
 1032              		.loc 1 764 1 is_stmt 1
 1033              		.cfi_startproc
 1034              	.LVL110:
 765:../src/platform/mpfs_hal/common/nwc/mss_ddr_debug.c ****     uint32_t pattern_length = sizeof(ddr_test_pattern) - (3 * sizeof(uint32_t));
 1035              		.loc 1 765 5
 766:../src/platform/mpfs_hal/common/nwc/mss_ddr_debug.c ****     uint32_t * p_ddr_cached = (uint32_t *)0x80000000;
 1036              		.loc 1 766 5
 767:../src/platform/mpfs_hal/common/nwc/mss_ddr_debug.c ****     uint32_t * p_ddr_noncached = (uint32_t *)0x1400000000;
 1037              		.loc 1 767 5
 768:../src/platform/mpfs_hal/common/nwc/mss_ddr_debug.c ****     uint32_t word_offset;
 1038              		.loc 1 768 5
 769:../src/platform/mpfs_hal/common/nwc/mss_ddr_debug.c ****     uint32_t alive = 0;
 1039              		.loc 1 769 5
 770:../src/platform/mpfs_hal/common/nwc/mss_ddr_debug.c ****     uint32_t alive_idx = 0U;
 1040              		.loc 1 770 5
 771:../src/platform/mpfs_hal/common/nwc/mss_ddr_debug.c ****     uint32_t iteration = 0U;
 1041              		.loc 1 771 5
 772:../src/platform/mpfs_hal/common/nwc/mss_ddr_debug.c ****     uint32_t error = 0U;
 1042              		.loc 1 772 5
 773:../src/platform/mpfs_hal/common/nwc/mss_ddr_debug.c **** 
 774:../src/platform/mpfs_hal/common/nwc/mss_ddr_debug.c **** 
 775:../src/platform/mpfs_hal/common/nwc/mss_ddr_debug.c **** #ifdef DEBUG_DDR_INIT
 776:../src/platform/mpfs_hal/common/nwc/mss_ddr_debug.c ****     uprint(g_debug_uart, (const char*)"\r\nStarting ddr test\r\n");
 777:../src/platform/mpfs_hal/common/nwc/mss_ddr_debug.c **** #endif
 778:../src/platform/mpfs_hal/common/nwc/mss_ddr_debug.c ****     while(iteration < no_of_iterations)
 1043              		.loc 1 778 5
 764:../src/platform/mpfs_hal/common/nwc/mss_ddr_debug.c ****     uint32_t pattern_length = sizeof(ddr_test_pattern) - (3 * sizeof(uint32_t));
 1044              		.loc 1 764 1 is_stmt 0
 1045 0000 1D71     		addi	sp,sp,-96
 1046              		.cfi_def_cfa_offset 96
 1047 0002 4EFC     		sd	s3,56(sp)
 1048              		.cfi_offset 19, -40
 1049              	.LBB18:
 779:../src/platform/mpfs_hal/common/nwc/mss_ddr_debug.c ****     {
 780:../src/platform/mpfs_hal/common/nwc/mss_ddr_debug.c ****         int different = 0;
 781:../src/platform/mpfs_hal/common/nwc/mss_ddr_debug.c **** 
 782:../src/platform/mpfs_hal/common/nwc/mss_ddr_debug.c ****         load_test_buffers(p_ddr_cached, p_ddr_noncached, pattern_length);
 783:../src/platform/mpfs_hal/common/nwc/mss_ddr_debug.c **** 
 784:../src/platform/mpfs_hal/common/nwc/mss_ddr_debug.c ****         different = memcmp(g_test_buffer_cached, g_test_buffer_not_cached, pattern_length);
 785:../src/platform/mpfs_hal/common/nwc/mss_ddr_debug.c **** 
 786:../src/platform/mpfs_hal/common/nwc/mss_ddr_debug.c ****         if(different != 0)
 787:../src/platform/mpfs_hal/common/nwc/mss_ddr_debug.c ****         {
 788:../src/platform/mpfs_hal/common/nwc/mss_ddr_debug.c ****             for(word_offset = 0; word_offset < (pattern_length / sizeof(uint32_t)); word_offset++)
 789:../src/platform/mpfs_hal/common/nwc/mss_ddr_debug.c ****             {
 790:../src/platform/mpfs_hal/common/nwc/mss_ddr_debug.c ****                 if(g_test_buffer_cached[word_offset] != g_test_buffer_not_cached[word_offset])
 791:../src/platform/mpfs_hal/common/nwc/mss_ddr_debug.c ****                 {
 792:../src/platform/mpfs_hal/common/nwc/mss_ddr_debug.c **** #ifdef DEBUG_DDR_INIT
 793:../src/platform/mpfs_hal/common/nwc/mss_ddr_debug.c ****                     uprint64(g_debug_uart, "  Mismatch, 0x", (uint64_t)p_ddr_cached);
 794:../src/platform/mpfs_hal/common/nwc/mss_ddr_debug.c ****                     uprint32(g_debug_uart, "  offset:, 0x", (uint64_t)word_offset);
 795:../src/platform/mpfs_hal/common/nwc/mss_ddr_debug.c ****                     uprint64(g_debug_uart, "  address: 0x", (uint64_t)(p_ddr_cached + word_offset))
 796:../src/platform/mpfs_hal/common/nwc/mss_ddr_debug.c ****                     uprint32(g_debug_uart, "  expected (non-cached): 0x", g_test_buffer_not_cached[
 797:../src/platform/mpfs_hal/common/nwc/mss_ddr_debug.c ****                     uprint32(g_debug_uart, "  found  (cached): 0x", (uint64_t)g_test_buffer_cached[
 798:../src/platform/mpfs_hal/common/nwc/mss_ddr_debug.c ****                     uprint32(g_debug_uart, "  direct cached read: 0x", (uint32_t)*(p_ddr_cached + w
 799:../src/platform/mpfs_hal/common/nwc/mss_ddr_debug.c ****                     uprint32(g_debug_uart, "  direct non-cached read: 0x", (uint32_t)*(p_ddr_noncac
 800:../src/platform/mpfs_hal/common/nwc/mss_ddr_debug.c **** #endif
 801:../src/platform/mpfs_hal/common/nwc/mss_ddr_debug.c ****                     break;
 802:../src/platform/mpfs_hal/common/nwc/mss_ddr_debug.c ****                 }
 803:../src/platform/mpfs_hal/common/nwc/mss_ddr_debug.c ****             }
 804:../src/platform/mpfs_hal/common/nwc/mss_ddr_debug.c ****             error = 1U;
 805:../src/platform/mpfs_hal/common/nwc/mss_ddr_debug.c ****             return error;
 806:../src/platform/mpfs_hal/common/nwc/mss_ddr_debug.c ****         }
 807:../src/platform/mpfs_hal/common/nwc/mss_ddr_debug.c **** 
 808:../src/platform/mpfs_hal/common/nwc/mss_ddr_debug.c ****         if (((uint64_t)p_ddr_cached + ( 2 * pattern_length)) <  (LIBERO_SETTING_DDR_32_CACHE + size
 1050              		.loc 1 808 94
 1051 0004 B7090080 		li	s3,-2147483648
 1052 0008 BB89B900 		addw	s3,s3,a1
 1053              	.LBE18:
 764:../src/platform/mpfs_hal/common/nwc/mss_ddr_debug.c ****     uint32_t pattern_length = sizeof(ddr_test_pattern) - (3 * sizeof(uint32_t));
 1054              		.loc 1 764 1
 1055 000c A2E8     		sd	s0,80(sp)
 1056 000e A6E4     		sd	s1,72(sp)
 1057 0010 CAE0     		sd	s2,64(sp)
 1058 0012 5AF0     		sd	s6,32(sp)
 1059              		.cfi_offset 8, -16
 1060              		.cfi_offset 9, -24
 1061              		.cfi_offset 18, -32
 1062              		.cfi_offset 22, -64
 767:../src/platform/mpfs_hal/common/nwc/mss_ddr_debug.c ****     uint32_t word_offset;
 1063              		.loc 1 767 16
 1064 0014 9544     		li	s1,5
 766:../src/platform/mpfs_hal/common/nwc/mss_ddr_debug.c ****     uint32_t * p_ddr_noncached = (uint32_t *)0x1400000000;
 1065              		.loc 1 766 16
 1066 0016 0544     		li	s0,1
 1067              	.LBB23:
 1068              	.LBB19:
 1069              	.LBB20:
 751:../src/platform/mpfs_hal/common/nwc/mss_ddr_debug.c ****     pdma_transfer((uint64_t)g_test_buffer_not_cached, (uint64_t)p_not_cached_ddr, length,  PDMA_CHA
 1070              		.loc 1 751 5
 1071 0018 0569     		li	s2,4096
 1072              	.LBE20:
 1073              	.LBE19:
 1074              		.loc 1 808 94
 1075 001a 8219     		slli	s3,s3,32
 809:../src/platform/mpfs_hal/common/nwc/mss_ddr_debug.c ****         {
 810:../src/platform/mpfs_hal/common/nwc/mss_ddr_debug.c ****             p_ddr_cached += (pattern_length / sizeof(uint32_t));
 811:../src/platform/mpfs_hal/common/nwc/mss_ddr_debug.c ****             p_ddr_noncached += (pattern_length / sizeof(uint32_t));
 812:../src/platform/mpfs_hal/common/nwc/mss_ddr_debug.c ****         }
 813:../src/platform/mpfs_hal/common/nwc/mss_ddr_debug.c ****         else
 814:../src/platform/mpfs_hal/common/nwc/mss_ddr_debug.c ****         {
 815:../src/platform/mpfs_hal/common/nwc/mss_ddr_debug.c ****             p_ddr_cached = (uint32_t *)0x80000000;
 816:../src/platform/mpfs_hal/common/nwc/mss_ddr_debug.c ****             p_ddr_noncached = (uint32_t *)0x1400000000;
 817:../src/platform/mpfs_hal/common/nwc/mss_ddr_debug.c ****             iteration++;
 818:../src/platform/mpfs_hal/common/nwc/mss_ddr_debug.c **** #ifdef DEBUG_DDR_INIT
 819:../src/platform/mpfs_hal/common/nwc/mss_ddr_debug.c ****             uprint32(g_debug_uart, "  Iteration ", (uint64_t)(unsigned int)iteration);
 820:../src/platform/mpfs_hal/common/nwc/mss_ddr_debug.c **** #endif
 821:../src/platform/mpfs_hal/common/nwc/mss_ddr_debug.c ****         }
 822:../src/platform/mpfs_hal/common/nwc/mss_ddr_debug.c **** 
 823:../src/platform/mpfs_hal/common/nwc/mss_ddr_debug.c ****         alive++;
 824:../src/platform/mpfs_hal/common/nwc/mss_ddr_debug.c ****         if(alive > 10000U)
 1076              		.loc 1 824 11
 1077 001c 096B     		li	s6,8192
 1078              	.LBE23:
 764:../src/platform/mpfs_hal/common/nwc/mss_ddr_debug.c ****     uint32_t pattern_length = sizeof(ddr_test_pattern) - (3 * sizeof(uint32_t));
 1079              		.loc 1 764 1
 1080 001e 52F8     		sd	s4,48(sp)
 1081 0020 56F4     		sd	s5,40(sp)
 1082 0022 5EEC     		sd	s7,24(sp)
 1083 0024 62E8     		sd	s8,16(sp)
 1084 0026 66E4     		sd	s9,8(sp)
 1085 0028 86EC     		sd	ra,88(sp)
 1086              		.cfi_offset 20, -48
 1087              		.cfi_offset 21, -56
 1088              		.cfi_offset 23, -72
 1089              		.cfi_offset 24, -80
 1090              		.cfi_offset 25, -88
 1091              		.cfi_offset 1, -8
 764:../src/platform/mpfs_hal/common/nwc/mss_ddr_debug.c ****     uint32_t pattern_length = sizeof(ddr_test_pattern) - (3 * sizeof(uint32_t));
 1092              		.loc 1 764 1
 1093 002a AA8B     		mv	s7,a0
 771:../src/platform/mpfs_hal/common/nwc/mss_ddr_debug.c ****     uint32_t error = 0U;
 1094              		.loc 1 771 14
 1095 002c 814A     		li	s5,0
 769:../src/platform/mpfs_hal/common/nwc/mss_ddr_debug.c ****     uint32_t alive_idx = 0U;
 1096              		.loc 1 769 14
 1097 002e 014A     		li	s4,0
 767:../src/platform/mpfs_hal/common/nwc/mss_ddr_debug.c ****     uint32_t word_offset;
 1098              		.loc 1 767 16
 1099 0030 8A14     		slli	s1,s1,34
 766:../src/platform/mpfs_hal/common/nwc/mss_ddr_debug.c ****     uint32_t * p_ddr_noncached = (uint32_t *)0x1400000000;
 1100              		.loc 1 766 16
 1101 0032 7E04     		slli	s0,s0,31
 1102              	.LBB24:
 808:../src/platform/mpfs_hal/common/nwc/mss_ddr_debug.c ****         {
 1103              		.loc 1 808 37
 1104 0034 130C897E 		addi	s8,s2,2024
 808:../src/platform/mpfs_hal/common/nwc/mss_ddr_debug.c ****         {
 1105              		.loc 1 808 94
 1106 0038 93D90902 		srli	s3,s3,32
 1107              		.loc 1 824 11
 1108 003c 130B0B71 		addi	s6,s6,1808
 825:../src/platform/mpfs_hal/common/nwc/mss_ddr_debug.c ****         {
 826:../src/platform/mpfs_hal/common/nwc/mss_ddr_debug.c ****             alive = 0;
 827:../src/platform/mpfs_hal/common/nwc/mss_ddr_debug.c **** #ifdef DEBUG_DDR_INIT
 828:../src/platform/mpfs_hal/common/nwc/mss_ddr_debug.c ****             uprint(g_debug_uart, (const char*)"\r");
 829:../src/platform/mpfs_hal/common/nwc/mss_ddr_debug.c ****             uprint(g_debug_uart, (const char*)progress[alive_idx]);
 830:../src/platform/mpfs_hal/common/nwc/mss_ddr_debug.c **** #endif
 831:../src/platform/mpfs_hal/common/nwc/mss_ddr_debug.c ****             alive_idx++;
 832:../src/platform/mpfs_hal/common/nwc/mss_ddr_debug.c ****             if(alive_idx >= 3U)
 833:../src/platform/mpfs_hal/common/nwc/mss_ddr_debug.c ****             {
 834:../src/platform/mpfs_hal/common/nwc/mss_ddr_debug.c ****                 alive_idx = 0;
 835:../src/platform/mpfs_hal/common/nwc/mss_ddr_debug.c ****             }
 836:../src/platform/mpfs_hal/common/nwc/mss_ddr_debug.c ****             if(ddr_test == 2U)
 1109              		.loc 1 836 25
 1110 0040 970C0000 		lla	s9,ddr_test
 1110      938C0C00 
 1111              	.LVL111:
 1112              	.L82:
 1113              	.LBE24:
 778:../src/platform/mpfs_hal/common/nwc/mss_ddr_debug.c ****     {
 1114              		.loc 1 778 10
 1115 0048 63F77A09 		bgeu	s5,s7,.L88
 1116              	.LBB25:
 780:../src/platform/mpfs_hal/common/nwc/mss_ddr_debug.c **** 
 1117              		.loc 1 780 9 is_stmt 1
 1118              	.LVL112:
 782:../src/platform/mpfs_hal/common/nwc/mss_ddr_debug.c **** 
 1119              		.loc 1 782 9
 1120              	.LBB22:
 1121              	.LBB21:
 749:../src/platform/mpfs_hal/common/nwc/mss_ddr_debug.c **** 
 1122              		.loc 1 749 5
 751:../src/platform/mpfs_hal/common/nwc/mss_ddr_debug.c ****     pdma_transfer((uint64_t)g_test_buffer_not_cached, (uint64_t)p_not_cached_ddr, length,  PDMA_CHA
 1123              		.loc 1 751 5
 1124 004c B7060003 		li	a3,50331648
 1125 0050 130649BF 		addi	a2,s2,-1036
 1126 0054 A285     		mv	a1,s0
 1127 0056 17050000 		lla	a0,g_test_buffer_cached
 1127      13050500 
 1128 005e 97000000 		call	pdma_transfer
 1128      E7800000 
 1129              	.LVL113:
 752:../src/platform/mpfs_hal/common/nwc/mss_ddr_debug.c ****     pdma_transfer_complete(PDMA_CHANNEL0_BASE_ADDRESS);
 1130              		.loc 1 752 5
 1131 0066 130649BF 		addi	a2,s2,-1036
 1132 006a A685     		mv	a1,s1
 1133 006c B7160003 		li	a3,50335744
 1134 0070 17050000 		lla	a0,g_test_buffer_not_cached
 1134      13050500 
 1135 0078 97000000 		call	pdma_transfer
 1135      E7800000 
 1136              	.LVL114:
 753:../src/platform/mpfs_hal/common/nwc/mss_ddr_debug.c ****     pdma_transfer_complete(PDMA_CHANNEL1_BASE_ADDRESS);
 1137              		.loc 1 753 5
 1138 0080 37050003 		li	a0,50331648
 1139 0084 97000000 		call	pdma_transfer_complete
 1139      E7800000 
 1140              	.LVL115:
 754:../src/platform/mpfs_hal/common/nwc/mss_ddr_debug.c **** }
 1141              		.loc 1 754 5
 1142 008c 37150003 		li	a0,50335744
 1143 0090 97000000 		call	pdma_transfer_complete
 1143      E7800000 
 1144              	.LVL116:
 1145              	.LBE21:
 1146              	.LBE22:
 784:../src/platform/mpfs_hal/common/nwc/mss_ddr_debug.c **** 
 1147              		.loc 1 784 9
 784:../src/platform/mpfs_hal/common/nwc/mss_ddr_debug.c **** 
 1148              		.loc 1 784 21 is_stmt 0
 1149 0098 130649BF 		addi	a2,s2,-1036
 1150 009c 97050000 		lla	a1,g_test_buffer_not_cached
 1150      93850500 
 1151 00a4 17050000 		lla	a0,g_test_buffer_cached
 1151      13050500 
 1152 00ac 97000000 		call	memcmp
 1152      E7800000 
 1153              	.LVL117:
 786:../src/platform/mpfs_hal/common/nwc/mss_ddr_debug.c ****         {
 1154              		.loc 1 786 9 is_stmt 1
 786:../src/platform/mpfs_hal/common/nwc/mss_ddr_debug.c ****         {
 1155              		.loc 1 786 11 is_stmt 0
 1156 00b4 39E5     		bne	a0,zero,.L89
 808:../src/platform/mpfs_hal/common/nwc/mss_ddr_debug.c ****         {
 1157              		.loc 1 808 9 is_stmt 1
 808:../src/platform/mpfs_hal/common/nwc/mss_ddr_debug.c ****         {
 1158              		.loc 1 808 37 is_stmt 0
 1159 00b6 B3078401 		add	a5,s0,s8
 808:../src/platform/mpfs_hal/common/nwc/mss_ddr_debug.c ****         {
 1160              		.loc 1 808 12
 1161 00ba 63FC3703 		bgeu	a5,s3,.L84
 810:../src/platform/mpfs_hal/common/nwc/mss_ddr_debug.c ****             p_ddr_noncached += (pattern_length / sizeof(uint32_t));
 1162              		.loc 1 810 13 is_stmt 1
 810:../src/platform/mpfs_hal/common/nwc/mss_ddr_debug.c ****             p_ddr_noncached += (pattern_length / sizeof(uint32_t));
 1163              		.loc 1 810 26 is_stmt 0
 1164 00be 930749BF 		addi	a5,s2,-1036
 1165 00c2 3E94     		add	s0,s0,a5
 1166              	.LVL118:
 811:../src/platform/mpfs_hal/common/nwc/mss_ddr_debug.c ****         }
 1167              		.loc 1 811 13 is_stmt 1
 811:../src/platform/mpfs_hal/common/nwc/mss_ddr_debug.c ****         }
 1168              		.loc 1 811 29 is_stmt 0
 1169 00c4 BE94     		add	s1,s1,a5
 1170              	.LVL119:
 1171              	.L85:
 823:../src/platform/mpfs_hal/common/nwc/mss_ddr_debug.c ****         if(alive > 10000U)
 1172              		.loc 1 823 9 is_stmt 1
 823:../src/platform/mpfs_hal/common/nwc/mss_ddr_debug.c ****         if(alive > 10000U)
 1173              		.loc 1 823 14 is_stmt 0
 1174 00c6 052A     		addiw	s4,s4,1
 1175              	.LVL120:
 824:../src/platform/mpfs_hal/common/nwc/mss_ddr_debug.c ****         {
 1176              		.loc 1 824 9 is_stmt 1
 824:../src/platform/mpfs_hal/common/nwc/mss_ddr_debug.c ****         {
 1177              		.loc 1 824 11 is_stmt 0
 1178 00c8 E3704BF9 		bleu	s4,s6,.L82
 826:../src/platform/mpfs_hal/common/nwc/mss_ddr_debug.c **** #ifdef DEBUG_DDR_INIT
 1179              		.loc 1 826 13 is_stmt 1
 1180              	.LVL121:
 831:../src/platform/mpfs_hal/common/nwc/mss_ddr_debug.c ****             if(alive_idx >= 3U)
 1181              		.loc 1 831 13
 832:../src/platform/mpfs_hal/common/nwc/mss_ddr_debug.c ****             {
 1182              		.loc 1 832 13
 1183              		.loc 1 836 13
 1184              		.loc 1 836 15 is_stmt 0
 1185 00cc 03B70C00 		ld	a4,0(s9)
 1186 00d0 8947     		li	a5,2
 1187 00d2 6316F702 		bne	a4,a5,.L90
 1188              	.LVL122:
 1189              	.L88:
 837:../src/platform/mpfs_hal/common/nwc/mss_ddr_debug.c ****             {
 838:../src/platform/mpfs_hal/common/nwc/mss_ddr_debug.c **** #ifdef DEBUG_DDR_INIT
 839:../src/platform/mpfs_hal/common/nwc/mss_ddr_debug.c ****             uprint(g_debug_uart, (const char*)"\r\nEnding ddr test. Press 0 to display the menu\r\n
 840:../src/platform/mpfs_hal/common/nwc/mss_ddr_debug.c **** #endif
 841:../src/platform/mpfs_hal/common/nwc/mss_ddr_debug.c ****                 return error;
 1190              		.loc 1 841 24
 1191 00d6 0145     		li	a0,0
 1192              	.L83:
 1193              	.LBE25:
 842:../src/platform/mpfs_hal/common/nwc/mss_ddr_debug.c ****             }
 843:../src/platform/mpfs_hal/common/nwc/mss_ddr_debug.c ****         }
 844:../src/platform/mpfs_hal/common/nwc/mss_ddr_debug.c ****     }
 845:../src/platform/mpfs_hal/common/nwc/mss_ddr_debug.c ****     return error;
 846:../src/platform/mpfs_hal/common/nwc/mss_ddr_debug.c **** }
 1194              		.loc 1 846 1
 1195 00d8 E660     		ld	ra,88(sp)
 1196              		.cfi_remember_state
 1197              		.cfi_restore 1
 1198 00da 4664     		ld	s0,80(sp)
 1199              		.cfi_restore 8
 1200              	.LVL123:
 1201 00dc A664     		ld	s1,72(sp)
 1202              		.cfi_restore 9
 1203              	.LVL124:
 1204 00de 0669     		ld	s2,64(sp)
 1205              		.cfi_restore 18
 1206 00e0 E279     		ld	s3,56(sp)
 1207              		.cfi_restore 19
 1208 00e2 427A     		ld	s4,48(sp)
 1209              		.cfi_restore 20
 1210 00e4 A27A     		ld	s5,40(sp)
 1211              		.cfi_restore 21
 1212              	.LVL125:
 1213 00e6 027B     		ld	s6,32(sp)
 1214              		.cfi_restore 22
 1215 00e8 E26B     		ld	s7,24(sp)
 1216              		.cfi_restore 23
 1217 00ea 426C     		ld	s8,16(sp)
 1218              		.cfi_restore 24
 1219 00ec A26C     		ld	s9,8(sp)
 1220              		.cfi_restore 25
 1221 00ee 2561     		addi	sp,sp,96
 1222              		.cfi_def_cfa_offset 0
 1223 00f0 8280     		jr	ra
 1224              	.LVL126:
 1225              	.L84:
 1226              		.cfi_restore_state
 1227              	.LBB26:
 815:../src/platform/mpfs_hal/common/nwc/mss_ddr_debug.c ****             p_ddr_noncached = (uint32_t *)0x1400000000;
 1228              		.loc 1 815 13 is_stmt 1
 816:../src/platform/mpfs_hal/common/nwc/mss_ddr_debug.c ****             iteration++;
 1229              		.loc 1 816 13
 817:../src/platform/mpfs_hal/common/nwc/mss_ddr_debug.c **** #ifdef DEBUG_DDR_INIT
 1230              		.loc 1 817 13
 816:../src/platform/mpfs_hal/common/nwc/mss_ddr_debug.c ****             iteration++;
 1231              		.loc 1 816 29 is_stmt 0
 1232 00f2 9544     		li	s1,5
 815:../src/platform/mpfs_hal/common/nwc/mss_ddr_debug.c ****             p_ddr_noncached = (uint32_t *)0x1400000000;
 1233              		.loc 1 815 26
 1234 00f4 0544     		li	s0,1
 817:../src/platform/mpfs_hal/common/nwc/mss_ddr_debug.c **** #ifdef DEBUG_DDR_INIT
 1235              		.loc 1 817 22
 1236 00f6 852A     		addiw	s5,s5,1
 1237              	.LVL127:
 816:../src/platform/mpfs_hal/common/nwc/mss_ddr_debug.c ****             iteration++;
 1238              		.loc 1 816 29
 1239 00f8 8A14     		slli	s1,s1,34
 815:../src/platform/mpfs_hal/common/nwc/mss_ddr_debug.c ****             p_ddr_noncached = (uint32_t *)0x1400000000;
 1240              		.loc 1 815 26
 1241 00fa 7E04     		slli	s0,s0,31
 1242 00fc E9B7     		j	.L85
 1243              	.LVL128:
 1244              	.L90:
 826:../src/platform/mpfs_hal/common/nwc/mss_ddr_debug.c **** #ifdef DEBUG_DDR_INIT
 1245              		.loc 1 826 19
 1246 00fe 014A     		li	s4,0
 1247 0100 A1B7     		j	.L82
 1248              	.LVL129:
 1249              	.L89:
 805:../src/platform/mpfs_hal/common/nwc/mss_ddr_debug.c ****         }
 1250              		.loc 1 805 20
 1251 0102 0545     		li	a0,1
 1252              	.LVL130:
 1253 0104 D1BF     		j	.L83
 1254              	.LBE26:
 1255              		.cfi_endproc
 1256              	.LFE30:
 1258              		.comm	ddr_test,8,8
 1259              		.globl	progress
 1260              		.section	.bss.g_test_buffer_cached,"aw",@nobits
 1261              		.align	3
 1264              	g_test_buffer_cached:
 1265 0000 00000000 		.zero	3060
 1265      00000000 
 1265      00000000 
 1265      00000000 
 1265      00000000 
 1266              		.section	.bss.g_test_buffer_not_cached,"aw",@nobits
 1267              		.align	3
 1270              	g_test_buffer_not_cached:
 1271 0000 00000000 		.zero	3060
 1271      00000000 
 1271      00000000 
 1271      00000000 
 1271      00000000 
 1272              		.section	.data.progress,"aw"
 1273              		.align	3
 1276              	progress:
 1277 0000 00000000 		.dword	.LC2
 1277      00000000 
 1278 0008 00000000 		.dword	.LC3
 1278      00000000 
 1279 0010 00000000 		.dword	.LC4
 1279      00000000 
 1280              		.section	.rodata.ddr_write.cst8,"aM",@progbits,8
 1281              		.align	3
 1282              	.LC0:
 1283 0000 55555555 		.dword	6148914691236517205
 1283      55555555 
 1284              	.LC1:
 1285 0008 CCCCCCCC 		.dword	-3689348814741910324
 1285      CCCCCCCC 
 1286              		.section	.rodata.str1.8,"aMS",@progbits,1
 1287              		.align	3
 1288              	.LC2:
 1289 0000 7C0D00   		.string	"|\r"
 1290 0003 00000000 		.zero	5
 1290      00
 1291              	.LC3:
 1292 0008 2F0D00   		.string	"/\r"
 1293 000b 00000000 		.zero	5
 1293      00
 1294              	.LC4:
 1295 0010 2D0D00   		.string	"-\r"
 1296              		.text
 1297              	.Letext0:
 1298              		.file 3 "/home/vinay/Desktop/soft_console/SoftConsole-v2022.2-RISC-V-747/riscv-unknown-elf-gcc/ris
 1299              		.file 4 "/home/vinay/Desktop/soft_console/SoftConsole-v2022.2-RISC-V-747/riscv-unknown-elf-gcc/lib
 1300              		.file 5 "/home/vinay/Desktop/soft_console/SoftConsole-v2022.2-RISC-V-747/riscv-unknown-elf-gcc/ris
 1301              		.file 6 "/home/vinay/Desktop/soft_console/SoftConsole-v2022.2-RISC-V-747/riscv-unknown-elf-gcc/ris
 1302              		.file 7 "/home/vinay/Desktop/soft_console/SoftConsole-v2022.2-RISC-V-747/riscv-unknown-elf-gcc/ris
 1303              		.file 8 "/home/vinay/Desktop/soft_console/SoftConsole-v2022.2-RISC-V-747/riscv-unknown-elf-gcc/ris
 1304              		.file 9 "/home/vinay/Desktop/soft_console/SoftConsole-v2022.2-RISC-V-747/riscv-unknown-elf-gcc/ris
 1305              		.file 10 "/home/vinay/Desktop/softconsole_watershed/Water-shed/src/platform/mpfs_hal/common/nwc/ms
 1306              		.file 11 "/home/vinay/Desktop/softconsole_watershed/Water-shed/src/platform/mpfs_hal/common/nwc/ms
 1307              		.file 12 "/home/vinay/Desktop/softconsole_watershed/Water-shed/src/platform/mpfs_hal/common/nwc/ms
 1308              		.file 13 "/home/vinay/Desktop/softconsole_watershed/Water-shed/src/platform/mpfs_hal/common/mss_mp
 1309              		.file 14 "/home/vinay/Desktop/softconsole_watershed/Water-shed/src/platform/mpfs_hal/common/mss_pl
 1310              		.file 15 "/home/vinay/Desktop/softconsole_watershed/Water-shed/src/platform/mpfs_hal/startup_gcc/s
 1311              		.file 16 "/home/vinay/Desktop/softconsole_watershed/Water-shed/src/platform/mpfs_hal/common/nwc/ms
 1312              		.file 17 "/home/vinay/Desktop/soft_console/SoftConsole-v2022.2-RISC-V-747/riscv-unknown-elf-gcc/ri
DEFINED SYMBOLS
                            *ABS*:0000000000000000 mss_ddr_debug.c
     /tmp/ccDRY82K.s:12     .text.ddr_write:0000000000000000 ddr_write
     /tmp/ccDRY82K.s:16     .text.ddr_write:0000000000000000 .L0 
     /tmp/ccDRY82K.s:18     .text.ddr_write:0000000000000000 .L0 
     /tmp/ccDRY82K.s:19     .text.ddr_write:0000000000000000 .L0 
     /tmp/ccDRY82K.s:20     .text.ddr_write:0000000000000000 .L0 
     /tmp/ccDRY82K.s:21     .text.ddr_write:0000000000000000 .L0 
     /tmp/ccDRY82K.s:22     .text.ddr_write:0000000000000000 .L0 
     /tmp/ccDRY82K.s:23     .text.ddr_write:0000000000000000 .L0 
     /tmp/ccDRY82K.s:24     .text.ddr_write:0000000000000002 .L0 
     /tmp/ccDRY82K.s:38     .text.ddr_write:000000000000001c .L0 
     /tmp/ccDRY82K.s:39     .text.ddr_write:000000000000001c .L0 
     /tmp/ccDRY82K.s:40     .text.ddr_write:000000000000001c .L0 
     /tmp/ccDRY82K.s:41     .text.ddr_write:000000000000001c .L0 
     /tmp/ccDRY82K.s:42     .text.ddr_write:000000000000001c .L0 
     /tmp/ccDRY82K.s:43     .text.ddr_write:000000000000001c .L0 
     /tmp/ccDRY82K.s:44     .text.ddr_write:000000000000001c .L0 
     /tmp/ccDRY82K.s:45     .text.ddr_write:000000000000001c .L0 
     /tmp/ccDRY82K.s:46     .text.ddr_write:000000000000001c .L0 
     /tmp/ccDRY82K.s:47     .text.ddr_write:000000000000001c .L0 
     /tmp/ccDRY82K.s:48     .text.ddr_write:000000000000001c .L0 
     /tmp/ccDRY82K.s:49     .text.ddr_write:000000000000001c .L0 
     /tmp/ccDRY82K.s:50     .text.ddr_write:000000000000001c .L0 
     /tmp/ccDRY82K.s:52     .text.ddr_write:000000000000001c .L0 
     /tmp/ccDRY82K.s:54     .text.ddr_write:000000000000001e .L0 
     /tmp/ccDRY82K.s:57     .text.ddr_write:0000000000000020 .L0 
     /tmp/ccDRY82K.s:58     .text.ddr_write:0000000000000020 .L0 
     /tmp/ccDRY82K.s:59     .text.ddr_write:0000000000000020 .L0 
     /tmp/ccDRY82K.s:60     .text.ddr_write:0000000000000020 .L0 
     /tmp/ccDRY82K.s:64     .text.ddr_write:0000000000000026 .L0 
     /tmp/ccDRY82K.s:68     .text.ddr_write:0000000000000030 .L0 
     /tmp/ccDRY82K.s:71     .text.ddr_write:0000000000000032 .L0 
     /tmp/ccDRY82K.s:74     .text.ddr_write:0000000000000038 .L0 
     /tmp/ccDRY82K.s:76     .text.ddr_write:000000000000003a .L0 
     /tmp/ccDRY82K.s:79     .text.ddr_write:000000000000003e .L0 
     /tmp/ccDRY82K.s:83     .text.ddr_write:0000000000000040 .L0 
     /tmp/ccDRY82K.s:85     .text.ddr_write:0000000000000042 .L0 
     /tmp/ccDRY82K.s:87     .text.ddr_write:0000000000000044 .L0 
     /tmp/ccDRY82K.s:90     .text.ddr_write:0000000000000048 .L0 
     /tmp/ccDRY82K.s:92     .text.ddr_write:000000000000004a .L0 
     /tmp/ccDRY82K.s:94     .text.ddr_write:000000000000004e .L0 
     /tmp/ccDRY82K.s:96     .text.ddr_write:0000000000000050 .L0 
     /tmp/ccDRY82K.s:98     .text.ddr_write:0000000000000058 .L0 
     /tmp/ccDRY82K.s:100    .text.ddr_write:0000000000000060 .L0 
     /tmp/ccDRY82K.s:104    .text.ddr_write:0000000000000064 .L0 
     /tmp/ccDRY82K.s:106    .text.ddr_write:0000000000000068 .L0 
     /tmp/ccDRY82K.s:107    .text.ddr_write:0000000000000068 .L0 
     /tmp/ccDRY82K.s:108    .text.ddr_write:000000000000006a .L0 
     /tmp/ccDRY82K.s:109    .text.ddr_write:000000000000006a .L0 
     /tmp/ccDRY82K.s:111    .text.ddr_write:000000000000006c .L0 
     /tmp/ccDRY82K.s:113    .text.ddr_write:000000000000006e .L0 
     /tmp/ccDRY82K.s:116    .text.ddr_write:0000000000000070 .L0 
     /tmp/ccDRY82K.s:119    .text.ddr_write:0000000000000072 .L0 
     /tmp/ccDRY82K.s:122    .text.ddr_write:0000000000000074 .L0 
     /tmp/ccDRY82K.s:124    .text.ddr_write:0000000000000076 .L0 
     /tmp/ccDRY82K.s:126    .text.ddr_write:0000000000000078 .L0 
     /tmp/ccDRY82K.s:128    .text.ddr_write:000000000000007a .L0 
     /tmp/ccDRY82K.s:130    .text.ddr_write:000000000000007c .L0 
     /tmp/ccDRY82K.s:132    .text.ddr_write:000000000000007e .L0 
     /tmp/ccDRY82K.s:134    .text.ddr_write:0000000000000080 .L0 
     /tmp/ccDRY82K.s:136    .text.ddr_write:0000000000000082 .L0 
     /tmp/ccDRY82K.s:140    .text.ddr_write:0000000000000086 .L0 
     /tmp/ccDRY82K.s:144    .text.ddr_write:0000000000000088 .L0 
     /tmp/ccDRY82K.s:146    .text.ddr_write:0000000000000088 .L0 
     /tmp/ccDRY82K.s:151    .text.ddr_write:0000000000000096 .L0 
     /tmp/ccDRY82K.s:155    .text.ddr_write:00000000000000a0 .L0 
     /tmp/ccDRY82K.s:156    .text.ddr_write:00000000000000a0 .L0 
     /tmp/ccDRY82K.s:159    .text.ddr_write:00000000000000a8 .L0 
     /tmp/ccDRY82K.s:163    .text.ddr_write:00000000000000aa .L0 
     /tmp/ccDRY82K.s:166    .text.ddr_write:00000000000000b2 .L0 
     /tmp/ccDRY82K.s:171    .text.ddr_write:00000000000000b6 .L0 
     /tmp/ccDRY82K.s:174    .text.ddr_write:00000000000000ba .L0 
     /tmp/ccDRY82K.s:175    .text.ddr_write:00000000000000ba .L0 
     /tmp/ccDRY82K.s:176    .text.ddr_write:00000000000000ba .L0 
     /tmp/ccDRY82K.s:178    .text.ddr_write:00000000000000be .L0 
     /tmp/ccDRY82K.s:179    .text.ddr_write:00000000000000be .L0 
     /tmp/ccDRY82K.s:182    .text.ddr_write:00000000000000c0 .L0 
     /tmp/ccDRY82K.s:183    .text.ddr_write:00000000000000c0 .L0 
     /tmp/ccDRY82K.s:187    .text.ddr_write:00000000000000c4 .L0 
     /tmp/ccDRY82K.s:194    .text.ddr_write:00000000000000da .L0 
     /tmp/ccDRY82K.s:195    .text.ddr_write:00000000000000da .L0 
     /tmp/ccDRY82K.s:199    .text.ddr_write:00000000000000dc .L0 
     /tmp/ccDRY82K.s:200    .text.ddr_write:00000000000000dc .L0 
     /tmp/ccDRY82K.s:206    .text.ddr_write:00000000000000e0 .L0 
     /tmp/ccDRY82K.s:207    .text.ddr_write:00000000000000e0 .L0 
     /tmp/ccDRY82K.s:209    .text.ddr_write:00000000000000e2 .L0 
     /tmp/ccDRY82K.s:210    .text.ddr_write:00000000000000e2 .L0 
     /tmp/ccDRY82K.s:213    .text.ddr_write:00000000000000e4 .L0 
     /tmp/ccDRY82K.s:216    .text.ddr_write:00000000000000e6 .L0 
     /tmp/ccDRY82K.s:223    .text.ddr_write:00000000000000fc .L0 
     /tmp/ccDRY82K.s:229    .text.ddr_write:0000000000000100 .L0 
     /tmp/ccDRY82K.s:230    .text.ddr_write:0000000000000100 .L0 
     /tmp/ccDRY82K.s:232    .text.ddr_write:0000000000000104 .L0 
     /tmp/ccDRY82K.s:233    .text.ddr_write:0000000000000104 .L0 
     /tmp/ccDRY82K.s:238    .text.ddr_write:0000000000000108 .L0 
     /tmp/ccDRY82K.s:239    .text.ddr_write:0000000000000108 .L0 
     /tmp/ccDRY82K.s:242    .text.ddr_write:000000000000010c .L0 
     /tmp/ccDRY82K.s:243    .text.ddr_write:000000000000010c .L0 
     /tmp/ccDRY82K.s:245    .text.ddr_write:000000000000010e .L0 
     /tmp/ccDRY82K.s:247    .text.ddr_write:0000000000000112 .L0 
     /tmp/ccDRY82K.s:248    .text.ddr_write:0000000000000112 .L0 
     /tmp/ccDRY82K.s:252    .text.ddr_write:0000000000000116 .L0 
     /tmp/ccDRY82K.s:253    .text.ddr_write:0000000000000116 .L0 
     /tmp/ccDRY82K.s:256    .text.ddr_write:000000000000011a .L0 
     /tmp/ccDRY82K.s:259    .text.ddr_write:000000000000011c .L0 
     /tmp/ccDRY82K.s:260    .text.ddr_write:000000000000011c .L0 
     /tmp/ccDRY82K.s:263    .text.ddr_write:0000000000000124 .L0 
     /tmp/ccDRY82K.s:267    .text.ddr_write:000000000000012e .L0 
     /tmp/ccDRY82K.s:273    .text.ddr_write:0000000000000134 .L0 
     /tmp/ccDRY82K.s:279    .text.ddr_write:0000000000000138 .L0 
     /tmp/ccDRY82K.s:282    .text.ddr_write:000000000000013c .L0 
     /tmp/ccDRY82K.s:288    .text.ddr_read:0000000000000000 ddr_read
     /tmp/ccDRY82K.s:291    .text.ddr_read:0000000000000000 .L0 
     /tmp/ccDRY82K.s:293    .text.ddr_read:0000000000000000 .L0 
     /tmp/ccDRY82K.s:294    .text.ddr_read:0000000000000000 .L0 
     /tmp/ccDRY82K.s:295    .text.ddr_read:0000000000000000 .L0 
     /tmp/ccDRY82K.s:296    .text.ddr_read:0000000000000000 .L0 
     /tmp/ccDRY82K.s:297    .text.ddr_read:0000000000000000 .L0 
     /tmp/ccDRY82K.s:298    .text.ddr_read:0000000000000000 .L0 
     /tmp/ccDRY82K.s:299    .text.ddr_read:0000000000000000 .L0 
     /tmp/ccDRY82K.s:300    .text.ddr_read:0000000000000000 .L0 
     /tmp/ccDRY82K.s:301    .text.ddr_read:0000000000000000 .L0 
     /tmp/ccDRY82K.s:302    .text.ddr_read:0000000000000000 .L0 
     /tmp/ccDRY82K.s:303    .text.ddr_read:0000000000000000 .L0 
     /tmp/ccDRY82K.s:304    .text.ddr_read:0000000000000000 .L0 
     /tmp/ccDRY82K.s:305    .text.ddr_read:0000000000000000 .L0 
     /tmp/ccDRY82K.s:306    .text.ddr_read:0000000000000002 .L0 
     /tmp/ccDRY82K.s:320    .text.ddr_read:000000000000001c .L0 
     /tmp/ccDRY82K.s:321    .text.ddr_read:000000000000001c .L0 
     /tmp/ccDRY82K.s:322    .text.ddr_read:000000000000001c .L0 
     /tmp/ccDRY82K.s:323    .text.ddr_read:000000000000001c .L0 
     /tmp/ccDRY82K.s:324    .text.ddr_read:000000000000001c .L0 
     /tmp/ccDRY82K.s:325    .text.ddr_read:000000000000001c .L0 
     /tmp/ccDRY82K.s:326    .text.ddr_read:000000000000001c .L0 
     /tmp/ccDRY82K.s:327    .text.ddr_read:000000000000001c .L0 
     /tmp/ccDRY82K.s:328    .text.ddr_read:000000000000001c .L0 
     /tmp/ccDRY82K.s:329    .text.ddr_read:000000000000001c .L0 
     /tmp/ccDRY82K.s:330    .text.ddr_read:000000000000001c .L0 
     /tmp/ccDRY82K.s:331    .text.ddr_read:000000000000001c .L0 
     /tmp/ccDRY82K.s:332    .text.ddr_read:000000000000001c .L0 
     /tmp/ccDRY82K.s:334    .text.ddr_read:000000000000001c .L0 
     /tmp/ccDRY82K.s:336    .text.ddr_read:000000000000001e .L0 
     /tmp/ccDRY82K.s:339    .text.ddr_read:0000000000000020 .L0 
     /tmp/ccDRY82K.s:340    .text.ddr_read:0000000000000020 .L0 
     /tmp/ccDRY82K.s:341    .text.ddr_read:0000000000000020 .L0 
     /tmp/ccDRY82K.s:342    .text.ddr_read:0000000000000020 .L0 
     /tmp/ccDRY82K.s:343    .text.ddr_read:0000000000000020 .L0 
     /tmp/ccDRY82K.s:347    .text.ddr_read:0000000000000026 .L0 
     /tmp/ccDRY82K.s:351    .text.ddr_read:0000000000000030 .L0 
     /tmp/ccDRY82K.s:353    .text.ddr_read:0000000000000032 .L0 
     /tmp/ccDRY82K.s:356    .text.ddr_read:0000000000000038 .L0 
     /tmp/ccDRY82K.s:358    .text.ddr_read:000000000000003a .L0 
     /tmp/ccDRY82K.s:362    .text.ddr_read:000000000000003e .L0 
     /tmp/ccDRY82K.s:363    .text.ddr_read:000000000000003e .L0 
     /tmp/ccDRY82K.s:367    .text.ddr_read:0000000000000046 .L0 
     /tmp/ccDRY82K.s:372    .text.ddr_read:000000000000004a .L0 
     /tmp/ccDRY82K.s:377    .text.ddr_read:0000000000000058 .L0 
     /tmp/ccDRY82K.s:381    .text.ddr_read:0000000000000062 .L0 
     /tmp/ccDRY82K.s:382    .text.ddr_read:0000000000000062 .L0 
     /tmp/ccDRY82K.s:385    .text.ddr_read:000000000000006a .L0 
     /tmp/ccDRY82K.s:387    .text.ddr_read:000000000000006e .L0 
     /tmp/ccDRY82K.s:390    .text.ddr_read:0000000000000070 .L0 
     /tmp/ccDRY82K.s:391    .text.ddr_read:0000000000000070 .L0 
     /tmp/ccDRY82K.s:392    .text.ddr_read:0000000000000070 .L0 
     /tmp/ccDRY82K.s:393    .text.ddr_read:0000000000000070 .L0 
     /tmp/ccDRY82K.s:394    .text.ddr_read:0000000000000070 .L0 
     /tmp/ccDRY82K.s:398    .text.ddr_read:0000000000000074 .L0 
     /tmp/ccDRY82K.s:399    .text.ddr_read:0000000000000074 .L0 
     /tmp/ccDRY82K.s:401    .text.ddr_read:0000000000000076 .L0 
     /tmp/ccDRY82K.s:403    .text.ddr_read:000000000000007a .L0 
     /tmp/ccDRY82K.s:405    .text.ddr_read:000000000000007c .L0 
     /tmp/ccDRY82K.s:410    .text.ddr_read:0000000000000084 .L0 
     /tmp/ccDRY82K.s:412    .text.ddr_read:0000000000000088 .L0 
     /tmp/ccDRY82K.s:414    .text.ddr_read:000000000000008a .L0 
     /tmp/ccDRY82K.s:416    .text.ddr_read:0000000000000092 .L0 
     /tmp/ccDRY82K.s:418    .text.ddr_read:000000000000009a .L0 
     /tmp/ccDRY82K.s:422    .text.ddr_read:000000000000009e .L0 
     /tmp/ccDRY82K.s:424    .text.ddr_read:00000000000000a2 .L0 
     /tmp/ccDRY82K.s:425    .text.ddr_read:00000000000000a2 .L0 
     /tmp/ccDRY82K.s:426    .text.ddr_read:00000000000000a4 .L0 
     /tmp/ccDRY82K.s:427    .text.ddr_read:00000000000000a4 .L0 
     /tmp/ccDRY82K.s:429    .text.ddr_read:00000000000000a6 .L0 
     /tmp/ccDRY82K.s:434    .text.ddr_read:00000000000000aa .L0 
     /tmp/ccDRY82K.s:436    .text.ddr_read:00000000000000ac .L0 
     /tmp/ccDRY82K.s:439    .text.ddr_read:00000000000000ae .L0 
     /tmp/ccDRY82K.s:441    .text.ddr_read:00000000000000b0 .L0 
     /tmp/ccDRY82K.s:443    .text.ddr_read:00000000000000b2 .L0 
     /tmp/ccDRY82K.s:446    .text.ddr_read:00000000000000b4 .L0 
     /tmp/ccDRY82K.s:449    .text.ddr_read:00000000000000b6 .L0 
     /tmp/ccDRY82K.s:451    .text.ddr_read:00000000000000b8 .L0 
     /tmp/ccDRY82K.s:453    .text.ddr_read:00000000000000ba .L0 
     /tmp/ccDRY82K.s:455    .text.ddr_read:00000000000000bc .L0 
     /tmp/ccDRY82K.s:457    .text.ddr_read:00000000000000be .L0 
     /tmp/ccDRY82K.s:459    .text.ddr_read:00000000000000c0 .L0 
     /tmp/ccDRY82K.s:463    .text.ddr_read:00000000000000c2 .L0 
     /tmp/ccDRY82K.s:465    .text.ddr_read:00000000000000c2 .L0 
     /tmp/ccDRY82K.s:468    .text.ddr_read:00000000000000ca .L0 
     /tmp/ccDRY82K.s:476    .text.ddr_read:00000000000000ce .L0 
     /tmp/ccDRY82K.s:478    .text.ddr_read:00000000000000ce .L0 
     /tmp/ccDRY82K.s:479    .text.ddr_read:00000000000000ce .L0 
../src/platform/mpfs_hal/common/nwc/mss_nwc_init.h:121    .text.ddr_read:00000000000000ce .L0 
     /tmp/ccDRY82K.s:488    .text.ddr_read:00000000000000d2 .L0 
     /tmp/ccDRY82K.s:489    .text.ddr_read:00000000000000d2 .L0 
     /tmp/ccDRY82K.s:492    .text.ddr_read:00000000000000d6 .L0 
     /tmp/ccDRY82K.s:496    .text.ddr_read:00000000000000d8 .L0 
     /tmp/ccDRY82K.s:498    .text.ddr_read:00000000000000d8 .L0 
     /tmp/ccDRY82K.s:499    .text.ddr_read:00000000000000d8 .L0 
../src/platform/mpfs_hal/common/nwc/mss_nwc_init.h:122    .text.ddr_read:00000000000000d8 .L0 
     /tmp/ccDRY82K.s:508    .text.ddr_read:00000000000000dc .L0 
     /tmp/ccDRY82K.s:509    .text.ddr_read:00000000000000dc .L0 
     /tmp/ccDRY82K.s:511    .text.ddr_read:00000000000000de .L0 
     /tmp/ccDRY82K.s:518    .text.ddr_read:00000000000000e4 .L0 
     /tmp/ccDRY82K.s:521    .text.ddr_read:00000000000000ea .L0 
     /tmp/ccDRY82K.s:522    .text.ddr_read:00000000000000ea .L0 
     /tmp/ccDRY82K.s:524    .text.ddr_read:00000000000000ee .L0 
     /tmp/ccDRY82K.s:528    .text.ddr_read:00000000000000f2 .L0 
     /tmp/ccDRY82K.s:529    .text.ddr_read:00000000000000f2 .L0 
     /tmp/ccDRY82K.s:531    .text.ddr_read:00000000000000f4 .L0 
     /tmp/ccDRY82K.s:532    .text.ddr_read:00000000000000f4 .L0 
     /tmp/ccDRY82K.s:533    .text.ddr_read:00000000000000f4 .L0 
     /tmp/ccDRY82K.s:535    .text.ddr_read:00000000000000f6 .L0 
     /tmp/ccDRY82K.s:537    .text.ddr_read:00000000000000fa .L0 
     /tmp/ccDRY82K.s:538    .text.ddr_read:00000000000000fa .L0 
     /tmp/ccDRY82K.s:542    .text.ddr_read:00000000000000fc .L0 
     /tmp/ccDRY82K.s:543    .text.ddr_read:00000000000000fc .L0 
     /tmp/ccDRY82K.s:544    .text.ddr_read:00000000000000fc .L0 
     /tmp/ccDRY82K.s:546    .text.ddr_read:00000000000000fe .L0 
     /tmp/ccDRY82K.s:549    .text.ddr_read:0000000000000100 .L0 
     /tmp/ccDRY82K.s:550    .text.ddr_read:0000000000000100 .L0 
     /tmp/ccDRY82K.s:551    .text.ddr_read:0000000000000100 .L0 
     /tmp/ccDRY82K.s:552    .text.ddr_read:0000000000000100 .L0 
     /tmp/ccDRY82K.s:555    .text.ddr_read:0000000000000102 .L0 
     /tmp/ccDRY82K.s:563    .text.ddr_read:000000000000011a .L0 
     /tmp/ccDRY82K.s:564    .text.ddr_read:000000000000011a .L0 
     /tmp/ccDRY82K.s:568    .text.ddr_read:000000000000011c .L0 
     /tmp/ccDRY82K.s:569    .text.ddr_read:000000000000011c .L0 
     /tmp/ccDRY82K.s:575    .text.ddr_read:0000000000000120 .L0 
     /tmp/ccDRY82K.s:576    .text.ddr_read:0000000000000120 .L0 
     /tmp/ccDRY82K.s:577    .text.ddr_read:0000000000000120 .L0 
     /tmp/ccDRY82K.s:582    .text.ddr_read:0000000000000124 .L0 
     /tmp/ccDRY82K.s:589    .text.ddr_read:000000000000013a .L0 
     /tmp/ccDRY82K.s:595    .text.ddr_read:000000000000013e .L0 
     /tmp/ccDRY82K.s:596    .text.ddr_read:000000000000013e .L0 
     /tmp/ccDRY82K.s:598    .text.ddr_read:0000000000000142 .L0 
     /tmp/ccDRY82K.s:599    .text.ddr_read:0000000000000142 .L0 
     /tmp/ccDRY82K.s:604    .text.ddr_read:0000000000000146 .L0 
     /tmp/ccDRY82K.s:605    .text.ddr_read:0000000000000146 .L0 
     /tmp/ccDRY82K.s:608    .text.ddr_read:000000000000014a .L0 
     /tmp/ccDRY82K.s:609    .text.ddr_read:000000000000014a .L0 
     /tmp/ccDRY82K.s:611    .text.ddr_read:000000000000014c .L0 
     /tmp/ccDRY82K.s:613    .text.ddr_read:0000000000000150 .L0 
     /tmp/ccDRY82K.s:614    .text.ddr_read:0000000000000150 .L0 
     /tmp/ccDRY82K.s:618    .text.ddr_read:0000000000000154 .L0 
     /tmp/ccDRY82K.s:619    .text.ddr_read:0000000000000154 .L0 
     /tmp/ccDRY82K.s:622    .text.ddr_read:0000000000000158 .L0 
     /tmp/ccDRY82K.s:625    .text.ddr_read:000000000000015a .L0 
     /tmp/ccDRY82K.s:626    .text.ddr_read:000000000000015a .L0 
     /tmp/ccDRY82K.s:631    .text.ddr_read:0000000000000164 .L0 
     /tmp/ccDRY82K.s:632    .text.ddr_read:0000000000000164 .L0 
     /tmp/ccDRY82K.s:635    .text.ddr_read:000000000000016c .L0 
     /tmp/ccDRY82K.s:636    .text.ddr_read:000000000000016c .L0 
     /tmp/ccDRY82K.s:639    .text.ddr_read:0000000000000170 .L0 
     /tmp/ccDRY82K.s:642    .text.ddr_read:0000000000000174 .L0 
     /tmp/ccDRY82K.s:645    .text.ddr_read:0000000000000176 .L0 
     /tmp/ccDRY82K.s:646    .text.ddr_read:0000000000000176 .L0 
     /tmp/ccDRY82K.s:647    .text.ddr_read:0000000000000176 .L0 
     /tmp/ccDRY82K.s:648    .text.ddr_read:0000000000000176 .L0 
     /tmp/ccDRY82K.s:649    .text.ddr_read:0000000000000176 .L0 
     /tmp/ccDRY82K.s:651    .text.ddr_read:0000000000000178 .L0 
     /tmp/ccDRY82K.s:652    .text.ddr_read:0000000000000178 .L0 
     /tmp/ccDRY82K.s:653    .text.ddr_read:0000000000000178 .L0 
     /tmp/ccDRY82K.s:654    .text.ddr_read:0000000000000178 .L0 
     /tmp/ccDRY82K.s:656    .text.ddr_read:000000000000017a .L0 
     /tmp/ccDRY82K.s:662    .text.ddr_read:0000000000000186 .L0 
     /tmp/ccDRY82K.s:668    .text.ddr_read:000000000000018c .L0 
     /tmp/ccDRY82K.s:674    .text.ddr_read:0000000000000190 .L0 
     /tmp/ccDRY82K.s:677    .text.ddr_read:0000000000000194 .L0 
     /tmp/ccDRY82K.s:684    .text.ddr_read_write_fn:0000000000000000 ddr_read_write_fn
     /tmp/ccDRY82K.s:687    .text.ddr_read_write_fn:0000000000000000 .L0 
     /tmp/ccDRY82K.s:689    .text.ddr_read_write_fn:0000000000000000 .L0 
     /tmp/ccDRY82K.s:690    .text.ddr_read_write_fn:0000000000000000 .L0 
     /tmp/ccDRY82K.s:691    .text.ddr_read_write_fn:0000000000000000 .L0 
     /tmp/ccDRY82K.s:693    .text.ddr_read_write_fn:0000000000000000 .L0 
     /tmp/ccDRY82K.s:695    .text.ddr_read_write_fn:0000000000000000 .L0 
     /tmp/ccDRY82K.s:696    .text.ddr_read_write_fn:0000000000000000 .L0 
     /tmp/ccDRY82K.s:697    .text.ddr_read_write_fn:0000000000000002 .L0 
     /tmp/ccDRY82K.s:708    .text.ddr_read_write_fn:0000000000000016 .L0 
     /tmp/ccDRY82K.s:709    .text.ddr_read_write_fn:0000000000000016 .L0 
     /tmp/ccDRY82K.s:710    .text.ddr_read_write_fn:0000000000000016 .L0 
     /tmp/ccDRY82K.s:711    .text.ddr_read_write_fn:0000000000000016 .L0 
     /tmp/ccDRY82K.s:712    .text.ddr_read_write_fn:0000000000000016 .L0 
     /tmp/ccDRY82K.s:713    .text.ddr_read_write_fn:0000000000000016 .L0 
     /tmp/ccDRY82K.s:714    .text.ddr_read_write_fn:0000000000000016 .L0 
     /tmp/ccDRY82K.s:715    .text.ddr_read_write_fn:0000000000000016 .L0 
     /tmp/ccDRY82K.s:716    .text.ddr_read_write_fn:0000000000000016 .L0 
     /tmp/ccDRY82K.s:717    .text.ddr_read_write_fn:0000000000000016 .L0 
     /tmp/ccDRY82K.s:719    .text.ddr_read_write_fn:0000000000000016 .L0 
     /tmp/ccDRY82K.s:727    .text.ddr_read_write_fn:0000000000000020 .L0 
     /tmp/ccDRY82K.s:729    .text.ddr_read_write_fn:0000000000000022 .L0 
     /tmp/ccDRY82K.s:733    .text.ddr_read_write_fn:0000000000000024 .L0 
     /tmp/ccDRY82K.s:734    .text.ddr_read_write_fn:0000000000000024 .L0 
     /tmp/ccDRY82K.s:738    .text.ddr_read_write_fn:000000000000002c .L0 
     /tmp/ccDRY82K.s:739    .text.ddr_read_write_fn:000000000000002c .L0 
     /tmp/ccDRY82K.s:741    .text.ddr_read_write_fn:0000000000000030 .L0 
     /tmp/ccDRY82K.s:744    .text.ddr_read_write_fn:0000000000000034 .L0 
     /tmp/ccDRY82K.s:746    .text.ddr_read_write_fn:0000000000000038 .L0 
     /tmp/ccDRY82K.s:747    .text.ddr_read_write_fn:0000000000000038 .L0 
     /tmp/ccDRY82K.s:756    .text.ddr_read_write_fn:000000000000004c .L0 
     /tmp/ccDRY82K.s:757    .text.ddr_read_write_fn:000000000000004c .L0 
     /tmp/ccDRY82K.s:764    .text.ddr_read_write_fn:000000000000005c .L0 
     /tmp/ccDRY82K.s:767    .text.ddr_read_write_fn:000000000000005e .L0 
     /tmp/ccDRY82K.s:774    .text.ddr_read_write_fn:000000000000006e .L0 
     /tmp/ccDRY82K.s:777    .text.ddr_read_write_fn:0000000000000072 .L0 
     /tmp/ccDRY82K.s:778    .text.ddr_read_write_fn:0000000000000072 .L0 
     /tmp/ccDRY82K.s:781    .text.ddr_read_write_fn:0000000000000074 .L0 
     /tmp/ccDRY82K.s:782    .text.ddr_read_write_fn:0000000000000074 .L0 
     /tmp/ccDRY82K.s:789    .text.ddr_read_write_fn:0000000000000084 .L0 
     /tmp/ccDRY82K.s:793    .text.ddr_read_write_fn:0000000000000088 .L0 
     /tmp/ccDRY82K.s:796    .text.ddr_read_write_fn:000000000000008a .L0 
     /tmp/ccDRY82K.s:801    .text.ddr_read_write_fn:000000000000008e .L0 
     /tmp/ccDRY82K.s:802    .text.ddr_read_write_fn:000000000000008e .L0 
     /tmp/ccDRY82K.s:803    .text.ddr_read_write_fn:000000000000008e .L0 
     /tmp/ccDRY82K.s:804    .text.ddr_read_write_fn:0000000000000090 .L0 
     /tmp/ccDRY82K.s:806    .text.ddr_read_write_fn:0000000000000092 .L0 
     /tmp/ccDRY82K.s:809    .text.ddr_read_write_fn:0000000000000096 .L0 
     /tmp/ccDRY82K.s:811    .text.ddr_read_write_fn:0000000000000098 .L0 
     /tmp/ccDRY82K.s:813    .text.ddr_read_write_fn:000000000000009a .L0 
     /tmp/ccDRY82K.s:816    .text.ddr_read_write_fn:000000000000009c .L0 
     /tmp/ccDRY82K.s:818    .text.ddr_read_write_fn:000000000000009e .L0 
     /tmp/ccDRY82K.s:821    .text.ddr_read_write_fn:00000000000000a0 .L0 
     /tmp/ccDRY82K.s:823    .text.ddr_read_write_fn:00000000000000a2 .L0 
     /tmp/ccDRY82K.s:825    .text.ddr_read_write_fn:00000000000000a4 .L0 
     /tmp/ccDRY82K.s:827    .text.ddr_read_write_fn:00000000000000a6 .L0 
     /tmp/ccDRY82K.s:829    .text.ddr_read_write_fn:00000000000000a8 .L0 
     /tmp/ccDRY82K.s:836    .text.load_ddr_pattern:0000000000000000 load_ddr_pattern
     /tmp/ccDRY82K.s:839    .text.load_ddr_pattern:0000000000000000 .L0 
     /tmp/ccDRY82K.s:841    .text.load_ddr_pattern:0000000000000000 .L0 
     /tmp/ccDRY82K.s:842    .text.load_ddr_pattern:0000000000000000 .L0 
     /tmp/ccDRY82K.s:843    .text.load_ddr_pattern:0000000000000000 .L0 
     /tmp/ccDRY82K.s:844    .text.load_ddr_pattern:0000000000000000 .L0 
     /tmp/ccDRY82K.s:845    .text.load_ddr_pattern:0000000000000002 .L0 
     /tmp/ccDRY82K.s:847    .text.load_ddr_pattern:0000000000000004 .L0 
     /tmp/ccDRY82K.s:849    .text.load_ddr_pattern:0000000000000004 .L0 
     /tmp/ccDRY82K.s:853    .text.load_ddr_pattern:000000000000000c .L0 
     /tmp/ccDRY82K.s:856    .text.load_ddr_pattern:000000000000000e .L0 
     /tmp/ccDRY82K.s:858    .text.load_ddr_pattern:0000000000000010 .L0 
     /tmp/ccDRY82K.s:860    .text.load_ddr_pattern:0000000000000012 .L0 
     /tmp/ccDRY82K.s:867    .text.load_ddr_pattern:0000000000000020 .L0 
     /tmp/ccDRY82K.s:868    .text.load_ddr_pattern:0000000000000020 .L0 
     /tmp/ccDRY82K.s:869    .text.load_ddr_pattern:0000000000000020 .L0 
     /tmp/ccDRY82K.s:870    .text.load_ddr_pattern:0000000000000020 .L0 
     /tmp/ccDRY82K.s:871    .text.load_ddr_pattern:0000000000000020 .L0 
     /tmp/ccDRY82K.s:872    .text.load_ddr_pattern:0000000000000020 .L0 
     /tmp/ccDRY82K.s:873    .text.load_ddr_pattern:0000000000000020 .L0 
     /tmp/ccDRY82K.s:875    .text.load_ddr_pattern:0000000000000020 .L0 
     /tmp/ccDRY82K.s:878    .text.load_ddr_pattern:0000000000000022 .L0 
     /tmp/ccDRY82K.s:879    .text.load_ddr_pattern:0000000000000022 .L0 
     /tmp/ccDRY82K.s:880    .text.load_ddr_pattern:0000000000000022 .L0 
     /tmp/ccDRY82K.s:882    .text.load_ddr_pattern:0000000000000024 .L0 
     /tmp/ccDRY82K.s:884    .text.load_ddr_pattern:0000000000000028 .L0 
     /tmp/ccDRY82K.s:886    .text.load_ddr_pattern:000000000000002a .L0 
     /tmp/ccDRY82K.s:888    .text.load_ddr_pattern:0000000000000032 .L0 
     /tmp/ccDRY82K.s:892    .text.load_ddr_pattern:000000000000003a .L0 
     /tmp/ccDRY82K.s:895    .text.load_ddr_pattern:0000000000000042 .L0 
     /tmp/ccDRY82K.s:899    .text.load_ddr_pattern:000000000000004e .L0 
     /tmp/ccDRY82K.s:903    .text.load_ddr_pattern:000000000000005a .L0 
     /tmp/ccDRY82K.s:907    .text.load_ddr_pattern:0000000000000066 .L0 
     /tmp/ccDRY82K.s:908    .text.load_ddr_pattern:0000000000000066 .L0 
     /tmp/ccDRY82K.s:909    .text.load_ddr_pattern:0000000000000068 .L0 
     /tmp/ccDRY82K.s:910    .text.load_ddr_pattern:0000000000000068 .L0 
     /tmp/ccDRY82K.s:912    .text.load_ddr_pattern:000000000000006a .L0 
     /tmp/ccDRY82K.s:914    .text.load_ddr_pattern:000000000000006c .L0 
     /tmp/ccDRY82K.s:917    .text.load_ddr_pattern:000000000000006e .L0 
     /tmp/ccDRY82K.s:919    .text.load_ddr_pattern:0000000000000070 .L0 
     /tmp/ccDRY82K.s:921    .text.load_ddr_pattern:0000000000000072 .L0 
     /tmp/ccDRY82K.s:923    .text.load_ddr_pattern:0000000000000074 .L0 
     /tmp/ccDRY82K.s:925    .text.load_ddr_pattern:0000000000000076 .L0 
     /tmp/ccDRY82K.s:927    .text.load_ddr_pattern:0000000000000076 .L0 
     /tmp/ccDRY82K.s:929    .text.load_ddr_pattern:000000000000007a .L0 
     /tmp/ccDRY82K.s:930    .text.load_ddr_pattern:000000000000007c .L0 
     /tmp/ccDRY82K.s:932    .text.load_ddr_pattern:000000000000007c .L0 
     /tmp/ccDRY82K.s:935    .text.load_ddr_pattern:0000000000000084 .L0 
     /tmp/ccDRY82K.s:937    .text.load_ddr_pattern:0000000000000084 .L0 
     /tmp/ccDRY82K.s:938    .text.load_ddr_pattern:0000000000000084 .L0 
     /tmp/ccDRY82K.s:940    .text.load_ddr_pattern:0000000000000088 .L0 
     /tmp/ccDRY82K.s:961    .text.load_ddr_pattern:0000000000000098 .L0 
     /tmp/ccDRY82K.s:965    .text.load_ddr_pattern:00000000000000a4 .L0 
     /tmp/ccDRY82K.s:968    .text.load_ddr_pattern:00000000000000a8 .L0 
     /tmp/ccDRY82K.s:974    .text.load_ddr_pattern:00000000000000b6 .L0 
     /tmp/ccDRY82K.s:975    .text.load_ddr_pattern:00000000000000b6 .L0 
     /tmp/ccDRY82K.s:976    .text.load_ddr_pattern:00000000000000b6 .L0 
     /tmp/ccDRY82K.s:979    .text.load_ddr_pattern:00000000000000b8 .L0 
     /tmp/ccDRY82K.s:980    .text.load_ddr_pattern:00000000000000b8 .L0 
     /tmp/ccDRY82K.s:983    .text.load_ddr_pattern:00000000000000ba .L0 
     /tmp/ccDRY82K.s:987    .text.load_ddr_pattern:00000000000000c6 .L0 
     /tmp/ccDRY82K.s:991    .text.load_ddr_pattern:00000000000000cc .L0 
     /tmp/ccDRY82K.s:995    .text.load_ddr_pattern:00000000000000d8 .L0 
     /tmp/ccDRY82K.s:999    .text.load_ddr_pattern:00000000000000de .L0 
     /tmp/ccDRY82K.s:1003   .text.load_ddr_pattern:00000000000000ea .L0 
     /tmp/ccDRY82K.s:1005   .text.load_ddr_pattern:00000000000000f0 .L0 
     /tmp/ccDRY82K.s:1012   .text.execute_ddr_pattern:0000000000000000 execute_ddr_pattern
     /tmp/ccDRY82K.s:1015   .text.execute_ddr_pattern:0000000000000000 .L0 
     /tmp/ccDRY82K.s:1017   .text.execute_ddr_pattern:0000000000000000 .L0 
     /tmp/ccDRY82K.s:1018   .text.execute_ddr_pattern:0000000000000000 .L0 
     /tmp/ccDRY82K.s:1019   .text.execute_ddr_pattern:0000000000000000 .L0 
     /tmp/ccDRY82K.s:1020   .text.execute_ddr_pattern:0000000000000000 .L0 
     /tmp/ccDRY82K.s:1023   .text.execute_ddr_pattern:0000000000000004 .L0 
     /tmp/ccDRY82K.s:1030   .text.test_ddr:0000000000000000 test_ddr
     /tmp/ccDRY82K.s:1033   .text.test_ddr:0000000000000000 .L0 
     /tmp/ccDRY82K.s:1035   .text.test_ddr:0000000000000000 .L0 
     /tmp/ccDRY82K.s:1036   .text.test_ddr:0000000000000000 .L0 
     /tmp/ccDRY82K.s:1037   .text.test_ddr:0000000000000000 .L0 
     /tmp/ccDRY82K.s:1038   .text.test_ddr:0000000000000000 .L0 
     /tmp/ccDRY82K.s:1039   .text.test_ddr:0000000000000000 .L0 
     /tmp/ccDRY82K.s:1040   .text.test_ddr:0000000000000000 .L0 
     /tmp/ccDRY82K.s:1041   .text.test_ddr:0000000000000000 .L0 
     /tmp/ccDRY82K.s:1042   .text.test_ddr:0000000000000000 .L0 
     /tmp/ccDRY82K.s:1043   .text.test_ddr:0000000000000000 .L0 
     /tmp/ccDRY82K.s:1044   .text.test_ddr:0000000000000000 .L0 
     /tmp/ccDRY82K.s:1045   .text.test_ddr:0000000000000000 .L0 
     /tmp/ccDRY82K.s:1046   .text.test_ddr:0000000000000002 .L0 
     /tmp/ccDRY82K.s:1048   .text.test_ddr:0000000000000004 .L0 
     /tmp/ccDRY82K.s:1051   .text.test_ddr:0000000000000004 .L0 
     /tmp/ccDRY82K.s:1055   .text.test_ddr:000000000000000c .L0 
     /tmp/ccDRY82K.s:1059   .text.test_ddr:0000000000000014 .L0 
     /tmp/ccDRY82K.s:1060   .text.test_ddr:0000000000000014 .L0 
     /tmp/ccDRY82K.s:1061   .text.test_ddr:0000000000000014 .L0 
     /tmp/ccDRY82K.s:1062   .text.test_ddr:0000000000000014 .L0 
     /tmp/ccDRY82K.s:1064   .text.test_ddr:0000000000000014 .L0 
     /tmp/ccDRY82K.s:1066   .text.test_ddr:0000000000000016 .L0 
     /tmp/ccDRY82K.s:1071   .text.test_ddr:0000000000000018 .L0 
     /tmp/ccDRY82K.s:1075   .text.test_ddr:000000000000001a .L0 
     /tmp/ccDRY82K.s:1077   .text.test_ddr:000000000000001c .L0 
     /tmp/ccDRY82K.s:1080   .text.test_ddr:000000000000001e .L0 
     /tmp/ccDRY82K.s:1086   .text.test_ddr:000000000000002a .L0 
     /tmp/ccDRY82K.s:1087   .text.test_ddr:000000000000002a .L0 
     /tmp/ccDRY82K.s:1088   .text.test_ddr:000000000000002a .L0 
     /tmp/ccDRY82K.s:1089   .text.test_ddr:000000000000002a .L0 
     /tmp/ccDRY82K.s:1090   .text.test_ddr:000000000000002a .L0 
     /tmp/ccDRY82K.s:1091   .text.test_ddr:000000000000002a .L0 
     /tmp/ccDRY82K.s:1093   .text.test_ddr:000000000000002a .L0 
     /tmp/ccDRY82K.s:1095   .text.test_ddr:000000000000002c .L0 
     /tmp/ccDRY82K.s:1097   .text.test_ddr:000000000000002e .L0 
     /tmp/ccDRY82K.s:1099   .text.test_ddr:0000000000000030 .L0 
     /tmp/ccDRY82K.s:1101   .text.test_ddr:0000000000000032 .L0 
     /tmp/ccDRY82K.s:1104   .text.test_ddr:0000000000000034 .L0 
     /tmp/ccDRY82K.s:1106   .text.test_ddr:0000000000000038 .L0 
     /tmp/ccDRY82K.s:1108   .text.test_ddr:000000000000003c .L0 
                            *COM*:0000000000000008 ddr_test
     /tmp/ccDRY82K.s:1110   .text.test_ddr:0000000000000040 .L0 
     /tmp/ccDRY82K.s:1115   .text.test_ddr:0000000000000048 .L0 
     /tmp/ccDRY82K.s:1119   .text.test_ddr:000000000000004c .L0 
     /tmp/ccDRY82K.s:1122   .text.test_ddr:000000000000004c .L0 
     /tmp/ccDRY82K.s:1123   .text.test_ddr:000000000000004c .L0 
     /tmp/ccDRY82K.s:1124   .text.test_ddr:000000000000004c .L0 
     /tmp/ccDRY82K.s:1264   .bss.g_test_buffer_cached:0000000000000000 g_test_buffer_cached
     /tmp/ccDRY82K.s:1131   .text.test_ddr:0000000000000066 .L0 
     /tmp/ccDRY82K.s:1270   .bss.g_test_buffer_not_cached:0000000000000000 g_test_buffer_not_cached
     /tmp/ccDRY82K.s:1138   .text.test_ddr:0000000000000080 .L0 
     /tmp/ccDRY82K.s:1142   .text.test_ddr:000000000000008c .L0 
     /tmp/ccDRY82K.s:1148   .text.test_ddr:0000000000000098 .L0 
     /tmp/ccDRY82K.s:1149   .text.test_ddr:0000000000000098 .L0 
     /tmp/ccDRY82K.s:1155   .text.test_ddr:00000000000000b4 .L0 
     /tmp/ccDRY82K.s:1156   .text.test_ddr:00000000000000b4 .L0 
     /tmp/ccDRY82K.s:1158   .text.test_ddr:00000000000000b6 .L0 
     /tmp/ccDRY82K.s:1159   .text.test_ddr:00000000000000b6 .L0 
     /tmp/ccDRY82K.s:1161   .text.test_ddr:00000000000000ba .L0 
     /tmp/ccDRY82K.s:1163   .text.test_ddr:00000000000000be .L0 
     /tmp/ccDRY82K.s:1164   .text.test_ddr:00000000000000be .L0 
     /tmp/ccDRY82K.s:1168   .text.test_ddr:00000000000000c4 .L0 
     /tmp/ccDRY82K.s:1169   .text.test_ddr:00000000000000c4 .L0 
     /tmp/ccDRY82K.s:1173   .text.test_ddr:00000000000000c6 .L0 
     /tmp/ccDRY82K.s:1174   .text.test_ddr:00000000000000c6 .L0 
     /tmp/ccDRY82K.s:1177   .text.test_ddr:00000000000000c8 .L0 
     /tmp/ccDRY82K.s:1178   .text.test_ddr:00000000000000c8 .L0 
     /tmp/ccDRY82K.s:1181   .text.test_ddr:00000000000000cc .L0 
     /tmp/ccDRY82K.s:1182   .text.test_ddr:00000000000000cc .L0 
     /tmp/ccDRY82K.s:1183   .text.test_ddr:00000000000000cc .L0 
     /tmp/ccDRY82K.s:1184   .text.test_ddr:00000000000000cc .L0 
     /tmp/ccDRY82K.s:1185   .text.test_ddr:00000000000000cc .L0 
     /tmp/ccDRY82K.s:1191   .text.test_ddr:00000000000000d6 .L0 
     /tmp/ccDRY82K.s:1195   .text.test_ddr:00000000000000d8 .L0 
     /tmp/ccDRY82K.s:1196   .text.test_ddr:00000000000000da .L0 
     /tmp/ccDRY82K.s:1197   .text.test_ddr:00000000000000da .L0 
     /tmp/ccDRY82K.s:1199   .text.test_ddr:00000000000000dc .L0 
     /tmp/ccDRY82K.s:1202   .text.test_ddr:00000000000000de .L0 
     /tmp/ccDRY82K.s:1205   .text.test_ddr:00000000000000e0 .L0 
     /tmp/ccDRY82K.s:1207   .text.test_ddr:00000000000000e2 .L0 
     /tmp/ccDRY82K.s:1209   .text.test_ddr:00000000000000e4 .L0 
     /tmp/ccDRY82K.s:1211   .text.test_ddr:00000000000000e6 .L0 
     /tmp/ccDRY82K.s:1214   .text.test_ddr:00000000000000e8 .L0 
     /tmp/ccDRY82K.s:1216   .text.test_ddr:00000000000000ea .L0 
     /tmp/ccDRY82K.s:1218   .text.test_ddr:00000000000000ec .L0 
     /tmp/ccDRY82K.s:1220   .text.test_ddr:00000000000000ee .L0 
     /tmp/ccDRY82K.s:1222   .text.test_ddr:00000000000000f0 .L0 
     /tmp/ccDRY82K.s:1226   .text.test_ddr:00000000000000f2 .L0 
     /tmp/ccDRY82K.s:1229   .text.test_ddr:00000000000000f2 .L0 
     /tmp/ccDRY82K.s:1230   .text.test_ddr:00000000000000f2 .L0 
     /tmp/ccDRY82K.s:1231   .text.test_ddr:00000000000000f2 .L0 
     /tmp/ccDRY82K.s:1232   .text.test_ddr:00000000000000f2 .L0 
     /tmp/ccDRY82K.s:1234   .text.test_ddr:00000000000000f4 .L0 
     /tmp/ccDRY82K.s:1236   .text.test_ddr:00000000000000f6 .L0 
     /tmp/ccDRY82K.s:1239   .text.test_ddr:00000000000000f8 .L0 
     /tmp/ccDRY82K.s:1241   .text.test_ddr:00000000000000fa .L0 
     /tmp/ccDRY82K.s:1246   .text.test_ddr:00000000000000fe .L0 
     /tmp/ccDRY82K.s:1251   .text.test_ddr:0000000000000102 .L0 
     /tmp/ccDRY82K.s:1255   .text.test_ddr:0000000000000106 .L0 
     /tmp/ccDRY82K.s:1276   .data.progress:0000000000000000 progress
     /tmp/ccDRY82K.s:285    .text.ddr_write:000000000000013c .L0 
     /tmp/ccDRY82K.s:680    .text.ddr_read:0000000000000194 .L0 
     /tmp/ccDRY82K.s:832    .text.ddr_read_write_fn:00000000000000a8 .L0 
     /tmp/ccDRY82K.s:1008   .text.load_ddr_pattern:00000000000000f0 .L0 
     /tmp/ccDRY82K.s:1026   .text.execute_ddr_pattern:0000000000000004 .L0 
     /tmp/ccDRY82K.s:1260   .text.test_ddr:0000000000000106 .L0 
                     .debug_frame:0000000000000000 .L0 
     /tmp/ccDRY82K.s:1282   .rodata.ddr_write.cst8:0000000000000000 .LC0
     /tmp/ccDRY82K.s:96     .text.ddr_write:0000000000000050 .L0 
     /tmp/ccDRY82K.s:1284   .rodata.ddr_write.cst8:0000000000000008 .LC1
     /tmp/ccDRY82K.s:98     .text.ddr_write:0000000000000058 .L0 
     /tmp/ccDRY82K.s:151    .text.ddr_write:0000000000000096 .L0 
     /tmp/ccDRY82K.s:163    .text.ddr_write:00000000000000aa .L0 
     /tmp/ccDRY82K.s:263    .text.ddr_write:0000000000000124 .L0 
     /tmp/ccDRY82K.s:153    .text.ddr_write:00000000000000a0 .L2
     /tmp/ccDRY82K.s:143    .text.ddr_write:0000000000000088 .L3
     /tmp/ccDRY82K.s:81     .text.ddr_write:0000000000000040 .L4
     /tmp/ccDRY82K.s:169    .text.ddr_write:00000000000000b6 .L15
     /tmp/ccDRY82K.s:161    .text.ddr_write:00000000000000aa .L18
     /tmp/ccDRY82K.s:77     .text.ddr_write:000000000000003e .L26
     /tmp/ccDRY82K.s:164    .text.ddr_write:00000000000000b2 .L27
     /tmp/ccDRY82K.s:204    .text.ddr_write:00000000000000e0 .L6
     /tmp/ccDRY82K.s:257    .text.ddr_write:000000000000011c .L8
     /tmp/ccDRY82K.s:214    .text.ddr_write:00000000000000e6 .L9
     /tmp/ccDRY82K.s:227    .text.ddr_write:0000000000000100 .L10
     /tmp/ccDRY82K.s:236    .text.ddr_write:0000000000000108 .L11
     /tmp/ccDRY82K.s:198    .text.ddr_write:00000000000000dc .L13
     /tmp/ccDRY82K.s:102    .text.ddr_write:0000000000000064 .L5
     /tmp/ccDRY82K.s:185    .text.ddr_write:00000000000000c4 .L7
     /tmp/ccDRY82K.s:265    .text.ddr_write:000000000000012e .L20
     /tmp/ccDRY82K.s:271    .text.ddr_write:0000000000000134 .L21
     /tmp/ccDRY82K.s:277    .text.ddr_write:0000000000000138 .L23
     /tmp/ccDRY82K.s:250    .text.ddr_write:0000000000000116 .L14
     /tmp/ccDRY82K.s:377    .text.ddr_read:0000000000000058 .L0 
     /tmp/ccDRY82K.s:414    .text.ddr_read:000000000000008a .L0 
     /tmp/ccDRY82K.s:416    .text.ddr_read:0000000000000092 .L0 
     /tmp/ccDRY82K.s:465    .text.ddr_read:00000000000000c2 .L0 
     /tmp/ccDRY82K.s:657    .text.ddr_read:000000000000017c .L0 
     /tmp/ccDRY82K.s:379    .text.ddr_read:0000000000000062 .L29
     /tmp/ccDRY82K.s:370    .text.ddr_read:000000000000004a .L30
     /tmp/ccDRY82K.s:397    .text.ddr_read:0000000000000074 .L31
     /tmp/ccDRY82K.s:471    .text.ddr_read:00000000000000ce .L34
     /tmp/ccDRY82K.s:462    .text.ddr_read:00000000000000c2 .L50
     /tmp/ccDRY82K.s:359    .text.ddr_read:000000000000003e .L32
     /tmp/ccDRY82K.s:466    .text.ddr_read:00000000000000ca .L59
     /tmp/ccDRY82K.s:514    .text.ddr_read:00000000000000e4 .L47
     /tmp/ccDRY82K.s:495    .text.ddr_read:00000000000000d8 .L35
     /tmp/ccDRY82K.s:365    .text.ddr_read:0000000000000046 .L36
     /tmp/ccDRY82K.s:573    .text.ddr_read:0000000000000120 .L37
     /tmp/ccDRY82K.s:540    .text.ddr_read:00000000000000fc .L39
     /tmp/ccDRY82K.s:623    .text.ddr_read:000000000000015a .L40
     /tmp/ccDRY82K.s:580    .text.ddr_read:0000000000000124 .L41
     /tmp/ccDRY82K.s:593    .text.ddr_read:000000000000013e .L42
     /tmp/ccDRY82K.s:602    .text.ddr_read:0000000000000146 .L43
     /tmp/ccDRY82K.s:567    .text.ddr_read:000000000000011c .L45
     /tmp/ccDRY82K.s:420    .text.ddr_read:000000000000009e .L33
     /tmp/ccDRY82K.s:527    .text.ddr_read:00000000000000f2 .L60
     /tmp/ccDRY82K.s:660    .text.ddr_read:0000000000000186 .L52
     /tmp/ccDRY82K.s:666    .text.ddr_read:000000000000018c .L53
     /tmp/ccDRY82K.s:672    .text.ddr_read:0000000000000190 .L55
     /tmp/ccDRY82K.s:616    .text.ddr_read:0000000000000154 .L46
     /tmp/ccDRY82K.s:791    .text.ddr_read_write_fn:0000000000000088 .L62
     /tmp/ccDRY82K.s:731    .text.ddr_read_write_fn:0000000000000024 .L63
     /tmp/ccDRY82K.s:886    .text.load_ddr_pattern:000000000000002a .L0 
     /tmp/ccDRY82K.s:950    .rodata.load_ddr_pattern:0000000000000000 .L73
     /tmp/ccDRY82K.s:888    .text.load_ddr_pattern:0000000000000032 .L0 
     /tmp/ccDRY82K.s:934    .text.load_ddr_pattern:0000000000000084 .L77
     /tmp/ccDRY82K.s:959    .text.load_ddr_pattern:0000000000000098 .L71
     /tmp/ccDRY82K.s:890    .text.load_ddr_pattern:000000000000003a .L70
     /tmp/ccDRY82K.s:966    .text.load_ddr_pattern:00000000000000a8 .L79
     /tmp/ccDRY82K.s:981    .text.load_ddr_pattern:00000000000000ba .L75
     /tmp/ccDRY82K.s:989    .text.load_ddr_pattern:00000000000000cc .L74
     /tmp/ccDRY82K.s:997    .text.load_ddr_pattern:00000000000000de .L72
     /tmp/ccDRY82K.s:1110   .text.test_ddr:0000000000000040 .L0 
     /tmp/ccDRY82K.s:1127   .text.test_ddr:0000000000000056 .L0 
     /tmp/ccDRY82K.s:1134   .text.test_ddr:0000000000000070 .L0 
     /tmp/ccDRY82K.s:1150   .text.test_ddr:000000000000009c .L0 
     /tmp/ccDRY82K.s:1151   .text.test_ddr:00000000000000a4 .L0 
     /tmp/ccDRY82K.s:1189   .text.test_ddr:00000000000000d6 .L88
     /tmp/ccDRY82K.s:1249   .text.test_ddr:0000000000000102 .L89
     /tmp/ccDRY82K.s:1225   .text.test_ddr:00000000000000f2 .L84
     /tmp/ccDRY82K.s:1112   .text.test_ddr:0000000000000048 .L82
     /tmp/ccDRY82K.s:1244   .text.test_ddr:00000000000000fe .L90
     /tmp/ccDRY82K.s:1171   .text.test_ddr:00000000000000c6 .L85
     /tmp/ccDRY82K.s:1192   .text.test_ddr:00000000000000d8 .L83
     /tmp/ccDRY82K.s:1288   .rodata.str1.8:0000000000000000 .LC2
     /tmp/ccDRY82K.s:1291   .rodata.str1.8:0000000000000008 .LC3
     /tmp/ccDRY82K.s:1294   .rodata.str1.8:0000000000000010 .LC4
     /tmp/ccDRY82K.s:69530  .debug_abbrev:0000000000000000 .Ldebug_abbrev0
     /tmp/ccDRY82K.s:74735  .debug_str:00000000000077f1 .LASF3658
     /tmp/ccDRY82K.s:77731  .debug_str:000000000000f6d6 .LASF3659
     /tmp/ccDRY82K.s:75337  .debug_str:000000000000927e .LASF3660
     /tmp/ccDRY82K.s:71793  .debug_ranges:0000000000000000 .Ldebug_ranges0
     /tmp/ccDRY82K.s:71833  .debug_line:0000000000000000 .Ldebug_line0
     /tmp/ccDRY82K.s:77671  .debug_str:000000000000f490 .LASF0
     /tmp/ccDRY82K.s:73249  .debug_str:0000000000003b1c .LASF3
     /tmp/ccDRY82K.s:75575  .debug_str:0000000000009b9d .LASF1
     /tmp/ccDRY82K.s:76747  .debug_str:000000000000cc22 .LASF2
     /tmp/ccDRY82K.s:74191  .debug_str:0000000000005ff8 .LASF4
     /tmp/ccDRY82K.s:75197  .debug_str:0000000000008bcf .LASF5
     /tmp/ccDRY82K.s:76077  .debug_str:000000000000ad61 .LASF6
     /tmp/ccDRY82K.s:79129  .debug_str:00000000000130b8 .LASF7
     /tmp/ccDRY82K.s:77035  .debug_str:000000000000d8e3 .LASF8
     /tmp/ccDRY82K.s:77815  .debug_str:000000000000fa73 .LASF9
     /tmp/ccDRY82K.s:71911  .debug_str:00000000000003db .LASF10
     /tmp/ccDRY82K.s:71843  .debug_str:000000000000006d .LASF11
     /tmp/ccDRY82K.s:72491  .debug_str:0000000000001a52 .LASF12
     /tmp/ccDRY82K.s:79085  .debug_str:0000000000012ed6 .LASF13
     /tmp/ccDRY82K.s:79121  .debug_str:0000000000013083 .LASF14
     /tmp/ccDRY82K.s:75309  .debug_str:0000000000009105 .LASF15
     /tmp/ccDRY82K.s:72007  .debug_str:00000000000007c8 .LASF16
     /tmp/ccDRY82K.s:75367  .debug_str:000000000000938b .LASF17
     /tmp/ccDRY82K.s:73083  .debug_str:0000000000003445 .LASF18
     /tmp/ccDRY82K.s:75573  .debug_str:0000000000009b95 .LASF19
     /tmp/ccDRY82K.s:75445  .debug_str:000000000000969d .LASF20
     /tmp/ccDRY82K.s:77749  .debug_str:000000000000f7a9 .LASF21
     /tmp/ccDRY82K.s:78441  .debug_str:0000000000011340 .LASF22
     /tmp/ccDRY82K.s:74525  .debug_str:0000000000006e25 .LASF23
     /tmp/ccDRY82K.s:76553  .debug_str:000000000000c380 .LASF24
     /tmp/ccDRY82K.s:72125  .debug_str:0000000000000c25 .LASF29
     /tmp/ccDRY82K.s:76095  .debug_str:000000000000ae1b .LASF25
     /tmp/ccDRY82K.s:72167  .debug_str:0000000000000da3 .LASF26
     /tmp/ccDRY82K.s:73309  .debug_str:0000000000003dba .LASF27
     /tmp/ccDRY82K.s:73667  .debug_str:0000000000004c29 .LASF28
     /tmp/ccDRY82K.s:73471  .debug_str:00000000000044d5 .LASF30
     /tmp/ccDRY82K.s:79013  .debug_str:0000000000012bfc .LASF31
     /tmp/ccDRY82K.s:77201  .debug_str:000000000000dff1 .LASF32
     /tmp/ccDRY82K.s:78617  .debug_str:0000000000011adf .LASF33
     /tmp/ccDRY82K.s:74275  .debug_str:0000000000006360 .LASF34
     /tmp/ccDRY82K.s:77545  .debug_str:000000000000eed2 .LASF35
     /tmp/ccDRY82K.s:75571  .debug_str:0000000000009b8b .LASF36
     /tmp/ccDRY82K.s:75699  .debug_str:0000000000009ff4 .LASF37
     /tmp/ccDRY82K.s:78813  .debug_str:00000000000122b8 .LASF38
     /tmp/ccDRY82K.s:72813  .debug_str:000000000000288c .LASF39
     /tmp/ccDRY82K.s:72403  .debug_str:0000000000001660 .LASF40
     /tmp/ccDRY82K.s:76437  .debug_str:000000000000bd79 .LASF41
     /tmp/ccDRY82K.s:78649  .debug_str:0000000000011c3e .LASF42
     /tmp/ccDRY82K.s:76521  .debug_str:000000000000c1c0 .LASF43
     /tmp/ccDRY82K.s:77695  .debug_str:000000000000f576 .LASF44
     /tmp/ccDRY82K.s:72965  .debug_str:0000000000002eea .LASF45
     /tmp/ccDRY82K.s:76723  .debug_str:000000000000cb56 .LASF46
     /tmp/ccDRY82K.s:71943  .debug_str:0000000000000516 .LASF47
     /tmp/ccDRY82K.s:73127  .debug_str:00000000000035df .LASF48
     /tmp/ccDRY82K.s:78191  .debug_str:0000000000010993 .LASF49
     /tmp/ccDRY82K.s:77047  .debug_str:000000000000d993 .LASF50
     /tmp/ccDRY82K.s:74565  .debug_str:0000000000007015 .LASF51
     /tmp/ccDRY82K.s:74997  .debug_str:00000000000083d7 .LASF52
     /tmp/ccDRY82K.s:73585  .debug_str:0000000000004924 .LASF53
     /tmp/ccDRY82K.s:78487  .debug_str:0000000000011562 .LASF54
     /tmp/ccDRY82K.s:73519  .debug_str:0000000000004700 .LASF55
     /tmp/ccDRY82K.s:72893  .debug_str:0000000000002bb1 .LASF56
     /tmp/ccDRY82K.s:74163  .debug_str:0000000000005ebe .LASF57
     /tmp/ccDRY82K.s:77589  .debug_str:000000000000f09e .LASF58
     /tmp/ccDRY82K.s:76703  .debug_str:000000000000caba .LASF59
     /tmp/ccDRY82K.s:73415  .debug_str:000000000000420a .LASF60
     /tmp/ccDRY82K.s:77145  .debug_str:000000000000dd69 .LASF61
     /tmp/ccDRY82K.s:76721  .debug_str:000000000000cb51 .LASF62
     /tmp/ccDRY82K.s:73597  .debug_str:00000000000049b7 .LASF63
     /tmp/ccDRY82K.s:73189  .debug_str:0000000000003852 .LASF64
     /tmp/ccDRY82K.s:73581  .debug_str:0000000000004905 .LASF65
     /tmp/ccDRY82K.s:77705  .debug_str:000000000000f5b8 .LASF66
     /tmp/ccDRY82K.s:74865  .debug_str:0000000000007e01 .LASF67
     /tmp/ccDRY82K.s:78761  .debug_str:000000000001209b .LASF68
     /tmp/ccDRY82K.s:73729  .debug_str:0000000000004dca .LASF69
     /tmp/ccDRY82K.s:78525  .debug_str:00000000000116aa .LASF70
     /tmp/ccDRY82K.s:72671  .debug_str:00000000000021c3 .LASF71
     /tmp/ccDRY82K.s:74623  .debug_str:000000000000728a .LASF72
     /tmp/ccDRY82K.s:73177  .debug_str:00000000000037c2 .LASF73
     /tmp/ccDRY82K.s:73883  .debug_str:0000000000005347 .LASF74
     /tmp/ccDRY82K.s:74329  .debug_str:00000000000065e7 .LASF75
     /tmp/ccDRY82K.s:73411  .debug_str:00000000000041f9 .LASF76
     /tmp/ccDRY82K.s:79107  .debug_str:0000000000013004 .LASF77
     /tmp/ccDRY82K.s:74873  .debug_str:0000000000007e4c .LASF78
     /tmp/ccDRY82K.s:72539  .debug_str:0000000000001c3c .LASF79
     /tmp/ccDRY82K.s:72393  .debug_str:00000000000015f8 .LASF80
     /tmp/ccDRY82K.s:73583  .debug_str:000000000000491e .LASF81
     /tmp/ccDRY82K.s:76759  .debug_str:000000000000ccb1 .LASF82
     /tmp/ccDRY82K.s:79151  .debug_str:0000000000013178 .LASF83
     /tmp/ccDRY82K.s:76017  .debug_str:000000000000ab65 .LASF84
     /tmp/ccDRY82K.s:78621  .debug_str:0000000000011b0a .LASF85
     /tmp/ccDRY82K.s:78407  .debug_str:00000000000111f0 .LASF86
     /tmp/ccDRY82K.s:79033  .debug_str:0000000000012c94 .LASF87
     /tmp/ccDRY82K.s:74187  .debug_str:0000000000005fe5 .LASF88
     /tmp/ccDRY82K.s:75069  .debug_str:00000000000086d6 .LASF89
     /tmp/ccDRY82K.s:75137  .debug_str:00000000000089ba .LASF90
     /tmp/ccDRY82K.s:74593  .debug_str:0000000000007142 .LASF91
     /tmp/ccDRY82K.s:78355  .debug_str:0000000000010fbc .LASF92
     /tmp/ccDRY82K.s:75413  .debug_str:0000000000009549 .LASF93
     /tmp/ccDRY82K.s:74391  .debug_str:00000000000068d4 .LASF94
     /tmp/ccDRY82K.s:78849  .debug_str:0000000000012459 .LASF95
     /tmp/ccDRY82K.s:73829  .debug_str:000000000000518a .LASF96
     /tmp/ccDRY82K.s:76369  .debug_str:000000000000ba91 .LASF97
     /tmp/ccDRY82K.s:79143  .debug_str:0000000000013134 .LASF98
     /tmp/ccDRY82K.s:75715  .debug_str:000000000000a0ab .LASF99
     /tmp/ccDRY82K.s:73233  .debug_str:0000000000003a5f .LASF100
     /tmp/ccDRY82K.s:76209  .debug_str:000000000000b2dd .LASF101
     /tmp/ccDRY82K.s:78003  .debug_str:0000000000010271 .LASF102
     /tmp/ccDRY82K.s:75585  .debug_str:0000000000009bed .LASF103
     /tmp/ccDRY82K.s:76315  .debug_str:000000000000b80f .LASF104
     /tmp/ccDRY82K.s:72663  .debug_str:000000000000217d .LASF105
     /tmp/ccDRY82K.s:72055  .debug_str:00000000000009be .LASF106
     /tmp/ccDRY82K.s:71923  .debug_str:0000000000000422 .LASF107
     /tmp/ccDRY82K.s:72651  .debug_str:0000000000002109 .LASF108
     /tmp/ccDRY82K.s:78069  .debug_str:00000000000104f2 .LASF109
     /tmp/ccDRY82K.s:74979  .debug_str:00000000000082fe .LASF110
     /tmp/ccDRY82K.s:73807  .debug_str:00000000000050b9 .LASF111
     /tmp/ccDRY82K.s:75429  .debug_str:00000000000095f2 .LASF112
     /tmp/ccDRY82K.s:77109  .debug_str:000000000000dc0f .LASF113
     /tmp/ccDRY82K.s:71979  .debug_str:0000000000000683 .LASF114
     /tmp/ccDRY82K.s:77673  .debug_str:000000000000f49c .LASF115
     /tmp/ccDRY82K.s:75549  .debug_str:0000000000009ac7 .LASF116
     /tmp/ccDRY82K.s:74237  .debug_str:0000000000006204 .LASF117
     /tmp/ccDRY82K.s:77767  .debug_str:000000000000f87b .LASF118
     /tmp/ccDRY82K.s:77227  .debug_str:000000000000e0ba .LASF119
     /tmp/ccDRY82K.s:72791  .debug_str:00000000000027b5 .LASF3661
     /tmp/ccDRY82K.s:74185  .debug_str:0000000000005fd5 .LASF120
     /tmp/ccDRY82K.s:72863  .debug_str:0000000000002a73 .LASF121
     /tmp/ccDRY82K.s:76577  .debug_str:000000000000c458 .LASF122
     /tmp/ccDRY82K.s:78597  .debug_str:00000000000119d0 .LASF123
     /tmp/ccDRY82K.s:74225  .debug_str:000000000000618c .LASF124
     /tmp/ccDRY82K.s:78001  .debug_str:0000000000010262 .LASF125
     /tmp/ccDRY82K.s:75391  .debug_str:0000000000009464 .LASF126
     /tmp/ccDRY82K.s:77941  .debug_str:00000000000100aa .LASF127
     /tmp/ccDRY82K.s:72413  .debug_str:00000000000016b4 .LASF128
     /tmp/ccDRY82K.s:74289  .debug_str:0000000000006434 .LASF129
     /tmp/ccDRY82K.s:77859  .debug_str:000000000000fcb7 .LASF130
     /tmp/ccDRY82K.s:74823  .debug_str:0000000000007c3a .LASF131
     /tmp/ccDRY82K.s:75593  .debug_str:0000000000009c3f .LASF132
     /tmp/ccDRY82K.s:77197  .debug_str:000000000000dfa2 .LASF133
     /tmp/ccDRY82K.s:78085  .debug_str:0000000000010599 .LASF134
     /tmp/ccDRY82K.s:71839  .debug_str:0000000000000034 .LASF135
     /tmp/ccDRY82K.s:73221  .debug_str:00000000000039ac .LASF136
     /tmp/ccDRY82K.s:74773  .debug_str:0000000000007a10 .LASF137
     /tmp/ccDRY82K.s:71879  .debug_str:0000000000000233 .LASF138
     /tmp/ccDRY82K.s:74111  .debug_str:0000000000005c45 .LASF139
     /tmp/ccDRY82K.s:73681  .debug_str:0000000000004cc9 .LASF140
     /tmp/ccDRY82K.s:77037  .debug_str:000000000000d8ec .LASF141
     /tmp/ccDRY82K.s:79019  .debug_str:0000000000012c26 .LASF142
     /tmp/ccDRY82K.s:74291  .debug_str:000000000000643d .LASF143
     /tmp/ccDRY82K.s:73587  .debug_str:000000000000492b .LASF144
     /tmp/ccDRY82K.s:75819  .debug_str:000000000000a428 .LASF145
     /tmp/ccDRY82K.s:73129  .debug_str:00000000000035f1 .LASF146
     /tmp/ccDRY82K.s:75875  .debug_str:000000000000a621 .LASF147
     /tmp/ccDRY82K.s:74635  .debug_str:0000000000007323 .LASF148
     /tmp/ccDRY82K.s:74767  .debug_str:00000000000079cb .LASF149
     /tmp/ccDRY82K.s:78853  .debug_str:000000000001247a .LASF150
     /tmp/ccDRY82K.s:71865  .debug_str:000000000000018c .LASF151
     /tmp/ccDRY82K.s:73501  .debug_str:0000000000004602 .LASF152
     /tmp/ccDRY82K.s:76625  .debug_str:000000000000c690 .LASF153
     /tmp/ccDRY82K.s:77615  .debug_str:000000000000f1ba .LASF154
     /tmp/ccDRY82K.s:73837  .debug_str:00000000000051ac .LASF155
     /tmp/ccDRY82K.s:74395  .debug_str:00000000000068e8 .LASF156
     /tmp/ccDRY82K.s:75005  .debug_str:000000000000842f .LASF157
     /tmp/ccDRY82K.s:77571  .debug_str:000000000000efc0 .LASF158
     /tmp/ccDRY82K.s:74659  .debug_str:0000000000007473 .LASF159
     /tmp/ccDRY82K.s:75773  .debug_str:000000000000a2b6 .LASF160
     /tmp/ccDRY82K.s:76139  .debug_str:000000000000aff8 .LASF161
     /tmp/ccDRY82K.s:78405  .debug_str:00000000000111d8 .LASF162
     /tmp/ccDRY82K.s:76531  .debug_str:000000000000c200 .LASF163
     /tmp/ccDRY82K.s:75767  .debug_str:000000000000a26c .LASF164
     /tmp/ccDRY82K.s:76729  .debug_str:000000000000cb78 .LASF165
     /tmp/ccDRY82K.s:74193  .debug_str:0000000000006003 .LASF166
     /tmp/ccDRY82K.s:73447  .debug_str:000000000000438f .LASF167
     /tmp/ccDRY82K.s:74149  .debug_str:0000000000005e25 .LASF168
     /tmp/ccDRY82K.s:78867  .debug_str:000000000001254e .LASF169
     /tmp/ccDRY82K.s:73761  .debug_str:0000000000004f3a .LASF170
     /tmp/ccDRY82K.s:74887  .debug_str:0000000000007f25 .LASF171
     /tmp/ccDRY82K.s:76405  .debug_str:000000000000bbd8 .LASF172
     /tmp/ccDRY82K.s:78951  .debug_str:000000000001295e .LASF173
     /tmp/ccDRY82K.s:72199  .debug_str:0000000000000eab .LASF174
     /tmp/ccDRY82K.s:74483  .debug_str:0000000000006c51 .LASF175
     /tmp/ccDRY82K.s:75169  .debug_str:0000000000008ac1 .LASF176
     /tmp/ccDRY82K.s:78631  .debug_str:0000000000011b6b .LASF177
     /tmp/ccDRY82K.s:77667  .debug_str:000000000000f45d .LASF178
     /tmp/ccDRY82K.s:78795  .debug_str:00000000000121e6 .LASF179
     /tmp/ccDRY82K.s:74349  .debug_str:00000000000066a7 .LASF180
     /tmp/ccDRY82K.s:74369  .debug_str:00000000000067bd .LASF181
     /tmp/ccDRY82K.s:78851  .debug_str:0000000000012460 .LASF182
     /tmp/ccDRY82K.s:75643  .debug_str:0000000000009e40 .LASF183
     /tmp/ccDRY82K.s:77679  .debug_str:000000000000f4e0 .LASF184
     /tmp/ccDRY82K.s:77057  .debug_str:000000000000da06 .LASF185
     /tmp/ccDRY82K.s:77463  .debug_str:000000000000eb2c .LASF186
     /tmp/ccDRY82K.s:77573  .debug_str:000000000000efff .LASF187
     /tmp/ccDRY82K.s:74611  .debug_str:00000000000071ff .LASF188
     /tmp/ccDRY82K.s:73889  .debug_str:0000000000005397 .LASF189
     /tmp/ccDRY82K.s:72779  .debug_str:00000000000026e1 .LASF190
     /tmp/ccDRY82K.s:72743  .debug_str:00000000000024be .LASF191
     /tmp/ccDRY82K.s:72615  .debug_str:0000000000001f49 .LASF192
     /tmp/ccDRY82K.s:78809  .debug_str:0000000000012278 .LASF193
     /tmp/ccDRY82K.s:76243  .debug_str:000000000000b466 .LASF194
     /tmp/ccDRY82K.s:77911  .debug_str:000000000000ff53 .LASF195
     /tmp/ccDRY82K.s:71981  .debug_str:0000000000000690 .LASF196
     /tmp/ccDRY82K.s:73901  .debug_str:00000000000053f2 .LASF197
     /tmp/ccDRY82K.s:75957  .debug_str:000000000000a976 .LASF198
     /tmp/ccDRY82K.s:79071  .debug_str:0000000000012e06 .LASF199
     /tmp/ccDRY82K.s:78745  .debug_str:0000000000011fda .LASF200
     /tmp/ccDRY82K.s:74105  .debug_str:0000000000005c05 .LASF201
     /tmp/ccDRY82K.s:78147  .debug_str:0000000000010829 .LASF202
     /tmp/ccDRY82K.s:76637  .debug_str:000000000000c701 .LASF203
     /tmp/ccDRY82K.s:77379  .debug_str:000000000000e812 .LASF204
     /tmp/ccDRY82K.s:76547  .debug_str:000000000000c2f9 .LASF205
     /tmp/ccDRY82K.s:76431  .debug_str:000000000000bd27 .LASF206
     /tmp/ccDRY82K.s:76655  .debug_str:000000000000c7eb .LASF207
     /tmp/ccDRY82K.s:78201  .debug_str:00000000000109dd .LASF208
     /tmp/ccDRY82K.s:77919  .debug_str:000000000000ffa2 .LASF209
     /tmp/ccDRY82K.s:76873  .debug_str:000000000000d1ba .LASF210
     /tmp/ccDRY82K.s:77279  .debug_str:000000000000e33c .LASF211
     /tmp/ccDRY82K.s:78019  .debug_str:000000000001031b .LASF212
     /tmp/ccDRY82K.s:76441  .debug_str:000000000000bd95 .LASF213
     /tmp/ccDRY82K.s:74661  .debug_str:000000000000749b .LASF214
     /tmp/ccDRY82K.s:75681  .debug_str:0000000000009f7a .LASF215
     /tmp/ccDRY82K.s:78891  .debug_str:0000000000012679 .LASF216
     /tmp/ccDRY82K.s:72135  .debug_str:0000000000000c49 .LASF217
     /tmp/ccDRY82K.s:72773  .debug_str:0000000000002676 .LASF218
     /tmp/ccDRY82K.s:75887  .debug_str:000000000000a6e8 .LASF219
     /tmp/ccDRY82K.s:78943  .debug_str:0000000000012902 .LASF220
     /tmp/ccDRY82K.s:76239  .debug_str:000000000000b40c .LASF221
     /tmp/ccDRY82K.s:76125  .debug_str:000000000000af54 .LASF222
     /tmp/ccDRY82K.s:74055  .debug_str:0000000000005a47 .LASF223
     /tmp/ccDRY82K.s:77621  .debug_str:000000000000f215 .LASF224
     /tmp/ccDRY82K.s:78693  .debug_str:0000000000011dbd .LASF225
     /tmp/ccDRY82K.s:76869  .debug_str:000000000000d189 .LASF226
     /tmp/ccDRY82K.s:74641  .debug_str:0000000000007382 .LASF227
     /tmp/ccDRY82K.s:76337  .debug_str:000000000000b905 .LASF228
     /tmp/ccDRY82K.s:77009  .debug_str:000000000000d785 .LASF229
     /tmp/ccDRY82K.s:74039  .debug_str:000000000000594a .LASF230
     /tmp/ccDRY82K.s:72173  .debug_str:0000000000000df0 .LASF231
     /tmp/ccDRY82K.s:73261  .debug_str:0000000000003bad .LASF232
     /tmp/ccDRY82K.s:75475  .debug_str:00000000000097c3 .LASF233
     /tmp/ccDRY82K.s:76301  .debug_str:000000000000b741 .LASF234
     /tmp/ccDRY82K.s:73305  .debug_str:0000000000003d75 .LASF235
     /tmp/ccDRY82K.s:75661  .debug_str:0000000000009ef9 .LASF236
     /tmp/ccDRY82K.s:76665  .debug_str:000000000000c8a6 .LASF237
     /tmp/ccDRY82K.s:76685  .debug_str:000000000000c9a0 .LASF238
     /tmp/ccDRY82K.s:73653  .debug_str:0000000000004ba1 .LASF239
     /tmp/ccDRY82K.s:74951  .debug_str:00000000000081cf .LASF240
     /tmp/ccDRY82K.s:73655  .debug_str:0000000000004bad .LASF241
     /tmp/ccDRY82K.s:78207  .debug_str:0000000000010a15 .LASF242
     /tmp/ccDRY82K.s:76093  .debug_str:000000000000ae08 .LASF243
     /tmp/ccDRY82K.s:75153  .debug_str:0000000000008a3d .LASF244
     /tmp/ccDRY82K.s:76689  .debug_str:000000000000c9db .LASF245
     /tmp/ccDRY82K.s:72929  .debug_str:0000000000002d40 .LASF246
     /tmp/ccDRY82K.s:73533  .debug_str:0000000000004774 .LASF247
     /tmp/ccDRY82K.s:75331  .debug_str:0000000000009249 .LASF248
     /tmp/ccDRY82K.s:72795  .debug_str:00000000000027d1 .LASF249
     /tmp/ccDRY82K.s:73283  .debug_str:0000000000003c75 .LASF250
     /tmp/ccDRY82K.s:77659  .debug_str:000000000000f411 .LASF251
     /tmp/ccDRY82K.s:77441  .debug_str:000000000000ea9c .LASF252
     /tmp/ccDRY82K.s:73773  .debug_str:0000000000004fe1 .LASF253
     /tmp/ccDRY82K.s:72775  .debug_str:00000000000026b9 .LASF254
     /tmp/ccDRY82K.s:77779  .debug_str:000000000000f8f8 .LASF255
     /tmp/ccDRY82K.s:71917  .debug_str:00000000000003fb .LASF256
     /tmp/ccDRY82K.s:75603  .debug_str:0000000000009cd4 .LASF257
     /tmp/ccDRY82K.s:78639  .debug_str:0000000000011be5 .LASF258
     /tmp/ccDRY82K.s:75227  .debug_str:0000000000008d75 .LASF259
     /tmp/ccDRY82K.s:76639  .debug_str:000000000000c72e .LASF260
     /tmp/ccDRY82K.s:78195  .debug_str:00000000000109a6 .LASF261
     /tmp/ccDRY82K.s:72699  .debug_str:00000000000022f9 .LASF262
     /tmp/ccDRY82K.s:73015  .debug_str:0000000000003113 .LASF263
     /tmp/ccDRY82K.s:76005  .debug_str:000000000000aac7 .LASF264
     /tmp/ccDRY82K.s:74721  .debug_str:0000000000007771 .LASF265
     /tmp/ccDRY82K.s:75295  .debug_str:0000000000009072 .LASF266
     /tmp/ccDRY82K.s:72327  .debug_str:00000000000013b8 .LASF267
     /tmp/ccDRY82K.s:75165  .debug_str:0000000000008aa6 .LASF268
     /tmp/ccDRY82K.s:72511  .debug_str:0000000000001b0a .LASF269
     /tmp/ccDRY82K.s:72513  .debug_str:0000000000001b19 .LASF270
     /tmp/ccDRY82K.s:78921  .debug_str:00000000000127fe .LASF271
     /tmp/ccDRY82K.s:72851  .debug_str:0000000000002a0a .LASF272
     /tmp/ccDRY82K.s:78917  .debug_str:00000000000127d9 .LASF273
     /tmp/ccDRY82K.s:73711  .debug_str:0000000000004d50 .LASF274
     /tmp/ccDRY82K.s:75397  .debug_str:0000000000009484 .LASF275
     /tmp/ccDRY82K.s:72057  .debug_str:00000000000009c3 .LASF276
     /tmp/ccDRY82K.s:76065  .debug_str:000000000000acde .LASF277
     /tmp/ccDRY82K.s:72489  .debug_str:0000000000001a3f .LASF278
     /tmp/ccDRY82K.s:78529  .debug_str:00000000000116d3 .LASF279
     /tmp/ccDRY82K.s:77795  .debug_str:000000000000f9a9 .LASF280
     /tmp/ccDRY82K.s:73713  .debug_str:0000000000004d5a .LASF281
     /tmp/ccDRY82K.s:77241  .debug_str:000000000000e175 .LASF282
     /tmp/ccDRY82K.s:73045  .debug_str:0000000000003242 .LASF283
     /tmp/ccDRY82K.s:75695  .debug_str:0000000000009fdb .LASF284
     /tmp/ccDRY82K.s:77445  .debug_str:000000000000eab4 .LASF285
     /tmp/ccDRY82K.s:79067  .debug_str:0000000000012de8 .LASF286
     /tmp/ccDRY82K.s:76749  .debug_str:000000000000cc2c .LASF287
     /tmp/ccDRY82K.s:76809  .debug_str:000000000000cebb .LASF288
     /tmp/ccDRY82K.s:76217  .debug_str:000000000000b32b .LASF289
     /tmp/ccDRY82K.s:74315  .debug_str:000000000000655d .LASF290
     /tmp/ccDRY82K.s:74231  .debug_str:00000000000061c6 .LASF291
     /tmp/ccDRY82K.s:77409  .debug_str:000000000000e944 .LASF292
     /tmp/ccDRY82K.s:77569  .debug_str:000000000000efb3 .LASF293
     /tmp/ccDRY82K.s:73235  .debug_str:0000000000003a64 .LASF294
     /tmp/ccDRY82K.s:78555  .debug_str:00000000000117dd .LASF295
     /tmp/ccDRY82K.s:78099  .debug_str:000000000001064b .LASF296
     /tmp/ccDRY82K.s:74453  .debug_str:0000000000006b82 .LASF297
     /tmp/ccDRY82K.s:72831  .debug_str:000000000000294e .LASF298
     /tmp/ccDRY82K.s:72337  .debug_str:000000000000143a .LASF299
     /tmp/ccDRY82K.s:78033  .debug_str:00000000000103de .LASF300
     /tmp/ccDRY82K.s:73525  .debug_str:0000000000004745 .LASF301
     /tmp/ccDRY82K.s:73919  .debug_str:00000000000054b5 .LASF302
     /tmp/ccDRY82K.s:75171  .debug_str:0000000000008ada .LASF303
     /tmp/ccDRY82K.s:74841  .debug_str:0000000000007d32 .LASF304
     /tmp/ccDRY82K.s:73515  .debug_str:00000000000046e9 .LASF305
     /tmp/ccDRY82K.s:78743  .debug_str:0000000000011fcc .LASF306
     /tmp/ccDRY82K.s:74769  .debug_str:00000000000079e6 .LASF307
     /tmp/ccDRY82K.s:72323  .debug_str:000000000000139b .LASF308
     /tmp/ccDRY82K.s:78035  .debug_str:00000000000103e8 .LASF309
     /tmp/ccDRY82K.s:73107  .debug_str:000000000000350c .LASF310
     /tmp/ccDRY82K.s:74417  .debug_str:0000000000006a0f .LASF311
     /tmp/ccDRY82K.s:76279  .debug_str:000000000000b5fb .LASF312
     /tmp/ccDRY82K.s:76067  .debug_str:000000000000acec .LASF313
     /tmp/ccDRY82K.s:73677  .debug_str:0000000000004c9f .LASF314
     /tmp/ccDRY82K.s:76763  .debug_str:000000000000ccca .LASF315
     /tmp/ccDRY82K.s:78037  .debug_str:00000000000103f2 .LASF316
     /tmp/ccDRY82K.s:74371  .debug_str:00000000000067e3 .LASF317
     /tmp/ccDRY82K.s:78039  .debug_str:00000000000103fc .LASF318
     /tmp/ccDRY82K.s:78041  .debug_str:0000000000010406 .LASF319
     /tmp/ccDRY82K.s:78043  .debug_str:0000000000010410 .LASF320
     /tmp/ccDRY82K.s:77789  .debug_str:000000000000f973 .LASF321
     /tmp/ccDRY82K.s:73051  .debug_str:0000000000003298 .LASF322
     /tmp/ccDRY82K.s:74781  .debug_str:0000000000007a71 .LASF323
     /tmp/ccDRY82K.s:76999  .debug_str:000000000000d724 .LASF324
     /tmp/ccDRY82K.s:78045  .debug_str:000000000001041a .LASF325
     /tmp/ccDRY82K.s:78047  .debug_str:0000000000010424 .LASF326
     /tmp/ccDRY82K.s:75267  .debug_str:0000000000008f42 .LASF327
     /tmp/ccDRY82K.s:78781  .debug_str:000000000001214f .LASF328
     /tmp/ccDRY82K.s:74457  .debug_str:0000000000006b9c .LASF329
     /tmp/ccDRY82K.s:73557  .debug_str:0000000000004820 .LASF330
     /tmp/ccDRY82K.s:78049  .debug_str:000000000001042e .LASF331
     /tmp/ccDRY82K.s:74117  .debug_str:0000000000005ca8 .LASF332
     /tmp/ccDRY82K.s:78051  .debug_str:0000000000010438 .LASF333
     /tmp/ccDRY82K.s:73779  .debug_str:0000000000005017 .LASF334
     /tmp/ccDRY82K.s:72949  .debug_str:0000000000002e5d .LASF335
     /tmp/ccDRY82K.s:78101  .debug_str:0000000000010659 .LASF336
     /tmp/ccDRY82K.s:71989  .debug_str:0000000000000715 .LASF337
     /tmp/ccDRY82K.s:78103  .debug_str:0000000000010663 .LASF338
     /tmp/ccDRY82K.s:75531  .debug_str:0000000000009a51 .LASF339
     /tmp/ccDRY82K.s:75547  .debug_str:0000000000009a9c .LASF340
     /tmp/ccDRY82K.s:73105  .debug_str:0000000000003501 .LASF341
     /tmp/ccDRY82K.s:72399  .debug_str:0000000000001648 .LASF342
     /tmp/ccDRY82K.s:78105  .debug_str:000000000001066d .LASF343
     /tmp/ccDRY82K.s:77313  .debug_str:000000000000e4bf .LASF344
     /tmp/ccDRY82K.s:78107  .debug_str:0000000000010677 .LASF345
     /tmp/ccDRY82K.s:72535  .debug_str:0000000000001c1f .LASF346
     /tmp/ccDRY82K.s:79021  .debug_str:0000000000012c4c .LASF347
     /tmp/ccDRY82K.s:78109  .debug_str:0000000000010681 .LASF348
     /tmp/ccDRY82K.s:75281  .debug_str:0000000000008fdb .LASF349
     /tmp/ccDRY82K.s:74433  .debug_str:0000000000006ab8 .LASF350
     /tmp/ccDRY82K.s:76757  .debug_str:000000000000cca0 .LASF351
     /tmp/ccDRY82K.s:77217  .debug_str:000000000000e05f .LASF352
     /tmp/ccDRY82K.s:78031  .debug_str:00000000000103d6 .LASF353
     /tmp/ccDRY82K.s:77535  .debug_str:000000000000ee7a .LASF354
     /tmp/ccDRY82K.s:78111  .debug_str:000000000001068b .LASF355
     /tmp/ccDRY82K.s:76751  .debug_str:000000000000cc3d .LASF356
     /tmp/ccDRY82K.s:78113  .debug_str:0000000000010695 .LASF357
     /tmp/ccDRY82K.s:78279  .debug_str:0000000000010cef .LASF358
     /tmp/ccDRY82K.s:76837  .debug_str:000000000000d028 .LASF359
     /tmp/ccDRY82K.s:78115  .debug_str:000000000001069f .LASF360
     /tmp/ccDRY82K.s:76155  .debug_str:000000000000b0e0 .LASF361
     /tmp/ccDRY82K.s:73999  .debug_str:00000000000057fa .LASF362
     /tmp/ccDRY82K.s:74295  .debug_str:0000000000006464 .LASF363
     /tmp/ccDRY82K.s:76341  .debug_str:000000000000b93a .LASF364
     /tmp/ccDRY82K.s:78265  .debug_str:0000000000010c71 .LASF365
     /tmp/ccDRY82K.s:78117  .debug_str:00000000000106a9 .LASF366
     /tmp/ccDRY82K.s:77963  .debug_str:0000000000010161 .LASF367
     /tmp/ccDRY82K.s:78119  .debug_str:00000000000106b3 .LASF368
     /tmp/ccDRY82K.s:78901  .debug_str:0000000000012733 .LASF369
     /tmp/ccDRY82K.s:78159  .debug_str:00000000000108de .LASF370
     /tmp/ccDRY82K.s:79133  .debug_str:00000000000130d6 .LASF371
     /tmp/ccDRY82K.s:76461  .debug_str:000000000000bec9 .LASF372
     /tmp/ccDRY82K.s:76473  .debug_str:000000000000bf81 .LASF373
     /tmp/ccDRY82K.s:73477  .debug_str:0000000000004509 .LASF374
     /tmp/ccDRY82K.s:77595  .debug_str:000000000000f0e6 .LASF375
     /tmp/ccDRY82K.s:73179  .debug_str:00000000000037cf .LASF376
     /tmp/ccDRY82K.s:76325  .debug_str:000000000000b88a .LASF377
     /tmp/ccDRY82K.s:71845  .debug_str:000000000000007b .LASF378
     /tmp/ccDRY82K.s:73009  .debug_str:00000000000030ef .LASF379
     /tmp/ccDRY82K.s:78161  .debug_str:00000000000108e8 .LASF380
     /tmp/ccDRY82K.s:78705  .debug_str:0000000000011e37 .LASF381
     /tmp/ccDRY82K.s:74165  .debug_str:0000000000005ec5 .LASF382
     /tmp/ccDRY82K.s:73273  .debug_str:0000000000003c23 .LASF383
     /tmp/ccDRY82K.s:77515  .debug_str:000000000000ed98 .LASF384
     /tmp/ccDRY82K.s:77967  .debug_str:000000000001017f .LASF385
     /tmp/ccDRY82K.s:76565  .debug_str:000000000000c3e0 .LASF386
     /tmp/ccDRY82K.s:73445  .debug_str:0000000000004365 .LASF387
     /tmp/ccDRY82K.s:77687  .debug_str:000000000000f51a .LASF388
     /tmp/ccDRY82K.s:77067  .debug_str:000000000000da8c .LASF389
     /tmp/ccDRY82K.s:72653  .debug_str:0000000000002115 .LASF390
     /tmp/ccDRY82K.s:77969  .debug_str:0000000000010189 .LASF391
     /tmp/ccDRY82K.s:78819  .debug_str:0000000000012308 .LASF392
     /tmp/ccDRY82K.s:74377  .debug_str:0000000000006843 .LASF393
     /tmp/ccDRY82K.s:75345  .debug_str:00000000000092f3 .LASF394
     /tmp/ccDRY82K.s:73871  .debug_str:00000000000052f0 .LASF395
     /tmp/ccDRY82K.s:77971  .debug_str:0000000000010193 .LASF396
     /tmp/ccDRY82K.s:73703  .debug_str:0000000000004d1c .LASF397
     /tmp/ccDRY82K.s:75219  .debug_str:0000000000008ce9 .LASF398
     /tmp/ccDRY82K.s:76085  .debug_str:000000000000ada9 .LASF399
     /tmp/ccDRY82K.s:74495  .debug_str:0000000000006cf9 .LASF400
     /tmp/ccDRY82K.s:73413  .debug_str:00000000000041fe .LASF401
     /tmp/ccDRY82K.s:76223  .debug_str:000000000000b393 .LASF402
     /tmp/ccDRY82K.s:78837  .debug_str:00000000000123cf .LASF403
     /tmp/ccDRY82K.s:78157  .debug_str:00000000000108d3 .LASF404
     /tmp/ccDRY82K.s:77973  .debug_str:000000000001019d .LASF405
     /tmp/ccDRY82K.s:77975  .debug_str:00000000000101a7 .LASF406
     /tmp/ccDRY82K.s:76157  .debug_str:000000000000b0ef .LASF407
     /tmp/ccDRY82K.s:76113  .debug_str:000000000000ae9f .LASF408
     /tmp/ccDRY82K.s:72479  .debug_str:00000000000019e6 .LASF409
     /tmp/ccDRY82K.s:72371  .debug_str:0000000000001503 .LASF410
     /tmp/ccDRY82K.s:72431  .debug_str:0000000000001781 .LASF411
     /tmp/ccDRY82K.s:76813  .debug_str:000000000000ceda .LASF412
     /tmp/ccDRY82K.s:74137  .debug_str:0000000000005d9a .LASF413
     /tmp/ccDRY82K.s:72639  .debug_str:000000000000206d .LASF414
     /tmp/ccDRY82K.s:78165  .debug_str:000000000001090a .LASF415
     /tmp/ccDRY82K.s:78985  .debug_str:0000000000012ac4 .LASF416
     /tmp/ccDRY82K.s:73067  .debug_str:0000000000003386 .LASF417
     /tmp/ccDRY82K.s:75461  .debug_str:000000000000978a .LASF418
     /tmp/ccDRY82K.s:76343  .debug_str:000000000000b946 .LASF419
     /tmp/ccDRY82K.s:79083  .debug_str:0000000000012ec5 .LASF420
     /tmp/ccDRY82K.s:77073  .debug_str:000000000000daac .LASF421
     /tmp/ccDRY82K.s:74619  .debug_str:000000000000725a .LASF422
     /tmp/ccDRY82K.s:76257  .debug_str:000000000000b509 .LASF423
     /tmp/ccDRY82K.s:74527  .debug_str:0000000000006e37 .LASF424
     /tmp/ccDRY82K.s:72533  .debug_str:0000000000001bf3 .LASF425
     /tmp/ccDRY82K.s:71849  .debug_str:00000000000000b7 .LASF426
     /tmp/ccDRY82K.s:78821  .debug_str:0000000000012318 .LASF427
     /tmp/ccDRY82K.s:77835  .debug_str:000000000000fb81 .LASF428
     /tmp/ccDRY82K.s:76823  .debug_str:000000000000cf4f .LASF429
     /tmp/ccDRY82K.s:75031  .debug_str:0000000000008549 .LASF430
     /tmp/ccDRY82K.s:74521  .debug_str:0000000000006de0 .LASF431
     /tmp/ccDRY82K.s:73119  .debug_str:0000000000003575 .LASF432
     /tmp/ccDRY82K.s:78811  .debug_str:000000000001228e .LASF433
     /tmp/ccDRY82K.s:73117  .debug_str:0000000000003564 .LASF434
     /tmp/ccDRY82K.s:73455  .debug_str:000000000000440d .LASF435
     /tmp/ccDRY82K.s:72541  .debug_str:0000000000001c44 .LASF436
     /tmp/ccDRY82K.s:78431  .debug_str:00000000000112d7 .LASF437
     /tmp/ccDRY82K.s:71891  .debug_str:00000000000002dc .LASF438
     /tmp/ccDRY82K.s:76023  .debug_str:000000000000aba6 .LASF439
     /tmp/ccDRY82K.s:78645  .debug_str:0000000000011c15 .LASF440
     /tmp/ccDRY82K.s:73419  .debug_str:0000000000004233 .LASF441
     /tmp/ccDRY82K.s:73923  .debug_str:00000000000054d3 .LASF442
     /tmp/ccDRY82K.s:73607  .debug_str:0000000000004a04 .LASF443
     /tmp/ccDRY82K.s:74671  .debug_str:0000000000007519 .LASF444
     /tmp/ccDRY82K.s:75403  .debug_str:00000000000094c0 .LASF445
     /tmp/ccDRY82K.s:72683  .debug_str:0000000000002273 .LASF446
     /tmp/ccDRY82K.s:78563  .debug_str:0000000000011837 .LASF447
     /tmp/ccDRY82K.s:76803  .debug_str:000000000000ce7f .LASF448
     /tmp/ccDRY82K.s:77635  .debug_str:000000000000f2e8 .LASF449
     /tmp/ccDRY82K.s:72417  .debug_str:00000000000016d5 .LASF450
     /tmp/ccDRY82K.s:78535  .debug_str:0000000000011708 .LASF451
     /tmp/ccDRY82K.s:79141  .debug_str:0000000000013128 .LASF452
     /tmp/ccDRY82K.s:79003  .debug_str:0000000000012b97 .LASF453
     /tmp/ccDRY82K.s:76303  .debug_str:000000000000b767 .LASF454
     /tmp/ccDRY82K.s:79155  .debug_str:00000000000131aa .LASF455
     /tmp/ccDRY82K.s:73615  .debug_str:0000000000004a26 .LASF456
     /tmp/ccDRY82K.s:76313  .debug_str:000000000000b801 .LASF457
     /tmp/ccDRY82K.s:74719  .debug_str:0000000000007768 .LASF458
     /tmp/ccDRY82K.s:77433  .debug_str:000000000000ea3f .LASF459
     /tmp/ccDRY82K.s:77561  .debug_str:000000000000ef76 .LASF460
     /tmp/ccDRY82K.s:78583  .debug_str:0000000000011925 .LASF461
     /tmp/ccDRY82K.s:71957  .debug_str:000000000000059c .LASF462
     /tmp/ccDRY82K.s:75067  .debug_str:00000000000086b0 .LASF463
     /tmp/ccDRY82K.s:74973  .debug_str:00000000000082b8 .LASF464
     /tmp/ccDRY82K.s:75427  .debug_str:00000000000095de .LASF465
     /tmp/ccDRY82K.s:75779  .debug_str:000000000000a31a .LASF466
     /tmp/ccDRY82K.s:75607  .debug_str:0000000000009ce6 .LASF467
     /tmp/ccDRY82K.s:76359  .debug_str:000000000000ba36 .LASF468
     /tmp/ccDRY82K.s:74577  .debug_str:000000000000709e .LASF469
     /tmp/ccDRY82K.s:77799  .debug_str:000000000000f9ce .LASF470
     /tmp/ccDRY82K.s:75669  .debug_str:0000000000009f44 .LASF471
     /tmp/ccDRY82K.s:75319  .debug_str:000000000000919f .LASF472
     /tmp/ccDRY82K.s:78667  .debug_str:0000000000011ce2 .LASF473
     /tmp/ccDRY82K.s:76489  .debug_str:000000000000c049 .LASF474
     /tmp/ccDRY82K.s:77369  .debug_str:000000000000e78c .LASF475
     /tmp/ccDRY82K.s:72557  .debug_str:0000000000001ce0 .LASF476
     /tmp/ccDRY82K.s:74129  .debug_str:0000000000005d32 .LASF477
     /tmp/ccDRY82K.s:74023  .debug_str:00000000000058a3 .LASF478
     /tmp/ccDRY82K.s:76849  .debug_str:000000000000d090 .LASF479
     /tmp/ccDRY82K.s:77599  .debug_str:000000000000f124 .LASF480
     /tmp/ccDRY82K.s:75369  .debug_str:0000000000009391 .LASF481
     /tmp/ccDRY82K.s:72177  .debug_str:0000000000000e28 .LASF482
     /tmp/ccDRY82K.s:73333  .debug_str:0000000000003f04 .LASF483
     /tmp/ccDRY82K.s:78755  .debug_str:0000000000012057 .LASF484
     /tmp/ccDRY82K.s:78753  .debug_str:0000000000012047 .LASF485
     /tmp/ccDRY82K.s:75277  .debug_str:0000000000008faa .LASF486
     /tmp/ccDRY82K.s:78697  .debug_str:0000000000011df7 .LASF487
     /tmp/ccDRY82K.s:74801  .debug_str:0000000000007b6c .LASF488
     /tmp/ccDRY82K.s:74779  .debug_str:0000000000007a64 .LASF489
     /tmp/ccDRY82K.s:76427  .debug_str:000000000000bcee .LASF490
     /tmp/ccDRY82K.s:75007  .debug_str:000000000000844a .LASF491
     /tmp/ccDRY82K.s:72179  .debug_str:0000000000000e31 .LASF492
     /tmp/ccDRY82K.s:76471  .debug_str:000000000000bf5e .LASF493
     /tmp/ccDRY82K.s:73429  .debug_str:00000000000042b8 .LASF494
     /tmp/ccDRY82K.s:78569  .debug_str:0000000000011898 .LASF495
     /tmp/ccDRY82K.s:73251  .debug_str:0000000000003b26 .LASF496
     /tmp/ccDRY82K.s:77669  .debug_str:000000000000f482 .LASF497
     /tmp/ccDRY82K.s:75983  .debug_str:000000000000aa28 .LASF498
     /tmp/ccDRY82K.s:72181  .debug_str:0000000000000e3a .LASF499
     /tmp/ccDRY82K.s:72003  .debug_str:000000000000079b .LASF500
     /tmp/ccDRY82K.s:73645  .debug_str:0000000000004b78 .LASF501
     /tmp/ccDRY82K.s:76179  .debug_str:000000000000b19b .LASF502
     /tmp/ccDRY82K.s:74975  .debug_str:00000000000082d4 .LASF503
     /tmp/ccDRY82K.s:78909  .debug_str:000000000001277c .LASF504
     /tmp/ccDRY82K.s:74739  .debug_str:00000000000078d1 .LASF505
     /tmp/ccDRY82K.s:74725  .debug_str:0000000000007793 .LASF506
     /tmp/ccDRY82K.s:73171  .debug_str:0000000000003794 .LASF507
     /tmp/ccDRY82K.s:75577  .debug_str:0000000000009bab .LASF508
     /tmp/ccDRY82K.s:77977  .debug_str:00000000000101b1 .LASF509
     /tmp/ccDRY82K.s:72183  .debug_str:0000000000000e43 .LASF510
     /tmp/ccDRY82K.s:75081  .debug_str:000000000000875e .LASF511
     /tmp/ccDRY82K.s:75797  .debug_str:000000000000a3c8 .LASF512
     /tmp/ccDRY82K.s:76011  .debug_str:000000000000ab12 .LASF513
     /tmp/ccDRY82K.s:75877  .debug_str:000000000000a65e .LASF514
     /tmp/ccDRY82K.s:75863  .debug_str:000000000000a5f4 .LASF515
     /tmp/ccDRY82K.s:74345  .debug_str:000000000000668d .LASF516
     /tmp/ccDRY82K.s:78209  .debug_str:0000000000010a25 .LASF517
     /tmp/ccDRY82K.s:75439  .debug_str:000000000000964d .LASF518
     /tmp/ccDRY82K.s:71861  .debug_str:000000000000015f .LASF519
     /tmp/ccDRY82K.s:75919  .debug_str:000000000000a80e .LASF520
     /tmp/ccDRY82K.s:74229  .debug_str:00000000000061b4 .LASF521
     /tmp/ccDRY82K.s:74205  .debug_str:00000000000060d7 .LASF522
     /tmp/ccDRY82K.s:77979  .debug_str:00000000000101bb .LASF523
     /tmp/ccDRY82K.s:72185  .debug_str:0000000000000e4c .LASF524
     /tmp/ccDRY82K.s:74375  .debug_str:0000000000006820 .LASF525
     /tmp/ccDRY82K.s:77087  .debug_str:000000000000db38 .LASF526
     /tmp/ccDRY82K.s:77071  .debug_str:000000000000da9e .LASF527
     /tmp/ccDRY82K.s:77957  .debug_str:0000000000010130 .LASF528
     /tmp/ccDRY82K.s:77945  .debug_str:00000000000100bb .LASF529
     /tmp/ccDRY82K.s:77981  .debug_str:00000000000101c5 .LASF530
     /tmp/ccDRY82K.s:72187  .debug_str:0000000000000e55 .LASF531
     /tmp/ccDRY82K.s:73605  .debug_str:00000000000049e1 .LASF532
     /tmp/ccDRY82K.s:78613  .debug_str:0000000000011ab0 .LASF533
     /tmp/ccDRY82K.s:75597  .debug_str:0000000000009c79 .LASF534
     /tmp/ccDRY82K.s:77983  .debug_str:00000000000101cf .LASF535
     /tmp/ccDRY82K.s:72189  .debug_str:0000000000000e5e .LASF536
     /tmp/ccDRY82K.s:76691  .debug_str:000000000000ca08 .LASF537
     /tmp/ccDRY82K.s:72581  .debug_str:0000000000001dc7 .LASF538
     /tmp/ccDRY82K.s:77707  .debug_str:000000000000f5c0 .LASF539
     /tmp/ccDRY82K.s:77007  .debug_str:000000000000d759 .LASF540
     /tmp/ccDRY82K.s:74405  .debug_str:0000000000006984 .LASF541
     /tmp/ccDRY82K.s:72361  .debug_str:000000000000149c .LASF542
     /tmp/ccDRY82K.s:73639  .debug_str:0000000000004b15 .LASF543
     /tmp/ccDRY82K.s:77351  .debug_str:000000000000e6aa .LASF544
     /tmp/ccDRY82K.s:75485  .debug_str:0000000000009832 .LASF545
     /tmp/ccDRY82K.s:76163  .debug_str:000000000000b118 .LASF546
     /tmp/ccDRY82K.s:74519  .debug_str:0000000000006dd5 .LASF547
     /tmp/ccDRY82K.s:77253  .debug_str:000000000000e22d .LASF548
     /tmp/ccDRY82K.s:76235  .debug_str:000000000000b3f2 .LASF549
     /tmp/ccDRY82K.s:72549  .debug_str:0000000000001c8f .LASF550
     /tmp/ccDRY82K.s:76733  .debug_str:000000000000cba1 .LASF551
     /tmp/ccDRY82K.s:77837  .debug_str:000000000000fb91 .LASF552
     /tmp/ccDRY82K.s:78957  .debug_str:000000000001299d .LASF553
     /tmp/ccDRY82K.s:72727  .debug_str:0000000000002418 .LASF554
     /tmp/ccDRY82K.s:73897  .debug_str:00000000000053da .LASF555
     /tmp/ccDRY82K.s:75063  .debug_str:0000000000008699 .LASF556
     /tmp/ccDRY82K.s:75115  .debug_str:0000000000008915 .LASF557
     /tmp/ccDRY82K.s:76971  .debug_str:000000000000d5c0 .LASF558
     /tmp/ccDRY82K.s:76675  .debug_str:000000000000c92c .LASF559
     /tmp/ccDRY82K.s:78803  .debug_str:0000000000012235 .LASF560
     /tmp/ccDRY82K.s:77359  .debug_str:000000000000e70f .LASF561
     /tmp/ccDRY82K.s:74581  .debug_str:00000000000070d3 .LASF562
     /tmp/ccDRY82K.s:77903  .debug_str:000000000000fefc .LASF563
     /tmp/ccDRY82K.s:79009  .debug_str:0000000000012bda .LASF564
     /tmp/ccDRY82K.s:78343  .debug_str:0000000000010f24 .LASF565
     /tmp/ccDRY82K.s:75117  .debug_str:000000000000891e .LASF566
     /tmp/ccDRY82K.s:76277  .debug_str:000000000000b5f1 .LASF567
     /tmp/ccDRY82K.s:72763  .debug_str:00000000000025c7 .LASF568
     /tmp/ccDRY82K.s:76557  .debug_str:000000000000c39a .LASF569
     /tmp/ccDRY82K.s:76513  .debug_str:000000000000c15e .LASF570
     /tmp/ccDRY82K.s:72725  .debug_str:0000000000002408 .LASF571
     /tmp/ccDRY82K.s:75119  .debug_str:0000000000008927 .LASF572
     /tmp/ccDRY82K.s:74387  .debug_str:00000000000068ba .LASF573
     /tmp/ccDRY82K.s:72079  .debug_str:0000000000000a37 .LASF574
     /tmp/ccDRY82K.s:74955  .debug_str:00000000000081f0 .LASF575
     /tmp/ccDRY82K.s:77063  .debug_str:000000000000da5b .LASF576
     /tmp/ccDRY82K.s:75889  .debug_str:000000000000a710 .LASF577
     /tmp/ccDRY82K.s:76905  .debug_str:000000000000d322 .LASF578
     /tmp/ccDRY82K.s:73903  .debug_str:000000000000541e .LASF579
     /tmp/ccDRY82K.s:75121  .debug_str:0000000000008930 .LASF580
     /tmp/ccDRY82K.s:74047  .debug_str:00000000000059cf .LASF581
     /tmp/ccDRY82K.s:79065  .debug_str:0000000000012dc2 .LASF582
     /tmp/ccDRY82K.s:78587  .debug_str:0000000000011963 .LASF583
     /tmp/ccDRY82K.s:76285  .debug_str:000000000000b661 .LASF584
     /tmp/ccDRY82K.s:75123  .debug_str:0000000000008939 .LASF585
     /tmp/ccDRY82K.s:73765  .debug_str:0000000000004f91 .LASF586
     /tmp/ccDRY82K.s:75095  .debug_str:000000000000880a .LASF587
     /tmp/ccDRY82K.s:75125  .debug_str:0000000000008942 .LASF588
     /tmp/ccDRY82K.s:72423  .debug_str:0000000000001750 .LASF589
     /tmp/ccDRY82K.s:74829  .debug_str:0000000000007c87 .LASF590
     /tmp/ccDRY82K.s:72619  .debug_str:0000000000001f9a .LASF591
     /tmp/ccDRY82K.s:75437  .debug_str:0000000000009643 .LASF592
     /tmp/ccDRY82K.s:78699  .debug_str:0000000000011e08 .LASF593
     /tmp/ccDRY82K.s:77059  .debug_str:000000000000da3b .LASF594
     /tmp/ccDRY82K.s:75127  .debug_str:000000000000894b .LASF595
     /tmp/ccDRY82K.s:76561  .debug_str:000000000000c3b5 .LASF596
     /tmp/ccDRY82K.s:74445  .debug_str:0000000000006b27 .LASF597
     /tmp/ccDRY82K.s:72587  .debug_str:0000000000001dfa .LASF598
     /tmp/ccDRY82K.s:74361  .debug_str:0000000000006762 .LASF599
     /tmp/ccDRY82K.s:72943  .debug_str:0000000000002e0d .LASF600
     /tmp/ccDRY82K.s:74505  .debug_str:0000000000006d47 .LASF601
     /tmp/ccDRY82K.s:73797  .debug_str:0000000000005052 .LASF602
     /tmp/ccDRY82K.s:76073  .debug_str:000000000000ad21 .LASF603
     /tmp/ccDRY82K.s:78123  .debug_str:00000000000106dc .LASF604
     /tmp/ccDRY82K.s:75189  .debug_str:0000000000008b88 .LASF605
     /tmp/ccDRY82K.s:78235  .debug_str:0000000000010ad1 .LASF606
     /tmp/ccDRY82K.s:75841  .debug_str:000000000000a52f .LASF607
     /tmp/ccDRY82K.s:73985  .debug_str:0000000000005748 .LASF608
     /tmp/ccDRY82K.s:75707  .debug_str:000000000000a047 .LASF609
     /tmp/ccDRY82K.s:75943  .debug_str:000000000000a8fa .LASF610
     /tmp/ccDRY82K.s:75145  .debug_str:0000000000008a02 .LASF611
     /tmp/ccDRY82K.s:79147  .debug_str:000000000001314c .LASF612
     /tmp/ccDRY82K.s:77215  .debug_str:000000000000e058 .LASF613
     /tmp/ccDRY82K.s:76327  .debug_str:000000000000b89b .LASF614
     /tmp/ccDRY82K.s:77605  .debug_str:000000000000f14f .LASF615
     /tmp/ccDRY82K.s:72821  .debug_str:00000000000028e1 .LASF616
     /tmp/ccDRY82K.s:77355  .debug_str:000000000000e6f5 .LASF617
     /tmp/ccDRY82K.s:78609  .debug_str:0000000000011a79 .LASF618
     /tmp/ccDRY82K.s:72109  .debug_str:0000000000000b9b .LASF619
     /tmp/ccDRY82K.s:73025  .debug_str:0000000000003157 .LASF620
     /tmp/ccDRY82K.s:77901  .debug_str:000000000000fee9 .LASF621
     /tmp/ccDRY82K.s:72001  .debug_str:0000000000000787 .LASF622
     /tmp/ccDRY82K.s:76469  .debug_str:000000000000bf47 .LASF623
     /tmp/ccDRY82K.s:72801  .debug_str:00000000000027fb .LASF624
     /tmp/ccDRY82K.s:75195  .debug_str:0000000000008bc4 .LASF625
     /tmp/ccDRY82K.s:73263  .debug_str:0000000000003bc6 .LASF626
     /tmp/ccDRY82K.s:72241  .debug_str:0000000000000fff .LASF627
     /tmp/ccDRY82K.s:78675  .debug_str:0000000000011d32 .LASF628
     /tmp/ccDRY82K.s:74499  .debug_str:0000000000006d1f .LASF629
     /tmp/ccDRY82K.s:73143  .debug_str:0000000000003683 .LASF630
     /tmp/ccDRY82K.s:76099  .debug_str:000000000000ae32 .LASF631
     /tmp/ccDRY82K.s:75665  .debug_str:0000000000009f34 .LASF632
     /tmp/ccDRY82K.s:74257  .debug_str:00000000000062b8 .LASF633
     /tmp/ccDRY82K.s:75761  .debug_str:000000000000a212 .LASF634
     /tmp/ccDRY82K.s:76739  .debug_str:000000000000cbd1 .LASF635
     /tmp/ccDRY82K.s:75235  .debug_str:0000000000008dc4 .LASF636
     /tmp/ccDRY82K.s:74131  .debug_str:0000000000005d41 .LASF637
     /tmp/ccDRY82K.s:77841  .debug_str:000000000000fbbb .LASF638
     /tmp/ccDRY82K.s:76309  .debug_str:000000000000b7b7 .LASF639
     /tmp/ccDRY82K.s:76945  .debug_str:000000000000d495 .LASF640
     /tmp/ccDRY82K.s:78963  .debug_str:00000000000129e1 .LASF641
     /tmp/ccDRY82K.s:77251  .debug_str:000000000000e20a .LASF642
     /tmp/ccDRY82K.s:76741  .debug_str:000000000000cbda .LASF643
     /tmp/ccDRY82K.s:72737  .debug_str:0000000000002483 .LASF644
     /tmp/ccDRY82K.s:78197  .debug_str:00000000000109b2 .LASF645
     /tmp/ccDRY82K.s:71973  .debug_str:0000000000000640 .LASF646
     /tmp/ccDRY82K.s:73909  .debug_str:0000000000005444 .LASF647
     /tmp/ccDRY82K.s:71837  .debug_str:0000000000000011 .LASF648
     /tmp/ccDRY82K.s:71975  .debug_str:0000000000000650 .LASF649
     /tmp/ccDRY82K.s:75071  .debug_str:00000000000086dc .LASF650
     /tmp/ccDRY82K.s:72845  .debug_str:00000000000029cd .LASF651
     /tmp/ccDRY82K.s:73023  .debug_str:0000000000003149 .LASF652
     /tmp/ccDRY82K.s:74905  .debug_str:0000000000007fda .LASF653
     /tmp/ccDRY82K.s:72049  .debug_str:0000000000000966 .LASF654
     /tmp/ccDRY82K.s:77297  .debug_str:000000000000e423 .LASF655
     /tmp/ccDRY82K.s:76103  .debug_str:000000000000ae4d .LASF656
     /tmp/ccDRY82K.s:78553  .debug_str:00000000000117b9 .LASF657
     /tmp/ccDRY82K.s:74443  .debug_str:0000000000006b15 .LASF658
     /tmp/ccDRY82K.s:72439  .debug_str:00000000000017fa .LASF659
     /tmp/ccDRY82K.s:74413  .debug_str:00000000000069dd .LASF660
     /tmp/ccDRY82K.s:78855  .debug_str:00000000000124b8 .LASF661
     /tmp/ccDRY82K.s:76865  .debug_str:000000000000d161 .LASF662
     /tmp/ccDRY82K.s:75079  .debug_str:000000000000872e .LASF663
     /tmp/ccDRY82K.s:74269  .debug_str:000000000000633c .LASF664
     /tmp/ccDRY82K.s:78167  .debug_str:000000000001091c .LASF665
     /tmp/ccDRY82K.s:72669  .debug_str:00000000000021a3 .LASF666
     /tmp/ccDRY82K.s:74271  .debug_str:0000000000006348 .LASF667
     /tmp/ccDRY82K.s:78169  .debug_str:0000000000010922 .LASF668
     /tmp/ccDRY82K.s:75763  .debug_str:000000000000a21a .LASF669
     /tmp/ccDRY82K.s:74273  .debug_str:0000000000006354 .LASF670
     /tmp/ccDRY82K.s:78171  .debug_str:0000000000010928 .LASF671
     /tmp/ccDRY82K.s:78657  .debug_str:0000000000011c98 .LASF672
     /tmp/ccDRY82K.s:78771  .debug_str:0000000000012115 .LASF673
     /tmp/ccDRY82K.s:78173  .debug_str:000000000001092e .LASF674
     /tmp/ccDRY82K.s:74343  .debug_str:000000000000666d .LASF675
     /tmp/ccDRY82K.s:78773  .debug_str:000000000001211f .LASF676
     /tmp/ccDRY82K.s:78175  .debug_str:0000000000010934 .LASF677
     /tmp/ccDRY82K.s:77309  .debug_str:000000000000e48b .LASF678
     /tmp/ccDRY82K.s:78775  .debug_str:0000000000012129 .LASF679
     /tmp/ccDRY82K.s:78177  .debug_str:000000000001093a .LASF680
     /tmp/ccDRY82K.s:72905  .debug_str:0000000000002c21 .LASF681
     /tmp/ccDRY82K.s:78777  .debug_str:0000000000012133 .LASF682
     /tmp/ccDRY82K.s:78179  .debug_str:0000000000010940 .LASF683
     /tmp/ccDRY82K.s:76033  .debug_str:000000000000ac19 .LASF684
     /tmp/ccDRY82K.s:76131  .debug_str:000000000000af92 .LASF685
     /tmp/ccDRY82K.s:78181  .debug_str:0000000000010946 .LASF686
     /tmp/ccDRY82K.s:78923  .debug_str:000000000001280c .LASF687
     /tmp/ccDRY82K.s:74245  .debug_str:0000000000006245 .LASF688
     /tmp/ccDRY82K.s:78183  .debug_str:000000000001094c .LASF689
     /tmp/ccDRY82K.s:74621  .debug_str:000000000000726a .LASF690
     /tmp/ccDRY82K.s:74247  .debug_str:0000000000006250 .LASF691
     /tmp/ccDRY82K.s:79027  .debug_str:0000000000012c7f .LASF692
     /tmp/ccDRY82K.s:76967  .debug_str:000000000000d58f .LASF693
     /tmp/ccDRY82K.s:74249  .debug_str:000000000000625b .LASF694
     /tmp/ccDRY82K.s:79029  .debug_str:0000000000012c86 .LASF695
     /tmp/ccDRY82K.s:72577  .debug_str:0000000000001d93 .LASF696
     /tmp/ccDRY82K.s:74469  .debug_str:0000000000006be8 .LASF697
     /tmp/ccDRY82K.s:79031  .debug_str:0000000000012c8d .LASF698
     /tmp/ccDRY82K.s:75659  .debug_str:0000000000009ed8 .LASF699
     /tmp/ccDRY82K.s:74471  .debug_str:0000000000006bf1 .LASF700
     /tmp/ccDRY82K.s:75781  .debug_str:000000000000a348 .LASF701
     /tmp/ccDRY82K.s:78561  .debug_str:0000000000011816 .LASF702
     /tmp/ccDRY82K.s:74473  .debug_str:0000000000006bfa .LASF703
     /tmp/ccDRY82K.s:79035  .debug_str:0000000000012c9d .LASF704
     /tmp/ccDRY82K.s:74255  .debug_str:0000000000006297 .LASF705
     /tmp/ccDRY82K.s:74475  .debug_str:0000000000006c03 .LASF706
     /tmp/ccDRY82K.s:79037  .debug_str:0000000000012ca4 .LASF707
     /tmp/ccDRY82K.s:77243  .debug_str:000000000000e184 .LASF708
     /tmp/ccDRY82K.s:73017  .debug_str:0000000000003122 .LASF709
     /tmp/ccDRY82K.s:79039  .debug_str:0000000000012cab .LASF710
     /tmp/ccDRY82K.s:72827  .debug_str:000000000000291a .LASF711
     /tmp/ccDRY82K.s:74775  .debug_str:0000000000007a36 .LASF712
     /tmp/ccDRY82K.s:73485  .debug_str:000000000000457d .LASF713
     /tmp/ccDRY82K.s:74551  .debug_str:0000000000006f3b .LASF714
     /tmp/ccDRY82K.s:74425  .debug_str:0000000000006a54 .LASF715
     /tmp/ccDRY82K.s:73487  .debug_str:0000000000004583 .LASF716
     /tmp/ccDRY82K.s:77507  .debug_str:000000000000ed13 .LASF717
     /tmp/ccDRY82K.s:72969  .debug_str:0000000000002f12 .LASF718
     /tmp/ccDRY82K.s:73489  .debug_str:0000000000004589 .LASF719
     /tmp/ccDRY82K.s:73069  .debug_str:00000000000033b5 .LASF720
     /tmp/ccDRY82K.s:72973  .debug_str:0000000000002f2f .LASF721
     /tmp/ccDRY82K.s:73529  .debug_str:0000000000004768 .LASF722
     /tmp/ccDRY82K.s:77693  .debug_str:000000000000f556 .LASF723
     /tmp/ccDRY82K.s:74575  .debug_str:0000000000007090 .LASF724
     /tmp/ccDRY82K.s:73531  .debug_str:000000000000476e .LASF725
     /tmp/ccDRY82K.s:73289  .debug_str:0000000000003cb0 .LASF726
     /tmp/ccDRY82K.s:74957  .debug_str:00000000000081f7 .LASF727
     /tmp/ccDRY82K.s:72389  .debug_str:00000000000015d1 .LASF728
     /tmp/ccDRY82K.s:76433  .debug_str:000000000000bd41 .LASF729
     /tmp/ccDRY82K.s:76897  .debug_str:000000000000d2bf .LASF730
     /tmp/ccDRY82K.s:73535  .debug_str:000000000000477e .LASF731
     /tmp/ccDRY82K.s:71945  .debug_str:000000000000051b .LASF732
     /tmp/ccDRY82K.s:76899  .debug_str:000000000000d2cd .LASF733
     /tmp/ccDRY82K.s:73537  .debug_str:0000000000004784 .LASF734
     /tmp/ccDRY82K.s:75017  .debug_str:00000000000084aa .LASF735
     /tmp/ccDRY82K.s:75845  .debug_str:000000000000a560 .LASF736
     /tmp/ccDRY82K.s:73539  .debug_str:000000000000478a .LASF737
     /tmp/ccDRY82K.s:77985  .debug_str:00000000000101d9 .LASF738
     /tmp/ccDRY82K.s:77987  .debug_str:00000000000101f9 .LASF739
     /tmp/ccDRY82K.s:73541  .debug_str:0000000000004790 .LASF740
     /tmp/ccDRY82K.s:73549  .debug_str:00000000000047a8 .LASF741
     /tmp/ccDRY82K.s:74033  .debug_str:000000000000590a .LASF742
     /tmp/ccDRY82K.s:73543  .debug_str:0000000000004796 .LASF743
     /tmp/ccDRY82K.s:76651  .debug_str:000000000000c7ba .LASF744
     /tmp/ccDRY82K.s:74145  .debug_str:0000000000005e05 .LASF745
     /tmp/ccDRY82K.s:73545  .debug_str:000000000000479c .LASF746
     /tmp/ccDRY82K.s:72261  .debug_str:0000000000001111 .LASF747
     /tmp/ccDRY82K.s:78937  .debug_str:00000000000128c0 .LASF748
     /tmp/ccDRY82K.s:73547  .debug_str:00000000000047a2 .LASF749
     /tmp/ccDRY82K.s:75287  .debug_str:0000000000009014 .LASF750
     /tmp/ccDRY82K.s:73349  .debug_str:0000000000003fcd .LASF751
     /tmp/ccDRY82K.s:73601  .debug_str:00000000000049d5 .LASF752
     /tmp/ccDRY82K.s:72477  .debug_str:00000000000019c6 .LASF753
     /tmp/ccDRY82K.s:73503  .debug_str:0000000000004643 .LASF754
     /tmp/ccDRY82K.s:73603  .debug_str:00000000000049db .LASF755
     /tmp/ccDRY82K.s:75525  .debug_str:0000000000009a07 .LASF756
     /tmp/ccDRY82K.s:77099  .debug_str:000000000000dba8 .LASF757
     /tmp/ccDRY82K.s:72481  .debug_str:0000000000001a01 .LASF758
     /tmp/ccDRY82K.s:78461  .debug_str:00000000000113de .LASF759
     /tmp/ccDRY82K.s:72953  .debug_str:0000000000002e75 .LASF760
     /tmp/ccDRY82K.s:72485  .debug_str:0000000000001a12 .LASF761
     /tmp/ccDRY82K.s:74121  .debug_str:0000000000005ccb .LASF762
     /tmp/ccDRY82K.s:72955  .debug_str:0000000000002e7f .LASF763
     /tmp/ccDRY82K.s:73609  .debug_str:0000000000004a14 .LASF764
     /tmp/ccDRY82K.s:77125  .debug_str:000000000000dc9d .LASF765
     /tmp/ccDRY82K.s:73841  .debug_str:00000000000051fc .LASF766
     /tmp/ccDRY82K.s:73611  .debug_str:0000000000004a1a .LASF767
     /tmp/ccDRY82K.s:72713  .debug_str:000000000000238c .LASF768
     /tmp/ccDRY82K.s:76877  .debug_str:000000000000d21f .LASF769
     /tmp/ccDRY82K.s:73613  .debug_str:0000000000004a20 .LASF770
     /tmp/ccDRY82K.s:75821  .debug_str:000000000000a44e .LASF771
     /tmp/ccDRY82K.s:76881  .debug_str:000000000000d250 .LASF772
     /tmp/ccDRY82K.s:72493  .debug_str:0000000000001a5e .LASF773
     /tmp/ccDRY82K.s:78709  .debug_str:0000000000011e53 .LASF774
     /tmp/ccDRY82K.s:76761  .debug_str:000000000000ccb8 .LASF775
     /tmp/ccDRY82K.s:73617  .debug_str:0000000000004a35 .LASF776
     /tmp/ccDRY82K.s:74407  .debug_str:000000000000698e .LASF777
     /tmp/ccDRY82K.s:72545  .debug_str:0000000000001c5e .LASF778
     /tmp/ccDRY82K.s:73619  .debug_str:0000000000004a3b .LASF779
     /tmp/ccDRY82K.s:77361  .debug_str:000000000000e71f .LASF780
     /tmp/ccDRY82K.s:78231  .debug_str:0000000000010ab7 .LASF781
     /tmp/ccDRY82K.s:73683  .debug_str:0000000000004ce0 .LASF782
     /tmp/ccDRY82K.s:74627  .debug_str:00000000000072a8 .LASF783
     /tmp/ccDRY82K.s:77845  .debug_str:000000000000fbe7 .LASF784
     /tmp/ccDRY82K.s:73685  .debug_str:0000000000004ce6 .LASF785
     /tmp/ccDRY82K.s:77593  .debug_str:000000000000f0c6 .LASF786
     /tmp/ccDRY82K.s:77255  .debug_str:000000000000e239 .LASF787
     /tmp/ccDRY82K.s:73687  .debug_str:0000000000004cec .LASF788
     /tmp/ccDRY82K.s:73169  .debug_str:0000000000003774 .LASF789
     /tmp/ccDRY82K.s:75903  .debug_str:000000000000a7c1 .LASF790
     /tmp/ccDRY82K.s:73689  .debug_str:0000000000004cf2 .LASF791
     /tmp/ccDRY82K.s:76317  .debug_str:000000000000b817 .LASF792
     /tmp/ccDRY82K.s:75907  .debug_str:000000000000a7df .LASF793
     /tmp/ccDRY82K.s:73691  .debug_str:0000000000004cf8 .LASF794
     /tmp/ccDRY82K.s:71841  .debug_str:000000000000004d .LASF795
     /tmp/ccDRY82K.s:72583  .debug_str:0000000000001de1 .LASF796
     /tmp/ccDRY82K.s:73693  .debug_str:0000000000004cfe .LASF797
     /tmp/ccDRY82K.s:74895  .debug_str:0000000000007f82 .LASF798
     /tmp/ccDRY82K.s:73209  .debug_str:0000000000003928 .LASF799
     /tmp/ccDRY82K.s:73695  .debug_str:0000000000004d04 .LASF800
     /tmp/ccDRY82K.s:77839  .debug_str:000000000000fb9b .LASF801
     /tmp/ccDRY82K.s:72339  .debug_str:000000000000144a .LASF802
     /tmp/ccDRY82K.s:73697  .debug_str:0000000000004d0a .LASF803
     /tmp/ccDRY82K.s:73423  .debug_str:0000000000004268 .LASF804
     /tmp/ccDRY82K.s:74065  .debug_str:0000000000005acb .LASF805
     /tmp/ccDRY82K.s:73699  .debug_str:0000000000004d10 .LASF806
     /tmp/ccDRY82K.s:76535  .debug_str:000000000000c255 .LASF807
     /tmp/ccDRY82K.s:74855  .debug_str:0000000000007da6 .LASF808
     /tmp/ccDRY82K.s:73701  .debug_str:0000000000004d16 .LASF809
     /tmp/ccDRY82K.s:72095  .debug_str:0000000000000af3 .LASF810
     /tmp/ccDRY82K.s:78637  .debug_str:0000000000011bda .LASF811
     /tmp/ccDRY82K.s:73777  .debug_str:0000000000005011 .LASF812
     /tmp/ccDRY82K.s:76713  .debug_str:000000000000cb0e .LASF813
     /tmp/ccDRY82K.s:75937  .debug_str:000000000000a8be .LASF814
     /tmp/ccDRY82K.s:78971  .debug_str:0000000000012a2a .LASF815
     /tmp/ccDRY82K.s:72363  .debug_str:00000000000014a5 .LASF816
     /tmp/ccDRY82K.s:75055  .debug_str:0000000000008643 .LASF817
     /tmp/ccDRY82K.s:73781  .debug_str:0000000000005022 .LASF818
     /tmp/ccDRY82K.s:75379  .debug_str:00000000000093db .LASF819
     /tmp/ccDRY82K.s:77121  .debug_str:000000000000dc81 .LASF820
     /tmp/ccDRY82K.s:73783  .debug_str:0000000000005028 .LASF821
     /tmp/ccDRY82K.s:78347  .debug_str:0000000000010f4b .LASF822
     /tmp/ccDRY82K.s:76591  .debug_str:000000000000c515 .LASF823
     /tmp/ccDRY82K.s:73785  .debug_str:000000000000502e .LASF824
     /tmp/ccDRY82K.s:74003  .debug_str:0000000000005829 .LASF825
     /tmp/ccDRY82K.s:76593  .debug_str:000000000000c522 .LASF826
     /tmp/ccDRY82K.s:73787  .debug_str:0000000000005034 .LASF827
     /tmp/ccDRY82K.s:76993  .debug_str:000000000000d6e1 .LASF828
     /tmp/ccDRY82K.s:77817  .debug_str:000000000000fa7e .LASF829
     /tmp/ccDRY82K.s:73789  .debug_str:000000000000503a .LASF830
     /tmp/ccDRY82K.s:72593  .debug_str:0000000000001e2c .LASF831
     /tmp/ccDRY82K.s:72997  .debug_str:0000000000003073 .LASF832
     /tmp/ccDRY82K.s:73791  .debug_str:0000000000005040 .LASF833
     /tmp/ccDRY82K.s:75693  .debug_str:0000000000009fbb .LASF834
     /tmp/ccDRY82K.s:73001  .debug_str:00000000000030af .LASF835
     /tmp/ccDRY82K.s:73793  .debug_str:0000000000005046 .LASF836
     /tmp/ccDRY82K.s:78579  .debug_str:00000000000118f4 .LASF837
     /tmp/ccDRY82K.s:71985  .debug_str:00000000000006e9 .LASF838
     /tmp/ccDRY82K.s:73795  .debug_str:000000000000504c .LASF839
     /tmp/ccDRY82K.s:74281  .debug_str:00000000000063be .LASF840
     /tmp/ccDRY82K.s:77741  .debug_str:000000000000f743 .LASF841
     /tmp/ccDRY82K.s:73857  .debug_str:00000000000052c6 .LASF842
     /tmp/ccDRY82K.s:78857  .debug_str:00000000000124cb .LASF843
     /tmp/ccDRY82K.s:77743  .debug_str:000000000000f751 .LASF844
     /tmp/ccDRY82K.s:73859  .debug_str:00000000000052cc .LASF845
     /tmp/ccDRY82K.s:74567  .debug_str:000000000000701b .LASF846
     /tmp/ccDRY82K.s:72017  .debug_str:0000000000000837 .LASF847
     /tmp/ccDRY82K.s:73861  .debug_str:00000000000052d2 .LASF848
     /tmp/ccDRY82K.s:77519  .debug_str:000000000000edb2 .LASF849
     /tmp/ccDRY82K.s:74297  .debug_str:0000000000006470 .LASF850
     /tmp/ccDRY82K.s:73863  .debug_str:00000000000052d8 .LASF851
     /tmp/ccDRY82K.s:73077  .debug_str:000000000000340c .LASF852
     /tmp/ccDRY82K.s:74299  .debug_str:000000000000647e .LASF853
     /tmp/ccDRY82K.s:73865  .debug_str:00000000000052de .LASF854
     /tmp/ccDRY82K.s:76245  .debug_str:000000000000b49a .LASF855
     /tmp/ccDRY82K.s:78395  .debug_str:0000000000011162 .LASF856
     /tmp/ccDRY82K.s:73867  .debug_str:00000000000052e4 .LASF857
     /tmp/ccDRY82K.s:79095  .debug_str:0000000000012f53 .LASF858
     /tmp/ccDRY82K.s:78493  .debug_str:00000000000115ac .LASF859
     /tmp/ccDRY82K.s:73869  .debug_str:00000000000052ea .LASF860
     /tmp/ccDRY82K.s:74825  .debug_str:0000000000007c5f .LASF861
     /tmp/ccDRY82K.s:78497  .debug_str:00000000000115ca .LASF862
     /tmp/ccDRY82K.s:72823  .debug_str:00000000000028e9 .LASF863
     /tmp/ccDRY82K.s:77759  .debug_str:000000000000f824 .LASF864
     /tmp/ccDRY82K.s:74061  .debug_str:0000000000005aa5 .LASF865
     /tmp/ccDRY82K.s:73873  .debug_str:00000000000052f7 .LASF866
     /tmp/ccDRY82K.s:73347  .debug_str:0000000000003fad .LASF867
     /tmp/ccDRY82K.s:75049  .debug_str:0000000000008613 .LASF868
     /tmp/ccDRY82K.s:73875  .debug_str:00000000000052fd .LASF869
     /tmp/ccDRY82K.s:76483  .debug_str:000000000000bff3 .LASF870
     /tmp/ccDRY82K.s:75051  .debug_str:0000000000008625 .LASF871
     /tmp/ccDRY82K.s:73925  .debug_str:00000000000054eb .LASF872
     /tmp/ccDRY82K.s:73563  .debug_str:0000000000004842 .LASF873
     /tmp/ccDRY82K.s:73145  .debug_str:00000000000036a6 .LASF874
     /tmp/ccDRY82K.s:73927  .debug_str:00000000000054f1 .LASF875
     /tmp/ccDRY82K.s:76659  .debug_str:000000000000c83e .LASF876
     /tmp/ccDRY82K.s:73665  .debug_str:0000000000004c1d .LASF877
     /tmp/ccDRY82K.s:73929  .debug_str:00000000000054f7 .LASF878
     /tmp/ccDRY82K.s:72271  .debug_str:00000000000011b5 .LASF879
     /tmp/ccDRY82K.s:73669  .debug_str:0000000000004c2e .LASF880
     /tmp/ccDRY82K.s:73931  .debug_str:00000000000054fd .LASF881
     /tmp/ccDRY82K.s:75301  .debug_str:00000000000090a9 .LASF882
     /tmp/ccDRY82K.s:77341  .debug_str:000000000000e64b .LASF883
     /tmp/ccDRY82K.s:73933  .debug_str:0000000000005503 .LASF884
     /tmp/ccDRY82K.s:78281  .debug_str:0000000000010cf8 .LASF885
     /tmp/ccDRY82K.s:77579  .debug_str:000000000000f040 .LASF886
     /tmp/ccDRY82K.s:73935  .debug_str:0000000000005509 .LASF887
     /tmp/ccDRY82K.s:73913  .debug_str:0000000000005460 .LASF888
     /tmp/ccDRY82K.s:77581  .debug_str:000000000000f04c .LASF889
     /tmp/ccDRY82K.s:73937  .debug_str:000000000000550f .LASF890
     /tmp/ccDRY82K.s:76913  .debug_str:000000000000d36b .LASF891
     /tmp/ccDRY82K.s:78233  .debug_str:0000000000010ac2 .LASF892
     /tmp/ccDRY82K.s:73939  .debug_str:0000000000005515 .LASF893
     /tmp/ccDRY82K.s:72527  .debug_str:0000000000001bad .LASF894
     /tmp/ccDRY82K.s:76715  .debug_str:000000000000cb2e .LASF895
     /tmp/ccDRY82K.s:73941  .debug_str:000000000000551b .LASF896
     /tmp/ccDRY82K.s:75601  .debug_str:0000000000009cb4 .LASF897
     /tmp/ccDRY82K.s:76717  .debug_str:000000000000cb3b .LASF898
     /tmp/ccDRY82K.s:73943  .debug_str:0000000000005521 .LASF899
     /tmp/ccDRY82K.s:78519  .debug_str:000000000001164f .LASF900
     /tmp/ccDRY82K.s:74925  .debug_str:000000000000806f .LASF901
     /tmp/ccDRY82K.s:74001  .debug_str:0000000000005823 .LASF902
     /tmp/ccDRY82K.s:75829  .debug_str:000000000000a4a5 .LASF903
     /tmp/ccDRY82K.s:73147  .debug_str:00000000000036b4 .LASF904
     /tmp/ccDRY82K.s:73031  .debug_str:00000000000031b6 .LASF905
     /tmp/ccDRY82K.s:78717  .debug_str:0000000000011ec6 .LASF906
     /tmp/ccDRY82K.s:73149  .debug_str:00000000000036c1 .LASF907
     /tmp/ccDRY82K.s:74005  .debug_str:0000000000005849 .LASF908
     /tmp/ccDRY82K.s:74415  .debug_str:00000000000069ef .LASF909
     /tmp/ccDRY82K.s:73895  .debug_str:00000000000053cc .LASF910
     /tmp/ccDRY82K.s:74007  .debug_str:000000000000584f .LASF911
     /tmp/ccDRY82K.s:77377  .debug_str:000000000000e7f2 .LASF912
     /tmp/ccDRY82K.s:75053  .debug_str:0000000000008637 .LASF913
     /tmp/ccDRY82K.s:74009  .debug_str:0000000000005855 .LASF914
     /tmp/ccDRY82K.s:72967  .debug_str:0000000000002ef2 .LASF915
     /tmp/ccDRY82K.s:74867  .debug_str:0000000000007e0b .LASF916
     /tmp/ccDRY82K.s:74011  .debug_str:000000000000585b .LASF917
     /tmp/ccDRY82K.s:78595  .debug_str:00000000000119b0 .LASF918
     /tmp/ccDRY82K.s:78969  .debug_str:0000000000012a20 .LASF919
     /tmp/ccDRY82K.s:74013  .debug_str:0000000000005861 .LASF920
     /tmp/ccDRY82K.s:78981  .debug_str:0000000000012a8b .LASF921
     /tmp/ccDRY82K.s:75495  .debug_str:0000000000009898 .LASF922
     /tmp/ccDRY82K.s:74015  .debug_str:0000000000005867 .LASF923
     /tmp/ccDRY82K.s:74687  .debug_str:0000000000007600 .LASF924
     /tmp/ccDRY82K.s:78671  .debug_str:0000000000011d0b .LASF925
     /tmp/ccDRY82K.s:74017  .debug_str:000000000000586d .LASF926
     /tmp/ccDRY82K.s:77645  .debug_str:000000000000f35c .LASF927
     /tmp/ccDRY82K.s:78373  .debug_str:0000000000011071 .LASF928
     /tmp/ccDRY82K.s:74019  .debug_str:0000000000005873 .LASF929
     /tmp/ccDRY82K.s:73241  .debug_str:0000000000003a9f .LASF930
     /tmp/ccDRY82K.s:72507  .debug_str:0000000000001adc .LASF931
     /tmp/ccDRY82K.s:73139  .debug_str:0000000000003669 .LASF932
     /tmp/ccDRY82K.s:77849  .debug_str:000000000000fc11 .LASF933
     /tmp/ccDRY82K.s:72605  .debug_str:0000000000001ee0 .LASF934
     /tmp/ccDRY82K.s:74067  .debug_str:0000000000005ad7 .LASF935
     /tmp/ccDRY82K.s:73431  .debug_str:00000000000042c2 .LASF936
     /tmp/ccDRY82K.s:75161  .debug_str:0000000000008a84 .LASF937
     /tmp/ccDRY82K.s:74069  .debug_str:0000000000005add .LASF938
     /tmp/ccDRY82K.s:76545  .debug_str:000000000000c2d9 .LASF939
     /tmp/ccDRY82K.s:78413  .debug_str:0000000000011215 .LASF940
     /tmp/ccDRY82K.s:74071  .debug_str:0000000000005ae3 .LASF941
     /tmp/ccDRY82K.s:72115  .debug_str:0000000000000bc1 .LASF942
     /tmp/ccDRY82K.s:73905  .debug_str:0000000000005423 .LASF943
     /tmp/ccDRY82K.s:74073  .debug_str:0000000000005ae9 .LASF944
     /tmp/ccDRY82K.s:75179  .debug_str:0000000000008b1a .LASF945
     /tmp/ccDRY82K.s:72307  .debug_str:00000000000012ed .LASF946
     /tmp/ccDRY82K.s:74075  .debug_str:0000000000005aef .LASF947
     /tmp/ccDRY82K.s:78139  .debug_str:00000000000107b8 .LASF948
     /tmp/ccDRY82K.s:77213  .debug_str:000000000000e04d .LASF949
     /tmp/ccDRY82K.s:74077  .debug_str:0000000000005af5 .LASF950
     /tmp/ccDRY82K.s:73745  .debug_str:0000000000004e6b .LASF951
     /tmp/ccDRY82K.s:78625  .debug_str:0000000000011b37 .LASF952
     /tmp/ccDRY82K.s:74079  .debug_str:0000000000005afb .LASF953
     /tmp/ccDRY82K.s:76785  .debug_str:000000000000cde4 .LASF954
     /tmp/ccDRY82K.s:74189  .debug_str:0000000000005fed .LASF955
     /tmp/ccDRY82K.s:74081  .debug_str:0000000000005b01 .LASF956
     /tmp/ccDRY82K.s:72419  .debug_str:0000000000001704 .LASF957
     /tmp/ccDRY82K.s:79139  .debug_str:0000000000013117 .LASF958
     /tmp/ccDRY82K.s:74083  .debug_str:0000000000005b07 .LASF959
     /tmp/ccDRY82K.s:75451  .debug_str:00000000000096e3 .LASF960
     /tmp/ccDRY82K.s:75827  .debug_str:000000000000a496 .LASF961
     /tmp/ccDRY82K.s:75463  .debug_str:0000000000009799 .LASF962
     /tmp/ccDRY82K.s:72611  .debug_str:0000000000001f1f .LASF963
     /tmp/ccDRY82K.s:77159  .debug_str:000000000000dde9 .LASF964
     /tmp/ccDRY82K.s:75465  .debug_str:00000000000097a0 .LASF965
     /tmp/ccDRY82K.s:75705  .debug_str:000000000000a026 .LASF966
     /tmp/ccDRY82K.s:74331  .debug_str:00000000000065ef .LASF967
     /tmp/ccDRY82K.s:75467  .debug_str:00000000000097a7 .LASF968
     /tmp/ccDRY82K.s:77713  .debug_str:000000000000f617 .LASF969
     /tmp/ccDRY82K.s:72247  .debug_str:0000000000001069 .LASF970
     /tmp/ccDRY82K.s:75469  .debug_str:00000000000097ae .LASF971
     /tmp/ccDRY82K.s:75223  .debug_str:0000000000008d39 .LASF972
     /tmp/ccDRY82K.s:72251  .debug_str:000000000000108a .LASF973
     /tmp/ccDRY82K.s:75471  .debug_str:00000000000097b5 .LASF974
     /tmp/ccDRY82K.s:77259  .debug_str:000000000000e25d .LASF975
     /tmp/ccDRY82K.s:76363  .debug_str:000000000000ba5b .LASF976
     /tmp/ccDRY82K.s:75473  .debug_str:00000000000097bc .LASF977
     /tmp/ccDRY82K.s:72855  .debug_str:0000000000002a2a .LASF978
     /tmp/ccDRY82K.s:73011  .debug_str:00000000000030fd .LASF979
     /tmp/ccDRY82K.s:75527  .debug_str:0000000000009a27 .LASF980
     /tmp/ccDRY82K.s:75961  .debug_str:000000000000a9a2 .LASF981
     /tmp/ccDRY82K.s:77539  .debug_str:000000000000eead .LASF982
     /tmp/ccDRY82K.s:75477  .debug_str:00000000000097f6 .LASF983
     /tmp/ccDRY82K.s:72313  .debug_str:0000000000001337 .LASF984
     /tmp/ccDRY82K.s:72093  .debug_str:0000000000000ae2 .LASF985
     /tmp/ccDRY82K.s:75479  .debug_str:00000000000097fd .LASF986
     /tmp/ccDRY82K.s:74571  .debug_str:0000000000007053 .LASF987
     /tmp/ccDRY82K.s:72097  .debug_str:0000000000000b13 .LASF988
     /tmp/ccDRY82K.s:75481  .debug_str:0000000000009804 .LASF989
     /tmp/ccDRY82K.s:77529  .debug_str:000000000000ee2d .LASF990
     /tmp/ccDRY82K.s:76633  .debug_str:000000000000c6eb .LASF991
     /tmp/ccDRY82K.s:75535  .debug_str:0000000000009a72 .LASF992
     /tmp/ccDRY82K.s:73239  .debug_str:0000000000003a7e .LASF993
     /tmp/ccDRY82K.s:78237  .debug_str:0000000000010b05 .LASF994
     /tmp/ccDRY82K.s:75537  .debug_str:0000000000009a79 .LASF995
     /tmp/ccDRY82K.s:77715  .debug_str:000000000000f638 .LASF996
     /tmp/ccDRY82K.s:76097  .debug_str:000000000000ae21 .LASF997
     /tmp/ccDRY82K.s:75539  .debug_str:0000000000009a80 .LASF998
     /tmp/ccDRY82K.s:73303  .debug_str:0000000000003d54 .LASF999
     /tmp/ccDRY82K.s:72803  .debug_str:000000000000282c .LASF1000
     /tmp/ccDRY82K.s:75541  .debug_str:0000000000009a87 .LASF1001
     /tmp/ccDRY82K.s:76447  .debug_str:000000000000be10 .LASF1002
     /tmp/ccDRY82K.s:78223  .debug_str:0000000000010a81 .LASF1003
     /tmp/ccDRY82K.s:75543  .debug_str:0000000000009a8e .LASF1004
     /tmp/ccDRY82K.s:71967  .debug_str:0000000000000601 .LASF1005
     /tmp/ccDRY82K.s:78227  .debug_str:0000000000010a99 .LASF1006
     /tmp/ccDRY82K.s:75545  .debug_str:0000000000009a95 .LASF1007
     /tmp/ccDRY82K.s:75045  .debug_str:00000000000085e1 .LASF1008
     /tmp/ccDRY82K.s:73835  .debug_str:00000000000051a0 .LASF1009
     /tmp/ccDRY82K.s:75663  .debug_str:0000000000009f2d .LASF1010
     /tmp/ccDRY82K.s:78007  .debug_str:00000000000102af .LASF1011
     /tmp/ccDRY82K.s:74757  .debug_str:0000000000007968 .LASF1012
     /tmp/ccDRY82K.s:75667  .debug_str:0000000000009f3d .LASF1013
     /tmp/ccDRY82K.s:73567  .debug_str:0000000000004877 .LASF1014
     /tmp/ccDRY82K.s:74761  .debug_str:000000000000798a .LASF1015
     /tmp/ccDRY82K.s:75551  .debug_str:0000000000009ad6 .LASF1016
     /tmp/ccDRY82K.s:76663  .debug_str:000000000000c885 .LASF1017
     /tmp/ccDRY82K.s:78213  .debug_str:0000000000010a3d .LASF1018
     /tmp/ccDRY82K.s:75553  .debug_str:0000000000009add .LASF1019
     /tmp/ccDRY82K.s:72289  .debug_str:000000000000120d .LASF1020
     /tmp/ccDRY82K.s:78769  .debug_str:0000000000012106 .LASF1021
     /tmp/ccDRY82K.s:75605  .debug_str:0000000000009cdf .LASF1022
     /tmp/ccDRY82K.s:74287  .debug_str:0000000000006413 .LASF1023
     /tmp/ccDRY82K.s:72585  .debug_str:0000000000001deb .LASF1024
     /tmp/ccDRY82K.s:75785  .debug_str:000000000000a35f .LASF1025
     /tmp/ccDRY82K.s:72499  .debug_str:0000000000001a7d .LASF1026
     /tmp/ccDRY82K.s:76127  .debug_str:000000000000af7c .LASF1027
     /tmp/ccDRY82K.s:75609  .debug_str:0000000000009cf5 .LASF1028
     /tmp/ccDRY82K.s:75559  .debug_str:0000000000009b29 .LASF1029
     /tmp/ccDRY82K.s:75329  .debug_str:000000000000923a .LASF1030
     /tmp/ccDRY82K.s:75611  .debug_str:0000000000009cfc .LASF1031
     /tmp/ccDRY82K.s:78477  .debug_str:00000000000114bf .LASF1032
     /tmp/ccDRY82K.s:75333  .debug_str:0000000000009251 .LASF1033
     /tmp/ccDRY82K.s:75613  .debug_str:0000000000009d03 .LASF1034
     /tmp/ccDRY82K.s:74133  .debug_str:0000000000005d54 .LASF1035
     /tmp/ccDRY82K.s:73191  .debug_str:000000000000385d .LASF1036
     /tmp/ccDRY82K.s:75615  .debug_str:0000000000009d0a .LASF1037
     /tmp/ccDRY82K.s:77141  .debug_str:000000000000dd41 .LASF1038
     /tmp/ccDRY82K.s:73707  .debug_str:0000000000004d3a .LASF1039
     /tmp/ccDRY82K.s:75617  .debug_str:0000000000009d11 .LASF1040
     /tmp/ccDRY82K.s:72731  .debug_str:000000000000242a .LASF1041
     /tmp/ccDRY82K.s:73709  .debug_str:0000000000004d45 .LASF1042
     /tmp/ccDRY82K.s:75619  .debug_str:0000000000009d18 .LASF1043
     /tmp/ccDRY82K.s:75839  .debug_str:000000000000a50e .LASF1044
     /tmp/ccDRY82K.s:72543  .debug_str:0000000000001c55 .LASF1045
     /tmp/ccDRY82K.s:75621  .debug_str:0000000000009d1f .LASF1046
     /tmp/ccDRY82K.s:78729  .debug_str:0000000000011f2b .LASF1047
     /tmp/ccDRY82K.s:77601  .debug_str:000000000000f139 .LASF1048
     /tmp/ccDRY82K.s:75623  .debug_str:0000000000009d26 .LASF1049
     /tmp/ccDRY82K.s:74427  .debug_str:0000000000006a64 .LASF1050
     /tmp/ccDRY82K.s:77603  .debug_str:000000000000f144 .LASF1051
     /tmp/ccDRY82K.s:75671  .debug_str:0000000000009f57 .LASF1052
     /tmp/ccDRY82K.s:78945  .debug_str:000000000001291e .LASF1053
     /tmp/ccDRY82K.s:73113  .debug_str:0000000000003545 .LASF1054
     /tmp/ccDRY82K.s:75673  .debug_str:0000000000009f5e .LASF1055
     /tmp/ccDRY82K.s:74643  .debug_str:00000000000073c4 .LASF1056
     /tmp/ccDRY82K.s:73569  .debug_str:0000000000004898 .LASF1057
     /tmp/ccDRY82K.s:75675  .debug_str:0000000000009f65 .LASF1058
     /tmp/ccDRY82K.s:78467  .debug_str:0000000000011440 .LASF1059
     /tmp/ccDRY82K.s:75425  .debug_str:00000000000095d3 .LASF1060
     /tmp/ccDRY82K.s:75677  .debug_str:0000000000009f6c .LASF1061
     /tmp/ccDRY82K.s:73201  .debug_str:00000000000038bc .LASF1062
     /tmp/ccDRY82K.s:76129  .debug_str:000000000000af89 .LASF1063
     /tmp/ccDRY82K.s:75679  .debug_str:0000000000009f73 .LASF1064
     /tmp/ccDRY82K.s:76335  .debug_str:000000000000b8e4 .LASF1065
     /tmp/ccDRY82K.s:75107  .debug_str:00000000000088c7 .LASF1066
     /tmp/ccDRY82K.s:76159  .debug_str:000000000000b0ff .LASF1067
     /tmp/ccDRY82K.s:71859  .debug_str:000000000000013e .LASF1068
     /tmp/ccDRY82K.s:74691  .debug_str:0000000000007633 .LASF1069
     /tmp/ccDRY82K.s:75683  .debug_str:0000000000009f98 .LASF1070
     /tmp/ccDRY82K.s:74915  .debug_str:0000000000008016 .LASF1071
     /tmp/ccDRY82K.s:74695  .debug_str:0000000000007656 .LASF1072
     /tmp/ccDRY82K.s:75685  .debug_str:0000000000009f9f .LASF1073
     /tmp/ccDRY82K.s:77857  .debug_str:000000000000fc96 .LASF1074
     /tmp/ccDRY82K.s:77727  .debug_str:000000000000f6ab .LASF1075
     /tmp/ccDRY82K.s:75687  .debug_str:0000000000009fa6 .LASF1076
     /tmp/ccDRY82K.s:73441  .debug_str:0000000000004323 .LASF1077
     /tmp/ccDRY82K.s:78499  .debug_str:00000000000115dc .LASF1078
     /tmp/ccDRY82K.s:75689  .debug_str:0000000000009fad .LASF1079
     /tmp/ccDRY82K.s:76549  .debug_str:000000000000c343 .LASF1080
     /tmp/ccDRY82K.s:78501  .debug_str:00000000000115e8 .LASF1081
     /tmp/ccDRY82K.s:75739  .debug_str:000000000000a1a5 .LASF1082
     /tmp/ccDRY82K.s:73679  .debug_str:0000000000004ca8 .LASF1083
     /tmp/ccDRY82K.s:76151  .debug_str:000000000000b0c2 .LASF1084
     /tmp/ccDRY82K.s:75741  .debug_str:000000000000a1ac .LASF1085
     /tmp/ccDRY82K.s:78805  .debug_str:0000000000012244 .LASF1086
     /tmp/ccDRY82K.s:78715  .debug_str:0000000000011ebb .LASF1087
     /tmp/ccDRY82K.s:75743  .debug_str:000000000000a1b3 .LASF1088
     /tmp/ccDRY82K.s:72391  .debug_str:00000000000015d7 .LASF1089
     /tmp/ccDRY82K.s:73115  .debug_str:0000000000003555 .LASF1090
     /tmp/ccDRY82K.s:75745  .debug_str:000000000000a1ba .LASF1091
     /tmp/ccDRY82K.s:75401  .debug_str:000000000000949f .LASF1092
     /tmp/ccDRY82K.s:75809  .debug_str:000000000000a3f7 .LASF1093
     /tmp/ccDRY82K.s:75747  .debug_str:000000000000a1c1 .LASF1094
     /tmp/ccDRY82K.s:78359  .debug_str:0000000000010feb .LASF1095
     /tmp/ccDRY82K.s:76883  .debug_str:000000000000d25a .LASF1096
     /tmp/ccDRY82K.s:75749  .debug_str:000000000000a1c8 .LASF1097
     /tmp/ccDRY82K.s:74025  .debug_str:00000000000058b2 .LASF1098
     /tmp/ccDRY82K.s:78297  .debug_str:0000000000010d75 .LASF1099
     /tmp/ccDRY82K.s:75751  .debug_str:000000000000a1cf .LASF1100
     /tmp/ccDRY82K.s:77023  .debug_str:000000000000d82b .LASF1101
     /tmp/ccDRY82K.s:78299  .debug_str:0000000000010d80 .LASF1102
     /tmp/ccDRY82K.s:75753  .debug_str:000000000000a1d6 .LASF1103
     /tmp/ccDRY82K.s:76453  .debug_str:000000000000be55 .LASF1104
     /tmp/ccDRY82K.s:72723  .debug_str:00000000000023f7 .LASF1105
     /tmp/ccDRY82K.s:75755  .debug_str:000000000000a1dd .LASF1106
     /tmp/ccDRY82K.s:75713  .debug_str:000000000000a08a .LASF1107
     /tmp/ccDRY82K.s:72523  .debug_str:0000000000001b86 .LASF1108
     /tmp/ccDRY82K.s:75757  .debug_str:000000000000a1e4 .LASF1109
     /tmp/ccDRY82K.s:78603  .debug_str:0000000000011a17 .LASF1110
     /tmp/ccDRY82K.s:76541  .debug_str:000000000000c2a7 .LASF1111
     /tmp/ccDRY82K.s:75793  .debug_str:000000000000a3ba .LASF1112
     /tmp/ccDRY82K.s:75923  .debug_str:000000000000a827 .LASF1113
     /tmp/ccDRY82K.s:74821  .debug_str:0000000000007c2f .LASF1114
     /tmp/ccDRY82K.s:75795  .debug_str:000000000000a3c1 .LASF1115
     /tmp/ccDRY82K.s:78817  .debug_str:00000000000122e7 .LASF1116
     /tmp/ccDRY82K.s:77623  .debug_str:000000000000f256 .LASF1117
     /tmp/ccDRY82K.s:76167  .debug_str:000000000000b13a .LASF1118
     /tmp/ccDRY82K.s:74515  .debug_str:0000000000006d9c .LASF1119
     /tmp/ccDRY82K.s:76937  .debug_str:000000000000d444 .LASF1120
     /tmp/ccDRY82K.s:75799  .debug_str:000000000000a3d4 .LASF1121
     /tmp/ccDRY82K.s:77471  .debug_str:000000000000eb7e .LASF1122
     /tmp/ccDRY82K.s:75893  .debug_str:000000000000a762 .LASF1123
     /tmp/ccDRY82K.s:75801  .debug_str:000000000000a3db .LASF1124
     /tmp/ccDRY82K.s:73049  .debug_str:0000000000003277 .LASF1125
     /tmp/ccDRY82K.s:74503  .debug_str:0000000000006d33 .LASF1126
     /tmp/ccDRY82K.s:75803  .debug_str:000000000000a3e2 .LASF1127
     /tmp/ccDRY82K.s:76203  .debug_str:000000000000b294 .LASF1128
     /tmp/ccDRY82K.s:75711  .debug_str:000000000000a078 .LASF1129
     /tmp/ccDRY82K.s:75805  .debug_str:000000000000a3e9 .LASF1130
     /tmp/ccDRY82K.s:78527  .debug_str:00000000000116b2 .LASF1131
     /tmp/ccDRY82K.s:75837  .debug_str:000000000000a4fc .LASF1132
     /tmp/ccDRY82K.s:75807  .debug_str:000000000000a3f0 .LASF1133
     /tmp/ccDRY82K.s:74785  .debug_str:0000000000007aa9 .LASF1134
     /tmp/ccDRY82K.s:78435  .debug_str:0000000000011309 .LASF1135
     /tmp/ccDRY82K.s:76177  .debug_str:000000000000b194 .LASF1136
     /tmp/ccDRY82K.s:77729  .debug_str:000000000000f6b5 .LASF1137
     /tmp/ccDRY82K.s:78437  .debug_str:0000000000011319 .LASF1138
     /tmp/ccDRY82K.s:75811  .debug_str:000000000000a404 .LASF1139
     /tmp/ccDRY82K.s:73311  .debug_str:0000000000003dc0 .LASF1140
     /tmp/ccDRY82K.s:74585  .debug_str:00000000000070e9 .LASF1141
     /tmp/ccDRY82K.s:75855  .debug_str:000000000000a5d8 .LASF1142
     /tmp/ccDRY82K.s:78023  .debug_str:000000000001035f .LASF1143
     /tmp/ccDRY82K.s:74963  .debug_str:0000000000008234 .LASF1144
     /tmp/ccDRY82K.s:75857  .debug_str:000000000000a5df .LASF1145
     /tmp/ccDRY82K.s:73573  .debug_str:00000000000048bd .LASF1146
     /tmp/ccDRY82K.s:74967  .debug_str:0000000000008271 .LASF1147
     /tmp/ccDRY82K.s:75859  .debug_str:000000000000a5e6 .LASF1148
     /tmp/ccDRY82K.s:76673  .debug_str:000000000000c90b .LASF1149
     /tmp/ccDRY82K.s:74999  .debug_str:00000000000083e4 .LASF1150
     /tmp/ccDRY82K.s:75861  .debug_str:000000000000a5ed .LASF1151
     /tmp/ccDRY82K.s:72305  .debug_str:00000000000012cc .LASF1152
     /tmp/ccDRY82K.s:72735  .debug_str:0000000000002473 .LASF1153
     /tmp/ccDRY82K.s:76635  .debug_str:000000000000c6fa .LASF1154
     /tmp/ccDRY82K.s:75317  .debug_str:000000000000917e .LASF1155
     /tmp/ccDRY82K.s:75395  .debug_str:0000000000009477 .LASF1156
     /tmp/ccDRY82K.s:75865  .debug_str:000000000000a5fe .LASF1157
     /tmp/ccDRY82K.s:78301  .debug_str:0000000000010d8b .LASF1158
     /tmp/ccDRY82K.s:72321  .debug_str:0000000000001390 .LASF1159
     /tmp/ccDRY82K.s:75867  .debug_str:000000000000a605 .LASF1160
     /tmp/ccDRY82K.s:73945  .debug_str:0000000000005527 .LASF1161
     /tmp/ccDRY82K.s:78329  .debug_str:0000000000010eb0 .LASF1162
     /tmp/ccDRY82K.s:75869  .debug_str:000000000000a60c .LASF1163
     /tmp/ccDRY82K.s:76941  .debug_str:000000000000d46a .LASF1164
     /tmp/ccDRY82K.s:73079  .debug_str:000000000000342c .LASF1165
     /tmp/ccDRY82K.s:75871  .debug_str:000000000000a613 .LASF1166
     /tmp/ccDRY82K.s:72547  .debug_str:0000000000001c6e .LASF1167
     /tmp/ccDRY82K.s:73087  .debug_str:000000000000345a .LASF1168
     /tmp/ccDRY82K.s:75873  .debug_str:000000000000a61a .LASF1169
     /tmp/ccDRY82K.s:75629  .debug_str:0000000000009d72 .LASF1170
     /tmp/ccDRY82K.s:72809  .debug_str:0000000000002875 .LASF1171
     /tmp/ccDRY82K.s:75909  .debug_str:000000000000a7eb .LASF1172
     /tmp/ccDRY82K.s:72751  .debug_str:000000000000253d .LASF1173
     /tmp/ccDRY82K.s:74701  .debug_str:0000000000007695 .LASF1174
     /tmp/ccDRY82K.s:75911  .debug_str:000000000000a7f2 .LASF1175
     /tmp/ccDRY82K.s:75847  .debug_str:000000000000a56e .LASF1176
     /tmp/ccDRY82K.s:74705  .debug_str:00000000000076bb .LASF1177
     /tmp/ccDRY82K.s:75913  .debug_str:000000000000a7f9 .LASF1178
     /tmp/ccDRY82K.s:78739  .debug_str:0000000000011f91 .LASF1179
     /tmp/ccDRY82K.s:78935  .debug_str:00000000000128b0 .LASF1180
     /tmp/ccDRY82K.s:75915  .debug_str:000000000000a800 .LASF1181
     /tmp/ccDRY82K.s:74439  .debug_str:0000000000006ae6 .LASF1182
     /tmp/ccDRY82K.s:77785  .debug_str:000000000000f957 .LASF1183
     /tmp/ccDRY82K.s:75917  .debug_str:000000000000a807 .LASF1184
     /tmp/ccDRY82K.s:77397  .debug_str:000000000000e8c4 .LASF1185
     /tmp/ccDRY82K.s:75289  .debug_str:0000000000009034 .LASF1186
     /tmp/ccDRY82K.s:76401  .debug_str:000000000000bbca .LASF1187
     /tmp/ccDRY82K.s:72993  .debug_str:0000000000003042 .LASF1188
     /tmp/ccDRY82K.s:75307  .debug_str:00000000000090f9 .LASF1189
     /tmp/ccDRY82K.s:75921  .debug_str:000000000000a820 .LASF1190
     /tmp/ccDRY82K.s:76141  .debug_str:000000000000b038 .LASF1191
     /tmp/ccDRY82K.s:79069  .debug_str:0000000000012df8 .LASF1192
     /tmp/ccDRY82K.s:76403  .debug_str:000000000000bbd1 .LASF1193
     /tmp/ccDRY82K.s:79001  .debug_str:0000000000012b76 .LASF1194
     /tmp/ccDRY82K.s:79073  .debug_str:0000000000012e50 .LASF1195
     /tmp/ccDRY82K.s:75925  .debug_str:000000000000a848 .LASF1196
     /tmp/ccDRY82K.s:74713  .debug_str:0000000000007721 .LASF1197
     /tmp/ccDRY82K.s:73395  .debug_str:0000000000004147 .LASF1198
     /tmp/ccDRY82K.s:75927  .debug_str:000000000000a84f .LASF1199
     /tmp/ccDRY82K.s:77661  .debug_str:000000000000f41f .LASF1200
     /tmp/ccDRY82K.s:74447  .debug_str:0000000000006b4b .LASF1201
     /tmp/ccDRY82K.s:75971  .debug_str:000000000000a9fe .LASF1202
     /tmp/ccDRY82K.s:73061  .debug_str:0000000000003329 .LASF1203
     /tmp/ccDRY82K.s:74451  .debug_str:0000000000006b73 .LASF1204
     /tmp/ccDRY82K.s:75973  .debug_str:000000000000aa05 .LASF1205
     /tmp/ccDRY82K.s:77869  .debug_str:000000000000fd3b .LASF1206
     /tmp/ccDRY82K.s:74697  .debug_str:0000000000007662 .LASF1207
     /tmp/ccDRY82K.s:75975  .debug_str:000000000000aa0c .LASF1208
     /tmp/ccDRY82K.s:73453  .debug_str:00000000000043ec .LASF1209
     /tmp/ccDRY82K.s:78289  .debug_str:0000000000010d38 .LASF1210
     /tmp/ccDRY82K.s:75977  .debug_str:000000000000aa13 .LASF1211
     /tmp/ccDRY82K.s:76563  .debug_str:000000000000c3bf .LASF1212
     /tmp/ccDRY82K.s:78291  .debug_str:0000000000010d47 .LASF1213
     /tmp/ccDRY82K.s:75979  .debug_str:000000000000aa1a .LASF1214
     /tmp/ccDRY82K.s:72147  .debug_str:0000000000000c85 .LASF1215
     /tmp/ccDRY82K.s:73823  .debug_str:0000000000005157 .LASF1216
     /tmp/ccDRY82K.s:75981  .debug_str:000000000000aa21 .LASF1217
     /tmp/ccDRY82K.s:75203  .debug_str:0000000000008bf5 .LASF1218
     /tmp/ccDRY82K.s:78269  .debug_str:0000000000010c8d .LASF1219
     /tmp/ccDRY82K.s:76503  .debug_str:000000000000c0fc .LASF1220
     /tmp/ccDRY82K.s:78155  .debug_str:00000000000108b2 .LASF1221
     /tmp/ccDRY82K.s:78271  .debug_str:0000000000010c9b .LASF1222
     /tmp/ccDRY82K.s:75985  .debug_str:000000000000aa35 .LASF1223
     /tmp/ccDRY82K.s:73775  .debug_str:0000000000004ff0 .LASF1224
     /tmp/ccDRY82K.s:77567  .debug_str:000000000000efa7 .LASF1225
     /tmp/ccDRY82K.s:75987  .debug_str:000000000000aa3c .LASF1226
     /tmp/ccDRY82K.s:76807  .debug_str:000000000000ce9a .LASF1227
     /tmp/ccDRY82K.s:74789  .debug_str:0000000000007ae6 .LASF1228
     /tmp/ccDRY82K.s:75989  .debug_str:000000000000aa43 .LASF1229
     /tmp/ccDRY82K.s:72435  .debug_str:00000000000017c4 .LASF1230
     /tmp/ccDRY82K.s:74791  .debug_str:0000000000007af4 .LASF1231
     /tmp/ccDRY82K.s:76045  .debug_str:000000000000ac98 .LASF1232
     /tmp/ccDRY82K.s:77039  .debug_str:000000000000d92b .LASF1233
     /tmp/ccDRY82K.s:77961  .debug_str:0000000000010150 .LASF1234
     /tmp/ccDRY82K.s:76047  .debug_str:000000000000ac9f .LASF1235
     /tmp/ccDRY82K.s:72629  .debug_str:0000000000001fed .LASF1236
     /tmp/ccDRY82K.s:76567  .debug_str:000000000000c3f0 .LASF1237
     /tmp/ccDRY82K.s:76049  .debug_str:000000000000aca6 .LASF1238
     /tmp/ccDRY82K.s:75723  .debug_str:000000000000a0dc .LASF1239
     /tmp/ccDRY82K.s:76571  .debug_str:000000000000c41c .LASF1240
     /tmp/ccDRY82K.s:76051  .debug_str:000000000000acad .LASF1241
     /tmp/ccDRY82K.s:78619  .debug_str:0000000000011ae9 .LASF1242
     /tmp/ccDRY82K.s:76705  .debug_str:000000000000cac1 .LASF1243
     /tmp/ccDRY82K.s:76053  .debug_str:000000000000acb4 .LASF1244
     /tmp/ccDRY82K.s:74307  .debug_str:00000000000064c9 .LASF1245
     /tmp/ccDRY82K.s:72971  .debug_str:0000000000002f20 .LASF1246
     /tmp/ccDRY82K.s:76055  .debug_str:000000000000acbb .LASF1247
     /tmp/ccDRY82K.s:77273  .debug_str:000000000000e2f5 .LASF1248
     /tmp/ccDRY82K.s:72975  .debug_str:0000000000002f3d .LASF1249
     /tmp/ccDRY82K.s:76057  .debug_str:000000000000acc2 .LASF1250
     /tmp/ccDRY82K.s:72871  .debug_str:0000000000002ada .LASF1251
     /tmp/ccDRY82K.s:72149  .debug_str:0000000000000ca6 .LASF1252
     /tmp/ccDRY82K.s:76059  .debug_str:000000000000acc9 .LASF1253
     /tmp/ccDRY82K.s:75993  .debug_str:000000000000aa57 .LASF1254
     /tmp/ccDRY82K.s:78915  .debug_str:00000000000127c9 .LASF1255
     /tmp/ccDRY82K.s:76061  .debug_str:000000000000acd0 .LASF1256
     /tmp/ccDRY82K.s:78885  .debug_str:000000000001260a .LASF1257
     /tmp/ccDRY82K.s:78725  .debug_str:0000000000011f0e .LASF1258
     /tmp/ccDRY82K.s:76063  .debug_str:000000000000acd7 .LASF1259
     /tmp/ccDRY82K.s:74587  .debug_str:00000000000070f7 .LASF1260
     /tmp/ccDRY82K.s:71961  .debug_str:00000000000005cd .LASF1261
     /tmp/ccDRY82K.s:76267  .debug_str:000000000000b5b1 .LASF1262
     /tmp/ccDRY82K.s:74941  .debug_str:0000000000008127 .LASF1263
     /tmp/ccDRY82K.s:71965  .debug_str:00000000000005f2 .LASF1264
     /tmp/ccDRY82K.s:72059  .debug_str:00000000000009d2 .LASF1265
     /tmp/ccDRY82K.s:77893  .debug_str:000000000000fe60 .LASF1266
     /tmp/ccDRY82K.s:79157  .debug_str:00000000000131b6 .LASF1267
     /tmp/ccDRY82K.s:72061  .debug_str:00000000000009d9 .LASF1268
     /tmp/ccDRY82K.s:73463  .debug_str:000000000000447e .LASF1269
     /tmp/ccDRY82K.s:75941  .debug_str:000000000000a8eb .LASF1270
     /tmp/ccDRY82K.s:72063  .debug_str:00000000000009e0 .LASF1271
     /tmp/ccDRY82K.s:76575  .debug_str:000000000000c437 .LASF1272
     /tmp/ccDRY82K.s:75945  .debug_str:000000000000a902 .LASF1273
     /tmp/ccDRY82K.s:72065  .debug_str:00000000000009e7 .LASF1274
     /tmp/ccDRY82K.s:72165  .debug_str:0000000000000d82 .LASF1275
     /tmp/ccDRY82K.s:77699  .debug_str:000000000000f58a .LASF1276
     /tmp/ccDRY82K.s:72067  .debug_str:00000000000009ee .LASF1277
     /tmp/ccDRY82K.s:75217  .debug_str:0000000000008cc8 .LASF1278
     /tmp/ccDRY82K.s:77703  .debug_str:000000000000f5a7 .LASF1279
     /tmp/ccDRY82K.s:76275  .debug_str:000000000000b5ea .LASF1280
     /tmp/ccDRY82K.s:77591  .debug_str:000000000000f0a5 .LASF1281
     /tmp/ccDRY82K.s:72269  .debug_str:00000000000011a5 .LASF1282
     /tmp/ccDRY82K.s:72069  .debug_str:00000000000009f5 .LASF1283
     /tmp/ccDRY82K.s:73809  .debug_str:00000000000050c7 .LASF1284
     /tmp/ccDRY82K.s:72087  .debug_str:0000000000000aab .LASF1285
     /tmp/ccDRY82K.s:72071  .debug_str:00000000000009fc .LASF1286
     /tmp/ccDRY82K.s:76827  .debug_str:000000000000cf92 .LASF1287
     /tmp/ccDRY82K.s:75373  .debug_str:00000000000093ba .LASF1288
     /tmp/ccDRY82K.s:72073  .debug_str:0000000000000a03 .LASF1289
     /tmp/ccDRY82K.s:72457  .debug_str:00000000000018cc .LASF1290
     /tmp/ccDRY82K.s:75587  .debug_str:0000000000009bf4 .LASF1291
     /tmp/ccDRY82K.s:72127  .debug_str:0000000000000c2d .LASF1292
     /tmp/ccDRY82K.s:77051  .debug_str:000000000000d9a5 .LASF1293
     /tmp/ccDRY82K.s:75591  .debug_str:0000000000009c30 .LASF1294
     /tmp/ccDRY82K.s:72129  .debug_str:0000000000000c34 .LASF1295
     /tmp/ccDRY82K.s:72645  .debug_str:00000000000020a9 .LASF1296
     /tmp/ccDRY82K.s:72041  .debug_str:000000000000091e .LASF1297
     /tmp/ccDRY82K.s:72131  .debug_str:0000000000000c3b .LASF1298
     /tmp/ccDRY82K.s:73417  .debug_str:0000000000004212 .LASF1299
     /tmp/ccDRY82K.s:71969  .debug_str:0000000000000622 .LASF1300
     /tmp/ccDRY82K.s:72133  .debug_str:0000000000000c42 .LASF1301
     /tmp/ccDRY82K.s:78635  .debug_str:0000000000011bb9 .LASF1302
     /tmp/ccDRY82K.s:71971  .debug_str:0000000000000631 .LASF1303
     /tmp/ccDRY82K.s:76383  .debug_str:000000000000bb15 .LASF1304
     /tmp/ccDRY82K.s:74319  .debug_str:000000000000657b .LASF1305
     /tmp/ccDRY82K.s:78509  .debug_str:0000000000011617 .LASF1306
     /tmp/ccDRY82K.s:72137  .debug_str:0000000000000c62 .LASF1307
     /tmp/ccDRY82K.s:77287  .debug_str:000000000000e399 .LASF1308
     /tmp/ccDRY82K.s:72759  .debug_str:0000000000002597 .LASF1309
     /tmp/ccDRY82K.s:72139  .debug_str:0000000000000c69 .LASF1310
     /tmp/ccDRY82K.s:72885  .debug_str:0000000000002b64 .LASF1311
     /tmp/ccDRY82K.s:75199  .debug_str:0000000000008be2 .LASF1312
     /tmp/ccDRY82K.s:72141  .debug_str:0000000000000c70 .LASF1313
     /tmp/ccDRY82K.s:76015  .debug_str:000000000000ab44 .LASF1314
     /tmp/ccDRY82K.s:72833  .debug_str:0000000000002958 .LASF1315
     /tmp/ccDRY82K.s:72143  .debug_str:0000000000000c77 .LASF1316
     /tmp/ccDRY82K.s:78895  .debug_str:00000000000126ea .LASF1317
     /tmp/ccDRY82K.s:74223  .debug_str:000000000000617d .LASF1318
     /tmp/ccDRY82K.s:72145  .debug_str:0000000000000c7e .LASF1319
     /tmp/ccDRY82K.s:74601  .debug_str:0000000000007174 .LASF1320
     /tmp/ccDRY82K.s:73133  .debug_str:000000000000361a .LASF1321
     /tmp/ccDRY82K.s:72209  .debug_str:0000000000000f42 .LASF1322
     /tmp/ccDRY82K.s:79089  .debug_str:0000000000012eee .LASF1323
     /tmp/ccDRY82K.s:78977  .debug_str:0000000000012a75 .LASF1324
     /tmp/ccDRY82K.s:72211  .debug_str:0000000000000f49 .LASF1325
     /tmp/ccDRY82K.s:74819  .debug_str:0000000000007c0e .LASF1326
     /tmp/ccDRY82K.s:78979  .debug_str:0000000000012a80 .LASF1327
     /tmp/ccDRY82K.s:72213  .debug_str:0000000000000f50 .LASF1328
     /tmp/ccDRY82K.s:77751  .debug_str:000000000000f7b4 .LASF1329
     /tmp/ccDRY82K.s:71929  .debug_str:0000000000000473 .LASF1330
     /tmp/ccDRY82K.s:72215  .debug_str:0000000000000f57 .LASF1331
     /tmp/ccDRY82K.s:73339  .debug_str:0000000000003f45 .LASF1332
     /tmp/ccDRY82K.s:77787  .debug_str:000000000000f965 .LASF1333
     /tmp/ccDRY82K.s:72217  .debug_str:0000000000000f5e .LASF1334
     /tmp/ccDRY82K.s:76475  .debug_str:000000000000bf97 .LASF1335
     /tmp/ccDRY82K.s:77781  .debug_str:000000000000f916 .LASF1336
     /tmp/ccDRY82K.s:72219  .debug_str:0000000000000f65 .LASF1337
     /tmp/ccDRY82K.s:72009  .debug_str:00000000000007d1 .LASF1338
     /tmp/ccDRY82K.s:73385  .debug_str:00000000000040f7 .LASF1339
     /tmp/ccDRY82K.s:72221  .debug_str:0000000000000f6c .LASF1340
     /tmp/ccDRY82K.s:75085  .debug_str:000000000000878c .LASF1341
     /tmp/ccDRY82K.s:78847  .debug_str:0000000000012447 .LASF1342
     /tmp/ccDRY82K.s:72223  .debug_str:0000000000000f73 .LASF1343
     /tmp/ccDRY82K.s:77955  .debug_str:000000000001010f .LASF1344
     /tmp/ccDRY82K.s:75025  .debug_str:0000000000008519 .LASF1345
     /tmp/ccDRY82K.s:72225  .debug_str:0000000000000f7a .LASF1346
     /tmp/ccDRY82K.s:75455  .debug_str:0000000000009711 .LASF1347
     /tmp/ccDRY82K.s:72591  .debug_str:0000000000001e1f .LASF1348
     /tmp/ccDRY82K.s:72227  .debug_str:0000000000000f81 .LASF1349
     /tmp/ccDRY82K.s:76695  .debug_str:000000000000ca3c .LASF1350
     /tmp/ccDRY82K.s:76193  .debug_str:000000000000b230 .LASF1351
     /tmp/ccDRY82K.s:72273  .debug_str:00000000000011d5 .LASF1352
     /tmp/ccDRY82K.s:78933  .debug_str:000000000001288f .LASF1353
     /tmp/ccDRY82K.s:75083  .debug_str:0000000000008781 .LASF1354
     /tmp/ccDRY82K.s:72275  .debug_str:00000000000011dc .LASF1355
     /tmp/ccDRY82K.s:76903  .debug_str:000000000000d301 .LASF1356
     /tmp/ccDRY82K.s:76863  .debug_str:000000000000d158 .LASF1357
     /tmp/ccDRY82K.s:72277  .debug_str:00000000000011e3 .LASF1358
     /tmp/ccDRY82K.s:72519  .debug_str:0000000000001b4d .LASF1359
     /tmp/ccDRY82K.s:78879  .debug_str:00000000000125e9 .LASF1360
     /tmp/ccDRY82K.s:72279  .debug_str:00000000000011ea .LASF1361
     /tmp/ccDRY82K.s:75595  .debug_str:0000000000009c58 .LASF1362
     /tmp/ccDRY82K.s:78881  .debug_str:00000000000125f4 .LASF1363
     /tmp/ccDRY82K.s:72281  .debug_str:00000000000011f1 .LASF1364
     /tmp/ccDRY82K.s:73555  .debug_str:00000000000047ff .LASF1365
     /tmp/ccDRY82K.s:78731  .debug_str:0000000000011f4c .LASF1366
     /tmp/ccDRY82K.s:72283  .debug_str:00000000000011f8 .LASF1367
     /tmp/ccDRY82K.s:74183  .debug_str:0000000000005fb4 .LASF1368
     /tmp/ccDRY82K.s:73767  .debug_str:0000000000004f9e .LASF1369
     /tmp/ccDRY82K.s:72285  .debug_str:00000000000011ff .LASF1370
     /tmp/ccDRY82K.s:77179  .debug_str:000000000000dee2 .LASF1371
     /tmp/ccDRY82K.s:73769  .debug_str:0000000000004faa .LASF1372
     /tmp/ccDRY82K.s:72287  .debug_str:0000000000001206 .LASF1373
     /tmp/ccDRY82K.s:72765  .debug_str:00000000000025eb .LASF1374
     /tmp/ccDRY82K.s:76787  .debug_str:000000000000ce04 .LASF1375
     /tmp/ccDRY82K.s:76585  .debug_str:000000000000c4c5 .LASF1376
     /tmp/ccDRY82K.s:75881  .debug_str:000000000000a679 .LASF1377
     /tmp/ccDRY82K.s:76789  .debug_str:000000000000ce0e .LASF1378
     /tmp/ccDRY82K.s:72291  .debug_str:000000000000122e .LASF1379
     /tmp/ccDRY82K.s:78757  .debug_str:0000000000012067 .LASF1380
     /tmp/ccDRY82K.s:76791  .debug_str:000000000000ce18 .LASF1381
     /tmp/ccDRY82K.s:72341  .debug_str:0000000000001456 .LASF1382
     /tmp/ccDRY82K.s:76115  .debug_str:000000000000aec9 .LASF1383
     /tmp/ccDRY82K.s:76793  .debug_str:000000000000ce22 .LASF1384
     /tmp/ccDRY82K.s:72343  .debug_str:000000000000145d .LASF1385
     /tmp/ccDRY82K.s:78973  .debug_str:0000000000012a30 .LASF1386
     /tmp/ccDRY82K.s:76003  .debug_str:000000000000aabf .LASF1387
     /tmp/ccDRY82K.s:72345  .debug_str:0000000000001464 .LASF1388
     /tmp/ccDRY82K.s:74677  .debug_str:0000000000007589 .LASF1389
     /tmp/ccDRY82K.s:73173  .debug_str:00000000000037aa .LASF1390
     /tmp/ccDRY82K.s:72347  .debug_str:000000000000146b .LASF1391
     /tmp/ccDRY82K.s:76499  .debug_str:000000000000c0b4 .LASF1392
     /tmp/ccDRY82K.s:73175  .debug_str:00000000000037b6 .LASF1393
     /tmp/ccDRY82K.s:72349  .debug_str:0000000000001472 .LASF1394
     /tmp/ccDRY82K.s:73231  .debug_str:0000000000003a3e .LASF1395
     /tmp/ccDRY82K.s:72011  .debug_str:00000000000007f2 .LASF1396
     /tmp/ccDRY82K.s:72351  .debug_str:0000000000001479 .LASF1397
     /tmp/ccDRY82K.s:78653  .debug_str:0000000000011c58 .LASF1398
     /tmp/ccDRY82K.s:73365  .debug_str:000000000000405c .LASF1399
     /tmp/ccDRY82K.s:72353  .debug_str:0000000000001480 .LASF1400
     /tmp/ccDRY82K.s:71885  .debug_str:0000000000000281 .LASF1401
     /tmp/ccDRY82K.s:73367  .debug_str:0000000000004066 .LASF1402
     /tmp/ccDRY82K.s:72355  .debug_str:0000000000001487 .LASF1403
     /tmp/ccDRY82K.s:74947  .debug_str:000000000000818c .LASF1404
     /tmp/ccDRY82K.s:73369  .debug_str:0000000000004070 .LASF1405
     /tmp/ccDRY82K.s:72357  .debug_str:000000000000148e .LASF1406
     /tmp/ccDRY82K.s:77899  .debug_str:000000000000fec8 .LASF1407
     /tmp/ccDRY82K.s:73371  .debug_str:000000000000407a .LASF1408
     /tmp/ccDRY82K.s:72359  .debug_str:0000000000001495 .LASF1409
     /tmp/ccDRY82K.s:73473  .debug_str:00000000000044da .LASF1410
     /tmp/ccDRY82K.s:75967  .debug_str:000000000000a9e4 .LASF1411
     /tmp/ccDRY82K.s:72407  .debug_str:000000000000167a .LASF1412
     /tmp/ccDRY82K.s:78131  .debug_str:0000000000010722 .LASF1413
     /tmp/ccDRY82K.s:77697  .debug_str:000000000000f57e .LASF1414
     /tmp/ccDRY82K.s:77939  .debug_str:00000000000100a2 .LASF1415
     /tmp/ccDRY82K.s:79061  .debug_str:0000000000012d94 .LASF1416
     /tmp/ccDRY82K.s:76247  .debug_str:000000000000b4ba .LASF1417
     /tmp/ccDRY82K.s:78659  .debug_str:0000000000011cb8 .LASF1418
     /tmp/ccDRY82K.s:74777  .debug_str:0000000000007a42 .LASF1419
     /tmp/ccDRY82K.s:77701  .debug_str:000000000000f59b .LASF1420
     /tmp/ccDRY82K.s:77943  .debug_str:00000000000100b3 .LASF1421
     /tmp/ccDRY82K.s:77717  .debug_str:000000000000f659 .LASF1422
     /tmp/ccDRY82K.s:77921  .debug_str:000000000000ffbf .LASF1423
     /tmp/ccDRY82K.s:78557  .debug_str:00000000000117ea .LASF1424
     /tmp/ccDRY82K.s:77029  .debug_str:000000000000d892 .LASF1425
     /tmp/ccDRY82K.s:72405  .debug_str:000000000000166e .LASF1426
     /tmp/ccDRY82K.s:78907  .debug_str:000000000001276d .LASF1427
     /tmp/ccDRY82K.s:74927  .debug_str:000000000000807a .LASF1428
     /tmp/ccDRY82K.s:78193  .debug_str:000000000001099a .LASF1429
     /tmp/ccDRY82K.s:76767  .debug_str:000000000000cd02 .LASF1430
     /tmp/ccDRY82K.s:76477  .debug_str:000000000000bfb8 .LASF1431
     /tmp/ccDRY82K.s:74613  .debug_str:0000000000007233 .LASF1432
     /tmp/ccDRY82K.s:73109  .debug_str:0000000000003513 .LASF1433
     /tmp/ccDRY82K.s:77907  .debug_str:000000000000ff32 .LASF1434
     /tmp/ccDRY82K.s:78129  .debug_str:0000000000010716 .LASF1435
     /tmp/ccDRY82K.s:74423  .debug_str:0000000000006a49 .LASF1436
     /tmp/ccDRY82K.s:73853  .debug_str:0000000000005294 .LASF1437
     /tmp/ccDRY82K.s:72819  .debug_str:00000000000028d1 .LASF1438
     /tmp/ccDRY82K.s:74151  .debug_str:0000000000005e40 .LASF1439
     /tmp/ccDRY82K.s:73481  .debug_str:0000000000004549 .LASF1440
     /tmp/ccDRY82K.s:78283  .debug_str:0000000000010d18 .LASF1441
     /tmp/ccDRY82K.s:77181  .debug_str:000000000000df03 .LASF1442
     /tmp/ccDRY82K.s:76133  .debug_str:000000000000af9a .LASF1443
     /tmp/ccDRY82K.s:76111  .debug_str:000000000000ae99 .LASF1444
     /tmp/ccDRY82K.s:73187  .debug_str:0000000000003843 .LASF1445
     /tmp/ccDRY82K.s:73135  .debug_str:0000000000003623 .LASF1446
     /tmp/ccDRY82K.s:73831  .debug_str:0000000000005190 .LASF1447
     /tmp/ccDRY82K.s:76507  .debug_str:000000000000c10f .LASF1448
     /tmp/ccDRY82K.s:74277  .debug_str:000000000000636a .LASF1449
     /tmp/ccDRY82K.s:75817  .debug_str:000000000000a422 .LASF1450
     /tmp/ccDRY82K.s:71895  .debug_str:00000000000002ff .LASF1451
     /tmp/ccDRY82K.s:76543  .debug_str:000000000000c2b0 .LASF1452
     /tmp/ccDRY82K.s:77761  .debug_str:000000000000f844 .LASF1453
     /tmp/ccDRY82K.s:75027  .debug_str:0000000000008529 .LASF1454
     /tmp/ccDRY82K.s:73295  .debug_str:0000000000003ced .LASF1455
     /tmp/ccDRY82K.s:76389  .debug_str:000000000000bb43 .LASF1456
     /tmp/ccDRY82K.s:73041  .debug_str:0000000000003222 .LASF1457
     /tmp/ccDRY82K.s:78825  .debug_str:0000000000012351 .LASF1458
     /tmp/ccDRY82K.s:74409  .debug_str:00000000000069ae .LASF1459
     /tmp/ccDRY82K.s:73637  .debug_str:0000000000004b08 .LASF1460
     /tmp/ccDRY82K.s:74837  .debug_str:0000000000007cf8 .LASF1461
     /tmp/ccDRY82K.s:72595  .debug_str:0000000000001e4c .LASF1462
     /tmp/ccDRY82K.s:77095  .debug_str:000000000000db7e .LASF1463
     /tmp/ccDRY82K.s:73427  .debug_str:0000000000004295 .LASF1464
     /tmp/ccDRY82K.s:75347  .debug_str:00000000000092f9 .LASF1465
     /tmp/ccDRY82K.s:77575  .debug_str:000000000000f014 .LASF1466
     /tmp/ccDRY82K.s:77233  .debug_str:000000000000e0ec .LASF1467
     /tmp/ccDRY82K.s:74817  .debug_str:0000000000007bff .LASF1468
     /tmp/ccDRY82K.s:72563  .debug_str:0000000000001d11 .LASF1469
     /tmp/ccDRY82K.s:78245  .debug_str:0000000000010b63 .LASF1470
     /tmp/ccDRY82K.s:75371  .debug_str:00000000000093a6 .LASF1471
     /tmp/ccDRY82K.s:75141  .debug_str:00000000000089ed .LASF1472
     /tmp/ccDRY82K.s:74135  .debug_str:0000000000005d75 .LASF1473
     /tmp/ccDRY82K.s:75245  .debug_str:0000000000008e36 .LASF1474
     /tmp/ccDRY82K.s:78331  .debug_str:0000000000010ebd .LASF1475
     /tmp/ccDRY82K.s:72911  .debug_str:0000000000002c6d .LASF1476
     /tmp/ccDRY82K.s:74933  .debug_str:00000000000080d3 .LASF1477
     /tmp/ccDRY82K.s:72565  .debug_str:0000000000001d1a .LASF1478
     /tmp/ccDRY82K.s:72889  .debug_str:0000000000002b90 .LASF1479
     /tmp/ccDRY82K.s:74553  .debug_str:0000000000006f5b .LASF1480
     /tmp/ccDRY82K.s:72899  .debug_str:0000000000002be2 .LASF1481
     /tmp/ccDRY82K.s:76587  .debug_str:000000000000c4cc .LASF1482
     /tmp/ccDRY82K.s:74699  .debug_str:000000000000766f .LASF1483
     /tmp/ccDRY82K.s:75579  .debug_str:0000000000009bc1 .LASF1484
     /tmp/ccDRY82K.s:74917  .debug_str:0000000000008037 .LASF1485
     /tmp/ccDRY82K.s:74293  .debug_str:0000000000006457 .LASF1486
     /tmp/ccDRY82K.s:73559  .debug_str:000000000000482b .LASF1487
     /tmp/ccDRY82K.s:71913  .debug_str:00000000000003ed .LASF1488
     /tmp/ccDRY82K.s:73799  .debug_str:0000000000005067 .LASF1489
     /tmp/ccDRY82K.s:72951  .debug_str:0000000000002e68 .LASF1490
     /tmp/ccDRY82K.s:72401  .debug_str:0000000000001653 .LASF1491
     /tmp/ccDRY82K.s:79023  .debug_str:0000000000012c57 .LASF1492
     /tmp/ccDRY82K.s:78423  .debug_str:0000000000011297 .LASF1493
     /tmp/ccDRY82K.s:71915  .debug_str:00000000000003f4 .LASF1494
     /tmp/ccDRY82K.s:76821  .debug_str:000000000000cf2e .LASF1495
     /tmp/ccDRY82K.s:72333  .debug_str:0000000000001408 .LASF1496
     /tmp/ccDRY82K.s:77447  .debug_str:000000000000eac3 .LASF1497
     /tmp/ccDRY82K.s:74667  .debug_str:00000000000074ec .LASF1498
     /tmp/ccDRY82K.s:78591  .debug_str:0000000000011985 .LASF1499
     /tmp/ccDRY82K.s:77449  .debug_str:000000000000ead1 .LASF1500
     /tmp/ccDRY82K.s:77625  .debug_str:000000000000f261 .LASF1501
     /tmp/ccDRY82K.s:76981  .debug_str:000000000000d63e .LASF1502
     /tmp/ccDRY82K.s:77451  .debug_str:000000000000eadf .LASF1503
     /tmp/ccDRY82K.s:73225  .debug_str:00000000000039f8 .LASF1504
     /tmp/ccDRY82K.s:72917  .debug_str:0000000000002cd2 .LASF1505
     /tmp/ccDRY82K.s:77453  .debug_str:000000000000eaed .LASF1506
     /tmp/ccDRY82K.s:76347  .debug_str:000000000000b993 .LASF1507
     /tmp/ccDRY82K.s:73181  .debug_str:00000000000037e0 .LASF1508
     /tmp/ccDRY82K.s:77455  .debug_str:000000000000eafb .LASF1509
     /tmp/ccDRY82K.s:71873  .debug_str:00000000000001f4 .LASF1510
     /tmp/ccDRY82K.s:74305  .debug_str:00000000000064ae .LASF1511
     /tmp/ccDRY82K.s:77457  .debug_str:000000000000eb09 .LASF1512
     /tmp/ccDRY82K.s:74935  .debug_str:00000000000080e3 .LASF1513
     /tmp/ccDRY82K.s:79025  .debug_str:0000000000012c64 .LASF1514
     /tmp/ccDRY82K.s:77459  .debug_str:000000000000eb17 .LASF1515
     /tmp/ccDRY82K.s:77885  .debug_str:000000000000fe02 .LASF1516
     /tmp/ccDRY82K.s:73101  .debug_str:00000000000034be .LASF1517
     /tmp/ccDRY82K.s:77473  .debug_str:000000000000eb9f .LASF1518
     /tmp/ccDRY82K.s:77475  .debug_str:000000000000ebb1 .LASF1519
     /tmp/ccDRY82K.s:77477  .debug_str:000000000000ebc3 .LASF1520
     /tmp/ccDRY82K.s:74681  .debug_str:00000000000075ce .LASF1521
     /tmp/ccDRY82K.s:72933  .debug_str:0000000000002d74 .LASF1522
     /tmp/ccDRY82K.s:77479  .debug_str:000000000000ebd5 .LASF1523
     /tmp/ccDRY82K.s:77481  .debug_str:000000000000ebe7 .LASF1524
     /tmp/ccDRY82K.s:77483  .debug_str:000000000000ebf9 .LASF1525
     /tmp/ccDRY82K.s:77485  .debug_str:000000000000ec0b .LASF1526
     /tmp/ccDRY82K.s:74683  .debug_str:00000000000075dd .LASF1527
     /tmp/ccDRY82K.s:76091  .debug_str:000000000000addf .LASF1528
     /tmp/ccDRY82K.s:72263  .debug_str:0000000000001131 .LASF1529
     /tmp/ccDRY82K.s:74239  .debug_str:0000000000006215 .LASF1530
     /tmp/ccDRY82K.s:78055  .debug_str:0000000000010451 .LASF1531
     /tmp/ccDRY82K.s:72873  .debug_str:0000000000002afb .LASF1532
     /tmp/ccDRY82K.s:76857  .debug_str:000000000000d108 .LASF1533
     /tmp/ccDRY82K.s:73635  .debug_str:0000000000004ade .LASF1534
     /tmp/ccDRY82K.s:74049  .debug_str:00000000000059db .LASF1535
     /tmp/ccDRY82K.s:76233  .debug_str:000000000000b3dd .LASF1536
     /tmp/ccDRY82K.s:75459  .debug_str:000000000000975b .LASF1537
     /tmp/ccDRY82K.s:79051  .debug_str:0000000000012d1b .LASF1538
     /tmp/ccDRY82K.s:79049  .debug_str:0000000000012d09 .LASF1539
     /tmp/ccDRY82K.s:74795  .debug_str:0000000000007b33 .LASF1540
     /tmp/ccDRY82K.s:71931  .debug_str:0000000000000483 .LASF1541
     /tmp/ccDRY82K.s:72567  .debug_str:0000000000001d2a .LASF1542
     /tmp/ccDRY82K.s:75583  .debug_str:0000000000009bd9 .LASF1543
     /tmp/ccDRY82K.s:78953  .debug_str:0000000000012974 .LASF1544
     /tmp/ccDRY82K.s:75507  .debug_str:000000000000994f .LASF1545
     /tmp/ccDRY82K.s:72517  .debug_str:0000000000001b35 .LASF1546
     /tmp/ccDRY82K.s:75717  .debug_str:000000000000a0b1 .LASF1547
     /tmp/ccDRY82K.s:72521  .debug_str:0000000000001b6e .LASF1548
     /tmp/ccDRY82K.s:74107  .debug_str:0000000000005c25 .LASF1549
     /tmp/ccDRY82K.s:75131  .debug_str:0000000000008964 .LASF1550
     /tmp/ccDRY82K.s:76641  .debug_str:000000000000c737 .LASF1551
     /tmp/ccDRY82K.s:72525  .debug_str:0000000000001b95 .LASF1552
     /tmp/ccDRY82K.s:73743  .debug_str:0000000000004e4d .LASF1553
     /tmp/ccDRY82K.s:72395  .debug_str:0000000000001600 .LASF1554
     /tmp/ccDRY82K.s:73747  .debug_str:0000000000004e8b .LASF1555
     /tmp/ccDRY82K.s:73749  .debug_str:0000000000004ea9 .LASF1556
     /tmp/ccDRY82K.s:73751  .debug_str:0000000000004ec7 .LASF1557
     /tmp/ccDRY82K.s:73997  .debug_str:00000000000057dd .LASF1558
     /tmp/ccDRY82K.s:76219  .debug_str:000000000000b359 .LASF1559
     /tmp/ccDRY82K.s:76221  .debug_str:000000000000b376 .LASF1560
     /tmp/ccDRY82K.s:78311  .debug_str:0000000000010df3 .LASF1561
     /tmp/ccDRY82K.s:76227  .debug_str:000000000000b3a4 .LASF1562
     /tmp/ccDRY82K.s:72045  .debug_str:0000000000000932 .LASF1563
     /tmp/ccDRY82K.s:72047  .debug_str:000000000000094c .LASF1564
     /tmp/ccDRY82K.s:78377  .debug_str:00000000000110a7 .LASF1565
     /tmp/ccDRY82K.s:72051  .debug_str:000000000000098a .LASF1566
     /tmp/ccDRY82K.s:72053  .debug_str:00000000000009a4 .LASF1567
     /tmp/ccDRY82K.s:78955  .debug_str:0000000000012983 .LASF1568
     /tmp/ccDRY82K.s:76361  .debug_str:000000000000ba44 .LASF1569
     /tmp/ccDRY82K.s:75133  .debug_str:000000000000897c .LASF1570
     /tmp/ccDRY82K.s:72245  .debug_str:0000000000001037 .LASF1571
     /tmp/ccDRY82K.s:77487  .debug_str:000000000000ec1d .LASF1572
     /tmp/ccDRY82K.s:79097  .debug_str:0000000000012f73 .LASF1573
     /tmp/ccDRY82K.s:79099  .debug_str:0000000000012f90 .LASF1574
     /tmp/ccDRY82K.s:79101  .debug_str:0000000000012fad .LASF1575
     /tmp/ccDRY82K.s:74733  .debug_str:00000000000077d4 .LASF1576
     /tmp/ccDRY82K.s:74373  .debug_str:00000000000067e9 .LASF1577
     /tmp/ccDRY82K.s:79103  .debug_str:0000000000012fca .LASF1578
     /tmp/ccDRY82K.s:73315  .debug_str:0000000000003df8 .LASF1579
     /tmp/ccDRY82K.s:73317  .debug_str:0000000000003e1b .LASF1580
     /tmp/ccDRY82K.s:73319  .debug_str:0000000000003e3e .LASF1581
     /tmp/ccDRY82K.s:73321  .debug_str:0000000000003e61 .LASF1582
     /tmp/ccDRY82K.s:73323  .debug_str:0000000000003e84 .LASF1583
     /tmp/ccDRY82K.s:72983  .debug_str:0000000000002f98 .LASF1584
     /tmp/ccDRY82K.s:72985  .debug_str:0000000000002fba .LASF1585
     /tmp/ccDRY82K.s:72987  .debug_str:0000000000002fdc .LASF1586
     /tmp/ccDRY82K.s:72989  .debug_str:0000000000002ffe .LASF1587
     /tmp/ccDRY82K.s:72991  .debug_str:0000000000003020 .LASF1588
     /tmp/ccDRY82K.s:75441  .debug_str:000000000000965f .LASF1589
     /tmp/ccDRY82K.s:75443  .debug_str:000000000000967e .LASF1590
     /tmp/ccDRY82K.s:75113  .debug_str:00000000000088f6 .LASF1591
     /tmp/ccDRY82K.s:75447  .debug_str:00000000000096a5 .LASF1592
     /tmp/ccDRY82K.s:75449  .debug_str:00000000000096c4 .LASF1593
     /tmp/ccDRY82K.s:78843  .debug_str:0000000000012401 .LASF1594
     /tmp/ccDRY82K.s:78913  .debug_str:00000000000127ad .LASF1595
     /tmp/ccDRY82K.s:75033  .debug_str:0000000000008557 .LASF1596
     /tmp/ccDRY82K.s:77331  .debug_str:000000000000e59d .LASF1597
     /tmp/ccDRY82K.s:74513  .debug_str:0000000000006d84 .LASF1598
     /tmp/ccDRY82K.s:74977  .debug_str:00000000000082e6 .LASF1599
     /tmp/ccDRY82K.s:74517  .debug_str:0000000000006dbd .LASF1600
     /tmp/ccDRY82K.s:74981  .debug_str:000000000000830b .LASF1601
     /tmp/ccDRY82K.s:77267  .debug_str:000000000000e2ae .LASF1602
     /tmp/ccDRY82K.s:77861  .debug_str:000000000000fcc1 .LASF1603
     /tmp/ccDRY82K.s:74983  .debug_str:0000000000008323 .LASF1604
     /tmp/ccDRY82K.s:76289  .debug_str:000000000000b684 .LASF1605
     /tmp/ccDRY82K.s:76291  .debug_str:000000000000b6a2 .LASF1606
     /tmp/ccDRY82K.s:76293  .debug_str:000000000000b6c0 .LASF1607
     /tmp/ccDRY82K.s:76295  .debug_str:000000000000b6de .LASF1608
     /tmp/ccDRY82K.s:76297  .debug_str:000000000000b6fc .LASF1609
     /tmp/ccDRY82K.s:76459  .debug_str:000000000000beac .LASF1610
     /tmp/ccDRY82K.s:76569  .debug_str:000000000000c3ff .LASF1611
     /tmp/ccDRY82K.s:76463  .debug_str:000000000000bef0 .LASF1612
     /tmp/ccDRY82K.s:76465  .debug_str:000000000000bf0d .LASF1613
     /tmp/ccDRY82K.s:76467  .debug_str:000000000000bf2a .LASF1614
     /tmp/ccDRY82K.s:78741  .debug_str:0000000000011fb2 .LASF1615
     /tmp/ccDRY82K.s:74555  .debug_str:0000000000006f82 .LASF1616
     /tmp/ccDRY82K.s:74557  .debug_str:0000000000006f9c .LASF1617
     /tmp/ccDRY82K.s:74559  .debug_str:0000000000006fb6 .LASF1618
     /tmp/ccDRY82K.s:74561  .debug_str:0000000000006fd0 .LASF1619
     /tmp/ccDRY82K.s:75091  .debug_str:00000000000087cc .LASF1620
     /tmp/ccDRY82K.s:78153  .debug_str:000000000001089b .LASF1621
     /tmp/ccDRY82K.s:77269  .debug_str:000000000000e2c6 .LASF1622
     /tmp/ccDRY82K.s:73951  .debug_str:000000000000558b .LASF1623
     /tmp/ccDRY82K.s:78533  .debug_str:00000000000116f1 .LASF1624
     /tmp/ccDRY82K.s:78787  .debug_str:00000000000121aa .LASF1625
     /tmp/ccDRY82K.s:78537  .debug_str:000000000001170f .LASF1626
     /tmp/ccDRY82K.s:78539  .debug_str:0000000000011726 .LASF1627
     /tmp/ccDRY82K.s:78793  .debug_str:00000000000121cf .LASF1628
     /tmp/ccDRY82K.s:78141  .debug_str:00000000000107d8 .LASF1629
     /tmp/ccDRY82K.s:78541  .debug_str:000000000001173d .LASF1630
     /tmp/ccDRY82K.s:72445  .debug_str:0000000000001823 .LASF1631
     /tmp/ccDRY82K.s:72447  .debug_str:0000000000001840 .LASF1632
     /tmp/ccDRY82K.s:72449  .debug_str:000000000000185d .LASF1633
     /tmp/ccDRY82K.s:72451  .debug_str:000000000000187a .LASF1634
     /tmp/ccDRY82K.s:72453  .debug_str:0000000000001897 .LASF1635
     /tmp/ccDRY82K.s:78251  .debug_str:0000000000010bbd .LASF1636
     /tmp/ccDRY82K.s:78253  .debug_str:0000000000010bd9 .LASF1637
     /tmp/ccDRY82K.s:78255  .debug_str:0000000000010bf5 .LASF1638
     /tmp/ccDRY82K.s:78257  .debug_str:0000000000010c11 .LASF1639
     /tmp/ccDRY82K.s:78259  .debug_str:0000000000010c2d .LASF1640
     /tmp/ccDRY82K.s:76413  .debug_str:000000000000bc4f .LASF1641
     /tmp/ccDRY82K.s:76415  .debug_str:000000000000bc68 .LASF1642
     /tmp/ccDRY82K.s:76417  .debug_str:000000000000bc81 .LASF1643
     /tmp/ccDRY82K.s:76419  .debug_str:000000000000bc9a .LASF1644
     /tmp/ccDRY82K.s:76421  .debug_str:000000000000bcb3 .LASF1645
     /tmp/ccDRY82K.s:78875  .debug_str:00000000000125ca .LASF1646
     /tmp/ccDRY82K.s:76815  .debug_str:000000000000ceeb .LASF1647
     /tmp/ccDRY82K.s:73301  .debug_str:0000000000003d3d .LASF1648
     /tmp/ccDRY82K.s:76611  .debug_str:000000000000c5d4 .LASF1649
     /tmp/ccDRY82K.s:77025  .debug_str:000000000000d84c .LASF1650
     /tmp/ccDRY82K.s:77027  .debug_str:000000000000d86f .LASF1651
     /tmp/ccDRY82K.s:77189  .debug_str:000000000000df40 .LASF1652
     /tmp/ccDRY82K.s:77031  .debug_str:000000000000d89d .LASF1653
     /tmp/ccDRY82K.s:77033  .debug_str:000000000000d8c0 .LASF1654
     /tmp/ccDRY82K.s:76607  .debug_str:000000000000c5a3 .LASF1655
     /tmp/ccDRY82K.s:76259  .debug_str:000000000000b533 .LASF1656
     /tmp/ccDRY82K.s:76117  .debug_str:000000000000aeea .LASF1657
     /tmp/ccDRY82K.s:75407  .debug_str:00000000000094dd .LASF1658
     /tmp/ccDRY82K.s:75409  .debug_str:0000000000009501 .LASF1659
     /tmp/ccDRY82K.s:75411  .debug_str:0000000000009525 .LASF1660
     /tmp/ccDRY82K.s:77321  .debug_str:000000000000e4f7 .LASF1661
     /tmp/ccDRY82K.s:75415  .debug_str:0000000000009550 .LASF1662
     /tmp/ccDRY82K.s:73227  .debug_str:0000000000003a20 .LASF1663
     /tmp/ccDRY82K.s:72977  .debug_str:0000000000002f4c .LASF1664
     /tmp/ccDRY82K.s:73071  .debug_str:00000000000033d5 .LASF1665
     /tmp/ccDRY82K.s:77619  .debug_str:000000000000f1fc .LASF1666
     /tmp/ccDRY82K.s:74885  .debug_str:0000000000007f0c .LASF1667
     /tmp/ccDRY82K.s:72207  .debug_str:0000000000000f2d .LASF1668
     /tmp/ccDRY82K.s:74113  .debug_str:0000000000005c81 .LASF1669
     /tmp/ccDRY82K.s:76041  .debug_str:000000000000ac5a .LASF1670
     /tmp/ccDRY82K.s:72753  .debug_str:000000000000255e .LASF1671
     /tmp/ccDRY82K.s:73377  .debug_str:000000000000409e .LASF1672
     /tmp/ccDRY82K.s:72501  .debug_str:0000000000001a9e .LASF1673
     /tmp/ccDRY82K.s:76479  .debug_str:000000000000bfbd .LASF1674
     /tmp/ccDRY82K.s:77897  .debug_str:000000000000fe97 .LASF1675
     /tmp/ccDRY82K.s:76229  .debug_str:000000000000b3c1 .LASF1676
     /tmp/ccDRY82K.s:77929  .debug_str:000000000001002c .LASF1677
     /tmp/ccDRY82K.s:74155  .debug_str:0000000000005e64 .LASF1678
     /tmp/ccDRY82K.s:77499  .debug_str:000000000000ecb3 .LASF1679
     /tmp/ccDRY82K.s:76851  .debug_str:000000000000d0a4 .LASF1680
     /tmp/ccDRY82K.s:78149  .debug_str:0000000000010872 .LASF1681
     /tmp/ccDRY82K.s:78335  .debug_str:0000000000010eec .LASF1682
     /tmp/ccDRY82K.s:74497  .debug_str:0000000000006d05 .LASF1683
     /tmp/ccDRY82K.s:74053  .debug_str:0000000000005a13 .LASF1684
     /tmp/ccDRY82K.s:76481  .debug_str:000000000000bfd4 .LASF1685
     /tmp/ccDRY82K.s:76485  .debug_str:000000000000c013 .LASF1686
     /tmp/ccDRY82K.s:77525  .debug_str:000000000000ee05 .LASF1687
     /tmp/ccDRY82K.s:76491  .debug_str:000000000000c053 .LASF1688
     /tmp/ccDRY82K.s:77245  .debug_str:000000000000e1a5 .LASF1689
     /tmp/ccDRY82K.s:78095  .debug_str:000000000001060b .LASF1690
     /tmp/ccDRY82K.s:72191  .debug_str:0000000000000e67 .LASF1691
     /tmp/ccDRY82K.s:77247  .debug_str:000000000000e1c1 .LASF1692
     /tmp/ccDRY82K.s:73675  .debug_str:0000000000004c69 .LASF1693
     /tmp/ccDRY82K.s:73673  .debug_str:0000000000004c4c .LASF1694
     /tmp/ccDRY82K.s:74351  .debug_str:00000000000066e2 .LASF1695
     /tmp/ccDRY82K.s:74353  .debug_str:00000000000066ff .LASF1696
     /tmp/ccDRY82K.s:74355  .debug_str:000000000000671c .LASF1697
     /tmp/ccDRY82K.s:74357  .debug_str:0000000000006739 .LASF1698
     /tmp/ccDRY82K.s:73131  .debug_str:000000000000360b .LASF1699
     /tmp/ccDRY82K.s:77237  .debug_str:000000000000e13a .LASF1700
     /tmp/ccDRY82K.s:75285  .debug_str:0000000000009001 .LASF1701
     /tmp/ccDRY82K.s:74655  .debug_str:0000000000007457 .LASF1702
     /tmp/ccDRY82K.s:79057  .debug_str:0000000000012d6e .LASF1703
     /tmp/ccDRY82K.s:75991  .debug_str:000000000000aa4a .LASF1704
     /tmp/ccDRY82K.s:77617  .debug_str:000000000000f1d5 .LASF1705
     /tmp/ccDRY82K.s:75247  .debug_str:0000000000008e54 .LASF1706
     /tmp/ccDRY82K.s:75249  .debug_str:0000000000008e70 .LASF1707
     /tmp/ccDRY82K.s:75251  .debug_str:0000000000008e8c .LASF1708
     /tmp/ccDRY82K.s:75253  .debug_str:0000000000008ea8 .LASF1709
     /tmp/ccDRY82K.s:72469  .debug_str:000000000000194c .LASF1710
     /tmp/ccDRY82K.s:73983  .debug_str:0000000000005718 .LASF1711
     /tmp/ccDRY82K.s:75255  .debug_str:0000000000008ec4 .LASF1712
     /tmp/ccDRY82K.s:74995  .debug_str:00000000000083c0 .LASF1713
     /tmp/ccDRY82K.s:72657  .debug_str:0000000000002128 .LASF1714
     /tmp/ccDRY82K.s:73329  .debug_str:0000000000003ee1 .LASF1715
     /tmp/ccDRY82K.s:76917  .debug_str:000000000000d391 .LASF1716
     /tmp/ccDRY82K.s:73803  .debug_str:000000000000509c .LASF1717
     /tmp/ccDRY82K.s:79091  .debug_str:0000000000012f0f .LASF1718
     /tmp/ccDRY82K.s:73947  .debug_str:0000000000005548 .LASF1719
     /tmp/ccDRY82K.s:78451  .debug_str:0000000000011371 .LASF1720
     /tmp/ccDRY82K.s:76589  .debug_str:000000000000c4d8 .LASF1721
     /tmp/ccDRY82K.s:78651  .debug_str:0000000000011c4a .LASF1722
     /tmp/ccDRY82K.s:76969  .debug_str:000000000000d5b0 .LASF1723
     /tmp/ccDRY82K.s:72839  .debug_str:0000000000002991 .LASF1724
     /tmp/ccDRY82K.s:71871  .debug_str:00000000000001e0 .LASF1725
     /tmp/ccDRY82K.s:75111  .debug_str:00000000000088e3 .LASF1726
     /tmp/ccDRY82K.s:75813  .debug_str:000000000000a40b .LASF1727
     /tmp/ccDRY82K.s:77867  .debug_str:000000000000fd12 .LASF1728
     /tmp/ccDRY82K.s:77427  .debug_str:000000000000e9ef .LASF1729
     /tmp/ccDRY82K.s:74385  .debug_str:00000000000068b0 .LASF1730
     /tmp/ccDRY82K.s:75375  .debug_str:00000000000093cb .LASF1731
     /tmp/ccDRY82K.s:77333  .debug_str:000000000000e5d4 .LASF1732
     /tmp/ccDRY82K.s:77113  .debug_str:000000000000dc2a .LASF1733
     /tmp/ccDRY82K.s:73805  .debug_str:00000000000050ae .LASF1734
     /tmp/ccDRY82K.s:73327  .debug_str:0000000000003ed4 .LASF1735
     /tmp/ccDRY82K.s:73755  .debug_str:0000000000004f01 .LASF1736
     /tmp/ccDRY82K.s:76833  .debug_str:000000000000cfea .LASF1737
     /tmp/ccDRY82K.s:74629  .debug_str:00000000000072c8 .LASF1738
     /tmp/ccDRY82K.s:78681  .debug_str:0000000000011d4c .LASF1739
     /tmp/ccDRY82K.s:77307  .debug_str:000000000000e47e .LASF1740
     /tmp/ccDRY82K.s:73475  .debug_str:00000000000044fb .LASF1741
     /tmp/ccDRY82K.s:77801  .debug_str:000000000000f9de .LASF1742
     /tmp/ccDRY82K.s:73307  .debug_str:0000000000003d8f .LASF1743
     /tmp/ccDRY82K.s:76025  .debug_str:000000000000abd1 .LASF1744
     /tmp/ccDRY82K.s:77805  .debug_str:000000000000fa17 .LASF1745
     /tmp/ccDRY82K.s:78071  .debug_str:00000000000104ff .LASF1746
     /tmp/ccDRY82K.s:72623  .debug_str:0000000000001fbc .LASF1747
     /tmp/ccDRY82K.s:75835  .debug_str:000000000000a4f1 .LASF1748
     /tmp/ccDRY82K.s:78531  .debug_str:00000000000116e6 .LASF1749
     /tmp/ccDRY82K.s:73621  .debug_str:0000000000004a41 .LASF1750
     /tmp/ccDRY82K.s:76523  .debug_str:000000000000c1c9 .LASF1751
     /tmp/ccDRY82K.s:72913  .debug_str:0000000000002c97 .LASF1752
     /tmp/ccDRY82K.s:72895  .debug_str:0000000000002bb7 .LASF1753
     /tmp/ccDRY82K.s:73625  .debug_str:0000000000004a69 .LASF1754
     /tmp/ccDRY82K.s:74685  .debug_str:00000000000075ec .LASF1755
     /tmp/ccDRY82K.s:74367  .debug_str:00000000000067b0 .LASF1756
     /tmp/ccDRY82K.s:72677  .debug_str:00000000000021ff .LASF1757
     /tmp/ccDRY82K.s:73259  .debug_str:0000000000003b99 .LASF1758
     /tmp/ccDRY82K.s:72927  .debug_str:0000000000002d36 .LASF1759
     /tmp/ccDRY82K.s:77169  .debug_str:000000000000de56 .LASF1760
     /tmp/ccDRY82K.s:73123  .debug_str:000000000000359e .LASF1761
     /tmp/ccDRY82K.s:77165  .debug_str:000000000000de24 .LASF1762
     /tmp/ccDRY82K.s:73121  .debug_str:0000000000003585 .LASF1763
     /tmp/ccDRY82K.s:76605  .debug_str:000000000000c598 .LASF1764
     /tmp/ccDRY82K.s:75259  .debug_str:0000000000008eef .LASF1765
     /tmp/ccDRY82K.s:78381  .debug_str:00000000000110f0 .LASF1766
     /tmp/ccDRY82K.s:72425  .debug_str:000000000000175d .LASF1767
     /tmp/ccDRY82K.s:76331  .debug_str:000000000000b8bc .LASF1768
     /tmp/ccDRY82K.s:76525  .debug_str:000000000000c1d4 .LASF1769
     /tmp/ccDRY82K.s:74123  .debug_str:0000000000005ceb .LASF1770
     /tmp/ccDRY82K.s:75089  .debug_str:00000000000087be .LASF1771
     /tmp/ccDRY82K.s:75435  .debug_str:0000000000009637 .LASF1772
     /tmp/ccDRY82K.s:75647  .debug_str:0000000000009e8e .LASF1773
     /tmp/ccDRY82K.s:74029  .debug_str:00000000000058dd .LASF1774
     /tmp/ccDRY82K.s:75229  .debug_str:0000000000008d8a .LASF1775
     /tmp/ccDRY82K.s:78025  .debug_str:0000000000010380 .LASF1776
     /tmp/ccDRY82K.s:75769  .debug_str:000000000000a293 .LASF1777
     /tmp/ccDRY82K.s:76183  .debug_str:000000000000b1c2 .LASF1778
     /tmp/ccDRY82K.s:78457  .debug_str:00000000000113be .LASF1779
     /tmp/ccDRY82K.s:78327  .debug_str:0000000000010ea2 .LASF1780
     /tmp/ccDRY82K.s:73589  .debug_str:0000000000004969 .LASF1781
     /tmp/ccDRY82K.s:74971  .debug_str:00000000000082a7 .LASF1782
     /tmp/ccDRY82K.s:71983  .debug_str:00000000000006db .LASF1783
     /tmp/ccDRY82K.s:77085  .debug_str:000000000000db2a .LASF1784
     /tmp/ccDRY82K.s:72837  .debug_str:0000000000002980 .LASF1785
     /tmp/ccDRY82K.s:73299  .debug_str:0000000000003d2a .LASF1786
     /tmp/ccDRY82K.s:76169  .debug_str:000000000000b141 .LASF1787
     /tmp/ccDRY82K.s:78309  .debug_str:0000000000010dde .LASF1788
     /tmp/ccDRY82K.s:75263  .debug_str:0000000000008f22 .LASF1789
     /tmp/ccDRY82K.s:72411  .debug_str:0000000000001691 .LASF1790
     /tmp/ccDRY82K.s:77395  .debug_str:000000000000e8b6 .LASF1791
     /tmp/ccDRY82K.s:75105  .debug_str:00000000000088b9 .LASF1792
     /tmp/ccDRY82K.s:78125  .debug_str:00000000000106f3 .LASF1793
     /tmp/ccDRY82K.s:77821  .debug_str:000000000000faac .LASF1794
     /tmp/ccDRY82K.s:74455  .debug_str:0000000000006b8e .LASF1795
     /tmp/ccDRY82K.s:74595  .debug_str:000000000000714a .LASF1796
     /tmp/ccDRY82K.s:77093  .debug_str:000000000000db6d .LASF1797
     /tmp/ccDRY82K.s:78733  .debug_str:0000000000011f58 .LASF1798
     /tmp/ccDRY82K.s:76497  .debug_str:000000000000c0a6 .LASF1799
     /tmp/ccDRY82K.s:75087  .debug_str:00000000000087ad .LASF1800
     /tmp/ccDRY82K.s:72529  .debug_str:0000000000001bcd .LASF1801
     /tmp/ccDRY82K.s:73899  .debug_str:00000000000053e4 .LASF1802
     /tmp/ccDRY82K.s:74487  .debug_str:0000000000006c9a .LASF1803
     /tmp/ccDRY82K.s:76597  .debug_str:000000000000c53d .LASF1804
     /tmp/ccDRY82K.s:76187  .debug_str:000000000000b1f7 .LASF1805
     /tmp/ccDRY82K.s:73043  .debug_str:000000000000322d .LASF1806
     /tmp/ccDRY82K.s:74943  .debug_str:0000000000008148 .LASF1807
     /tmp/ccDRY82K.s:74811  .debug_str:0000000000007bb1 .LASF1808
     /tmp/ccDRY82K.s:74731  .debug_str:00000000000077c1 .LASF1809
     /tmp/ccDRY82K.s:74087  .debug_str:0000000000005b25 .LASF1810
     /tmp/ccDRY82K.s:75519  .debug_str:00000000000099de .LASF1811
     /tmp/ccDRY82K.s:74869  .debug_str:0000000000007e17 .LASF1812
     /tmp/ccDRY82K.s:74221  .debug_str:000000000000616f .LASF1813
     /tmp/ccDRY82K.s:77077  .debug_str:000000000000daec .LASF1814
     /tmp/ccDRY82K.s:76019  .debug_str:000000000000ab6c .LASF1815
     /tmp/ccDRY82K.s:72995  .debug_str:0000000000003063 .LASF1816
     /tmp/ccDRY82K.s:78823  .debug_str:0000000000012344 .LASF1817
     /tmp/ccDRY82K.s:75075  .debug_str:0000000000008700 .LASF1818
     /tmp/ccDRY82K.s:74715  .debug_str:0000000000007742 .LASF1819
     /tmp/ccDRY82K.s:77797  .debug_str:000000000000f9c3 .LASF1820
     /tmp/ccDRY82K.s:76599  .debug_str:000000000000c546 .LASF1821
     /tmp/ccDRY82K.s:72107  .debug_str:0000000000000b86 .LASF1822
     /tmp/ccDRY82K.s:76407  .debug_str:000000000000bc18 .LASF1823
     /tmp/ccDRY82K.s:72103  .debug_str:0000000000000b5e .LASF1824
     /tmp/ccDRY82K.s:78439  .debug_str:0000000000011329 .LASF1825
     /tmp/ccDRY82K.s:74097  .debug_str:0000000000005ba4 .LASF1826
     /tmp/ccDRY82K.s:76101  .debug_str:000000000000ae39 .LASF1827
     /tmp/ccDRY82K.s:72077  .debug_str:0000000000000a1c .LASF1828
     /tmp/ccDRY82K.s:73195  .debug_str:0000000000003883 .LASF1829
     /tmp/ccDRY82K.s:75969  .debug_str:000000000000a9ec .LASF1830
     /tmp/ccDRY82K.s:74901  .debug_str:0000000000007fc7 .LASF1831
     /tmp/ccDRY82K.s:77819  .debug_str:000000000000fa89 .LASF1832
     /tmp/ccDRY82K.s:75929  .debug_str:000000000000a856 .LASF1833
     /tmp/ccDRY82K.s:74317  .debug_str:000000000000656d .LASF1834
     /tmp/ccDRY82K.s:76387  .debug_str:000000000000bb35 .LASF1835
     /tmp/ccDRY82K.s:73073  .debug_str:00000000000033eb .LASF1836
     /tmp/ccDRY82K.s:74799  .debug_str:0000000000007b5b .LASF1837
     /tmp/ccDRY82K.s:72961  .debug_str:0000000000002ecd .LASF1838
     /tmp/ccDRY82K.s:72409  .debug_str:0000000000001681 .LASF1839
     /tmp/ccDRY82K.s:73343  .debug_str:0000000000003f78 .LASF1840
     /tmp/ccDRY82K.s:72659  .debug_str:0000000000002159 .LASF1841
     /tmp/ccDRY82K.s:76987  .debug_str:000000000000d687 .LASF1842
     /tmp/ccDRY82K.s:76887  .debug_str:000000000000d26f .LASF1843
     /tmp/ccDRY82K.s:74649  .debug_str:000000000000741a .LASF1844
     /tmp/ccDRY82K.s:76031  .debug_str:000000000000abfc .LASF1845
     /tmp/ccDRY82K.s:71987  .debug_str:00000000000006f9 .LASF1846
     /tmp/ccDRY82K.s:75777  .debug_str:000000000000a2fe .LASF1847
     /tmp/ccDRY82K.s:72697  .debug_str:00000000000022e8 .LASF1848
     /tmp/ccDRY82K.s:77021  .debug_str:000000000000d817 .LASF1849
     /tmp/ccDRY82K.s:76439  .debug_str:000000000000bd81 .LASF1850
     /tmp/ccDRY82K.s:75825  .debug_str:000000000000a482 .LASF1851
     /tmp/ccDRY82K.s:75163  .debug_str:0000000000008a92 .LASF1852
     /tmp/ccDRY82K.s:73255  .debug_str:0000000000003b60 .LASF1853
     /tmp/ccDRY82K.s:78989  .debug_str:0000000000012ae4 .LASF1854
     /tmp/ccDRY82K.s:72335  .debug_str:0000000000001417 .LASF1855
     /tmp/ccDRY82K.s:76657  .debug_str:000000000000c830 .LASF1856
     /tmp/ccDRY82K.s:78927  .debug_str:000000000001283f .LASF1857
     /tmp/ccDRY82K.s:78215  .debug_str:0000000000010a4e .LASF1858
     /tmp/ccDRY82K.s:74393  .debug_str:00000000000068da .LASF1859
     /tmp/ccDRY82K.s:74741  .debug_str:00000000000078e6 .LASF1860
     /tmp/ccDRY82K.s:76495  .debug_str:000000000000c093 .LASF1861
     /tmp/ccDRY82K.s:78415  .debug_str:0000000000011228 .LASF1862
     /tmp/ccDRY82K.s:78189  .debug_str:0000000000010982 .LASF1863
     /tmp/ccDRY82K.s:73629  .debug_str:0000000000004aa7 .LASF1864
     /tmp/ccDRY82K.s:76253  .debug_str:000000000000b4f8 .LASF1865
     /tmp/ccDRY82K.s:74625  .debug_str:0000000000007299 .LASF1866
     /tmp/ccDRY82K.s:75783  .debug_str:000000000000a34f .LASF1867
     /tmp/ccDRY82K.s:76137  .debug_str:000000000000afef .LASF1868
     /tmp/ccDRY82K.s:75529  .debug_str:0000000000009a2e .LASF1869
     /tmp/ccDRY82K.s:72317  .debug_str:000000000000136d .LASF1870
     /tmp/ccDRY82K.s:73915  .debug_str:0000000000005480 .LASF1871
     /tmp/ccDRY82K.s:77017  .debug_str:000000000000d7e4 .LASF1872
     /tmp/ccDRY82K.s:75351  .debug_str:000000000000932b .LASF1873
     /tmp/ccDRY82K.s:71953  .debug_str:0000000000000564 .LASF1874
     /tmp/ccDRY82K.s:72919  .debug_str:0000000000002ced .LASF1875
     /tmp/ccDRY82K.s:75995  .debug_str:000000000000aa78 .LASF1876
     /tmp/ccDRY82K.s:73081  .debug_str:0000000000003437 .LASF1877
     /tmp/ccDRY82K.s:78219  .debug_str:0000000000010a65 .LASF1878
     /tmp/ccDRY82K.s:73085  .debug_str:000000000000344c .LASF1879
     /tmp/ccDRY82K.s:78221  .debug_str:0000000000010a73 .LASF1880
     /tmp/ccDRY82K.s:73089  .debug_str:0000000000003465 .LASF1881
     /tmp/ccDRY82K.s:73091  .debug_str:0000000000003473 .LASF1882
     /tmp/ccDRY82K.s:73093  .debug_str:0000000000003481 .LASF1883
     /tmp/ccDRY82K.s:73095  .debug_str:000000000000348f .LASF1884
     /tmp/ccDRY82K.s:73097  .debug_str:000000000000349d .LASF1885
     /tmp/ccDRY82K.s:78399  .debug_str:000000000001118c .LASF1886
     /tmp/ccDRY82K.s:77753  .debug_str:000000000000f7d5 .LASF1887
     /tmp/ccDRY82K.s:74435  .debug_str:0000000000006ac4 .LASF1888
     /tmp/ccDRY82K.s:77013  .debug_str:000000000000d7b1 .LASF1889
     /tmp/ccDRY82K.s:75791  .debug_str:000000000000a3a9 .LASF1890
     /tmp/ccDRY82K.s:78905  .debug_str:000000000001275c .LASF1891
     /tmp/ccDRY82K.s:78967  .debug_str:00000000000129fb .LASF1892
     /tmp/ccDRY82K.s:76843  .debug_str:000000000000d05e .LASF1893
     /tmp/ccDRY82K.s:75833  .debug_str:000000000000a4e1 .LASF1894
     /tmp/ccDRY82K.s:73663  .debug_str:0000000000004bf9 .LASF1895
     /tmp/ccDRY82K.s:79055  .debug_str:0000000000012d4f .LASF1896
     /tmp/ccDRY82K.s:78121  .debug_str:00000000000106bd .LASF1897
     /tmp/ccDRY82K.s:77831  .debug_str:000000000000fb31 .LASF1898
     /tmp/ccDRY82K.s:75103  .debug_str:0000000000008899 .LASF1899
     /tmp/ccDRY82K.s:74533  .debug_str:0000000000006e73 .LASF1900
     /tmp/ccDRY82K.s:75641  .debug_str:0000000000009e0c .LASF1901
     /tmp/ccDRY82K.s:76175  .debug_str:000000000000b181 .LASF1902
     /tmp/ccDRY82K.s:72771  .debug_str:0000000000002663 .LASF1903
     /tmp/ccDRY82K.s:72471  .debug_str:0000000000001962 .LASF1904
     /tmp/ccDRY82K.s:76211  .debug_str:000000000000b2e8 .LASF1905
     /tmp/ccDRY82K.s:77199  .debug_str:000000000000dfde .LASF1906
     /tmp/ccDRY82K.s:75517  .debug_str:00000000000099b7 .LASF1907
     /tmp/ccDRY82K.s:77883  .debug_str:000000000000fdf0 .LASF1908
     /tmp/ccDRY82K.s:77315  .debug_str:000000000000e4c8 .LASF1909
     /tmp/ccDRY82K.s:76399  .debug_str:000000000000bba4 .LASF1910
     /tmp/ccDRY82K.s:78303  .debug_str:0000000000010dac .LASF1911
     /tmp/ccDRY82K.s:74651  .debug_str:0000000000007433 .LASF1912
     /tmp/ccDRY82K.s:71909  .debug_str:00000000000003b5 .LASF1913
     /tmp/ccDRY82K.s:77887  .debug_str:000000000000fe2a .LASF1914
     /tmp/ccDRY82K.s:74653  .debug_str:0000000000007445 .LASF1915
     /tmp/ccDRY82K.s:74969  .debug_str:0000000000008281 .LASF1916
     /tmp/ccDRY82K.s:77889  .debug_str:000000000000fe3c .LASF1917
     /tmp/ccDRY82K.s:77319  .debug_str:000000000000e4e5 .LASF1918
     /tmp/ccDRY82K.s:77925  .debug_str:000000000000ffe2 .LASF1919
     /tmp/ccDRY82K.s:72325  .debug_str:00000000000013a6 .LASF1920
     /tmp/ccDRY82K.s:78689  .debug_str:0000000000011d9e .LASF1921
     /tmp/ccDRY82K.s:76185  .debug_str:000000000000b1d1 .LASF1922
     /tmp/ccDRY82K.s:74831  .debug_str:0000000000007cae .LASF1923
     /tmp/ccDRY82K.s:78839  .debug_str:00000000000123dd .LASF1924
     /tmp/ccDRY82K.s:76973  .debug_str:000000000000d5c8 .LASF1925
     /tmp/ccDRY82K.s:74833  .debug_str:0000000000007cc0 .LASF1926
     /tmp/ccDRY82K.s:78841  .debug_str:00000000000123ef .LASF1927
     /tmp/ccDRY82K.s:74429  .debug_str:0000000000006a85 .LASF1928
     /tmp/ccDRY82K.s:78997  .debug_str:0000000000012b3b .LASF1929
     /tmp/ccDRY82K.s:78267  .debug_str:0000000000010c7d .LASF1930
     /tmp/ccDRY82K.s:74031  .debug_str:00000000000058e6 .LASF1931
     /tmp/ccDRY82K.s:75879  .debug_str:000000000000a668 .LASF1932
     /tmp/ccDRY82K.s:77467  .debug_str:000000000000eb55 .LASF1933
     /tmp/ccDRY82K.s:74875  .debug_str:0000000000007e58 .LASF1934
     /tmp/ccDRY82K.s:76351  .debug_str:000000000000b9d9 .LASF1935
     /tmp/ccDRY82K.s:77061  .debug_str:000000000000da45 .LASF1936
     /tmp/ccDRY82K.s:76743  .debug_str:000000000000cbec .LASF1937
     /tmp/ccDRY82K.s:75493  .debug_str:0000000000009885 .LASF1938
     /tmp/ccDRY82K.s:72175  .debug_str:0000000000000e15 .LASF1939
     /tmp/ccDRY82K.s:75483  .debug_str:000000000000980b .LASF1940
     /tmp/ccDRY82K.s:74993  .debug_str:00000000000083b4 .LASF1941
     /tmp/ccDRY82K.s:74359  .debug_str:0000000000006756 .LASF1942
     /tmp/ccDRY82K.s:72675  .debug_str:00000000000021df .LASF1943
     /tmp/ccDRY82K.s:75399  .debug_str:0000000000009493 .LASF1944
     /tmp/ccDRY82K.s:78737  .debug_str:0000000000011f85 .LASF1945
     /tmp/ccDRY82K.s:75735  .debug_str:000000000000a160 .LASF1946
     /tmp/ccDRY82K.s:75405  .debug_str:00000000000094d1 .LASF1947
     /tmp/ccDRY82K.s:78727  .debug_str:0000000000011f1f .LASF1948
     /tmp/ccDRY82K.s:77559  .debug_str:000000000000ef56 .LASF1949
     /tmp/ccDRY82K.s:77407  .debug_str:000000000000e938 .LASF1950
     /tmp/ccDRY82K.s:73373  .debug_str:0000000000004084 .LASF1951
     /tmp/ccDRY82K.s:74365  .debug_str:0000000000006790 .LASF1952
     /tmp/ccDRY82K.s:75487  .debug_str:000000000000983d .LASF1953
     /tmp/ccDRY82K.s:77891  .debug_str:000000000000fe4e .LASF1954
     /tmp/ccDRY82K.s:75135  .debug_str:0000000000008994 .LASF1955
     /tmp/ccDRY82K.s:75185  .debug_str:0000000000008b5a .LASF1956
     /tmp/ccDRY82K.s:75625  .debug_str:0000000000009d2d .LASF1957
     /tmp/ccDRY82K.s:74091  .debug_str:0000000000005b46 .LASF1958
     /tmp/ccDRY82K.s:73165  .debug_str:0000000000003753 .LASF1959
     /tmp/ccDRY82K.s:78883  .debug_str:00000000000125ff .LASF1960
     /tmp/ccDRY82K.s:77611  .debug_str:000000000000f194 .LASF1961
     /tmp/ccDRY82K.s:73003  .debug_str:00000000000030bc .LASF1962
     /tmp/ccDRY82K.s:73921  .debug_str:00000000000054c4 .LASF1963
     /tmp/ccDRY82K.s:74051  .debug_str:00000000000059f0 .LASF1964
     /tmp/ccDRY82K.s:77091  .debug_str:000000000000db55 .LASF1965
     /tmp/ccDRY82K.s:74085  .debug_str:0000000000005b0d .LASF1966
     /tmp/ccDRY82K.s:77173  .debug_str:000000000000de7b .LASF1967
     /tmp/ccDRY82K.s:78949  .debug_str:0000000000012950 .LASF1968
     /tmp/ccDRY82K.s:74209  .debug_str:00000000000060f5 .LASF1969
     /tmp/ccDRY82K.s:75703  .debug_str:000000000000a004 .LASF1970
     /tmp/ccDRY82K.s:75299  .debug_str:0000000000009095 .LASF1971
     /tmp/ccDRY82K.s:73977  .debug_str:00000000000056cd .LASF1972
     /tmp/ccDRY82K.s:77403  .debug_str:000000000000e903 .LASF1973
     /tmp/ccDRY82K.s:77991  .debug_str:0000000000010210 .LASF1974
     /tmp/ccDRY82K.s:72625  .debug_str:0000000000001fcc .LASF1975
     /tmp/ccDRY82K.s:73627  .debug_str:0000000000004a7d .LASF1976
     /tmp/ccDRY82K.s:77119  .debug_str:000000000000dc6a .LASF1977
     /tmp/ccDRY82K.s:78599  .debug_str:00000000000119dc .LASF1978
     /tmp/ccDRY82K.s:73771  .debug_str:0000000000004fb6 .LASF1979
     /tmp/ccDRY82K.s:72455  .debug_str:00000000000018b4 .LASF1980
     /tmp/ccDRY82K.s:74201  .debug_str:00000000000060aa .LASF1981
     /tmp/ccDRY82K.s:73253  .debug_str:0000000000003b34 .LASF1982
     /tmp/ccDRY82K.s:73449  .debug_str:00000000000043b6 .LASF1983
     /tmp/ccDRY82K.s:76609  .debug_str:000000000000c5bf .LASF1984
     /tmp/ccDRY82K.s:73987  .debug_str:0000000000005751 .LASF1985
     /tmp/ccDRY82K.s:77655  .debug_str:000000000000f3d2 .LASF1986
     /tmp/ccDRY82K.s:77643  .debug_str:000000000000f34a .LASF1987
     /tmp/ccDRY82K.s:72815  .debug_str:0000000000002897 .LASF1988
     /tmp/ccDRY82K.s:72787  .debug_str:000000000000277a .LASF1989
     /tmp/ccDRY82K.s:71951  .debug_str:0000000000000554 .LASF1990
     /tmp/ccDRY82K.s:78489  .debug_str:0000000000011568 .LASF1991
     /tmp/ccDRY82K.s:76027  .debug_str:000000000000abdc .LASF1992
     /tmp/ccDRY82K.s:77763  .debug_str:000000000000f855 .LASF1993
     /tmp/ccDRY82K.s:77877  .debug_str:000000000000fd9f .LASF1994
     /tmp/ccDRY82K.s:78465  .debug_str:0000000000011429 .LASF1995
     /tmp/ccDRY82K.s:74663  .debug_str:00000000000074c5 .LASF1996
     /tmp/ccDRY82K.s:74563  .debug_str:0000000000006fea .LASF1997
     /tmp/ccDRY82K.s:74301  .debug_str:000000000000648c .LASF1998
     /tmp/ccDRY82K.s:78503  .debug_str:00000000000115f4 .LASF1999
     /tmp/ccDRY82K.s:78865  .debug_str:000000000001252d .LASF2000
     /tmp/ccDRY82K.s:77521  .debug_str:000000000000edd2 .LASF2001
     /tmp/ccDRY82K.s:76333  .debug_str:000000000000b8ca .LASF2002
     /tmp/ccDRY82K.s:78485  .debug_str:0000000000011534 .LASF2003
     /tmp/ccDRY82K.s:75191  .debug_str:0000000000008ba2 .LASF2004
     /tmp/ccDRY82K.s:78581  .debug_str:0000000000011914 .LASF2005
     /tmp/ccDRY82K.s:76933  .debug_str:000000000000d417 .LASF2006
     /tmp/ccDRY82K.s:73571  .debug_str:00000000000048a6 .LASF2007
     /tmp/ccDRY82K.s:75265  .debug_str:0000000000008f2b .LASF2008
     /tmp/ccDRY82K.s:72789  .debug_str:000000000000278a .LASF2009
     /tmp/ccDRY82K.s:76215  .debug_str:000000000000b313 .LASF2010
     /tmp/ccDRY82K.s:78163  .debug_str:00000000000108f2 .LASF2011
     /tmp/ccDRY82K.s:73851  .debug_str:0000000000005268 .LASF2012
     /tmp/ccDRY82K.s:73361  .debug_str:000000000000402e .LASF2013
     /tmp/ccDRY82K.s:74717  .debug_str:0000000000007752 .LASF2014
     /tmp/ccDRY82K.s:78087  .debug_str:00000000000105be .LASF2015
     /tmp/ccDRY82K.s:78691  .debug_str:0000000000011db0 .LASF2016
     /tmp/ccDRY82K.s:75173  .debug_str:0000000000008aeb .LASF2017
     /tmp/ccDRY82K.s:72757  .debug_str:0000000000002576 .LASF2018
     /tmp/ccDRY82K.s:74727  .debug_str:00000000000077a8 .LASF2019
     /tmp/ccDRY82K.s:77263  .debug_str:000000000000e28a .LASF2020
     /tmp/ccDRY82K.s:76707  .debug_str:000000000000cace .LASF2021
     /tmp/ccDRY82K.s:77325  .debug_str:000000000000e53e .LASF2022
     /tmp/ccDRY82K.s:77019  .debug_str:000000000000d809 .LASF2023
     /tmp/ccDRY82K.s:79053  .debug_str:0000000000012d2d .LASF2024
     /tmp/ccDRY82K.s:72897  .debug_str:0000000000002bc8 .LASF2025
     /tmp/ccDRY82K.s:76517  .debug_str:000000000000c195 .LASF2026
     /tmp/ccDRY82K.s:78929  .debug_str:000000000001284c .LASF2027
     /tmp/ccDRY82K.s:75727  .debug_str:000000000000a108 .LASF2028
     /tmp/ccDRY82K.s:78873  .debug_str:00000000000125bd .LASF2029
     /tmp/ccDRY82K.s:73443  .debug_str:0000000000004344 .LASF2030
     /tmp/ccDRY82K.s:75963  .debug_str:000000000000a9c3 .LASF2031
     /tmp/ccDRY82K.s:72947  .debug_str:0000000000002e4a .LASF2032
     /tmp/ccDRY82K.s:73205  .debug_str:00000000000038ed .LASF2033
     /tmp/ccDRY82K.s:74115  .debug_str:0000000000005c8f .LASF2034
     /tmp/ccDRY82K.s:78763  .debug_str:00000000000120aa .LASF2035
     /tmp/ccDRY82K.s:72329  .debug_str:00000000000013c5 .LASF2036
     /tmp/ccDRY82K.s:74479  .debug_str:0000000000006c16 .LASF2037
     /tmp/ccDRY82K.s:78453  .debug_str:0000000000011394 .LASF2038
     /tmp/ccDRY82K.s:72205  .debug_str:0000000000000f05 .LASF2039
     /tmp/ccDRY82K.s:78403  .debug_str:00000000000111c2 .LASF2040
     /tmp/ccDRY82K.s:75341  .debug_str:00000000000092cb .LASF2041
     /tmp/ccDRY82K.s:74763  .debug_str:0000000000007998 .LASF2042
     /tmp/ccDRY82K.s:72005  .debug_str:00000000000007be .LASF2043
     /tmp/ccDRY82K.s:75353  .debug_str:0000000000009335 .LASF2044
     /tmp/ccDRY82K.s:75213  .debug_str:0000000000008c81 .LASF2045
     /tmp/ccDRY82K.s:71997  .debug_str:000000000000076c .LASF2046
     /tmp/ccDRY82K.s:76321  .debug_str:000000000000b868 .LASF2047
     /tmp/ccDRY82K.s:76349  .debug_str:000000000000b9bb .LASF2048
     /tmp/ccDRY82K.s:71963  .debug_str:00000000000005dc .LASF2049
     /tmp/ccDRY82K.s:78057  .debug_str:0000000000010479 .LASF2050
     /tmp/ccDRY82K.s:72397  .debug_str:000000000000161e .LASF2051
     /tmp/ccDRY82K.s:72081  .debug_str:0000000000000a5b .LASF2052
     /tmp/ccDRY82K.s:76147  .debug_str:000000000000b07e .LASF2053
     /tmp/ccDRY82K.s:75457  .debug_str:0000000000009732 .LASF2054
     /tmp/ccDRY82K.s:76795  .debug_str:000000000000ce2c .LASF2055
     /tmp/ccDRY82K.s:79015  .debug_str:0000000000012c05 .LASF2056
     /tmp/ccDRY82K.s:75215  .debug_str:0000000000008c9f .LASF2057
     /tmp/ccDRY82K.s:72687  .debug_str:000000000000228d .LASF2058
     /tmp/ccDRY82K.s:76089  .debug_str:000000000000add5 .LASF2059
     /tmp/ccDRY82K.s:76989  .debug_str:000000000000d6a1 .LASF2060
     /tmp/ccDRY82K.s:72685  .debug_str:0000000000002283 .LASF2061
     /tmp/ccDRY82K.s:77933  .debug_str:000000000001004b .LASF2062
     /tmp/ccDRY82K.s:78073  .debug_str:000000000001050a .LASF2063
     /tmp/ccDRY82K.s:78243  .debug_str:0000000000010b59 .LASF2064
     /tmp/ccDRY82K.s:75147  .debug_str:0000000000008a0b .LASF2065
     /tmp/ccDRY82K.s:78573  .debug_str:00000000000118ba .LASF2066
     /tmp/ccDRY82K.s:79125  .debug_str:000000000001309d .LASF2067
     /tmp/ccDRY82K.s:75143  .debug_str:00000000000089f8 .LASF2068
     /tmp/ccDRY82K.s:76449  .debug_str:000000000000be31 .LASF2069
     /tmp/ccDRY82K.s:75193  .debug_str:0000000000008bb3 .LASF2070
     /tmp/ccDRY82K.s:77185  .debug_str:000000000000df1c .LASF2071
     /tmp/ccDRY82K.s:76861  .debug_str:000000000000d133 .LASF2072
     /tmp/ccDRY82K.s:74261  .debug_str:0000000000006308 .LASF2073
     /tmp/ccDRY82K.s:77207  .debug_str:000000000000e02a .LASF2074
     /tmp/ccDRY82K.s:72901  .debug_str:0000000000002bf4 .LASF2075
     /tmp/ccDRY82K.s:72497  .debug_str:0000000000001a6f .LASF2076
     /tmp/ccDRY82K.s:71901  .debug_str:0000000000000346 .LASF2077
     /tmp/ccDRY82K.s:74949  .debug_str:00000000000081ad .LASF2078
     /tmp/ccDRY82K.s:77541  .debug_str:000000000000eec0 .LASF2079
     /tmp/ccDRY82K.s:78677  .debug_str:0000000000011d3a .LASF2080
     /tmp/ccDRY82K.s:78897  .debug_str:000000000001270b .LASF2081
     /tmp/ccDRY82K.s:77543  .debug_str:000000000000eec9 .LASF2082
     /tmp/ccDRY82K.s:78679  .debug_str:0000000000011d43 .LASF2083
     /tmp/ccDRY82K.s:74603  .debug_str:0000000000007195 .LASF2084
     /tmp/ccDRY82K.s:77547  .debug_str:000000000000eedb .LASF2085
     /tmp/ccDRY82K.s:72599  .debug_str:0000000000001e7f .LASF2086
     /tmp/ccDRY82K.s:73137  .debug_str:000000000000364c .LASF2087
     /tmp/ccDRY82K.s:78627  .debug_str:0000000000011b41 .LASF2088
     /tmp/ccDRY82K.s:74335  .debug_str:0000000000006613 .LASF2089
     /tmp/ccDRY82K.s:75001  .debug_str:00000000000083f6 .LASF2090
     /tmp/ccDRY82K.s:74843  .debug_str:0000000000007d37 .LASF2091
     /tmp/ccDRY82K.s:77203  .debug_str:000000000000dffa .LASF2092
     /tmp/ccDRY82K.s:75775  .debug_str:000000000000a2d2 .LASF2093
     /tmp/ccDRY82K.s:76165  .debug_str:000000000000b122 .LASF2094
     /tmp/ccDRY82K.s:77205  .debug_str:000000000000e012 .LASF2095
     /tmp/ccDRY82K.s:78067  .debug_str:00000000000104c6 .LASF2096
     /tmp/ccDRY82K.s:72709  .debug_str:000000000000235c .LASF2097
     /tmp/ccDRY82K.s:78643  .debug_str:0000000000011bfd .LASF2098
     /tmp/ccDRY82K.s:77339  .debug_str:000000000000e61f .LASF2099
     /tmp/ccDRY82K.s:72711  .debug_str:0000000000002374 .LASF2100
     /tmp/ccDRY82K.s:78647  .debug_str:0000000000011c26 .LASF2101
     /tmp/ccDRY82K.s:72931  .debug_str:0000000000002d48 .LASF2102
     /tmp/ccDRY82K.s:76783  .debug_str:000000000000cdcc .LASF2103
     /tmp/ccDRY82K.s:77871  .debug_str:000000000000fd5c .LASF2104
     /tmp/ccDRY82K.s:76613  .debug_str:000000000000c605 .LASF2105
     /tmp/ccDRY82K.s:76323  .debug_str:000000000000b872 .LASF2106
     /tmp/ccDRY82K.s:77873  .debug_str:000000000000fd74 .LASF2107
     /tmp/ccDRY82K.s:72781  .debug_str:00000000000026f6 .LASF2108
     /tmp/ccDRY82K.s:76947  .debug_str:000000000000d4a6 .LASF2109
     /tmp/ccDRY82K.s:74605  .debug_str:00000000000071b2 .LASF2110
     /tmp/ccDRY82K.s:74537  .debug_str:0000000000006ea5 .LASF2111
     /tmp/ccDRY82K.s:73363  .debug_str:0000000000004044 .LASF2112
     /tmp/ccDRY82K.s:74607  .debug_str:00000000000071ca .LASF2113
     /tmp/ccDRY82K.s:77497  .debug_str:000000000000ec87 .LASF2114
     /tmp/ccDRY82K.s:77469  .debug_str:000000000000eb66 .LASF2115
     /tmp/ccDRY82K.s:78571  .debug_str:00000000000118a2 .LASF2116
     /tmp/ccDRY82K.s:77747  .debug_str:000000000000f77d .LASF2117
     /tmp/ccDRY82K.s:77633  .debug_str:000000000000f2d0 .LASF2118
     /tmp/ccDRY82K.s:73357  .debug_str:0000000000004006 .LASF2119
     /tmp/ccDRY82K.s:72421  .debug_str:0000000000001724 .LASF2120
     /tmp/ccDRY82K.s:74159  .debug_str:0000000000005e8e .LASF2121
     /tmp/ccDRY82K.s:75303  .debug_str:00000000000090c9 .LASF2122
     /tmp/ccDRY82K.s:74637  .debug_str:000000000000734a .LASF2123
     /tmp/ccDRY82K.s:74161  .debug_str:0000000000005ea6 .LASF2124
     /tmp/ccDRY82K.s:75305  .debug_str:00000000000090e1 .LASF2125
     /tmp/ccDRY82K.s:74673  .debug_str:0000000000007543 .LASF2126
     /tmp/ccDRY82K.s:78185  .debug_str:0000000000010952 .LASF2127
     /tmp/ccDRY82K.s:74881  .debug_str:0000000000007ec0 .LASF2128
     /tmp/ccDRY82K.s:72153  .debug_str:0000000000000cc4 .LASF2129
     /tmp/ccDRY82K.s:72561  .debug_str:0000000000001cf9 .LASF2130
     /tmp/ccDRY82K.s:71903  .debug_str:0000000000000354 .LASF2131
     /tmp/ccDRY82K.s:76983  .debug_str:000000000000d64e .LASF2132
     /tmp/ccDRY82K.s:72415  .debug_str:00000000000016bd .LASF2133
     /tmp/ccDRY82K.s:76079  .debug_str:000000000000ad6c .LASF2134
     /tmp/ccDRY82K.s:76305  .debug_str:000000000000b775 .LASF2135
     /tmp/ccDRY82K.s:74897  .debug_str:0000000000007fa2 .LASF2136
     /tmp/ccDRY82K.s:76081  .debug_str:000000000000ad84 .LASF2137
     /tmp/ccDRY82K.s:79153  .debug_str:000000000001317e .LASF2138
     /tmp/ccDRY82K.s:78869  .debug_str:000000000001258d .LASF2139
     /tmp/ccDRY82K.s:72635  .debug_str:000000000000203d .LASF2140
     /tmp/ccDRY82K.s:78419  .debug_str:0000000000011259 .LASF2141
     /tmp/ccDRY82K.s:78871  .debug_str:00000000000125a5 .LASF2142
     /tmp/ccDRY82K.s:72637  .debug_str:0000000000002055 .LASF2143
     /tmp/ccDRY82K.s:74099  .debug_str:0000000000005bc0 .LASF2144
     /tmp/ccDRY82K.s:75639  .debug_str:0000000000009df4 .LASF2145
     /tmp/ccDRY82K.s:76699  .debug_str:000000000000ca8a .LASF2146
     /tmp/ccDRY82K.s:73287  .debug_str:0000000000003c84 .LASF2147
     /tmp/ccDRY82K.s:73825  .debug_str:0000000000005167 .LASF2148
     /tmp/ccDRY82K.s:76701  .debug_str:000000000000caa2 .LASF2149
     /tmp/ccDRY82K.s:76429  .debug_str:000000000000bcfb .LASF2150
     /tmp/ccDRY82K.s:76171  .debug_str:000000000000b14f .LASF2151
     /tmp/ccDRY82K.s:74545  .debug_str:0000000000006efe .LASF2152
     /tmp/ccDRY82K.s:77597  .debug_str:000000000000f0f7 .LASF2153
     /tmp/ccDRY82K.s:76173  .debug_str:000000000000b168 .LASF2154
     /tmp/ccDRY82K.s:74547  .debug_str:0000000000006f17 .LASF2155
     /tmp/ccDRY82K.s:73183  .debug_str:00000000000037fb .LASF2156
     /tmp/ccDRY82K.s:72715  .debug_str:00000000000023ac .LASF2157
     /tmp/ccDRY82K.s:78517  .debug_str:0000000000011636 .LASF2158
     /tmp/ccDRY82K.s:76697  .debug_str:000000000000ca5d .LASF2159
     /tmp/ccDRY82K.s:72717  .debug_str:00000000000023c5 .LASF2160
     /tmp/ccDRY82K.s:73659  .debug_str:0000000000004bc5 .LASF2161
     /tmp/ccDRY82K.s:75589  .debug_str:0000000000009c03 .LASF2162
     /tmp/ccDRY82K.s:76797  .debug_str:000000000000ce41 .LASF2163
     /tmp/ccDRY82K.s:72799  .debug_str:00000000000027e2 .LASF2164
     /tmp/ccDRY82K.s:74839  .debug_str:0000000000007d05 .LASF2165
     /tmp/ccDRY82K.s:76799  .debug_str:000000000000ce5a .LASF2166
     /tmp/ccDRY82K.s:74449  .debug_str:0000000000006b5a .LASF2167
     /tmp/ccDRY82K.s:77783  .debug_str:000000000000f92a .LASF2168
     /tmp/ccDRY82K.s:73381  .debug_str:00000000000040c5 .LASF2169
     /tmp/ccDRY82K.s:71857  .debug_str:0000000000000125 .LASF2170
     /tmp/ccDRY82K.s:77053  .debug_str:000000000000d9c6 .LASF2171
     /tmp/ccDRY82K.s:73383  .debug_str:00000000000040de .LASF2172
     /tmp/ccDRY82K.s:78369  .debug_str:000000000001104d .LASF2173
     /tmp/ccDRY82K.s:72649  .debug_str:00000000000020dc .LASF2174
     /tmp/ccDRY82K.s:77491  .debug_str:000000000000ec4e .LASF2175
     /tmp/ccDRY82K.s:75999  .debug_str:000000000000aa8d .LASF2176
     /tmp/ccDRY82K.s:71907  .debug_str:0000000000000388 .LASF2177
     /tmp/ccDRY82K.s:77493  .debug_str:000000000000ec67 .LASF2178
     /tmp/ccDRY82K.s:76001  .debug_str:000000000000aaa6 .LASF2179
     /tmp/ccDRY82K.s:74965  .debug_str:0000000000008244 .LASF2180
     /tmp/ccDRY82K.s:74181  .debug_str:0000000000005f9b .LASF2181
     /tmp/ccDRY82K.s:72573  .debug_str:0000000000001d61 .LASF2182
     /tmp/ccDRY82K.s:74259  .debug_str:00000000000062db .LASF2183
     /tmp/ccDRY82K.s:77429  .debug_str:000000000000e9fd .LASF2184
     /tmp/ccDRY82K.s:72575  .debug_str:0000000000001d7a .LASF2185
     /tmp/ccDRY82K.s:77249  .debug_str:000000000000e1dd .LASF2186
     /tmp/ccDRY82K.s:72033  .debug_str:00000000000008de .LASF2187
     /tmp/ccDRY82K.s:75335  .debug_str:0000000000009260 .LASF2188
     /tmp/ccDRY82K.s:72267  .debug_str:0000000000001173 .LASF2189
     /tmp/ccDRY82K.s:77719  .debug_str:000000000000f67b .LASF2190
     /tmp/ccDRY82K.s:73575  .debug_str:00000000000048de .LASF2191
     /tmp/ccDRY82K.s:74931  .debug_str:00000000000080b2 .LASF2192
     /tmp/ccDRY82K.s:77721  .debug_str:000000000000f688 .LASF2193
     /tmp/ccDRY82K.s:73577  .debug_str:00000000000048eb .LASF2194
     /tmp/ccDRY82K.s:77879  .debug_str:000000000000fdc3 .LASF2195
     /tmp/ccDRY82K.s:77725  .debug_str:000000000000f69e .LASF2196
     /tmp/ccDRY82K.s:73579  .debug_str:00000000000048f8 .LASF2197
     /tmp/ccDRY82K.s:72747  .debug_str:0000000000002508 .LASF2198
     /tmp/ccDRY82K.s:74509  .debug_str:0000000000006d67 .LASF2199
     /tmp/ccDRY82K.s:75959  .debug_str:000000000000a996 .LASF2200
     /tmp/ccDRY82K.s:72025  .debug_str:000000000000087c .LASF2201
     /tmp/ccDRY82K.s:73331  .debug_str:0000000000003ef8 .LASF2202
     /tmp/ccDRY82K.s:73215  .debug_str:0000000000003966 .LASF2203
     /tmp/ccDRY82K.s:78491  .debug_str:000000000001158c .LASF2204
     /tmp/ccDRY82K.s:73185  .debug_str:0000000000003828 .LASF2205
     /tmp/ccDRY82K.s:74909  .debug_str:0000000000007fea .LASF2206
     /tmp/ccDRY82K.s:78585  .debug_str:0000000000011934 .LASF2207
     /tmp/ccDRY82K.s:77435  .debug_str:000000000000ea62 .LASF2208
     /tmp/ccDRY82K.s:73337  .debug_str:0000000000003f32 .LASF2209
     /tmp/ccDRY82K.s:78785  .debug_str:0000000000012183 .LASF2210
     /tmp/ccDRY82K.s:73671  .debug_str:0000000000004c3a .LASF2211
     /tmp/ccDRY82K.s:78459  .debug_str:00000000000113cc .LASF2212
     /tmp/ccDRY82K.s:72255  .debug_str:00000000000010b2 .LASF2213
     /tmp/ccDRY82K.s:72075  .debug_str:0000000000000a0a .LASF2214
     /tmp/ccDRY82K.s:74383  .debug_str:000000000000689e .LASF2215
     /tmp/ccDRY82K.s:75935  .debug_str:000000000000a898 .LASF2216
     /tmp/ccDRY82K.s:78397  .debug_str:0000000000011176 .LASF2217
     /tmp/ccDRY82K.s:72237  .debug_str:0000000000000fd8 .LASF2218
     /tmp/ccDRY82K.s:77175  .debug_str:000000000000dea7 .LASF2219
     /tmp/ccDRY82K.s:73971  .debug_str:0000000000005692 .LASF2220
     /tmp/ccDRY82K.s:76847  .debug_str:000000000000d07f .LASF2221
     /tmp/ccDRY82K.s:71959  .debug_str:00000000000005a8 .LASF2222
     /tmp/ccDRY82K.s:78695  .debug_str:0000000000011de6 .LASF2223
     /tmp/ccDRY82K.s:73279  .debug_str:0000000000003c5a .LASF2224
     /tmp/ccDRY82K.s:75953  .debug_str:000000000000a929 .LASF2225
     /tmp/ccDRY82K.s:77363  .debug_str:000000000000e73f .LASF2226
     /tmp/ccDRY82K.s:76119  .debug_str:000000000000af0f .LASF2227
     /tmp/ccDRY82K.s:75505  .debug_str:000000000000992a .LASF2228
     /tmp/ccDRY82K.s:77005  .debug_str:000000000000d751 .LASF2229
     /tmp/ccDRY82K.s:73647  .debug_str:0000000000004b8a .LASF2230
     /tmp/ccDRY82K.s:71863  .debug_str:0000000000000170 .LASF2231
     /tmp/ccDRY82K.s:72829  .debug_str:000000000000293b .LASF2232
     /tmp/ccDRY82K.s:77771  .debug_str:000000000000f8a0 .LASF2233
     /tmp/ccDRY82K.s:72099  .debug_str:0000000000000b24 .LASF2234
     /tmp/ccDRY82K.s:77405  .debug_str:000000000000e92b .LASF2235
     /tmp/ccDRY82K.s:73351  .debug_str:0000000000003fdd .LASF2236
     /tmp/ccDRY82K.s:77511  .debug_str:000000000000ed5a .LASF2237
     /tmp/ccDRY82K.s:72941  .debug_str:0000000000002dfd .LASF2238
     /tmp/ccDRY82K.s:71851  .debug_str:00000000000000c9 .LASF2239
     /tmp/ccDRY82K.s:77823  .debug_str:000000000000faba .LASF2240
     /tmp/ccDRY82K.s:73291  .debug_str:0000000000003cd0 .LASF2241
     /tmp/ccDRY82K.s:75061  .debug_str:0000000000008690 .LASF2242
     /tmp/ccDRY82K.s:72367  .debug_str:00000000000014d0 .LASF2243
     /tmp/ccDRY82K.s:75997  .debug_str:000000000000aa86 .LASF2244
     /tmp/ccDRY82K.s:76255  .debug_str:000000000000b502 .LASF2245
     /tmp/ccDRY82K.s:75073  .debug_str:00000000000086e5 .LASF2246
     /tmp/ccDRY82K.s:78987  .debug_str:0000000000012ad9 .LASF2247
     /tmp/ccDRY82K.s:78277  .debug_str:0000000000010ce4 .LASF2248
     /tmp/ccDRY82K.s:76907  .debug_str:000000000000d329 .LASF2249
     /tmp/ccDRY82K.s:75899  .debug_str:000000000000a7a2 .LASF2250
     /tmp/ccDRY82K.s:78425  .debug_str:00000000000112a4 .LASF2251
     /tmp/ccDRY82K.s:74309  .debug_str:00000000000064ea .LASF2252
     /tmp/ccDRY82K.s:72385  .debug_str:000000000000159a .LASF2253
     /tmp/ccDRY82K.s:77229  .debug_str:000000000000e0cb .LASF2254
     /tmp/ccDRY82K.s:75383  .debug_str:000000000000941f .LASF2255
     /tmp/ccDRY82K.s:75655  .debug_str:0000000000009ebf .LASF2256
     /tmp/ccDRY82K.s:77209  .debug_str:000000000000e03b .LASF2257
     /tmp/ccDRY82K.s:71905  .debug_str:000000000000036c .LASF2258
     /tmp/ccDRY82K.s:77195  .debug_str:000000000000df9a .LASF2259
     /tmp/ccDRY82K.s:77289  .debug_str:000000000000e3ba .LASF2260
     /tmp/ccDRY82K.s:75417  .debug_str:0000000000009574 .LASF2261
     /tmp/ccDRY82K.s:78089  .debug_str:00000000000105e8 .LASF2262
     /tmp/ccDRY82K.s:78199  .debug_str:00000000000109d5 .LASF2263
     /tmp/ccDRY82K.s:77709  .debug_str:000000000000f5d2 .LASF2264
     /tmp/ccDRY82K.s:78449  .debug_str:000000000001136a .LASF2265
     /tmp/ccDRY82K.s:77143  .debug_str:000000000000dd62 .LASF2266
     /tmp/ccDRY82K.s:76859  .debug_str:000000000000d118 .LASF2267
     /tmp/ccDRY82K.s:78433  .debug_str:0000000000011302 .LASF2268
     /tmp/ccDRY82K.s:77131  .debug_str:000000000000dcf7 .LASF2269
     /tmp/ccDRY82K.s:74703  .debug_str:00000000000076a0 .LASF2270
     /tmp/ccDRY82K.s:72797  .debug_str:00000000000027da .LASF2271
     /tmp/ccDRY82K.s:72903  .debug_str:0000000000002c19 .LASF2272
     /tmp/ccDRY82K.s:78767  .debug_str:00000000000120ea .LASF2273
     /tmp/ccDRY82K.s:77347  .debug_str:000000000000e68c .LASF2274
     /tmp/ccDRY82K.s:77465  .debug_str:000000000000eb4d .LASF2275
     /tmp/ccDRY82K.s:78701  .debug_str:0000000000011e11 .LASF2276
     /tmp/ccDRY82K.s:78211  .debug_str:0000000000010a35 .LASF2277
     /tmp/ccDRY82K.s:78337  .debug_str:0000000000010f04 .LASF2278
     /tmp/ccDRY82K.s:73753  .debug_str:0000000000004ee5 .LASF2279
     /tmp/ccDRY82K.s:78445  .debug_str:000000000001135c .LASF2280
     /tmp/ccDRY82K.s:77417  .debug_str:000000000000e97f .LASF2281
     /tmp/ccDRY82K.s:78673  .debug_str:0000000000011d17 .LASF2282
     /tmp/ccDRY82K.s:76391  .debug_str:000000000000bb57 .LASF2283
     /tmp/ccDRY82K.s:76885  .debug_str:000000000000d267 .LASF2284
     /tmp/ccDRY82K.s:74573  .debug_str:0000000000007074 .LASF2285
     /tmp/ccDRY82K.s:77723  .debug_str:000000000000f695 .LASF2286
     /tmp/ccDRY82K.s:78383  .debug_str:0000000000011100 .LASF2287
     /tmp/ccDRY82K.s:73623  .debug_str:0000000000004a4c .LASF2288
     /tmp/ccDRY82K.s:78789  .debug_str:00000000000121c1 .LASF2289
     /tmp/ccDRY82K.s:75239  .debug_str:0000000000008df4 .LASF2290
     /tmp/ccDRY82K.s:74849  .debug_str:0000000000007d69 .LASF2291
     /tmp/ccDRY82K.s:72875  .debug_str:0000000000002b0c .LASF2292
     /tmp/ccDRY82K.s:77443  .debug_str:000000000000eaac .LASF2293
     /tmp/ccDRY82K.s:76551  .debug_str:000000000000c364 .LASF2294
     /tmp/ccDRY82K.s:77553  .debug_str:000000000000ef0a .LASF2295
     /tmp/ccDRY82K.s:72643  .debug_str:00000000000020a2 .LASF2296
     /tmp/ccDRY82K.s:77167  .debug_str:000000000000de3b .LASF2297
     /tmp/ccDRY82K.s:75515  .debug_str:00000000000099a5 .LASF2298
     /tmp/ccDRY82K.s:77863  .debug_str:000000000000fcf3 .LASF2299
     /tmp/ccDRY82K.s:78751  .debug_str:0000000000012021 .LASF2300
     /tmp/ccDRY82K.s:78151  .debug_str:0000000000010888 .LASF2301
     /tmp/ccDRY82K.s:73099  .debug_str:00000000000034ab .LASF2302
     /tmp/ccDRY82K.s:72257  .debug_str:00000000000010d8 .LASF2303
     /tmp/ccDRY82K.s:75421  .debug_str:000000000000959e .LASF2304
     /tmp/ccDRY82K.s:76555  .debug_str:000000000000c389 .LASF2305
     /tmp/ccDRY82K.s:75737  .debug_str:000000000000a180 .LASF2306
     /tmp/ccDRY82K.s:75003  .debug_str:000000000000841d .LASF2307
     /tmp/ccDRY82K.s:75183  .debug_str:0000000000008b48 .LASF2308
     /tmp/ccDRY82K.s:74835  .debug_str:0000000000007cd2 .LASF2309
     /tmp/ccDRY82K.s:77425  .debug_str:000000000000e9d9 .LASF2310
     /tmp/ccDRY82K.s:73731  .debug_str:0000000000004dd2 .LASF2311
     /tmp/ccDRY82K.s:75599  .debug_str:0000000000009c8a .LASF2312
     /tmp/ccDRY82K.s:73409  .debug_str:00000000000041e2 .LASF2313
     /tmp/ccDRY82K.s:76645  .debug_str:000000000000c774 .LASF2314
     /tmp/ccDRY82K.s:77827  .debug_str:000000000000faf2 .LASF2315
     /tmp/ccDRY82K.s:78305  .debug_str:0000000000010dbe .LASF2316
     /tmp/ccDRY82K.s:76773  .debug_str:000000000000cd60 .LASF2317
     /tmp/ccDRY82K.s:75431  .debug_str:0000000000009600 .LASF2318
     /tmp/ccDRY82K.s:77959  .debug_str:000000000001013a .LASF2319
     /tmp/ccDRY82K.s:78313  .debug_str:0000000000010e10 .LASF2320
     /tmp/ccDRY82K.s:75139  .debug_str:00000000000089c3 .LASF2321
     /tmp/ccDRY82K.s:73459  .debug_str:0000000000004446 .LASF2322
     /tmp/ccDRY82K.s:76909  .debug_str:000000000000d348 .LASF2323
     /tmp/ccDRY82K.s:72015  .debug_str:0000000000000811 .LASF2324
     /tmp/ccDRY82K.s:75563  .debug_str:0000000000009b54 .LASF2325
     /tmp/ccDRY82K.s:76891  .debug_str:000000000000d291 .LASF2326
     /tmp/ccDRY82K.s:75349  .debug_str:000000000000930f .LASF2327
     /tmp/ccDRY82K.s:77503  .debug_str:000000000000ece5 .LASF2328
     /tmp/ccDRY82K.s:76265  .debug_str:000000000000b5aa .LASF2329
     /tmp/ccDRY82K.s:76953  .debug_str:000000000000d4ee .LASF2330
     /tmp/ccDRY82K.s:77613  .debug_str:000000000000f1b3 .LASF2331
     /tmp/ccDRY82K.s:76375  .debug_str:000000000000bad2 .LASF2332
     /tmp/ccDRY82K.s:74337  .debug_str:0000000000006626 .LASF2333
     /tmp/ccDRY82K.s:71939  .debug_str:00000000000004e4 .LASF2334
     /tmp/ccDRY82K.s:77793  .debug_str:000000000000f9a0 .LASF2335
     /tmp/ccDRY82K.s:75897  .debug_str:000000000000a785 .LASF2336
     /tmp/ccDRY82K.s:78217  .debug_str:0000000000010a5d .LASF2337
     /tmp/ccDRY82K.s:78339  .debug_str:0000000000010f0c .LASF2338
     /tmp/ccDRY82K.s:78401  .debug_str:00000000000111a6 .LASF2339
     /tmp/ccDRY82K.s:77533  .debug_str:000000000000ee6a .LASF2340
     /tmp/ccDRY82K.s:71875  .debug_str:000000000000021c .LASF2341
     /tmp/ccDRY82K.s:78601  .debug_str:00000000000119f3 .LASF2342
     /tmp/ccDRY82K.s:74853  .debug_str:0000000000007d9a .LASF2343
     /tmp/ccDRY82K.s:74207  .debug_str:00000000000060e9 .LASF2344
     /tmp/ccDRY82K.s:75555  .debug_str:0000000000009ae4 .LASF2345
     /tmp/ccDRY82K.s:76711  .debug_str:000000000000cafc .LASF2346
     /tmp/ccDRY82K.s:72755  .debug_str:0000000000002564 .LASF2347
     /tmp/ccDRY82K.s:78481  .debug_str:00000000000114f3 .LASF2348
     /tmp/ccDRY82K.s:72123  .debug_str:0000000000000c15 .LASF2349
     /tmp/ccDRY82K.s:72463  .debug_str:000000000000191a .LASF2350
     /tmp/ccDRY82K.s:75093  .debug_str:00000000000087e6 .LASF2351
     /tmp/ccDRY82K.s:78091  .debug_str:00000000000105f0 .LASF2352
     /tmp/ccDRY82K.s:75533  .debug_str:0000000000009a62 .LASF2353
     /tmp/ccDRY82K.s:77153  .debug_str:000000000000ddaa .LASF2354
     /tmp/ccDRY82K.s:71835  .debug_str:0000000000000000 .LASF2355
     /tmp/ccDRY82K.s:72807  .debug_str:0000000000002864 .LASF2356
     /tmp/ccDRY82K.s:75293  .debug_str:000000000000904d .LASF2357
     /tmp/ccDRY82K.s:72013  .debug_str:00000000000007fe .LASF2358
     /tmp/ccDRY82K.s:72091  .debug_str:0000000000000acf .LASF2359
     /tmp/ccDRY82K.s:74195  .debug_str:0000000000006043 .LASF2360
     /tmp/ccDRY82K.s:72569  .debug_str:0000000000001d3b .LASF2361
     /tmp/ccDRY82K.s:79111  .debug_str:0000000000013024 .LASF2362
     /tmp/ccDRY82K.s:77193  .debug_str:000000000000df73 .LASF2363
     /tmp/ccDRY82K.s:72571  .debug_str:0000000000001d4e .LASF2364
     /tmp/ccDRY82K.s:79115  .debug_str:000000000001304a .LASF2365
     /tmp/ccDRY82K.s:72783  .debug_str:0000000000002722 .LASF2366
     /tmp/ccDRY82K.s:72019  .debug_str:0000000000000843 .LASF2367
     /tmp/ccDRY82K.s:79117  .debug_str:000000000001305d .LASF2368
     /tmp/ccDRY82K.s:75885  .debug_str:000000000000a6c1 .LASF2369
     /tmp/ccDRY82K.s:72021  .debug_str:0000000000000856 .LASF2370
     /tmp/ccDRY82K.s:79119  .debug_str:0000000000013070 .LASF2371
     /tmp/ccDRY82K.s:76775  .debug_str:000000000000cd75 .LASF2372
     /tmp/ccDRY82K.s:72023  .debug_str:0000000000000869 .LASF2373
     /tmp/ccDRY82K.s:72101  .debug_str:0000000000000b4b .LASF2374
     /tmp/ccDRY82K.s:74481  .debug_str:0000000000006c2a .LASF2375
     /tmp/ccDRY82K.s:72579  .debug_str:0000000000001db4 .LASF2376
     /tmp/ccDRY82K.s:79123  .debug_str:000000000001308a .LASF2377
     /tmp/ccDRY82K.s:77423  .debug_str:000000000000e9b2 .LASF2378
     /tmp/ccDRY82K.s:72027  .debug_str:000000000000089c .LASF2379
     /tmp/ccDRY82K.s:72105  .debug_str:0000000000000b73 .LASF2380
     /tmp/ccDRY82K.s:73027  .debug_str:0000000000003169 .LASF2381
     /tmp/ccDRY82K.s:77275  .debug_str:000000000000e316 .LASF2382
     /tmp/ccDRY82K.s:77055  .debug_str:000000000000d9f3 .LASF2383
     /tmp/ccDRY82K.s:78375  .debug_str:0000000000011080 .LASF2384
     /tmp/ccDRY82K.s:77277  .debug_str:000000000000e329 .LASF2385
     /tmp/ccDRY82K.s:73151  .debug_str:00000000000036ce .LASF2386
     /tmp/ccDRY82K.s:74041  .debug_str:000000000000597e .LASF2387
     /tmp/ccDRY82K.s:73591  .debug_str:000000000000497e .LASF2388
     /tmp/ccDRY82K.s:73153  .debug_str:00000000000036e1 .LASF2389
     /tmp/ccDRY82K.s:77041  .debug_str:000000000000d94c .LASF2390
     /tmp/ccDRY82K.s:73593  .debug_str:0000000000004991 .LASF2391
     /tmp/ccDRY82K.s:73155  .debug_str:00000000000036f4 .LASF2392
     /tmp/ccDRY82K.s:72631  .debug_str:000000000000200e .LASF2393
     /tmp/ccDRY82K.s:73595  .debug_str:00000000000049a4 .LASF2394
     /tmp/ccDRY82K.s:73157  .debug_str:0000000000003707 .LASF2395
     /tmp/ccDRY82K.s:79075  .debug_str:0000000000012e5e .LASF2396
     /tmp/ccDRY82K.s:77281  .debug_str:000000000000e365 .LASF2397
     /tmp/ccDRY82K.s:73159  .debug_str:000000000000371a .LASF2398
     /tmp/ccDRY82K.s:78623  .debug_str:0000000000011b10 .LASF2399
     /tmp/ccDRY82K.s:73599  .debug_str:00000000000049c2 .LASF2400
     /tmp/ccDRY82K.s:73161  .debug_str:000000000000372d .LASF2401
     /tmp/ccDRY82K.s:74311  .debug_str:000000000000650e .LASF2402
     /tmp/ccDRY82K.s:77285  .debug_str:000000000000e386 .LASF2403
     /tmp/ccDRY82K.s:73163  .debug_str:0000000000003740 .LASF2404
     /tmp/ccDRY82K.s:78765  .debug_str:00000000000120c3 .LASF2405
     /tmp/ccDRY82K.s:73911  .debug_str:000000000000544d .LASF2406
     /tmp/ccDRY82K.s:72531  .debug_str:0000000000001be0 .LASF2407
     /tmp/ccDRY82K.s:77509  .debug_str:000000000000ed33 .LASF2408
     /tmp/ccDRY82K.s:77439  .debug_str:000000000000ea89 .LASF2409
     /tmp/ccDRY82K.s:73497  .debug_str:00000000000045cf .LASF2410
     /tmp/ccDRY82K.s:74397  .debug_str:000000000000690f .LASF2411
     /tmp/ccDRY82K.s:76379  .debug_str:000000000000baf1 .LASF2412
     /tmp/ccDRY82K.s:77489  .debug_str:000000000000ec3a .LASF2413
     /tmp/ccDRY82K.s:74313  .debug_str:0000000000006535 .LASF2414
     /tmp/ccDRY82K.s:73065  .debug_str:0000000000003372 .LASF2415
     /tmp/ccDRY82K.s:74401  .debug_str:000000000000695f .LASF2416
     /tmp/ccDRY82K.s:73345  .debug_str:0000000000003f85 .LASF2417
     /tmp/ccDRY82K.s:74747  .debug_str:0000000000007919 .LASF2418
     /tmp/ccDRY82K.s:75947  .debug_str:000000000000a911 .LASF2419
     /tmp/ccDRY82K.s:73887  .debug_str:000000000000537a .LASF2420
     /tmp/ccDRY82K.s:76529  .debug_str:000000000000c1f6 .LASF2421
     /tmp/ccDRY82K.s:75521  .debug_str:00000000000099f1 .LASF2422
     /tmp/ccDRY82K.s:77951  .debug_str:00000000000100e6 .LASF2423
     /tmp/ccDRY82K.s:75565  .debug_str:0000000000009b5c .LASF2424
     /tmp/ccDRY82K.s:73801  .debug_str:0000000000005088 .LASF2425
     /tmp/ccDRY82K.s:73063  .debug_str:000000000000334a .LASF2426
     /tmp/ccDRY82K.s:76411  .debug_str:000000000000bc43 .LASF2427
     /tmp/ccDRY82K.s:74043  .debug_str:00000000000059a5 .LASF2428
     /tmp/ccDRY82K.s:73033  .debug_str:00000000000031bc .LASF2429
     /tmp/ccDRY82K.s:73649  .debug_str:0000000000004b92 .LASF2430
     /tmp/ccDRY82K.s:72555  .debug_str:0000000000001cd8 .LASF2431
     /tmp/ccDRY82K.s:74787  .debug_str:0000000000007aca .LASF2432
     /tmp/ccDRY82K.s:78791  .debug_str:00000000000121c8 .LASF2433
     /tmp/ccDRY82K.s:77495  .debug_str:000000000000ec80 .LASF2434
     /tmp/ccDRY82K.s:73661  .debug_str:0000000000004bde .LASF2435
     /tmp/ccDRY82K.s:73229  .debug_str:0000000000003a34 .LASF2436
     /tmp/ccDRY82K.s:72201  .debug_str:0000000000000ee8 .LASF2437
     /tmp/ccDRY82K.s:77745  .debug_str:000000000000f75f .LASF2438
     /tmp/ccDRY82K.s:72705  .debug_str:0000000000002342 .LASF2439
     /tmp/ccDRY82K.s:77117  .debug_str:000000000000dc62 .LASF2440
     /tmp/ccDRY82K.s:77531  .debug_str:000000000000ee4e .LASF2441
     /tmp/ccDRY82K.s:75327  .debug_str:000000000000922e .LASF2442
     /tmp/ccDRY82K.s:74143  .debug_str:0000000000005df9 .LASF2443
     /tmp/ccDRY82K.s:75279  .debug_str:0000000000008fbb .LASF2444
     /tmp/ccDRY82K.s:76779  .debug_str:000000000000cdb4 .LASF2445
     /tmp/ccDRY82K.s:76889  .debug_str:000000000000d289 .LASF2446
     /tmp/ccDRY82K.s:78353  .debug_str:0000000000010fa0 .LASF2447
     /tmp/ccDRY82K.s:74709  .debug_str:00000000000076f3 .LASF2448
     /tmp/ccDRY82K.s:73435  .debug_str:00000000000042fd .LASF2449
     /tmp/ccDRY82K.s:74363  .debug_str:0000000000006770 .LASF2450
     /tmp/ccDRY82K.s:73513  .debug_str:00000000000046e0 .LASF2451
     /tmp/ccDRY82K.s:74765  .debug_str:00000000000079c2 .LASF2452
     /tmp/ccDRY82K.s:75283  .debug_str:0000000000008fe4 .LASF2453
     /tmp/ccDRY82K.s:74493  .debug_str:0000000000006cee .LASF2454
     /tmp/ccDRY82K.s:73059  .debug_str:000000000000331e .LASF2455
     /tmp/ccDRY82K.s:77577  .debug_str:000000000000f021 .LASF2456
     /tmp/ccDRY82K.s:78307  .debug_str:0000000000010dd3 .LASF2457
     /tmp/ccDRY82K.s:79077  .debug_str:0000000000012e85 .LASF2458
     /tmp/ccDRY82K.s:78615  .debug_str:0000000000011ac0 .LASF2459
     /tmp/ccDRY82K.s:74103  .debug_str:0000000000005bf9 .LASF2460
     /tmp/ccDRY82K.s:77399  .debug_str:000000000000e8e5 .LASF2461
     /tmp/ccDRY82K.s:77421  .debug_str:000000000000e992 .LASF2462
     /tmp/ccDRY82K.s:74805  .debug_str:0000000000007b8c .LASF2463
     /tmp/ccDRY82K.s:74919  .debug_str:0000000000008044 .LASF2464
     /tmp/ccDRY82K.s:78239  .debug_str:0000000000010b16 .LASF2465
     /tmp/ccDRY82K.s:76683  .debug_str:000000000000c990 .LASF2466
     /tmp/ccDRY82K.s:77565  .debug_str:000000000000ef97 .LASF2467
     /tmp/ccDRY82K.s:74485  .debug_str:0000000000006c76 .LASF2468
     /tmp/ccDRY82K.s:73203  .debug_str:00000000000038dd .LASF2469
     /tmp/ccDRY82K.s:76959  .debug_str:000000000000d52a .LASF2470
     /tmp/ccDRY82K.s:75381  .debug_str:00000000000093fb .LASF2471
     /tmp/ccDRY82K.s:77219  .debug_str:000000000000e08a .LASF2472
     /tmp/ccDRY82K.s:77949  .debug_str:00000000000100d7 .LASF2473
     /tmp/ccDRY82K.s:77855  .debug_str:000000000000fc73 .LASF2474
     /tmp/ccDRY82K.s:77187  .debug_str:000000000000df2d .LASF2475
     /tmp/ccDRY82K.s:72203  .debug_str:0000000000000ef2 .LASF2476
     /tmp/ccDRY82K.s:76661  .debug_str:000000000000c85e .LASF2477
     /tmp/ccDRY82K.s:74389  .debug_str:00000000000068c4 .LASF2478
     /tmp/ccDRY82K.s:71881  .debug_str:000000000000024d .LASF2479
     /tmp/ccDRY82K.s:72739  .debug_str:000000000000248c .LASF2480
     /tmp/ccDRY82K.s:73075  .debug_str:00000000000033f8 .LASF2481
     /tmp/ccDRY82K.s:77311  .debug_str:000000000000e4ab .LASF2482
     /tmp/ccDRY82K.s:72805  .debug_str:000000000000283c .LASF2483
     /tmp/ccDRY82K.s:76615  .debug_str:000000000000c631 .LASF2484
     /tmp/ccDRY82K.s:79043  .debug_str:0000000000012cce .LASF2485
     /tmp/ccDRY82K.s:74341  .debug_str:000000000000664b .LASF2486
     /tmp/ccDRY82K.s:73375  .debug_str:0000000000004090 .LASF2487
     /tmp/ccDRY82K.s:78577  .debug_str:00000000000118e6 .LASF2488
     /tmp/ccDRY82K.s:74411  .debug_str:00000000000069bb .LASF2489
     /tmp/ccDRY82K.s:74199  .debug_str:000000000000608f .LASF2490
     /tmp/ccDRY82K.s:74877  .debug_str:0000000000007e7d .LASF2491
     /tmp/ccDRY82K.s:72157  .debug_str:0000000000000d02 .LASF2492
     /tmp/ccDRY82K.s:74921  .debug_str:000000000000804c .LASF2493
     /tmp/ccDRY82K.s:73433  .debug_str:00000000000042e2 .LASF2494
     /tmp/ccDRY82K.s:72617  .debug_str:0000000000001f6b .LASF2495
     /tmp/ccDRY82K.s:75261  .debug_str:0000000000008f14 .LASF2496
     /tmp/ccDRY82K.s:76627  .debug_str:000000000000c6b7 .LASF2497
     /tmp/ccDRY82K.s:73509  .debug_str:0000000000004697 .LASF2498
     /tmp/ccDRY82K.s:77631  .debug_str:000000000000f2c3 .LASF2499
     /tmp/ccDRY82K.s:77345  .debug_str:000000000000e67f .LASF2500
     /tmp/ccDRY82K.s:72509  .debug_str:0000000000001ae9 .LASF2501
     /tmp/ccDRY82K.s:75023  .debug_str:000000000000850b .LASF2502
     /tmp/ccDRY82K.s:75709  .debug_str:000000000000a06a .LASF2503
     /tmp/ccDRY82K.s:78559  .debug_str:00000000000117f4 .LASF2504
     /tmp/ccDRY82K.s:77563  .debug_str:000000000000ef89 .LASF2505
     /tmp/ccDRY82K.s:75453  .debug_str:0000000000009703 .LASF2506
     /tmp/ccDRY82K.s:75273  .debug_str:0000000000008f6f .LASF2507
     /tmp/ccDRY82K.s:72963  .debug_str:0000000000002edd .LASF2508
     /tmp/ccDRY82K.s:75513  .debug_str:0000000000009998 .LASF2509
     /tmp/ccDRY82K.s:74419  .debug_str:0000000000006a1d .LASF2510
     /tmp/ccDRY82K.s:76339  .debug_str:000000000000b92a .LASF2511
     /tmp/ccDRY82K.s:72467  .debug_str:000000000000193c .LASF2512
     /tmp/ccDRY82K.s:72641  .debug_str:000000000000207e .LASF2513
     /tmp/ccDRY82K.s:73839  .debug_str:00000000000051ec .LASF2514
     /tmp/ccDRY82K.s:72163  .debug_str:0000000000000d72 .LASF2515
     /tmp/ccDRY82K.s:74985  .debug_str:000000000000833b .LASF2516
     /tmp/ccDRY82K.s:75039  .debug_str:000000000000859d .LASF2517
     /tmp/ccDRY82K.s:76225  .debug_str:000000000000b39b .LASF2518
     /tmp/ccDRY82K.s:74609  .debug_str:00000000000071e2 .LASF2519
     /tmp/ccDRY82K.s:78475  .debug_str:00000000000114ad .LASF2520
     /tmp/ccDRY82K.s:73493  .debug_str:00000000000045a2 .LASF2521
     /tmp/ccDRY82K.s:76457  .debug_str:000000000000be86 .LASF2522
     /tmp/ccDRY82K.s:78187  .debug_str:000000000001096a .LASF2523
     /tmp/ccDRY82K.s:77923  .debug_str:000000000000ffca .LASF2524
     /tmp/ccDRY82K.s:78393  .debug_str:0000000000011136 .LASF2525
     /tmp/ccDRY82K.s:77149  .debug_str:000000000000dd7b .LASF2526
     /tmp/ccDRY82K.s:73021  .debug_str:0000000000003133 .LASF2527
     /tmp/ccDRY82K.s:72915  .debug_str:0000000000002ca8 .LASF2528
     /tmp/ccDRY82K.s:77895  .debug_str:000000000000fe81 .LASF2529
     /tmp/ccDRY82K.s:73167  .debug_str:000000000000375e .LASF2530
     /tmp/ccDRY82K.s:74633  .debug_str:00000000000072f9 .LASF2531
     /tmp/ccDRY82K.s:74797  .debug_str:0000000000007b45 .LASF2532
     /tmp/ccDRY82K.s:78455  .debug_str:00000000000113a8 .LASF2533
     /tmp/ccDRY82K.s:76075  .debug_str:000000000000ad37 .LASF2534
     /tmp/ccDRY82K.s:74109  .debug_str:0000000000005c3d .LASF2535
     /tmp/ccDRY82K.s:72729  .debug_str:0000000000002422 .LASF2536
     /tmp/ccDRY82K.s:78939  .debug_str:00000000000128cd .LASF2537
     /tmp/ccDRY82K.s:72633  .debug_str:0000000000002035 .LASF2538
     /tmp/ccDRY82K.s:76935  .debug_str:000000000000d43c .LASF2539
     /tmp/ccDRY82K.s:77653  .debug_str:000000000000f3b6 .LASF2540
     /tmp/ccDRY82K.s:72551  .debug_str:0000000000001cb8 .LASF2541
     /tmp/ccDRY82K.s:76867  .debug_str:000000000000d177 .LASF2542
     /tmp/ccDRY82K.s:73483  .debug_str:0000000000004557 .LASF2543
     /tmp/ccDRY82K.s:78721  .debug_str:0000000000011ef3 .LASF2544
     /tmp/ccDRY82K.s:77411  .debug_str:000000000000e951 .LASF2545
     /tmp/ccDRY82K.s:75491  .debug_str:000000000000986a .LASF2546
     /tmp/ccDRY82K.s:78447  .debug_str:0000000000011363 .LASF2547
     /tmp/ccDRY82K.s:77139  .debug_str:000000000000dd3a .LASF2548
     /tmp/ccDRY82K.s:75489  .debug_str:000000000000984f .LASF2549
     /tmp/ccDRY82K.s:77665  .debug_str:000000000000f449 .LASF2550
     /tmp/ccDRY82K.s:72817  .debug_str:00000000000028bd .LASF2551
     /tmp/ccDRY82K.s:72265  .debug_str:000000000000114b .LASF2552
     /tmp/ccDRY82K.s:72309  .debug_str:00000000000012fb .LASF2553
     /tmp/ccDRY82K.s:76161  .debug_str:000000000000b106 .LASF2554
     /tmp/ccDRY82K.s:74491  .debug_str:0000000000006cc8 .LASF2555
     /tmp/ccDRY82K.s:73817  .debug_str:0000000000005138 .LASF2556
     /tmp/ccDRY82K.s:72259  .debug_str:00000000000010ff .LASF2557
     /tmp/ccDRY82K.s:73965  .debug_str:0000000000005648 .LASF2558
     /tmp/ccDRY82K.s:73193  .debug_str:000000000000386a .LASF2559
     /tmp/ccDRY82K.s:78941  .debug_str:00000000000128e9 .LASF2560
     /tmp/ccDRY82K.s:71955  .debug_str:000000000000056f .LASF2561
     /tmp/ccDRY82K.s:73969  .debug_str:0000000000005682 .LASF2562
     /tmp/ccDRY82K.s:73757  .debug_str:0000000000004f1d .LASF2563
     /tmp/ccDRY82K.s:77927  .debug_str:0000000000010008 .LASF2564
     /tmp/ccDRY82K.s:78409  .debug_str:00000000000111f6 .LASF2565
     /tmp/ccDRY82K.s:76995  .debug_str:000000000000d701 .LASF2566
     /tmp/ccDRY82K.s:73257  .debug_str:0000000000003b6e .LASF2567
     /tmp/ccDRY82K.s:77081  .debug_str:000000000000db0f .LASF2568
     /tmp/ccDRY82K.s:75047  .debug_str:0000000000008602 .LASF2569
     /tmp/ccDRY82K.s:77853  .debug_str:000000000000fc4e .LASF2570
     /tmp/ccDRY82K.s:71949  .debug_str:0000000000000540 .LASF2571
     /tmp/ccDRY82K.s:76533  .debug_str:000000000000c241 .LASF2572
     /tmp/ccDRY82K.s:75501  .debug_str:00000000000098d1 .LASF2573
     /tmp/ccDRY82K.s:72745  .debug_str:00000000000024f1 .LASF2574
     /tmp/ccDRY82K.s:75013  .debug_str:000000000000848c .LASF2575
     /tmp/ccDRY82K.s:71847  .debug_str:000000000000008c .LASF2576
     /tmp/ccDRY82K.s:75931  .debug_str:000000000000a864 .LASF2577
     /tmp/ccDRY82K.s:76709  .debug_str:000000000000caf0 .LASF2578
     /tmp/ccDRY82K.s:72957  .debug_str:0000000000002e89 .LASF2579
     /tmp/ccDRY82K.s:78947  .debug_str:000000000001293f .LASF2580
     /tmp/ccDRY82K.s:77689  .debug_str:000000000000f525 .LASF2581
     /tmp/ccDRY82K.s:78469  .debug_str:0000000000011461 .LASF2582
     /tmp/ccDRY82K.s:76409  .debug_str:000000000000bc2f .LASF2583
     /tmp/ccDRY82K.s:76871  .debug_str:000000000000d1a6 .LASF2584
     /tmp/ccDRY82K.s:71869  .debug_str:00000000000001b8 .LASF2585
     /tmp/ccDRY82K.s:78665  .debug_str:0000000000011cd4 .LASF2586
     /tmp/ccDRY82K.s:75181  .debug_str:0000000000008b3a .LASF2587
     /tmp/ccDRY82K.s:77161  .debug_str:000000000000ddf8 .LASF2588
     /tmp/ccDRY82K.s:78473  .debug_str:0000000000011496 .LASF2589
     /tmp/ccDRY82K.s:72673  .debug_str:00000000000021c8 .LASF2590
     /tmp/ccDRY82K.s:73397  .debug_str:0000000000004158 .LASF2591
     /tmp/ccDRY82K.s:72655  .debug_str:000000000000211d .LASF2592
     /tmp/ccDRY82K.s:74437  .debug_str:0000000000006adb .LASF2593
     /tmp/ccDRY82K.s:71925  .debug_str:000000000000042c .LASF2594
     /tmp/ccDRY82K.s:78629  .debug_str:0000000000011b54 .LASF2595
     /tmp/ccDRY82K.s:78593  .debug_str:0000000000011999 .LASF2596
     /tmp/ccDRY82K.s:73959  .debug_str:00000000000055f1 .LASF2597
     /tmp/ccDRY82K.s:75771  .debug_str:000000000000a2a1 .LASF2598
     /tmp/ccDRY82K.s:75895  .debug_str:000000000000a770 .LASF2599
     /tmp/ccDRY82K.s:74989  .debug_str:0000000000008365 .LASF2600
     /tmp/ccDRY82K.s:76925  .debug_str:000000000000d3da .LASF2601
     /tmp/ccDRY82K.s:74403  .debug_str:0000000000006973 .LASF2602
     /tmp/ccDRY82K.s:74197  .debug_str:000000000000606a .LASF2603
     /tmp/ccDRY82K.s:78063  .debug_str:00000000000104ae .LASF2604
     /tmp/ccDRY82K.s:72429  .debug_str:0000000000001776 .LASF2605
     /tmp/ccDRY82K.s:72171  .debug_str:0000000000000dd1 .LASF2606
     /tmp/ccDRY82K.s:72483  .debug_str:0000000000001a07 .LASF2607
     /tmp/ccDRY82K.s:74241  .debug_str:0000000000006223 .LASF2608
     /tmp/ccDRY82K.s:78735  .debug_str:0000000000011f66 .LASF2609
     /tmp/ccDRY82K.s:72193  .debug_str:0000000000000e86 .LASF2610
     /tmp/ccDRY82K.s:77183  .debug_str:000000000000df11 .LASF2611
     /tmp/ccDRY82K.s:76669  .debug_str:000000000000c8e1 .LASF2612
     /tmp/ccDRY82K.s:78551  .debug_str:00000000000117a4 .LASF2613
     /tmp/ccDRY82K.s:74303  .debug_str:0000000000006499 .LASF2614
     /tmp/ccDRY82K.s:74141  .debug_str:0000000000005dd0 .LASF2615
     /tmp/ccDRY82K.s:76781  .debug_str:000000000000cdbc .LASF2616
     /tmp/ccDRY82K.s:74665  .debug_str:00000000000074dc .LASF2617
     /tmp/ccDRY82K.s:76853  .debug_str:000000000000d0d8 .LASF2618
     /tmp/ccDRY82K.s:79131  .debug_str:00000000000130c5 .LASF2619
     /tmp/ccDRY82K.s:75657  .debug_str:0000000000009ec7 .LASF2620
     /tmp/ccDRY82K.s:71855  .debug_str:0000000000000100 .LASF2621
     /tmp/ccDRY82K.s:75651  .debug_str:0000000000009ea4 .LASF2622
     /tmp/ccDRY82K.s:77239  .debug_str:000000000000e163 .LASF2623
     /tmp/ccDRY82K.s:72597  .debug_str:0000000000001e59 .LASF2624
     /tmp/ccDRY82K.s:76735  .debug_str:000000000000cbab .LASF2625
     /tmp/ccDRY82K.s:77231  .debug_str:000000000000e0db .LASF2626
     /tmp/ccDRY82K.s:77383  .debug_str:000000000000e841 .LASF2627
     /tmp/ccDRY82K.s:76841  .debug_str:000000000000d045 .LASF2628
     /tmp/ccDRY82K.s:72621  .debug_str:0000000000001fa3 .LASF2629
     /tmp/ccDRY82K.s:76687  .debug_str:000000000000c9ae .LASF2630
     /tmp/ccDRY82K.s:76573  .debug_str:000000000000c42b .LASF2631
     /tmp/ccDRY82K.s:73355  .debug_str:0000000000003ffa .LASF2632
     /tmp/ccDRY82K.s:73499  .debug_str:00000000000045e2 .LASF2633
     /tmp/ccDRY82K.s:72741  .debug_str:00000000000024b0 .LASF2634
     /tmp/ccDRY82K.s:73705  .debug_str:0000000000004d2c .LASF2635
     /tmp/ccDRY82K.s:73989  .debug_str:000000000000577a .LASF2636
     /tmp/ccDRY82K.s:76145  .debug_str:000000000000b06c .LASF2637
     /tmp/ccDRY82K.s:74723  .debug_str:0000000000007781 .LASF2638
     /tmp/ccDRY82K.s:76013  .debug_str:000000000000ab1e .LASF2639
     /tmp/ccDRY82K.s:76653  .debug_str:000000000000c7da .LASF2640
     /tmp/ccDRY82K.s:76153  .debug_str:000000000000b0cf .LASF2641
     /tmp/ccDRY82K.s:72761  .debug_str:00000000000025a2 .LASF2642
     /tmp/ccDRY82K.s:72707  .debug_str:000000000000234a .LASF2643
     /tmp/ccDRY82K.s:78633  .debug_str:0000000000011ba7 .LASF2644
     /tmp/ccDRY82K.s:72691  .debug_str:000000000000229c .LASF2645
     /tmp/ccDRY82K.s:72301  .debug_str:0000000000001293 .LASF2646
     /tmp/ccDRY82K.s:77177  .debug_str:000000000000ded1 .LASF2647
     /tmp/ccDRY82K.s:78815  .debug_str:00000000000122c2 .LASF2648
     /tmp/ccDRY82K.s:76631  .debug_str:000000000000c6d9 .LASF2649
     /tmp/ccDRY82K.s:75187  .debug_str:0000000000008b76 .LASF2650
     /tmp/ccDRY82K.s:75843  .debug_str:000000000000a53a .LASF2651
     /tmp/ccDRY82K.s:78421  .debug_str:0000000000011285 .LASF2652
     /tmp/ccDRY82K.s:73341  .debug_str:0000000000003f66 .LASF2653
     /tmp/ccDRY82K.s:73461  .debug_str:0000000000004458 .LASF2654
     /tmp/ccDRY82K.s:76509  .debug_str:000000000000c11f .LASF2655
     /tmp/ccDRY82K.s:79081  .debug_str:0000000000012eb4 .LASF2656
     /tmp/ccDRY82K.s:76961  .debug_str:000000000000d53a .LASF2657
     /tmp/ccDRY82K.s:72869  .debug_str:0000000000002ac2 .LASF2658
     /tmp/ccDRY82K.s:74569  .debug_str:000000000000703b .LASF2659
     /tmp/ccDRY82K.s:73949  .debug_str:000000000000555f .LASF2660
     /tmp/ccDRY82K.s:74851  .debug_str:0000000000007d84 .LASF2661
     /tmp/ccDRY82K.s:72433  .debug_str:00000000000017ae .LASF2662
     /tmp/ccDRY82K.s:74251  .debug_str:0000000000006266 .LASF2663
     /tmp/ccDRY82K.s:75175  .debug_str:0000000000008af8 .LASF2664
     /tmp/ccDRY82K.s:77875  .debug_str:000000000000fd8c .LASF2665
     /tmp/ccDRY82K.s:76621  .debug_str:000000000000c655 .LASF2666
     /tmp/ccDRY82K.s:74743  .debug_str:00000000000078f7 .LASF2667
     /tmp/ccDRY82K.s:74227  .debug_str:000000000000619f .LASF2668
     /tmp/ccDRY82K.s:75321  .debug_str:00000000000091cc .LASF2669
     /tmp/ccDRY82K.s:75077  .debug_str:0000000000008710 .LASF2670
     /tmp/ccDRY82K.s:73247  .debug_str:0000000000003afe .LASF2671
     /tmp/ccDRY82K.s:79093  .debug_str:0000000000012f21 .LASF2672
     /tmp/ccDRY82K.s:77843  .debug_str:000000000000fbc4 .LASF2673
     /tmp/ccDRY82K.s:78521  .debug_str:000000000001166f .LASF2674
     /tmp/ccDRY82K.s:75311  .debug_str:000000000000910d .LASF2675
     /tmp/ccDRY82K.s:78655  .debug_str:0000000000011c79 .LASF2676
     /tmp/ccDRY82K.s:77651  .debug_str:000000000000f397 .LASF2677
     /tmp/ccDRY82K.s:76753  .debug_str:000000000000cc45 .LASF2678
     /tmp/ccDRY82K.s:73815  .debug_str:0000000000005121 .LASF2679
     /tmp/ccDRY82K.s:74693  .debug_str:000000000000763f .LASF2680
     /tmp/ccDRY82K.s:72825  .debug_str:00000000000028ef .LASF2681
     /tmp/ccDRY82K.s:77813  .debug_str:000000000000fa5d .LASF2682
     /tmp/ccDRY82K.s:76423  .debug_str:000000000000bccc .LASF2683
     /tmp/ccDRY82K.s:76965  .debug_str:000000000000d565 .LASF2684
     /tmp/ccDRY82K.s:78315  .debug_str:0000000000010e26 .LASF2685
     /tmp/ccDRY82K.s:75965  .debug_str:000000000000a9d6 .LASF2686
     /tmp/ccDRY82K.s:78889  .debug_str:0000000000012657 .LASF2687
     /tmp/ccDRY82K.s:72749  .debug_str:0000000000002529 .LASF2688
     /tmp/ccDRY82K.s:75029  .debug_str:0000000000008535 .LASF2689
     /tmp/ccDRY82K.s:71927  .debug_str:000000000000044b .LASF2690
     /tmp/ccDRY82K.s:78367  .debug_str:0000000000011044 .LASF2691
     /tmp/ccDRY82K.s:72111  .debug_str:0000000000000bae .LASF2692
     /tmp/ccDRY82K.s:76893  .debug_str:000000000000d299 .LASF2693
     /tmp/ccDRY82K.s:79059  .debug_str:0000000000012d82 .LASF2694
     /tmp/ccDRY82K.s:76009  .debug_str:000000000000ab00 .LASF2695
     /tmp/ccDRY82K.s:73275  .debug_str:0000000000003c2a .LASF2696
     /tmp/ccDRY82K.s:75365  .debug_str:0000000000009377 .LASF2697
     /tmp/ccDRY82K.s:78723  .debug_str:0000000000011efa .LASF2698
     /tmp/ccDRY82K.s:77337  .debug_str:000000000000e5f7 .LASF2699
     /tmp/ccDRY82K.s:72119  .debug_str:0000000000000bfa .LASF2700
     /tmp/ccDRY82K.s:73565  .debug_str:0000000000004862 .LASF2701
     /tmp/ccDRY82K.s:73211  .debug_str:0000000000003934 .LASF2702
     /tmp/ccDRY82K.s:72475  .debug_str:00000000000019af .LASF2703
     /tmp/ccDRY82K.s:73313  .debug_str:0000000000003de1 .LASF2704
     /tmp/ccDRY82K.s:78999  .debug_str:0000000000012b4b .LASF2705
     /tmp/ccDRY82K.s:72155  .debug_str:0000000000000cf0 .LASF2706
     /tmp/ccDRY82K.s:72249  .debug_str:0000000000001078 .LASF2707
     /tmp/ccDRY82K.s:75853  .debug_str:000000000000a5b2 .LASF2708
     /tmp/ccDRY82K.s:76071  .debug_str:000000000000ad0a .LASF2709
     /tmp/ccDRY82K.s:75019  .debug_str:00000000000084ca .LASF2710
     /tmp/ccDRY82K.s:78319  .debug_str:0000000000010e5e .LASF2711
     /tmp/ccDRY82K.s:76397  .debug_str:000000000000bb7f .LASF2712
     /tmp/ccDRY82K.s:75099  .debug_str:000000000000885f .LASF2713
     /tmp/ccDRY82K.s:72681  .debug_str:000000000000223a .LASF2714
     /tmp/ccDRY82K.s:72909  .debug_str:0000000000002c63 .LASF2715
     /tmp/ccDRY82K.s:74339  .debug_str:0000000000006641 .LASF2716
     /tmp/ccDRY82K.s:73393  .debug_str:0000000000004129 .LASF2717
     /tmp/ccDRY82K.s:72921  .debug_str:0000000000002d12 .LASF2718
     /tmp/ccDRY82K.s:74347  .debug_str:000000000000669d .LASF2719
     /tmp/ccDRY82K.s:74157  .debug_str:0000000000005e70 .LASF2720
     /tmp/ccDRY82K.s:74845  .debug_str:0000000000007d4f .LASF2721
     /tmp/ccDRY82K.s:78061  .debug_str:00000000000104a1 .LASF2722
     /tmp/ccDRY82K.s:73451  .debug_str:00000000000043cb .LASF2723
     /tmp/ccDRY82K.s:76921  .debug_str:000000000000d3b4 .LASF2724
     /tmp/ccDRY82K.s:78931  .debug_str:000000000001287a .LASF2725
     /tmp/ccDRY82K.s:74399  .debug_str:0000000000006936 .LASF2726
     /tmp/ccDRY82K.s:78345  .debug_str:0000000000010f31 .LASF2727
     /tmp/ccDRY82K.s:74093  .debug_str:0000000000005b76 .LASF2728
     /tmp/ccDRY82K.s:73057  .debug_str:00000000000032f0 .LASF2729
     /tmp/ccDRY82K.s:72703  .debug_str:0000000000002324 .LASF2730
     /tmp/ccDRY82K.s:78273  .debug_str:0000000000010ca9 .LASF2731
     /tmp/ccDRY82K.s:75765  .debug_str:000000000000a23a .LASF2732
     /tmp/ccDRY82K.s:79041  .debug_str:0000000000012cb2 .LASF2733
     /tmp/ccDRY82K.s:76287  .debug_str:000000000000b668 .LASF2734
     /tmp/ccDRY82K.s:72083  .debug_str:0000000000000a70 .LASF2735
     /tmp/ccDRY82K.s:77557  .debug_str:000000000000ef39 .LASF2736
     /tmp/ccDRY82K.s:77791  .debug_str:000000000000f983 .LASF2737
     /tmp/ccDRY82K.s:78607  .debug_str:0000000000011a48 .LASF2738
     /tmp/ccDRY82K.s:78479  .debug_str:00000000000114e0 .LASF2739
     /tmp/ccDRY82K.s:78925  .debug_str:000000000001282c .LASF2740
     /tmp/ccDRY82K.s:78133  .debug_str:0000000000010743 .LASF2741
     /tmp/ccDRY82K.s:74213  .debug_str:000000000000611c .LASF2742
     /tmp/ccDRY82K.s:71889  .debug_str:00000000000002ca .LASF2743
     /tmp/ccDRY82K.s:74959  .debug_str:0000000000008203 .LASF2744
     /tmp/ccDRY82K.s:74645  .debug_str:00000000000073e5 .LASF2745
     /tmp/ccDRY82K.s:72879  .debug_str:0000000000002b3a .LASF2746
     /tmp/ccDRY82K.s:74883  .debug_str:0000000000007ed8 .LASF2747
     /tmp/ccDRY82K.s:76251  .debug_str:000000000000b4f2 .LASF2748
     /tmp/ccDRY82K.s:78877  .debug_str:00000000000125e3 .LASF2749
     /tmp/ccDRY82K.s:72843  .debug_str:00000000000029b3 .LASF2750
     /tmp/ccDRY82K.s:78321  .debug_str:0000000000010e89 .LASF2751
     /tmp/ccDRY82K.s:77637  .debug_str:000000000000f2fd .LASF2752
     /tmp/ccDRY82K.s:74035  .debug_str:0000000000005918 .LASF2753
     /tmp/ccDRY82K.s:74037  .debug_str:0000000000005939 .LASF2754
     /tmp/ccDRY82K.s:73979  .debug_str:00000000000056e1 .LASF2755
     /tmp/ccDRY82K.s:77811  .debug_str:000000000000fa38 .LASF2756
     /tmp/ccDRY82K.s:72505  .debug_str:0000000000001ad1 .LASF2757
     /tmp/ccDRY82K.s:77917  .debug_str:000000000000ff97 .LASF2758
     /tmp/ccDRY82K.s:78861  .debug_str:00000000000124fb .LASF2759
     /tmp/ccDRY82K.s:78991  .debug_str:0000000000012aed .LASF2760
     /tmp/ccDRY82K.s:74501  .debug_str:0000000000006d28 .LASF2761
     /tmp/ccDRY82K.s:78333  .debug_str:0000000000010ecd .LASF2762
     /tmp/ccDRY82K.s:78341  .debug_str:0000000000010f14 .LASF2763
     /tmp/ccDRY82K.s:78229  .debug_str:0000000000010aa7 .LASF2764
     /tmp/ccDRY82K.s:79079  .debug_str:0000000000012e90 .LASF2765
     /tmp/ccDRY82K.s:73879  .debug_str:0000000000005327 .LASF2766
     /tmp/ccDRY82K.s:73881  .debug_str:0000000000005337 .LASF2767
     /tmp/ccDRY82K.s:76975  .debug_str:000000000000d5ee .LASF2768
     /tmp/ccDRY82K.s:72229  .debug_str:0000000000000f88 .LASF2769
     /tmp/ccDRY82K.s:74615  .debug_str:000000000000723f .LASF2770
     /tmp/ccDRY82K.s:77323  .debug_str:000000000000e51b .LASF2771
     /tmp/ccDRY82K.s:77069  .debug_str:000000000000da91 .LASF2772
     /tmp/ccDRY82K.s:73425  .debug_str:0000000000004288 .LASF2773
     /tmp/ccDRY82K.s:74771  .debug_str:00000000000079ef .LASF2774
     /tmp/ccDRY82K.s:74101  .debug_str:0000000000005bec .LASF2775
     /tmp/ccDRY82K.s:76083  .debug_str:000000000000ad9c .LASF2776
     /tmp/ccDRY82K.s:76197  .debug_str:000000000000b24f .LASF2777
     /tmp/ccDRY82K.s:76189  .debug_str:000000000000b21a .LASF2778
     /tmp/ccDRY82K.s:77049  .debug_str:000000000000d999 .LASF2779
     /tmp/ccDRY82K.s:77691  .debug_str:000000000000f536 .LASF2780
     /tmp/ccDRY82K.s:76393  .debug_str:000000000000bb5f .LASF2781
     /tmp/ccDRY82K.s:77001  .debug_str:000000000000d731 .LASF2782
     /tmp/ccDRY82K.s:75423  .debug_str:00000000000095af .LASF2783
     /tmp/ccDRY82K.s:76395  .debug_str:000000000000bb6f .LASF2784
     /tmp/ccDRY82K.s:77003  .debug_str:000000000000d741 .LASF2785
     /tmp/ccDRY82K.s:76345  .debug_str:000000000000b96f .LASF2786
     /tmp/ccDRY82K.s:77385  .debug_str:000000000000e866 .LASF2787
     /tmp/ccDRY82K.s:77303  .debug_str:000000000000e45c .LASF2788
     /tmp/ccDRY82K.s:77371  .debug_str:000000000000e79b .LASF2789
     /tmp/ccDRY82K.s:77387  .debug_str:000000000000e876 .LASF2790
     /tmp/ccDRY82K.s:78075  .debug_str:0000000000010528 .LASF2791
     /tmp/ccDRY82K.s:72959  .debug_str:0000000000002ea9 .LASF2792
     /tmp/ccDRY82K.s:77389  .debug_str:000000000000e886 .LASF2793
     /tmp/ccDRY82K.s:78077  .debug_str:0000000000010538 .LASF2794
     /tmp/ccDRY82K.s:76121  .debug_str:000000000000af20 .LASF2795
     /tmp/ccDRY82K.s:77391  .debug_str:000000000000e896 .LASF2796
     /tmp/ccDRY82K.s:78079  .debug_str:0000000000010548 .LASF2797
     /tmp/ccDRY82K.s:78975  .debug_str:0000000000012a51 .LASF2798
     /tmp/ccDRY82K.s:77393  .debug_str:000000000000e8a6 .LASF2799
     /tmp/ccDRY82K.s:78081  .debug_str:0000000000010558 .LASF2800
     /tmp/ccDRY82K.s:74679  .debug_str:00000000000075aa .LASF2801
     /tmp/ccDRY82K.s:76737  .debug_str:000000000000cbbc .LASF2802
     /tmp/ccDRY82K.s:72315  .debug_str:0000000000001358 .LASF2803
     /tmp/ccDRY82K.s:75789  .debug_str:000000000000a380 .LASF2804
     /tmp/ccDRY82K.s:78859  .debug_str:00000000000124eb .LASF2805
     /tmp/ccDRY82K.s:76029  .debug_str:000000000000abec .LASF2806
     /tmp/ccDRY82K.s:71883  .debug_str:000000000000025d .LASF2807
     /tmp/ccDRY82K.s:77765  .debug_str:000000000000f865 .LASF2808
     /tmp/ccDRY82K.s:72369  .debug_str:00000000000014ed .LASF2809
     /tmp/ccDRY82K.s:76681  .debug_str:000000000000c966 .LASF2810
     /tmp/ccDRY82K.s:77769  .debug_str:000000000000f88a .LASF2811
     /tmp/ccDRY82K.s:72935  .debug_str:0000000000002d9d .LASF2812
     /tmp/ccDRY82K.s:72311  .debug_str:000000000000130d .LASF2813
     /tmp/ccDRY82K.s:77773  .debug_str:000000000000f8b3 .LASF2814
     /tmp/ccDRY82K.s:72373  .debug_str:0000000000001516 .LASF2815
     /tmp/ccDRY82K.s:75325  .debug_str:0000000000009204 .LASF2816
     /tmp/ccDRY82K.s:74167  .debug_str:0000000000005eee .LASF2817
     /tmp/ccDRY82K.s:72375  .debug_str:000000000000152c .LASF2818
     /tmp/ccDRY82K.s:78317  .debug_str:0000000000010e34 .LASF2819
     /tmp/ccDRY82K.s:74169  .debug_str:0000000000005f04 .LASF2820
     /tmp/ccDRY82K.s:72377  .debug_str:0000000000001542 .LASF2821
     /tmp/ccDRY82K.s:74021  .debug_str:0000000000005879 .LASF2822
     /tmp/ccDRY82K.s:74171  .debug_str:0000000000005f1a .LASF2823
     /tmp/ccDRY82K.s:72379  .debug_str:0000000000001558 .LASF2824
     /tmp/ccDRY82K.s:73727  .debug_str:0000000000004da0 .LASF2825
     /tmp/ccDRY82K.s:74173  .debug_str:0000000000005f30 .LASF2826
     /tmp/ccDRY82K.s:72381  .debug_str:000000000000156e .LASF2827
     /tmp/ccDRY82K.s:78543  .debug_str:0000000000011754 .LASF2828
     /tmp/ccDRY82K.s:74175  .debug_str:0000000000005f46 .LASF2829
     /tmp/ccDRY82K.s:72383  .debug_str:0000000000001584 .LASF2830
     /tmp/ccDRY82K.s:76105  .debug_str:000000000000ae57 .LASF2831
     /tmp/ccDRY82K.s:75901  .debug_str:000000000000a7b2 .LASF2832
     /tmp/ccDRY82K.s:77115  .debug_str:000000000000dc53 .LASF2833
     /tmp/ccDRY82K.s:71977  .debug_str:0000000000000660 .LASF2834
     /tmp/ccDRY82K.s:72945  .debug_str:0000000000002e35 .LASF2835
     /tmp/ccDRY82K.s:75101  .debug_str:0000000000008884 .LASF2836
     /tmp/ccDRY82K.s:71941  .debug_str:00000000000004ed .LASF2837
     /tmp/ccDRY82K.s:77151  .debug_str:000000000000dd91 .LASF2838
     /tmp/ccDRY82K.s:73243  .debug_str:0000000000003abf .LASF2839
     /tmp/ccDRY82K.s:72939  .debug_str:0000000000002dd0 .LASF2840
     /tmp/ccDRY82K.s:77271  .debug_str:000000000000e2de .LASF2841
     /tmp/ccDRY82K.s:76957  .debug_str:000000000000d513 .LASF2842
     /tmp/ccDRY82K.s:72867  .debug_str:0000000000002a97 .LASF2843
     /tmp/ccDRY82K.s:73353  .debug_str:0000000000003fea .LASF2844
     /tmp/ccDRY82K.s:73957  .debug_str:00000000000055e1 .LASF2845
     /tmp/ccDRY82K.s:74631  .debug_str:00000000000072d5 .LASF2846
     /tmp/ccDRY82K.s:77045  .debug_str:000000000000d979 .LASF2847
     /tmp/ccDRY82K.s:75787  .debug_str:000000000000a366 .LASF2848
     /tmp/ccDRY82K.s:75097  .debug_str:0000000000008831 .LASF2849
     /tmp/ccDRY82K.s:72693  .debug_str:00000000000022c2 .LASF2850
     /tmp/ccDRY82K.s:75159  .debug_str:0000000000008a70 .LASF2851
     /tmp/ccDRY82K.s:77803  .debug_str:000000000000f9ef .LASF2852
     /tmp/ccDRY82K.s:77629  .debug_str:000000000000f2b0 .LASF2853
     /tmp/ccDRY82K.s:73811  .debug_str:00000000000050e8 .LASF2854
     /tmp/ccDRY82K.s:77627  .debug_str:000000000000f289 .LASF2855
     /tmp/ccDRY82K.s:78361  .debug_str:000000000001100c .LASF2856
     /tmp/ccDRY82K.s:74807  .debug_str:0000000000007b94 .LASF2857
     /tmp/ccDRY82K.s:75637  .debug_str:0000000000009dd6 .LASF2858
     /tmp/ccDRY82K.s:74263  .debug_str:0000000000006319 .LASF2859
     /tmp/ccDRY82K.s:76237  .debug_str:000000000000b401 .LASF2860
     /tmp/ccDRY82K.s:78137  .debug_str:0000000000010799 .LASF2861
     /tmp/ccDRY82K.s:77265  .debug_str:000000000000e298 .LASF2862
     /tmp/ccDRY82K.s:77349  .debug_str:000000000000e694 .LASF2863
     /tmp/ccDRY82K.s:79007  .debug_str:0000000000012bb0 .LASF2864
     /tmp/ccDRY82K.s:78053  .debug_str:0000000000010442 .LASF2865
     /tmp/ccDRY82K.s:74929  .debug_str:00000000000080a3 .LASF2866
     /tmp/ccDRY82K.s:75157  .debug_str:0000000000008a4d .LASF2867
     /tmp/ccDRY82K.s:76977  .debug_str:000000000000d612 .LASF2868
     /tmp/ccDRY82K.s:76875  .debug_str:000000000000d1fe .LASF2869
     /tmp/ccDRY82K.s:78711  .debug_str:0000000000011e73 .LASF2870
     /tmp/ccDRY82K.s:76493  .debug_str:000000000000c072 .LASF2871
     /tmp/ccDRY82K.s:71897  .debug_str:000000000000030e .LASF2872
     /tmp/ccDRY82K.s:75207  .debug_str:0000000000008c21 .LASF2873
     /tmp/ccDRY82K.s:76069  .debug_str:000000000000acf2 .LASF2874
     /tmp/ccDRY82K.s:76367  .debug_str:000000000000ba79 .LASF2875
     /tmp/ccDRY82K.s:76249  .debug_str:000000000000b4c6 .LASF2876
     /tmp/ccDRY82K.s:72319  .debug_str:0000000000001377 .LASF2877
     /tmp/ccDRY82K.s:77913  .debug_str:000000000000ff70 .LASF2878
     /tmp/ccDRY82K.s:73325  .debug_str:0000000000003ea7 .LASF2879
     /tmp/ccDRY82K.s:75241  .debug_str:0000000000008dfb .LASF2880
     /tmp/ccDRY82K.s:75271  .debug_str:0000000000008f58 .LASF2881
     /tmp/ccDRY82K.s:78565  .debug_str:0000000000011848 .LASF2882
     /tmp/ccDRY82K.s:76385  .debug_str:000000000000bb1c .LASF2883
     /tmp/ccDRY82K.s:77523  .debug_str:000000000000edec .LASF2884
     /tmp/ccDRY82K.s:72603  .debug_str:0000000000001eb3 .LASF2885
     /tmp/ccDRY82K.s:74211  .debug_str:0000000000006103 .LASF2886
     /tmp/ccDRY82K.s:73843  .debug_str:0000000000005204 .LASF2887
     /tmp/ccDRY82K.s:76135  .debug_str:000000000000afc2 .LASF2888
     /tmp/ccDRY82K.s:75275  .debug_str:0000000000008f91 .LASF2889
     /tmp/ccDRY82K.s:73845  .debug_str:000000000000521d .LASF2890
     /tmp/ccDRY82K.s:78995  .debug_str:0000000000012b0e .LASF2891
     /tmp/ccDRY82K.s:74215  .debug_str:000000000000612e .LASF2892
     /tmp/ccDRY82K.s:73847  .debug_str:0000000000005236 .LASF2893
     /tmp/ccDRY82K.s:74707  .debug_str:00000000000076c6 .LASF2894
     /tmp/ccDRY82K.s:74217  .debug_str:0000000000006147 .LASF2895
     /tmp/ccDRY82K.s:73849  .debug_str:000000000000524f .LASF2896
     /tmp/ccDRY82K.s:77657  .debug_str:000000000000f3e4 .LASF2897
     /tmp/ccDRY82K.s:78443  .debug_str:0000000000011348 .LASF2898
     /tmp/ccDRY82K.s:71995  .debug_str:0000000000000758 .LASF2899
     /tmp/ccDRY82K.s:75933  .debug_str:000000000000a870 .LASF2900
     /tmp/ccDRY82K.s:72861  .debug_str:0000000000002a66 .LASF2901
     /tmp/ccDRY82K.s:73759  .debug_str:0000000000004f2d .LASF2902
     /tmp/ccDRY82K.s:77847  .debug_str:000000000000fbf0 .LASF2903
     /tmp/ccDRY82K.s:73995  .debug_str:00000000000057cf .LASF2904
     /tmp/ccDRY82K.s:72849  .debug_str:00000000000029fc .LASF2905
     /tmp/ccDRY82K.s:76991  .debug_str:000000000000d6bf .LASF2906
     /tmp/ccDRY82K.s:73491  .debug_str:000000000000458f .LASF2907
     /tmp/ccDRY82K.s:76839  .debug_str:000000000000d032 .LASF2908
     /tmp/ccDRY82K.s:71853  .debug_str:00000000000000d9 .LASF2909
     /tmp/ccDRY82K.s:76731  .debug_str:000000000000cb93 .LASF2910
     /tmp/ccDRY82K.s:77381  .debug_str:000000000000e833 .LASF2911
     /tmp/ccDRY82K.s:72907  .debug_str:0000000000002c41 .LASF2912
     /tmp/ccDRY82K.s:73265  .debug_str:0000000000003bcf .LASF2913
     /tmp/ccDRY82K.s:72151  .debug_str:0000000000000cb8 .LASF2914
     /tmp/ccDRY82K.s:77739  .debug_str:000000000000f723 .LASF2915
     /tmp/ccDRY82K.s:74847  .debug_str:0000000000007d5c .LASF2916
     /tmp/ccDRY82K.s:78065  .debug_str:00000000000104b9 .LASF2917
     /tmp/ccDRY82K.s:78801  .debug_str:0000000000012214 .LASF2918
     /tmp/ccDRY82K.s:72299  .debug_str:000000000000127f .LASF2919
     /tmp/ccDRY82K.s:75823  .debug_str:000000000000a46e .LASF2920
     /tmp/ccDRY82K.s:72733  .debug_str:000000000000244b .LASF2921
     /tmp/ccDRY82K.s:73293  .debug_str:0000000000003cd9 .LASF2922
     /tmp/ccDRY82K.s:77105  .debug_str:000000000000dbe7 .LASF2923
     /tmp/ccDRY82K.s:74879  .debug_str:0000000000007e98 .LASF2924
     /tmp/ccDRY82K.s:73973  .debug_str:00000000000056a3 .LASF2925
     /tmp/ccDRY82K.s:73267  .debug_str:0000000000003bdb .LASF2926
     /tmp/ccDRY82K.s:78357  .debug_str:0000000000010fc1 .LASF2927
     /tmp/ccDRY82K.s:76043  .debug_str:000000000000ac82 .LASF2928
     /tmp/ccDRY82K.s:77257  .debug_str:000000000000e247 .LASF2929
     /tmp/ccDRY82K.s:77327  .debug_str:000000000000e54c .LASF2930
     /tmp/ccDRY82K.s:74127  .debug_str:0000000000005d2a .LASF2931
     /tmp/ccDRY82K.s:74265  .debug_str:0000000000006324 .LASF2932
     /tmp/ccDRY82K.s:77681  .debug_str:000000000000f4f2 .LASF2933
     /tmp/ccDRY82K.s:73631  .debug_str:0000000000004ab8 .LASF2934
     /tmp/ccDRY82K.s:77549  .debug_str:000000000000eee4 .LASF2935
     /tmp/ccDRY82K.s:75057  .debug_str:0000000000008659 .LASF2936
     /tmp/ccDRY82K.s:73633  .debug_str:0000000000004acb .LASF2937
     /tmp/ccDRY82K.s:77551  .debug_str:000000000000eef7 .LASF2938
     /tmp/ccDRY82K.s:78021  .debug_str:0000000000010338 .LASF2939
     /tmp/ccDRY82K.s:74759  .debug_str:0000000000007976 .LASF2940
     /tmp/ccDRY82K.s:77825  .debug_str:000000000000fade .LASF2941
     /tmp/ccDRY82K.s:77555  .debug_str:000000000000ef11 .LASF2942
     /tmp/ccDRY82K.s:76205  .debug_str:000000000000b2b5 .LASF2943
     /tmp/ccDRY82K.s:77829  .debug_str:000000000000fb1d .LASF2944
     /tmp/ccDRY82K.s:73125  .debug_str:00000000000035b7 .LASF2945
     /tmp/ccDRY82K.s:76207  .debug_str:000000000000b2c9 .LASF2946
     /tmp/ccDRY82K.s:77437  .debug_str:000000000000ea75 .LASF2947
     /tmp/ccDRY82K.s:76283  .debug_str:000000000000b639 .LASF2948
     /tmp/ccDRY82K.s:73141  .debug_str:000000000000366f .LASF2949
     /tmp/ccDRY82K.s:78261  .debug_str:0000000000010c49 .LASF2950
     /tmp/ccDRY82K.s:79135  .debug_str:00000000000130e3 .LASF2951
     /tmp/ccDRY82K.s:77639  .debug_str:000000000000f30a .LASF2952
     /tmp/ccDRY82K.s:78263  .debug_str:0000000000010c5d .LASF2953
     /tmp/ccDRY82K.s:74859  .debug_str:0000000000007dca .LASF2954
     /tmp/ccDRY82K.s:79145  .debug_str:000000000001313a .LASF2955
     /tmp/ccDRY82K.s:78385  .debug_str:0000000000011109 .LASF2956
     /tmp/ccDRY82K.s:77905  .debug_str:000000000000ff0c .LASF2957
     /tmp/ccDRY82K.s:72647  .debug_str:00000000000020ca .LASF2958
     /tmp/ccDRY82K.s:73005  .debug_str:00000000000030cb .LASF2959
     /tmp/ccDRY82K.s:73479  .debug_str:0000000000004523 .LASF2960
     /tmp/ccDRY82K.s:76231  .debug_str:000000000000b3cb .LASF2961
     /tmp/ccDRY82K.s:73007  .debug_str:00000000000030dd .LASF2962
     /tmp/ccDRY82K.s:73981  .debug_str:00000000000056f2 .LASF2963
     /tmp/ccDRY82K.s:73465  .debug_str:000000000000449f .LASF2964
     /tmp/ccDRY82K.s:73953  .debug_str:00000000000055bd .LASF2965
     /tmp/ccDRY82K.s:74579  .debug_str:00000000000070ad .LASF2966
     /tmp/ccDRY82K.s:73467  .debug_str:00000000000044b1 .LASF2967
     /tmp/ccDRY82K.s:73955  .debug_str:00000000000055cf .LASF2968
     /tmp/ccDRY82K.s:71937  .debug_str:00000000000004be .LASF2969
     /tmp/ccDRY82K.s:73469  .debug_str:00000000000044c3 .LASF2970
     /tmp/ccDRY82K.s:75645  .debug_str:0000000000009e7c .LASF2971
     /tmp/ccDRY82K.s:73855  .debug_str:00000000000052a0 .LASF2972
     /tmp/ccDRY82K.s:72979  .debug_str:0000000000002f7a .LASF2973
     /tmp/ccDRY82K.s:74937  .debug_str:000000000000810b .LASF2974
     /tmp/ccDRY82K.s:76087  .debug_str:000000000000adaf .LASF2975
     /tmp/ccDRY82K.s:72537  .debug_str:0000000000001c2a .LASF2976
     /tmp/ccDRY82K.s:78247  .debug_str:0000000000010b86 .LASF2977
     /tmp/ccDRY82K.s:72877  .debug_str:0000000000002b14 .LASF2978
     /tmp/ccDRY82K.s:72835  .debug_str:0000000000002969 .LASF2979
     /tmp/ccDRY82K.s:77607  .debug_str:000000000000f172 .LASF2980
     /tmp/ccDRY82K.s:73643  .debug_str:0000000000004b4d .LASF2981
     /tmp/ccDRY82K.s:76825  .debug_str:000000000000cf79 .LASF2982
     /tmp/ccDRY82K.s:74531  .debug_str:0000000000006e5a .LASF2983
     /tmp/ccDRY82K.s:74057  .debug_str:0000000000005a63 .LASF2984
     /tmp/ccDRY82K.s:76949  .debug_str:000000000000d4be .LASF2985
     /tmp/ccDRY82K.s:73237  .debug_str:0000000000003a71 .LASF2986
     /tmp/ccDRY82K.s:77097  .debug_str:000000000000db87 .LASF2987
     /tmp/ccDRY82K.s:75343  .debug_str:00000000000092e1 .LASF2988
     /tmp/ccDRY82K.s:77401  .debug_str:000000000000e8f1 .LASF2989
     /tmp/ccDRY82K.s:74381  .debug_str:0000000000006878 .LASF2990
     /tmp/ccDRY82K.s:77931  .debug_str:0000000000010036 .LASF2991
     /tmp/ccDRY82K.s:78829  .debug_str:0000000000012380 .LASF2992
     /tmp/ccDRY82K.s:73991  .debug_str:000000000000579c .LASF2993
     /tmp/ccDRY82K.s:74285  .debug_str:00000000000063f6 .LASF2994
     /tmp/ccDRY82K.s:78275  .debug_str:0000000000010cc7 .LASF2995
     /tmp/ccDRY82K.s:78083  .debug_str:0000000000010568 .LASF2996
     /tmp/ccDRY82K.s:73039  .debug_str:0000000000003205 .LASF2997
     /tmp/ccDRY82K.s:76021  .debug_str:000000000000ab89 .LASF2998
     /tmp/ccDRY82K.s:73523  .debug_str:0000000000004714 .LASF2999
     /tmp/ccDRY82K.s:79105  .debug_str:0000000000012fe7 .LASF3000
     /tmp/ccDRY82K.s:76353  .debug_str:000000000000b9ef .LASF3001
     /tmp/ccDRY82K.s:76319  .debug_str:000000000000b837 .LASF3002
     /tmp/ccDRY82K.s:78127  .debug_str:0000000000010702 .LASF3003
     /tmp/ccDRY82K.s:73035  .debug_str:00000000000031dc .LASF3004
     /tmp/ccDRY82K.s:75631  .debug_str:0000000000009d93 .LASF3005
     /tmp/ccDRY82K.s:76623  .debug_str:000000000000c67c .LASF3006
     /tmp/ccDRY82K.s:75035  .debug_str:0000000000008574 .LASF3007
     /tmp/ccDRY82K.s:74755  .debug_str:0000000000007940 .LASF3008
     /tmp/ccDRY82K.s:75511  .debug_str:0000000000009984 .LASF3009
     /tmp/ccDRY82K.s:73735  .debug_str:0000000000004df9 .LASF3010
     /tmp/ccDRY82K.s:76755  .debug_str:000000000000cc78 .LASF3011
     /tmp/ccDRY82K.s:72695  .debug_str:00000000000022d6 .LASF3012
     /tmp/ccDRY82K.s:78779  .debug_str:000000000001213d .LASF3013
     /tmp/ccDRY82K.s:78961  .debug_str:00000000000129bb .LASF3014
     /tmp/ccDRY82K.s:77075  .debug_str:000000000000dad7 .LASF3015
     /tmp/ccDRY82K.s:72437  .debug_str:00000000000017e5 .LASF3016
     /tmp/ccDRY82K.s:72679  .debug_str:0000000000002211 .LASF3017
     /tmp/ccDRY82K.s:78285  .debug_str:0000000000010d1e .LASF3018
     /tmp/ccDRY82K.s:74647  .debug_str:0000000000007405 .LASF3019
     /tmp/ccDRY82K.s:77431  .debug_str:000000000000ea16 .LASF3020
     /tmp/ccDRY82K.s:73551  .debug_str:00000000000047c8 .LASF3021
     /tmp/ccDRY82K.s:77191  .debug_str:000000000000df63 .LASF3022
     /tmp/ccDRY82K.s:73877  .debug_str:0000000000005303 .LASF3023
     /tmp/ccDRY82K.s:77909  .debug_str:000000000000ff40 .LASF3024
     /tmp/ccDRY82K.s:73407  .debug_str:00000000000041cf .LASF3025
     /tmp/ccDRY82K.s:73053  .debug_str:00000000000032c2 .LASF3026
     /tmp/ccDRY82K.s:74675  .debug_str:000000000000756f .LASF3027
     /tmp/ccDRY82K.s:74119  .debug_str:0000000000005cb1 .LASF3028
     /tmp/ccDRY82K.s:76511  .debug_str:000000000000c130 .LASF3029
     /tmp/ccDRY82K.s:78523  .debug_str:0000000000011692 .LASF3030
     /tmp/ccDRY82K.s:76377  .debug_str:000000000000bad9 .LASF3031
     /tmp/ccDRY82K.s:77641  .debug_str:000000000000f31e .LASF3032
     /tmp/ccDRY82K.s:77089  .debug_str:000000000000db46 .LASF3033
     /tmp/ccDRY82K.s:75177  .debug_str:0000000000008b0b .LASF3034
     /tmp/ccDRY82K.s:76951  .debug_str:000000000000d4cb .LASF3035
     /tmp/ccDRY82K.s:77335  .debug_str:000000000000e5e3 .LASF3036
     /tmp/ccDRY82K.s:72891  .debug_str:0000000000002b9d .LASF3037
     /tmp/ccDRY82K.s:73271  .debug_str:0000000000003bfb .LASF3038
     /tmp/ccDRY82K.s:74737  .debug_str:00000000000078b7 .LASF3039
     /tmp/ccDRY82K.s:79109  .debug_str:000000000001300a .LASF3040
     /tmp/ccDRY82K.s:73641  .debug_str:0000000000004b1f .LASF3041
     /tmp/ccDRY82K.s:76647  .debug_str:000000000000c78b .LASF3042
     /tmp/ccDRY82K.s:71899  .debug_str:000000000000032f .LASF3043
     /tmp/ccDRY82K.s:78463  .debug_str:00000000000113fe .LASF3044
     /tmp/ccDRY82K.s:78911  .debug_str:0000000000012792 .LASF3045
     /tmp/ccDRY82K.s:75731  .debug_str:000000000000a11d .LASF3046
     /tmp/ccDRY82K.s:72161  .debug_str:0000000000000d43 .LASF3047
     /tmp/ccDRY82K.s:78747  .debug_str:0000000000012006 .LASF3048
     /tmp/ccDRY82K.s:76263  .debug_str:000000000000b59a .LASF3049
     /tmp/ccDRY82K.s:74235  .debug_str:00000000000061e0 .LASF3050
     /tmp/ccDRY82K.s:74591  .debug_str:000000000000712d .LASF3051
     /tmp/ccDRY82K.s:73505  .debug_str:0000000000004651 .LASF3052
     /tmp/ccDRY82K.s:77757  .debug_str:000000000000f7fb .LASF3053
     /tmp/ccDRY82K.s:71867  .debug_str:00000000000001a4 .LASF3054
     /tmp/ccDRY82K.s:76195  .debug_str:000000000000b23b .LASF3055
     /tmp/ccDRY82K.s:75733  .debug_str:000000000000a138 .LASF3056
     /tmp/ccDRY82K.s:77011  .debug_str:000000000000d79e .LASF3057
     /tmp/ccDRY82K.s:77965  .debug_str:000000000001016c .LASF3058
     /tmp/ccDRY82K.s:78241  .debug_str:0000000000010b32 .LASF3059
     /tmp/ccDRY82K.s:73217  .debug_str:0000000000003972 .LASF3060
     /tmp/ccDRY82K.s:72293  .debug_str:0000000000001235 .LASF3061
     /tmp/ccDRY82K.s:73103  .debug_str:00000000000034d0 .LASF3062
     /tmp/ccDRY82K.s:73219  .debug_str:000000000000398f .LASF3063
     /tmp/ccDRY82K.s:72297  .debug_str:0000000000001262 .LASF3064
     /tmp/ccDRY82K.s:76261  .debug_str:000000000000b569 .LASF3065
     /tmp/ccDRY82K.s:77291  .debug_str:000000000000e3c2 .LASF3066
     /tmp/ccDRY82K.s:72937  .debug_str:0000000000002db3 .LASF3067
     /tmp/ccDRY82K.s:75503  .debug_str:00000000000098f9 .LASF3068
     /tmp/ccDRY82K.s:77293  .debug_str:000000000000e3df .LASF3069
     /tmp/ccDRY82K.s:77851  .debug_str:000000000000fc31 .LASF3070
     /tmp/ccDRY82K.s:74793  .debug_str:0000000000007b02 .LASF3071
     /tmp/ccDRY82K.s:77415  .debug_str:000000000000e964 .LASF3072
     /tmp/ccDRY82K.s:75009  .debug_str:0000000000008456 .LASF3073
     /tmp/ccDRY82K.s:73763  .debug_str:0000000000004f62 .LASF3074
     /tmp/ccDRY82K.s:78483  .debug_str:0000000000011519 .LASF3075
     /tmp/ccDRY82K.s:75011  .debug_str:0000000000008471 .LASF3076
     /tmp/ccDRY82K.s:74783  .debug_str:0000000000007a7a .LASF3077
     /tmp/ccDRY82K.s:73495  .debug_str:00000000000045b4 .LASF3078
     /tmp/ccDRY82K.s:77675  .debug_str:000000000000f4aa .LASF3079
     /tmp/ccDRY82K.s:72999  .debug_str:0000000000003080 .LASF3080
     /tmp/ccDRY82K.s:78143  .debug_str:0000000000010809 .LASF3081
     /tmp/ccDRY82K.s:77677  .debug_str:000000000000f4c5 .LASF3082
     /tmp/ccDRY82K.s:76149  .debug_str:000000000000b093 .LASF3083
     /tmp/ccDRY82K.s:71991  .debug_str:000000000000071e .LASF3084
     /tmp/ccDRY82K.s:77301  .debug_str:000000000000e43f .LASF3085
     /tmp/ccDRY82K.s:74945  .debug_str:000000000000815b .LASF3086
     /tmp/ccDRY82K.s:71993  .debug_str:000000000000073b .LASF3087
     /tmp/ccDRY82K.s:78589  .debug_str:0000000000011968 .LASF3088
     /tmp/ccDRY82K.s:73507  .debug_str:0000000000004666 .LASF3089
     /tmp/ccDRY82K.s:74813  .debug_str:0000000000007bc5 .LASF3090
     /tmp/ccDRY82K.s:75313  .debug_str:0000000000009144 .LASF3091
     /tmp/ccDRY82K.s:72785  .debug_str:0000000000002749 .LASF3092
     /tmp/ccDRY82K.s:74815  .debug_str:0000000000007be2 .LASF3093
     /tmp/ccDRY82K.s:75315  .debug_str:0000000000009161 .LASF3094
     /tmp/ccDRY82K.s:75891  .debug_str:000000000000a731 .LASF3095
     /tmp/ccDRY82K.s:77133  .debug_str:000000000000dcfe .LASF3096
     /tmp/ccDRY82K.s:74489  .debug_str:0000000000006caf .LASF3097
     /tmp/ccDRY82K.s:76007  .debug_str:000000000000aad3 .LASF3098
     /tmp/ccDRY82K.s:77137  .debug_str:000000000000dd21 .LASF3099
     /tmp/ccDRY82K.s:78983  .debug_str:0000000000012aab .LASF3100
     /tmp/ccDRY82K.s:78893  .debug_str:00000000000126bd .LASF3101
     /tmp/ccDRY82K.s:72037  .debug_str:0000000000000906 .LASF3102
     /tmp/ccDRY82K.s:76693  .debug_str:000000000000ca2b .LASF3103
     /tmp/ccDRY82K.s:78249  .debug_str:0000000000010b98 .LASF3104
     /tmp/ccDRY82K.s:78919  .debug_str:00000000000127ec .LASF3105
     /tmp/ccDRY82K.s:72233  .debug_str:0000000000000fbb .LASF3106
     /tmp/ccDRY82K.s:79045  .debug_str:0000000000012cdc .LASF3107
     /tmp/ccDRY82K.s:74617  .debug_str:000000000000724e .LASF3108
     /tmp/ccDRY82K.s:79063  .debug_str:0000000000012db6 .LASF3109
     /tmp/ccDRY82K.s:72029  .debug_str:00000000000008af .LASF3110
     /tmp/ccDRY82K.s:78759  .debug_str:0000000000012088 .LASF3111
     /tmp/ccDRY82K.s:76143  .debug_str:000000000000b059 .LASF3112
     /tmp/ccDRY82K.s:76769  .debug_str:000000000000cd28 .LASF3113
     /tmp/ccDRY82K.s:75167  .debug_str:0000000000008aaf .LASF3114
     /tmp/ccDRY82K.s:75905  .debug_str:000000000000a7cd .LASF3115
     /tmp/ccDRY82K.s:78029  .debug_str:00000000000103b0 .LASF3116
     /tmp/ccDRY82K.s:74333  .debug_str:00000000000065fc .LASF3117
     /tmp/ccDRY82K.s:73297  .debug_str:0000000000003d13 .LASF3118
     /tmp/ccDRY82K.s:72601  .debug_str:0000000000001e88 .LASF3119
     /tmp/ccDRY82K.s:76771  .debug_str:000000000000cd4f .LASF3120
     /tmp/ccDRY82K.s:74511  .debug_str:0000000000006d73 .LASF3121
     /tmp/ccDRY82K.s:78567  .debug_str:0000000000011873 .LASF3122
     /tmp/ccDRY82K.s:72089  .debug_str:0000000000000ab9 .LASF3123
     /tmp/ccDRY82K.s:76939  .debug_str:000000000000d454 .LASF3124
     /tmp/ccDRY82K.s:73917  .debug_str:000000000000548b .LASF3125
     /tmp/ccDRY82K.s:74063  .debug_str:0000000000005ab5 .LASF3126
     /tmp/ccDRY82K.s:76307  .debug_str:000000000000b7a1 .LASF3127
     /tmp/ccDRY82K.s:77065  .debug_str:000000000000da62 .LASF3128
     /tmp/ccDRY82K.s:72243  .debug_str:0000000000001022 .LASF3129
     /tmp/ccDRY82K.s:77649  .debug_str:000000000000f382 .LASF3130
     /tmp/ccDRY82K.s:77777  .debug_str:000000000000f8cf .LASF3131
     /tmp/ccDRY82K.s:76629  .debug_str:000000000000c6c5 .LASF3132
     /tmp/ccDRY82K.s:73207  .debug_str:0000000000003914 .LASF3133
     /tmp/ccDRY82K.s:71887  .debug_str:00000000000002a2 .LASF3134
     /tmp/ccDRY82K.s:75363  .debug_str:000000000000936b .LASF3135
     /tmp/ccDRY82K.s:76801  .debug_str:000000000000ce73 .LASF3136
     /tmp/ccDRY82K.s:73379  .debug_str:00000000000040a5 .LASF3137
     /tmp/ccDRY82K.s:75129  .debug_str:0000000000008954 .LASF3138
     /tmp/ccDRY82K.s:73963  .debug_str:0000000000005638 .LASF3139
     /tmp/ccDRY82K.s:72231  .debug_str:0000000000000f97 .LASF3140
     /tmp/ccDRY82K.s:78429  .debug_str:00000000000112be .LASF3141
     /tmp/ccDRY82K.s:72117  .debug_str:0000000000000be1 .LASF3142
     /tmp/ccDRY82K.s:72769  .debug_str:0000000000002636 .LASF3143
     /tmp/ccDRY82K.s:77585  .debug_str:000000000000f07f .LASF3144
     /tmp/ccDRY82K.s:72331  .debug_str:00000000000013f2 .LASF3145
     /tmp/ccDRY82K.s:77127  .debug_str:000000000000dcbd .LASF3146
     /tmp/ccDRY82K.s:74203  .debug_str:00000000000060c2 .LASF3147
     /tmp/ccDRY82K.s:78549  .debug_str:000000000001178f .LASF3148
     /tmp/ccDRY82K.s:77711  .debug_str:000000000000f5ee .LASF3149
     /tmp/ccDRY82K.s:75037  .debug_str:0000000000008588 .LASF3150
     /tmp/ccDRY82K.s:75939  .debug_str:000000000000a8d6 .LASF3151
     /tmp/ccDRY82K.s:77935  .debug_str:0000000000010055 .LASF3152
     /tmp/ccDRY82K.s:71933  .debug_str:0000000000000496 .LASF3153
     /tmp/ccDRY82K.s:74095  .debug_str:0000000000005b90 .LASF3154
     /tmp/ccDRY82K.s:75955  .debug_str:000000000000a94e .LASF3155
     /tmp/ccDRY82K.s:77501  .debug_str:000000000000eccd .LASF3156
     /tmp/ccDRY82K.s:76649  .debug_str:000000000000c7a2 .LASF3157
     /tmp/ccDRY82K.s:78887  .debug_str:000000000001262b .LASF3158
     /tmp/ccDRY82K.s:75149  .debug_str:0000000000008a15 .LASF3159
     /tmp/ccDRY82K.s:77513  .debug_str:000000000000ed7b .LASF3160
     /tmp/ccDRY82K.s:78903  .debug_str:000000000001273f .LASF3161
     /tmp/ccDRY82K.s:78009  .debug_str:00000000000102d0 .LASF3162
     /tmp/ccDRY82K.s:78011  .debug_str:00000000000102df .LASF3163
     /tmp/ccDRY82K.s:78013  .debug_str:00000000000102ee .LASF3164
     /tmp/ccDRY82K.s:74523  .debug_str:0000000000006e08 .LASF3165
     /tmp/ccDRY82K.s:77833  .debug_str:000000000000fb64 .LASF3166
     /tmp/ccDRY82K.s:72253  .debug_str:0000000000001099 .LASF3167
     /tmp/ccDRY82K.s:74893  .debug_str:0000000000007f66 .LASF3168
     /tmp/ccDRY82K.s:76435  .debug_str:000000000000bd61 .LASF3169
     /tmp/ccDRY82K.s:76241  .debug_str:000000000000b44e .LASF3170
     /tmp/ccDRY82K.s:74045  .debug_str:00000000000059b1 .LASF3171
     /tmp/ccDRY82K.s:72777  .debug_str:00000000000026c9 .LASF3172
     /tmp/ccDRY82K.s:78027  .debug_str:000000000001038e .LASF3173
     /tmp/ccDRY82K.s:78669  .debug_str:0000000000011cec .LASF3174
     /tmp/ccDRY82K.s:76213  .debug_str:000000000000b2fb .LASF3175
     /tmp/ccDRY82K.s:75225  .debug_str:0000000000008d5a .LASF3176
     /tmp/ccDRY82K.s:76201  .debug_str:000000000000b275 .LASF3177
     /tmp/ccDRY82K.s:77587  .debug_str:000000000000f095 .LASF3178
     /tmp/ccDRY82K.s:78391  .debug_str:000000000001112d .LASF3179
     /tmp/ccDRY82K.s:78387  .debug_str:000000000001111b .LASF3180
     /tmp/ccDRY82K.s:78389  .debug_str:0000000000011124 .LASF3181
     /tmp/ccDRY82K.s:74539  .debug_str:0000000000006ed1 .LASF3182
     /tmp/ccDRY82K.s:72701  .debug_str:000000000000231f .LASF3183
     /tmp/ccDRY82K.s:74657  .debug_str:000000000000746b .LASF3184
     /tmp/ccDRY82K.s:78703  .debug_str:0000000000011e2d .LASF3185
     /tmp/ccDRY82K.s:75433  .debug_str:0000000000009629 .LASF3186
     /tmp/ccDRY82K.s:78663  .debug_str:0000000000011cc9 .LASF3187
     /tmp/ccDRY82K.s:78015  .debug_str:00000000000102fd .LASF3188
     /tmp/ccDRY82K.s:77461  .debug_str:000000000000eb25 .LASF3189
     /tmp/ccDRY82K.s:78017  .debug_str:000000000001030c .LASF3190
     /tmp/ccDRY82K.s:75205  .debug_str:0000000000008c16 .LASF3191
     /tmp/ccDRY82K.s:77107  .debug_str:000000000000dbfb .LASF3192
     /tmp/ccDRY82K.s:76943  .debug_str:000000000000d48b .LASF3193
     /tmp/ccDRY82K.s:77419  .debug_str:000000000000e986 .LASF3194
     /tmp/ccDRY82K.s:73457  .debug_str:0000000000004438 .LASF3195
     /tmp/ccDRY82K.s:74899  .debug_str:0000000000007fba .LASF3196
     /tmp/ccDRY82K.s:75509  .debug_str:0000000000009978 .LASF3197
     /tmp/ccDRY82K.s:77079  .debug_str:000000000000db05 .LASF3198
     /tmp/ccDRY82K.s:77375  .debug_str:000000000000e7e6 .LASF3199
     /tmp/ccDRY82K.s:77083  .debug_str:000000000000db20 .LASF3200
     /tmp/ccDRY82K.s:73517  .debug_str:00000000000046f5 .LASF3201
     /tmp/ccDRY82K.s:73961  .debug_str:000000000000561c .LASF3202
     /tmp/ccDRY82K.s:72553  .debug_str:0000000000001cca .LASF3203
     /tmp/ccDRY82K.s:76191  .debug_str:000000000000b226 .LASF3204
     /tmp/ccDRY82K.s:75729  .debug_str:000000000000a115 .LASF3205
     /tmp/ccDRY82K.s:74379  .debug_str:000000000000686d .LASF3206
     /tmp/ccDRY82K.s:73055  .debug_str:00000000000032e9 .LASF3207
     /tmp/ccDRY82K.s:74543  .debug_str:0000000000006ee6 .LASF3208
     /tmp/ccDRY82K.s:77155  .debug_str:000000000000ddce .LASF3209
     /tmp/ccDRY82K.s:77043  .debug_str:000000000000d973 .LASF3210
     /tmp/ccDRY82K.s:74857  .debug_str:0000000000007db3 .LASF3211
     /tmp/ccDRY82K.s:71999  .debug_str:0000000000000776 .LASF3212
     /tmp/ccDRY82K.s:78205  .debug_str:0000000000010a0e .LASF3213
     /tmp/ccDRY82K.s:77647  .debug_str:000000000000f37c .LASF3214
     /tmp/ccDRY82K.s:75233  .debug_str:0000000000008dbd .LASF3215
     /tmp/ccDRY82K.s:76835  .debug_str:000000000000d020 .LASF3216
     /tmp/ccDRY82K.s:74549  .debug_str:0000000000006f30 .LASF3217
     /tmp/ccDRY82K.s:75759  .debug_str:000000000000a1eb .LASF3218
     /tmp/ccDRY82K.s:76199  .debug_str:000000000000b270 .LASF3219
     /tmp/ccDRY82K.s:74907  .debug_str:0000000000007fe4 .LASF3220
     /tmp/ccDRY82K.s:72039  .debug_str:0000000000000917 .LASF3221
     /tmp/ccDRY82K.s:75209  .debug_str:0000000000008c56 .LASF3222
     /tmp/ccDRY82K.s:78323  .debug_str:0000000000010e96 .LASF3223
     /tmp/ccDRY82K.s:71947  .debug_str:000000000000053b .LASF3224
     /tmp/ccDRY82K.s:75499  .debug_str:00000000000098ca .LASF3225
     /tmp/ccDRY82K.s:75581  .debug_str:0000000000009bce .LASF3226
     /tmp/ccDRY82K.s:77537  .debug_str:000000000000ee86 .LASF3227
     /tmp/ccDRY82K.s:74903  .debug_str:0000000000007fd0 .LASF3228
     /tmp/ccDRY82K.s:75211  .debug_str:0000000000008c5b .LASF3229
     /tmp/ccDRY82K.s:72689  .debug_str:0000000000002297 .LASF3230
     /tmp/ccDRY82K.s:75561  .debug_str:0000000000009b4a .LASF3231
     /tmp/ccDRY82K.s:76539  .debug_str:000000000000c281 .LASF3232
     /tmp/ccDRY82K.s:72887  .debug_str:0000000000002b85 .LASF3233
     /tmp/ccDRY82K.s:77373  .debug_str:000000000000e7bf .LASF3234
     /tmp/ccDRY82K.s:78225  .debug_str:0000000000010a8f .LASF3235
     /tmp/ccDRY82K.s:76901  .debug_str:000000000000d2db .LASF3236
     /tmp/ccDRY82K.s:77211  .debug_str:000000000000e043 .LASF3237
     /tmp/ccDRY82K.s:78833  .debug_str:000000000001239f .LASF3238
     /tmp/ccDRY82K.s:76811  .debug_str:000000000000cecf .LASF3239
     /tmp/ccDRY82K.s:73269  .debug_str:0000000000003bf1 .LASF3240
     /tmp/ccDRY82K.s:76537  .debug_str:000000000000c275 .LASF3241
     /tmp/ccDRY82K.s:73521  .debug_str:0000000000004709 .LASF3242
     /tmp/ccDRY82K.s:77737  .debug_str:000000000000f717 .LASF3243
     /tmp/ccDRY82K.s:72085  .debug_str:0000000000000aa0 .LASF3244
     /tmp/ccDRY82K.s:75849  .debug_str:000000000000a58f .LASF3245
     /tmp/ccDRY82K.s:76927  .debug_str:000000000000d3eb .LASF3246
     /tmp/ccDRY82K.s:76109  .debug_str:000000000000ae8a .LASF3247
     /tmp/ccDRY82K.s:76595  .debug_str:000000000000c52f .LASF3248
     /tmp/ccDRY82K.s:78097  .debug_str:0000000000010641 .LASF3249
     /tmp/ccDRY82K.s:73527  .debug_str:0000000000004753 .LASF3250
     /tmp/ccDRY82K.s:76281  .debug_str:000000000000b623 .LASF3251
     /tmp/ccDRY82K.s:79127  .debug_str:00000000000130a7 .LASF3252
     /tmp/ccDRY82K.s:76845  .debug_str:000000000000d06e .LASF3253
     /tmp/ccDRY82K.s:72665  .debug_str:0000000000002187 .LASF3254
     /tmp/ccDRY82K.s:72495  .debug_str:0000000000001a64 .LASF3255
     /tmp/ccDRY82K.s:77505  .debug_str:000000000000ecec .LASF3256
     /tmp/ccDRY82K.s:76963  .debug_str:000000000000d55f .LASF3257
     /tmp/ccDRY82K.s:79137  .debug_str:000000000001310b .LASF3258
     /tmp/ccDRY82K.s:76273  .debug_str:000000000000b5de .LASF3259
     /tmp/ccDRY82K.s:73657  .debug_str:0000000000004bb9 .LASF3260
     /tmp/ccDRY82K.s:76425  .debug_str:000000000000bce2 .LASF3261
     /tmp/ccDRY82K.s:76443  .debug_str:000000000000bdd8 .LASF3262
     /tmp/ccDRY82K.s:77775  .debug_str:000000000000f8c9 .LASF3263
     /tmp/ccDRY82K.s:76919  .debug_str:000000000000d3ac .LASF3264
     /tmp/ccDRY82K.s:77015  .debug_str:000000000000d7dc .LASF3265
     /tmp/ccDRY82K.s:73827  .debug_str:000000000000517f .LASF3266
     /tmp/ccDRY82K.s:77235  .debug_str:000000000000e113 .LASF3267
     /tmp/ccDRY82K.s:73819  .debug_str:000000000000514a .LASF3268
     /tmp/ccDRY82K.s:72043  .debug_str:000000000000092b .LASF3269
     /tmp/ccDRY82K.s:75339  .debug_str:00000000000092bf .LASF3270
     /tmp/ccDRY82K.s:73651  .debug_str:0000000000004b9a .LASF3271
     /tmp/ccDRY82K.s:75015  .debug_str:00000000000084a3 .LASF3272
     /tmp/ccDRY82K.s:74639  .debug_str:0000000000007376 .LASF3273
     /tmp/ccDRY82K.s:75041  .debug_str:00000000000085a6 .LASF3274
     /tmp/ccDRY82K.s:77163  .debug_str:000000000000de1a .LASF3275
     /tmp/ccDRY82K.s:74125  .debug_str:0000000000005d04 .LASF3276
     /tmp/ccDRY82K.s:71877  .debug_str:000000000000022c .LASF3277
     /tmp/ccDRY82K.s:74863  .debug_str:0000000000007df9 .LASF3278
     /tmp/ccDRY82K.s:74583  .debug_str:00000000000070e3 .LASF3279
     /tmp/ccDRY82K.s:77733  .debug_str:000000000000f70a .LASF3280
     /tmp/ccDRY82K.s:79047  .debug_str:0000000000012d02 .LASF3281
     /tmp/ccDRY82K.s:73401  .debug_str:0000000000004190 .LASF3282
     /tmp/ccDRY82K.s:76515  .debug_str:000000000000c16c .LASF3283
     /tmp/ccDRY82K.s:78547  .debug_str:0000000000011784 .LASF3284
     /tmp/ccDRY82K.s:72589  .debug_str:0000000000001e10 .LASF3285
     /tmp/ccDRY82K.s:72857  .debug_str:0000000000002a4b .LASF3286
     /tmp/ccDRY82K.s:75269  .debug_str:0000000000008f51 .LASF3287
     /tmp/ccDRY82K.s:77123  .debug_str:000000000000dc90 .LASF3288
     /tmp/ccDRY82K.s:73885  .debug_str:0000000000005351 .LASF3289
     /tmp/ccDRY82K.s:76505  .debug_str:000000000000c103 .LASF3290
     /tmp/ccDRY82K.s:73213  .debug_str:000000000000395d .LASF3291
     /tmp/ccDRY82K.s:72515  .debug_str:0000000000001b28 .LASF3292
     /tmp/ccDRY82K.s:78827  .debug_str:0000000000012376 .LASF3293
     /tmp/ccDRY82K.s:74321  .debug_str:000000000000659c .LASF3294
     /tmp/ccDRY82K.s:78831  .debug_str:0000000000012395 .LASF3295
     /tmp/ccDRY82K.s:74325  .debug_str:00000000000065b6 .LASF3296
     /tmp/ccDRY82K.s:78835  .debug_str:00000000000123c5 .LASF3297
     /tmp/ccDRY82K.s:74745  .debug_str:000000000000790c .LASF3298
     /tmp/ccDRY82K.s:72195  .debug_str:0000000000000e91 .LASF3299
     /tmp/ccDRY82K.s:76979  .debug_str:000000000000d633 .LASF3300
     /tmp/ccDRY82K.s:72487  .debug_str:0000000000001a18 .LASF3301
     /tmp/ccDRY82K.s:75377  .debug_str:00000000000093d3 .LASF3302
     /tmp/ccDRY82K.s:75385  .debug_str:0000000000009443 .LASF3303
     /tmp/ccDRY82K.s:73511  .debug_str:00000000000046b9 .LASF3304
     /tmp/ccDRY82K.s:75387  .debug_str:000000000000944e .LASF3305
     /tmp/ccDRY82K.s:77583  .debug_str:000000000000f058 .LASF3306
     /tmp/ccDRY82K.s:75389  .debug_str:0000000000009459 .LASF3307
     /tmp/ccDRY82K.s:78845  .debug_str:0000000000012420 .LASF3308
     /tmp/ccDRY82K.s:72427  .debug_str:000000000000176b .LASF3309
     /tmp/ccDRY82K.s:76311  .debug_str:000000000000b7da .LASF3310
     /tmp/ccDRY82K.s:75393  .debug_str:000000000000946c .LASF3311
     /tmp/ccDRY82K.s:79159  .debug_str:00000000000131c3 .LASF3312
     /tmp/ccDRY82K.s:74461  .debug_str:0000000000006bc0 .LASF3313
     /tmp/ccDRY82K.s:76583  .debug_str:000000000000c49f .LASF3314
     /tmp/ccDRY82K.s:74463  .debug_str:0000000000006bca .LASF3315
     /tmp/ccDRY82K.s:72169  .debug_str:0000000000000dab .LASF3316
     /tmp/ccDRY82K.s:74465  .debug_str:0000000000006bd4 .LASF3317
     /tmp/ccDRY82K.s:75221  .debug_str:0000000000008d13 .LASF3318
     /tmp/ccDRY82K.s:74467  .debug_str:0000000000006bde .LASF3319
     /tmp/ccDRY82K.s:72607  .debug_str:0000000000001ef0 .LASF3320
     /tmp/ccDRY82K.s:74749  .debug_str:0000000000007922 .LASF3321
     /tmp/ccDRY82K.s:73813  .debug_str:00000000000050fb .LASF3322
     /tmp/ccDRY82K.s:74751  .debug_str:000000000000792c .LASF3323
     /tmp/ccDRY82K.s:76831  .debug_str:000000000000cfc4 .LASF3324
     /tmp/ccDRY82K.s:74753  .debug_str:0000000000007936 .LASF3325
     /tmp/ccDRY82K.s:72461  .debug_str:00000000000018f4 .LASF3326
     /tmp/ccDRY82K.s:74477  .debug_str:0000000000006c0c .LASF3327
     /tmp/ccDRY82K.s:75497  .debug_str:00000000000098a4 .LASF3328
     /tmp/ccDRY82K.s:79017  .debug_str:0000000000012c1a .LASF3329
     /tmp/ccDRY82K.s:74233  .debug_str:00000000000061d3 .LASF3330
     /tmp/ccDRY82K.s:75627  .debug_str:0000000000009d49 .LASF3331
     /tmp/ccDRY82K.s:73891  .debug_str:00000000000053b8 .LASF3332
     /tmp/ccDRY82K.s:78325  .debug_str:0000000000010e9c .LASF3333
     /tmp/ccDRY82K.s:74711  .debug_str:00000000000076ff .LASF3334
     /tmp/ccDRY82K.s:75649  .debug_str:0000000000009e9a .LASF3335
     /tmp/ccDRY82K.s:76603  .debug_str:000000000000c572 .LASF3336
     /tmp/ccDRY82K.s:78365  .debug_str:000000000001103d .LASF3337
     /tmp/ccDRY82K.s:78295  .debug_str:0000000000010d69 .LASF3338
     /tmp/ccDRY82K.s:72303  .debug_str:00000000000012a4 .LASF3339
     /tmp/ccDRY82K.s:75719  .debug_str:000000000000a0c9 .LASF3340
     /tmp/ccDRY82K.s:75243  .debug_str:0000000000008e12 .LASF3341
     /tmp/ccDRY82K.s:74597  .debug_str:000000000000715f .LASF3342
     /tmp/ccDRY82K.s:78349  .debug_str:0000000000010f6b .LASF3343
     /tmp/ccDRY82K.s:77343  .debug_str:000000000000e655 .LASF3344
     /tmp/ccDRY82K.s:75109  .debug_str:00000000000088d5 .LASF3345
     /tmp/ccDRY82K.s:72767  .debug_str:000000000000260c .LASF3346
     /tmp/ccDRY82K.s:77947  .debug_str:00000000000100c5 .LASF3347
     /tmp/ccDRY82K.s:76805  .debug_str:000000000000ce91 .LASF3348
     /tmp/ccDRY82K.s:75323  .debug_str:00000000000091f5 .LASF3349
     /tmp/ccDRY82K.s:76527  .debug_str:000000000000c1ea .LASF3350
     /tmp/ccDRY82K.s:73111  .debug_str:0000000000003539 .LASF3351
     /tmp/ccDRY82K.s:76745  .debug_str:000000000000cc16 .LASF3352
     /tmp/ccDRY82K.s:72923  .debug_str:0000000000002d1c .LASF3353
     /tmp/ccDRY82K.s:78799  .debug_str:0000000000012208 .LASF3354
     /tmp/ccDRY82K.s:75635  .debug_str:0000000000009dc5 .LASF3355
     /tmp/ccDRY82K.s:77365  .debug_str:000000000000e750 .LASF3356
     /tmp/ccDRY82K.s:75653  .debug_str:0000000000009eb6 .LASF3357
     /tmp/ccDRY82K.s:78575  .debug_str:00000000000118d8 .LASF3358
     /tmp/ccDRY82K.s:72719  .debug_str:00000000000023de .LASF3359
     /tmp/ccDRY82K.s:73029  .debug_str:0000000000003190 .LASF3360
     /tmp/ccDRY82K.s:77865  .debug_str:000000000000fd05 .LASF3361
     /tmp/ccDRY82K.s:73223  .debug_str:00000000000039e7 .LASF3362
     /tmp/ccDRY82K.s:72031  .debug_str:00000000000008cf .LASF3363
     /tmp/ccDRY82K.s:74599  .debug_str:000000000000716a .LASF3364
     /tmp/ccDRY82K.s:78797  .debug_str:00000000000121ff .LASF3365
     /tmp/ccDRY82K.s:77357  .debug_str:000000000000e6fe .LASF3366
     /tmp/ccDRY82K.s:74987  .debug_str:000000000000835f .LASF3367
     /tmp/ccDRY82K.s:75569  .debug_str:0000000000009b83 .LASF3368
     /tmp/ccDRY82K.s:77937  .debug_str:000000000001007e .LASF3369
     /tmp/ccDRY82K.s:72121  .debug_str:0000000000000c0f .LASF3370
     /tmp/ccDRY82K.s:76719  .debug_str:000000000000cb48 .LASF3371
     /tmp/ccDRY82K.s:77171  .debug_str:000000000000de6d .LASF3372
     /tmp/ccDRY82K.s:75021  .debug_str:00000000000084e1 .LASF3373
     /tmp/ccDRY82K.s:72881  .debug_str:0000000000002b5a .LASF3374
     /tmp/ccDRY82K.s:72883  .debug_str:0000000000002b5f .LASF3375
     /tmp/ccDRY82K.s:74669  .debug_str:0000000000007514 .LASF3376
     /tmp/ccDRY82K.s:73285  .debug_str:0000000000003c7f .LASF3377
     /tmp/ccDRY82K.s:74861  .debug_str:0000000000007df2 .LASF3378
     /tmp/ccDRY82K.s:75949  .debug_str:000000000000a91a .LASF3379
     /tmp/ccDRY82K.s:78511  .debug_str:0000000000011624 .LASF3380
     /tmp/ccDRY82K.s:78513  .debug_str:000000000001162a .LASF3381
     /tmp/ccDRY82K.s:78515  .debug_str:0000000000011630 .LASF3382
     /tmp/ccDRY82K.s:76819  .debug_str:000000000000cf28 .LASF3383
     /tmp/ccDRY82K.s:75231  .debug_str:0000000000008dad .LASF3384
     /tmp/ccDRY82K.s:76667  .debug_str:000000000000c8b5 .LASF3385
     /tmp/ccDRY82K.s:77157  .debug_str:000000000000dddb .LASF3386
     /tmp/ccDRY82K.s:73741  .debug_str:0000000000004e23 .LASF3387
     /tmp/ccDRY82K.s:72159  .debug_str:0000000000000d31 .LASF3388
     /tmp/ccDRY82K.s:76357  .debug_str:000000000000ba20 .LASF3389
     /tmp/ccDRY82K.s:72859  .debug_str:0000000000002a51 .LASF3390
     /tmp/ccDRY82K.s:78605  .debug_str:0000000000011a38 .LASF3391
     /tmp/ccDRY82K.s:71919  .debug_str:000000000000040a .LASF3392
     /tmp/ccDRY82K.s:75557  .debug_str:0000000000009b04 .LASF3393
     /tmp/ccDRY82K.s:77299  .debug_str:000000000000e432 .LASF3394
     /tmp/ccDRY82K.s:78471  .debug_str:0000000000011486 .LASF3395
     /tmp/ccDRY82K.s:72295  .debug_str:0000000000001252 .LASF3396
     /tmp/ccDRY82K.s:76271  .debug_str:000000000000b5c9 .LASF3397
     /tmp/ccDRY82K.s:78959  .debug_str:00000000000129a7 .LASF3398
     /tmp/ccDRY82K.s:71893  .debug_str:00000000000002ed .LASF3399
     /tmp/ccDRY82K.s:74243  .debug_str:000000000000622e .LASF3400
     /tmp/ccDRY82K.s:76329  .debug_str:000000000000b8a4 .LASF3401
     /tmp/ccDRY82K.s:74923  .debug_str:0000000000008067 .LASF3402
     /tmp/ccDRY82K.s:75523  .debug_str:00000000000099fb .LASF3403
     /tmp/ccDRY82K.s:76455  .debug_str:000000000000be76 .LASF3404
     /tmp/ccDRY82K.s:75633  .debug_str:0000000000009dbb .LASF3405
     /tmp/ccDRY82K.s:75257  .debug_str:0000000000008ee0 .LASF3406
     /tmp/ccDRY82K.s:74219  .debug_str:0000000000006160 .LASF3407
     /tmp/ccDRY82K.s:76725  .debug_str:000000000000cb5b .LASF3408
     /tmp/ccDRY82K.s:76579  .debug_str:000000000000c469 .LASF3409
     /tmp/ccDRY82K.s:76929  .debug_str:000000000000d3f9 .LASF3410
     /tmp/ccDRY82K.s:74089  .debug_str:0000000000005b33 .LASF3411
     /tmp/ccDRY82K.s:78641  .debug_str:0000000000011bea .LASF3412
     /tmp/ccDRY82K.s:73733  .debug_str:0000000000004de8 .LASF3413
     /tmp/ccDRY82K.s:78713  .debug_str:0000000000011ea8 .LASF3414
     /tmp/ccDRY82K.s:78135  .debug_str:000000000001076a .LASF3415
     /tmp/ccDRY82K.s:77317  .debug_str:000000000000e4da .LASF3416
     /tmp/ccDRY82K.s:75291  .debug_str:0000000000009042 .LASF3417
     /tmp/ccDRY82K.s:74809  .debug_str:0000000000007b9e .LASF3418
     /tmp/ccDRY82K.s:74179  .debug_str:0000000000005f6c .LASF3419
     /tmp/ccDRY82K.s:78807  .debug_str:0000000000012265 .LASF3420
     /tmp/ccDRY82K.s:78379  .debug_str:00000000000110c1 .LASF3421
     /tmp/ccDRY82K.s:75815  .debug_str:000000000000a41a .LASF3422
     /tmp/ccDRY82K.s:74827  .debug_str:0000000000007c7f .LASF3423
     /tmp/ccDRY82K.s:77683  .debug_str:000000000000f50e .LASF3424
     /tmp/ccDRY82K.s:77685  .debug_str:000000000000f514 .LASF3425
     /tmp/ccDRY82K.s:73013  .debug_str:000000000000310b .LASF3426
     /tmp/ccDRY82K.s:74253  .debug_str:0000000000006290 .LASF3427
     /tmp/ccDRY82K.s:75201  .debug_str:0000000000008bed .LASF3428
     /tmp/ccDRY82K.s:73197  .debug_str:000000000000389e .LASF3429
     /tmp/ccDRY82K.s:78661  .debug_str:0000000000011cc0 .LASF3430
     /tmp/ccDRY82K.s:72925  .debug_str:0000000000002d2d .LASF3431
     /tmp/ccDRY82K.s:72113  .debug_str:0000000000000bb7 .LASF3432
     /tmp/ccDRY82K.s:72609  .debug_str:0000000000001f16 .LASF3433
     /tmp/ccDRY82K.s:75721  .debug_str:000000000000a0d1 .LASF3434
     /tmp/ccDRY82K.s:76879  .debug_str:000000000000d229 .LASF3435
     /tmp/ccDRY82K.s:77735  .debug_str:000000000000f70f .LASF3436
     /tmp/ccDRY82K.s:77663  .debug_str:000000000000f440 .LASF3437
     /tmp/ccDRY82K.s:76601  .debug_str:000000000000c56b .LASF3438
     /tmp/ccDRY82K.s:73993  .debug_str:00000000000057c5 .LASF3439
     /tmp/ccDRY82K.s:72197  .debug_str:0000000000000ea1 .LASF3440
     /tmp/ccDRY82K.s:72981  .debug_str:0000000000002f8c .LASF3441
     /tmp/ccDRY82K.s:78371  .debug_str:0000000000011066 .LASF3442
     /tmp/ccDRY82K.s:72503  .debug_str:0000000000001aaa .LASF3443
     /tmp/ccDRY82K.s:72459  .debug_str:00000000000018ed .LASF3444
     /tmp/ccDRY82K.s:73715  .debug_str:0000000000004d64 .LASF3445
     /tmp/ccDRY82K.s:73717  .debug_str:0000000000004d6e .LASF3446
     /tmp/ccDRY82K.s:73719  .debug_str:0000000000004d78 .LASF3447
     /tmp/ccDRY82K.s:73721  .debug_str:0000000000004d82 .LASF3448
     /tmp/ccDRY82K.s:73723  .debug_str:0000000000004d8c .LASF3449
     /tmp/ccDRY82K.s:77755  .debug_str:000000000000f7ec .LASF3450
     /tmp/ccDRY82K.s:73725  .debug_str:0000000000004d96 .LASF3451
     /tmp/ccDRY82K.s:77609  .debug_str:000000000000f189 .LASF3452
     /tmp/ccDRY82K.s:72627  .debug_str:0000000000001fe2 .LASF3453
     /tmp/ccDRY82K.s:78783  .debug_str:0000000000012178 .LASF3454
     /tmp/ccDRY82K.s:77221  .debug_str:000000000000e099 .LASF3455
     /tmp/ccDRY82K.s:78687  .debug_str:0000000000011d77 .LASF3456
     /tmp/ccDRY82K.s:72613  .debug_str:0000000000001f40 .LASF3457
     /tmp/ccDRY82K.s:78495  .debug_str:00000000000115be .LASF3458
     /tmp/ccDRY82K.s:77223  .debug_str:000000000000e0a4 .LASF3459
     /tmp/ccDRY82K.s:78005  .debug_str:0000000000010288 .LASF3460
     /tmp/ccDRY82K.s:73833  .debug_str:0000000000005197 .LASF3461
     /tmp/ccDRY82K.s:77225  .debug_str:000000000000e0af .LASF3462
     /tmp/ccDRY82K.s:77329  .debug_str:000000000000e576 .LASF3463
     /tmp/ccDRY82K.s:78899  .debug_str:0000000000012728 .LASF3464
     /tmp/ccDRY82K.s:74961  .debug_str:0000000000008229 .LASF3465
     /tmp/ccDRY82K.s:74911  .debug_str:0000000000008005 .LASF3466
     /tmp/ccDRY82K.s:72661  .debug_str:0000000000002173 .LASF3467
     /tmp/ccDRY82K.s:72473  .debug_str:0000000000001989 .LASF3468
     /tmp/ccDRY82K.s:77807  .debug_str:000000000000fa22 .LASF3469
     /tmp/ccDRY82K.s:72387  .debug_str:00000000000015aa .LASF3470
     /tmp/ccDRY82K.s:77809  .debug_str:000000000000fa2d .LASF3471
     /tmp/ccDRY82K.s:77353  .debug_str:000000000000e6ce .LASF3472
     /tmp/ccDRY82K.s:76617  .debug_str:000000000000c63f .LASF3473
     /tmp/ccDRY82K.s:76299  .debug_str:000000000000b71a .LASF3474
     /tmp/ccDRY82K.s:76619  .debug_str:000000000000c64a .LASF3475
     /tmp/ccDRY82K.s:73553  .debug_str:00000000000047d8 .LASF3476
     /tmp/ccDRY82K.s:78093  .debug_str:0000000000010600 .LASF3477
     /tmp/ccDRY82K.s:78417  .debug_str:0000000000011232 .LASF3478
     /tmp/ccDRY82K.s:77135  .debug_str:000000000000dd17 .LASF3479
     /tmp/ccDRY82K.s:73245  .debug_str:0000000000003ad8 .LASF3480
     /tmp/ccDRY82K.s:75725  .debug_str:000000000000a0fd .LASF3481
     /tmp/ccDRY82K.s:78363  .debug_str:0000000000011016 .LASF3482
     /tmp/ccDRY82K.s:74421  .debug_str:0000000000006a3e .LASF3483
     /tmp/ccDRY82K.s:75883  .debug_str:000000000000a69a .LASF3484
     /tmp/ccDRY82K.s:76035  .debug_str:000000000000ac39 .LASF3485
     /tmp/ccDRY82K.s:74871  .debug_str:0000000000007e25 .LASF3486
     /tmp/ccDRY82K.s:76037  .debug_str:000000000000ac44 .LASF3487
     /tmp/ccDRY82K.s:76765  .debug_str:000000000000ccdb .LASF3488
     /tmp/ccDRY82K.s:76039  .debug_str:000000000000ac4f .LASF3489
     /tmp/ccDRY82K.s:77101  .debug_str:000000000000dbb4 .LASF3490
     /tmp/ccDRY82K.s:72035  .debug_str:00000000000008fc .LASF3491
     /tmp/ccDRY82K.s:74139  .debug_str:0000000000005daa .LASF3492
     /tmp/ccDRY82K.s:73737  .debug_str:0000000000004e0d .LASF3493
     /tmp/ccDRY82K.s:76501  .debug_str:000000000000c0d5 .LASF3494
     /tmp/ccDRY82K.s:73739  .debug_str:0000000000004e18 .LASF3495
     /tmp/ccDRY82K.s:76817  .debug_str:000000000000cf01 .LASF3496
     /tmp/ccDRY82K.s:75357  .debug_str:000000000000934a .LASF3497
     /tmp/ccDRY82K.s:73405  .debug_str:00000000000041a8 .LASF3498
     /tmp/ccDRY82K.s:75359  .debug_str:0000000000009355 .LASF3499
     /tmp/ccDRY82K.s:74327  .debug_str:00000000000065c0 .LASF3500
     /tmp/ccDRY82K.s:75361  .debug_str:0000000000009360 .LASF3501
     /tmp/ccDRY82K.s:77295  .debug_str:000000000000e3fc .LASF3502
     /tmp/ccDRY82K.s:76955  .debug_str:000000000000d509 .LASF3503
     /tmp/ccDRY82K.s:74991  .debug_str:000000000000838e .LASF3504
     /tmp/ccDRY82K.s:73967  .debug_str:000000000000566e .LASF3505
     /tmp/ccDRY82K.s:78611  .debug_str:0000000000011a9c .LASF3506
     /tmp/ccDRY82K.s:73975  .debug_str:00000000000056b9 .LASF3507
     /tmp/ccDRY82K.s:77995  .debug_str:000000000001022f .LASF3508
     /tmp/ccDRY82K.s:77997  .debug_str:0000000000010240 .LASF3509
     /tmp/ccDRY82K.s:77999  .debug_str:0000000000010251 .LASF3510
     /tmp/ccDRY82K.s:72239  .debug_str:0000000000000fee .LASF3511
     /tmp/ccDRY82K.s:79087  .debug_str:0000000000012edd .LASF3512
     /tmp/ccDRY82K.s:74535  .debug_str:0000000000006e93 .LASF3513
     /tmp/ccDRY82K.s:74589  .debug_str:0000000000007118 .LASF3514
     /tmp/ccDRY82K.s:76371  .debug_str:000000000000ba99 .LASF3515
     /tmp/ccDRY82K.s:77367  .debug_str:000000000000e77d .LASF3516
     /tmp/ccDRY82K.s:74953  .debug_str:00000000000081de .LASF3517
     /tmp/ccDRY82K.s:74891  .debug_str:0000000000007f4d .LASF3518
     /tmp/ccDRY82K.s:74283  .debug_str:00000000000063de .LASF3519
     /tmp/ccDRY82K.s:76365  .debug_str:000000000000ba6b .LASF3520
     /tmp/ccDRY82K.s:74279  .debug_str:0000000000006394 .LASF3521
     /tmp/ccDRY82K.s:78351  .debug_str:0000000000010f92 .LASF3522
     /tmp/ccDRY82K.s:76373  .debug_str:000000000000baa8 .LASF3523
     /tmp/ccDRY82K.s:75831  .debug_str:000000000000a4c5 .LASF3524
     /tmp/ccDRY82K.s:72465  .debug_str:000000000000192a .LASF3525
     /tmp/ccDRY82K.s:75155  .debug_str:0000000000008a46 .LASF3526
     /tmp/ccDRY82K.s:78685  .debug_str:0000000000011d6b .LASF3527
     /tmp/ccDRY82K.s:75697  .debug_str:0000000000009feb .LASF3528
     /tmp/ccDRY82K.s:76107  .debug_str:000000000000ae81 .LASF3529
     /tmp/ccDRY82K.s:73403  .debug_str:000000000000419d .LASF3530
     /tmp/ccDRY82K.s:74507  .debug_str:0000000000006d5d .LASF3531
     /tmp/ccDRY82K.s:76727  .debug_str:000000000000cb6c .LASF3532
     /tmp/ccDRY82K.s:77413  .debug_str:000000000000e958 .LASF3533
     /tmp/ccDRY82K.s:72441  .debug_str:000000000000180b .LASF3534
     /tmp/ccDRY82K.s:73387  .debug_str:0000000000004109 .LASF3535
     /tmp/ccDRY82K.s:78427  .debug_str:00000000000112b4 .LASF3536
     /tmp/ccDRY82K.s:74729  .debug_str:00000000000077b6 .LASF3537
     /tmp/ccDRY82K.s:78505  .debug_str:0000000000011601 .LASF3538
     /tmp/ccDRY82K.s:78507  .debug_str:000000000001160c .LASF3539
     /tmp/ccDRY82K.s:72365  .debug_str:00000000000014c5 .LASF3540
     /tmp/ccDRY82K.s:73439  .debug_str:0000000000004317 .LASF3541
     /tmp/ccDRY82K.s:77915  .debug_str:000000000000ff89 .LASF3542
     /tmp/ccDRY82K.s:76679  .debug_str:000000000000c95e .LASF3543
     /tmp/ccDRY82K.s:73399  .debug_str:0000000000004183 .LASF3544
     /tmp/ccDRY82K.s:77993  .debug_str:0000000000010226 .LASF3545
     /tmp/ccDRY82K.s:76445  .debug_str:000000000000be00 .LASF3546
     /tmp/ccDRY82K.s:78993  .debug_str:0000000000012af8 .LASF3547
     /tmp/ccDRY82K.s:77129  .debug_str:000000000000dce7 .LASF3548
     /tmp/ccDRY82K.s:76677  .debug_str:000000000000c94e .LASF3549
     /tmp/ccDRY82K.s:77305  .debug_str:000000000000e46c .LASF3550
     /tmp/ccDRY82K.s:71935  .debug_str:00000000000004aa .LASF3551
     /tmp/ccDRY82K.s:75851  .debug_str:000000000000a59c .LASF3552
     /tmp/ccDRY82K.s:74059  .debug_str:0000000000005a90 .LASF3553
     /tmp/ccDRY82K.s:78293  .debug_str:0000000000010d56 .LASF3554
     /tmp/ccDRY82K.s:76997  .debug_str:000000000000d718 .LASF3555
     /tmp/ccDRY82K.s:72793  .debug_str:00000000000027c0 .LASF3556
     /tmp/ccDRY82K.s:73359  .debug_str:000000000000401e .LASF3557
     /tmp/ccDRY82K.s:78683  .debug_str:0000000000011d58 .LASF3558
     /tmp/ccDRY82K.s:73907  .debug_str:0000000000005434 .LASF3559
     /tmp/ccDRY82K.s:72865  .debug_str:0000000000002a84 .LASF3560
     /tmp/ccDRY82K.s:74267  .debug_str:000000000000632c .LASF3561
     /tmp/ccDRY82K.s:74803  .debug_str:0000000000007b79 .LASF3562
     /tmp/ccDRY82K.s:74323  .debug_str:00000000000065a6 .LASF3563
     /tmp/ccDRY82K.s:78863  .debug_str:000000000001251a .LASF3564
     /tmp/ccDRY82K.s:74177  .debug_str:0000000000005f5c .LASF3565
     /tmp/ccDRY82K.s:75043  .debug_str:00000000000085ce .LASF3566
     /tmp/ccDRY82K.s:76777  .debug_str:000000000000cd9c .LASF3567
     /tmp/ccDRY82K.s:73199  .debug_str:00000000000038a6 .LASF3568
     /tmp/ccDRY82K.s:74889  .debug_str:0000000000007f41 .LASF3569
     /tmp/ccDRY82K.s:75065  .debug_str:00000000000086a3 .LASF3570
     /tmp/ccDRY82K.s:73391  .debug_str:000000000000411e .LASF3571
     /tmp/ccDRY82K.s:74431  .debug_str:0000000000006aab .LASF3572
     /tmp/ccDRY82K.s:72235  .debug_str:0000000000000fcd .LASF3573
     /tmp/ccDRY82K.s:76559  .debug_str:000000000000c3a9 .LASF3574
     /tmp/ccDRY82K.s:73019  .debug_str:0000000000003129 .LASF3575
     /tmp/ccDRY82K.s:75237  .debug_str:0000000000008de7 .LASF3576
     /tmp/ccDRY82K.s:72811  .debug_str:000000000000287e .LASF3577
     /tmp/ccDRY82K.s:77881  .debug_str:000000000000fde4 .LASF3578
     /tmp/ccDRY82K.s:72847  .debug_str:00000000000029f0 .LASF3579
     /tmp/ccDRY82K.s:72853  .debug_str:0000000000002a1d .LASF3580
     /tmp/ccDRY82K.s:75151  .debug_str:0000000000008a32 .LASF3581
     /tmp/ccDRY82K.s:75419  .debug_str:0000000000009590 .LASF3582
     /tmp/ccDRY82K.s:77103  .debug_str:000000000000dbdb .LASF3583
     /tmp/ccDRY82K.s:76123  .debug_str:000000000000af44 .LASF3584
     /tmp/ccDRY82K.s:74441  .debug_str:0000000000006b07 .LASF3585
     /tmp/ccDRY82K.s:75567  .debug_str:0000000000009b70 .LASF3586
     /tmp/ccDRY82K.s:76181  .debug_str:000000000000b1b1 .LASF3587
     /tmp/ccDRY82K.s:77517  .debug_str:000000000000ed9f .LASF3588
     /tmp/ccDRY82K.s:76923  .debug_str:000000000000d3c9 .LASF3589
     /tmp/ccDRY82K.s:74689  .debug_str:0000000000007620 .LASF3590
     /tmp/ccDRY82K.s:77111  .debug_str:000000000000dc19 .LASF3591
     /tmp/ccDRY82K.s:79113  .debug_str:0000000000013037 .LASF3592
     /tmp/ccDRY82K.s:76269  .debug_str:000000000000b5b8 .LASF3593
     /tmp/ccDRY82K.s:74147  .debug_str:0000000000005e14 .LASF3662
     /tmp/ccDRY82K.s:75951  .debug_str:000000000000a91f .LASF3594
     /tmp/ccDRY82K.s:76643  .debug_str:000000000000c769 .LASF3595
     /tmp/ccDRY82K.s:76671  .debug_str:000000000000c900 .LASF3596
     /tmp/ccDRY82K.s:76931  .debug_str:000000000000d40c .LASF3597
     /tmp/ccDRY82K.s:76381  .debug_str:000000000000bb05 .LASF3598
     /tmp/ccDRY82K.s:76581  .debug_str:000000000000c496 .LASF3599
     /tmp/ccDRY82K.s:72443  .debug_str:0000000000001815 .LASF3600
     /tmp/ccDRY82K.s:73037  .debug_str:00000000000031f0 .LASF3601
     /tmp/ccDRY82K.s:74459  .debug_str:0000000000006ba7 .LASF3602
     /tmp/ccDRY82K.s:76519  .debug_str:000000000000c1af .LASF3603
     /tmp/ccDRY82K.s:76895  .debug_str:000000000000d2b6 .LASF3604
     /tmp/ccDRY82K.s:77527  .debug_str:000000000000ee24 .LASF3624
     /tmp/ccDRY82K.s:1031   .text.test_ddr:0000000000000000 .LFB30
     /tmp/ccDRY82K.s:1256   .text.test_ddr:0000000000000106 .LFE30
     /tmp/ccDRY82K.s:76829  .debug_str:000000000000cfb3 .LASF3605
     /tmp/ccDRY82K.s:70820  .debug_loc:0000000000000000 .LLST40
     /tmp/ccDRY82K.s:73821  .debug_str:0000000000005152 .LASF3606
     /tmp/ccDRY82K.s:70834  .debug_loc:0000000000000039 .LLST41
     /tmp/ccDRY82K.s:72721  .debug_str:00000000000023e8 .LASF3607
     /tmp/ccDRY82K.s:76985  .debug_str:000000000000d67a .LASF3608
     /tmp/ccDRY82K.s:70848  .debug_loc:0000000000000072 .LLST42
     /tmp/ccDRY82K.s:75059  .debug_str:0000000000008680 .LASF3609
     /tmp/ccDRY82K.s:70873  .debug_loc:00000000000000d4 .LLST43
     /tmp/ccDRY82K.s:74541  .debug_str:0000000000006eda .LASF3651
     /tmp/ccDRY82K.s:76451  .debug_str:000000000000be4f .LASF3610
     /tmp/ccDRY82K.s:70900  .debug_loc:0000000000000138 .LLST44
     /tmp/ccDRY82K.s:73561  .debug_str:0000000000004838 .LASF3611
     /tmp/ccDRY82K.s:70930  .debug_loc:00000000000001bd .LLST45
     /tmp/ccDRY82K.s:73281  .debug_str:0000000000003c6b .LASF3612
     /tmp/ccDRY82K.s:70938  .debug_loc:00000000000001e1 .LLST46
     /tmp/ccDRY82K.s:74913  .debug_str:0000000000008010 .LASF3613
     /tmp/ccDRY82K.s:74027  .debug_str:00000000000058d3 .LASF3614
     /tmp/ccDRY82K.s:70958  .debug_loc:000000000000023e .LLST47
     /tmp/ccDRY82K.s:1068   .text.test_ddr:0000000000000018 .LBB19
     /tmp/ccDRY82K.s:70974  .debug_loc:0000000000000288 .LLST48
     /tmp/ccDRY82K.s:70983  .debug_loc:00000000000002ae .LLST49
     /tmp/ccDRY82K.s:70990  .debug_loc:00000000000002d1 .LLST50
     /tmp/ccDRY82K.s:1129   .text.test_ddr:0000000000000066 .LVL113
     /tmp/ccDRY82K.s:1136   .text.test_ddr:0000000000000080 .LVL114
     /tmp/ccDRY82K.s:1140   .text.test_ddr:000000000000008c .LVL115
     /tmp/ccDRY82K.s:1144   .text.test_ddr:0000000000000098 .LVL116
     /tmp/ccDRY82K.s:1153   .text.test_ddr:00000000000000b4 .LVL117
     /tmp/ccDRY82K.s:79011  .debug_str:0000000000012bea .LASF3649
     /tmp/ccDRY82K.s:74153  .debug_str:0000000000005e57 .LASF3615
     /tmp/ccDRY82K.s:76911  .debug_str:000000000000d35a .LASF3616
     /tmp/ccDRY82K.s:75297  .debug_str:0000000000009081 .LASF3619
     /tmp/ccDRY82K.s:1013   .text.execute_ddr_pattern:0000000000000000 .LFB28
     /tmp/ccDRY82K.s:1024   .text.execute_ddr_pattern:0000000000000004 .LFE28
     /tmp/ccDRY82K.s:75355  .debug_str:000000000000933f .LASF3617
     /tmp/ccDRY82K.s:70997  .debug_loc:00000000000002f4 .LLST38
     /tmp/ccDRY82K.s:77283  .debug_str:000000000000e378 .LASF3618
     /tmp/ccDRY82K.s:71011  .debug_loc:000000000000032d .LLST39
     /tmp/ccDRY82K.s:1022   .text.execute_ddr_pattern:0000000000000004 .LVL109
     /tmp/ccDRY82K.s:74529  .debug_str:0000000000006e49 .LASF3620
     /tmp/ccDRY82K.s:837    .text.load_ddr_pattern:0000000000000000 .LFB27
     /tmp/ccDRY82K.s:1006   .text.load_ddr_pattern:00000000000000f0 .LFE27
     /tmp/ccDRY82K.s:78287  .debug_str:0000000000010d33 .LASF3621
     /tmp/ccDRY82K.s:71025  .debug_loc:0000000000000366 .LLST32
     /tmp/ccDRY82K.s:71039  .debug_loc:000000000000039f .LLST33
     /tmp/ccDRY82K.s:71921  .debug_str:0000000000000413 .LASF3622
     /tmp/ccDRY82K.s:71053  .debug_loc:00000000000003d8 .LLST34
     /tmp/ccDRY82K.s:71067  .debug_loc:0000000000000411 .LLST35
     /tmp/ccDRY82K.s:76915  .debug_str:000000000000d38b .LASF3623
     /tmp/ccDRY82K.s:71075  .debug_loc:0000000000000435 .LLST36
     /tmp/ccDRY82K.s:71090  .debug_loc:000000000000047e .LLST37
     /tmp/ccDRY82K.s:897    .text.load_ddr_pattern:000000000000004e .LVL97
     /tmp/ccDRY82K.s:901    .text.load_ddr_pattern:000000000000005a .LVL98
     /tmp/ccDRY82K.s:905    .text.load_ddr_pattern:0000000000000066 .LVL99
     /tmp/ccDRY82K.s:933    .text.load_ddr_pattern:0000000000000084 .LVL101
     /tmp/ccDRY82K.s:963    .text.load_ddr_pattern:00000000000000a4 .LVL102
     /tmp/ccDRY82K.s:972    .text.load_ddr_pattern:00000000000000b6 .LVL103
     /tmp/ccDRY82K.s:985    .text.load_ddr_pattern:00000000000000c6 .LVL105
     /tmp/ccDRY82K.s:993    .text.load_ddr_pattern:00000000000000d8 .LVL106
     /tmp/ccDRY82K.s:1001   .text.load_ddr_pattern:00000000000000ea .LVL107
     /tmp/ccDRY82K.s:78059  .debug_str:000000000001048f .LASF3625
     /tmp/ccDRY82K.s:685    .text.ddr_read_write_fn:0000000000000000 .LFB26
     /tmp/ccDRY82K.s:830    .text.ddr_read_write_fn:00000000000000a8 .LFE26
     /tmp/ccDRY82K.s:78719  .debug_str:0000000000011ee6 .LASF3626
     /tmp/ccDRY82K.s:71102  .debug_loc:00000000000004a7 .LLST25
     /tmp/ccDRY82K.s:79005  .debug_str:0000000000012ba6 .LASF3627
     /tmp/ccDRY82K.s:71128  .debug_loc:000000000000050a .LLST26
     /tmp/ccDRY82K.s:78411  .debug_str:000000000001120d .LASF3628
     /tmp/ccDRY82K.s:71142  .debug_loc:0000000000000543 .LLST27
     /tmp/ccDRY82K.s:73277  .debug_str:0000000000003c50 .LASF3629
     /tmp/ccDRY82K.s:71156  .debug_loc:000000000000057c .LLST28
     /tmp/ccDRY82K.s:78707  .debug_str:0000000000011e46 .LASF3630
     /tmp/ccDRY82K.s:71185  .debug_loc:00000000000005f1 .LLST29
     /tmp/ccDRY82K.s:71204  .debug_loc:000000000000062f .LLST30
     /tmp/ccDRY82K.s:725    .text.ddr_read_write_fn:0000000000000020 .LBB13
     /tmp/ccDRY82K.s:797    .text.ddr_read_write_fn:000000000000008e .LBE13
     /tmp/ccDRY82K.s:73437  .debug_str:0000000000004309 .LASF3631
     /tmp/ccDRY82K.s:71217  .debug_loc:0000000000000667 .LLST31
     /tmp/ccDRY82K.s:752    .text.ddr_read_write_fn:0000000000000048 .LVL80
     /tmp/ccDRY82K.s:762    .text.ddr_read_write_fn:000000000000005c .LVL82
     /tmp/ccDRY82K.s:772    .text.ddr_read_write_fn:000000000000006e .LVL84
     /tmp/ccDRY82K.s:787    .text.ddr_read_write_fn:0000000000000084 .LVL87
     /tmp/ccDRY82K.s:72559  .debug_str:0000000000001cf0 .LASF3643
     /tmp/ccDRY82K.s:289    .text.ddr_read:0000000000000000 .LFB25
     /tmp/ccDRY82K.s:678    .text.ddr_read:0000000000000194 .LFE25
     /tmp/ccDRY82K.s:71229  .debug_loc:000000000000069e .LLST9
     /tmp/ccDRY82K.s:73389  .debug_str:0000000000004111 .LASF3632
     /tmp/ccDRY82K.s:71252  .debug_loc:000000000000070d .LLST10
     /tmp/ccDRY82K.s:73421  .debug_str:000000000000425e .LASF3633
     /tmp/ccDRY82K.s:71277  .debug_loc:000000000000076f .LLST11
     /tmp/ccDRY82K.s:74939  .debug_str:000000000000811d .LASF3634
     /tmp/ccDRY82K.s:71302  .debug_loc:00000000000007d1 .LLST12
     /tmp/ccDRY82K.s:71327  .debug_loc:0000000000000833 .LLST13
     /tmp/ccDRY82K.s:71342  .debug_loc:000000000000087c .LLST14
     /tmp/ccDRY82K.s:78203  .debug_str:0000000000010a06 .LASF3635
     /tmp/ccDRY82K.s:71387  .debug_loc:000000000000094c .LLST15
     /tmp/ccDRY82K.s:79149  .debug_str:000000000001316f .LASF3636
     /tmp/ccDRY82K.s:73893  .debug_str:00000000000053be .LASF3637
     /tmp/ccDRY82K.s:71408  .debug_loc:00000000000009aa .LLST16
     /tmp/ccDRY82K.s:76355  .debug_str:000000000000ba0c .LASF3638
     /tmp/ccDRY82K.s:71415  .debug_loc:00000000000009cd .LLST17
     /tmp/ccDRY82K.s:78965  .debug_str:00000000000129ea .LASF3639
     /tmp/ccDRY82K.s:71441  .debug_loc:0000000000000a3f .LLST18
     /tmp/ccDRY82K.s:78749  .debug_str:0000000000012016 .LASF3640
     /tmp/ccDRY82K.s:71453  .debug_loc:0000000000000a6a .LLST19
     /tmp/ccDRY82K.s:76855  .debug_str:000000000000d0fc .LASF3641
     /tmp/ccDRY82K.s:77261  .debug_str:000000000000e27e .LASF3642
     /tmp/ccDRY82K.s:71472  .debug_loc:0000000000000ac6 .LLST21
     /tmp/ccDRY82K.s:473    .text.ddr_read:00000000000000ce .LBB8
     /tmp/ccDRY82K.s:516    .text.ddr_read:00000000000000e4 .LBE8
     /tmp/ccDRY82K.s:71503  .debug_loc:0000000000000b5b .LLST22
     /tmp/ccDRY82K.s:474    .text.ddr_read:00000000000000ce .LBB9
     /tmp/ccDRY82K.s:515    .text.ddr_read:00000000000000e4 .LBE9
     /tmp/ccDRY82K.s:477    .text.ddr_read:00000000000000ce .LBB10
     /tmp/ccDRY82K.s:487    .text.ddr_read:00000000000000d2 .LBE10
     /tmp/ccDRY82K.s:71512  .debug_loc:0000000000000b81 .LLST23
     /tmp/ccDRY82K.s:497    .text.ddr_read:00000000000000d8 .LBB11
     /tmp/ccDRY82K.s:507    .text.ddr_read:00000000000000dc .LBE11
     /tmp/ccDRY82K.s:71535  .debug_loc:0000000000000bd5 .LLST24
     /tmp/ccDRY82K.s:383    .text.ddr_read:000000000000006a .LVL36
     /tmp/ccDRY82K.s:627    .text.ddr_read:0000000000000162 .LVL66
     /tmp/ccDRY82K.s:633    .text.ddr_read:000000000000016c .LVL68
     /tmp/ccDRY82K.s:77147  .debug_str:000000000000dd71 .LASF3644
     /tmp/ccDRY82K.s:13     .text.ddr_write:0000000000000000 .LFB24
     /tmp/ccDRY82K.s:283    .text.ddr_write:000000000000013c .LFE24
     /tmp/ccDRY82K.s:71542  .debug_loc:0000000000000bf8 .LLST0
     /tmp/ccDRY82K.s:71557  .debug_loc:0000000000000c41 .LLST1
     /tmp/ccDRY82K.s:71593  .debug_loc:0000000000000ccc .LLST2
     /tmp/ccDRY82K.s:71629  .debug_loc:0000000000000d57 .LLST3
     /tmp/ccDRY82K.s:71665  .debug_loc:0000000000000de2 .LLST4
     /tmp/ccDRY82K.s:71680  .debug_loc:0000000000000e2b .LLST5
     /tmp/ccDRY82K.s:73047  .debug_str:000000000000326b .LASF3645
     /tmp/ccDRY82K.s:77989  .debug_str:0000000000010205 .LASF3646
     /tmp/ccDRY82K.s:71732  .debug_loc:0000000000000f11 .LLST6
     /tmp/ccDRY82K.s:73335  .debug_str:0000000000003f27 .LASF3647
     /tmp/ccDRY82K.s:71755  .debug_loc:0000000000000f80 .LLST7
     /tmp/ccDRY82K.s:72667  .debug_str:0000000000002199 .LASF3648
     /tmp/ccDRY82K.s:157    .text.ddr_write:00000000000000a8 .LVL10
     /tmp/ccDRY82K.s:261    .text.ddr_write:0000000000000124 .LVL26
     /tmp/ccDRY82K.s:75701  .debug_str:0000000000009ffe .LASF3650
     /tmp/ccDRY82K.s:77953  .debug_str:0000000000010104 .LASF3652
     /tmp/ccDRY82K.s:78545  .debug_str:000000000001177e .LASF3653
     /tmp/ccDRY82K.s:72841  .debug_str:00000000000029a5 .LASF3654
     /tmp/ccDRY82K.s:76487  .debug_str:000000000000c032 .LASF3655
     /tmp/ccDRY82K.s:75691  .debug_str:0000000000009fb4 .LASF3656
     /tmp/ccDRY82K.s:78145  .debug_str:0000000000010824 .LASF3657
     /tmp/ccDRY82K.s:1034   .text.test_ddr:0000000000000000 .LVL110
     /tmp/ccDRY82K.s:1111   .text.test_ddr:0000000000000048 .LVL111
     /tmp/ccDRY82K.s:1200   .text.test_ddr:00000000000000dc .LVL123
     /tmp/ccDRY82K.s:1224   .text.test_ddr:00000000000000f2 .LVL126
     /tmp/ccDRY82K.s:1243   .text.test_ddr:00000000000000fe .LVL128
     /tmp/ccDRY82K.s:1203   .text.test_ddr:00000000000000de .LVL124
     /tmp/ccDRY82K.s:1175   .text.test_ddr:00000000000000c8 .LVL120
     /tmp/ccDRY82K.s:1180   .text.test_ddr:00000000000000cc .LVL121
     /tmp/ccDRY82K.s:1188   .text.test_ddr:00000000000000d6 .LVL122
     /tmp/ccDRY82K.s:1248   .text.test_ddr:0000000000000102 .LVL129
     /tmp/ccDRY82K.s:1212   .text.test_ddr:00000000000000e6 .LVL125
     /tmp/ccDRY82K.s:1237   .text.test_ddr:00000000000000f8 .LVL127
     /tmp/ccDRY82K.s:1118   .text.test_ddr:000000000000004c .LVL112
     /tmp/ccDRY82K.s:1252   .text.test_ddr:0000000000000104 .LVL130
     /tmp/ccDRY82K.s:1016   .text.execute_ddr_pattern:0000000000000000 .LVL108
     /tmp/ccDRY82K.s:840    .text.load_ddr_pattern:0000000000000000 .LVL93
     /tmp/ccDRY82K.s:889    .text.load_ddr_pattern:000000000000003a .LVL96
     /tmp/ccDRY82K.s:854    .text.load_ddr_pattern:000000000000000e .LVL94
     /tmp/ccDRY82K.s:876    .text.load_ddr_pattern:0000000000000022 .LVL95
     /tmp/ccDRY82K.s:915    .text.load_ddr_pattern:000000000000006c .LVL100
     /tmp/ccDRY82K.s:688    .text.ddr_read_write_fn:0000000000000000 .LVL77
     /tmp/ccDRY82K.s:730    .text.ddr_read_write_fn:0000000000000024 .LVL78
     /tmp/ccDRY82K.s:799    .text.ddr_read_write_fn:000000000000008e .LVL90
     /tmp/ccDRY82K.s:814    .text.ddr_read_write_fn:000000000000009a .LVL91
     /tmp/ccDRY82K.s:754    .text.ddr_read_write_fn:000000000000004c .LVL81
     /tmp/ccDRY82K.s:765    .text.ddr_read_write_fn:000000000000005e .LVL83
     /tmp/ccDRY82K.s:775    .text.ddr_read_write_fn:0000000000000072 .LVL85
     /tmp/ccDRY82K.s:790    .text.ddr_read_write_fn:0000000000000088 .LVL88
     /tmp/ccDRY82K.s:819    .text.ddr_read_write_fn:000000000000009e .LVL92
     /tmp/ccDRY82K.s:736    .text.ddr_read_write_fn:000000000000002c .LVL79
     /tmp/ccDRY82K.s:794    .text.ddr_read_write_fn:000000000000008a .LVL89
     /tmp/ccDRY82K.s:292    .text.ddr_read:0000000000000000 .LVL32
     /tmp/ccDRY82K.s:419    .text.ddr_read:000000000000009e .LVL39
     /tmp/ccDRY82K.s:432    .text.ddr_read:00000000000000a8 .LVL41
     /tmp/ccDRY82K.s:461    .text.ddr_read:00000000000000c2 .LVL45
     /tmp/ccDRY82K.s:643    .text.ddr_read:0000000000000176 .LVL70
     /tmp/ccDRY82K.s:513    .text.ddr_read:00000000000000e4 .LVL51
     /tmp/ccDRY82K.s:447    .text.ddr_read:00000000000000b4 .LVL44
     /tmp/ccDRY82K.s:570    .text.ddr_read:000000000000011e .LVL57
     /tmp/ccDRY82K.s:572    .text.ddr_read:0000000000000120 .LVL58
     /tmp/ccDRY82K.s:360    .text.ddr_read:000000000000003e .LVL34
     /tmp/ccDRY82K.s:369    .text.ddr_read:000000000000004a .LVL35
     /tmp/ccDRY82K.s:388    .text.ddr_read:0000000000000070 .LVL37
     /tmp/ccDRY82K.s:396    .text.ddr_read:0000000000000074 .LVL38
     /tmp/ccDRY82K.s:430    .text.ddr_read:00000000000000a6 .LVL40
     /tmp/ccDRY82K.s:470    .text.ddr_read:00000000000000ce .LVL46
     /tmp/ccDRY82K.s:590    .text.ddr_read:000000000000013c .LVL60
     /tmp/ccDRY82K.s:592    .text.ddr_read:000000000000013e .LVL61
     /tmp/ccDRY82K.s:606    .text.ddr_read:000000000000014a .LVL63
     /tmp/ccDRY82K.s:615    .text.ddr_read:0000000000000154 .LVL64
     /tmp/ccDRY82K.s:663    .text.ddr_read:000000000000018a .LVL72
     /tmp/ccDRY82K.s:665    .text.ddr_read:000000000000018c .LVL73
     /tmp/ccDRY82K.s:669    .text.ddr_read:000000000000018e .LVL74
     /tmp/ccDRY82K.s:671    .text.ddr_read:0000000000000190 .LVL75
     /tmp/ccDRY82K.s:675    .text.ddr_read:0000000000000192 .LVL76
     /tmp/ccDRY82K.s:444    .text.ddr_read:00000000000000b2 .LVL43
     /tmp/ccDRY82K.s:579    .text.ddr_read:0000000000000124 .LVL59
     /tmp/ccDRY82K.s:337    .text.ddr_read:0000000000000020 .LVL33
     /tmp/ccDRY82K.s:437    .text.ddr_read:00000000000000ac .LVL42
     /tmp/ccDRY82K.s:637    .text.ddr_read:0000000000000170 .LVL69
     /tmp/ccDRY82K.s:659    .text.ddr_read:0000000000000186 .LVL71
     /tmp/ccDRY82K.s:484    .text.ddr_read:00000000000000d2 .LVL47
     /tmp/ccDRY82K.s:490    .text.ddr_read:00000000000000d6 .LVL48
     /tmp/ccDRY82K.s:494    .text.ddr_read:00000000000000d8 .LVL49
     /tmp/ccDRY82K.s:504    .text.ddr_read:00000000000000dc .LVL50
     /tmp/ccDRY82K.s:17     .text.ddr_write:0000000000000000 .LVL0
     /tmp/ccDRY82K.s:69     .text.ddr_write:0000000000000032 .LVL2
     /tmp/ccDRY82K.s:114    .text.ddr_write:000000000000006e .LVL5
     /tmp/ccDRY82K.s:142    .text.ddr_write:0000000000000088 .LVL9
     /tmp/ccDRY82K.s:80     .text.ddr_write:0000000000000040 .LVL3
     /tmp/ccDRY82K.s:160    .text.ddr_write:00000000000000aa .LVL11
     /tmp/ccDRY82K.s:168    .text.ddr_write:00000000000000b6 .LVL12
     /tmp/ccDRY82K.s:101    .text.ddr_write:0000000000000064 .LVL4
     /tmp/ccDRY82K.s:117    .text.ddr_write:0000000000000070 .LVL6
     /tmp/ccDRY82K.s:201    .text.ddr_write:00000000000000de .LVL17
     /tmp/ccDRY82K.s:203    .text.ddr_write:00000000000000e0 .LVL18
     /tmp/ccDRY82K.s:138    .text.ddr_write:0000000000000084 .LVL8
     /tmp/ccDRY82K.s:173    .text.ddr_write:00000000000000ba .LVL13
     /tmp/ccDRY82K.s:184    .text.ddr_write:00000000000000c4 .LVL15
     /tmp/ccDRY82K.s:224    .text.ddr_write:00000000000000fe .LVL20
     /tmp/ccDRY82K.s:226    .text.ddr_write:0000000000000100 .LVL21
     /tmp/ccDRY82K.s:240    .text.ddr_write:000000000000010c .LVL23
     /tmp/ccDRY82K.s:249    .text.ddr_write:0000000000000116 .LVL24
     /tmp/ccDRY82K.s:268    .text.ddr_write:0000000000000132 .LVL27
     /tmp/ccDRY82K.s:270    .text.ddr_write:0000000000000134 .LVL28
     /tmp/ccDRY82K.s:274    .text.ddr_write:0000000000000136 .LVL29
     /tmp/ccDRY82K.s:276    .text.ddr_write:0000000000000138 .LVL30
     /tmp/ccDRY82K.s:280    .text.ddr_write:000000000000013a .LVL31
     /tmp/ccDRY82K.s:55     .text.ddr_write:0000000000000020 .LVL1
     /tmp/ccDRY82K.s:120    .text.ddr_write:0000000000000072 .LVL7
     /tmp/ccDRY82K.s:1314   .debug_info:0000000000000000 .Ldebug_info0
     /tmp/ccDRY82K.s:692    .text.ddr_read_write_fn:0000000000000000 .LBB12
     /tmp/ccDRY82K.s:694    .text.ddr_read_write_fn:0000000000000000 .LBE12
     /tmp/ccDRY82K.s:724    .text.ddr_read_write_fn:0000000000000020 .LBB14
     /tmp/ccDRY82K.s:800    .text.ddr_read_write_fn:000000000000008e .LBE14
     /tmp/ccDRY82K.s:1049   .text.test_ddr:0000000000000004 .LBB18
     /tmp/ccDRY82K.s:1053   .text.test_ddr:000000000000000c .LBE18
     /tmp/ccDRY82K.s:1067   .text.test_ddr:0000000000000018 .LBB23
     /tmp/ccDRY82K.s:1078   .text.test_ddr:000000000000001e .LBE23
     /tmp/ccDRY82K.s:1102   .text.test_ddr:0000000000000034 .LBB24
     /tmp/ccDRY82K.s:1113   .text.test_ddr:0000000000000048 .LBE24
     /tmp/ccDRY82K.s:1116   .text.test_ddr:000000000000004c .LBB25
     /tmp/ccDRY82K.s:1193   .text.test_ddr:00000000000000d8 .LBE25
     /tmp/ccDRY82K.s:1227   .text.test_ddr:00000000000000f2 .LBB26
     /tmp/ccDRY82K.s:1254   .text.test_ddr:0000000000000106 .LBE26
     /tmp/ccDRY82K.s:1073   .text.test_ddr:000000000000001a .LBE19
     /tmp/ccDRY82K.s:1120   .text.test_ddr:000000000000004c .LBB22
     /tmp/ccDRY82K.s:1146   .text.test_ddr:0000000000000098 .LBE22

UNDEFINED SYMBOLS
rand
ddr_test_pattern
pdma_transfer_complete
pdma_transfer
memcmp
