   1              		.file	"mss_sgmii.c"
   2              		.option nopic
   3              		.attribute arch, "rv64i2p0_m2p0_a2p0_f2p0_d2p0_c2p0"
   4              		.attribute unaligned_access, 0
   5              		.attribute stack_align, 16
   6              		.text
   7              	.Ltext0:
   8              		.cfi_sections	.debug_frame
   9              		.section	.text.setup_sgmii_rpc_per_config,"ax",@progbits
  10              		.align	1
  12              	setup_sgmii_rpc_per_config:
  13              	.LFB25:
  14              		.file 1 "../src/platform/mpfs_hal/common/nwc/mss_sgmii.c"
   1:../src/platform/mpfs_hal/common/nwc/mss_sgmii.c **** /*******************************************************************************
   2:../src/platform/mpfs_hal/common/nwc/mss_sgmii.c ****  * Copyright 2019-2022 Microchip FPGA Embedded Systems Solutions.
   3:../src/platform/mpfs_hal/common/nwc/mss_sgmii.c ****  *
   4:../src/platform/mpfs_hal/common/nwc/mss_sgmii.c ****  * SPDX-License-Identifier: MIT
   5:../src/platform/mpfs_hal/common/nwc/mss_sgmii.c ****  *
   6:../src/platform/mpfs_hal/common/nwc/mss_sgmii.c ****  * MPFS HAL Embedded Software
   7:../src/platform/mpfs_hal/common/nwc/mss_sgmii.c ****  *
   8:../src/platform/mpfs_hal/common/nwc/mss_sgmii.c ****  */
   9:../src/platform/mpfs_hal/common/nwc/mss_sgmii.c **** 
  10:../src/platform/mpfs_hal/common/nwc/mss_sgmii.c **** /*******************************************************************************
  11:../src/platform/mpfs_hal/common/nwc/mss_sgmii.c ****  * @file mss_sgmii.c
  12:../src/platform/mpfs_hal/common/nwc/mss_sgmii.c ****  * @author Microchip-FPGA Embedded Systems Solutions
  13:../src/platform/mpfs_hal/common/nwc/mss_sgmii.c ****  * @brief sgmii related functions
  14:../src/platform/mpfs_hal/common/nwc/mss_sgmii.c ****  *
  15:../src/platform/mpfs_hal/common/nwc/mss_sgmii.c ****  */
  16:../src/platform/mpfs_hal/common/nwc/mss_sgmii.c **** 
  17:../src/platform/mpfs_hal/common/nwc/mss_sgmii.c **** #include <string.h>
  18:../src/platform/mpfs_hal/common/nwc/mss_sgmii.c **** #include <stdio.h>
  19:../src/platform/mpfs_hal/common/nwc/mss_sgmii.c **** #include "mpfs_hal/mss_hal.h"
  20:../src/platform/mpfs_hal/common/nwc/mss_sgmii.c **** #include "simulation.h"
  21:../src/platform/mpfs_hal/common/nwc/mss_sgmii.c **** 
  22:../src/platform/mpfs_hal/common/nwc/mss_sgmii.c **** #ifdef  MPFS_HAL_HW_CONFIG
  23:../src/platform/mpfs_hal/common/nwc/mss_sgmii.c **** 
  24:../src/platform/mpfs_hal/common/nwc/mss_sgmii.c **** static PART_TYPE silicon_variant = PART_NOT_DETERMINED;
  25:../src/platform/mpfs_hal/common/nwc/mss_sgmii.c **** 
  26:../src/platform/mpfs_hal/common/nwc/mss_sgmii.c **** /*
  27:../src/platform/mpfs_hal/common/nwc/mss_sgmii.c ****  * local functions
  28:../src/platform/mpfs_hal/common/nwc/mss_sgmii.c ****  */
  29:../src/platform/mpfs_hal/common/nwc/mss_sgmii.c **** static void setup_sgmii_rpc_per_config(void);
  30:../src/platform/mpfs_hal/common/nwc/mss_sgmii.c **** #ifdef SGMII_SUPPORT
  31:../src/platform/mpfs_hal/common/nwc/mss_sgmii.c **** static uint32_t sgmii_channel_setup(void);
  32:../src/platform/mpfs_hal/common/nwc/mss_sgmii.c **** #endif
  33:../src/platform/mpfs_hal/common/nwc/mss_sgmii.c **** 
  34:../src/platform/mpfs_hal/common/nwc/mss_sgmii.c **** /*
  35:../src/platform/mpfs_hal/common/nwc/mss_sgmii.c ****  * local variable
  36:../src/platform/mpfs_hal/common/nwc/mss_sgmii.c ****  */
  37:../src/platform/mpfs_hal/common/nwc/mss_sgmii.c **** static uint32_t sro_dll_90_code;
  38:../src/platform/mpfs_hal/common/nwc/mss_sgmii.c **** 
  39:../src/platform/mpfs_hal/common/nwc/mss_sgmii.c **** /*
  40:../src/platform/mpfs_hal/common/nwc/mss_sgmii.c ****  * local functions
  41:../src/platform/mpfs_hal/common/nwc/mss_sgmii.c ****  */
  42:../src/platform/mpfs_hal/common/nwc/mss_sgmii.c **** static void set_early_late_thresholds(uint8_t n_late_threshold, uint8_t p_early_threshold);
  43:../src/platform/mpfs_hal/common/nwc/mss_sgmii.c **** 
  44:../src/platform/mpfs_hal/common/nwc/mss_sgmii.c **** /*
  45:../src/platform/mpfs_hal/common/nwc/mss_sgmii.c ****  * extern functions
  46:../src/platform/mpfs_hal/common/nwc/mss_sgmii.c ****  */
  47:../src/platform/mpfs_hal/common/nwc/mss_sgmii.c **** extern void sgmii_mux_config(uint8_t option);
  48:../src/platform/mpfs_hal/common/nwc/mss_sgmii.c **** 
  49:../src/platform/mpfs_hal/common/nwc/mss_sgmii.c **** 
  50:../src/platform/mpfs_hal/common/nwc/mss_sgmii.c **** uint32_t sgmii_setup(void)
  51:../src/platform/mpfs_hal/common/nwc/mss_sgmii.c **** {
  52:../src/platform/mpfs_hal/common/nwc/mss_sgmii.c **** #ifdef SGMII_SUPPORT
  53:../src/platform/mpfs_hal/common/nwc/mss_sgmii.c ****     /*
  54:../src/platform/mpfs_hal/common/nwc/mss_sgmii.c ****      * Check if any tx/Rx channels enabled
  55:../src/platform/mpfs_hal/common/nwc/mss_sgmii.c ****      */
  56:../src/platform/mpfs_hal/common/nwc/mss_sgmii.c ****     if((LIBERO_SETTING_SGMII_MODE & (TX_RX_CH_EN_MASK<<TX_RX_CH_EN_OFFSET)) != 0U)
  57:../src/platform/mpfs_hal/common/nwc/mss_sgmii.c ****     {
  58:../src/platform/mpfs_hal/common/nwc/mss_sgmii.c ****         while (sgmii_channel_setup() != 0)
  59:../src/platform/mpfs_hal/common/nwc/mss_sgmii.c ****         {
  60:../src/platform/mpfs_hal/common/nwc/mss_sgmii.c **** 
  61:../src/platform/mpfs_hal/common/nwc/mss_sgmii.c ****         }
  62:../src/platform/mpfs_hal/common/nwc/mss_sgmii.c ****     }
  63:../src/platform/mpfs_hal/common/nwc/mss_sgmii.c ****     else
  64:../src/platform/mpfs_hal/common/nwc/mss_sgmii.c ****     {
  65:../src/platform/mpfs_hal/common/nwc/mss_sgmii.c ****         sgmii_off_mode();
  66:../src/platform/mpfs_hal/common/nwc/mss_sgmii.c ****         sgmii_mux_config(RPC_REG_UPDATE);
  67:../src/platform/mpfs_hal/common/nwc/mss_sgmii.c ****     }
  68:../src/platform/mpfs_hal/common/nwc/mss_sgmii.c **** #else
  69:../src/platform/mpfs_hal/common/nwc/mss_sgmii.c ****     {
  70:../src/platform/mpfs_hal/common/nwc/mss_sgmii.c ****         sgmii_off_mode();
  71:../src/platform/mpfs_hal/common/nwc/mss_sgmii.c ****         sgmii_mux_config(RPC_REG_UPDATE);
  72:../src/platform/mpfs_hal/common/nwc/mss_sgmii.c ****     }
  73:../src/platform/mpfs_hal/common/nwc/mss_sgmii.c **** #endif
  74:../src/platform/mpfs_hal/common/nwc/mss_sgmii.c ****     return(0UL);
  75:../src/platform/mpfs_hal/common/nwc/mss_sgmii.c **** }
  76:../src/platform/mpfs_hal/common/nwc/mss_sgmii.c **** 
  77:../src/platform/mpfs_hal/common/nwc/mss_sgmii.c **** 
  78:../src/platform/mpfs_hal/common/nwc/mss_sgmii.c **** /**
  79:../src/platform/mpfs_hal/common/nwc/mss_sgmii.c ****  *
  80:../src/platform/mpfs_hal/common/nwc/mss_sgmii.c ****  * @param sgmii_instruction
  81:../src/platform/mpfs_hal/common/nwc/mss_sgmii.c ****  * @return
  82:../src/platform/mpfs_hal/common/nwc/mss_sgmii.c ****  */
  83:../src/platform/mpfs_hal/common/nwc/mss_sgmii.c **** #ifdef SGMII_SUPPORT
  84:../src/platform/mpfs_hal/common/nwc/mss_sgmii.c **** static uint32_t sgmii_channel_setup(void)
  85:../src/platform/mpfs_hal/common/nwc/mss_sgmii.c **** {
  86:../src/platform/mpfs_hal/common/nwc/mss_sgmii.c ****     static SGMII_TRAINING_SM sgmii_training_state = SGMII_SETUP_INIT;
  87:../src/platform/mpfs_hal/common/nwc/mss_sgmii.c ****     static uint32_t status = SGMII_IN_SETUP;
  88:../src/platform/mpfs_hal/common/nwc/mss_sgmii.c ****     static uint32_t timer_out;
  89:../src/platform/mpfs_hal/common/nwc/mss_sgmii.c **** 
  90:../src/platform/mpfs_hal/common/nwc/mss_sgmii.c ****     /*
  91:../src/platform/mpfs_hal/common/nwc/mss_sgmii.c ****      * Initialise NWC
  92:../src/platform/mpfs_hal/common/nwc/mss_sgmii.c ****      *      Clocks
  93:../src/platform/mpfs_hal/common/nwc/mss_sgmii.c ****      *      SGMII
  94:../src/platform/mpfs_hal/common/nwc/mss_sgmii.c ****      *      DDR
  95:../src/platform/mpfs_hal/common/nwc/mss_sgmii.c ****      *      IOMUX
  96:../src/platform/mpfs_hal/common/nwc/mss_sgmii.c ****      */
  97:../src/platform/mpfs_hal/common/nwc/mss_sgmii.c **** 
  98:../src/platform/mpfs_hal/common/nwc/mss_sgmii.c ****     switch(sgmii_training_state)
  99:../src/platform/mpfs_hal/common/nwc/mss_sgmii.c ****     {
 100:../src/platform/mpfs_hal/common/nwc/mss_sgmii.c ****         case SGMII_SETUP_INIT:
 101:../src/platform/mpfs_hal/common/nwc/mss_sgmii.c ****             status = SGMII_IN_SETUP;
 102:../src/platform/mpfs_hal/common/nwc/mss_sgmii.c ****             CFG_DDR_SGMII_PHY->SOFT_RESET_SGMII.SOFT_RESET_SGMII = \
 103:../src/platform/mpfs_hal/common/nwc/mss_sgmii.c ****                     (0x01 << 8U) | 1U; /* PERIPH   soft reset */
 104:../src/platform/mpfs_hal/common/nwc/mss_sgmii.c ****             CFG_DDR_SGMII_PHY->SOFT_RESET_SGMII.SOFT_RESET_SGMII = 1U;
 105:../src/platform/mpfs_hal/common/nwc/mss_sgmii.c ****             setup_sgmii_rpc_per_config();         /* load RPC SGMII_MODE register ext */
 106:../src/platform/mpfs_hal/common/nwc/mss_sgmii.c **** 
 107:../src/platform/mpfs_hal/common/nwc/mss_sgmii.c ****             /* Enable the Bank controller */
 108:../src/platform/mpfs_hal/common/nwc/mss_sgmii.c ****             /*
 109:../src/platform/mpfs_hal/common/nwc/mss_sgmii.c ****              * Set soft reset on IP to load RPC to SCB regs (dynamic mode)
 110:../src/platform/mpfs_hal/common/nwc/mss_sgmii.c ****              * Bring the sgmii bank controller out of reset =- ioscb_bank_ctrl_sgmii
 111:../src/platform/mpfs_hal/common/nwc/mss_sgmii.c ****              */
 112:../src/platform/mpfs_hal/common/nwc/mss_sgmii.c ****             IOSCB_BANK_CNTL_SGMII->soft_reset = 1U;  /* DPC_BITS NV_MAP  reset */
 113:../src/platform/mpfs_hal/common/nwc/mss_sgmii.c ****             sgmii_training_state = SGMII_IO_EN;
 114:../src/platform/mpfs_hal/common/nwc/mss_sgmii.c ****             break;
 115:../src/platform/mpfs_hal/common/nwc/mss_sgmii.c **** 
 116:../src/platform/mpfs_hal/common/nwc/mss_sgmii.c ****         case SGMII_IO_EN:
 117:../src/platform/mpfs_hal/common/nwc/mss_sgmii.c ****             /*
 118:../src/platform/mpfs_hal/common/nwc/mss_sgmii.c ****              * Check the IO_EN signal here.
 119:../src/platform/mpfs_hal/common/nwc/mss_sgmii.c ****              * This is an output from the bank controller power detector, which are
 120:../src/platform/mpfs_hal/common/nwc/mss_sgmii.c ****              * turned on using MSS_IO_EN
 121:../src/platform/mpfs_hal/common/nwc/mss_sgmii.c ****              */
 122:../src/platform/mpfs_hal/common/nwc/mss_sgmii.c ****             /* aro_ioen_bnk  - PVT calibrator IOEN  */
 123:../src/platform/mpfs_hal/common/nwc/mss_sgmii.c ****             timer_out++;
 124:../src/platform/mpfs_hal/common/nwc/mss_sgmii.c ****             if((CFG_DDR_SGMII_PHY->PVT_STAT.PVT_STAT & (0x01U<<6U)) != 0U)
 125:../src/platform/mpfs_hal/common/nwc/mss_sgmii.c ****             {
 126:../src/platform/mpfs_hal/common/nwc/mss_sgmii.c ****                 timer_out=0U;
 127:../src/platform/mpfs_hal/common/nwc/mss_sgmii.c ****                 sgmii_training_state = SGMII_RAMP_TIMER;
 128:../src/platform/mpfs_hal/common/nwc/mss_sgmii.c ****             }
 129:../src/platform/mpfs_hal/common/nwc/mss_sgmii.c ****             break;
 130:../src/platform/mpfs_hal/common/nwc/mss_sgmii.c **** 
 131:../src/platform/mpfs_hal/common/nwc/mss_sgmii.c ****         case SGMII_RAMP_TIMER:
 132:../src/platform/mpfs_hal/common/nwc/mss_sgmii.c ****             /*
 133:../src/platform/mpfs_hal/common/nwc/mss_sgmii.c ****              * IO power ramp wait time
 134:../src/platform/mpfs_hal/common/nwc/mss_sgmii.c ****              * After IOEN is received from power detectors DDR and SGMii, extra time
 135:../src/platform/mpfs_hal/common/nwc/mss_sgmii.c ****              * required for voltage to ramp.
 136:../src/platform/mpfs_hal/common/nwc/mss_sgmii.c ****              * This time will come from the user- Dependent on ramp time of power
 137:../src/platform/mpfs_hal/common/nwc/mss_sgmii.c ****              * supply
 138:../src/platform/mpfs_hal/common/nwc/mss_sgmii.c ****              * Approximately - Bank power timer (from ioen_in to ioen_out = 10uS)?
 139:../src/platform/mpfs_hal/common/nwc/mss_sgmii.c ****              *
 140:../src/platform/mpfs_hal/common/nwc/mss_sgmii.c ****              */
 141:../src/platform/mpfs_hal/common/nwc/mss_sgmii.c ****             timer_out++;
 142:../src/platform/mpfs_hal/common/nwc/mss_sgmii.c ****             if(timer_out >= 0xFU)
 143:../src/platform/mpfs_hal/common/nwc/mss_sgmii.c ****             {
 144:../src/platform/mpfs_hal/common/nwc/mss_sgmii.c ****                 timer_out=0U;
 145:../src/platform/mpfs_hal/common/nwc/mss_sgmii.c ****                 sgmii_training_state = SGMII_IO_SETUP;
 146:../src/platform/mpfs_hal/common/nwc/mss_sgmii.c ****             }
 147:../src/platform/mpfs_hal/common/nwc/mss_sgmii.c ****             break;
 148:../src/platform/mpfs_hal/common/nwc/mss_sgmii.c **** 
 149:../src/platform/mpfs_hal/common/nwc/mss_sgmii.c ****         case SGMII_IO_SETUP:
 150:../src/platform/mpfs_hal/common/nwc/mss_sgmii.c ****             /*
 151:../src/platform/mpfs_hal/common/nwc/mss_sgmii.c ****              * fixme- not sure if we should be setting this register
 152:../src/platform/mpfs_hal/common/nwc/mss_sgmii.c ****              * From regmap detail:
 153:../src/platform/mpfs_hal/common/nwc/mss_sgmii.c ****              * bit 8 of MSS_RESET_CR
 154:../src/platform/mpfs_hal/common/nwc/mss_sgmii.c ****              * Asserts a reset the SGMII block containing the MSS reference clock
 155:../src/platform/mpfs_hal/common/nwc/mss_sgmii.c ****              * input.
 156:../src/platform/mpfs_hal/common/nwc/mss_sgmii.c ****              * Warning that setting this bit causes the external reference clock
 157:../src/platform/mpfs_hal/common/nwc/mss_sgmii.c ****              * input to the
 158:../src/platform/mpfs_hal/common/nwc/mss_sgmii.c ****              * MSS PLL to disappear.
 159:../src/platform/mpfs_hal/common/nwc/mss_sgmii.c ****              * It is advisable to use the SGMII channel soft resets in the PHY
 160:../src/platform/mpfs_hal/common/nwc/mss_sgmii.c ****              * instead of this bit.
 161:../src/platform/mpfs_hal/common/nwc/mss_sgmii.c ****              * However if E51 software wants to set this bit, the MSS clock source
 162:../src/platform/mpfs_hal/common/nwc/mss_sgmii.c ****              * should be switched over to the standby source in advance.
 163:../src/platform/mpfs_hal/common/nwc/mss_sgmii.c ****              */
 164:../src/platform/mpfs_hal/common/nwc/mss_sgmii.c ****             SCB_REGS->MSS_RESET_CR.MSS_RESET_CR = 0;
 165:../src/platform/mpfs_hal/common/nwc/mss_sgmii.c **** 
 166:../src/platform/mpfs_hal/common/nwc/mss_sgmii.c ****             /*
 167:../src/platform/mpfs_hal/common/nwc/mss_sgmii.c ****              * I ran the sim past the place where we set the nvmap_reset in the
 168:../src/platform/mpfs_hal/common/nwc/mss_sgmii.c ****              * SOFT_RESET_SGMII register and it did not result in any
 169:../src/platform/mpfs_hal/common/nwc/mss_sgmii.c ****              * change from the DLL default bits.
 170:../src/platform/mpfs_hal/common/nwc/mss_sgmii.c ****              * But I traced the 'flashing' signal on one of these regs back to
 171:../src/platform/mpfs_hal/common/nwc/mss_sgmii.c ****              * 'dll0_soft_reset_nv_map' (not 'pll0_soft_reset_periph').
 172:../src/platform/mpfs_hal/common/nwc/mss_sgmii.c ****              * Now the only place I can find 'dll0_soft_reset_nv_map' is in SCB
 173:../src/platform/mpfs_hal/common/nwc/mss_sgmii.c ****              * space...ie 0x3e10_0000 SOFT_RESET register.
 174:../src/platform/mpfs_hal/common/nwc/mss_sgmii.c ****              *
 175:../src/platform/mpfs_hal/common/nwc/mss_sgmii.c ****              */
 176:../src/platform/mpfs_hal/common/nwc/mss_sgmii.c ****             /*
 177:../src/platform/mpfs_hal/common/nwc/mss_sgmii.c ****              * so we have to use scb register to reset as no APB register available
 178:../src/platform/mpfs_hal/common/nwc/mss_sgmii.c ****              * to soft reset the IP
 179:../src/platform/mpfs_hal/common/nwc/mss_sgmii.c ****              * ioscb_dll_sgmii
 180:../src/platform/mpfs_hal/common/nwc/mss_sgmii.c ****              * */
 181:../src/platform/mpfs_hal/common/nwc/mss_sgmii.c ****             IOSCB_DLL_SGMII->soft_reset = (0x01U << 0x00U);  /*  reset sgmii DLL */
 182:../src/platform/mpfs_hal/common/nwc/mss_sgmii.c **** 
 183:../src/platform/mpfs_hal/common/nwc/mss_sgmii.c ****             /*
 184:../src/platform/mpfs_hal/common/nwc/mss_sgmii.c ****               * I have discovered the problem with the tx channels (soft reset issue)
 185:../src/platform/mpfs_hal/common/nwc/mss_sgmii.c ****               * So we require the:
 186:../src/platform/mpfs_hal/common/nwc/mss_sgmii.c ****               *
 187:../src/platform/mpfs_hal/common/nwc/mss_sgmii.c ****               * sgmiiphy_lane 01 soft-reset register (0x3650_0000) to be written to
 188:../src/platform/mpfs_hal/common/nwc/mss_sgmii.c ****               * with 0x1 (to set the nv_map bit[0] =1 (self clears))
 189:../src/platform/mpfs_hal/common/nwc/mss_sgmii.c ****               * same for sgmiiphy_lane 23 soft-reset register (0x3651_0000).
 190:../src/platform/mpfs_hal/common/nwc/mss_sgmii.c ****               *
 191:../src/platform/mpfs_hal/common/nwc/mss_sgmii.c ****               * This will result in the rpc bits for the Lane controls to get loaded.
 192:../src/platform/mpfs_hal/common/nwc/mss_sgmii.c ****               * Not happening currently.
 193:../src/platform/mpfs_hal/common/nwc/mss_sgmii.c ****               *
 194:../src/platform/mpfs_hal/common/nwc/mss_sgmii.c ****               * The soft_reset_sgmii occurs in the mss_ddr.c line 436, so I suppose
 195:../src/platform/mpfs_hal/common/nwc/mss_sgmii.c ****               * we put the 2 new soft reset writes after that.
 196:../src/platform/mpfs_hal/common/nwc/mss_sgmii.c ****               *
 197:../src/platform/mpfs_hal/common/nwc/mss_sgmii.c ****               */
 198:../src/platform/mpfs_hal/common/nwc/mss_sgmii.c ****             {
 199:../src/platform/mpfs_hal/common/nwc/mss_sgmii.c ****                 /* sgmiiphy_lane 01 soft-reset register (0x3650_0000) */
 200:../src/platform/mpfs_hal/common/nwc/mss_sgmii.c ****                 SGMIIPHY_LANE01->soft_reset = 0x000000001U;
 201:../src/platform/mpfs_hal/common/nwc/mss_sgmii.c ****                 /* sgmiiphy_lane 23 soft-reset register (0x3650_0000) */
 202:../src/platform/mpfs_hal/common/nwc/mss_sgmii.c ****                 SGMIIPHY_LANE23->soft_reset = 0x000000001U;
 203:../src/platform/mpfs_hal/common/nwc/mss_sgmii.c ****             }
 204:../src/platform/mpfs_hal/common/nwc/mss_sgmii.c **** 
 205:../src/platform/mpfs_hal/common/nwc/mss_sgmii.c ****             /*
 206:../src/platform/mpfs_hal/common/nwc/mss_sgmii.c ****              * Kick-off calibration, by taking calibration IP out of reset
 207:../src/platform/mpfs_hal/common/nwc/mss_sgmii.c ****              */
 208:../src/platform/mpfs_hal/common/nwc/mss_sgmii.c ****             /*
 209:../src/platform/mpfs_hal/common/nwc/mss_sgmii.c ****              * Soft reset
 210:../src/platform/mpfs_hal/common/nwc/mss_sgmii.c ****              */
 211:../src/platform/mpfs_hal/common/nwc/mss_sgmii.c ****             {
 212:../src/platform/mpfs_hal/common/nwc/mss_sgmii.c ****                 /* PVT soft reset - APB*/
 213:../src/platform/mpfs_hal/common/nwc/mss_sgmii.c ****                 /* reg_pvt_soft_reset_periph  */
 214:../src/platform/mpfs_hal/common/nwc/mss_sgmii.c ****                 CFG_DDR_SGMII_PHY->DYN_CNTL.DYN_CNTL        = (0x01U<< 10U) | (0x7FU<<0U);
 215:../src/platform/mpfs_hal/common/nwc/mss_sgmii.c ****                 /* reg_pvt_soft_reset_periph  */
 216:../src/platform/mpfs_hal/common/nwc/mss_sgmii.c ****                 CFG_DDR_SGMII_PHY->DYN_CNTL.DYN_CNTL        = (0x7FU<<0U);
 217:../src/platform/mpfs_hal/common/nwc/mss_sgmii.c ****                 /* PVT soft reset - SCB */
 218:../src/platform/mpfs_hal/common/nwc/mss_sgmii.c ****                 /* make sure out of reset */
 219:../src/platform/mpfs_hal/common/nwc/mss_sgmii.c ****                 IOSCB_IO_CALIB_SGMII->SOFT_RESET_IOCALIB    = 0x1U;
 220:../src/platform/mpfs_hal/common/nwc/mss_sgmii.c ****                 /* make sure out of reset */
 221:../src/platform/mpfs_hal/common/nwc/mss_sgmii.c ****                 IOSCB_IO_CALIB_SGMII->SOFT_RESET_IOCALIB    = 0x0U;
 222:../src/platform/mpfs_hal/common/nwc/mss_sgmii.c ****             }
 223:../src/platform/mpfs_hal/common/nwc/mss_sgmii.c ****             sgmii_training_state = SGMII_WAIT_FOR_CALIB_COMPLETE;
 224:../src/platform/mpfs_hal/common/nwc/mss_sgmii.c ****             break;
 225:../src/platform/mpfs_hal/common/nwc/mss_sgmii.c **** 
 226:../src/platform/mpfs_hal/common/nwc/mss_sgmii.c ****         case SGMII_WAIT_FOR_CALIB_COMPLETE:
 227:../src/platform/mpfs_hal/common/nwc/mss_sgmii.c ****             /*
 228:../src/platform/mpfs_hal/common/nwc/mss_sgmii.c ****              * Verify calibration
 229:../src/platform/mpfs_hal/common/nwc/mss_sgmii.c ****              * Bank 5 PVT calibrator can be controlled by MSS firmware through APB
 230:../src/platform/mpfs_hal/common/nwc/mss_sgmii.c ****              * registers to do initial calibration and re-calibration. During startup,
 231:../src/platform/mpfs_hal/common/nwc/mss_sgmii.c ****              * the initial calibration can be started by default when MSS releases SGMII
 232:../src/platform/mpfs_hal/common/nwc/mss_sgmii.c ****              * reset. Re-calibration is enabled by default with reg_pvt_calib_start/lock
 233:../src/platform/mpfs_hal/common/nwc/mss_sgmii.c ****              * bits being set to 1 before startup, and MSS firmware can start
 234:../src/platform/mpfs_hal/common/nwc/mss_sgmii.c ****              * re-calibration after startup by toggling  pvt_calib_start/lock bits per
 235:../src/platform/mpfs_hal/common/nwc/mss_sgmii.c ****              * PVT calibrator spec.
 236:../src/platform/mpfs_hal/common/nwc/mss_sgmii.c ****              *
 237:../src/platform/mpfs_hal/common/nwc/mss_sgmii.c ****              */
 238:../src/platform/mpfs_hal/common/nwc/mss_sgmii.c ****             if((CFG_DDR_SGMII_PHY->PVT_STAT.PVT_STAT & (1U << 14U)) == (1U << 14U))
 239:../src/platform/mpfs_hal/common/nwc/mss_sgmii.c ****             {
 240:../src/platform/mpfs_hal/common/nwc/mss_sgmii.c ****                 sgmii_training_state = SGMII_ASSERT_CALIB_LOCK;
 241:../src/platform/mpfs_hal/common/nwc/mss_sgmii.c ****             }
 242:../src/platform/mpfs_hal/common/nwc/mss_sgmii.c ****             break;
 243:../src/platform/mpfs_hal/common/nwc/mss_sgmii.c **** 
 244:../src/platform/mpfs_hal/common/nwc/mss_sgmii.c ****         case SGMII_ASSERT_CALIB_LOCK:
 245:../src/platform/mpfs_hal/common/nwc/mss_sgmii.c ****             /*
 246:../src/platform/mpfs_hal/common/nwc/mss_sgmii.c ****              * now assert calib lock
 247:../src/platform/mpfs_hal/common/nwc/mss_sgmii.c ****              *    calibrated pcode and ncode will be written.
 248:../src/platform/mpfs_hal/common/nwc/mss_sgmii.c ****              * */
 249:../src/platform/mpfs_hal/common/nwc/mss_sgmii.c **** 
 250:../src/platform/mpfs_hal/common/nwc/mss_sgmii.c ****             CFG_DDR_SGMII_PHY->PVT_STAT.PVT_STAT |= 0x40000000UL;
 251:../src/platform/mpfs_hal/common/nwc/mss_sgmii.c ****             IOSCB_IO_CALIB_SGMII->IOC_REG0       |= (0x01U<<14U);
 252:../src/platform/mpfs_hal/common/nwc/mss_sgmii.c ****             sgmii_training_state = SGMII_SET_UP_PLL;
 253:../src/platform/mpfs_hal/common/nwc/mss_sgmii.c ****             break;
 254:../src/platform/mpfs_hal/common/nwc/mss_sgmii.c **** 
 255:../src/platform/mpfs_hal/common/nwc/mss_sgmii.c ****         case SGMII_SET_UP_PLL:
 256:../src/platform/mpfs_hal/common/nwc/mss_sgmii.c ****             /*
 257:../src/platform/mpfs_hal/common/nwc/mss_sgmii.c ****               * SGMii Step 3)   Wait for PLL and DLL lock
 258:../src/platform/mpfs_hal/common/nwc/mss_sgmii.c ****               * Delay codes generated
 259:../src/platform/mpfs_hal/common/nwc/mss_sgmii.c ****               */
 260:../src/platform/mpfs_hal/common/nwc/mss_sgmii.c **** 
 261:../src/platform/mpfs_hal/common/nwc/mss_sgmii.c ****             /* 0U => configure using scb, 1U => NVMAP reset */
 262:../src/platform/mpfs_hal/common/nwc/mss_sgmii.c ****             sgmii_mux_config(RPC_REG_UPDATE);
 263:../src/platform/mpfs_hal/common/nwc/mss_sgmii.c ****             /* 0U => configure using scb, 1U => NVMAP reset */
 264:../src/platform/mpfs_hal/common/nwc/mss_sgmii.c ****             sgmii_pll_config_scb(RPC_REG_UPDATE);
 265:../src/platform/mpfs_hal/common/nwc/mss_sgmii.c **** 
 266:../src/platform/mpfs_hal/common/nwc/mss_sgmii.c ****             timer_out=0U;
 267:../src/platform/mpfs_hal/common/nwc/mss_sgmii.c ****             sgmii_training_state = SGMII_WAIT_FOR_MSS_LOCK;
 268:../src/platform/mpfs_hal/common/nwc/mss_sgmii.c ****             break;
 269:../src/platform/mpfs_hal/common/nwc/mss_sgmii.c **** 
 270:../src/platform/mpfs_hal/common/nwc/mss_sgmii.c ****         case SGMII_WAIT_FOR_MSS_LOCK:
 271:../src/platform/mpfs_hal/common/nwc/mss_sgmii.c ****             if (CFG_DDR_SGMII_PHY->PLL_CNTL.PLL_CNTL & (1U<<7U))
 272:../src/platform/mpfs_hal/common/nwc/mss_sgmii.c ****             {
 273:../src/platform/mpfs_hal/common/nwc/mss_sgmii.c ****                 sgmii_training_state = SGMII_WAIT_FOR_DLL_LOCK;
 274:../src/platform/mpfs_hal/common/nwc/mss_sgmii.c ****             }
 275:../src/platform/mpfs_hal/common/nwc/mss_sgmii.c ****             break;
 276:../src/platform/mpfs_hal/common/nwc/mss_sgmii.c **** 
 277:../src/platform/mpfs_hal/common/nwc/mss_sgmii.c ****         case SGMII_WAIT_FOR_DLL_LOCK:
 278:../src/platform/mpfs_hal/common/nwc/mss_sgmii.c ****             if (CFG_DDR_SGMII_PHY->RECAL_CNTL.RECAL_CNTL & (1U<<23U))
 279:../src/platform/mpfs_hal/common/nwc/mss_sgmii.c ****             {
 280:../src/platform/mpfs_hal/common/nwc/mss_sgmii.c ****                 sgmii_training_state = SGMII_TURN_ON_MACS;
 281:../src/platform/mpfs_hal/common/nwc/mss_sgmii.c ****             }
 282:../src/platform/mpfs_hal/common/nwc/mss_sgmii.c ****             break;
 283:../src/platform/mpfs_hal/common/nwc/mss_sgmii.c **** 
 284:../src/platform/mpfs_hal/common/nwc/mss_sgmii.c ****         case SGMII_TURN_ON_MACS:
 285:../src/platform/mpfs_hal/common/nwc/mss_sgmii.c ****             /*
 286:../src/platform/mpfs_hal/common/nwc/mss_sgmii.c ****              * Provide mac clocks
 287:../src/platform/mpfs_hal/common/nwc/mss_sgmii.c ****              * The nw_config register for mac0 (0x2011_0004): I am forcing 'gigabit' and
 288:../src/platform/mpfs_hal/common/nwc/mss_sgmii.c ****              * 'tbi' bits = 11.
 289:../src/platform/mpfs_hal/common/nwc/mss_sgmii.c ****              * The same for Mac1.
 290:../src/platform/mpfs_hal/common/nwc/mss_sgmii.c ****              * This starts up the tx_mac_clocks for the 2 macs.
 291:../src/platform/mpfs_hal/common/nwc/mss_sgmii.c ****              *
 292:../src/platform/mpfs_hal/common/nwc/mss_sgmii.c ****              */
 293:../src/platform/mpfs_hal/common/nwc/mss_sgmii.c ****             /* the mac clocks need to be turned on when setting up the sgmii */
 294:../src/platform/mpfs_hal/common/nwc/mss_sgmii.c ****             (void)mss_config_clk_rst(MSS_PERIPH_MAC0, (uint8_t) MPFS_HAL_FIRST_HART, PERIPHERAL_ON)
 295:../src/platform/mpfs_hal/common/nwc/mss_sgmii.c ****             (void)mss_config_clk_rst(MSS_PERIPH_MAC0, (uint8_t) MPFS_HAL_FIRST_HART, PERIPHERAL_ON)
 296:../src/platform/mpfs_hal/common/nwc/mss_sgmii.c ****             GEM_A_LO->network_config |= (0x01U << 10U) | (0x01U << 11U);   /* GEM0 */
 297:../src/platform/mpfs_hal/common/nwc/mss_sgmii.c ****             GEM_B_LO->network_config |= (0x01U << 10U) | (0x01U << 11U);   /* GEM1 */
 298:../src/platform/mpfs_hal/common/nwc/mss_sgmii.c ****             sgmii_training_state = SGMII_DETERMINE_SILICON_VARIANT;
 299:../src/platform/mpfs_hal/common/nwc/mss_sgmii.c ****             break;
 300:../src/platform/mpfs_hal/common/nwc/mss_sgmii.c **** 
 301:../src/platform/mpfs_hal/common/nwc/mss_sgmii.c ****         case SGMII_DETERMINE_SILICON_VARIANT:
 302:../src/platform/mpfs_hal/common/nwc/mss_sgmii.c ****             /*
 303:../src/platform/mpfs_hal/common/nwc/mss_sgmii.c ****              * Determine Silicon variant from generated dll generated sro_dll_90_code
 304:../src/platform/mpfs_hal/common/nwc/mss_sgmii.c ****              */
 305:../src/platform/mpfs_hal/common/nwc/mss_sgmii.c ****             sro_dll_90_code = ((CFG_DDR_SGMII_PHY->RECAL_CNTL.RECAL_CNTL >> 16U) & 0x7FU);
 306:../src/platform/mpfs_hal/common/nwc/mss_sgmii.c **** 
 307:../src/platform/mpfs_hal/common/nwc/mss_sgmii.c ****             if(CFG_DDR_SGMII_PHY->SPARE_STAT.SPARE_STAT & (01U<<31U)) /* bit31 == 1 => post rev B s
 308:../src/platform/mpfs_hal/common/nwc/mss_sgmii.c ****             {
 309:../src/platform/mpfs_hal/common/nwc/mss_sgmii.c ****                 silicon_variant = PART_REVC_OR_LATER;
 310:../src/platform/mpfs_hal/common/nwc/mss_sgmii.c ****                 set_early_late_thresholds(LATE_EYE_WIDTH_PART_REVC_OR_LATER_PRE_TEST, EARLY_EYE_WID
 311:../src/platform/mpfs_hal/common/nwc/mss_sgmii.c ****             }
 312:../src/platform/mpfs_hal/common/nwc/mss_sgmii.c ****             else
 313:../src/platform/mpfs_hal/common/nwc/mss_sgmii.c ****             {
 314:../src/platform/mpfs_hal/common/nwc/mss_sgmii.c ****                 /*
 315:../src/platform/mpfs_hal/common/nwc/mss_sgmii.c ****                  * SS  part expect  < 13
 316:../src/platform/mpfs_hal/common/nwc/mss_sgmii.c ****                  * typical-typical  or FF expect  > 13
 317:../src/platform/mpfs_hal/common/nwc/mss_sgmii.c ****                  */
 318:../src/platform/mpfs_hal/common/nwc/mss_sgmii.c ****                 if(sro_dll_90_code < MIN_DLL_90_CODE_VALUE_INDICATING_TT_PART_REVB) /* SS part */
 319:../src/platform/mpfs_hal/common/nwc/mss_sgmii.c ****                 {
 320:../src/platform/mpfs_hal/common/nwc/mss_sgmii.c ****                     silicon_variant = SS_PART_REVB;
 321:../src/platform/mpfs_hal/common/nwc/mss_sgmii.c ****                     set_early_late_thresholds(LATE_EYE_WIDTH_SS_PART_REVB, EARLY_EYE_WIDTH_SS_PART_
 322:../src/platform/mpfs_hal/common/nwc/mss_sgmii.c ****                 }
 323:../src/platform/mpfs_hal/common/nwc/mss_sgmii.c ****                 else
 324:../src/platform/mpfs_hal/common/nwc/mss_sgmii.c ****                 {
 325:../src/platform/mpfs_hal/common/nwc/mss_sgmii.c ****                     silicon_variant = TT_PART_REVB;
 326:../src/platform/mpfs_hal/common/nwc/mss_sgmii.c ****                     set_early_late_thresholds(LATE_TT_PART_REVB, EARLY_TT_PART_REVB);
 327:../src/platform/mpfs_hal/common/nwc/mss_sgmii.c ****                 }
 328:../src/platform/mpfs_hal/common/nwc/mss_sgmii.c ****             }
 329:../src/platform/mpfs_hal/common/nwc/mss_sgmii.c ****             sgmii_training_state = SGMII_RESET_CHANNELS;
 330:../src/platform/mpfs_hal/common/nwc/mss_sgmii.c ****             break;
 331:../src/platform/mpfs_hal/common/nwc/mss_sgmii.c **** 
 332:../src/platform/mpfs_hal/common/nwc/mss_sgmii.c ****         case SGMII_RESET_CHANNELS:
 333:../src/platform/mpfs_hal/common/nwc/mss_sgmii.c ****             /*
 334:../src/platform/mpfs_hal/common/nwc/mss_sgmii.c ****              * DLL soft reset                   - Already configured
 335:../src/platform/mpfs_hal/common/nwc/mss_sgmii.c ****              * PVT soft reset                   - Already configured
 336:../src/platform/mpfs_hal/common/nwc/mss_sgmii.c ****              * Bank controller soft reset       - Already configured
 337:../src/platform/mpfs_hal/common/nwc/mss_sgmii.c ****              * CLKMUX soft reset                - Already configured
 338:../src/platform/mpfs_hal/common/nwc/mss_sgmii.c ****              * Lane0 soft reset                 - must be soft reset here
 339:../src/platform/mpfs_hal/common/nwc/mss_sgmii.c ****              * Lane1 soft reset                 - must be soft reset here
 340:../src/platform/mpfs_hal/common/nwc/mss_sgmii.c ****              *
 341:../src/platform/mpfs_hal/common/nwc/mss_sgmii.c ****              *      __IO  uint32_t               reg_lane0_soft_reset_periph :1;  bit 13
 342:../src/platform/mpfs_hal/common/nwc/mss_sgmii.c ****              *      __IO  uint32_t               reg_lane1_soft_reset_periph :1;  bit 14
 343:../src/platform/mpfs_hal/common/nwc/mss_sgmii.c ****              */
 344:../src/platform/mpfs_hal/common/nwc/mss_sgmii.c ****             CFG_DDR_SGMII_PHY->DYN_CNTL.DYN_CNTL  = (1U << 14U)|(1U << 13U)|(0x7FU<<0U);
 345:../src/platform/mpfs_hal/common/nwc/mss_sgmii.c ****             CFG_DDR_SGMII_PHY->DYN_CNTL.DYN_CNTL  = (0U << 14U)|(0U << 13U)|(0x7FU<<0U);
 346:../src/platform/mpfs_hal/common/nwc/mss_sgmii.c ****             if(silicon_variant == PART_REVC_OR_LATER)
 347:../src/platform/mpfs_hal/common/nwc/mss_sgmii.c ****             {
 348:../src/platform/mpfs_hal/common/nwc/mss_sgmii.c ****                 timer_out=0U;
 349:../src/platform/mpfs_hal/common/nwc/mss_sgmii.c ****                 sgmii_training_state = SGMII_WAIT_10MS;
 350:../src/platform/mpfs_hal/common/nwc/mss_sgmii.c ****             }
 351:../src/platform/mpfs_hal/common/nwc/mss_sgmii.c ****             else
 352:../src/platform/mpfs_hal/common/nwc/mss_sgmii.c ****             {
 353:../src/platform/mpfs_hal/common/nwc/mss_sgmii.c ****                 sgmii_training_state = SGMII_CHANNELS_UP;
 354:../src/platform/mpfs_hal/common/nwc/mss_sgmii.c ****             }
 355:../src/platform/mpfs_hal/common/nwc/mss_sgmii.c ****             break;
 356:../src/platform/mpfs_hal/common/nwc/mss_sgmii.c **** 
 357:../src/platform/mpfs_hal/common/nwc/mss_sgmii.c ****         case SGMII_WAIT_10MS:
 358:../src/platform/mpfs_hal/common/nwc/mss_sgmii.c ****             timer_out++;
 359:../src/platform/mpfs_hal/common/nwc/mss_sgmii.c ****             if(timer_out >= 0xFFFU)
 360:../src/platform/mpfs_hal/common/nwc/mss_sgmii.c ****             {
 361:../src/platform/mpfs_hal/common/nwc/mss_sgmii.c ****                 timer_out=0U;
 362:../src/platform/mpfs_hal/common/nwc/mss_sgmii.c ****                 sgmii_training_state = SGMII_CHECK_REVC_RESULT;
 363:../src/platform/mpfs_hal/common/nwc/mss_sgmii.c ****             }
 364:../src/platform/mpfs_hal/common/nwc/mss_sgmii.c ****             break;
 365:../src/platform/mpfs_hal/common/nwc/mss_sgmii.c **** 
 366:../src/platform/mpfs_hal/common/nwc/mss_sgmii.c ****         case SGMII_CHECK_REVC_RESULT:
 367:../src/platform/mpfs_hal/common/nwc/mss_sgmii.c ****             if ( (CFG_DDR_SGMII_PHY->SPARE_STAT.SPARE_STAT & ARO_REF_PCODE_MASK) > ARO_REF_PCODE_RE
 368:../src/platform/mpfs_hal/common/nwc/mss_sgmii.c ****             {
 369:../src/platform/mpfs_hal/common/nwc/mss_sgmii.c ****                 /* OK, we are good */
 370:../src/platform/mpfs_hal/common/nwc/mss_sgmii.c ****                 sgmii_training_state = SGMII_CHANNELS_UP;
 371:../src/platform/mpfs_hal/common/nwc/mss_sgmii.c ****             }
 372:../src/platform/mpfs_hal/common/nwc/mss_sgmii.c ****             else
 373:../src/platform/mpfs_hal/common/nwc/mss_sgmii.c ****             {
 374:../src/platform/mpfs_hal/common/nwc/mss_sgmii.c ****                 /* need to adjust eye values */
 375:../src/platform/mpfs_hal/common/nwc/mss_sgmii.c ****                 set_early_late_thresholds(LATE_EYE_WIDTH_PART_REVC_OR_LATER, EARLY_EYE_WIDTH_PART_R
 376:../src/platform/mpfs_hal/common/nwc/mss_sgmii.c ****                 /*
 377:../src/platform/mpfs_hal/common/nwc/mss_sgmii.c ****                  * Now reset the channels
 378:../src/platform/mpfs_hal/common/nwc/mss_sgmii.c ****                  */
 379:../src/platform/mpfs_hal/common/nwc/mss_sgmii.c ****                 CFG_DDR_SGMII_PHY->DYN_CNTL.DYN_CNTL  = (1U << 14U)|(1U << 13U)|(0x7FU<<0U);
 380:../src/platform/mpfs_hal/common/nwc/mss_sgmii.c ****                 CFG_DDR_SGMII_PHY->DYN_CNTL.DYN_CNTL  = (0U << 14U)|(0U << 13U)|(0x7FU<<0U);
 381:../src/platform/mpfs_hal/common/nwc/mss_sgmii.c ****                 /* OK, we are good */
 382:../src/platform/mpfs_hal/common/nwc/mss_sgmii.c ****                 sgmii_training_state = SGMII_CHANNELS_UP;
 383:../src/platform/mpfs_hal/common/nwc/mss_sgmii.c ****             }
 384:../src/platform/mpfs_hal/common/nwc/mss_sgmii.c ****             break;
 385:../src/platform/mpfs_hal/common/nwc/mss_sgmii.c **** 
 386:../src/platform/mpfs_hal/common/nwc/mss_sgmii.c ****         case SGMII_CHANNELS_UP:
 387:../src/platform/mpfs_hal/common/nwc/mss_sgmii.c ****             /*
 388:../src/platform/mpfs_hal/common/nwc/mss_sgmii.c ****              * SGMii Step 4)    Monitor the DLL codes for Voltage and Temp variation
 389:../src/platform/mpfs_hal/common/nwc/mss_sgmii.c ****              * MSS E51 software sets the magnitude value of variation to flag.
 390:../src/platform/mpfs_hal/common/nwc/mss_sgmii.c ****              * MSS E51 software can poll this flag.
 391:../src/platform/mpfs_hal/common/nwc/mss_sgmii.c ****              * Re-calibration, if needed, is controlled by E51 software if needed.
 392:../src/platform/mpfs_hal/common/nwc/mss_sgmii.c ****              * ML step 4- This is a monitoring step- to be run constantly in the back
 393:../src/platform/mpfs_hal/common/nwc/mss_sgmii.c ****              * ground
 394:../src/platform/mpfs_hal/common/nwc/mss_sgmii.c ****              */
 395:../src/platform/mpfs_hal/common/nwc/mss_sgmii.c ****             status = SGMII_FINISHED_SETUP;
 396:../src/platform/mpfs_hal/common/nwc/mss_sgmii.c ****             break;
 397:../src/platform/mpfs_hal/common/nwc/mss_sgmii.c ****     } /* end of switch statement */
 398:../src/platform/mpfs_hal/common/nwc/mss_sgmii.c **** 
 399:../src/platform/mpfs_hal/common/nwc/mss_sgmii.c ****     return(status);
 400:../src/platform/mpfs_hal/common/nwc/mss_sgmii.c **** }
 401:../src/platform/mpfs_hal/common/nwc/mss_sgmii.c **** #endif
 402:../src/platform/mpfs_hal/common/nwc/mss_sgmii.c **** 
 403:../src/platform/mpfs_hal/common/nwc/mss_sgmii.c **** /**
 404:../src/platform/mpfs_hal/common/nwc/mss_sgmii.c ****  * setup_sgmii_rpc_per_config
 405:../src/platform/mpfs_hal/common/nwc/mss_sgmii.c ****  * Configures SGMII RPC TIP registers
 406:../src/platform/mpfs_hal/common/nwc/mss_sgmii.c ****  */
 407:../src/platform/mpfs_hal/common/nwc/mss_sgmii.c **** static void setup_sgmii_rpc_per_config(void)
 408:../src/platform/mpfs_hal/common/nwc/mss_sgmii.c **** {
  15              		.loc 1 408 1
  16              		.cfi_startproc
 409:../src/platform/mpfs_hal/common/nwc/mss_sgmii.c ****     CFG_DDR_SGMII_PHY->SGMII_MODE.SGMII_MODE    = (LIBERO_SETTING_SGMII_MODE & ~REG_CDR_MOVE_STEP);
  17              		.loc 1 409 5
  18              		.loc 1 409 22 is_stmt 0
  19 0000 97070000 		lla	a5,CFG_DDR_SGMII_PHY
  19      93870700 
  20 0008 9C63     		ld	a5,0(a5)
  21              		.loc 1 409 49
  22 000a 0567     		li	a4,4096
  23 000c BA97     		add	a5,a5,a4
  24 000e 37F78008 		li	a4,142667776
  25 0012 1307F72F 		addi	a4,a4,767
  26 0016 23A2E7C0 		sw	a4,-1020(a5)
 410:../src/platform/mpfs_hal/common/nwc/mss_sgmii.c ****     CFG_DDR_SGMII_PHY->CH0_CNTL.CH0_CNTL        = LIBERO_SETTING_CH0_CNTL;
  27              		.loc 1 410 5 is_stmt 1
  28              		.loc 1 410 49 is_stmt 0
  29 001a 3777F037 		li	a4,938504192
  30 001e 13070777 		addi	a4,a4,1904
  31 0022 23A6E7C0 		sw	a4,-1012(a5)
 411:../src/platform/mpfs_hal/common/nwc/mss_sgmii.c ****     CFG_DDR_SGMII_PHY->CH1_CNTL.CH1_CNTL        = LIBERO_SETTING_CH1_CNTL;
  32              		.loc 1 411 5 is_stmt 1
  33              		.loc 1 411 49 is_stmt 0
  34 0026 23A8E7C0 		sw	a4,-1008(a5)
 412:../src/platform/mpfs_hal/common/nwc/mss_sgmii.c ****     CFG_DDR_SGMII_PHY->RECAL_CNTL.RECAL_CNTL    = LIBERO_SETTING_RECAL_CNTL;
  35              		.loc 1 412 5 is_stmt 1
  36              		.loc 1 412 49 is_stmt 0
  37 002a 0967     		li	a4,8192
  38 002c 1307870C 		addi	a4,a4,200
  39 0030 23AAE7C0 		sw	a4,-1004(a5)
 413:../src/platform/mpfs_hal/common/nwc/mss_sgmii.c ****     CFG_DDR_SGMII_PHY->CLK_CNTL.CLK_CNTL        = LIBERO_SETTING_CLK_CNTL;
  40              		.loc 1 413 5 is_stmt 1
  41              		.loc 1 413 49 is_stmt 0
  42 0034 375700F0 		li	a4,-268414976
  43 0038 1307C70C 		addi	a4,a4,204
  44 003c 23ACE7C0 		sw	a4,-1000(a5)
 414:../src/platform/mpfs_hal/common/nwc/mss_sgmii.c ****     /* ibuffmx_p and _n rx1, bit 22 and 23 , rx0, bit 20 and 21 */
 415:../src/platform/mpfs_hal/common/nwc/mss_sgmii.c ****     CFG_DDR_SGMII_PHY->SPARE_CNTL.SPARE_CNTL    = LIBERO_SETTING_SPARE_CNTL;
  45              		.loc 1 415 5 is_stmt 1
  46              		.loc 1 415 49 is_stmt 0
  47 0040 370700FF 		li	a4,-16777216
  48 0044 23A2E7C2 		sw	a4,-988(a5)
 416:../src/platform/mpfs_hal/common/nwc/mss_sgmii.c ****     CFG_DDR_SGMII_PHY->PLL_CNTL.PLL_CNTL        = LIBERO_SETTING_PLL_CNTL;
  49              		.loc 1 416 5 is_stmt 1
  50              		.loc 1 416 49 is_stmt 0
  51 0048 37071480 		li	a4,-2146172928
  52 004c 13071710 		addi	a4,a4,257
  53 0050 23A4E7C0 		sw	a4,-1016(a5)
 417:../src/platform/mpfs_hal/common/nwc/mss_sgmii.c **** }
  54              		.loc 1 417 1
  55 0054 8280     		ret
  56              		.cfi_endproc
  57              	.LFE25:
  59              		.section	.text.sgmii_setup,"ax",@progbits
  60              		.align	1
  61              		.globl	sgmii_setup
  63              	sgmii_setup:
  64              	.LFB23:
  51:../src/platform/mpfs_hal/common/nwc/mss_sgmii.c **** #ifdef SGMII_SUPPORT
  65              		.loc 1 51 1 is_stmt 1
  66              		.cfi_startproc
  56:../src/platform/mpfs_hal/common/nwc/mss_sgmii.c ****     {
  67              		.loc 1 56 5
  58:../src/platform/mpfs_hal/common/nwc/mss_sgmii.c ****         {
  68              		.loc 1 58 9
  51:../src/platform/mpfs_hal/common/nwc/mss_sgmii.c **** #ifdef SGMII_SUPPORT
  69              		.loc 1 51 1 is_stmt 0
  70 0000 3971     		addi	sp,sp,-64
  71              		.cfi_def_cfa_offset 64
  72 0002 22F8     		sd	s0,48(sp)
  73 0004 26F4     		sd	s1,40(sp)
  74 0006 4AF0     		sd	s2,32(sp)
  75 0008 4EEC     		sd	s3,24(sp)
  76              		.cfi_offset 8, -16
  77              		.cfi_offset 9, -24
  78              		.cfi_offset 18, -32
  79              		.cfi_offset 19, -40
  80              	.LBB12:
  81              	.LBB13:
 367:../src/platform/mpfs_hal/common/nwc/mss_sgmii.c ****             {
  82              		.loc 1 367 48
  83 000a 0564     		li	s0,4096
  84              	.LBB14:
  85              	.LBB15:
 418:../src/platform/mpfs_hal/common/nwc/mss_sgmii.c **** 
 419:../src/platform/mpfs_hal/common/nwc/mss_sgmii.c **** /**
 420:../src/platform/mpfs_hal/common/nwc/mss_sgmii.c ****  * SGMII Off mode
 421:../src/platform/mpfs_hal/common/nwc/mss_sgmii.c ****  */
 422:../src/platform/mpfs_hal/common/nwc/mss_sgmii.c **** void sgmii_off_mode(void)
 423:../src/platform/mpfs_hal/common/nwc/mss_sgmii.c **** {
 424:../src/platform/mpfs_hal/common/nwc/mss_sgmii.c ****     /*
 425:../src/platform/mpfs_hal/common/nwc/mss_sgmii.c ****      * do soft reset of SGMII TIP
 426:../src/platform/mpfs_hal/common/nwc/mss_sgmii.c ****      */
 427:../src/platform/mpfs_hal/common/nwc/mss_sgmii.c ****     CFG_DDR_SGMII_PHY->SOFT_RESET_SGMII.SOFT_RESET_SGMII = (0x01 << 8U) | 1U;
 428:../src/platform/mpfs_hal/common/nwc/mss_sgmii.c ****     CFG_DDR_SGMII_PHY->SOFT_RESET_SGMII.SOFT_RESET_SGMII = 1U;
 429:../src/platform/mpfs_hal/common/nwc/mss_sgmii.c **** 
 430:../src/platform/mpfs_hal/common/nwc/mss_sgmii.c ****     /*
 431:../src/platform/mpfs_hal/common/nwc/mss_sgmii.c ****      *
 432:../src/platform/mpfs_hal/common/nwc/mss_sgmii.c ****      */
 433:../src/platform/mpfs_hal/common/nwc/mss_sgmii.c ****     setup_sgmii_rpc_per_config();
 434:../src/platform/mpfs_hal/common/nwc/mss_sgmii.c **** 
 435:../src/platform/mpfs_hal/common/nwc/mss_sgmii.c ****     /*
 436:../src/platform/mpfs_hal/common/nwc/mss_sgmii.c ****      * Resetting the SCB register only required in already in dynamic mode. If
 437:../src/platform/mpfs_hal/common/nwc/mss_sgmii.c ****      * not reset, IO will not be configured.
 438:../src/platform/mpfs_hal/common/nwc/mss_sgmii.c ****      */
 439:../src/platform/mpfs_hal/common/nwc/mss_sgmii.c ****     IOSCB_DLL_SGMII->soft_reset = (0x01U << 0x00U);         /*  reset sgmii */
 440:../src/platform/mpfs_hal/common/nwc/mss_sgmii.c **** 
 441:../src/platform/mpfs_hal/common/nwc/mss_sgmii.c **** }
 442:../src/platform/mpfs_hal/common/nwc/mss_sgmii.c **** 
 443:../src/platform/mpfs_hal/common/nwc/mss_sgmii.c **** /**
 444:../src/platform/mpfs_hal/common/nwc/mss_sgmii.c ****  *
 445:../src/platform/mpfs_hal/common/nwc/mss_sgmii.c ****  */
 446:../src/platform/mpfs_hal/common/nwc/mss_sgmii.c **** void ddr_pvt_calibration(void)
 447:../src/platform/mpfs_hal/common/nwc/mss_sgmii.c **** {
 448:../src/platform/mpfs_hal/common/nwc/mss_sgmii.c ****     /*
 449:../src/platform/mpfs_hal/common/nwc/mss_sgmii.c ****      * R3.1
 450:../src/platform/mpfs_hal/common/nwc/mss_sgmii.c ****      * PVT calibration
 451:../src/platform/mpfs_hal/common/nwc/mss_sgmii.c ****      * Wait for IOEN from power detectors DDR and SGMII - IO enable signal from
 452:../src/platform/mpfs_hal/common/nwc/mss_sgmii.c ****      * System Control powers on
 453:../src/platform/mpfs_hal/common/nwc/mss_sgmii.c ****      *
 454:../src/platform/mpfs_hal/common/nwc/mss_sgmii.c ****      * From DDR phy SAC spec:
 455:../src/platform/mpfs_hal/common/nwc/mss_sgmii.c ****      *      MSS processor releases dce bus to send RPC bits to IO buffer,
 456:../src/platform/mpfs_hal/common/nwc/mss_sgmii.c ****      *      setting each to it's programmed mode and then asserts
 457:../src/platform/mpfs_hal/common/nwc/mss_sgmii.c ****      *      ioen high at end of this state.
 458:../src/platform/mpfs_hal/common/nwc/mss_sgmii.c ****      *
 459:../src/platform/mpfs_hal/common/nwc/mss_sgmii.c ****      *
 460:../src/platform/mpfs_hal/common/nwc/mss_sgmii.c ****      *      Following verification required for MSS IO Calibration (DDRPHY,
 461:../src/platform/mpfs_hal/common/nwc/mss_sgmii.c ****      *      SGMII and MSSIO)
 462:../src/platform/mpfs_hal/common/nwc/mss_sgmii.c ****      *          Auto-calibration supply ramp time settings
 463:../src/platform/mpfs_hal/common/nwc/mss_sgmii.c ****      *          Calibration in reset until ioen_bnk goes high, timer complete
 464:../src/platform/mpfs_hal/common/nwc/mss_sgmii.c ****      *          and setup of bits complete
 465:../src/platform/mpfs_hal/common/nwc/mss_sgmii.c ****      *              scbclk divider setting (/1)
 466:../src/platform/mpfs_hal/common/nwc/mss_sgmii.c ****      *              calibration clkdiv setting
 467:../src/platform/mpfs_hal/common/nwc/mss_sgmii.c ****      *              VS bit settings
 468:../src/platform/mpfs_hal/common/nwc/mss_sgmii.c ****      *          Initial non-calibrated codes to IOs (functional max codes)
 469:../src/platform/mpfs_hal/common/nwc/mss_sgmii.c ****      *          Calibration signal transitions
 470:../src/platform/mpfs_hal/common/nwc/mss_sgmii.c ****      *              pvt_calib_status ,        r in reg     DYN_CNTL
 471:../src/platform/mpfs_hal/common/nwc/mss_sgmii.c ****      *              reg_calib_reset,        w/r in reg     IOC_REG6
 472:../src/platform/mpfs_hal/common/nwc/mss_sgmii.c ****      *              calib_clkdiv,           w/r in reg     IOC_REG6
 473:../src/platform/mpfs_hal/common/nwc/mss_sgmii.c ****      *              soft_reset_periph_b,
 474:../src/platform/mpfs_hal/common/nwc/mss_sgmii.c ****      *              calib_lock,             w/r in reg     IOC_REG0
 475:../src/platform/mpfs_hal/common/nwc/mss_sgmii.c ****      *              calib_start,            w/r in reg     IOC_REG0
 476:../src/platform/mpfs_hal/common/nwc/mss_sgmii.c ****      *              calib_intrpt              r in reg
 477:../src/platform/mpfs_hal/common/nwc/mss_sgmii.c ****      *          Final calibration codes
 478:../src/platform/mpfs_hal/common/nwc/mss_sgmii.c ****      *          Lane latching of codes
 479:../src/platform/mpfs_hal/common/nwc/mss_sgmii.c ****      *          IO Glitching
 480:../src/platform/mpfs_hal/common/nwc/mss_sgmii.c ****      */
 481:../src/platform/mpfs_hal/common/nwc/mss_sgmii.c ****     volatile uint32_t timer_out=0U;
 482:../src/platform/mpfs_hal/common/nwc/mss_sgmii.c **** 
 483:../src/platform/mpfs_hal/common/nwc/mss_sgmii.c ****     #ifndef RENODE_DEBUG
 484:../src/platform/mpfs_hal/common/nwc/mss_sgmii.c ****     /* sro_ioen_out  */
 485:../src/platform/mpfs_hal/common/nwc/mss_sgmii.c ****     while((CFG_DDR_SGMII_PHY->IOC_REG1.IOC_REG1 & (1U<<4U)) == 0U)
 486:../src/platform/mpfs_hal/common/nwc/mss_sgmii.c ****     {
 487:../src/platform/mpfs_hal/common/nwc/mss_sgmii.c ****         timer_out++;
 488:../src/platform/mpfs_hal/common/nwc/mss_sgmii.c ****         /*todo: add a fail break */
 489:../src/platform/mpfs_hal/common/nwc/mss_sgmii.c ****     }
 490:../src/platform/mpfs_hal/common/nwc/mss_sgmii.c ****     #endif
 491:../src/platform/mpfs_hal/common/nwc/mss_sgmii.c **** 
 492:../src/platform/mpfs_hal/common/nwc/mss_sgmii.c ****     /*
 493:../src/platform/mpfs_hal/common/nwc/mss_sgmii.c ****      * R3.2  Trigger timer and wait for completion
 494:../src/platform/mpfs_hal/common/nwc/mss_sgmii.c ****      * PVT calibration
 495:../src/platform/mpfs_hal/common/nwc/mss_sgmii.c ****      * After IOEN is received from power detectors DDR and SGMII, extra time
 496:../src/platform/mpfs_hal/common/nwc/mss_sgmii.c ****      * required for voltage to ramp.
 497:../src/platform/mpfs_hal/common/nwc/mss_sgmii.c ****      * This time will come from the user- Dependent on ramp time of power supply
 498:../src/platform/mpfs_hal/common/nwc/mss_sgmii.c ****      * Approximately - Bank power timer (from ioen_in to ioen_out = 10uS)?
 499:../src/platform/mpfs_hal/common/nwc/mss_sgmii.c ****      *
 500:../src/platform/mpfs_hal/common/nwc/mss_sgmii.c ****      */
 501:../src/platform/mpfs_hal/common/nwc/mss_sgmii.c ****     /*todo: implement proper timer- user will supply ramp time */
 502:../src/platform/mpfs_hal/common/nwc/mss_sgmii.c ****     timer_out=0U;
 503:../src/platform/mpfs_hal/common/nwc/mss_sgmii.c ****     while(timer_out < 0xFU)
 504:../src/platform/mpfs_hal/common/nwc/mss_sgmii.c ****     {
 505:../src/platform/mpfs_hal/common/nwc/mss_sgmii.c ****         timer_out++;
 506:../src/platform/mpfs_hal/common/nwc/mss_sgmii.c ****     }
 507:../src/platform/mpfs_hal/common/nwc/mss_sgmii.c **** 
 508:../src/platform/mpfs_hal/common/nwc/mss_sgmii.c ****     /*
 509:../src/platform/mpfs_hal/common/nwc/mss_sgmii.c ****      * R3.2 Initiate calibration:
 510:../src/platform/mpfs_hal/common/nwc/mss_sgmii.c ****      *
 511:../src/platform/mpfs_hal/common/nwc/mss_sgmii.c ****      * IOC_REG6
 512:../src/platform/mpfs_hal/common/nwc/mss_sgmii.c ****      *  bit 2:1 reg_calib_clkdiv
 513:../src/platform/mpfs_hal/common/nwc/mss_sgmii.c ****      *  bit 0  reg_calib_reset
 514:../src/platform/mpfs_hal/common/nwc/mss_sgmii.c ****      *
 515:../src/platform/mpfs_hal/common/nwc/mss_sgmii.c ****      *      DDRIO:  calib_reset: 1 -> 0
 516:../src/platform/mpfs_hal/common/nwc/mss_sgmii.c ****      *      mss_write(0x20007000 + 0x21C,0x00000004);
 517:../src/platform/mpfs_hal/common/nwc/mss_sgmii.c ****      *      DDRIO: calib_rst_b: 0 -> 1
 518:../src/platform/mpfs_hal/common/nwc/mss_sgmii.c ****      *      mss_write(0x20007000 + 0x220,0x00000000);
 519:../src/platform/mpfs_hal/common/nwc/mss_sgmii.c ****      *      SGMII: calib_rst_b: 0 -> 1
 520:../src/platform/mpfs_hal/common/nwc/mss_sgmii.c ****      *      mss_write(0x20007000 + 0xC1C,0x00000000);
 521:../src/platform/mpfs_hal/common/nwc/mss_sgmii.c ****      *
 522:../src/platform/mpfs_hal/common/nwc/mss_sgmii.c ****      */
 523:../src/platform/mpfs_hal/common/nwc/mss_sgmii.c ****     /*
 524:../src/platform/mpfs_hal/common/nwc/mss_sgmii.c ****      * Soft reset
 525:../src/platform/mpfs_hal/common/nwc/mss_sgmii.c ****      */
 526:../src/platform/mpfs_hal/common/nwc/mss_sgmii.c ****     /* PVT soft reset - APB*/
 527:../src/platform/mpfs_hal/common/nwc/mss_sgmii.c ****     /* DDRIO:  calib_reset: 1 -> 0, clk divider changed - from 2 - to 3 */
 528:../src/platform/mpfs_hal/common/nwc/mss_sgmii.c ****     CFG_DDR_SGMII_PHY->IOC_REG6.IOC_REG6               =    0x00000006U;
 529:../src/platform/mpfs_hal/common/nwc/mss_sgmii.c **** 
 530:../src/platform/mpfs_hal/common/nwc/mss_sgmii.c ****     /* PVT soft nv reset - SCB, should load from RPC */
 531:../src/platform/mpfs_hal/common/nwc/mss_sgmii.c ****     IOSCB_IO_CALIB_DDR->SOFT_RESET_IOCALIB       = 0x1U; /* make sure reset */
 532:../src/platform/mpfs_hal/common/nwc/mss_sgmii.c ****     IOSCB_IO_CALIB_DDR->SOFT_RESET_IOCALIB       = 0x0U; /* make sure reset */
 533:../src/platform/mpfs_hal/common/nwc/mss_sgmii.c **** 
 534:../src/platform/mpfs_hal/common/nwc/mss_sgmii.c ****     /*
 535:../src/platform/mpfs_hal/common/nwc/mss_sgmii.c ****      * R3.4 Wait for PVT calibration to complete
 536:../src/platform/mpfs_hal/common/nwc/mss_sgmii.c ****      * Check:
 537:../src/platform/mpfs_hal/common/nwc/mss_sgmii.c ****      * bit 2 sro_calib_status
 538:../src/platform/mpfs_hal/common/nwc/mss_sgmii.c ****      *
 539:../src/platform/mpfs_hal/common/nwc/mss_sgmii.c ****      * The G5 Memory controller needs to see that the IO calibration has
 540:../src/platform/mpfs_hal/common/nwc/mss_sgmii.c ****      * completed before kicking off DDR training.
 541:../src/platform/mpfs_hal/common/nwc/mss_sgmii.c ****      * It uses the calib_status signal as a flag for this.
 542:../src/platform/mpfs_hal/common/nwc/mss_sgmii.c ****      */
 543:../src/platform/mpfs_hal/common/nwc/mss_sgmii.c ****     timer_out=0U;
 544:../src/platform/mpfs_hal/common/nwc/mss_sgmii.c ****     #ifndef RENODE_DEBUG
 545:../src/platform/mpfs_hal/common/nwc/mss_sgmii.c ****     {
 546:../src/platform/mpfs_hal/common/nwc/mss_sgmii.c ****         /* PVT I/O - sro_calib_status -  wait for calibration to complete */
 547:../src/platform/mpfs_hal/common/nwc/mss_sgmii.c ****         while((IOSCB_IO_CALIB_DDR->IOC_REG1 & 0x00000004U) == 0U)
 548:../src/platform/mpfs_hal/common/nwc/mss_sgmii.c ****         {
 549:../src/platform/mpfs_hal/common/nwc/mss_sgmii.c ****             timer_out++;
 550:../src/platform/mpfs_hal/common/nwc/mss_sgmii.c ****         }
 551:../src/platform/mpfs_hal/common/nwc/mss_sgmii.c ****         /* PVT I/O - sro_calib_status -  wait for calibration to complete */
 552:../src/platform/mpfs_hal/common/nwc/mss_sgmii.c ****         while((CFG_DDR_SGMII_PHY->IOC_REG1.IOC_REG1 & 0x00000004U) == 0U)
 553:../src/platform/mpfs_hal/common/nwc/mss_sgmii.c ****         {
 554:../src/platform/mpfs_hal/common/nwc/mss_sgmii.c ****             timer_out++;
 555:../src/platform/mpfs_hal/common/nwc/mss_sgmii.c ****         }
 556:../src/platform/mpfs_hal/common/nwc/mss_sgmii.c ****     }
 557:../src/platform/mpfs_hal/common/nwc/mss_sgmii.c ****     #endif
 558:../src/platform/mpfs_hal/common/nwc/mss_sgmii.c ****     /*
 559:../src/platform/mpfs_hal/common/nwc/mss_sgmii.c ****      * now assert calib lock
 560:../src/platform/mpfs_hal/common/nwc/mss_sgmii.c ****      *
 561:../src/platform/mpfs_hal/common/nwc/mss_sgmii.c ****      * */
 562:../src/platform/mpfs_hal/common/nwc/mss_sgmii.c ****     {
 563:../src/platform/mpfs_hal/common/nwc/mss_sgmii.c ****         CFG_DDR_SGMII_PHY->IOC_REG0.IOC_REG0    &= ~(0x01U<<14U);
 564:../src/platform/mpfs_hal/common/nwc/mss_sgmii.c ****         IOSCB_IO_CALIB_DDR->IOC_REG0            &= ~(0x01U<<14U);
 565:../src/platform/mpfs_hal/common/nwc/mss_sgmii.c ****         CFG_DDR_SGMII_PHY->IOC_REG0.IOC_REG0    |= (0x01U<<14U);
 566:../src/platform/mpfs_hal/common/nwc/mss_sgmii.c ****         IOSCB_IO_CALIB_DDR->IOC_REG0            |= (0x01U<<14U);
 567:../src/platform/mpfs_hal/common/nwc/mss_sgmii.c ****     }
 568:../src/platform/mpfs_hal/common/nwc/mss_sgmii.c **** }
 569:../src/platform/mpfs_hal/common/nwc/mss_sgmii.c **** 
 570:../src/platform/mpfs_hal/common/nwc/mss_sgmii.c **** 
 571:../src/platform/mpfs_hal/common/nwc/mss_sgmii.c **** /**
 572:../src/platform/mpfs_hal/common/nwc/mss_sgmii.c ****  *
 573:../src/platform/mpfs_hal/common/nwc/mss_sgmii.c ****  */
 574:../src/platform/mpfs_hal/common/nwc/mss_sgmii.c **** void ddr_pvt_recalibration(void)
 575:../src/platform/mpfs_hal/common/nwc/mss_sgmii.c **** {
 576:../src/platform/mpfs_hal/common/nwc/mss_sgmii.c ****     volatile uint32_t timer_out=0U;
 577:../src/platform/mpfs_hal/common/nwc/mss_sgmii.c **** 
 578:../src/platform/mpfs_hal/common/nwc/mss_sgmii.c ****     /*
 579:../src/platform/mpfs_hal/common/nwc/mss_sgmii.c ****      * now assert calib start
 580:../src/platform/mpfs_hal/common/nwc/mss_sgmii.c ****      *
 581:../src/platform/mpfs_hal/common/nwc/mss_sgmii.c ****      * */
 582:../src/platform/mpfs_hal/common/nwc/mss_sgmii.c ****     {
 583:../src/platform/mpfs_hal/common/nwc/mss_sgmii.c ****         CFG_DDR_SGMII_PHY->IOC_REG0.IOC_REG0    &= ~(0x01U<<13U);
 584:../src/platform/mpfs_hal/common/nwc/mss_sgmii.c ****         IOSCB_IO_CALIB_DDR->IOC_REG0            &= ~(0x01U<<13U);
 585:../src/platform/mpfs_hal/common/nwc/mss_sgmii.c ****         CFG_DDR_SGMII_PHY->IOC_REG0.IOC_REG0    |= (0x01U<<13U);
 586:../src/platform/mpfs_hal/common/nwc/mss_sgmii.c ****         IOSCB_IO_CALIB_DDR->IOC_REG0            |= (0x01U<<13U);
 587:../src/platform/mpfs_hal/common/nwc/mss_sgmii.c ****     }
 588:../src/platform/mpfs_hal/common/nwc/mss_sgmii.c **** 
 589:../src/platform/mpfs_hal/common/nwc/mss_sgmii.c ****     /*
 590:../src/platform/mpfs_hal/common/nwc/mss_sgmii.c ****      * R3.4 Wait for PVT calibration to complete
 591:../src/platform/mpfs_hal/common/nwc/mss_sgmii.c ****      * Check:
 592:../src/platform/mpfs_hal/common/nwc/mss_sgmii.c ****      * bit 2 sro_calib_status
 593:../src/platform/mpfs_hal/common/nwc/mss_sgmii.c ****      *
 594:../src/platform/mpfs_hal/common/nwc/mss_sgmii.c ****      * The G5 Memory controller needs to see that the IO calibration has
 595:../src/platform/mpfs_hal/common/nwc/mss_sgmii.c ****      * completed before kicking off DDR training.
 596:../src/platform/mpfs_hal/common/nwc/mss_sgmii.c ****      * It uses the calib_status signal as a flag for this.
 597:../src/platform/mpfs_hal/common/nwc/mss_sgmii.c ****      */
 598:../src/platform/mpfs_hal/common/nwc/mss_sgmii.c ****     timer_out=0U;
 599:../src/platform/mpfs_hal/common/nwc/mss_sgmii.c ****     #ifndef RENODE_DEBUG
 600:../src/platform/mpfs_hal/common/nwc/mss_sgmii.c ****     {
 601:../src/platform/mpfs_hal/common/nwc/mss_sgmii.c ****         /* PVT I/O - sro_calib_status -  wait for calibration to complete */
 602:../src/platform/mpfs_hal/common/nwc/mss_sgmii.c ****         while((IOSCB_IO_CALIB_DDR->IOC_REG1 & 0x00000004U) == 0U)
 603:../src/platform/mpfs_hal/common/nwc/mss_sgmii.c ****         {
 604:../src/platform/mpfs_hal/common/nwc/mss_sgmii.c ****             timer_out++;
 605:../src/platform/mpfs_hal/common/nwc/mss_sgmii.c ****         }
 606:../src/platform/mpfs_hal/common/nwc/mss_sgmii.c ****         /* PVT I/O - sro_calib_status -  wait for calibration to complete */
 607:../src/platform/mpfs_hal/common/nwc/mss_sgmii.c ****         while((CFG_DDR_SGMII_PHY->IOC_REG1.IOC_REG1 & 0x00000004U) == 0U)
 608:../src/platform/mpfs_hal/common/nwc/mss_sgmii.c ****         {
 609:../src/platform/mpfs_hal/common/nwc/mss_sgmii.c ****             timer_out++;
 610:../src/platform/mpfs_hal/common/nwc/mss_sgmii.c ****         }
 611:../src/platform/mpfs_hal/common/nwc/mss_sgmii.c ****     }
 612:../src/platform/mpfs_hal/common/nwc/mss_sgmii.c ****     #endif
 613:../src/platform/mpfs_hal/common/nwc/mss_sgmii.c ****     /*
 614:../src/platform/mpfs_hal/common/nwc/mss_sgmii.c ****      * now assert calib lock
 615:../src/platform/mpfs_hal/common/nwc/mss_sgmii.c ****      *
 616:../src/platform/mpfs_hal/common/nwc/mss_sgmii.c ****      * */
 617:../src/platform/mpfs_hal/common/nwc/mss_sgmii.c ****     {
 618:../src/platform/mpfs_hal/common/nwc/mss_sgmii.c **** #if 0   /*
 619:../src/platform/mpfs_hal/common/nwc/mss_sgmii.c ****          * fixme: this appears to cause wite calibration to fail, investigating
 620:../src/platform/mpfs_hal/common/nwc/mss_sgmii.c ****          */
 621:../src/platform/mpfs_hal/common/nwc/mss_sgmii.c ****         CFG_DDR_SGMII_PHY->IOC_REG0.IOC_REG0    &= ~(0x01U<<14U);
 622:../src/platform/mpfs_hal/common/nwc/mss_sgmii.c ****         IOSCB_IO_CALIB_DDR->IOC_REG0            &= ~(0x01U<<14U);
 623:../src/platform/mpfs_hal/common/nwc/mss_sgmii.c ****         CFG_DDR_SGMII_PHY->IOC_REG0.IOC_REG0    |= (0x01U<<14U);
 624:../src/platform/mpfs_hal/common/nwc/mss_sgmii.c ****         IOSCB_IO_CALIB_DDR->IOC_REG0            |= (0x01U<<14U);
 625:../src/platform/mpfs_hal/common/nwc/mss_sgmii.c **** #endif
 626:../src/platform/mpfs_hal/common/nwc/mss_sgmii.c ****     }
 627:../src/platform/mpfs_hal/common/nwc/mss_sgmii.c **** }
 628:../src/platform/mpfs_hal/common/nwc/mss_sgmii.c **** 
 629:../src/platform/mpfs_hal/common/nwc/mss_sgmii.c **** /**
 630:../src/platform/mpfs_hal/common/nwc/mss_sgmii.c ****  * Set eye thresholds
 631:../src/platform/mpfs_hal/common/nwc/mss_sgmii.c ****  * @param n_late_threshold
 632:../src/platform/mpfs_hal/common/nwc/mss_sgmii.c ****  * @param p_early_threshold
 633:../src/platform/mpfs_hal/common/nwc/mss_sgmii.c ****  */
 634:../src/platform/mpfs_hal/common/nwc/mss_sgmii.c **** static void set_early_late_thresholds(uint8_t n_late_threshold, uint8_t p_early_threshold)
 635:../src/platform/mpfs_hal/common/nwc/mss_sgmii.c **** {
 636:../src/platform/mpfs_hal/common/nwc/mss_sgmii.c ****     uint32_t n_eye_values;
 637:../src/platform/mpfs_hal/common/nwc/mss_sgmii.c ****     uint32_t p_eye_value;
 638:../src/platform/mpfs_hal/common/nwc/mss_sgmii.c **** 
 639:../src/platform/mpfs_hal/common/nwc/mss_sgmii.c ****     /*
 640:../src/platform/mpfs_hal/common/nwc/mss_sgmii.c ****      * Set the N eye width value
 641:../src/platform/mpfs_hal/common/nwc/mss_sgmii.c ****      * bits 31:29 for CH1, bits 28:26  for CH0 in spare control (N eye width value)
 642:../src/platform/mpfs_hal/common/nwc/mss_sgmii.c ****      */
 643:../src/platform/mpfs_hal/common/nwc/mss_sgmii.c ****     n_eye_values = (uint32_t)(n_late_threshold << SHIFT_TO_CH0_N_EYE_VALUE);
 644:../src/platform/mpfs_hal/common/nwc/mss_sgmii.c ****     n_eye_values |= (uint32_t)(n_late_threshold << SHIFT_TO_CH1_N_EYE_VALUE);
 645:../src/platform/mpfs_hal/common/nwc/mss_sgmii.c **** 
 646:../src/platform/mpfs_hal/common/nwc/mss_sgmii.c ****     CFG_DDR_SGMII_PHY->SPARE_CNTL.SPARE_CNTL    = (LIBERO_SETTING_SPARE_CNTL & N_EYE_MASK) | n_eye_
 647:../src/platform/mpfs_hal/common/nwc/mss_sgmii.c **** 
 648:../src/platform/mpfs_hal/common/nwc/mss_sgmii.c ****     /*
 649:../src/platform/mpfs_hal/common/nwc/mss_sgmii.c ****      * Set P values
 650:../src/platform/mpfs_hal/common/nwc/mss_sgmii.c ****      */
 651:../src/platform/mpfs_hal/common/nwc/mss_sgmii.c ****     p_eye_value = (uint32_t)(p_early_threshold << SHIFT_TO_REG_RX0_EYEWIDTH);
 652:../src/platform/mpfs_hal/common/nwc/mss_sgmii.c ****     CFG_DDR_SGMII_PHY->CH0_CNTL.CH0_CNTL        = ((LIBERO_SETTING_CH0_CNTL & REG_RX0_EYEWIDTH_P_MA
  86              		.loc 1 652 49
  87 000c B774D0B7 		li	s1,-1211076608
  88              	.LBE15:
  89              	.LBE14:
 379:../src/platform/mpfs_hal/common/nwc/mss_sgmii.c ****                 CFG_DDR_SGMII_PHY->DYN_CNTL.DYN_CNTL  = (0U << 14U)|(0U << 13U)|(0x7FU<<0U);
  90              		.loc 1 379 55
  91 0010 1969     		li	s2,24576
  92              	.LBB18:
  93              	.LBB19:
  94              		.loc 1 652 49
  95 0012 B779B0B7 		li	s3,-1213173760
  96              	.LBE19:
  97              	.LBE18:
  98              	.LBE13:
  99              	.LBE12:
  51:../src/platform/mpfs_hal/common/nwc/mss_sgmii.c **** #ifdef SGMII_SUPPORT
 100              		.loc 1 51 1
 101 0016 52E8     		sd	s4,16(sp)
 102 0018 06FC     		sd	ra,56(sp)
 103 001a 56E4     		sd	s5,8(sp)
 104              		.cfi_offset 20, -48
 105              		.cfi_offset 1, -8
 106              		.cfi_offset 21, -56
 107              	.LBB33:
 108              	.LBB30:
 109              	.LBB22:
 110              	.LBB16:
 111              		.loc 1 652 49
 112 001c 93840477 		addi	s1,s1,1904
 113              	.LBE16:
 114              	.LBE22:
 379:../src/platform/mpfs_hal/common/nwc/mss_sgmii.c ****                 CFG_DDR_SGMII_PHY->DYN_CNTL.DYN_CNTL  = (0U << 14U)|(0U << 13U)|(0x7FU<<0U);
 115              		.loc 1 379 55
 116 0020 1309F907 		addi	s2,s2,127
 359:../src/platform/mpfs_hal/common/nwc/mss_sgmii.c ****             {
 117              		.loc 1 359 15
 118 0024 130AE4FF 		addi	s4,s0,-2
 119              	.LBB23:
 120              	.LBB20:
 121              		.loc 1 652 49
 122 0028 93890977 		addi	s3,s3,1904
 123              	.L28:
 124              	.LBE20:
 125              	.LBE23:
 126              	.LBE30:
 127              	.LBE33:
  61:../src/platform/mpfs_hal/common/nwc/mss_sgmii.c ****     }
 128              		.loc 1 61 9 is_stmt 1 discriminator 1
 129              	.LBB34:
 130              	.LBB31:
  86:../src/platform/mpfs_hal/common/nwc/mss_sgmii.c ****     static uint32_t status = SGMII_IN_SETUP;
 131              		.loc 1 86 5 discriminator 1
  87:../src/platform/mpfs_hal/common/nwc/mss_sgmii.c ****     static uint32_t timer_out;
 132              		.loc 1 87 5 discriminator 1
  88:../src/platform/mpfs_hal/common/nwc/mss_sgmii.c **** 
 133              		.loc 1 88 5 discriminator 1
  98:../src/platform/mpfs_hal/common/nwc/mss_sgmii.c ****     {
 134              		.loc 1 98 5 discriminator 1
 135 002c 97070000 		lla	a5,.LANCHOR0
 135      93870700 
 136 0034 9843     		lw	a4,0(a5)
 137 0036 B947     		li	a5,14
 138 0038 63ECE704 		bgtu	a4,a5,.L3
 139 003c 97070000 		lwu	a5,.LANCHOR0
 139      83E70700 
 140 0044 17070000 		lla	a4,.L5
 140      13070700 
 141 004c 8A07     		slli	a5,a5,2
 142 004e BA97     		add	a5,a5,a4
 143 0050 9C43     		lw	a5,0(a5)
 144 0052 BA97     		add	a5,a5,a4
 145 0054 8287     		jr	a5
 146              		.section	.rodata.sgmii_setup,"a",@progbits
 147              		.align	2
 148              		.align	2
 149              	.L5:
 150 0000 00000000 		.word	.L19-.L5
 151 0004 00000000 		.word	.L18-.L5
 152 0008 00000000 		.word	.L17-.L5
 153 000c 00000000 		.word	.L16-.L5
 154 0010 00000000 		.word	.L15-.L5
 155 0014 00000000 		.word	.L14-.L5
 156 0018 00000000 		.word	.L13-.L5
 157 001c 00000000 		.word	.L12-.L5
 158 0020 00000000 		.word	.L11-.L5
 159 0024 00000000 		.word	.L10-.L5
 160 0028 00000000 		.word	.L9-.L5
 161 002c 00000000 		.word	.L8-.L5
 162 0030 00000000 		.word	.L7-.L5
 163 0034 00000000 		.word	.L6-.L5
 164 0038 00000000 		.word	.L4-.L5
 165              		.section	.text.sgmii_setup
 166              	.L19:
 101:../src/platform/mpfs_hal/common/nwc/mss_sgmii.c ****             CFG_DDR_SGMII_PHY->SOFT_RESET_SGMII.SOFT_RESET_SGMII = \
 167              		.loc 1 101 13
 101:../src/platform/mpfs_hal/common/nwc/mss_sgmii.c ****             CFG_DDR_SGMII_PHY->SOFT_RESET_SGMII.SOFT_RESET_SGMII = \
 168              		.loc 1 101 20 is_stmt 0
 169 0056 854A     		li	s5,1
 170 0058 97070000 		sw	s5,.LANCHOR1,a5
 170      23A05701 
 102:../src/platform/mpfs_hal/common/nwc/mss_sgmii.c ****                     (0x01 << 8U) | 1U; /* PERIPH   soft reset */
 171              		.loc 1 102 13 is_stmt 1
 102:../src/platform/mpfs_hal/common/nwc/mss_sgmii.c ****                     (0x01 << 8U) | 1U; /* PERIPH   soft reset */
 172              		.loc 1 102 30 is_stmt 0
 173 0060 97070000 		lla	a5,CFG_DDR_SGMII_PHY
 173      93870700 
 174 0068 9C63     		ld	a5,0(a5)
 102:../src/platform/mpfs_hal/common/nwc/mss_sgmii.c ****                     (0x01 << 8U) | 1U; /* PERIPH   soft reset */
 175              		.loc 1 102 66
 176 006a 13071010 		li	a4,257
 177 006e A297     		add	a5,a5,s0
 178 0070 23A0E7C0 		sw	a4,-1024(a5)
 104:../src/platform/mpfs_hal/common/nwc/mss_sgmii.c ****             setup_sgmii_rpc_per_config();         /* load RPC SGMII_MODE register ext */
 179              		.loc 1 104 13 is_stmt 1
 104:../src/platform/mpfs_hal/common/nwc/mss_sgmii.c ****             setup_sgmii_rpc_per_config();         /* load RPC SGMII_MODE register ext */
 180              		.loc 1 104 66 is_stmt 0
 181 0074 23A057C1 		sw	s5,-1024(a5)
 105:../src/platform/mpfs_hal/common/nwc/mss_sgmii.c **** 
 182              		.loc 1 105 13 is_stmt 1
 183 0078 97000000 		call	setup_sgmii_rpc_per_config
 183      E7800000 
 184              	.LVL0:
 112:../src/platform/mpfs_hal/common/nwc/mss_sgmii.c ****             sgmii_training_state = SGMII_IO_EN;
 185              		.loc 1 112 13
 112:../src/platform/mpfs_hal/common/nwc/mss_sgmii.c ****             sgmii_training_state = SGMII_IO_EN;
 186              		.loc 1 112 47 is_stmt 0
 187 0080 B707403E 		li	a5,1044381696
 188 0084 23A05701 		sw	s5,0(a5)
 113:../src/platform/mpfs_hal/common/nwc/mss_sgmii.c ****             break;
 189              		.loc 1 113 13 is_stmt 1
 113:../src/platform/mpfs_hal/common/nwc/mss_sgmii.c ****             break;
 190              		.loc 1 113 34 is_stmt 0
 191 0088 97070000 		sw	s5,.LANCHOR0,a5
 191      23A05701 
 114:../src/platform/mpfs_hal/common/nwc/mss_sgmii.c **** 
 192              		.loc 1 114 13 is_stmt 1
 193              	.L3:
 399:../src/platform/mpfs_hal/common/nwc/mss_sgmii.c **** }
 194              		.loc 1 399 5
 195              	.LBE31:
 196              	.LBE34:
  58:../src/platform/mpfs_hal/common/nwc/mss_sgmii.c ****         {
 197              		.loc 1 58 15 is_stmt 0
 198 0090 97070000 		lla	a5,.LANCHOR1
 198      93870700 
 199 0098 9C43     		lw	a5,0(a5)
 200 009a C9FB     		bne	a5,zero,.L28
  74:../src/platform/mpfs_hal/common/nwc/mss_sgmii.c **** }
 201              		.loc 1 74 5 is_stmt 1
  75:../src/platform/mpfs_hal/common/nwc/mss_sgmii.c **** 
 202              		.loc 1 75 1 is_stmt 0
 203 009c E270     		ld	ra,56(sp)
 204              		.cfi_remember_state
 205              		.cfi_restore 1
 206 009e 4274     		ld	s0,48(sp)
 207              		.cfi_restore 8
 208 00a0 A274     		ld	s1,40(sp)
 209              		.cfi_restore 9
 210 00a2 0279     		ld	s2,32(sp)
 211              		.cfi_restore 18
 212 00a4 E269     		ld	s3,24(sp)
 213              		.cfi_restore 19
 214 00a6 426A     		ld	s4,16(sp)
 215              		.cfi_restore 20
 216 00a8 A26A     		ld	s5,8(sp)
 217              		.cfi_restore 21
 218 00aa 0145     		li	a0,0
 219 00ac 2161     		addi	sp,sp,64
 220              		.cfi_def_cfa_offset 0
 221 00ae 8280     		jr	ra
 222              	.L18:
 223              		.cfi_restore_state
 224              	.LBB35:
 225              	.LBB32:
 123:../src/platform/mpfs_hal/common/nwc/mss_sgmii.c ****             if((CFG_DDR_SGMII_PHY->PVT_STAT.PVT_STAT & (0x01U<<6U)) != 0U)
 226              		.loc 1 123 13 is_stmt 1
 123:../src/platform/mpfs_hal/common/nwc/mss_sgmii.c ****             if((CFG_DDR_SGMII_PHY->PVT_STAT.PVT_STAT & (0x01U<<6U)) != 0U)
 227              		.loc 1 123 22 is_stmt 0
 228 00b0 97070000 		lla	a5,.LANCHOR2
 228      93870700 
 229 00b8 9C43     		lw	a5,0(a5)
 230 00ba 8527     		addiw	a5,a5,1
 231 00bc 17070000 		sw	a5,.LANCHOR2,a4
 231      2320F700 
 124:../src/platform/mpfs_hal/common/nwc/mss_sgmii.c ****             {
 232              		.loc 1 124 13 is_stmt 1
 124:../src/platform/mpfs_hal/common/nwc/mss_sgmii.c ****             {
 233              		.loc 1 124 34 is_stmt 0
 234 00c4 97070000 		lla	a5,CFG_DDR_SGMII_PHY
 234      93870700 
 235 00cc 9C63     		ld	a5,0(a5)
 124:../src/platform/mpfs_hal/common/nwc/mss_sgmii.c ****             {
 236              		.loc 1 124 44
 237 00ce A297     		add	a5,a5,s0
 238 00d0 83A707C2 		lw	a5,-992(a5)
 124:../src/platform/mpfs_hal/common/nwc/mss_sgmii.c ****             {
 239              		.loc 1 124 54
 240 00d4 93F70704 		andi	a5,a5,64
 124:../src/platform/mpfs_hal/common/nwc/mss_sgmii.c ****             {
 241              		.loc 1 124 15
 242 00d8 C5DF     		beq	a5,zero,.L3
 126:../src/platform/mpfs_hal/common/nwc/mss_sgmii.c ****                 sgmii_training_state = SGMII_RAMP_TIMER;
 243              		.loc 1 126 17 is_stmt 1
 126:../src/platform/mpfs_hal/common/nwc/mss_sgmii.c ****                 sgmii_training_state = SGMII_RAMP_TIMER;
 244              		.loc 1 126 26 is_stmt 0
 245 00da 97070000 		sw	zero,.LANCHOR2,a5
 245      23A00700 
 127:../src/platform/mpfs_hal/common/nwc/mss_sgmii.c ****             }
 246              		.loc 1 127 17 is_stmt 1
 127:../src/platform/mpfs_hal/common/nwc/mss_sgmii.c ****             }
 247              		.loc 1 127 38 is_stmt 0
 248 00e2 8947     		li	a5,2
 249              	.L41:
 349:../src/platform/mpfs_hal/common/nwc/mss_sgmii.c ****             }
 250              		.loc 1 349 38
 251 00e4 17070000 		sw	a5,.LANCHOR0,a4
 251      2320F700 
 252 00ec 55B7     		j	.L3
 253              	.L17:
 141:../src/platform/mpfs_hal/common/nwc/mss_sgmii.c ****             if(timer_out >= 0xFU)
 254              		.loc 1 141 13 is_stmt 1
 141:../src/platform/mpfs_hal/common/nwc/mss_sgmii.c ****             if(timer_out >= 0xFU)
 255              		.loc 1 141 22 is_stmt 0
 256 00ee 97070000 		lla	a5,.LANCHOR2
 256      93870700 
 257 00f6 9C43     		lw	a5,0(a5)
 142:../src/platform/mpfs_hal/common/nwc/mss_sgmii.c ****             {
 258              		.loc 1 142 15
 259 00f8 3947     		li	a4,14
 141:../src/platform/mpfs_hal/common/nwc/mss_sgmii.c ****             if(timer_out >= 0xFU)
 260              		.loc 1 141 22
 261 00fa 9B861700 		addiw	a3,a5,1
 262 00fe B687     		mv	a5,a3
 142:../src/platform/mpfs_hal/common/nwc/mss_sgmii.c ****             {
 263              		.loc 1 142 13 is_stmt 1
 142:../src/platform/mpfs_hal/common/nwc/mss_sgmii.c ****             {
 264              		.loc 1 142 15 is_stmt 0
 265 0100 6367D700 		bgtu	a3,a4,.L21
 266              	.L42:
 358:../src/platform/mpfs_hal/common/nwc/mss_sgmii.c ****             if(timer_out >= 0xFFFU)
 267              		.loc 1 358 22
 268 0104 17070000 		sw	a5,.LANCHOR2,a4
 268      2320F700 
 269 010c 51B7     		j	.L3
 270              	.L21:
 144:../src/platform/mpfs_hal/common/nwc/mss_sgmii.c ****                 sgmii_training_state = SGMII_IO_SETUP;
 271              		.loc 1 144 17 is_stmt 1
 144:../src/platform/mpfs_hal/common/nwc/mss_sgmii.c ****                 sgmii_training_state = SGMII_IO_SETUP;
 272              		.loc 1 144 26 is_stmt 0
 273 010e 97070000 		sw	zero,.LANCHOR2,a5
 273      23A00700 
 145:../src/platform/mpfs_hal/common/nwc/mss_sgmii.c ****             }
 274              		.loc 1 145 17 is_stmt 1
 145:../src/platform/mpfs_hal/common/nwc/mss_sgmii.c ****             }
 275              		.loc 1 145 38 is_stmt 0
 276 0116 8D47     		li	a5,3
 277 0118 F1B7     		j	.L41
 278              	.L16:
 164:../src/platform/mpfs_hal/common/nwc/mss_sgmii.c **** 
 279              		.loc 1 164 13 is_stmt 1
 164:../src/platform/mpfs_hal/common/nwc/mss_sgmii.c **** 
 280              		.loc 1 164 21 is_stmt 0
 281 011a 97070000 		lla	a5,SCB_REGS
 281      93870700 
 282 0122 9C63     		ld	a5,0(a5)
 181:../src/platform/mpfs_hal/common/nwc/mss_sgmii.c **** 
 283              		.loc 1 181 41
 284 0124 3707103E 		li	a4,1041235968
 214:../src/platform/mpfs_hal/common/nwc/mss_sgmii.c ****                 /* reg_pvt_soft_reset_periph  */
 285              		.loc 1 214 61
 286 0128 9306F047 		li	a3,1151
 164:../src/platform/mpfs_hal/common/nwc/mss_sgmii.c **** 
 287              		.loc 1 164 49
 288 012c 23A00710 		sw	zero,256(a5)
 181:../src/platform/mpfs_hal/common/nwc/mss_sgmii.c **** 
 289              		.loc 1 181 13 is_stmt 1
 181:../src/platform/mpfs_hal/common/nwc/mss_sgmii.c **** 
 290              		.loc 1 181 41 is_stmt 0
 291 0130 8547     		li	a5,1
 292 0132 1CC3     		sw	a5,0(a4)
 200:../src/platform/mpfs_hal/common/nwc/mss_sgmii.c ****                 /* sgmiiphy_lane 23 soft-reset register (0x3650_0000) */
 293              		.loc 1 200 17 is_stmt 1
 200:../src/platform/mpfs_hal/common/nwc/mss_sgmii.c ****                 /* sgmiiphy_lane 23 soft-reset register (0x3650_0000) */
 294              		.loc 1 200 45 is_stmt 0
 295 0134 37075036 		li	a4,911212544
 296 0138 1CC3     		sw	a5,0(a4)
 202:../src/platform/mpfs_hal/common/nwc/mss_sgmii.c ****             }
 297              		.loc 1 202 17 is_stmt 1
 202:../src/platform/mpfs_hal/common/nwc/mss_sgmii.c ****             }
 298              		.loc 1 202 45 is_stmt 0
 299 013a 37075136 		li	a4,911278080
 300 013e 1CC3     		sw	a5,0(a4)
 214:../src/platform/mpfs_hal/common/nwc/mss_sgmii.c ****                 /* reg_pvt_soft_reset_periph  */
 301              		.loc 1 214 17 is_stmt 1
 214:../src/platform/mpfs_hal/common/nwc/mss_sgmii.c ****                 /* reg_pvt_soft_reset_periph  */
 302              		.loc 1 214 34 is_stmt 0
 303 0140 17070000 		lla	a4,CFG_DDR_SGMII_PHY
 303      13070700 
 304 0148 1863     		ld	a4,0(a4)
 214:../src/platform/mpfs_hal/common/nwc/mss_sgmii.c ****                 /* reg_pvt_soft_reset_periph  */
 305              		.loc 1 214 61
 306 014a 2297     		add	a4,a4,s0
 307 014c 232ED7C0 		sw	a3,-996(a4)
 216:../src/platform/mpfs_hal/common/nwc/mss_sgmii.c ****                 /* PVT soft reset - SCB */
 308              		.loc 1 216 17 is_stmt 1
 216:../src/platform/mpfs_hal/common/nwc/mss_sgmii.c ****                 /* PVT soft reset - SCB */
 309              		.loc 1 216 61 is_stmt 0
 310 0150 9306F007 		li	a3,127
 311 0154 232ED7C0 		sw	a3,-996(a4)
 219:../src/platform/mpfs_hal/common/nwc/mss_sgmii.c ****                 /* make sure out of reset */
 312              		.loc 1 219 17 is_stmt 1
 219:../src/platform/mpfs_hal/common/nwc/mss_sgmii.c ****                 /* make sure out of reset */
 313              		.loc 1 219 37 is_stmt 0
 314 0158 17070000 		lla	a4,IOSCB_IO_CALIB_SGMII
 314      13070700 
 315 0160 1863     		ld	a4,0(a4)
 219:../src/platform/mpfs_hal/common/nwc/mss_sgmii.c ****                 /* make sure out of reset */
 316              		.loc 1 219 61
 317 0162 1CC3     		sw	a5,0(a4)
 221:../src/platform/mpfs_hal/common/nwc/mss_sgmii.c ****             }
 318              		.loc 1 221 17 is_stmt 1
 221:../src/platform/mpfs_hal/common/nwc/mss_sgmii.c ****             }
 319              		.loc 1 221 61 is_stmt 0
 320 0164 23200700 		sw	zero,0(a4)
 223:../src/platform/mpfs_hal/common/nwc/mss_sgmii.c ****             break;
 321              		.loc 1 223 13 is_stmt 1
 223:../src/platform/mpfs_hal/common/nwc/mss_sgmii.c ****             break;
 322              		.loc 1 223 34 is_stmt 0
 323 0168 9147     		li	a5,4
 324 016a ADBF     		j	.L41
 325              	.L15:
 238:../src/platform/mpfs_hal/common/nwc/mss_sgmii.c ****             {
 326              		.loc 1 238 13 is_stmt 1
 238:../src/platform/mpfs_hal/common/nwc/mss_sgmii.c ****             {
 327              		.loc 1 238 34 is_stmt 0
 328 016c 97070000 		lla	a5,CFG_DDR_SGMII_PHY
 328      93870700 
 329 0174 9C63     		ld	a5,0(a5)
 238:../src/platform/mpfs_hal/common/nwc/mss_sgmii.c ****             {
 330              		.loc 1 238 44
 331 0176 A297     		add	a5,a5,s0
 332 0178 83A707C2 		lw	a5,-992(a5)
 238:../src/platform/mpfs_hal/common/nwc/mss_sgmii.c ****             {
 333              		.loc 1 238 15
 334 017c 13971703 		slli	a4,a5,49
 240:../src/platform/mpfs_hal/common/nwc/mss_sgmii.c ****             }
 335              		.loc 1 240 38
 336 0180 9547     		li	a5,5
 238:../src/platform/mpfs_hal/common/nwc/mss_sgmii.c ****             {
 337              		.loc 1 238 15
 338 0182 E34107F6 		blt	a4,zero,.L41
 339 0186 29B7     		j	.L3
 340              	.L14:
 250:../src/platform/mpfs_hal/common/nwc/mss_sgmii.c ****             IOSCB_IO_CALIB_SGMII->IOC_REG0       |= (0x01U<<14U);
 341              		.loc 1 250 13 is_stmt 1
 250:../src/platform/mpfs_hal/common/nwc/mss_sgmii.c ****             IOSCB_IO_CALIB_SGMII->IOC_REG0       |= (0x01U<<14U);
 342              		.loc 1 250 50 is_stmt 0
 343 0188 97070000 		lla	a5,CFG_DDR_SGMII_PHY
 343      93870700 
 344 0190 9863     		ld	a4,0(a5)
 345 0192 B7060040 		li	a3,1073741824
 346 0196 2297     		add	a4,a4,s0
 347 0198 832707C2 		lw	a5,-992(a4)
 348 019c 8127     		sext.w	a5,a5
 349 019e D58F     		or	a5,a5,a3
 350 01a0 2320F7C2 		sw	a5,-992(a4)
 251:../src/platform/mpfs_hal/common/nwc/mss_sgmii.c ****             sgmii_training_state = SGMII_SET_UP_PLL;
 351              		.loc 1 251 13 is_stmt 1
 251:../src/platform/mpfs_hal/common/nwc/mss_sgmii.c ****             sgmii_training_state = SGMII_SET_UP_PLL;
 352              		.loc 1 251 50 is_stmt 0
 353 01a4 97070000 		lla	a5,IOSCB_IO_CALIB_SGMII
 353      93870700 
 354 01ac 9863     		ld	a4,0(a5)
 355 01ae 9166     		li	a3,16384
 356 01b0 5C43     		lw	a5,4(a4)
 357 01b2 8127     		sext.w	a5,a5
 358 01b4 D58F     		or	a5,a5,a3
 359 01b6 5CC3     		sw	a5,4(a4)
 252:../src/platform/mpfs_hal/common/nwc/mss_sgmii.c ****             break;
 360              		.loc 1 252 13 is_stmt 1
 252:../src/platform/mpfs_hal/common/nwc/mss_sgmii.c ****             break;
 361              		.loc 1 252 34 is_stmt 0
 362 01b8 9947     		li	a5,6
 363 01ba 2DB7     		j	.L41
 364              	.L13:
 262:../src/platform/mpfs_hal/common/nwc/mss_sgmii.c ****             /* 0U => configure using scb, 1U => NVMAP reset */
 365              		.loc 1 262 13 is_stmt 1
 366 01bc 0545     		li	a0,1
 367 01be 97000000 		call	sgmii_mux_config
 367      E7800000 
 368              	.LVL1:
 264:../src/platform/mpfs_hal/common/nwc/mss_sgmii.c **** 
 369              		.loc 1 264 13
 370 01c6 0545     		li	a0,1
 371 01c8 97000000 		call	sgmii_pll_config_scb
 371      E7800000 
 372              	.LVL2:
 266:../src/platform/mpfs_hal/common/nwc/mss_sgmii.c ****             sgmii_training_state = SGMII_WAIT_FOR_MSS_LOCK;
 373              		.loc 1 266 13
 266:../src/platform/mpfs_hal/common/nwc/mss_sgmii.c ****             sgmii_training_state = SGMII_WAIT_FOR_MSS_LOCK;
 374              		.loc 1 266 22 is_stmt 0
 375 01d0 97070000 		sw	zero,.LANCHOR2,a5
 375      23A00700 
 267:../src/platform/mpfs_hal/common/nwc/mss_sgmii.c ****             break;
 376              		.loc 1 267 13 is_stmt 1
 267:../src/platform/mpfs_hal/common/nwc/mss_sgmii.c ****             break;
 377              		.loc 1 267 34 is_stmt 0
 378 01d8 9D47     		li	a5,7
 379 01da 29B7     		j	.L41
 380              	.L12:
 271:../src/platform/mpfs_hal/common/nwc/mss_sgmii.c ****             {
 381              		.loc 1 271 13 is_stmt 1
 271:../src/platform/mpfs_hal/common/nwc/mss_sgmii.c ****             {
 382              		.loc 1 271 34 is_stmt 0
 383 01dc 97070000 		lla	a5,CFG_DDR_SGMII_PHY
 383      93870700 
 384 01e4 9C63     		ld	a5,0(a5)
 271:../src/platform/mpfs_hal/common/nwc/mss_sgmii.c ****             {
 385              		.loc 1 271 44
 386 01e6 A297     		add	a5,a5,s0
 387 01e8 83A787C0 		lw	a5,-1016(a5)
 271:../src/platform/mpfs_hal/common/nwc/mss_sgmii.c ****             {
 388              		.loc 1 271 54
 389 01ec 93F70708 		andi	a5,a5,128
 271:../src/platform/mpfs_hal/common/nwc/mss_sgmii.c ****             {
 390              		.loc 1 271 16
 391 01f0 E38007EA 		beq	a5,zero,.L3
 273:../src/platform/mpfs_hal/common/nwc/mss_sgmii.c ****             }
 392              		.loc 1 273 17 is_stmt 1
 273:../src/platform/mpfs_hal/common/nwc/mss_sgmii.c ****             }
 393              		.loc 1 273 38 is_stmt 0
 394 01f4 A147     		li	a5,8
 395 01f6 FDB5     		j	.L41
 396              	.L11:
 278:../src/platform/mpfs_hal/common/nwc/mss_sgmii.c ****             {
 397              		.loc 1 278 13 is_stmt 1
 278:../src/platform/mpfs_hal/common/nwc/mss_sgmii.c ****             {
 398              		.loc 1 278 34 is_stmt 0
 399 01f8 97070000 		lla	a5,CFG_DDR_SGMII_PHY
 399      93870700 
 400 0200 9C63     		ld	a5,0(a5)
 278:../src/platform/mpfs_hal/common/nwc/mss_sgmii.c ****             {
 401              		.loc 1 278 46
 402 0202 A297     		add	a5,a5,s0
 403 0204 83A747C1 		lw	a5,-1004(a5)
 278:../src/platform/mpfs_hal/common/nwc/mss_sgmii.c ****             {
 404              		.loc 1 278 16
 405 0208 13978702 		slli	a4,a5,40
 280:../src/platform/mpfs_hal/common/nwc/mss_sgmii.c ****             }
 406              		.loc 1 280 38
 407 020c A547     		li	a5,9
 278:../src/platform/mpfs_hal/common/nwc/mss_sgmii.c ****             {
 408              		.loc 1 278 16
 409 020e E34B07EC 		blt	a4,zero,.L41
 410 0212 BDBD     		j	.L3
 411              	.L10:
 294:../src/platform/mpfs_hal/common/nwc/mss_sgmii.c ****             (void)mss_config_clk_rst(MSS_PERIPH_MAC0, (uint8_t) MPFS_HAL_FIRST_HART, PERIPHERAL_ON)
 412              		.loc 1 294 13 is_stmt 1
 294:../src/platform/mpfs_hal/common/nwc/mss_sgmii.c ****             (void)mss_config_clk_rst(MSS_PERIPH_MAC0, (uint8_t) MPFS_HAL_FIRST_HART, PERIPHERAL_ON)
 413              		.loc 1 294 19 is_stmt 0
 414 0214 0146     		li	a2,0
 415 0216 8145     		li	a1,0
 416 0218 4145     		li	a0,16
 417 021a 97000000 		call	mss_config_clk_rst
 417      E7800000 
 418              	.LVL3:
 295:../src/platform/mpfs_hal/common/nwc/mss_sgmii.c ****             GEM_A_LO->network_config |= (0x01U << 10U) | (0x01U << 11U);   /* GEM0 */
 419              		.loc 1 295 13 is_stmt 1
 295:../src/platform/mpfs_hal/common/nwc/mss_sgmii.c ****             GEM_A_LO->network_config |= (0x01U << 10U) | (0x01U << 11U);   /* GEM0 */
 420              		.loc 1 295 19 is_stmt 0
 421 0222 0146     		li	a2,0
 422 0224 8145     		li	a1,0
 423 0226 4145     		li	a0,16
 424 0228 97000000 		call	mss_config_clk_rst
 424      E7800000 
 425              	.LVL4:
 296:../src/platform/mpfs_hal/common/nwc/mss_sgmii.c ****             GEM_B_LO->network_config |= (0x01U << 10U) | (0x01U << 11U);   /* GEM1 */
 426              		.loc 1 296 13 is_stmt 1
 296:../src/platform/mpfs_hal/common/nwc/mss_sgmii.c ****             GEM_B_LO->network_config |= (0x01U << 10U) | (0x01U << 11U);   /* GEM1 */
 427              		.loc 1 296 38 is_stmt 0
 428 0230 B7061120 		li	a3,537985024
 429 0234 9846     		lw	a4,8(a3)
 430 0236 130604C0 		addi	a2,s0,-1024
 431 023a 0127     		sext.w	a4,a4
 432 023c 518F     		or	a4,a4,a2
 433 023e 98C6     		sw	a4,8(a3)
 297:../src/platform/mpfs_hal/common/nwc/mss_sgmii.c ****             sgmii_training_state = SGMII_DETERMINE_SILICON_VARIANT;
 434              		.loc 1 297 13 is_stmt 1
 297:../src/platform/mpfs_hal/common/nwc/mss_sgmii.c ****             sgmii_training_state = SGMII_DETERMINE_SILICON_VARIANT;
 435              		.loc 1 297 38 is_stmt 0
 436 0240 37271120 		li	a4,537993216
 437 0244 1C47     		lw	a5,8(a4)
 438 0246 8127     		sext.w	a5,a5
 439 0248 D18F     		or	a5,a5,a2
 440 024a 1CC7     		sw	a5,8(a4)
 298:../src/platform/mpfs_hal/common/nwc/mss_sgmii.c ****             break;
 441              		.loc 1 298 13 is_stmt 1
 298:../src/platform/mpfs_hal/common/nwc/mss_sgmii.c ****             break;
 442              		.loc 1 298 34 is_stmt 0
 443 024c A947     		li	a5,10
 444 024e 59BD     		j	.L41
 445              	.L9:
 305:../src/platform/mpfs_hal/common/nwc/mss_sgmii.c **** 
 446              		.loc 1 305 13 is_stmt 1
 305:../src/platform/mpfs_hal/common/nwc/mss_sgmii.c **** 
 447              		.loc 1 305 50 is_stmt 0
 448 0250 97070000 		lla	a5,CFG_DDR_SGMII_PHY
 448      93870700 
 449 0258 9C63     		ld	a5,0(a5)
 305:../src/platform/mpfs_hal/common/nwc/mss_sgmii.c **** 
 450              		.loc 1 305 62
 451 025a A297     		add	a5,a5,s0
 452 025c 03A747C1 		lw	a4,-1004(a5)
 307:../src/platform/mpfs_hal/common/nwc/mss_sgmii.c ****             {
 453              		.loc 1 307 45
 454 0260 83A687C2 		lw	a3,-984(a5)
 305:../src/platform/mpfs_hal/common/nwc/mss_sgmii.c **** 
 455              		.loc 1 305 62
 456 0264 0127     		sext.w	a4,a4
 307:../src/platform/mpfs_hal/common/nwc/mss_sgmii.c ****             {
 457              		.loc 1 307 13 is_stmt 1
 307:../src/platform/mpfs_hal/common/nwc/mss_sgmii.c ****             {
 458              		.loc 1 307 15 is_stmt 0
 459 0266 13960602 		slli	a2,a3,32
 460 026a 63550602 		bge	a2,zero,.L23
 309:../src/platform/mpfs_hal/common/nwc/mss_sgmii.c ****                 set_early_late_thresholds(LATE_EYE_WIDTH_PART_REVC_OR_LATER_PRE_TEST, EARLY_EYE_WID
 461              		.loc 1 309 17 is_stmt 1
 309:../src/platform/mpfs_hal/common/nwc/mss_sgmii.c ****                 set_early_late_thresholds(LATE_EYE_WIDTH_PART_REVC_OR_LATER_PRE_TEST, EARLY_EYE_WID
 462              		.loc 1 309 33 is_stmt 0
 463 026e 0547     		li	a4,1
 464 0270 97060000 		sw	a4,.LANCHOR3,a3
 464      23A0E600 
 310:../src/platform/mpfs_hal/common/nwc/mss_sgmii.c ****             }
 465              		.loc 1 310 17 is_stmt 1
 466              	.LVL5:
 467              	.LBB24:
 468              	.LBB25:
 636:../src/platform/mpfs_hal/common/nwc/mss_sgmii.c ****     uint32_t p_eye_value;
 469              		.loc 1 636 5
 637:../src/platform/mpfs_hal/common/nwc/mss_sgmii.c **** 
 470              		.loc 1 637 5
 643:../src/platform/mpfs_hal/common/nwc/mss_sgmii.c ****     n_eye_values |= (uint32_t)(n_late_threshold << SHIFT_TO_CH1_N_EYE_VALUE);
 471              		.loc 1 643 5
 644:../src/platform/mpfs_hal/common/nwc/mss_sgmii.c **** 
 472              		.loc 1 644 5
 646:../src/platform/mpfs_hal/common/nwc/mss_sgmii.c **** 
 473              		.loc 1 646 5
 646:../src/platform/mpfs_hal/common/nwc/mss_sgmii.c **** 
 474              		.loc 1 646 49 is_stmt 0
 475 0278 370700DB 		li	a4,-620756992
 476 027c 23A2E7C2 		sw	a4,-988(a5)
 651:../src/platform/mpfs_hal/common/nwc/mss_sgmii.c ****     CFG_DDR_SGMII_PHY->CH0_CNTL.CH0_CNTL        = ((LIBERO_SETTING_CH0_CNTL & REG_RX0_EYEWIDTH_P_MA
 477              		.loc 1 651 5 is_stmt 1
 478              	.LVL6:
 479              		.loc 1 652 5
 480              		.loc 1 652 49 is_stmt 0
 481 0280 3777F0B7 		li	a4,-1208979456
 482 0284 13070777 		addi	a4,a4,1904
 483 0288 23A6E7C0 		sw	a4,-1012(a5)
 653:../src/platform/mpfs_hal/common/nwc/mss_sgmii.c ****     CFG_DDR_SGMII_PHY->CH1_CNTL.CH1_CNTL        = ((LIBERO_SETTING_CH1_CNTL & REG_RX0_EYEWIDTH_P_MA
 484              		.loc 1 653 5 is_stmt 1
 485              		.loc 1 653 49 is_stmt 0
 486 028c 23A8E7C0 		sw	a4,-1008(a5)
 487              	.LVL7:
 488              	.L24:
 489              	.LBE25:
 490              	.LBE24:
 329:../src/platform/mpfs_hal/common/nwc/mss_sgmii.c ****             break;
 491              		.loc 1 329 13 is_stmt 1
 329:../src/platform/mpfs_hal/common/nwc/mss_sgmii.c ****             break;
 492              		.loc 1 329 34 is_stmt 0
 493 0290 AD47     		li	a5,11
 494 0292 89BD     		j	.L41
 495              	.L23:
 318:../src/platform/mpfs_hal/common/nwc/mss_sgmii.c ****                 {
 496              		.loc 1 318 17 is_stmt 1
 305:../src/platform/mpfs_hal/common/nwc/mss_sgmii.c **** 
 497              		.loc 1 305 74 is_stmt 0
 498 0294 1B570701 		srliw	a4,a4,16
 318:../src/platform/mpfs_hal/common/nwc/mss_sgmii.c ****                 {
 499              		.loc 1 318 19
 500 0298 1377F707 		andi	a4,a4,127
 501 029c B146     		li	a3,12
 502 029e 63E0E602 		bgtu	a4,a3,.L25
 320:../src/platform/mpfs_hal/common/nwc/mss_sgmii.c ****                     set_early_late_thresholds(LATE_EYE_WIDTH_SS_PART_REVB, EARLY_EYE_WIDTH_SS_PART_
 503              		.loc 1 320 21 is_stmt 1
 320:../src/platform/mpfs_hal/common/nwc/mss_sgmii.c ****                     set_early_late_thresholds(LATE_EYE_WIDTH_SS_PART_REVB, EARLY_EYE_WIDTH_SS_PART_
 504              		.loc 1 320 37 is_stmt 0
 505 02a2 0947     		li	a4,2
 506 02a4 97060000 		sw	a4,.LANCHOR3,a3
 506      23A0E600 
 321:../src/platform/mpfs_hal/common/nwc/mss_sgmii.c ****                 }
 507              		.loc 1 321 21 is_stmt 1
 508              	.LVL8:
 509              	.LBB26:
 510              	.LBB21:
 636:../src/platform/mpfs_hal/common/nwc/mss_sgmii.c ****     uint32_t p_eye_value;
 511              		.loc 1 636 5
 637:../src/platform/mpfs_hal/common/nwc/mss_sgmii.c **** 
 512              		.loc 1 637 5
 643:../src/platform/mpfs_hal/common/nwc/mss_sgmii.c ****     n_eye_values |= (uint32_t)(n_late_threshold << SHIFT_TO_CH1_N_EYE_VALUE);
 513              		.loc 1 643 5
 644:../src/platform/mpfs_hal/common/nwc/mss_sgmii.c **** 
 514              		.loc 1 644 5
 646:../src/platform/mpfs_hal/common/nwc/mss_sgmii.c **** 
 515              		.loc 1 646 5
 646:../src/platform/mpfs_hal/common/nwc/mss_sgmii.c **** 
 516              		.loc 1 646 49 is_stmt 0
 517 02ac 370700DB 		li	a4,-620756992
 518 02b0 23A2E7C2 		sw	a4,-988(a5)
 651:../src/platform/mpfs_hal/common/nwc/mss_sgmii.c ****     CFG_DDR_SGMII_PHY->CH0_CNTL.CH0_CNTL        = ((LIBERO_SETTING_CH0_CNTL & REG_RX0_EYEWIDTH_P_MA
 519              		.loc 1 651 5 is_stmt 1
 520              	.LVL9:
 652:../src/platform/mpfs_hal/common/nwc/mss_sgmii.c ****     CFG_DDR_SGMII_PHY->CH1_CNTL.CH1_CNTL        = ((LIBERO_SETTING_CH1_CNTL & REG_RX0_EYEWIDTH_P_MA
 521              		.loc 1 652 5
 652:../src/platform/mpfs_hal/common/nwc/mss_sgmii.c ****     CFG_DDR_SGMII_PHY->CH1_CNTL.CH1_CNTL        = ((LIBERO_SETTING_CH1_CNTL & REG_RX0_EYEWIDTH_P_MA
 522              		.loc 1 652 49 is_stmt 0
 523 02b4 23A637C1 		sw	s3,-1012(a5)
 524              		.loc 1 653 5 is_stmt 1
 525              		.loc 1 653 49 is_stmt 0
 526 02b8 23A837C1 		sw	s3,-1008(a5)
 527 02bc D1BF     		j	.L24
 528              	.LVL10:
 529              	.L25:
 530              	.LBE21:
 531              	.LBE26:
 325:../src/platform/mpfs_hal/common/nwc/mss_sgmii.c ****                     set_early_late_thresholds(LATE_TT_PART_REVB, EARLY_TT_PART_REVB);
 532              		.loc 1 325 21 is_stmt 1
 325:../src/platform/mpfs_hal/common/nwc/mss_sgmii.c ****                     set_early_late_thresholds(LATE_TT_PART_REVB, EARLY_TT_PART_REVB);
 533              		.loc 1 325 37 is_stmt 0
 534 02be 0D47     		li	a4,3
 535 02c0 97060000 		sw	a4,.LANCHOR3,a3
 535      23A0E600 
 326:../src/platform/mpfs_hal/common/nwc/mss_sgmii.c ****                 }
 536              		.loc 1 326 21 is_stmt 1
 537              	.LVL11:
 538              	.LBB27:
 539              	.LBB28:
 636:../src/platform/mpfs_hal/common/nwc/mss_sgmii.c ****     uint32_t p_eye_value;
 540              		.loc 1 636 5
 637:../src/platform/mpfs_hal/common/nwc/mss_sgmii.c **** 
 541              		.loc 1 637 5
 643:../src/platform/mpfs_hal/common/nwc/mss_sgmii.c ****     n_eye_values |= (uint32_t)(n_late_threshold << SHIFT_TO_CH1_N_EYE_VALUE);
 542              		.loc 1 643 5
 644:../src/platform/mpfs_hal/common/nwc/mss_sgmii.c **** 
 543              		.loc 1 644 5
 646:../src/platform/mpfs_hal/common/nwc/mss_sgmii.c **** 
 544              		.loc 1 646 5
 646:../src/platform/mpfs_hal/common/nwc/mss_sgmii.c **** 
 545              		.loc 1 646 49 is_stmt 0
 546 02c8 370700FF 		li	a4,-16777216
 547 02cc 23A2E7C2 		sw	a4,-988(a5)
 651:../src/platform/mpfs_hal/common/nwc/mss_sgmii.c ****     CFG_DDR_SGMII_PHY->CH0_CNTL.CH0_CNTL        = ((LIBERO_SETTING_CH0_CNTL & REG_RX0_EYEWIDTH_P_MA
 548              		.loc 1 651 5 is_stmt 1
 549              	.LVL12:
 652:../src/platform/mpfs_hal/common/nwc/mss_sgmii.c ****     CFG_DDR_SGMII_PHY->CH1_CNTL.CH1_CNTL        = ((LIBERO_SETTING_CH1_CNTL & REG_RX0_EYEWIDTH_P_MA
 550              		.loc 1 652 5
 652:../src/platform/mpfs_hal/common/nwc/mss_sgmii.c ****     CFG_DDR_SGMII_PHY->CH1_CNTL.CH1_CNTL        = ((LIBERO_SETTING_CH1_CNTL & REG_RX0_EYEWIDTH_P_MA
 551              		.loc 1 652 49 is_stmt 0
 552 02d0 23A697C0 		sw	s1,-1012(a5)
 553              		.loc 1 653 5 is_stmt 1
 554              		.loc 1 653 49 is_stmt 0
 555 02d4 23A897C0 		sw	s1,-1008(a5)
 556 02d8 65BF     		j	.L24
 557              	.LVL13:
 558              	.L8:
 559              	.LBE28:
 560              	.LBE27:
 344:../src/platform/mpfs_hal/common/nwc/mss_sgmii.c ****             CFG_DDR_SGMII_PHY->DYN_CNTL.DYN_CNTL  = (0U << 14U)|(0U << 13U)|(0x7FU<<0U);
 561              		.loc 1 344 13 is_stmt 1
 344:../src/platform/mpfs_hal/common/nwc/mss_sgmii.c ****             CFG_DDR_SGMII_PHY->DYN_CNTL.DYN_CNTL  = (0U << 14U)|(0U << 13U)|(0x7FU<<0U);
 562              		.loc 1 344 30 is_stmt 0
 563 02da 97070000 		lla	a5,CFG_DDR_SGMII_PHY
 563      93870700 
 564 02e2 9C63     		ld	a5,0(a5)
 345:../src/platform/mpfs_hal/common/nwc/mss_sgmii.c ****             if(silicon_variant == PART_REVC_OR_LATER)
 565              		.loc 1 345 51
 566 02e4 1307F007 		li	a4,127
 344:../src/platform/mpfs_hal/common/nwc/mss_sgmii.c ****             CFG_DDR_SGMII_PHY->DYN_CNTL.DYN_CNTL  = (0U << 14U)|(0U << 13U)|(0x7FU<<0U);
 567              		.loc 1 344 51
 568 02e8 A297     		add	a5,a5,s0
 569 02ea 23AE27C1 		sw	s2,-996(a5)
 345:../src/platform/mpfs_hal/common/nwc/mss_sgmii.c ****             if(silicon_variant == PART_REVC_OR_LATER)
 570              		.loc 1 345 13 is_stmt 1
 345:../src/platform/mpfs_hal/common/nwc/mss_sgmii.c ****             if(silicon_variant == PART_REVC_OR_LATER)
 571              		.loc 1 345 51 is_stmt 0
 572 02ee 23AEE7C0 		sw	a4,-996(a5)
 346:../src/platform/mpfs_hal/common/nwc/mss_sgmii.c ****             {
 573              		.loc 1 346 13 is_stmt 1
 346:../src/platform/mpfs_hal/common/nwc/mss_sgmii.c ****             {
 574              		.loc 1 346 15 is_stmt 0
 575 02f2 97070000 		lla	a5,.LANCHOR3
 575      93870700 
 576 02fa 9843     		lw	a4,0(a5)
 577 02fc 8547     		li	a5,1
 578 02fe 631EF704 		bne	a4,a5,.L43
 348:../src/platform/mpfs_hal/common/nwc/mss_sgmii.c ****                 sgmii_training_state = SGMII_WAIT_10MS;
 579              		.loc 1 348 17 is_stmt 1
 348:../src/platform/mpfs_hal/common/nwc/mss_sgmii.c ****                 sgmii_training_state = SGMII_WAIT_10MS;
 580              		.loc 1 348 26 is_stmt 0
 581 0302 97070000 		sw	zero,.LANCHOR2,a5
 581      23A00700 
 349:../src/platform/mpfs_hal/common/nwc/mss_sgmii.c ****             }
 582              		.loc 1 349 17 is_stmt 1
 349:../src/platform/mpfs_hal/common/nwc/mss_sgmii.c ****             }
 583              		.loc 1 349 38 is_stmt 0
 584 030a B147     		li	a5,12
 585 030c E1BB     		j	.L41
 586              	.L7:
 358:../src/platform/mpfs_hal/common/nwc/mss_sgmii.c ****             if(timer_out >= 0xFFFU)
 587              		.loc 1 358 13 is_stmt 1
 358:../src/platform/mpfs_hal/common/nwc/mss_sgmii.c ****             if(timer_out >= 0xFFFU)
 588              		.loc 1 358 22 is_stmt 0
 589 030e 97070000 		lla	a5,.LANCHOR2
 589      93870700 
 590 0316 9C43     		lw	a5,0(a5)
 591 0318 1B871700 		addiw	a4,a5,1
 592 031c BA87     		mv	a5,a4
 359:../src/platform/mpfs_hal/common/nwc/mss_sgmii.c ****             {
 593              		.loc 1 359 13 is_stmt 1
 359:../src/platform/mpfs_hal/common/nwc/mss_sgmii.c ****             {
 594              		.loc 1 359 15 is_stmt 0
 595 031e E373EADE 		bleu	a4,s4,.L42
 361:../src/platform/mpfs_hal/common/nwc/mss_sgmii.c ****                 sgmii_training_state = SGMII_CHECK_REVC_RESULT;
 596              		.loc 1 361 17 is_stmt 1
 361:../src/platform/mpfs_hal/common/nwc/mss_sgmii.c ****                 sgmii_training_state = SGMII_CHECK_REVC_RESULT;
 597              		.loc 1 361 26 is_stmt 0
 598 0322 97070000 		sw	zero,.LANCHOR2,a5
 598      23A00700 
 362:../src/platform/mpfs_hal/common/nwc/mss_sgmii.c ****             }
 599              		.loc 1 362 17 is_stmt 1
 362:../src/platform/mpfs_hal/common/nwc/mss_sgmii.c ****             }
 600              		.loc 1 362 38 is_stmt 0
 601 032a B547     		li	a5,13
 602 032c 65BB     		j	.L41
 603              	.L6:
 367:../src/platform/mpfs_hal/common/nwc/mss_sgmii.c ****             {
 604              		.loc 1 367 13 is_stmt 1
 367:../src/platform/mpfs_hal/common/nwc/mss_sgmii.c ****             {
 605              		.loc 1 367 36 is_stmt 0
 606 032e 97070000 		lla	a5,CFG_DDR_SGMII_PHY
 606      93870700 
 607 0336 9C63     		ld	a5,0(a5)
 367:../src/platform/mpfs_hal/common/nwc/mss_sgmii.c ****             {
 608              		.loc 1 367 48
 609 0338 A297     		add	a5,a5,s0
 610 033a 03A787C2 		lw	a4,-984(a5)
 375:../src/platform/mpfs_hal/common/nwc/mss_sgmii.c ****                 /*
 611              		.loc 1 375 17 is_stmt 1
 612              	.LVL14:
 613              	.LBB29:
 614              	.LBB17:
 636:../src/platform/mpfs_hal/common/nwc/mss_sgmii.c ****     uint32_t p_eye_value;
 615              		.loc 1 636 5
 637:../src/platform/mpfs_hal/common/nwc/mss_sgmii.c **** 
 616              		.loc 1 637 5
 643:../src/platform/mpfs_hal/common/nwc/mss_sgmii.c ****     n_eye_values |= (uint32_t)(n_late_threshold << SHIFT_TO_CH1_N_EYE_VALUE);
 617              		.loc 1 643 5
 644:../src/platform/mpfs_hal/common/nwc/mss_sgmii.c **** 
 618              		.loc 1 644 5
 646:../src/platform/mpfs_hal/common/nwc/mss_sgmii.c **** 
 619              		.loc 1 646 5
 646:../src/platform/mpfs_hal/common/nwc/mss_sgmii.c **** 
 620              		.loc 1 646 49 is_stmt 0
 621 033e 370700FF 		li	a4,-16777216
 622 0342 23A2E7C2 		sw	a4,-988(a5)
 651:../src/platform/mpfs_hal/common/nwc/mss_sgmii.c ****     CFG_DDR_SGMII_PHY->CH0_CNTL.CH0_CNTL        = ((LIBERO_SETTING_CH0_CNTL & REG_RX0_EYEWIDTH_P_MA
 623              		.loc 1 651 5 is_stmt 1
 624              	.LVL15:
 652:../src/platform/mpfs_hal/common/nwc/mss_sgmii.c ****     CFG_DDR_SGMII_PHY->CH1_CNTL.CH1_CNTL        = ((LIBERO_SETTING_CH1_CNTL & REG_RX0_EYEWIDTH_P_MA
 625              		.loc 1 652 5
 652:../src/platform/mpfs_hal/common/nwc/mss_sgmii.c ****     CFG_DDR_SGMII_PHY->CH1_CNTL.CH1_CNTL        = ((LIBERO_SETTING_CH1_CNTL & REG_RX0_EYEWIDTH_P_MA
 626              		.loc 1 652 49 is_stmt 0
 627 0346 23A697C0 		sw	s1,-1012(a5)
 628              		.loc 1 653 5 is_stmt 1
 629              		.loc 1 653 49 is_stmt 0
 630 034a 23A897C0 		sw	s1,-1008(a5)
 631              	.LVL16:
 632              	.LBE17:
 633              	.LBE29:
 379:../src/platform/mpfs_hal/common/nwc/mss_sgmii.c ****                 CFG_DDR_SGMII_PHY->DYN_CNTL.DYN_CNTL  = (0U << 14U)|(0U << 13U)|(0x7FU<<0U);
 634              		.loc 1 379 17 is_stmt 1
 379:../src/platform/mpfs_hal/common/nwc/mss_sgmii.c ****                 CFG_DDR_SGMII_PHY->DYN_CNTL.DYN_CNTL  = (0U << 14U)|(0U << 13U)|(0x7FU<<0U);
 635              		.loc 1 379 55 is_stmt 0
 636 034e 23AE27C1 		sw	s2,-996(a5)
 380:../src/platform/mpfs_hal/common/nwc/mss_sgmii.c ****                 /* OK, we are good */
 637              		.loc 1 380 17 is_stmt 1
 380:../src/platform/mpfs_hal/common/nwc/mss_sgmii.c ****                 /* OK, we are good */
 638              		.loc 1 380 55 is_stmt 0
 639 0352 1307F007 		li	a4,127
 640 0356 23AEE7C0 		sw	a4,-996(a5)
 641              	.L43:
 382:../src/platform/mpfs_hal/common/nwc/mss_sgmii.c ****             }
 642              		.loc 1 382 17 is_stmt 1
 382:../src/platform/mpfs_hal/common/nwc/mss_sgmii.c ****             }
 643              		.loc 1 382 38 is_stmt 0
 644 035a B947     		li	a5,14
 645 035c 61B3     		j	.L41
 646              	.L4:
 395:../src/platform/mpfs_hal/common/nwc/mss_sgmii.c ****             break;
 647              		.loc 1 395 13 is_stmt 1
 395:../src/platform/mpfs_hal/common/nwc/mss_sgmii.c ****             break;
 648              		.loc 1 395 20 is_stmt 0
 649 035e 97070000 		sw	zero,.LANCHOR1,a5
 649      23A00700 
 396:../src/platform/mpfs_hal/common/nwc/mss_sgmii.c ****     } /* end of switch statement */
 650              		.loc 1 396 13 is_stmt 1
 651 0366 2DB3     		j	.L3
 652              	.LBE32:
 653              	.LBE35:
 654              		.cfi_endproc
 655              	.LFE23:
 657              		.section	.text.sgmii_off_mode,"ax",@progbits
 658              		.align	1
 659              		.globl	sgmii_off_mode
 661              	sgmii_off_mode:
 662              	.LFB26:
 423:../src/platform/mpfs_hal/common/nwc/mss_sgmii.c ****     /*
 663              		.loc 1 423 1
 664              		.cfi_startproc
 427:../src/platform/mpfs_hal/common/nwc/mss_sgmii.c ****     CFG_DDR_SGMII_PHY->SOFT_RESET_SGMII.SOFT_RESET_SGMII = 1U;
 665              		.loc 1 427 5
 427:../src/platform/mpfs_hal/common/nwc/mss_sgmii.c ****     CFG_DDR_SGMII_PHY->SOFT_RESET_SGMII.SOFT_RESET_SGMII = 1U;
 666              		.loc 1 427 22 is_stmt 0
 667 0000 97070000 		lla	a5,CFG_DDR_SGMII_PHY
 667      93870700 
 668 0008 9C63     		ld	a5,0(a5)
 423:../src/platform/mpfs_hal/common/nwc/mss_sgmii.c ****     /*
 669              		.loc 1 423 1
 670 000a 4111     		addi	sp,sp,-16
 671              		.cfi_def_cfa_offset 16
 427:../src/platform/mpfs_hal/common/nwc/mss_sgmii.c ****     CFG_DDR_SGMII_PHY->SOFT_RESET_SGMII.SOFT_RESET_SGMII = 1U;
 672              		.loc 1 427 58
 673 000c 0567     		li	a4,4096
 423:../src/platform/mpfs_hal/common/nwc/mss_sgmii.c ****     /*
 674              		.loc 1 423 1
 675 000e 22E0     		sd	s0,0(sp)
 676 0010 06E4     		sd	ra,8(sp)
 677              		.cfi_offset 8, -16
 678              		.cfi_offset 1, -8
 427:../src/platform/mpfs_hal/common/nwc/mss_sgmii.c ****     CFG_DDR_SGMII_PHY->SOFT_RESET_SGMII.SOFT_RESET_SGMII = 1U;
 679              		.loc 1 427 58
 680 0012 BA97     		add	a5,a5,a4
 681 0014 13071010 		li	a4,257
 682 0018 23A0E7C0 		sw	a4,-1024(a5)
 428:../src/platform/mpfs_hal/common/nwc/mss_sgmii.c **** 
 683              		.loc 1 428 5 is_stmt 1
 428:../src/platform/mpfs_hal/common/nwc/mss_sgmii.c **** 
 684              		.loc 1 428 58 is_stmt 0
 685 001c 0544     		li	s0,1
 686 001e 23A087C0 		sw	s0,-1024(a5)
 433:../src/platform/mpfs_hal/common/nwc/mss_sgmii.c **** 
 687              		.loc 1 433 5 is_stmt 1
 688 0022 97000000 		call	setup_sgmii_rpc_per_config
 688      E7800000 
 689              	.LVL17:
 439:../src/platform/mpfs_hal/common/nwc/mss_sgmii.c **** 
 690              		.loc 1 439 5
 439:../src/platform/mpfs_hal/common/nwc/mss_sgmii.c **** 
 691              		.loc 1 439 33 is_stmt 0
 692 002a B707103E 		li	a5,1041235968
 693 002e 80C3     		sw	s0,0(a5)
 441:../src/platform/mpfs_hal/common/nwc/mss_sgmii.c **** 
 694              		.loc 1 441 1
 695 0030 A260     		ld	ra,8(sp)
 696              		.cfi_restore 1
 697 0032 0264     		ld	s0,0(sp)
 698              		.cfi_restore 8
 699 0034 4101     		addi	sp,sp,16
 700              		.cfi_def_cfa_offset 0
 701 0036 8280     		jr	ra
 702              		.cfi_endproc
 703              	.LFE26:
 705              		.section	.text.ddr_pvt_calibration,"ax",@progbits
 706              		.align	1
 707              		.globl	ddr_pvt_calibration
 709              	ddr_pvt_calibration:
 710              	.LFB27:
 447:../src/platform/mpfs_hal/common/nwc/mss_sgmii.c ****     /*
 711              		.loc 1 447 1 is_stmt 1
 712              		.cfi_startproc
 481:../src/platform/mpfs_hal/common/nwc/mss_sgmii.c **** 
 713              		.loc 1 481 5
 485:../src/platform/mpfs_hal/common/nwc/mss_sgmii.c ****     {
 714              		.loc 1 485 29 is_stmt 0
 715 0000 97070000 		lla	a5,CFG_DDR_SGMII_PHY
 715      93870700 
 716 0008 9863     		ld	a4,0(a5)
 447:../src/platform/mpfs_hal/common/nwc/mss_sgmii.c ****     /*
 717              		.loc 1 447 1
 718 000a 4111     		addi	sp,sp,-16
 719              		.cfi_def_cfa_offset 16
 481:../src/platform/mpfs_hal/common/nwc/mss_sgmii.c **** 
 720              		.loc 1 481 23
 721 000c 02C6     		sw	zero,12(sp)
 485:../src/platform/mpfs_hal/common/nwc/mss_sgmii.c ****     {
 722              		.loc 1 485 5 is_stmt 1
 723              	.L47:
 485:../src/platform/mpfs_hal/common/nwc/mss_sgmii.c ****     {
 724              		.loc 1 485 39 is_stmt 0
 725 000e 83278720 		lw	a5,520(a4)
 485:../src/platform/mpfs_hal/common/nwc/mss_sgmii.c ****     {
 726              		.loc 1 485 49
 727 0012 C18B     		andi	a5,a5,16
 485:../src/platform/mpfs_hal/common/nwc/mss_sgmii.c ****     {
 728              		.loc 1 485 10
 729 0014 ADC7     		beq	a5,zero,.L48
 502:../src/platform/mpfs_hal/common/nwc/mss_sgmii.c ****     while(timer_out < 0xFU)
 730              		.loc 1 502 5 is_stmt 1
 502:../src/platform/mpfs_hal/common/nwc/mss_sgmii.c ****     while(timer_out < 0xFU)
 731              		.loc 1 502 14 is_stmt 0
 732 0016 02C6     		sw	zero,12(sp)
 503:../src/platform/mpfs_hal/common/nwc/mss_sgmii.c ****     {
 733              		.loc 1 503 5 is_stmt 1
 503:../src/platform/mpfs_hal/common/nwc/mss_sgmii.c ****     {
 734              		.loc 1 503 10 is_stmt 0
 735 0018 B946     		li	a3,14
 736              	.L49:
 503:../src/platform/mpfs_hal/common/nwc/mss_sgmii.c ****     {
 737              		.loc 1 503 21
 738 001a B247     		lw	a5,12(sp)
 739 001c 8127     		sext.w	a5,a5
 503:../src/platform/mpfs_hal/common/nwc/mss_sgmii.c ****     {
 740              		.loc 1 503 10
 741 001e 63F4F606 		bleu	a5,a3,.L50
 528:../src/platform/mpfs_hal/common/nwc/mss_sgmii.c **** 
 742              		.loc 1 528 5 is_stmt 1
 528:../src/platform/mpfs_hal/common/nwc/mss_sgmii.c **** 
 743              		.loc 1 528 56 is_stmt 0
 744 0022 9947     		li	a5,6
 745 0024 232EF720 		sw	a5,540(a4)
 531:../src/platform/mpfs_hal/common/nwc/mss_sgmii.c ****     IOSCB_IO_CALIB_DDR->SOFT_RESET_IOCALIB       = 0x0U; /* make sure reset */
 746              		.loc 1 531 5 is_stmt 1
 531:../src/platform/mpfs_hal/common/nwc/mss_sgmii.c ****     IOSCB_IO_CALIB_DDR->SOFT_RESET_IOCALIB       = 0x0U; /* make sure reset */
 747              		.loc 1 531 23 is_stmt 0
 748 0028 97070000 		lla	a5,IOSCB_IO_CALIB_DDR
 748      93870700 
 749 0030 9C63     		ld	a5,0(a5)
 531:../src/platform/mpfs_hal/common/nwc/mss_sgmii.c ****     IOSCB_IO_CALIB_DDR->SOFT_RESET_IOCALIB       = 0x0U; /* make sure reset */
 750              		.loc 1 531 50
 751 0032 8546     		li	a3,1
 752 0034 94C3     		sw	a3,0(a5)
 532:../src/platform/mpfs_hal/common/nwc/mss_sgmii.c **** 
 753              		.loc 1 532 5 is_stmt 1
 532:../src/platform/mpfs_hal/common/nwc/mss_sgmii.c **** 
 754              		.loc 1 532 50 is_stmt 0
 755 0036 23A00700 		sw	zero,0(a5)
 543:../src/platform/mpfs_hal/common/nwc/mss_sgmii.c ****     #ifndef RENODE_DEBUG
 756              		.loc 1 543 5 is_stmt 1
 543:../src/platform/mpfs_hal/common/nwc/mss_sgmii.c ****     #ifndef RENODE_DEBUG
 757              		.loc 1 543 14 is_stmt 0
 758 003a 02C6     		sw	zero,12(sp)
 547:../src/platform/mpfs_hal/common/nwc/mss_sgmii.c ****         {
 759              		.loc 1 547 9 is_stmt 1
 760              	.L51:
 547:../src/platform/mpfs_hal/common/nwc/mss_sgmii.c ****         {
 761              		.loc 1 547 34 is_stmt 0
 762 003c 9447     		lw	a3,8(a5)
 547:../src/platform/mpfs_hal/common/nwc/mss_sgmii.c ****         {
 763              		.loc 1 547 45
 764 003e 918A     		andi	a3,a3,4
 547:../src/platform/mpfs_hal/common/nwc/mss_sgmii.c ****         {
 765              		.loc 1 547 14
 766 0040 B9C6     		beq	a3,zero,.L52
 767              	.L53:
 552:../src/platform/mpfs_hal/common/nwc/mss_sgmii.c ****         {
 768              		.loc 1 552 43
 769 0042 83268720 		lw	a3,520(a4)
 552:../src/platform/mpfs_hal/common/nwc/mss_sgmii.c ****         {
 770              		.loc 1 552 53
 771 0046 918A     		andi	a3,a3,4
 552:../src/platform/mpfs_hal/common/nwc/mss_sgmii.c ****         {
 772              		.loc 1 552 14
 773 0048 B9C6     		beq	a3,zero,.L54
 563:../src/platform/mpfs_hal/common/nwc/mss_sgmii.c ****         IOSCB_IO_CALIB_DDR->IOC_REG0            &= ~(0x01U<<14U);
 774              		.loc 1 563 9 is_stmt 1
 563:../src/platform/mpfs_hal/common/nwc/mss_sgmii.c ****         IOSCB_IO_CALIB_DDR->IOC_REG0            &= ~(0x01U<<14U);
 775              		.loc 1 563 49 is_stmt 0
 776 004a 03264720 		lw	a2,516(a4)
 777 004e F176     		li	a3,-16384
 778 0050 9385F6FF 		addi	a1,a3,-1
 779 0054 0126     		sext.w	a2,a2
 780 0056 6D8E     		and	a2,a2,a1
 781 0058 2322C720 		sw	a2,516(a4)
 564:../src/platform/mpfs_hal/common/nwc/mss_sgmii.c ****         CFG_DDR_SGMII_PHY->IOC_REG0.IOC_REG0    |= (0x01U<<14U);
 782              		.loc 1 564 9 is_stmt 1
 564:../src/platform/mpfs_hal/common/nwc/mss_sgmii.c ****         CFG_DDR_SGMII_PHY->IOC_REG0.IOC_REG0    |= (0x01U<<14U);
 783              		.loc 1 564 49 is_stmt 0
 784 005c D443     		lw	a3,4(a5)
 565:../src/platform/mpfs_hal/common/nwc/mss_sgmii.c ****         IOSCB_IO_CALIB_DDR->IOC_REG0            |= (0x01U<<14U);
 785              		.loc 1 565 49
 786 005e 1166     		li	a2,16384
 564:../src/platform/mpfs_hal/common/nwc/mss_sgmii.c ****         CFG_DDR_SGMII_PHY->IOC_REG0.IOC_REG0    |= (0x01U<<14U);
 787              		.loc 1 564 49
 788 0060 8126     		sext.w	a3,a3
 789 0062 ED8E     		and	a3,a3,a1
 790 0064 D4C3     		sw	a3,4(a5)
 565:../src/platform/mpfs_hal/common/nwc/mss_sgmii.c ****         IOSCB_IO_CALIB_DDR->IOC_REG0            |= (0x01U<<14U);
 791              		.loc 1 565 9 is_stmt 1
 565:../src/platform/mpfs_hal/common/nwc/mss_sgmii.c ****         IOSCB_IO_CALIB_DDR->IOC_REG0            |= (0x01U<<14U);
 792              		.loc 1 565 49 is_stmt 0
 793 0066 83264720 		lw	a3,516(a4)
 794 006a 8126     		sext.w	a3,a3
 795 006c D18E     		or	a3,a3,a2
 796 006e 2322D720 		sw	a3,516(a4)
 566:../src/platform/mpfs_hal/common/nwc/mss_sgmii.c ****     }
 797              		.loc 1 566 9 is_stmt 1
 566:../src/platform/mpfs_hal/common/nwc/mss_sgmii.c ****     }
 798              		.loc 1 566 49 is_stmt 0
 799 0072 D843     		lw	a4,4(a5)
 800 0074 0127     		sext.w	a4,a4
 801 0076 518F     		or	a4,a4,a2
 802 0078 D8C3     		sw	a4,4(a5)
 568:../src/platform/mpfs_hal/common/nwc/mss_sgmii.c **** 
 803              		.loc 1 568 1
 804 007a 4101     		addi	sp,sp,16
 805              		.cfi_remember_state
 806              		.cfi_def_cfa_offset 0
 807 007c 8280     		jr	ra
 808              	.L48:
 809              		.cfi_restore_state
 487:../src/platform/mpfs_hal/common/nwc/mss_sgmii.c ****         /*todo: add a fail break */
 810              		.loc 1 487 9 is_stmt 1
 487:../src/platform/mpfs_hal/common/nwc/mss_sgmii.c ****         /*todo: add a fail break */
 811              		.loc 1 487 18 is_stmt 0
 812 007e B247     		lw	a5,12(sp)
 813 0080 8527     		addiw	a5,a5,1
 814 0082 3EC6     		sw	a5,12(sp)
 815 0084 69B7     		j	.L47
 816              	.L50:
 505:../src/platform/mpfs_hal/common/nwc/mss_sgmii.c ****     }
 817              		.loc 1 505 9 is_stmt 1
 505:../src/platform/mpfs_hal/common/nwc/mss_sgmii.c ****     }
 818              		.loc 1 505 18 is_stmt 0
 819 0086 B247     		lw	a5,12(sp)
 820 0088 8527     		addiw	a5,a5,1
 821 008a 3EC6     		sw	a5,12(sp)
 822 008c 79B7     		j	.L49
 823              	.L52:
 549:../src/platform/mpfs_hal/common/nwc/mss_sgmii.c ****         }
 824              		.loc 1 549 13 is_stmt 1
 549:../src/platform/mpfs_hal/common/nwc/mss_sgmii.c ****         }
 825              		.loc 1 549 22 is_stmt 0
 826 008e B246     		lw	a3,12(sp)
 827 0090 8526     		addiw	a3,a3,1
 828 0092 36C6     		sw	a3,12(sp)
 829 0094 65B7     		j	.L51
 830              	.L54:
 554:../src/platform/mpfs_hal/common/nwc/mss_sgmii.c ****         }
 831              		.loc 1 554 13 is_stmt 1
 554:../src/platform/mpfs_hal/common/nwc/mss_sgmii.c ****         }
 832              		.loc 1 554 22 is_stmt 0
 833 0096 B246     		lw	a3,12(sp)
 834 0098 8526     		addiw	a3,a3,1
 835 009a 36C6     		sw	a3,12(sp)
 836 009c 5DB7     		j	.L53
 837              		.cfi_endproc
 838              	.LFE27:
 840              		.section	.text.ddr_pvt_recalibration,"ax",@progbits
 841              		.align	1
 842              		.globl	ddr_pvt_recalibration
 844              	ddr_pvt_recalibration:
 845              	.LFB28:
 575:../src/platform/mpfs_hal/common/nwc/mss_sgmii.c ****     volatile uint32_t timer_out=0U;
 846              		.loc 1 575 1 is_stmt 1
 847              		.cfi_startproc
 576:../src/platform/mpfs_hal/common/nwc/mss_sgmii.c **** 
 848              		.loc 1 576 5
 583:../src/platform/mpfs_hal/common/nwc/mss_sgmii.c ****         IOSCB_IO_CALIB_DDR->IOC_REG0            &= ~(0x01U<<13U);
 849              		.loc 1 583 49 is_stmt 0
 850 0000 97070000 		lla	a5,CFG_DDR_SGMII_PHY
 850      93870700 
 851 0008 9C63     		ld	a5,0(a5)
 575:../src/platform/mpfs_hal/common/nwc/mss_sgmii.c ****     volatile uint32_t timer_out=0U;
 852              		.loc 1 575 1
 853 000a 4111     		addi	sp,sp,-16
 854              		.cfi_def_cfa_offset 16
 576:../src/platform/mpfs_hal/common/nwc/mss_sgmii.c **** 
 855              		.loc 1 576 23
 856 000c 02C6     		sw	zero,12(sp)
 583:../src/platform/mpfs_hal/common/nwc/mss_sgmii.c ****         IOSCB_IO_CALIB_DDR->IOC_REG0            &= ~(0x01U<<13U);
 857              		.loc 1 583 9 is_stmt 1
 583:../src/platform/mpfs_hal/common/nwc/mss_sgmii.c ****         IOSCB_IO_CALIB_DDR->IOC_REG0            &= ~(0x01U<<13U);
 858              		.loc 1 583 49 is_stmt 0
 859 000e 03A74720 		lw	a4,516(a5)
 860 0012 F976     		li	a3,-8192
 861 0014 1386F6FF 		addi	a2,a3,-1
 862 0018 0127     		sext.w	a4,a4
 863 001a 718F     		and	a4,a4,a2
 864 001c 23A2E720 		sw	a4,516(a5)
 584:../src/platform/mpfs_hal/common/nwc/mss_sgmii.c ****         CFG_DDR_SGMII_PHY->IOC_REG0.IOC_REG0    |= (0x01U<<13U);
 865              		.loc 1 584 9 is_stmt 1
 584:../src/platform/mpfs_hal/common/nwc/mss_sgmii.c ****         CFG_DDR_SGMII_PHY->IOC_REG0.IOC_REG0    |= (0x01U<<13U);
 866              		.loc 1 584 49 is_stmt 0
 867 0020 17070000 		lla	a4,IOSCB_IO_CALIB_DDR
 867      13070700 
 868 0028 1863     		ld	a4,0(a4)
 585:../src/platform/mpfs_hal/common/nwc/mss_sgmii.c ****         IOSCB_IO_CALIB_DDR->IOC_REG0            |= (0x01U<<13U);
 869              		.loc 1 585 49
 870 002a 8965     		li	a1,8192
 584:../src/platform/mpfs_hal/common/nwc/mss_sgmii.c ****         CFG_DDR_SGMII_PHY->IOC_REG0.IOC_REG0    |= (0x01U<<13U);
 871              		.loc 1 584 49
 872 002c 5443     		lw	a3,4(a4)
 873 002e 8126     		sext.w	a3,a3
 874 0030 F18E     		and	a3,a3,a2
 875 0032 54C3     		sw	a3,4(a4)
 585:../src/platform/mpfs_hal/common/nwc/mss_sgmii.c ****         IOSCB_IO_CALIB_DDR->IOC_REG0            |= (0x01U<<13U);
 876              		.loc 1 585 9 is_stmt 1
 585:../src/platform/mpfs_hal/common/nwc/mss_sgmii.c ****         IOSCB_IO_CALIB_DDR->IOC_REG0            |= (0x01U<<13U);
 877              		.loc 1 585 49 is_stmt 0
 878 0034 03A64720 		lw	a2,516(a5)
 879 0038 0126     		sext.w	a2,a2
 880 003a 4D8E     		or	a2,a2,a1
 881 003c 23A2C720 		sw	a2,516(a5)
 586:../src/platform/mpfs_hal/common/nwc/mss_sgmii.c ****     }
 882              		.loc 1 586 9 is_stmt 1
 586:../src/platform/mpfs_hal/common/nwc/mss_sgmii.c ****     }
 883              		.loc 1 586 49 is_stmt 0
 884 0040 5443     		lw	a3,4(a4)
 885 0042 8126     		sext.w	a3,a3
 886 0044 CD8E     		or	a3,a3,a1
 887 0046 54C3     		sw	a3,4(a4)
 598:../src/platform/mpfs_hal/common/nwc/mss_sgmii.c ****     #ifndef RENODE_DEBUG
 888              		.loc 1 598 5 is_stmt 1
 598:../src/platform/mpfs_hal/common/nwc/mss_sgmii.c ****     #ifndef RENODE_DEBUG
 889              		.loc 1 598 14 is_stmt 0
 890 0048 02C6     		sw	zero,12(sp)
 602:../src/platform/mpfs_hal/common/nwc/mss_sgmii.c ****         {
 891              		.loc 1 602 9 is_stmt 1
 892              	.L57:
 602:../src/platform/mpfs_hal/common/nwc/mss_sgmii.c ****         {
 893              		.loc 1 602 34 is_stmt 0
 894 004a 1447     		lw	a3,8(a4)
 602:../src/platform/mpfs_hal/common/nwc/mss_sgmii.c ****         {
 895              		.loc 1 602 45
 896 004c 918A     		andi	a3,a3,4
 602:../src/platform/mpfs_hal/common/nwc/mss_sgmii.c ****         {
 897              		.loc 1 602 14
 898 004e 99C6     		beq	a3,zero,.L58
 899              	.L59:
 607:../src/platform/mpfs_hal/common/nwc/mss_sgmii.c ****         {
 900              		.loc 1 607 43
 901 0050 03A78720 		lw	a4,520(a5)
 607:../src/platform/mpfs_hal/common/nwc/mss_sgmii.c ****         {
 902              		.loc 1 607 53
 903 0054 118B     		andi	a4,a4,4
 607:../src/platform/mpfs_hal/common/nwc/mss_sgmii.c ****         {
 904              		.loc 1 607 14
 905 0056 19C7     		beq	a4,zero,.L60
 627:../src/platform/mpfs_hal/common/nwc/mss_sgmii.c **** 
 906              		.loc 1 627 1
 907 0058 4101     		addi	sp,sp,16
 908              		.cfi_remember_state
 909              		.cfi_def_cfa_offset 0
 910 005a 8280     		jr	ra
 911              	.L58:
 912              		.cfi_restore_state
 604:../src/platform/mpfs_hal/common/nwc/mss_sgmii.c ****         }
 913              		.loc 1 604 13 is_stmt 1
 604:../src/platform/mpfs_hal/common/nwc/mss_sgmii.c ****         }
 914              		.loc 1 604 22 is_stmt 0
 915 005c B246     		lw	a3,12(sp)
 916 005e 8526     		addiw	a3,a3,1
 917 0060 36C6     		sw	a3,12(sp)
 918 0062 E5B7     		j	.L57
 919              	.L60:
 609:../src/platform/mpfs_hal/common/nwc/mss_sgmii.c ****         }
 920              		.loc 1 609 13 is_stmt 1
 609:../src/platform/mpfs_hal/common/nwc/mss_sgmii.c ****         }
 921              		.loc 1 609 22 is_stmt 0
 922 0064 3247     		lw	a4,12(sp)
 923 0066 0527     		addiw	a4,a4,1
 924 0068 3AC6     		sw	a4,12(sp)
 925 006a DDB7     		j	.L59
 926              		.cfi_endproc
 927              	.LFE28:
 929              		.section	.sbss.sgmii_training_state.14156,"aw",@nobits
 930              		.align	2
 931              		.set	.LANCHOR0,. + 0
 934              	sgmii_training_state.14156:
 935 0000 00000000 		.zero	4
 936              		.section	.sbss.silicon_variant,"aw",@nobits
 937              		.align	2
 938              		.set	.LANCHOR3,. + 0
 941              	silicon_variant:
 942 0000 00000000 		.zero	4
 943              		.section	.sbss.timer_out.14158,"aw",@nobits
 944              		.align	2
 945              		.set	.LANCHOR2,. + 0
 948              	timer_out.14158:
 949 0000 00000000 		.zero	4
 950              		.section	.sdata.status.14157,"aw"
 951              		.align	2
 952              		.set	.LANCHOR1,. + 0
 955              	status.14157:
 956 0000 01000000 		.word	1
 957              		.text
 958              	.Letext0:
 959              		.file 2 "/home/vinay/Desktop/soft_console/SoftConsole-v2022.2-RISC-V-747/riscv-unknown-elf-gcc/lib
 960              		.file 3 "/home/vinay/Desktop/soft_console/SoftConsole-v2022.2-RISC-V-747/riscv-unknown-elf-gcc/ris
 961              		.file 4 "/home/vinay/Desktop/soft_console/SoftConsole-v2022.2-RISC-V-747/riscv-unknown-elf-gcc/ris
 962              		.file 5 "/home/vinay/Desktop/soft_console/SoftConsole-v2022.2-RISC-V-747/riscv-unknown-elf-gcc/ris
 963              		.file 6 "/home/vinay/Desktop/soft_console/SoftConsole-v2022.2-RISC-V-747/riscv-unknown-elf-gcc/ris
 964              		.file 7 "/home/vinay/Desktop/soft_console/SoftConsole-v2022.2-RISC-V-747/riscv-unknown-elf-gcc/ris
 965              		.file 8 "/home/vinay/Desktop/softconsole_watershed/Water-shed/src/platform/mpfs_hal/common/nwc/mss
 966              		.file 9 "/home/vinay/Desktop/softconsole_watershed/Water-shed/src/platform/mpfs_hal/common/nwc/mss
 967              		.file 10 "/home/vinay/Desktop/softconsole_watershed/Water-shed/src/platform/mpfs_hal/common/nwc/ms
 968              		.file 11 "/home/vinay/Desktop/softconsole_watershed/Water-shed/src/platform/mpfs_hal/common/mss_mp
 969              		.file 12 "/home/vinay/Desktop/softconsole_watershed/Water-shed/src/platform/mpfs_hal/common/mss_pl
 970              		.file 13 "/home/vinay/Desktop/softconsole_watershed/Water-shed/src/platform/mpfs_hal/common/nwc/ms
 971              		.file 14 "/home/vinay/Desktop/softconsole_watershed/Water-shed/src/platform/mpfs_hal/common/mss_pe
 972              		.file 15 "/home/vinay/Desktop/softconsole_watershed/Water-shed/src/platform/mpfs_hal/common/nwc/ms
 973              		.file 16 "/home/vinay/Desktop/softconsole_watershed/Water-shed/src/platform/mpfs_hal/startup_gcc/s
DEFINED SYMBOLS
                            *ABS*:0000000000000000 mss_sgmii.c
     /tmp/ccP2IRDu.s:12     .text.setup_sgmii_rpc_per_config:0000000000000000 setup_sgmii_rpc_per_config
     /tmp/ccP2IRDu.s:16     .text.setup_sgmii_rpc_per_config:0000000000000000 .L0 
     /tmp/ccP2IRDu.s:17     .text.setup_sgmii_rpc_per_config:0000000000000000 .L0 
     /tmp/ccP2IRDu.s:18     .text.setup_sgmii_rpc_per_config:0000000000000000 .L0 
     /tmp/ccP2IRDu.s:19     .text.setup_sgmii_rpc_per_config:0000000000000000 .L0 
     /tmp/ccP2IRDu.s:22     .text.setup_sgmii_rpc_per_config:000000000000000a .L0 
     /tmp/ccP2IRDu.s:28     .text.setup_sgmii_rpc_per_config:000000000000001a .L0 
     /tmp/ccP2IRDu.s:29     .text.setup_sgmii_rpc_per_config:000000000000001a .L0 
     /tmp/ccP2IRDu.s:33     .text.setup_sgmii_rpc_per_config:0000000000000026 .L0 
     /tmp/ccP2IRDu.s:34     .text.setup_sgmii_rpc_per_config:0000000000000026 .L0 
     /tmp/ccP2IRDu.s:36     .text.setup_sgmii_rpc_per_config:000000000000002a .L0 
     /tmp/ccP2IRDu.s:37     .text.setup_sgmii_rpc_per_config:000000000000002a .L0 
     /tmp/ccP2IRDu.s:41     .text.setup_sgmii_rpc_per_config:0000000000000034 .L0 
     /tmp/ccP2IRDu.s:42     .text.setup_sgmii_rpc_per_config:0000000000000034 .L0 
     /tmp/ccP2IRDu.s:46     .text.setup_sgmii_rpc_per_config:0000000000000040 .L0 
     /tmp/ccP2IRDu.s:47     .text.setup_sgmii_rpc_per_config:0000000000000040 .L0 
     /tmp/ccP2IRDu.s:50     .text.setup_sgmii_rpc_per_config:0000000000000048 .L0 
     /tmp/ccP2IRDu.s:51     .text.setup_sgmii_rpc_per_config:0000000000000048 .L0 
     /tmp/ccP2IRDu.s:55     .text.setup_sgmii_rpc_per_config:0000000000000054 .L0 
     /tmp/ccP2IRDu.s:56     .text.setup_sgmii_rpc_per_config:0000000000000056 .L0 
     /tmp/ccP2IRDu.s:63     .text.sgmii_setup:0000000000000000 sgmii_setup
     /tmp/ccP2IRDu.s:66     .text.sgmii_setup:0000000000000000 .L0 
     /tmp/ccP2IRDu.s:67     .text.sgmii_setup:0000000000000000 .L0 
     /tmp/ccP2IRDu.s:68     .text.sgmii_setup:0000000000000000 .L0 
     /tmp/ccP2IRDu.s:69     .text.sgmii_setup:0000000000000000 .L0 
     /tmp/ccP2IRDu.s:70     .text.sgmii_setup:0000000000000000 .L0 
     /tmp/ccP2IRDu.s:71     .text.sgmii_setup:0000000000000002 .L0 
     /tmp/ccP2IRDu.s:76     .text.sgmii_setup:000000000000000a .L0 
     /tmp/ccP2IRDu.s:77     .text.sgmii_setup:000000000000000a .L0 
     /tmp/ccP2IRDu.s:78     .text.sgmii_setup:000000000000000a .L0 
     /tmp/ccP2IRDu.s:79     .text.sgmii_setup:000000000000000a .L0 
     /tmp/ccP2IRDu.s:83     .text.sgmii_setup:000000000000000a .L0 
     /tmp/ccP2IRDu.s:87     .text.sgmii_setup:000000000000000c .L0 
     /tmp/ccP2IRDu.s:91     .text.sgmii_setup:0000000000000010 .L0 
     /tmp/ccP2IRDu.s:95     .text.sgmii_setup:0000000000000012 .L0 
     /tmp/ccP2IRDu.s:101    .text.sgmii_setup:0000000000000016 .L0 
     /tmp/ccP2IRDu.s:104    .text.sgmii_setup:000000000000001c .L0 
     /tmp/ccP2IRDu.s:105    .text.sgmii_setup:000000000000001c .L0 
     /tmp/ccP2IRDu.s:106    .text.sgmii_setup:000000000000001c .L0 
     /tmp/ccP2IRDu.s:112    .text.sgmii_setup:000000000000001c .L0 
     /tmp/ccP2IRDu.s:116    .text.sgmii_setup:0000000000000020 .L0 
     /tmp/ccP2IRDu.s:118    .text.sgmii_setup:0000000000000024 .L0 
     /tmp/ccP2IRDu.s:122    .text.sgmii_setup:0000000000000028 .L0 
     /tmp/ccP2IRDu.s:131    .text.sgmii_setup:000000000000002c .L0 
     /tmp/ccP2IRDu.s:132    .text.sgmii_setup:000000000000002c .L0 
     /tmp/ccP2IRDu.s:133    .text.sgmii_setup:000000000000002c .L0 
     /tmp/ccP2IRDu.s:134    .text.sgmii_setup:000000000000002c .L0 
     /tmp/ccP2IRDu.s:135    .text.sgmii_setup:000000000000002c .L0 
     /tmp/ccP2IRDu.s:168    .text.sgmii_setup:0000000000000056 .L0 
     /tmp/ccP2IRDu.s:169    .text.sgmii_setup:0000000000000056 .L0 
     /tmp/ccP2IRDu.s:172    .text.sgmii_setup:0000000000000060 .L0 
     /tmp/ccP2IRDu.s:173    .text.sgmii_setup:0000000000000060 .L0 
     /tmp/ccP2IRDu.s:176    .text.sgmii_setup:000000000000006a .L0 
     /tmp/ccP2IRDu.s:180    .text.sgmii_setup:0000000000000074 .L0 
     /tmp/ccP2IRDu.s:181    .text.sgmii_setup:0000000000000074 .L0 
     /tmp/ccP2IRDu.s:183    .text.sgmii_setup:0000000000000078 .L0 
     /tmp/ccP2IRDu.s:186    .text.sgmii_setup:0000000000000080 .L0 
     /tmp/ccP2IRDu.s:187    .text.sgmii_setup:0000000000000080 .L0 
     /tmp/ccP2IRDu.s:190    .text.sgmii_setup:0000000000000088 .L0 
     /tmp/ccP2IRDu.s:191    .text.sgmii_setup:0000000000000088 .L0 
     /tmp/ccP2IRDu.s:194    .text.sgmii_setup:0000000000000090 .L0 
     /tmp/ccP2IRDu.s:197    .text.sgmii_setup:0000000000000090 .L0 
     /tmp/ccP2IRDu.s:198    .text.sgmii_setup:0000000000000090 .L0 
     /tmp/ccP2IRDu.s:202    .text.sgmii_setup:000000000000009c .L0 
     /tmp/ccP2IRDu.s:203    .text.sgmii_setup:000000000000009c .L0 
     /tmp/ccP2IRDu.s:204    .text.sgmii_setup:000000000000009e .L0 
     /tmp/ccP2IRDu.s:205    .text.sgmii_setup:000000000000009e .L0 
     /tmp/ccP2IRDu.s:207    .text.sgmii_setup:00000000000000a0 .L0 
     /tmp/ccP2IRDu.s:209    .text.sgmii_setup:00000000000000a2 .L0 
     /tmp/ccP2IRDu.s:211    .text.sgmii_setup:00000000000000a4 .L0 
     /tmp/ccP2IRDu.s:213    .text.sgmii_setup:00000000000000a6 .L0 
     /tmp/ccP2IRDu.s:215    .text.sgmii_setup:00000000000000a8 .L0 
     /tmp/ccP2IRDu.s:217    .text.sgmii_setup:00000000000000aa .L0 
     /tmp/ccP2IRDu.s:220    .text.sgmii_setup:00000000000000ae .L0 
     /tmp/ccP2IRDu.s:223    .text.sgmii_setup:00000000000000b0 .L0 
     /tmp/ccP2IRDu.s:227    .text.sgmii_setup:00000000000000b0 .L0 
     /tmp/ccP2IRDu.s:228    .text.sgmii_setup:00000000000000b0 .L0 
     /tmp/ccP2IRDu.s:233    .text.sgmii_setup:00000000000000c4 .L0 
     /tmp/ccP2IRDu.s:234    .text.sgmii_setup:00000000000000c4 .L0 
     /tmp/ccP2IRDu.s:237    .text.sgmii_setup:00000000000000ce .L0 
     /tmp/ccP2IRDu.s:240    .text.sgmii_setup:00000000000000d4 .L0 
     /tmp/ccP2IRDu.s:242    .text.sgmii_setup:00000000000000d8 .L0 
     /tmp/ccP2IRDu.s:244    .text.sgmii_setup:00000000000000da .L0 
     /tmp/ccP2IRDu.s:245    .text.sgmii_setup:00000000000000da .L0 
     /tmp/ccP2IRDu.s:247    .text.sgmii_setup:00000000000000e2 .L0 
     /tmp/ccP2IRDu.s:248    .text.sgmii_setup:00000000000000e2 .L0 
     /tmp/ccP2IRDu.s:251    .text.sgmii_setup:00000000000000e4 .L0 
     /tmp/ccP2IRDu.s:255    .text.sgmii_setup:00000000000000ee .L0 
     /tmp/ccP2IRDu.s:256    .text.sgmii_setup:00000000000000ee .L0 
     /tmp/ccP2IRDu.s:259    .text.sgmii_setup:00000000000000f8 .L0 
     /tmp/ccP2IRDu.s:261    .text.sgmii_setup:00000000000000fa .L0 
     /tmp/ccP2IRDu.s:264    .text.sgmii_setup:0000000000000100 .L0 
     /tmp/ccP2IRDu.s:265    .text.sgmii_setup:0000000000000100 .L0 
     /tmp/ccP2IRDu.s:268    .text.sgmii_setup:0000000000000104 .L0 
     /tmp/ccP2IRDu.s:272    .text.sgmii_setup:000000000000010e .L0 
     /tmp/ccP2IRDu.s:273    .text.sgmii_setup:000000000000010e .L0 
     /tmp/ccP2IRDu.s:275    .text.sgmii_setup:0000000000000116 .L0 
     /tmp/ccP2IRDu.s:276    .text.sgmii_setup:0000000000000116 .L0 
     /tmp/ccP2IRDu.s:280    .text.sgmii_setup:000000000000011a .L0 
     /tmp/ccP2IRDu.s:281    .text.sgmii_setup:000000000000011a .L0 
     /tmp/ccP2IRDu.s:284    .text.sgmii_setup:0000000000000124 .L0 
     /tmp/ccP2IRDu.s:286    .text.sgmii_setup:0000000000000128 .L0 
     /tmp/ccP2IRDu.s:288    .text.sgmii_setup:000000000000012c .L0 
     /tmp/ccP2IRDu.s:290    .text.sgmii_setup:0000000000000130 .L0 
     /tmp/ccP2IRDu.s:291    .text.sgmii_setup:0000000000000130 .L0 
     /tmp/ccP2IRDu.s:294    .text.sgmii_setup:0000000000000134 .L0 
     /tmp/ccP2IRDu.s:295    .text.sgmii_setup:0000000000000134 .L0 
     /tmp/ccP2IRDu.s:298    .text.sgmii_setup:000000000000013a .L0 
     /tmp/ccP2IRDu.s:299    .text.sgmii_setup:000000000000013a .L0 
     /tmp/ccP2IRDu.s:302    .text.sgmii_setup:0000000000000140 .L0 
     /tmp/ccP2IRDu.s:303    .text.sgmii_setup:0000000000000140 .L0 
     /tmp/ccP2IRDu.s:306    .text.sgmii_setup:000000000000014a .L0 
     /tmp/ccP2IRDu.s:309    .text.sgmii_setup:0000000000000150 .L0 
     /tmp/ccP2IRDu.s:310    .text.sgmii_setup:0000000000000150 .L0 
     /tmp/ccP2IRDu.s:313    .text.sgmii_setup:0000000000000158 .L0 
     /tmp/ccP2IRDu.s:314    .text.sgmii_setup:0000000000000158 .L0 
     /tmp/ccP2IRDu.s:317    .text.sgmii_setup:0000000000000162 .L0 
     /tmp/ccP2IRDu.s:319    .text.sgmii_setup:0000000000000164 .L0 
     /tmp/ccP2IRDu.s:320    .text.sgmii_setup:0000000000000164 .L0 
     /tmp/ccP2IRDu.s:322    .text.sgmii_setup:0000000000000168 .L0 
     /tmp/ccP2IRDu.s:323    .text.sgmii_setup:0000000000000168 .L0 
     /tmp/ccP2IRDu.s:327    .text.sgmii_setup:000000000000016c .L0 
     /tmp/ccP2IRDu.s:328    .text.sgmii_setup:000000000000016c .L0 
     /tmp/ccP2IRDu.s:331    .text.sgmii_setup:0000000000000176 .L0 
     /tmp/ccP2IRDu.s:334    .text.sgmii_setup:000000000000017c .L0 
     /tmp/ccP2IRDu.s:336    .text.sgmii_setup:0000000000000180 .L0 
     /tmp/ccP2IRDu.s:338    .text.sgmii_setup:0000000000000182 .L0 
     /tmp/ccP2IRDu.s:342    .text.sgmii_setup:0000000000000188 .L0 
     /tmp/ccP2IRDu.s:343    .text.sgmii_setup:0000000000000188 .L0 
     /tmp/ccP2IRDu.s:352    .text.sgmii_setup:00000000000001a4 .L0 
     /tmp/ccP2IRDu.s:353    .text.sgmii_setup:00000000000001a4 .L0 
     /tmp/ccP2IRDu.s:361    .text.sgmii_setup:00000000000001b8 .L0 
     /tmp/ccP2IRDu.s:362    .text.sgmii_setup:00000000000001b8 .L0 
     /tmp/ccP2IRDu.s:366    .text.sgmii_setup:00000000000001bc .L0 
     /tmp/ccP2IRDu.s:370    .text.sgmii_setup:00000000000001c6 .L0 
     /tmp/ccP2IRDu.s:374    .text.sgmii_setup:00000000000001d0 .L0 
     /tmp/ccP2IRDu.s:375    .text.sgmii_setup:00000000000001d0 .L0 
     /tmp/ccP2IRDu.s:377    .text.sgmii_setup:00000000000001d8 .L0 
     /tmp/ccP2IRDu.s:378    .text.sgmii_setup:00000000000001d8 .L0 
     /tmp/ccP2IRDu.s:382    .text.sgmii_setup:00000000000001dc .L0 
     /tmp/ccP2IRDu.s:383    .text.sgmii_setup:00000000000001dc .L0 
     /tmp/ccP2IRDu.s:386    .text.sgmii_setup:00000000000001e6 .L0 
     /tmp/ccP2IRDu.s:389    .text.sgmii_setup:00000000000001ec .L0 
     /tmp/ccP2IRDu.s:391    .text.sgmii_setup:00000000000001f0 .L0 
     /tmp/ccP2IRDu.s:393    .text.sgmii_setup:00000000000001f4 .L0 
     /tmp/ccP2IRDu.s:394    .text.sgmii_setup:00000000000001f4 .L0 
     /tmp/ccP2IRDu.s:398    .text.sgmii_setup:00000000000001f8 .L0 
     /tmp/ccP2IRDu.s:399    .text.sgmii_setup:00000000000001f8 .L0 
     /tmp/ccP2IRDu.s:402    .text.sgmii_setup:0000000000000202 .L0 
     /tmp/ccP2IRDu.s:405    .text.sgmii_setup:0000000000000208 .L0 
     /tmp/ccP2IRDu.s:407    .text.sgmii_setup:000000000000020c .L0 
     /tmp/ccP2IRDu.s:409    .text.sgmii_setup:000000000000020e .L0 
     /tmp/ccP2IRDu.s:413    .text.sgmii_setup:0000000000000214 .L0 
     /tmp/ccP2IRDu.s:414    .text.sgmii_setup:0000000000000214 .L0 
     /tmp/ccP2IRDu.s:420    .text.sgmii_setup:0000000000000222 .L0 
     /tmp/ccP2IRDu.s:421    .text.sgmii_setup:0000000000000222 .L0 
     /tmp/ccP2IRDu.s:427    .text.sgmii_setup:0000000000000230 .L0 
     /tmp/ccP2IRDu.s:428    .text.sgmii_setup:0000000000000230 .L0 
     /tmp/ccP2IRDu.s:435    .text.sgmii_setup:0000000000000240 .L0 
     /tmp/ccP2IRDu.s:436    .text.sgmii_setup:0000000000000240 .L0 
     /tmp/ccP2IRDu.s:442    .text.sgmii_setup:000000000000024c .L0 
     /tmp/ccP2IRDu.s:443    .text.sgmii_setup:000000000000024c .L0 
     /tmp/ccP2IRDu.s:447    .text.sgmii_setup:0000000000000250 .L0 
     /tmp/ccP2IRDu.s:448    .text.sgmii_setup:0000000000000250 .L0 
     /tmp/ccP2IRDu.s:451    .text.sgmii_setup:000000000000025a .L0 
     /tmp/ccP2IRDu.s:454    .text.sgmii_setup:0000000000000260 .L0 
     /tmp/ccP2IRDu.s:456    .text.sgmii_setup:0000000000000264 .L0 
     /tmp/ccP2IRDu.s:458    .text.sgmii_setup:0000000000000266 .L0 
     /tmp/ccP2IRDu.s:459    .text.sgmii_setup:0000000000000266 .L0 
     /tmp/ccP2IRDu.s:462    .text.sgmii_setup:000000000000026e .L0 
     /tmp/ccP2IRDu.s:463    .text.sgmii_setup:000000000000026e .L0 
     /tmp/ccP2IRDu.s:469    .text.sgmii_setup:0000000000000278 .L0 
     /tmp/ccP2IRDu.s:470    .text.sgmii_setup:0000000000000278 .L0 
     /tmp/ccP2IRDu.s:471    .text.sgmii_setup:0000000000000278 .L0 
     /tmp/ccP2IRDu.s:472    .text.sgmii_setup:0000000000000278 .L0 
     /tmp/ccP2IRDu.s:473    .text.sgmii_setup:0000000000000278 .L0 
     /tmp/ccP2IRDu.s:474    .text.sgmii_setup:0000000000000278 .L0 
     /tmp/ccP2IRDu.s:475    .text.sgmii_setup:0000000000000278 .L0 
     /tmp/ccP2IRDu.s:479    .text.sgmii_setup:0000000000000280 .L0 
     /tmp/ccP2IRDu.s:480    .text.sgmii_setup:0000000000000280 .L0 
     /tmp/ccP2IRDu.s:481    .text.sgmii_setup:0000000000000280 .L0 
     /tmp/ccP2IRDu.s:485    .text.sgmii_setup:000000000000028c .L0 
     /tmp/ccP2IRDu.s:486    .text.sgmii_setup:000000000000028c .L0 
     /tmp/ccP2IRDu.s:492    .text.sgmii_setup:0000000000000290 .L0 
     /tmp/ccP2IRDu.s:493    .text.sgmii_setup:0000000000000290 .L0 
     /tmp/ccP2IRDu.s:497    .text.sgmii_setup:0000000000000294 .L0 
     /tmp/ccP2IRDu.s:498    .text.sgmii_setup:0000000000000294 .L0 
     /tmp/ccP2IRDu.s:500    .text.sgmii_setup:0000000000000298 .L0 
     /tmp/ccP2IRDu.s:504    .text.sgmii_setup:00000000000002a2 .L0 
     /tmp/ccP2IRDu.s:505    .text.sgmii_setup:00000000000002a2 .L0 
     /tmp/ccP2IRDu.s:511    .text.sgmii_setup:00000000000002ac .L0 
     /tmp/ccP2IRDu.s:512    .text.sgmii_setup:00000000000002ac .L0 
     /tmp/ccP2IRDu.s:513    .text.sgmii_setup:00000000000002ac .L0 
     /tmp/ccP2IRDu.s:514    .text.sgmii_setup:00000000000002ac .L0 
     /tmp/ccP2IRDu.s:515    .text.sgmii_setup:00000000000002ac .L0 
     /tmp/ccP2IRDu.s:516    .text.sgmii_setup:00000000000002ac .L0 
     /tmp/ccP2IRDu.s:517    .text.sgmii_setup:00000000000002ac .L0 
     /tmp/ccP2IRDu.s:521    .text.sgmii_setup:00000000000002b4 .L0 
     /tmp/ccP2IRDu.s:522    .text.sgmii_setup:00000000000002b4 .L0 
     /tmp/ccP2IRDu.s:523    .text.sgmii_setup:00000000000002b4 .L0 
     /tmp/ccP2IRDu.s:525    .text.sgmii_setup:00000000000002b8 .L0 
     /tmp/ccP2IRDu.s:526    .text.sgmii_setup:00000000000002b8 .L0 
     /tmp/ccP2IRDu.s:533    .text.sgmii_setup:00000000000002be .L0 
     /tmp/ccP2IRDu.s:534    .text.sgmii_setup:00000000000002be .L0 
     /tmp/ccP2IRDu.s:540    .text.sgmii_setup:00000000000002c8 .L0 
     /tmp/ccP2IRDu.s:541    .text.sgmii_setup:00000000000002c8 .L0 
     /tmp/ccP2IRDu.s:542    .text.sgmii_setup:00000000000002c8 .L0 
     /tmp/ccP2IRDu.s:543    .text.sgmii_setup:00000000000002c8 .L0 
     /tmp/ccP2IRDu.s:544    .text.sgmii_setup:00000000000002c8 .L0 
     /tmp/ccP2IRDu.s:545    .text.sgmii_setup:00000000000002c8 .L0 
     /tmp/ccP2IRDu.s:546    .text.sgmii_setup:00000000000002c8 .L0 
     /tmp/ccP2IRDu.s:550    .text.sgmii_setup:00000000000002d0 .L0 
     /tmp/ccP2IRDu.s:551    .text.sgmii_setup:00000000000002d0 .L0 
     /tmp/ccP2IRDu.s:552    .text.sgmii_setup:00000000000002d0 .L0 
     /tmp/ccP2IRDu.s:554    .text.sgmii_setup:00000000000002d4 .L0 
     /tmp/ccP2IRDu.s:555    .text.sgmii_setup:00000000000002d4 .L0 
     /tmp/ccP2IRDu.s:562    .text.sgmii_setup:00000000000002da .L0 
     /tmp/ccP2IRDu.s:563    .text.sgmii_setup:00000000000002da .L0 
     /tmp/ccP2IRDu.s:566    .text.sgmii_setup:00000000000002e4 .L0 
     /tmp/ccP2IRDu.s:568    .text.sgmii_setup:00000000000002e8 .L0 
     /tmp/ccP2IRDu.s:571    .text.sgmii_setup:00000000000002ee .L0 
     /tmp/ccP2IRDu.s:572    .text.sgmii_setup:00000000000002ee .L0 
     /tmp/ccP2IRDu.s:574    .text.sgmii_setup:00000000000002f2 .L0 
     /tmp/ccP2IRDu.s:575    .text.sgmii_setup:00000000000002f2 .L0 
     /tmp/ccP2IRDu.s:580    .text.sgmii_setup:0000000000000302 .L0 
     /tmp/ccP2IRDu.s:581    .text.sgmii_setup:0000000000000302 .L0 
     /tmp/ccP2IRDu.s:583    .text.sgmii_setup:000000000000030a .L0 
     /tmp/ccP2IRDu.s:584    .text.sgmii_setup:000000000000030a .L0 
     /tmp/ccP2IRDu.s:588    .text.sgmii_setup:000000000000030e .L0 
     /tmp/ccP2IRDu.s:589    .text.sgmii_setup:000000000000030e .L0 
     /tmp/ccP2IRDu.s:594    .text.sgmii_setup:000000000000031e .L0 
     /tmp/ccP2IRDu.s:595    .text.sgmii_setup:000000000000031e .L0 
     /tmp/ccP2IRDu.s:597    .text.sgmii_setup:0000000000000322 .L0 
     /tmp/ccP2IRDu.s:598    .text.sgmii_setup:0000000000000322 .L0 
     /tmp/ccP2IRDu.s:600    .text.sgmii_setup:000000000000032a .L0 
     /tmp/ccP2IRDu.s:601    .text.sgmii_setup:000000000000032a .L0 
     /tmp/ccP2IRDu.s:605    .text.sgmii_setup:000000000000032e .L0 
     /tmp/ccP2IRDu.s:606    .text.sgmii_setup:000000000000032e .L0 
     /tmp/ccP2IRDu.s:609    .text.sgmii_setup:0000000000000338 .L0 
     /tmp/ccP2IRDu.s:615    .text.sgmii_setup:000000000000033e .L0 
     /tmp/ccP2IRDu.s:616    .text.sgmii_setup:000000000000033e .L0 
     /tmp/ccP2IRDu.s:617    .text.sgmii_setup:000000000000033e .L0 
     /tmp/ccP2IRDu.s:618    .text.sgmii_setup:000000000000033e .L0 
     /tmp/ccP2IRDu.s:619    .text.sgmii_setup:000000000000033e .L0 
     /tmp/ccP2IRDu.s:620    .text.sgmii_setup:000000000000033e .L0 
     /tmp/ccP2IRDu.s:621    .text.sgmii_setup:000000000000033e .L0 
     /tmp/ccP2IRDu.s:625    .text.sgmii_setup:0000000000000346 .L0 
     /tmp/ccP2IRDu.s:626    .text.sgmii_setup:0000000000000346 .L0 
     /tmp/ccP2IRDu.s:627    .text.sgmii_setup:0000000000000346 .L0 
     /tmp/ccP2IRDu.s:629    .text.sgmii_setup:000000000000034a .L0 
     /tmp/ccP2IRDu.s:630    .text.sgmii_setup:000000000000034a .L0 
     /tmp/ccP2IRDu.s:635    .text.sgmii_setup:000000000000034e .L0 
     /tmp/ccP2IRDu.s:636    .text.sgmii_setup:000000000000034e .L0 
     /tmp/ccP2IRDu.s:638    .text.sgmii_setup:0000000000000352 .L0 
     /tmp/ccP2IRDu.s:639    .text.sgmii_setup:0000000000000352 .L0 
     /tmp/ccP2IRDu.s:643    .text.sgmii_setup:000000000000035a .L0 
     /tmp/ccP2IRDu.s:644    .text.sgmii_setup:000000000000035a .L0 
     /tmp/ccP2IRDu.s:648    .text.sgmii_setup:000000000000035e .L0 
     /tmp/ccP2IRDu.s:649    .text.sgmii_setup:000000000000035e .L0 
     /tmp/ccP2IRDu.s:651    .text.sgmii_setup:0000000000000366 .L0 
     /tmp/ccP2IRDu.s:654    .text.sgmii_setup:0000000000000368 .L0 
     /tmp/ccP2IRDu.s:661    .text.sgmii_off_mode:0000000000000000 sgmii_off_mode
     /tmp/ccP2IRDu.s:664    .text.sgmii_off_mode:0000000000000000 .L0 
     /tmp/ccP2IRDu.s:665    .text.sgmii_off_mode:0000000000000000 .L0 
     /tmp/ccP2IRDu.s:666    .text.sgmii_off_mode:0000000000000000 .L0 
     /tmp/ccP2IRDu.s:667    .text.sgmii_off_mode:0000000000000000 .L0 
     /tmp/ccP2IRDu.s:670    .text.sgmii_off_mode:000000000000000a .L0 
     /tmp/ccP2IRDu.s:671    .text.sgmii_off_mode:000000000000000c .L0 
     /tmp/ccP2IRDu.s:673    .text.sgmii_off_mode:000000000000000c .L0 
     /tmp/ccP2IRDu.s:675    .text.sgmii_off_mode:000000000000000e .L0 
     /tmp/ccP2IRDu.s:677    .text.sgmii_off_mode:0000000000000012 .L0 
     /tmp/ccP2IRDu.s:678    .text.sgmii_off_mode:0000000000000012 .L0 
     /tmp/ccP2IRDu.s:680    .text.sgmii_off_mode:0000000000000012 .L0 
     /tmp/ccP2IRDu.s:684    .text.sgmii_off_mode:000000000000001c .L0 
     /tmp/ccP2IRDu.s:685    .text.sgmii_off_mode:000000000000001c .L0 
     /tmp/ccP2IRDu.s:688    .text.sgmii_off_mode:0000000000000022 .L0 
     /tmp/ccP2IRDu.s:691    .text.sgmii_off_mode:000000000000002a .L0 
     /tmp/ccP2IRDu.s:692    .text.sgmii_off_mode:000000000000002a .L0 
     /tmp/ccP2IRDu.s:695    .text.sgmii_off_mode:0000000000000030 .L0 
     /tmp/ccP2IRDu.s:696    .text.sgmii_off_mode:0000000000000032 .L0 
     /tmp/ccP2IRDu.s:698    .text.sgmii_off_mode:0000000000000034 .L0 
     /tmp/ccP2IRDu.s:700    .text.sgmii_off_mode:0000000000000036 .L0 
     /tmp/ccP2IRDu.s:702    .text.sgmii_off_mode:0000000000000038 .L0 
     /tmp/ccP2IRDu.s:709    .text.ddr_pvt_calibration:0000000000000000 ddr_pvt_calibration
     /tmp/ccP2IRDu.s:712    .text.ddr_pvt_calibration:0000000000000000 .L0 
     /tmp/ccP2IRDu.s:713    .text.ddr_pvt_calibration:0000000000000000 .L0 
     /tmp/ccP2IRDu.s:714    .text.ddr_pvt_calibration:0000000000000000 .L0 
     /tmp/ccP2IRDu.s:715    .text.ddr_pvt_calibration:0000000000000000 .L0 
     /tmp/ccP2IRDu.s:718    .text.ddr_pvt_calibration:000000000000000a .L0 
     /tmp/ccP2IRDu.s:719    .text.ddr_pvt_calibration:000000000000000c .L0 
     /tmp/ccP2IRDu.s:721    .text.ddr_pvt_calibration:000000000000000c .L0 
     /tmp/ccP2IRDu.s:724    .text.ddr_pvt_calibration:000000000000000e .L0 
     /tmp/ccP2IRDu.s:725    .text.ddr_pvt_calibration:000000000000000e .L0 
     /tmp/ccP2IRDu.s:727    .text.ddr_pvt_calibration:0000000000000012 .L0 
     /tmp/ccP2IRDu.s:729    .text.ddr_pvt_calibration:0000000000000014 .L0 
     /tmp/ccP2IRDu.s:731    .text.ddr_pvt_calibration:0000000000000016 .L0 
     /tmp/ccP2IRDu.s:732    .text.ddr_pvt_calibration:0000000000000016 .L0 
     /tmp/ccP2IRDu.s:734    .text.ddr_pvt_calibration:0000000000000018 .L0 
     /tmp/ccP2IRDu.s:735    .text.ddr_pvt_calibration:0000000000000018 .L0 
     /tmp/ccP2IRDu.s:738    .text.ddr_pvt_calibration:000000000000001a .L0 
     /tmp/ccP2IRDu.s:741    .text.ddr_pvt_calibration:000000000000001e .L0 
     /tmp/ccP2IRDu.s:743    .text.ddr_pvt_calibration:0000000000000022 .L0 
     /tmp/ccP2IRDu.s:744    .text.ddr_pvt_calibration:0000000000000022 .L0 
     /tmp/ccP2IRDu.s:747    .text.ddr_pvt_calibration:0000000000000028 .L0 
     /tmp/ccP2IRDu.s:748    .text.ddr_pvt_calibration:0000000000000028 .L0 
     /tmp/ccP2IRDu.s:751    .text.ddr_pvt_calibration:0000000000000032 .L0 
     /tmp/ccP2IRDu.s:754    .text.ddr_pvt_calibration:0000000000000036 .L0 
     /tmp/ccP2IRDu.s:755    .text.ddr_pvt_calibration:0000000000000036 .L0 
     /tmp/ccP2IRDu.s:757    .text.ddr_pvt_calibration:000000000000003a .L0 
     /tmp/ccP2IRDu.s:758    .text.ddr_pvt_calibration:000000000000003a .L0 
     /tmp/ccP2IRDu.s:761    .text.ddr_pvt_calibration:000000000000003c .L0 
     /tmp/ccP2IRDu.s:762    .text.ddr_pvt_calibration:000000000000003c .L0 
     /tmp/ccP2IRDu.s:764    .text.ddr_pvt_calibration:000000000000003e .L0 
     /tmp/ccP2IRDu.s:766    .text.ddr_pvt_calibration:0000000000000040 .L0 
     /tmp/ccP2IRDu.s:769    .text.ddr_pvt_calibration:0000000000000042 .L0 
     /tmp/ccP2IRDu.s:771    .text.ddr_pvt_calibration:0000000000000046 .L0 
     /tmp/ccP2IRDu.s:773    .text.ddr_pvt_calibration:0000000000000048 .L0 
     /tmp/ccP2IRDu.s:775    .text.ddr_pvt_calibration:000000000000004a .L0 
     /tmp/ccP2IRDu.s:776    .text.ddr_pvt_calibration:000000000000004a .L0 
     /tmp/ccP2IRDu.s:783    .text.ddr_pvt_calibration:000000000000005c .L0 
     /tmp/ccP2IRDu.s:784    .text.ddr_pvt_calibration:000000000000005c .L0 
     /tmp/ccP2IRDu.s:786    .text.ddr_pvt_calibration:000000000000005e .L0 
     /tmp/ccP2IRDu.s:788    .text.ddr_pvt_calibration:0000000000000060 .L0 
     /tmp/ccP2IRDu.s:792    .text.ddr_pvt_calibration:0000000000000066 .L0 
     /tmp/ccP2IRDu.s:793    .text.ddr_pvt_calibration:0000000000000066 .L0 
     /tmp/ccP2IRDu.s:798    .text.ddr_pvt_calibration:0000000000000072 .L0 
     /tmp/ccP2IRDu.s:799    .text.ddr_pvt_calibration:0000000000000072 .L0 
     /tmp/ccP2IRDu.s:804    .text.ddr_pvt_calibration:000000000000007a .L0 
     /tmp/ccP2IRDu.s:805    .text.ddr_pvt_calibration:000000000000007c .L0 
     /tmp/ccP2IRDu.s:806    .text.ddr_pvt_calibration:000000000000007c .L0 
     /tmp/ccP2IRDu.s:809    .text.ddr_pvt_calibration:000000000000007e .L0 
     /tmp/ccP2IRDu.s:811    .text.ddr_pvt_calibration:000000000000007e .L0 
     /tmp/ccP2IRDu.s:812    .text.ddr_pvt_calibration:000000000000007e .L0 
     /tmp/ccP2IRDu.s:818    .text.ddr_pvt_calibration:0000000000000086 .L0 
     /tmp/ccP2IRDu.s:819    .text.ddr_pvt_calibration:0000000000000086 .L0 
     /tmp/ccP2IRDu.s:825    .text.ddr_pvt_calibration:000000000000008e .L0 
     /tmp/ccP2IRDu.s:826    .text.ddr_pvt_calibration:000000000000008e .L0 
     /tmp/ccP2IRDu.s:832    .text.ddr_pvt_calibration:0000000000000096 .L0 
     /tmp/ccP2IRDu.s:833    .text.ddr_pvt_calibration:0000000000000096 .L0 
     /tmp/ccP2IRDu.s:837    .text.ddr_pvt_calibration:000000000000009e .L0 
     /tmp/ccP2IRDu.s:844    .text.ddr_pvt_recalibration:0000000000000000 ddr_pvt_recalibration
     /tmp/ccP2IRDu.s:847    .text.ddr_pvt_recalibration:0000000000000000 .L0 
     /tmp/ccP2IRDu.s:848    .text.ddr_pvt_recalibration:0000000000000000 .L0 
     /tmp/ccP2IRDu.s:849    .text.ddr_pvt_recalibration:0000000000000000 .L0 
     /tmp/ccP2IRDu.s:850    .text.ddr_pvt_recalibration:0000000000000000 .L0 
     /tmp/ccP2IRDu.s:853    .text.ddr_pvt_recalibration:000000000000000a .L0 
     /tmp/ccP2IRDu.s:854    .text.ddr_pvt_recalibration:000000000000000c .L0 
     /tmp/ccP2IRDu.s:856    .text.ddr_pvt_recalibration:000000000000000c .L0 
     /tmp/ccP2IRDu.s:858    .text.ddr_pvt_recalibration:000000000000000e .L0 
     /tmp/ccP2IRDu.s:859    .text.ddr_pvt_recalibration:000000000000000e .L0 
     /tmp/ccP2IRDu.s:866    .text.ddr_pvt_recalibration:0000000000000020 .L0 
     /tmp/ccP2IRDu.s:867    .text.ddr_pvt_recalibration:0000000000000020 .L0 
     /tmp/ccP2IRDu.s:870    .text.ddr_pvt_recalibration:000000000000002a .L0 
     /tmp/ccP2IRDu.s:872    .text.ddr_pvt_recalibration:000000000000002c .L0 
     /tmp/ccP2IRDu.s:877    .text.ddr_pvt_recalibration:0000000000000034 .L0 
     /tmp/ccP2IRDu.s:878    .text.ddr_pvt_recalibration:0000000000000034 .L0 
     /tmp/ccP2IRDu.s:883    .text.ddr_pvt_recalibration:0000000000000040 .L0 
     /tmp/ccP2IRDu.s:884    .text.ddr_pvt_recalibration:0000000000000040 .L0 
     /tmp/ccP2IRDu.s:889    .text.ddr_pvt_recalibration:0000000000000048 .L0 
     /tmp/ccP2IRDu.s:890    .text.ddr_pvt_recalibration:0000000000000048 .L0 
     /tmp/ccP2IRDu.s:893    .text.ddr_pvt_recalibration:000000000000004a .L0 
     /tmp/ccP2IRDu.s:894    .text.ddr_pvt_recalibration:000000000000004a .L0 
     /tmp/ccP2IRDu.s:896    .text.ddr_pvt_recalibration:000000000000004c .L0 
     /tmp/ccP2IRDu.s:898    .text.ddr_pvt_recalibration:000000000000004e .L0 
     /tmp/ccP2IRDu.s:901    .text.ddr_pvt_recalibration:0000000000000050 .L0 
     /tmp/ccP2IRDu.s:903    .text.ddr_pvt_recalibration:0000000000000054 .L0 
     /tmp/ccP2IRDu.s:905    .text.ddr_pvt_recalibration:0000000000000056 .L0 
     /tmp/ccP2IRDu.s:907    .text.ddr_pvt_recalibration:0000000000000058 .L0 
     /tmp/ccP2IRDu.s:908    .text.ddr_pvt_recalibration:000000000000005a .L0 
     /tmp/ccP2IRDu.s:909    .text.ddr_pvt_recalibration:000000000000005a .L0 
     /tmp/ccP2IRDu.s:912    .text.ddr_pvt_recalibration:000000000000005c .L0 
     /tmp/ccP2IRDu.s:914    .text.ddr_pvt_recalibration:000000000000005c .L0 
     /tmp/ccP2IRDu.s:915    .text.ddr_pvt_recalibration:000000000000005c .L0 
     /tmp/ccP2IRDu.s:921    .text.ddr_pvt_recalibration:0000000000000064 .L0 
     /tmp/ccP2IRDu.s:922    .text.ddr_pvt_recalibration:0000000000000064 .L0 
     /tmp/ccP2IRDu.s:926    .text.ddr_pvt_recalibration:000000000000006c .L0 
     /tmp/ccP2IRDu.s:931    .sbss.sgmii_training_state.14156:0000000000000000 .LANCHOR0
     /tmp/ccP2IRDu.s:934    .sbss.sgmii_training_state.14156:0000000000000000 sgmii_training_state.14156
     /tmp/ccP2IRDu.s:938    .sbss.silicon_variant:0000000000000000 .LANCHOR3
     /tmp/ccP2IRDu.s:941    .sbss.silicon_variant:0000000000000000 silicon_variant
     /tmp/ccP2IRDu.s:945    .sbss.timer_out.14158:0000000000000000 .LANCHOR2
     /tmp/ccP2IRDu.s:948    .sbss.timer_out.14158:0000000000000000 timer_out.14158
     /tmp/ccP2IRDu.s:952    .sdata.status.14157:0000000000000000 .LANCHOR1
     /tmp/ccP2IRDu.s:955    .sdata.status.14157:0000000000000000 status.14157
     /tmp/ccP2IRDu.s:59     .text.setup_sgmii_rpc_per_config:0000000000000056 .L0 
     /tmp/ccP2IRDu.s:657    .text.sgmii_setup:0000000000000368 .L0 
     /tmp/ccP2IRDu.s:705    .text.sgmii_off_mode:0000000000000038 .L0 
     /tmp/ccP2IRDu.s:840    .text.ddr_pvt_calibration:000000000000009e .L0 
     /tmp/ccP2IRDu.s:929    .text.ddr_pvt_recalibration:000000000000006c .L0 
                     .debug_frame:0000000000000000 .L0 
     /tmp/ccP2IRDu.s:19     .text.setup_sgmii_rpc_per_config:0000000000000000 .L0 
     /tmp/ccP2IRDu.s:135    .text.sgmii_setup:000000000000002c .L0 
     /tmp/ccP2IRDu.s:139    .text.sgmii_setup:000000000000003c .L0 
     /tmp/ccP2IRDu.s:149    .rodata.sgmii_setup:0000000000000000 .L5
     /tmp/ccP2IRDu.s:140    .text.sgmii_setup:0000000000000044 .L0 
     /tmp/ccP2IRDu.s:170    .text.sgmii_setup:0000000000000058 .L0 
     /tmp/ccP2IRDu.s:173    .text.sgmii_setup:0000000000000060 .L0 
     /tmp/ccP2IRDu.s:191    .text.sgmii_setup:0000000000000088 .L0 
     /tmp/ccP2IRDu.s:198    .text.sgmii_setup:0000000000000090 .L0 
     /tmp/ccP2IRDu.s:228    .text.sgmii_setup:00000000000000b0 .L0 
     /tmp/ccP2IRDu.s:231    .text.sgmii_setup:00000000000000bc .L0 
     /tmp/ccP2IRDu.s:234    .text.sgmii_setup:00000000000000c4 .L0 
     /tmp/ccP2IRDu.s:245    .text.sgmii_setup:00000000000000da .L0 
     /tmp/ccP2IRDu.s:251    .text.sgmii_setup:00000000000000e4 .L0 
     /tmp/ccP2IRDu.s:256    .text.sgmii_setup:00000000000000ee .L0 
     /tmp/ccP2IRDu.s:268    .text.sgmii_setup:0000000000000104 .L0 
     /tmp/ccP2IRDu.s:273    .text.sgmii_setup:000000000000010e .L0 
     /tmp/ccP2IRDu.s:281    .text.sgmii_setup:000000000000011a .L0 
     /tmp/ccP2IRDu.s:303    .text.sgmii_setup:0000000000000140 .L0 
     /tmp/ccP2IRDu.s:314    .text.sgmii_setup:0000000000000158 .L0 
     /tmp/ccP2IRDu.s:328    .text.sgmii_setup:000000000000016c .L0 
     /tmp/ccP2IRDu.s:343    .text.sgmii_setup:0000000000000188 .L0 
     /tmp/ccP2IRDu.s:353    .text.sgmii_setup:00000000000001a4 .L0 
     /tmp/ccP2IRDu.s:375    .text.sgmii_setup:00000000000001d0 .L0 
     /tmp/ccP2IRDu.s:383    .text.sgmii_setup:00000000000001dc .L0 
     /tmp/ccP2IRDu.s:399    .text.sgmii_setup:00000000000001f8 .L0 
     /tmp/ccP2IRDu.s:448    .text.sgmii_setup:0000000000000250 .L0 
     /tmp/ccP2IRDu.s:464    .text.sgmii_setup:0000000000000270 .L0 
     /tmp/ccP2IRDu.s:506    .text.sgmii_setup:00000000000002a4 .L0 
     /tmp/ccP2IRDu.s:535    .text.sgmii_setup:00000000000002c0 .L0 
     /tmp/ccP2IRDu.s:563    .text.sgmii_setup:00000000000002da .L0 
     /tmp/ccP2IRDu.s:575    .text.sgmii_setup:00000000000002f2 .L0 
     /tmp/ccP2IRDu.s:581    .text.sgmii_setup:0000000000000302 .L0 
     /tmp/ccP2IRDu.s:589    .text.sgmii_setup:000000000000030e .L0 
     /tmp/ccP2IRDu.s:598    .text.sgmii_setup:0000000000000322 .L0 
     /tmp/ccP2IRDu.s:606    .text.sgmii_setup:000000000000032e .L0 
     /tmp/ccP2IRDu.s:649    .text.sgmii_setup:000000000000035e .L0 
     /tmp/ccP2IRDu.s:193    .text.sgmii_setup:0000000000000090 .L3
     /tmp/ccP2IRDu.s:123    .text.sgmii_setup:000000000000002c .L28
     /tmp/ccP2IRDu.s:270    .text.sgmii_setup:000000000000010e .L21
     /tmp/ccP2IRDu.s:249    .text.sgmii_setup:00000000000000e4 .L41
     /tmp/ccP2IRDu.s:495    .text.sgmii_setup:0000000000000294 .L23
     /tmp/ccP2IRDu.s:529    .text.sgmii_setup:00000000000002be .L25
     /tmp/ccP2IRDu.s:488    .text.sgmii_setup:0000000000000290 .L24
     /tmp/ccP2IRDu.s:641    .text.sgmii_setup:000000000000035a .L43
     /tmp/ccP2IRDu.s:266    .text.sgmii_setup:0000000000000104 .L42
     /tmp/ccP2IRDu.s:166    .text.sgmii_setup:0000000000000056 .L19
     /tmp/ccP2IRDu.s:222    .text.sgmii_setup:00000000000000b0 .L18
     /tmp/ccP2IRDu.s:253    .text.sgmii_setup:00000000000000ee .L17
     /tmp/ccP2IRDu.s:278    .text.sgmii_setup:000000000000011a .L16
     /tmp/ccP2IRDu.s:325    .text.sgmii_setup:000000000000016c .L15
     /tmp/ccP2IRDu.s:340    .text.sgmii_setup:0000000000000188 .L14
     /tmp/ccP2IRDu.s:364    .text.sgmii_setup:00000000000001bc .L13
     /tmp/ccP2IRDu.s:380    .text.sgmii_setup:00000000000001dc .L12
     /tmp/ccP2IRDu.s:396    .text.sgmii_setup:00000000000001f8 .L11
     /tmp/ccP2IRDu.s:411    .text.sgmii_setup:0000000000000214 .L10
     /tmp/ccP2IRDu.s:445    .text.sgmii_setup:0000000000000250 .L9
     /tmp/ccP2IRDu.s:558    .text.sgmii_setup:00000000000002da .L8
     /tmp/ccP2IRDu.s:586    .text.sgmii_setup:000000000000030e .L7
     /tmp/ccP2IRDu.s:603    .text.sgmii_setup:000000000000032e .L6
     /tmp/ccP2IRDu.s:646    .text.sgmii_setup:000000000000035e .L4
     /tmp/ccP2IRDu.s:667    .text.sgmii_off_mode:0000000000000000 .L0 
     /tmp/ccP2IRDu.s:715    .text.ddr_pvt_calibration:0000000000000000 .L0 
     /tmp/ccP2IRDu.s:748    .text.ddr_pvt_calibration:0000000000000028 .L0 
     /tmp/ccP2IRDu.s:808    .text.ddr_pvt_calibration:000000000000007e .L48
     /tmp/ccP2IRDu.s:816    .text.ddr_pvt_calibration:0000000000000086 .L50
     /tmp/ccP2IRDu.s:823    .text.ddr_pvt_calibration:000000000000008e .L52
     /tmp/ccP2IRDu.s:830    .text.ddr_pvt_calibration:0000000000000096 .L54
     /tmp/ccP2IRDu.s:723    .text.ddr_pvt_calibration:000000000000000e .L47
     /tmp/ccP2IRDu.s:736    .text.ddr_pvt_calibration:000000000000001a .L49
     /tmp/ccP2IRDu.s:760    .text.ddr_pvt_calibration:000000000000003c .L51
     /tmp/ccP2IRDu.s:767    .text.ddr_pvt_calibration:0000000000000042 .L53
     /tmp/ccP2IRDu.s:850    .text.ddr_pvt_recalibration:0000000000000000 .L0 
     /tmp/ccP2IRDu.s:867    .text.ddr_pvt_recalibration:0000000000000020 .L0 
     /tmp/ccP2IRDu.s:911    .text.ddr_pvt_recalibration:000000000000005c .L58
     /tmp/ccP2IRDu.s:919    .text.ddr_pvt_recalibration:0000000000000064 .L60
     /tmp/ccP2IRDu.s:892    .text.ddr_pvt_recalibration:000000000000004a .L57
     /tmp/ccP2IRDu.s:899    .text.ddr_pvt_recalibration:0000000000000050 .L59
     /tmp/ccP2IRDu.s:68914  .debug_abbrev:0000000000000000 .Ldebug_abbrev0
     /tmp/ccP2IRDu.s:73078  .debug_str:00000000000078ed .LASF3692
     /tmp/ccP2IRDu.s:76052  .debug_str:000000000000f721 .LASF3693
     /tmp/ccP2IRDu.s:73692  .debug_str:00000000000093fe .LASF3694
     /tmp/ccP2IRDu.s:70124  .debug_ranges:0000000000000000 .Ldebug_ranges0
     /tmp/ccP2IRDu.s:70164  .debug_line:0000000000000000 .Ldebug_line0
     /tmp/ccP2IRDu.s:75420  .debug_str:000000000000dbc4 .LASF0
     /tmp/ccP2IRDu.s:70244  .debug_str:00000000000003ed .LASF1
     /tmp/ccP2IRDu.s:70174  .debug_str:000000000000006d .LASF2
     /tmp/ccP2IRDu.s:70830  .debug_str:0000000000001a9c .LASF3
     /tmp/ccP2IRDu.s:77486  .debug_str:0000000000013294 .LASF6
     /tmp/ccP2IRDu.s:77536  .debug_str:00000000000134a8 .LASF4
     /tmp/ccP2IRDu.s:76070  .debug_str:000000000000f811 .LASF5
     /tmp/ccP2IRDu.s:71596  .debug_str:0000000000003bda .LASF7
     /tmp/ccP2IRDu.s:73932  .debug_str:0000000000009d2f .LASF8
     /tmp/ccP2IRDu.s:75130  .debug_str:000000000000cecf .LASF9
     /tmp/ccP2IRDu.s:73548  .debug_str:0000000000008d30 .LASF10
     /tmp/ccP2IRDu.s:74448  .debug_str:000000000000af87 .LASF11
     /tmp/ccP2IRDu.s:77528  .debug_str:0000000000013473 .LASF12
     /tmp/ccP2IRDu.s:73664  .debug_str:0000000000009285 .LASF13
     /tmp/ccP2IRDu.s:70338  .debug_str:00000000000007cb .LASF14
     /tmp/ccP2IRDu.s:73720  .debug_str:0000000000009500 .LASF15
     /tmp/ccP2IRDu.s:71426  .debug_str:00000000000034da .LASF16
     /tmp/ccP2IRDu.s:73930  .debug_str:0000000000009d27 .LASF17
     /tmp/ccP2IRDu.s:73800  .debug_str:000000000000981e .LASF18
     /tmp/ccP2IRDu.s:76146  .debug_str:000000000000faf6 .LASF19
     /tmp/ccP2IRDu.s:76838  .debug_str:00000000000116b5 .LASF20
     /tmp/ccP2IRDu.s:72864  .debug_str:0000000000006efa .LASF21
     /tmp/ccP2IRDu.s:74930  .debug_str:000000000000c5f5 .LASF22
     /tmp/ccP2IRDu.s:70460  .debug_str:0000000000000c4c .LASF27
     /tmp/ccP2IRDu.s:74466  .debug_str:000000000000b041 .LASF23
     /tmp/ccP2IRDu.s:70502  .debug_str:0000000000000dca .LASF24
     /tmp/ccP2IRDu.s:71656  .debug_str:0000000000003e8d .LASF25
     /tmp/ccP2IRDu.s:72014  .debug_str:0000000000004d1f .LASF26
     /tmp/ccP2IRDu.s:71816  .debug_str:00000000000045ab .LASF28
     /tmp/ccP2IRDu.s:77414  .debug_str:0000000000012fba .LASF29
     /tmp/ccP2IRDu.s:75586  .debug_str:000000000000e2d0 .LASF30
     /tmp/ccP2IRDu.s:77018  .debug_str:0000000000011e91 .LASF31
     /tmp/ccP2IRDu.s:72618  .debug_str:0000000000006457 .LASF32
     /tmp/ccP2IRDu.s:75940  .debug_str:000000000000f20f .LASF33
     /tmp/ccP2IRDu.s:73928  .debug_str:0000000000009d1d .LASF34
     /tmp/ccP2IRDu.s:74058  .debug_str:000000000000a19e .LASF35
     /tmp/ccP2IRDu.s:77208  .debug_str:0000000000012647 .LASF36
     /tmp/ccP2IRDu.s:71158  .debug_str:0000000000002912 .LASF37
     /tmp/ccP2IRDu.s:70742  .debug_str:00000000000016ac .LASF38
     /tmp/ccP2IRDu.s:74810  .debug_str:000000000000bfc4 .LASF39
     /tmp/ccP2IRDu.s:77050  .debug_str:0000000000011ff0 .LASF40
     /tmp/ccP2IRDu.s:74896  .debug_str:000000000000c426 .LASF41
     /tmp/ccP2IRDu.s:76094  .debug_str:000000000000f8f7 .LASF42
     /tmp/ccP2IRDu.s:71310  .debug_str:0000000000002f80 .LASF43
     /tmp/ccP2IRDu.s:75106  .debug_str:000000000000ce03 .LASF44
     /tmp/ccP2IRDu.s:70274  .debug_str:0000000000000519 .LASF45
     /tmp/ccP2IRDu.s:71472  .debug_str:0000000000003685 .LASF46
     /tmp/ccP2IRDu.s:76594  .debug_str:0000000000010d1d .LASF47
     /tmp/ccP2IRDu.s:75434  .debug_str:000000000000dc83 .LASF48
     /tmp/ccP2IRDu.s:72900  .debug_str:00000000000070cd .LASF49
     /tmp/ccP2IRDu.s:73348  .debug_str:0000000000008539 .LASF50
     /tmp/ccP2IRDu.s:71932  .debug_str:0000000000004a1a .LASF51
     /tmp/ccP2IRDu.s:76886  .debug_str:00000000000118ec .LASF52
     /tmp/ccP2IRDu.s:71866  .debug_str:00000000000047eb .LASF53
     /tmp/ccP2IRDu.s:71238  .debug_str:0000000000002c47 .LASF54
     /tmp/ccP2IRDu.s:72508  .debug_str:0000000000005fc0 .LASF55
     /tmp/ccP2IRDu.s:75984  .debug_str:000000000000f3db .LASF56
     /tmp/ccP2IRDu.s:75086  .debug_str:000000000000cd67 .LASF57
     /tmp/ccP2IRDu.s:71760  .debug_str:00000000000042d8 .LASF58
     /tmp/ccP2IRDu.s:75532  .debug_str:000000000000e052 .LASF59
     /tmp/ccP2IRDu.s:75104  .debug_str:000000000000cdfe .LASF60
     /tmp/ccP2IRDu.s:71944  .debug_str:0000000000004aad .LASF61
     /tmp/ccP2IRDu.s:71534  .debug_str:00000000000038f8 .LASF62
     /tmp/ccP2IRDu.s:71928  .debug_str:00000000000049fb .LASF63
     /tmp/ccP2IRDu.s:76104  .debug_str:000000000000f939 .LASF64
     /tmp/ccP2IRDu.s:73214  .debug_str:0000000000007f37 .LASF65
     /tmp/ccP2IRDu.s:77156  .debug_str:000000000001242a .LASF66
     /tmp/ccP2IRDu.s:72080  .debug_str:0000000000004ee6 .LASF67
     /tmp/ccP2IRDu.s:76926  .debug_str:0000000000011a45 .LASF68
     /tmp/ccP2IRDu.s:71006  .debug_str:00000000000021fa .LASF69
     /tmp/ccP2IRDu.s:72962  .debug_str:0000000000007369 .LASF70
     /tmp/ccP2IRDu.s:71522  .debug_str:0000000000003868 .LASF71
     /tmp/ccP2IRDu.s:72234  .debug_str:000000000000546b .LASF72
     /tmp/ccP2IRDu.s:72670  .debug_str:00000000000066d5 .LASF73
     /tmp/ccP2IRDu.s:71756  .debug_str:00000000000042c7 .LASF74
     /tmp/ccP2IRDu.s:77508  .debug_str:00000000000133c2 .LASF75
     /tmp/ccP2IRDu.s:73222  .debug_str:0000000000007f82 .LASF76
     /tmp/ccP2IRDu.s:70878  .debug_str:0000000000001c86 .LASF77
     /tmp/ccP2IRDu.s:70730  .debug_str:000000000000162d .LASF78
     /tmp/ccP2IRDu.s:71930  .debug_str:0000000000004a14 .LASF79
     /tmp/ccP2IRDu.s:75142  .debug_str:000000000000cf5e .LASF80
     /tmp/ccP2IRDu.s:77556  .debug_str:000000000001355f .LASF81
     /tmp/ccP2IRDu.s:74386  .debug_str:000000000000ad7a .LASF82
     /tmp/ccP2IRDu.s:77022  .debug_str:0000000000011ebc .LASF83
     /tmp/ccP2IRDu.s:76806  .debug_str:000000000001156d .LASF84
     /tmp/ccP2IRDu.s:77434  .debug_str:0000000000013052 .LASF85
     /tmp/ccP2IRDu.s:72532  .debug_str:00000000000060e7 .LASF86
     /tmp/ccP2IRDu.s:73420  .debug_str:0000000000008837 .LASF87
     /tmp/ccP2IRDu.s:73488  .debug_str:0000000000008b1b .LASF88
     /tmp/ccP2IRDu.s:72930  .debug_str:0000000000007210 .LASF89
     /tmp/ccP2IRDu.s:76754  .debug_str:0000000000011339 .LASF90
     /tmp/ccP2IRDu.s:73766  .debug_str:00000000000096be .LASF91
     /tmp/ccP2IRDu.s:72732  .debug_str:00000000000069c2 .LASF92
     /tmp/ccP2IRDu.s:77246  .debug_str:00000000000127fa .LASF93
     /tmp/ccP2IRDu.s:72180  .debug_str:00000000000052ae .LASF94
     /tmp/ccP2IRDu.s:74744  .debug_str:000000000000bcec .LASF95
     /tmp/ccP2IRDu.s:77550  .debug_str:0000000000013524 .LASF96
     /tmp/ccP2IRDu.s:74072  .debug_str:000000000000a24f .LASF97
     /tmp/ccP2IRDu.s:71578  .debug_str:0000000000003b05 .LASF98
     /tmp/ccP2IRDu.s:74582  .debug_str:000000000000b519 .LASF99
     /tmp/ccP2IRDu.s:76398  .debug_str:00000000000105c7 .LASF100
     /tmp/ccP2IRDu.s:73942  .debug_str:0000000000009d7f .LASF101
     /tmp/ccP2IRDu.s:74690  .debug_str:000000000000ba61 .LASF102
     /tmp/ccP2IRDu.s:71000  .debug_str:00000000000021be .LASF103
     /tmp/ccP2IRDu.s:70388  .debug_str:00000000000009d2 .LASF104
     /tmp/ccP2IRDu.s:70254  .debug_str:0000000000000425 .LASF105
     /tmp/ccP2IRDu.s:70988  .debug_str:000000000000214a .LASF106
     /tmp/ccP2IRDu.s:76464  .debug_str:0000000000010841 .LASF107
     /tmp/ccP2IRDu.s:73330  .debug_str:0000000000008460 .LASF108
     /tmp/ccP2IRDu.s:72158  .debug_str:00000000000051d5 .LASF109
     /tmp/ccP2IRDu.s:73782  .debug_str:0000000000009767 .LASF110
     /tmp/ccP2IRDu.s:75496  .debug_str:000000000000deff .LASF111
     /tmp/ccP2IRDu.s:70310  .debug_str:0000000000000686 .LASF112
     /tmp/ccP2IRDu.s:76072  .debug_str:000000000000f81d .LASF113
     /tmp/ccP2IRDu.s:73904  .debug_str:0000000000009c48 .LASF114
     /tmp/ccP2IRDu.s:72580  .debug_str:00000000000062fb .LASF115
     /tmp/ccP2IRDu.s:76164  .debug_str:000000000000fbc8 .LASF116
     /tmp/ccP2IRDu.s:75612  .debug_str:000000000000e399 .LASF117
     /tmp/ccP2IRDu.s:71136  .debug_str:000000000000283b .LASF3695
     /tmp/ccP2IRDu.s:72530  .debug_str:00000000000060d7 .LASF118
     /tmp/ccP2IRDu.s:71206  .debug_str:0000000000002aeb .LASF119
     /tmp/ccP2IRDu.s:74956  .debug_str:000000000000c6df .LASF120
     /tmp/ccP2IRDu.s:76998  .debug_str:0000000000011d82 .LASF121
     /tmp/ccP2IRDu.s:72568  .debug_str:0000000000006283 .LASF122
     /tmp/ccP2IRDu.s:76396  .debug_str:00000000000105b8 .LASF123
     /tmp/ccP2IRDu.s:73744  .debug_str:00000000000095d9 .LASF124
     /tmp/ccP2IRDu.s:70754  .debug_str:000000000000170c .LASF125
     /tmp/ccP2IRDu.s:73172  .debug_str:0000000000007d70 .LASF126
     /tmp/ccP2IRDu.s:73950  .debug_str:0000000000009dd1 .LASF127
     /tmp/ccP2IRDu.s:75582  .debug_str:000000000000e281 .LASF128
     /tmp/ccP2IRDu.s:76480  .debug_str:00000000000108e8 .LASF129
     /tmp/ccP2IRDu.s:70170  .debug_str:0000000000000034 .LASF130
     /tmp/ccP2IRDu.s:71566  .debug_str:0000000000003a52 .LASF131
     /tmp/ccP2IRDu.s:73120  .debug_str:0000000000007b35 .LASF132
     /tmp/ccP2IRDu.s:70212  .debug_str:0000000000000245 .LASF133
     /tmp/ccP2IRDu.s:72460  .debug_str:0000000000005d65 .LASF134
     /tmp/ccP2IRDu.s:72028  .debug_str:0000000000004dbf .LASF135
     /tmp/ccP2IRDu.s:75422  .debug_str:000000000000dbcd .LASF136
     /tmp/ccP2IRDu.s:77420  .debug_str:0000000000012fe4 .LASF137
     /tmp/ccP2IRDu.s:72632  .debug_str:000000000000652b .LASF138
     /tmp/ccP2IRDu.s:71934  .debug_str:0000000000004a21 .LASF139
     /tmp/ccP2IRDu.s:74184  .debug_str:000000000000a617 .LASF140
     /tmp/ccP2IRDu.s:71474  .debug_str:0000000000003697 .LASF141
     /tmp/ccP2IRDu.s:74242  .debug_str:000000000000a820 .LASF142
     /tmp/ccP2IRDu.s:72976  .debug_str:0000000000007413 .LASF143
     /tmp/ccP2IRDu.s:73110  .debug_str:0000000000007ac7 .LASF144
     /tmp/ccP2IRDu.s:77250  .debug_str:000000000001281b .LASF145
     /tmp/ccP2IRDu.s:70198  .debug_str:000000000000019e .LASF146
     /tmp/ccP2IRDu.s:71848  .debug_str:00000000000046ed .LASF147
     /tmp/ccP2IRDu.s:75004  .debug_str:000000000000c920 .LASF148
     /tmp/ccP2IRDu.s:76010  .debug_str:000000000000f4f7 .LASF149
     /tmp/ccP2IRDu.s:72188  .debug_str:00000000000052d0 .LASF150
     /tmp/ccP2IRDu.s:72736  .debug_str:00000000000069d6 .LASF151
     /tmp/ccP2IRDu.s:73356  .debug_str:0000000000008591 .LASF152
     /tmp/ccP2IRDu.s:75966  .debug_str:000000000000f2fd .LASF153
     /tmp/ccP2IRDu.s:73000  .debug_str:0000000000007563 .LASF154
     /tmp/ccP2IRDu.s:74138  .debug_str:000000000000a4a5 .LASF155
     /tmp/ccP2IRDu.s:74512  .debug_str:000000000000b234 .LASF156
     /tmp/ccP2IRDu.s:76804  .debug_str:0000000000011555 .LASF157
     /tmp/ccP2IRDu.s:74908  .debug_str:000000000000c475 .LASF158
     /tmp/ccP2IRDu.s:74132  .debug_str:000000000000a45b .LASF159
     /tmp/ccP2IRDu.s:75112  .debug_str:000000000000ce25 .LASF160
     /tmp/ccP2IRDu.s:72536  .debug_str:00000000000060fa .LASF161
     /tmp/ccP2IRDu.s:71788  .debug_str:0000000000004445 .LASF162
     /tmp/ccP2IRDu.s:72496  .debug_str:0000000000005f34 .LASF163
     /tmp/ccP2IRDu.s:77264  .debug_str:00000000000128ef .LASF164
     /tmp/ccP2IRDu.s:72112  .debug_str:0000000000005056 .LASF165
     /tmp/ccP2IRDu.s:73238  .debug_str:000000000000806b .LASF166
     /tmp/ccP2IRDu.s:74778  .debug_str:000000000000be23 .LASF167
     /tmp/ccP2IRDu.s:77352  .debug_str:0000000000012d13 .LASF168
     /tmp/ccP2IRDu.s:70534  .debug_str:0000000000000ed2 .LASF169
     /tmp/ccP2IRDu.s:72822  .debug_str:0000000000006d26 .LASF170
     /tmp/ccP2IRDu.s:73520  .debug_str:0000000000008c22 .LASF171
     /tmp/ccP2IRDu.s:77032  .debug_str:0000000000011f1d .LASF172
     /tmp/ccP2IRDu.s:76064  .debug_str:000000000000f7ca .LASF173
     /tmp/ccP2IRDu.s:77190  .debug_str:0000000000012575 .LASF174
     /tmp/ccP2IRDu.s:72690  .debug_str:0000000000006795 .LASF175
     /tmp/ccP2IRDu.s:72710  .debug_str:00000000000068ab .LASF176
     /tmp/ccP2IRDu.s:77248  .debug_str:0000000000012801 .LASF177
     /tmp/ccP2IRDu.s:74000  .debug_str:0000000000009fd2 .LASF178
     /tmp/ccP2IRDu.s:76078  .debug_str:000000000000f861 .LASF179
     /tmp/ccP2IRDu.s:75444  .debug_str:000000000000dcf6 .LASF180
     /tmp/ccP2IRDu.s:75860  .debug_str:000000000000ee72 .LASF181
     /tmp/ccP2IRDu.s:75968  .debug_str:000000000000f33c .LASF182
     /tmp/ccP2IRDu.s:72950  .debug_str:00000000000072de .LASF183
     /tmp/ccP2IRDu.s:72240  .debug_str:00000000000054bb .LASF184
     /tmp/ccP2IRDu.s:71124  .debug_str:0000000000002767 .LASF185
     /tmp/ccP2IRDu.s:71086  .debug_str:0000000000002539 .LASF186
     /tmp/ccP2IRDu.s:70952  .debug_str:0000000000001f8a .LASF187
     /tmp/ccP2IRDu.s:77204  .debug_str:0000000000012607 .LASF188
     /tmp/ccP2IRDu.s:74616  .debug_str:000000000000b6a2 .LASF189
     /tmp/ccP2IRDu.s:76308  .debug_str:00000000000102b4 .LASF190
     /tmp/ccP2IRDu.s:70312  .debug_str:0000000000000693 .LASF191
     /tmp/ccP2IRDu.s:72250  .debug_str:0000000000005508 .LASF192
     /tmp/ccP2IRDu.s:74326  .debug_str:000000000000ab8b .LASF193
     /tmp/ccP2IRDu.s:77472  .debug_str:00000000000131c4 .LASF194
     /tmp/ccP2IRDu.s:77142  .debug_str:0000000000012374 .LASF195
     /tmp/ccP2IRDu.s:72454  .debug_str:0000000000005d25 .LASF196
     /tmp/ccP2IRDu.s:76542  .debug_str:0000000000010b84 .LASF197
     /tmp/ccP2IRDu.s:75020  .debug_str:000000000000c9a5 .LASF198
     /tmp/ccP2IRDu.s:75766  .debug_str:000000000000eb00 .LASF199
     /tmp/ccP2IRDu.s:74924  .debug_str:000000000000c56e .LASF200
     /tmp/ccP2IRDu.s:74804  .debug_str:000000000000bf72 .LASF201
     /tmp/ccP2IRDu.s:75036  .debug_str:000000000000ca84 .LASF202
     /tmp/ccP2IRDu.s:76604  .debug_str:0000000000010d67 .LASF203
     /tmp/ccP2IRDu.s:76318  .debug_str:000000000001030f .LASF204
     /tmp/ccP2IRDu.s:75260  .debug_str:000000000000d495 .LASF205
     /tmp/ccP2IRDu.s:75664  .debug_str:000000000000e622 .LASF206
     /tmp/ccP2IRDu.s:76414  .debug_str:0000000000010671 .LASF207
     /tmp/ccP2IRDu.s:74814  .debug_str:000000000000bfe0 .LASF208
     /tmp/ccP2IRDu.s:73002  .debug_str:000000000000758b .LASF209
     /tmp/ccP2IRDu.s:74040  .debug_str:000000000000a11b .LASF210
     /tmp/ccP2IRDu.s:77288  .debug_str:0000000000012a1a .LASF211
     /tmp/ccP2IRDu.s:70470  .debug_str:0000000000000c70 .LASF212
     /tmp/ccP2IRDu.s:71118  .debug_str:00000000000026fc .LASF213
     /tmp/ccP2IRDu.s:74256  .debug_str:000000000000a8f6 .LASF214
     /tmp/ccP2IRDu.s:77344  .debug_str:0000000000012cb7 .LASF215
     /tmp/ccP2IRDu.s:74612  .debug_str:000000000000b648 .LASF216
     /tmp/ccP2IRDu.s:74496  .debug_str:000000000000b17a .LASF217
     /tmp/ccP2IRDu.s:72404  .debug_str:0000000000005b67 .LASF218
     /tmp/ccP2IRDu.s:76016  .debug_str:000000000000f552 .LASF219
     /tmp/ccP2IRDu.s:77094  .debug_str:0000000000012171 .LASF220
     /tmp/ccP2IRDu.s:75256  .debug_str:000000000000d464 .LASF221
     /tmp/ccP2IRDu.s:72982  .debug_str:0000000000007472 .LASF222
     /tmp/ccP2IRDu.s:74714  .debug_str:000000000000bb74 .LASF223
     /tmp/ccP2IRDu.s:75394  .debug_str:000000000000da66 .LASF224
     /tmp/ccP2IRDu.s:72388  .debug_str:0000000000005a6a .LASF225
     /tmp/ccP2IRDu.s:70508  .debug_str:0000000000000e17 .LASF226
     /tmp/ccP2IRDu.s:71608  .debug_str:0000000000003c6b .LASF227
     /tmp/ccP2IRDu.s:73830  .debug_str:0000000000009944 .LASF228
     /tmp/ccP2IRDu.s:74674  .debug_str:000000000000b97d .LASF229
     /tmp/ccP2IRDu.s:71650  .debug_str:0000000000003e2e .LASF230
     /tmp/ccP2IRDu.s:74020  .debug_str:000000000000a09a .LASF231
     /tmp/ccP2IRDu.s:75050  .debug_str:000000000000cb5e .LASF232
     /tmp/ccP2IRDu.s:75068  .debug_str:000000000000cc4d .LASF233
     /tmp/ccP2IRDu.s:72000  .debug_str:0000000000004c97 .LASF234
     /tmp/ccP2IRDu.s:73300  .debug_str:0000000000008320 .LASF235
     /tmp/ccP2IRDu.s:72002  .debug_str:0000000000004ca3 .LASF236
     /tmp/ccP2IRDu.s:76608  .debug_str:0000000000010d97 .LASF237
     /tmp/ccP2IRDu.s:74464  .debug_str:000000000000b02e .LASF238
     /tmp/ccP2IRDu.s:73504  .debug_str:0000000000008b9e .LASF239
     /tmp/ccP2IRDu.s:75072  .debug_str:000000000000cc88 .LASF240
     /tmp/ccP2IRDu.s:71274  .debug_str:0000000000002dd6 .LASF241
     /tmp/ccP2IRDu.s:71880  .debug_str:000000000000485f .LASF242
     /tmp/ccP2IRDu.s:73686  .debug_str:00000000000093c9 .LASF243
     /tmp/ccP2IRDu.s:71140  .debug_str:0000000000002857 .LASF244
     /tmp/ccP2IRDu.s:71628  .debug_str:0000000000003d2e .LASF245
     /tmp/ccP2IRDu.s:76056  .debug_str:000000000000f77e .LASF246
     /tmp/ccP2IRDu.s:75838  .debug_str:000000000000ede2 .LASF247
     /tmp/ccP2IRDu.s:72124  .debug_str:00000000000050fd .LASF248
     /tmp/ccP2IRDu.s:71120  .debug_str:000000000000273f .LASF249
     /tmp/ccP2IRDu.s:76176  .debug_str:000000000000fc45 .LASF250
     /tmp/ccP2IRDu.s:70250  .debug_str:000000000000040d .LASF251
     /tmp/ccP2IRDu.s:73960  .debug_str:0000000000009e66 .LASF252
     /tmp/ccP2IRDu.s:77040  .debug_str:0000000000011f97 .LASF253
     /tmp/ccP2IRDu.s:73578  .debug_str:0000000000008ed6 .LASF254
     /tmp/ccP2IRDu.s:75022  .debug_str:000000000000c9d2 .LASF255
     /tmp/ccP2IRDu.s:76598  .debug_str:0000000000010d30 .LASF256
     /tmp/ccP2IRDu.s:71040  .debug_str:0000000000002365 .LASF257
     /tmp/ccP2IRDu.s:71360  .debug_str:00000000000031a9 .LASF258
     /tmp/ccP2IRDu.s:74374  .debug_str:000000000000acdc .LASF259
     /tmp/ccP2IRDu.s:73064  .debug_str:000000000000786d .LASF260
     /tmp/ccP2IRDu.s:73652  .debug_str:0000000000009206 .LASF261
     /tmp/ccP2IRDu.s:70662  .debug_str:00000000000013df .LASF262
     /tmp/ccP2IRDu.s:73516  .debug_str:0000000000008c07 .LASF263
     /tmp/ccP2IRDu.s:70850  .debug_str:0000000000001b54 .LASF264
     /tmp/ccP2IRDu.s:70852  .debug_str:0000000000001b63 .LASF265
     /tmp/ccP2IRDu.s:77322  .debug_str:0000000000012bc1 .LASF266
     /tmp/ccP2IRDu.s:71194  .debug_str:0000000000002a82 .LASF267
     /tmp/ccP2IRDu.s:77316  .debug_str:0000000000012b8a .LASF268
     /tmp/ccP2IRDu.s:72062  .debug_str:0000000000004e6c .LASF269
     /tmp/ccP2IRDu.s:73750  .debug_str:00000000000095f9 .LASF270
     /tmp/ccP2IRDu.s:70390  .debug_str:00000000000009d7 .LASF271
     /tmp/ccP2IRDu.s:74436  .debug_str:000000000000af04 .LASF272
     /tmp/ccP2IRDu.s:70828  .debug_str:0000000000001a89 .LASF273
     /tmp/ccP2IRDu.s:76930  .debug_str:0000000000011a6e .LASF274
     /tmp/ccP2IRDu.s:76192  .debug_str:000000000000fcf6 .LASF275
     /tmp/ccP2IRDu.s:72064  .debug_str:0000000000004e76 .LASF276
     /tmp/ccP2IRDu.s:75626  .debug_str:000000000000e454 .LASF277
     /tmp/ccP2IRDu.s:71390  .debug_str:00000000000032e3 .LASF278
     /tmp/ccP2IRDu.s:74052  .debug_str:000000000000a175 .LASF279
     /tmp/ccP2IRDu.s:75842  .debug_str:000000000000edfa .LASF280
     /tmp/ccP2IRDu.s:77468  .debug_str:00000000000131a6 .LASF281
     /tmp/ccP2IRDu.s:75132  .debug_str:000000000000ced9 .LASF282
     /tmp/ccP2IRDu.s:75198  .debug_str:000000000000d198 .LASF283
     /tmp/ccP2IRDu.s:74590  .debug_str:000000000000b567 .LASF284
     /tmp/ccP2IRDu.s:72656  .debug_str:000000000000664b .LASF285
     /tmp/ccP2IRDu.s:72574  .debug_str:00000000000062bd .LASF286
     /tmp/ccP2IRDu.s:75800  .debug_str:000000000000ec51 .LASF287
     /tmp/ccP2IRDu.s:75964  .debug_str:000000000000f2f0 .LASF288
     /tmp/ccP2IRDu.s:71580  .debug_str:0000000000003b0a .LASF289
     /tmp/ccP2IRDu.s:76954  .debug_str:0000000000011b72 .LASF290
     /tmp/ccP2IRDu.s:76494  .debug_str:000000000001099a .LASF291
     /tmp/ccP2IRDu.s:72794  .debug_str:0000000000006c70 .LASF292
     /tmp/ccP2IRDu.s:71176  .debug_str:00000000000029d4 .LASF293
     /tmp/ccP2IRDu.s:70672  .debug_str:0000000000001461 .LASF294
     /tmp/ccP2IRDu.s:76428  .debug_str:0000000000010734 .LASF295
     /tmp/ccP2IRDu.s:71872  .debug_str:0000000000004830 .LASF296
     /tmp/ccP2IRDu.s:72270  .debug_str:00000000000055df .LASF297
     /tmp/ccP2IRDu.s:73522  .debug_str:0000000000008c3b .LASF298
     /tmp/ccP2IRDu.s:73190  .debug_str:0000000000007e68 .LASF299
     /tmp/ccP2IRDu.s:71862  .debug_str:00000000000047d4 .LASF300
     /tmp/ccP2IRDu.s:77140  .debug_str:0000000000012366 .LASF301
     /tmp/ccP2IRDu.s:73112  .debug_str:0000000000007ae2 .LASF302
     /tmp/ccP2IRDu.s:70658  .debug_str:00000000000013c2 .LASF303
     /tmp/ccP2IRDu.s:76430  .debug_str:000000000001073e .LASF304
     /tmp/ccP2IRDu.s:71452  .debug_str:00000000000035b2 .LASF305
     /tmp/ccP2IRDu.s:72758  .debug_str:0000000000006afd .LASF306
     /tmp/ccP2IRDu.s:74652  .debug_str:000000000000b837 .LASF307
     /tmp/ccP2IRDu.s:74438  .debug_str:000000000000af12 .LASF308
     /tmp/ccP2IRDu.s:72024  .debug_str:0000000000004d95 .LASF309
     /tmp/ccP2IRDu.s:75146  .debug_str:000000000000cf77 .LASF310
     /tmp/ccP2IRDu.s:76432  .debug_str:0000000000010748 .LASF311
     /tmp/ccP2IRDu.s:72712  .debug_str:00000000000068d1 .LASF312
     /tmp/ccP2IRDu.s:76434  .debug_str:0000000000010752 .LASF313
     /tmp/ccP2IRDu.s:76436  .debug_str:000000000001075c .LASF314
     /tmp/ccP2IRDu.s:76438  .debug_str:0000000000010766 .LASF315
     /tmp/ccP2IRDu.s:76186  .debug_str:000000000000fcc0 .LASF316
     /tmp/ccP2IRDu.s:71394  .debug_str:000000000000332d .LASF317
     /tmp/ccP2IRDu.s:73130  .debug_str:0000000000007ba7 .LASF318
     /tmp/ccP2IRDu.s:75384  .debug_str:000000000000da05 .LASF319
     /tmp/ccP2IRDu.s:76440  .debug_str:0000000000010770 .LASF320
     /tmp/ccP2IRDu.s:76442  .debug_str:000000000001077a .LASF321
     /tmp/ccP2IRDu.s:73624  .debug_str:00000000000090d6 .LASF322
     /tmp/ccP2IRDu.s:77176  .debug_str:00000000000124de .LASF323
     /tmp/ccP2IRDu.s:72798  .debug_str:0000000000006c8a .LASF324
     /tmp/ccP2IRDu.s:71904  .debug_str:000000000000490b .LASF325
     /tmp/ccP2IRDu.s:76444  .debug_str:0000000000010784 .LASF326
     /tmp/ccP2IRDu.s:72466  .debug_str:0000000000005dc8 .LASF327
     /tmp/ccP2IRDu.s:76446  .debug_str:000000000001078e .LASF328
     /tmp/ccP2IRDu.s:72130  .debug_str:0000000000005133 .LASF329
     /tmp/ccP2IRDu.s:71294  .debug_str:0000000000002ef3 .LASF330
     /tmp/ccP2IRDu.s:76496  .debug_str:00000000000109a8 .LASF331
     /tmp/ccP2IRDu.s:70320  .debug_str:0000000000000718 .LASF332
     /tmp/ccP2IRDu.s:76498  .debug_str:00000000000109b2 .LASF333
     /tmp/ccP2IRDu.s:73886  .debug_str:0000000000009bd2 .LASF334
     /tmp/ccP2IRDu.s:73902  .debug_str:0000000000009c1d .LASF335
     /tmp/ccP2IRDu.s:71450  .debug_str:00000000000035a7 .LASF336
     /tmp/ccP2IRDu.s:70738  .debug_str:0000000000001694 .LASF337
     /tmp/ccP2IRDu.s:76500  .debug_str:00000000000109bc .LASF338
     /tmp/ccP2IRDu.s:75696  .debug_str:000000000000e797 .LASF339
     /tmp/ccP2IRDu.s:76502  .debug_str:00000000000109c6 .LASF340
     /tmp/ccP2IRDu.s:70874  .debug_str:0000000000001c69 .LASF341
     /tmp/ccP2IRDu.s:77422  .debug_str:000000000001300a .LASF342
     /tmp/ccP2IRDu.s:76504  .debug_str:00000000000109d0 .LASF343
     /tmp/ccP2IRDu.s:73638  .debug_str:000000000000916f .LASF344
     /tmp/ccP2IRDu.s:72774  .debug_str:0000000000006ba6 .LASF345
     /tmp/ccP2IRDu.s:75140  .debug_str:000000000000cf4d .LASF346
     /tmp/ccP2IRDu.s:75602  .debug_str:000000000000e33e .LASF347
     /tmp/ccP2IRDu.s:76426  .debug_str:000000000001072c .LASF348
     /tmp/ccP2IRDu.s:75930  .debug_str:000000000000f1b7 .LASF349
     /tmp/ccP2IRDu.s:76506  .debug_str:00000000000109da .LASF350
     /tmp/ccP2IRDu.s:75134  .debug_str:000000000000ceea .LASF351
     /tmp/ccP2IRDu.s:76508  .debug_str:00000000000109e4 .LASF352
     /tmp/ccP2IRDu.s:76680  .debug_str:0000000000011071 .LASF353
     /tmp/ccP2IRDu.s:75224  .debug_str:000000000000d2f4 .LASF354
     /tmp/ccP2IRDu.s:76510  .debug_str:00000000000109ee .LASF355
     /tmp/ccP2IRDu.s:74528  .debug_str:000000000000b31c .LASF356
     /tmp/ccP2IRDu.s:72350  .debug_str:0000000000005924 .LASF357
     /tmp/ccP2IRDu.s:72636  .debug_str:0000000000006552 .LASF358
     /tmp/ccP2IRDu.s:74718  .debug_str:000000000000bba9 .LASF359
     /tmp/ccP2IRDu.s:76666  .debug_str:0000000000010ff3 .LASF360
     /tmp/ccP2IRDu.s:76512  .debug_str:00000000000109f8 .LASF361
     /tmp/ccP2IRDu.s:76360  .debug_str:00000000000104c2 .LASF362
     /tmp/ccP2IRDu.s:76514  .debug_str:0000000000010a02 .LASF363
     /tmp/ccP2IRDu.s:77298  .debug_str:0000000000012ad4 .LASF364
     /tmp/ccP2IRDu.s:76560  .debug_str:0000000000010c57 .LASF365
     /tmp/ccP2IRDu.s:77540  .debug_str:00000000000134c6 .LASF366
     /tmp/ccP2IRDu.s:74836  .debug_str:000000000000c12e .LASF367
     /tmp/ccP2IRDu.s:74850  .debug_str:000000000000c1fe .LASF368
     /tmp/ccP2IRDu.s:71822  .debug_str:00000000000045df .LASF369
     /tmp/ccP2IRDu.s:75990  .debug_str:000000000000f423 .LASF370
     /tmp/ccP2IRDu.s:71524  .debug_str:0000000000003875 .LASF371
     /tmp/ccP2IRDu.s:74700  .debug_str:000000000000badc .LASF372
     /tmp/ccP2IRDu.s:70176  .debug_str:000000000000007b .LASF373
     /tmp/ccP2IRDu.s:71354  .debug_str:0000000000003185 .LASF374
     /tmp/ccP2IRDu.s:76562  .debug_str:0000000000010c61 .LASF375
     /tmp/ccP2IRDu.s:77106  .debug_str:00000000000121eb .LASF376
     /tmp/ccP2IRDu.s:72510  .debug_str:0000000000005fc7 .LASF377
     /tmp/ccP2IRDu.s:71620  .debug_str:0000000000003ce1 .LASF378
     /tmp/ccP2IRDu.s:75912  .debug_str:000000000000f0de .LASF379
     /tmp/ccP2IRDu.s:76364  .debug_str:00000000000104e0 .LASF380
     /tmp/ccP2IRDu.s:74944  .debug_str:000000000000c667 .LASF381
     /tmp/ccP2IRDu.s:71786  .debug_str:000000000000441b .LASF382
     /tmp/ccP2IRDu.s:76086  .debug_str:000000000000f89b .LASF383
     /tmp/ccP2IRDu.s:75454  .debug_str:000000000000dd7c .LASF384
     /tmp/ccP2IRDu.s:70990  .debug_str:0000000000002156 .LASF385
     /tmp/ccP2IRDu.s:76366  .debug_str:00000000000104ea .LASF386
     /tmp/ccP2IRDu.s:77214  .debug_str:0000000000012697 .LASF387
     /tmp/ccP2IRDu.s:72718  .debug_str:0000000000006931 .LASF388
     /tmp/ccP2IRDu.s:73700  .debug_str:0000000000009473 .LASF389
     /tmp/ccP2IRDu.s:72222  .debug_str:0000000000005414 .LASF390
     /tmp/ccP2IRDu.s:76368  .debug_str:00000000000104f4 .LASF391
     /tmp/ccP2IRDu.s:72052  .debug_str:0000000000004e25 .LASF392
     /tmp/ccP2IRDu.s:73570  .debug_str:0000000000008e4a .LASF393
     /tmp/ccP2IRDu.s:74456  .debug_str:000000000000afcf .LASF394
     /tmp/ccP2IRDu.s:72834  .debug_str:0000000000006dce .LASF395
     /tmp/ccP2IRDu.s:71758  .debug_str:00000000000042cc .LASF396
     /tmp/ccP2IRDu.s:74596  .debug_str:000000000000b5cf .LASF397
     /tmp/ccP2IRDu.s:77234  .debug_str:0000000000012770 .LASF398
     /tmp/ccP2IRDu.s:76558  .debug_str:0000000000010c4c .LASF399
     /tmp/ccP2IRDu.s:76370  .debug_str:00000000000104fe .LASF400
     /tmp/ccP2IRDu.s:76372  .debug_str:0000000000010508 .LASF401
     /tmp/ccP2IRDu.s:74530  .debug_str:000000000000b32b .LASF402
     /tmp/ccP2IRDu.s:74484  .debug_str:000000000000b0c5 .LASF403
     /tmp/ccP2IRDu.s:70818  .debug_str:0000000000001a30 .LASF404
     /tmp/ccP2IRDu.s:70706  .debug_str:000000000000152a .LASF405
     /tmp/ccP2IRDu.s:70772  .debug_str:00000000000017d9 .LASF406
     /tmp/ccP2IRDu.s:75202  .debug_str:000000000000d1b7 .LASF407
     /tmp/ccP2IRDu.s:72486  .debug_str:0000000000005eba .LASF408
     /tmp/ccP2IRDu.s:70976  .debug_str:00000000000020ae .LASF409
     /tmp/ccP2IRDu.s:76566  .debug_str:0000000000010c83 .LASF410
     /tmp/ccP2IRDu.s:77388  .debug_str:0000000000012e8f .LASF411
     /tmp/ccP2IRDu.s:71410  .debug_str:000000000000341b .LASF412
     /tmp/ccP2IRDu.s:73816  .debug_str:000000000000990b .LASF413
     /tmp/ccP2IRDu.s:74720  .debug_str:000000000000bbb5 .LASF414
     /tmp/ccP2IRDu.s:77484  .debug_str:0000000000013283 .LASF415
     /tmp/ccP2IRDu.s:75460  .debug_str:000000000000dd9c .LASF416
     /tmp/ccP2IRDu.s:72958  .debug_str:0000000000007339 .LASF417
     /tmp/ccP2IRDu.s:74630  .debug_str:000000000000b745 .LASF418
     /tmp/ccP2IRDu.s:72866  .debug_str:0000000000006f0c .LASF419
     /tmp/ccP2IRDu.s:70872  .debug_str:0000000000001c3d .LASF420
     /tmp/ccP2IRDu.s:70180  .debug_str:00000000000000b7 .LASF421
     /tmp/ccP2IRDu.s:77216  .debug_str:00000000000126a7 .LASF422
     /tmp/ccP2IRDu.s:76232  .debug_str:000000000000fed3 .LASF423
     /tmp/ccP2IRDu.s:75212  .debug_str:000000000000d22c .LASF424
     /tmp/ccP2IRDu.s:73384  .debug_str:00000000000086ba .LASF425
     /tmp/ccP2IRDu.s:72860  .debug_str:0000000000006eb5 .LASF426
     /tmp/ccP2IRDu.s:71464  .debug_str:000000000000361b .LASF427
     /tmp/ccP2IRDu.s:77206  .debug_str:000000000001261d .LASF428
     /tmp/ccP2IRDu.s:71462  .debug_str:000000000000360a .LASF429
     /tmp/ccP2IRDu.s:71796  .debug_str:00000000000044c3 .LASF430
     /tmp/ccP2IRDu.s:70880  .debug_str:0000000000001c8e .LASF431
     /tmp/ccP2IRDu.s:76828  .debug_str:000000000001164c .LASF432
     /tmp/ccP2IRDu.s:70224  .debug_str:00000000000002ee .LASF433
     /tmp/ccP2IRDu.s:74392  .debug_str:000000000000adbb .LASF434
     /tmp/ccP2IRDu.s:77046  .debug_str:0000000000011fc7 .LASF435
     /tmp/ccP2IRDu.s:71764  .debug_str:0000000000004301 .LASF436
     /tmp/ccP2IRDu.s:72274  .debug_str:00000000000055fd .LASF437
     /tmp/ccP2IRDu.s:71954  .debug_str:0000000000004afa .LASF438
     /tmp/ccP2IRDu.s:73012  .debug_str:0000000000007609 .LASF439
     /tmp/ccP2IRDu.s:73756  .debug_str:0000000000009635 .LASF440
     /tmp/ccP2IRDu.s:71020  .debug_str:00000000000022bf .LASF441
     /tmp/ccP2IRDu.s:76962  .debug_str:0000000000011bcc .LASF442
     /tmp/ccP2IRDu.s:75192  .debug_str:000000000000d15c .LASF443
     /tmp/ccP2IRDu.s:76030  .debug_str:000000000000f625 .LASF444
     /tmp/ccP2IRDu.s:70758  .debug_str:000000000000172d .LASF445
     /tmp/ccP2IRDu.s:76936  .debug_str:0000000000011aa3 .LASF446
     /tmp/ccP2IRDu.s:77548  .debug_str:0000000000013518 .LASF447
     /tmp/ccP2IRDu.s:77408  .debug_str:0000000000012f71 .LASF448
     /tmp/ccP2IRDu.s:74676  .debug_str:000000000000b9a3 .LASF449
     /tmp/ccP2IRDu.s:77560  .debug_str:0000000000013591 .LASF450
     /tmp/ccP2IRDu.s:71962  .debug_str:0000000000004b1c .LASF451
     /tmp/ccP2IRDu.s:74688  .debug_str:000000000000ba53 .LASF452
     /tmp/ccP2IRDu.s:73062  .debug_str:0000000000007864 .LASF453
     /tmp/ccP2IRDu.s:75830  .debug_str:000000000000ed85 .LASF454
     /tmp/ccP2IRDu.s:75956  .debug_str:000000000000f2b3 .LASF455
     /tmp/ccP2IRDu.s:76984  .debug_str:0000000000011cd7 .LASF456
     /tmp/ccP2IRDu.s:70288  .debug_str:000000000000059f .LASF457
     /tmp/ccP2IRDu.s:73418  .debug_str:0000000000008811 .LASF458
     /tmp/ccP2IRDu.s:73324  .debug_str:000000000000841a .LASF459
     /tmp/ccP2IRDu.s:73780  .debug_str:0000000000009753 .LASF460
     /tmp/ccP2IRDu.s:74144  .debug_str:000000000000a509 .LASF461
     /tmp/ccP2IRDu.s:73964  .debug_str:0000000000009e78 .LASF462
     /tmp/ccP2IRDu.s:74734  .debug_str:000000000000bc91 .LASF463
     /tmp/ccP2IRDu.s:72914  .debug_str:000000000000716c .LASF464
     /tmp/ccP2IRDu.s:76196  .debug_str:000000000000fd1b .LASF465
     /tmp/ccP2IRDu.s:74028  .debug_str:000000000000a0e5 .LASF466
     /tmp/ccP2IRDu.s:73674  .debug_str:000000000000931f .LASF467
     /tmp/ccP2IRDu.s:77066  .debug_str:000000000001208c .LASF468
     /tmp/ccP2IRDu.s:74864  .debug_str:000000000000c2af .LASF469
     /tmp/ccP2IRDu.s:75756  .debug_str:000000000000ea7a .LASF470
     /tmp/ccP2IRDu.s:70896  .debug_str:0000000000001d2a .LASF471
     /tmp/ccP2IRDu.s:72478  .debug_str:0000000000005e52 .LASF472
     /tmp/ccP2IRDu.s:72374  .debug_str:00000000000059cd .LASF473
     /tmp/ccP2IRDu.s:75236  .debug_str:000000000000d35c .LASF474
     /tmp/ccP2IRDu.s:75994  .debug_str:000000000000f461 .LASF475
     /tmp/ccP2IRDu.s:73722  .debug_str:0000000000009506 .LASF476
     /tmp/ccP2IRDu.s:70512  .debug_str:0000000000000e4f .LASF477
     /tmp/ccP2IRDu.s:71682  .debug_str:0000000000003fea .LASF478
     /tmp/ccP2IRDu.s:77150  .debug_str:00000000000123e6 .LASF479
     /tmp/ccP2IRDu.s:77148  .debug_str:00000000000123d6 .LASF480
     /tmp/ccP2IRDu.s:73634  .debug_str:000000000000913e .LASF481
     /tmp/ccP2IRDu.s:77098  .debug_str:00000000000121ab .LASF482
     /tmp/ccP2IRDu.s:73150  .debug_str:0000000000007ca2 .LASF483
     /tmp/ccP2IRDu.s:73128  .debug_str:0000000000007b9a .LASF484
     /tmp/ccP2IRDu.s:74800  .debug_str:000000000000bf39 .LASF485
     /tmp/ccP2IRDu.s:73358  .debug_str:00000000000085ac .LASF486
     /tmp/ccP2IRDu.s:70514  .debug_str:0000000000000e58 .LASF487
     /tmp/ccP2IRDu.s:74848  .debug_str:000000000000c1db .LASF488
     /tmp/ccP2IRDu.s:71772  .debug_str:000000000000437c .LASF489
     /tmp/ccP2IRDu.s:76968  .debug_str:0000000000011c2d .LASF490
     /tmp/ccP2IRDu.s:71598  .debug_str:0000000000003be4 .LASF491
     /tmp/ccP2IRDu.s:76068  .debug_str:000000000000f803 .LASF492
     /tmp/ccP2IRDu.s:74352  .debug_str:000000000000ac3d .LASF493
     /tmp/ccP2IRDu.s:70516  .debug_str:0000000000000e61 .LASF494
     /tmp/ccP2IRDu.s:70334  .debug_str:000000000000079e .LASF495
     /tmp/ccP2IRDu.s:71992  .debug_str:0000000000004c6e .LASF496
     /tmp/ccP2IRDu.s:74552  .debug_str:000000000000b3d7 .LASF497
     /tmp/ccP2IRDu.s:73326  .debug_str:0000000000008436 .LASF498
     /tmp/ccP2IRDu.s:77306  .debug_str:0000000000012b1d .LASF499
     /tmp/ccP2IRDu.s:73082  .debug_str:00000000000079cd .LASF500
     /tmp/ccP2IRDu.s:73068  .debug_str:000000000000788f .LASF501
     /tmp/ccP2IRDu.s:71516  .debug_str:000000000000383a .LASF502
     /tmp/ccP2IRDu.s:73934  .debug_str:0000000000009d3d .LASF503
     /tmp/ccP2IRDu.s:76374  .debug_str:0000000000010512 .LASF504
     /tmp/ccP2IRDu.s:70518  .debug_str:0000000000000e6a .LASF505
     /tmp/ccP2IRDu.s:73432  .debug_str:00000000000088bf .LASF506
     /tmp/ccP2IRDu.s:74162  .debug_str:000000000000a5b7 .LASF507
     /tmp/ccP2IRDu.s:74380  .debug_str:000000000000ad27 .LASF508
     /tmp/ccP2IRDu.s:74244  .debug_str:000000000000a85d .LASF509
     /tmp/ccP2IRDu.s:74230  .debug_str:000000000000a7f3 .LASF510
     /tmp/ccP2IRDu.s:72686  .debug_str:000000000000677b .LASF511
     /tmp/ccP2IRDu.s:76610  .debug_str:0000000000010da7 .LASF512
     /tmp/ccP2IRDu.s:73794  .debug_str:00000000000097ce .LASF513
     /tmp/ccP2IRDu.s:70192  .debug_str:000000000000015f .LASF514
     /tmp/ccP2IRDu.s:74288  .debug_str:000000000000aa1c .LASF515
     /tmp/ccP2IRDu.s:72572  .debug_str:00000000000062ab .LASF516
     /tmp/ccP2IRDu.s:72548  .debug_str:00000000000061ce .LASF517
     /tmp/ccP2IRDu.s:76376  .debug_str:000000000001051c .LASF518
     /tmp/ccP2IRDu.s:70520  .debug_str:0000000000000e73 .LASF519
     /tmp/ccP2IRDu.s:72716  .debug_str:000000000000690e .LASF520
     /tmp/ccP2IRDu.s:75474  .debug_str:000000000000de28 .LASF521
     /tmp/ccP2IRDu.s:75458  .debug_str:000000000000dd8e .LASF522
     /tmp/ccP2IRDu.s:76354  .debug_str:0000000000010491 .LASF523
     /tmp/ccP2IRDu.s:76344  .debug_str:0000000000010427 .LASF524
     /tmp/ccP2IRDu.s:76378  .debug_str:0000000000010526 .LASF525
     /tmp/ccP2IRDu.s:70522  .debug_str:0000000000000e7c .LASF526
     /tmp/ccP2IRDu.s:71952  .debug_str:0000000000004ad7 .LASF527
     /tmp/ccP2IRDu.s:77014  .debug_str:0000000000011e62 .LASF528
     /tmp/ccP2IRDu.s:73954  .debug_str:0000000000009e0b .LASF529
     /tmp/ccP2IRDu.s:76380  .debug_str:0000000000010530 .LASF530
     /tmp/ccP2IRDu.s:70524  .debug_str:0000000000000e85 .LASF531
     /tmp/ccP2IRDu.s:75074  .debug_str:000000000000ccb5 .LASF532
     /tmp/ccP2IRDu.s:70918  .debug_str:0000000000001e08 .LASF533
     /tmp/ccP2IRDu.s:76106  .debug_str:000000000000f941 .LASF534
     /tmp/ccP2IRDu.s:75392  .debug_str:000000000000da3a .LASF535
     /tmp/ccP2IRDu.s:72746  .debug_str:0000000000006a72 .LASF536
     /tmp/ccP2IRDu.s:70696  .debug_str:00000000000014c3 .LASF537
     /tmp/ccP2IRDu.s:71986  .debug_str:0000000000004c0b .LASF538
     /tmp/ccP2IRDu.s:75736  .debug_str:000000000000e98f .LASF539
     /tmp/ccP2IRDu.s:73840  .debug_str:00000000000099b3 .LASF540
     /tmp/ccP2IRDu.s:74536  .debug_str:000000000000b354 .LASF541
     /tmp/ccP2IRDu.s:72858  .debug_str:0000000000006eaa .LASF542
     /tmp/ccP2IRDu.s:75638  .debug_str:000000000000e50c .LASF543
     /tmp/ccP2IRDu.s:74608  .debug_str:000000000000b62e .LASF544
     /tmp/ccP2IRDu.s:70888  .debug_str:0000000000001cd9 .LASF545
     /tmp/ccP2IRDu.s:75116  .debug_str:000000000000ce4e .LASF546
     /tmp/ccP2IRDu.s:76234  .debug_str:000000000000fee3 .LASF547
     /tmp/ccP2IRDu.s:77358  .debug_str:0000000000012d52 .LASF548
     /tmp/ccP2IRDu.s:71068  .debug_str:0000000000002480 .LASF549
     /tmp/ccP2IRDu.s:72246  .debug_str:00000000000054f0 .LASF550
     /tmp/ccP2IRDu.s:73414  .debug_str:00000000000087fa .LASF551
     /tmp/ccP2IRDu.s:73466  .debug_str:0000000000008a76 .LASF552
     /tmp/ccP2IRDu.s:75356  .debug_str:000000000000d89e .LASF553
     /tmp/ccP2IRDu.s:75058  .debug_str:000000000000cbd9 .LASF554
     /tmp/ccP2IRDu.s:77198  .debug_str:00000000000125c4 .LASF555
     /tmp/ccP2IRDu.s:75744  .debug_str:000000000000e9f4 .LASF556
     /tmp/ccP2IRDu.s:72918  .debug_str:00000000000071a1 .LASF557
     /tmp/ccP2IRDu.s:76300  .debug_str:000000000001025d .LASF558
     /tmp/ccP2IRDu.s:77412  .debug_str:0000000000012faa .LASF559
     /tmp/ccP2IRDu.s:76742  .debug_str:00000000000112a1 .LASF560
     /tmp/ccP2IRDu.s:73468  .debug_str:0000000000008a7f .LASF561
     /tmp/ccP2IRDu.s:74650  .debug_str:000000000000b82d .LASF562
     /tmp/ccP2IRDu.s:71106  .debug_str:0000000000002642 .LASF563
     /tmp/ccP2IRDu.s:74936  .debug_str:000000000000c621 .LASF564
     /tmp/ccP2IRDu.s:74890  .debug_str:000000000000c3d5 .LASF565
     /tmp/ccP2IRDu.s:71066  .debug_str:0000000000002470 .LASF566
     /tmp/ccP2IRDu.s:73470  .debug_str:0000000000008a88 .LASF567
     /tmp/ccP2IRDu.s:72728  .debug_str:00000000000069a8 .LASF568
     /tmp/ccP2IRDu.s:70412  .debug_str:0000000000000a4b .LASF569
     /tmp/ccP2IRDu.s:73304  .debug_str:0000000000008341 .LASF570
     /tmp/ccP2IRDu.s:75450  .debug_str:000000000000dd4b .LASF571
     /tmp/ccP2IRDu.s:74258  .debug_str:000000000000a91e .LASF572
     /tmp/ccP2IRDu.s:75292  .debug_str:000000000000d608 .LASF573
     /tmp/ccP2IRDu.s:72252  .debug_str:0000000000005534 .LASF574
     /tmp/ccP2IRDu.s:73472  .debug_str:0000000000008a91 .LASF575
     /tmp/ccP2IRDu.s:72396  .debug_str:0000000000005aef .LASF576
     /tmp/ccP2IRDu.s:77466  .debug_str:0000000000013180 .LASF577
     /tmp/ccP2IRDu.s:76988  .debug_str:0000000000011d15 .LASF578
     /tmp/ccP2IRDu.s:74658  .debug_str:000000000000b89d .LASF579
     /tmp/ccP2IRDu.s:73474  .debug_str:0000000000008a9a .LASF580
     /tmp/ccP2IRDu.s:72116  .debug_str:00000000000050ad .LASF581
     /tmp/ccP2IRDu.s:73446  .debug_str:000000000000896b .LASF582
     /tmp/ccP2IRDu.s:73476  .debug_str:0000000000008aa3 .LASF583
     /tmp/ccP2IRDu.s:70764  .debug_str:00000000000017a8 .LASF584
     /tmp/ccP2IRDu.s:73178  .debug_str:0000000000007dbd .LASF585
     /tmp/ccP2IRDu.s:70956  .debug_str:0000000000001fdb .LASF586
     /tmp/ccP2IRDu.s:73792  .debug_str:00000000000097c4 .LASF587
     /tmp/ccP2IRDu.s:77100  .debug_str:00000000000121bc .LASF588
     /tmp/ccP2IRDu.s:75446  .debug_str:000000000000dd2b .LASF589
     /tmp/ccP2IRDu.s:73478  .debug_str:0000000000008aac .LASF590
     /tmp/ccP2IRDu.s:74940  .debug_str:000000000000c63c .LASF591
     /tmp/ccP2IRDu.s:72786  .debug_str:0000000000006c15 .LASF592
     /tmp/ccP2IRDu.s:70924  .debug_str:0000000000001e3b .LASF593
     /tmp/ccP2IRDu.s:72702  .debug_str:0000000000006850 .LASF594
     /tmp/ccP2IRDu.s:71288  .debug_str:0000000000002ea3 .LASF595
     /tmp/ccP2IRDu.s:72844  .debug_str:0000000000006e1c .LASF596
     /tmp/ccP2IRDu.s:72148  .debug_str:000000000000516e .LASF597
     /tmp/ccP2IRDu.s:74444  .debug_str:000000000000af47 .LASF598
     /tmp/ccP2IRDu.s:76518  .debug_str:0000000000010a2b .LASF599
     /tmp/ccP2IRDu.s:73540  .debug_str:0000000000008ce9 .LASF600
     /tmp/ccP2IRDu.s:76636  .debug_str:0000000000010e53 .LASF601
     /tmp/ccP2IRDu.s:74208  .debug_str:000000000000a72e .LASF602
     /tmp/ccP2IRDu.s:72336  .debug_str:0000000000005872 .LASF603
     /tmp/ccP2IRDu.s:74064  .debug_str:000000000000a1eb .LASF604
     /tmp/ccP2IRDu.s:74314  .debug_str:000000000000ab19 .LASF605
     /tmp/ccP2IRDu.s:73496  .debug_str:0000000000008b63 .LASF606
     /tmp/ccP2IRDu.s:77554  .debug_str:000000000001353c .LASF607
     /tmp/ccP2IRDu.s:75600  .debug_str:000000000000e337 .LASF608
     /tmp/ccP2IRDu.s:74702  .debug_str:000000000000baed .LASF609
     /tmp/ccP2IRDu.s:76000  .debug_str:000000000000f48c .LASF610
     /tmp/ccP2IRDu.s:71166  .debug_str:0000000000002967 .LASF611
     /tmp/ccP2IRDu.s:75740  .debug_str:000000000000e9da .LASF612
     /tmp/ccP2IRDu.s:77010  .debug_str:0000000000011e2b .LASF613
     /tmp/ccP2IRDu.s:70444  .debug_str:0000000000000bc2 .LASF614
     /tmp/ccP2IRDu.s:71370  .debug_str:00000000000031ed .LASF615
     /tmp/ccP2IRDu.s:76298  .debug_str:000000000001024a .LASF616
     /tmp/ccP2IRDu.s:70332  .debug_str:000000000000078a .LASF617
     /tmp/ccP2IRDu.s:74846  .debug_str:000000000000c1c4 .LASF618
     /tmp/ccP2IRDu.s:71146  .debug_str:0000000000002881 .LASF619
     /tmp/ccP2IRDu.s:73546  .debug_str:0000000000008d25 .LASF620
     /tmp/ccP2IRDu.s:71610  .debug_str:0000000000003c84 .LASF621
     /tmp/ccP2IRDu.s:70576  .debug_str:0000000000001026 .LASF622
     /tmp/ccP2IRDu.s:77074  .debug_str:00000000000120dc .LASF623
     /tmp/ccP2IRDu.s:72838  .debug_str:0000000000006df4 .LASF624
     /tmp/ccP2IRDu.s:71488  .debug_str:0000000000003729 .LASF625
     /tmp/ccP2IRDu.s:74470  .debug_str:000000000000b058 .LASF626
     /tmp/ccP2IRDu.s:74024  .debug_str:000000000000a0d5 .LASF627
     /tmp/ccP2IRDu.s:72600  .debug_str:00000000000063af .LASF628
     /tmp/ccP2IRDu.s:74120  .debug_str:000000000000a3ce .LASF629
     /tmp/ccP2IRDu.s:75122  .debug_str:000000000000ce7e .LASF630
     /tmp/ccP2IRDu.s:73586  .debug_str:0000000000008f25 .LASF631
     /tmp/ccP2IRDu.s:72480  .debug_str:0000000000005e61 .LASF632
     /tmp/ccP2IRDu.s:76238  .debug_str:000000000000ff0d .LASF633
     /tmp/ccP2IRDu.s:74684  .debug_str:000000000000ba09 .LASF634
     /tmp/ccP2IRDu.s:75330  .debug_str:000000000000d773 .LASF635
     /tmp/ccP2IRDu.s:77364  .debug_str:0000000000012d96 .LASF636
     /tmp/ccP2IRDu.s:75636  .debug_str:000000000000e4e9 .LASF637
     /tmp/ccP2IRDu.s:75124  .debug_str:000000000000ce87 .LASF638
     /tmp/ccP2IRDu.s:71078  .debug_str:00000000000024eb .LASF639
     /tmp/ccP2IRDu.s:76600  .debug_str:0000000000010d3c .LASF640
     /tmp/ccP2IRDu.s:70304  .debug_str:0000000000000643 .LASF641
     /tmp/ccP2IRDu.s:72258  .debug_str:000000000000555a .LASF642
     /tmp/ccP2IRDu.s:70168  .debug_str:0000000000000011 .LASF643
     /tmp/ccP2IRDu.s:70306  .debug_str:0000000000000653 .LASF644
     /tmp/ccP2IRDu.s:73422  .debug_str:000000000000883d .LASF645
     /tmp/ccP2IRDu.s:71188  .debug_str:0000000000002a45 .LASF646
     /tmp/ccP2IRDu.s:71368  .debug_str:00000000000031df .LASF647
     /tmp/ccP2IRDu.s:73256  .debug_str:0000000000008124 .LASF648
     /tmp/ccP2IRDu.s:70382  .debug_str:000000000000097a .LASF649
     /tmp/ccP2IRDu.s:75680  .debug_str:000000000000e6fb .LASF650
     /tmp/ccP2IRDu.s:74474  .debug_str:000000000000b073 .LASF651
     /tmp/ccP2IRDu.s:76952  .debug_str:0000000000011b4e .LASF652
     /tmp/ccP2IRDu.s:72784  .debug_str:0000000000006c03 .LASF653
     /tmp/ccP2IRDu.s:70780  .debug_str:0000000000001852 .LASF654
     /tmp/ccP2IRDu.s:72754  .debug_str:0000000000006acb .LASF655
     /tmp/ccP2IRDu.s:77252  .debug_str:0000000000012859 .LASF656
     /tmp/ccP2IRDu.s:75250  .debug_str:000000000000d421 .LASF657
     /tmp/ccP2IRDu.s:73430  .debug_str:000000000000888f .LASF658
     /tmp/ccP2IRDu.s:72612  .debug_str:0000000000006433 .LASF659
     /tmp/ccP2IRDu.s:76568  .debug_str:0000000000010c95 .LASF660
     /tmp/ccP2IRDu.s:71004  .debug_str:00000000000021da .LASF661
     /tmp/ccP2IRDu.s:72614  .debug_str:000000000000643f .LASF662
     /tmp/ccP2IRDu.s:76570  .debug_str:0000000000010c9b .LASF663
     /tmp/ccP2IRDu.s:74122  .debug_str:000000000000a3d6 .LASF664
     /tmp/ccP2IRDu.s:72616  .debug_str:000000000000644b .LASF665
     /tmp/ccP2IRDu.s:76572  .debug_str:0000000000010ca1 .LASF666
     /tmp/ccP2IRDu.s:77058  .debug_str:000000000001204a .LASF667
     /tmp/ccP2IRDu.s:77166  .debug_str:00000000000124a4 .LASF668
     /tmp/ccP2IRDu.s:76574  .debug_str:0000000000010ca7 .LASF669
     /tmp/ccP2IRDu.s:72684  .debug_str:000000000000675b .LASF670
     /tmp/ccP2IRDu.s:77168  .debug_str:00000000000124ae .LASF671
     /tmp/ccP2IRDu.s:76576  .debug_str:0000000000010cad .LASF672
     /tmp/ccP2IRDu.s:75692  .debug_str:000000000000e763 .LASF673
     /tmp/ccP2IRDu.s:77170  .debug_str:00000000000124b8 .LASF674
     /tmp/ccP2IRDu.s:76578  .debug_str:0000000000010cb3 .LASF675
     /tmp/ccP2IRDu.s:71250  .debug_str:0000000000002cb7 .LASF676
     /tmp/ccP2IRDu.s:77172  .debug_str:00000000000124c2 .LASF677
     /tmp/ccP2IRDu.s:76580  .debug_str:0000000000010cb9 .LASF678
     /tmp/ccP2IRDu.s:74402  .debug_str:000000000000ae2e .LASF679
     /tmp/ccP2IRDu.s:74502  .debug_str:000000000000b1b8 .LASF680
     /tmp/ccP2IRDu.s:76582  .debug_str:0000000000010cbf .LASF681
     /tmp/ccP2IRDu.s:77324  .debug_str:0000000000012bcf .LASF682
     /tmp/ccP2IRDu.s:72588  .debug_str:000000000000633c .LASF683
     /tmp/ccP2IRDu.s:76584  .debug_str:0000000000010cc5 .LASF684
     /tmp/ccP2IRDu.s:72960  .debug_str:0000000000007349 .LASF685
     /tmp/ccP2IRDu.s:72590  .debug_str:0000000000006347 .LASF686
     /tmp/ccP2IRDu.s:77428  .debug_str:000000000001303d .LASF687
     /tmp/ccP2IRDu.s:75352  .debug_str:000000000000d86d .LASF688
     /tmp/ccP2IRDu.s:72592  .debug_str:0000000000006352 .LASF689
     /tmp/ccP2IRDu.s:77430  .debug_str:0000000000013044 .LASF690
     /tmp/ccP2IRDu.s:70914  .debug_str:0000000000001dd4 .LASF691
     /tmp/ccP2IRDu.s:72808  .debug_str:0000000000006cbd .LASF692
     /tmp/ccP2IRDu.s:77432  .debug_str:000000000001304b .LASF693
     /tmp/ccP2IRDu.s:74016  .debug_str:000000000000a06a .LASF694
     /tmp/ccP2IRDu.s:72810  .debug_str:0000000000006cc6 .LASF695
     /tmp/ccP2IRDu.s:74146  .debug_str:000000000000a537 .LASF696
     /tmp/ccP2IRDu.s:76960  .debug_str:0000000000011bab .LASF697
     /tmp/ccP2IRDu.s:72812  .debug_str:0000000000006ccf .LASF698
     /tmp/ccP2IRDu.s:77436  .debug_str:000000000001305b .LASF699
     /tmp/ccP2IRDu.s:72598  .debug_str:000000000000638e .LASF700
     /tmp/ccP2IRDu.s:72814  .debug_str:0000000000006cd8 .LASF701
     /tmp/ccP2IRDu.s:77438  .debug_str:0000000000013062 .LASF702
     /tmp/ccP2IRDu.s:75628  .debug_str:000000000000e463 .LASF703
     /tmp/ccP2IRDu.s:71362  .debug_str:00000000000031b8 .LASF704
     /tmp/ccP2IRDu.s:77440  .debug_str:0000000000013069 .LASF705
     /tmp/ccP2IRDu.s:71172  .debug_str:00000000000029a0 .LASF706
     /tmp/ccP2IRDu.s:73124  .debug_str:0000000000007b6c .LASF707
     /tmp/ccP2IRDu.s:71830  .debug_str:0000000000004653 .LASF708
     /tmp/ccP2IRDu.s:72886  .debug_str:0000000000006ff3 .LASF709
     /tmp/ccP2IRDu.s:72766  .debug_str:0000000000006b42 .LASF710
     /tmp/ccP2IRDu.s:71832  .debug_str:0000000000004659 .LASF711
     /tmp/ccP2IRDu.s:75904  .debug_str:000000000000f059 .LASF712
     /tmp/ccP2IRDu.s:71314  .debug_str:0000000000002fa8 .LASF713
     /tmp/ccP2IRDu.s:71834  .debug_str:000000000000465f .LASF714
     /tmp/ccP2IRDu.s:71412  .debug_str:000000000000344a .LASF715
     /tmp/ccP2IRDu.s:71318  .debug_str:0000000000002fc5 .LASF716
     /tmp/ccP2IRDu.s:71876  .debug_str:0000000000004853 .LASF717
     /tmp/ccP2IRDu.s:76092  .debug_str:000000000000f8d7 .LASF718
     /tmp/ccP2IRDu.s:72910  .debug_str:0000000000007148 .LASF719
     /tmp/ccP2IRDu.s:71878  .debug_str:0000000000004859 .LASF720
     /tmp/ccP2IRDu.s:71634  .debug_str:0000000000003d69 .LASF721
     /tmp/ccP2IRDu.s:73308  .debug_str:0000000000008359 .LASF722
     /tmp/ccP2IRDu.s:70724  .debug_str:00000000000015f8 .LASF723
     /tmp/ccP2IRDu.s:74806  .debug_str:000000000000bf8c .LASF724
     /tmp/ccP2IRDu.s:75284  .debug_str:000000000000d5a5 .LASF725
     /tmp/ccP2IRDu.s:71882  .debug_str:0000000000004869 .LASF726
     /tmp/ccP2IRDu.s:70276  .debug_str:000000000000051e .LASF727
     /tmp/ccP2IRDu.s:75286  .debug_str:000000000000d5b3 .LASF728
     /tmp/ccP2IRDu.s:71884  .debug_str:000000000000486f .LASF729
     /tmp/ccP2IRDu.s:73368  .debug_str:000000000000860c .LASF730
     /tmp/ccP2IRDu.s:74212  .debug_str:000000000000a75f .LASF731
     /tmp/ccP2IRDu.s:71886  .debug_str:0000000000004875 .LASF732
     /tmp/ccP2IRDu.s:76382  .debug_str:000000000001053a .LASF733
     /tmp/ccP2IRDu.s:76384  .debug_str:000000000001055a .LASF734
     /tmp/ccP2IRDu.s:71888  .debug_str:000000000000487b .LASF735
     /tmp/ccP2IRDu.s:71896  .debug_str:0000000000004893 .LASF736
     /tmp/ccP2IRDu.s:72382  .debug_str:0000000000005a2a .LASF737
     /tmp/ccP2IRDu.s:71890  .debug_str:0000000000004881 .LASF738
     /tmp/ccP2IRDu.s:75032  .debug_str:000000000000ca53 .LASF739
     /tmp/ccP2IRDu.s:72494  .debug_str:0000000000005f25 .LASF740
     /tmp/ccP2IRDu.s:71892  .debug_str:0000000000004887 .LASF741
     /tmp/ccP2IRDu.s:70596  .debug_str:0000000000001138 .LASF742
     /tmp/ccP2IRDu.s:77340  .debug_str:0000000000012c8e .LASF743
     /tmp/ccP2IRDu.s:71894  .debug_str:000000000000488d .LASF744
     /tmp/ccP2IRDu.s:73644  .debug_str:00000000000091a8 .LASF745
     /tmp/ccP2IRDu.s:71696  .debug_str:00000000000040a8 .LASF746
     /tmp/ccP2IRDu.s:71948  .debug_str:0000000000004acb .LASF747
     /tmp/ccP2IRDu.s:70816  .debug_str:0000000000001a10 .LASF748
     /tmp/ccP2IRDu.s:71850  .debug_str:000000000000472e .LASF749
     /tmp/ccP2IRDu.s:71950  .debug_str:0000000000004ad1 .LASF750
     /tmp/ccP2IRDu.s:73880  .debug_str:0000000000009b88 .LASF751
     /tmp/ccP2IRDu.s:75486  .debug_str:000000000000de98 .LASF752
     /tmp/ccP2IRDu.s:70820  .debug_str:0000000000001a4b .LASF753
     /tmp/ccP2IRDu.s:76858  .debug_str:0000000000011753 .LASF754
     /tmp/ccP2IRDu.s:71298  .debug_str:0000000000002f0b .LASF755
     /tmp/ccP2IRDu.s:70824  .debug_str:0000000000001a5c .LASF756
     /tmp/ccP2IRDu.s:72470  .debug_str:0000000000005deb .LASF757
     /tmp/ccP2IRDu.s:71300  .debug_str:0000000000002f15 .LASF758
     /tmp/ccP2IRDu.s:71956  .debug_str:0000000000004b0a .LASF759
     /tmp/ccP2IRDu.s:75512  .debug_str:000000000000df86 .LASF760
     /tmp/ccP2IRDu.s:72192  .debug_str:0000000000005320 .LASF761
     /tmp/ccP2IRDu.s:71958  .debug_str:0000000000004b10 .LASF762
     /tmp/ccP2IRDu.s:71056  .debug_str:0000000000002403 .LASF763
     /tmp/ccP2IRDu.s:75266  .debug_str:000000000000d50e .LASF764
     /tmp/ccP2IRDu.s:71960  .debug_str:0000000000004b16 .LASF765
     /tmp/ccP2IRDu.s:74186  .debug_str:000000000000a63d .LASF766
     /tmp/ccP2IRDu.s:75270  .debug_str:000000000000d53f .LASF767
     /tmp/ccP2IRDu.s:70832  .debug_str:0000000000001aa8 .LASF768
     /tmp/ccP2IRDu.s:77108  .debug_str:00000000000121fa .LASF769
     /tmp/ccP2IRDu.s:75144  .debug_str:000000000000cf65 .LASF770
     /tmp/ccP2IRDu.s:71964  .debug_str:0000000000004b2b .LASF771
     /tmp/ccP2IRDu.s:72748  .debug_str:0000000000006a7c .LASF772
     /tmp/ccP2IRDu.s:70884  .debug_str:0000000000001ca8 .LASF773
     /tmp/ccP2IRDu.s:71966  .debug_str:0000000000004b31 .LASF774
     /tmp/ccP2IRDu.s:75748  .debug_str:000000000000ea0d .LASF775
     /tmp/ccP2IRDu.s:76632  .debug_str:0000000000010e39 .LASF776
     /tmp/ccP2IRDu.s:72030  .debug_str:0000000000004dd6 .LASF777
     /tmp/ccP2IRDu.s:72966  .debug_str:0000000000007387 .LASF778
     /tmp/ccP2IRDu.s:76242  .debug_str:000000000000ff39 .LASF779
     /tmp/ccP2IRDu.s:72032  .debug_str:0000000000004ddc .LASF780
     /tmp/ccP2IRDu.s:75988  .debug_str:000000000000f403 .LASF781
     /tmp/ccP2IRDu.s:75640  .debug_str:000000000000e518 .LASF782
     /tmp/ccP2IRDu.s:72034  .debug_str:0000000000004de2 .LASF783
     /tmp/ccP2IRDu.s:71514  .debug_str:000000000000381a .LASF784
     /tmp/ccP2IRDu.s:74272  .debug_str:000000000000a9cf .LASF785
     /tmp/ccP2IRDu.s:72036  .debug_str:0000000000004de8 .LASF786
     /tmp/ccP2IRDu.s:74692  .debug_str:000000000000ba69 .LASF787
     /tmp/ccP2IRDu.s:74276  .debug_str:000000000000a9ed .LASF788
     /tmp/ccP2IRDu.s:72038  .debug_str:0000000000004dee .LASF789
     /tmp/ccP2IRDu.s:70172  .debug_str:000000000000004d .LASF790
     /tmp/ccP2IRDu.s:70920  .debug_str:0000000000001e22 .LASF791
     /tmp/ccP2IRDu.s:72040  .debug_str:0000000000004df4 .LASF792
     /tmp/ccP2IRDu.s:73246  .debug_str:00000000000080cc .LASF793
     /tmp/ccP2IRDu.s:71554  .debug_str:00000000000039ce .LASF794
     /tmp/ccP2IRDu.s:72042  .debug_str:0000000000004dfa .LASF795
     /tmp/ccP2IRDu.s:76236  .debug_str:000000000000feed .LASF796
     /tmp/ccP2IRDu.s:70674  .debug_str:0000000000001471 .LASF797
     /tmp/ccP2IRDu.s:72044  .debug_str:0000000000004e00 .LASF798
     /tmp/ccP2IRDu.s:71766  .debug_str:000000000000432c .LASF799
     /tmp/ccP2IRDu.s:72414  .debug_str:0000000000005beb .LASF800
     /tmp/ccP2IRDu.s:72046  .debug_str:0000000000004e06 .LASF801
     /tmp/ccP2IRDu.s:74912  .debug_str:000000000000c4ca .LASF802
     /tmp/ccP2IRDu.s:73204  .debug_str:0000000000007edc .LASF803
     /tmp/ccP2IRDu.s:72048  .debug_str:0000000000004e0c .LASF804
     /tmp/ccP2IRDu.s:70430  .debug_str:0000000000000b1a .LASF805
     /tmp/ccP2IRDu.s:77038  .debug_str:0000000000011f8c .LASF806
     /tmp/ccP2IRDu.s:72128  .debug_str:000000000000512d .LASF807
     /tmp/ccP2IRDu.s:75096  .debug_str:000000000000cdbb .LASF808
     /tmp/ccP2IRDu.s:74308  .debug_str:000000000000aadd .LASF809
     /tmp/ccP2IRDu.s:77374  .debug_str:0000000000012df5 .LASF810
     /tmp/ccP2IRDu.s:70698  .debug_str:00000000000014cc .LASF811
     /tmp/ccP2IRDu.s:73408  .debug_str:00000000000087b4 .LASF812
     /tmp/ccP2IRDu.s:72132  .debug_str:000000000000513e .LASF813
     /tmp/ccP2IRDu.s:73732  .debug_str:0000000000009550 .LASF814
     /tmp/ccP2IRDu.s:75508  .debug_str:000000000000df6a .LASF815
     /tmp/ccP2IRDu.s:72134  .debug_str:0000000000005144 .LASF816
     /tmp/ccP2IRDu.s:76746  .debug_str:00000000000112c8 .LASF817
     /tmp/ccP2IRDu.s:74968  .debug_str:000000000000c793 .LASF818
     /tmp/ccP2IRDu.s:72136  .debug_str:000000000000514a .LASF819
     /tmp/ccP2IRDu.s:72354  .debug_str:0000000000005953 .LASF820
     /tmp/ccP2IRDu.s:74970  .debug_str:000000000000c7a0 .LASF821
     /tmp/ccP2IRDu.s:72138  .debug_str:0000000000005150 .LASF822
     /tmp/ccP2IRDu.s:75378  .debug_str:000000000000d9c2 .LASF823
     /tmp/ccP2IRDu.s:76212  .debug_str:000000000000fdc0 .LASF824
     /tmp/ccP2IRDu.s:72140  .debug_str:0000000000005156 .LASF825
     /tmp/ccP2IRDu.s:70930  .debug_str:0000000000001e6d .LASF826
     /tmp/ccP2IRDu.s:71342  .debug_str:0000000000003109 .LASF827
     /tmp/ccP2IRDu.s:72142  .debug_str:000000000000515c .LASF828
     /tmp/ccP2IRDu.s:74050  .debug_str:000000000000a155 .LASF829
     /tmp/ccP2IRDu.s:71346  .debug_str:0000000000003145 .LASF830
     /tmp/ccP2IRDu.s:72144  .debug_str:0000000000005162 .LASF831
     /tmp/ccP2IRDu.s:76978  .debug_str:0000000000011c89 .LASF832
     /tmp/ccP2IRDu.s:70316  .debug_str:00000000000006ec .LASF833
     /tmp/ccP2IRDu.s:72146  .debug_str:0000000000005168 .LASF834
     /tmp/ccP2IRDu.s:72624  .debug_str:00000000000064b5 .LASF835
     /tmp/ccP2IRDu.s:76138  .debug_str:000000000000fa90 .LASF836
     /tmp/ccP2IRDu.s:72208  .debug_str:00000000000053ea .LASF837
     /tmp/ccP2IRDu.s:77254  .debug_str:000000000001286c .LASF838
     /tmp/ccP2IRDu.s:76140  .debug_str:000000000000fa9e .LASF839
     /tmp/ccP2IRDu.s:72210  .debug_str:00000000000053f0 .LASF840
     /tmp/ccP2IRDu.s:72902  .debug_str:00000000000070d3 .LASF841
     /tmp/ccP2IRDu.s:70350  .debug_str:000000000000084b .LASF842
     /tmp/ccP2IRDu.s:72212  .debug_str:00000000000053f6 .LASF843
     /tmp/ccP2IRDu.s:75916  .debug_str:000000000000f0f8 .LASF844
     /tmp/ccP2IRDu.s:72638  .debug_str:000000000000655e .LASF845
     /tmp/ccP2IRDu.s:72214  .debug_str:00000000000053fc .LASF846
     /tmp/ccP2IRDu.s:71420  .debug_str:00000000000034a1 .LASF847
     /tmp/ccP2IRDu.s:72640  .debug_str:000000000000656c .LASF848
     /tmp/ccP2IRDu.s:72216  .debug_str:0000000000005402 .LASF849
     /tmp/ccP2IRDu.s:74618  .debug_str:000000000000b6d6 .LASF850
     /tmp/ccP2IRDu.s:76794  .debug_str:00000000000114df .LASF851
     /tmp/ccP2IRDu.s:72218  .debug_str:0000000000005408 .LASF852
     /tmp/ccP2IRDu.s:77496  .debug_str:0000000000013311 .LASF853
     /tmp/ccP2IRDu.s:76892  .debug_str:0000000000011936 .LASF854
     /tmp/ccP2IRDu.s:72220  .debug_str:000000000000540e .LASF855
     /tmp/ccP2IRDu.s:73174  .debug_str:0000000000007d95 .LASF856
     /tmp/ccP2IRDu.s:76896  .debug_str:0000000000011954 .LASF857
     /tmp/ccP2IRDu.s:71168  .debug_str:000000000000296f .LASF858
     /tmp/ccP2IRDu.s:76156  .debug_str:000000000000fb71 .LASF859
     /tmp/ccP2IRDu.s:72410  .debug_str:0000000000005bc5 .LASF860
     /tmp/ccP2IRDu.s:72224  .debug_str:000000000000541b .LASF861
     /tmp/ccP2IRDu.s:71694  .debug_str:0000000000004088 .LASF862
     /tmp/ccP2IRDu.s:73402  .debug_str:0000000000008784 .LASF863
     /tmp/ccP2IRDu.s:72226  .debug_str:0000000000005421 .LASF864
     /tmp/ccP2IRDu.s:74860  .debug_str:000000000000c270 .LASF865
     /tmp/ccP2IRDu.s:73404  .debug_str:0000000000008796 .LASF866
     /tmp/ccP2IRDu.s:72276  .debug_str:0000000000005615 .LASF867
     /tmp/ccP2IRDu.s:71910  .debug_str:0000000000004938 .LASF868
     /tmp/ccP2IRDu.s:71490  .debug_str:000000000000374c .LASF869
     /tmp/ccP2IRDu.s:72278  .debug_str:000000000000561b .LASF870
     /tmp/ccP2IRDu.s:75042  .debug_str:000000000000cae6 .LASF871
     /tmp/ccP2IRDu.s:72012  .debug_str:0000000000004d13 .LASF872
     /tmp/ccP2IRDu.s:72280  .debug_str:0000000000005621 .LASF873
     /tmp/ccP2IRDu.s:70606  .debug_str:00000000000011dc .LASF874
     /tmp/ccP2IRDu.s:72016  .debug_str:0000000000004d24 .LASF875
     /tmp/ccP2IRDu.s:72282  .debug_str:0000000000005627 .LASF876
     /tmp/ccP2IRDu.s:73656  .debug_str:0000000000009229 .LASF877
     /tmp/ccP2IRDu.s:75726  .debug_str:000000000000e930 .LASF878
     /tmp/ccP2IRDu.s:72284  .debug_str:000000000000562d .LASF879
     /tmp/ccP2IRDu.s:76682  .debug_str:000000000001107a .LASF880
     /tmp/ccP2IRDu.s:75974  .debug_str:000000000000f37d .LASF881
     /tmp/ccP2IRDu.s:72286  .debug_str:0000000000005633 .LASF882
     /tmp/ccP2IRDu.s:72262  .debug_str:0000000000005576 .LASF883
     /tmp/ccP2IRDu.s:75976  .debug_str:000000000000f389 .LASF884
     /tmp/ccP2IRDu.s:72288  .debug_str:0000000000005639 .LASF885
     /tmp/ccP2IRDu.s:75298  .debug_str:000000000000d640 .LASF886
     /tmp/ccP2IRDu.s:76634  .debug_str:0000000000010e44 .LASF887
     /tmp/ccP2IRDu.s:72290  .debug_str:000000000000563f .LASF888
     /tmp/ccP2IRDu.s:70866  .debug_str:0000000000001bf7 .LASF889
     /tmp/ccP2IRDu.s:75098  .debug_str:000000000000cddb .LASF890
     /tmp/ccP2IRDu.s:72292  .debug_str:0000000000005645 .LASF891
     /tmp/ccP2IRDu.s:73958  .debug_str:0000000000009e46 .LASF892
     /tmp/ccP2IRDu.s:75100  .debug_str:000000000000cde8 .LASF893
     /tmp/ccP2IRDu.s:72294  .debug_str:000000000000564b .LASF894
     /tmp/ccP2IRDu.s:76920  .debug_str:00000000000119ea .LASF895
     /tmp/ccP2IRDu.s:73274  .debug_str:00000000000081b3 .LASF896
     /tmp/ccP2IRDu.s:72352  .debug_str:000000000000594d .LASF897
     /tmp/ccP2IRDu.s:74194  .debug_str:000000000000a694 .LASF898
     /tmp/ccP2IRDu.s:71492  .debug_str:000000000000375a .LASF899
     /tmp/ccP2IRDu.s:71376  .debug_str:000000000000324c .LASF900
     /tmp/ccP2IRDu.s:77116  .debug_str:000000000001226d .LASF901
     /tmp/ccP2IRDu.s:71494  .debug_str:0000000000003767 .LASF902
     /tmp/ccP2IRDu.s:72356  .debug_str:0000000000005973 .LASF903
     /tmp/ccP2IRDu.s:72756  .debug_str:0000000000006add .LASF904
     /tmp/ccP2IRDu.s:72244  .debug_str:00000000000054e2 .LASF905
     /tmp/ccP2IRDu.s:72358  .debug_str:0000000000005979 .LASF906
     /tmp/ccP2IRDu.s:75764  .debug_str:000000000000eae0 .LASF907
     /tmp/ccP2IRDu.s:73406  .debug_str:00000000000087a8 .LASF908
     /tmp/ccP2IRDu.s:72360  .debug_str:000000000000597f .LASF909
     /tmp/ccP2IRDu.s:71312  .debug_str:0000000000002f88 .LASF910
     /tmp/ccP2IRDu.s:73216  .debug_str:0000000000007f41 .LASF911
     /tmp/ccP2IRDu.s:72362  .debug_str:0000000000005985 .LASF912
     /tmp/ccP2IRDu.s:76996  .debug_str:0000000000011d62 .LASF913
     /tmp/ccP2IRDu.s:77372  .debug_str:0000000000012deb .LASF914
     /tmp/ccP2IRDu.s:72364  .debug_str:000000000000598b .LASF915
     /tmp/ccP2IRDu.s:77384  .debug_str:0000000000012e56 .LASF916
     /tmp/ccP2IRDu.s:73850  .debug_str:0000000000009a19 .LASF917
     /tmp/ccP2IRDu.s:72366  .debug_str:0000000000005991 .LASF918
     /tmp/ccP2IRDu.s:73030  .debug_str:00000000000076fc .LASF919
     /tmp/ccP2IRDu.s:77070  .debug_str:00000000000120b5 .LASF920
     /tmp/ccP2IRDu.s:72368  .debug_str:0000000000005997 .LASF921
     /tmp/ccP2IRDu.s:76040  .debug_str:000000000000f699 .LASF922
     /tmp/ccP2IRDu.s:76772  .debug_str:00000000000113ee .LASF923
     /tmp/ccP2IRDu.s:72370  .debug_str:000000000000599d .LASF924
     /tmp/ccP2IRDu.s:71586  .debug_str:0000000000003b45 .LASF925
     /tmp/ccP2IRDu.s:70846  .debug_str:0000000000001b26 .LASF926
     /tmp/ccP2IRDu.s:71484  .debug_str:000000000000370f .LASF927
     /tmp/ccP2IRDu.s:76246  .debug_str:000000000000ff63 .LASF928
     /tmp/ccP2IRDu.s:70942  .debug_str:0000000000001f21 .LASF929
     /tmp/ccP2IRDu.s:72416  .debug_str:0000000000005bf7 .LASF930
     /tmp/ccP2IRDu.s:71774  .debug_str:0000000000004386 .LASF931
     /tmp/ccP2IRDu.s:73512  .debug_str:0000000000008be5 .LASF932
     /tmp/ccP2IRDu.s:72418  .debug_str:0000000000005bfd .LASF933
     /tmp/ccP2IRDu.s:74922  .debug_str:000000000000c54e .LASF934
     /tmp/ccP2IRDu.s:76810  .debug_str:000000000001158a .LASF935
     /tmp/ccP2IRDu.s:72420  .debug_str:0000000000005c03 .LASF936
     /tmp/ccP2IRDu.s:70450  .debug_str:0000000000000be8 .LASF937
     /tmp/ccP2IRDu.s:72254  .debug_str:0000000000005539 .LASF938
     /tmp/ccP2IRDu.s:72422  .debug_str:0000000000005c09 .LASF939
     /tmp/ccP2IRDu.s:73530  .debug_str:0000000000008c7b .LASF940
     /tmp/ccP2IRDu.s:70642  .debug_str:0000000000001314 .LASF941
     /tmp/ccP2IRDu.s:72424  .debug_str:0000000000005c0f .LASF942
     /tmp/ccP2IRDu.s:76536  .debug_str:0000000000010b18 .LASF943
     /tmp/ccP2IRDu.s:75598  .debug_str:000000000000e32c .LASF944
     /tmp/ccP2IRDu.s:72426  .debug_str:0000000000005c15 .LASF945
     /tmp/ccP2IRDu.s:72096  .debug_str:0000000000004f87 .LASF946
     /tmp/ccP2IRDu.s:77026  .debug_str:0000000000011ee9 .LASF947
     /tmp/ccP2IRDu.s:72428  .debug_str:0000000000005c1b .LASF948
     /tmp/ccP2IRDu.s:75174  .debug_str:000000000000d0c1 .LASF949
     /tmp/ccP2IRDu.s:72534  .debug_str:00000000000060ef .LASF950
     /tmp/ccP2IRDu.s:72430  .debug_str:0000000000005c21 .LASF951
     /tmp/ccP2IRDu.s:70760  .debug_str:000000000000175c .LASF952
     /tmp/ccP2IRDu.s:77546  .debug_str:0000000000013507 .LASF953
     /tmp/ccP2IRDu.s:72432  .debug_str:0000000000005c27 .LASF954
     /tmp/ccP2IRDu.s:73806  .debug_str:0000000000009864 .LASF955
     /tmp/ccP2IRDu.s:74192  .debug_str:000000000000a685 .LASF956
     /tmp/ccP2IRDu.s:73818  .debug_str:000000000000991a .LASF957
     /tmp/ccP2IRDu.s:70948  .debug_str:0000000000001f60 .LASF958
     /tmp/ccP2IRDu.s:75544  .debug_str:000000000000e0c8 .LASF959
     /tmp/ccP2IRDu.s:73820  .debug_str:0000000000009921 .LASF960
     /tmp/ccP2IRDu.s:74062  .debug_str:000000000000a1ca .LASF961
     /tmp/ccP2IRDu.s:72672  .debug_str:00000000000066dd .LASF962
     /tmp/ccP2IRDu.s:73822  .debug_str:0000000000009928 .LASF963
     /tmp/ccP2IRDu.s:76112  .debug_str:000000000000f998 .LASF964
     /tmp/ccP2IRDu.s:70582  .debug_str:0000000000001090 .LASF965
     /tmp/ccP2IRDu.s:73824  .debug_str:000000000000992f .LASF966
     /tmp/ccP2IRDu.s:73574  .debug_str:0000000000008e9a .LASF967
     /tmp/ccP2IRDu.s:70586  .debug_str:00000000000010b1 .LASF968
     /tmp/ccP2IRDu.s:73826  .debug_str:0000000000009936 .LASF969
     /tmp/ccP2IRDu.s:75646  .debug_str:000000000000e54f .LASF970
     /tmp/ccP2IRDu.s:74738  .debug_str:000000000000bcb6 .LASF971
     /tmp/ccP2IRDu.s:73828  .debug_str:000000000000993d .LASF972
     /tmp/ccP2IRDu.s:71198  .debug_str:0000000000002aa2 .LASF973
     /tmp/ccP2IRDu.s:71356  .debug_str:0000000000003193 .LASF974
     /tmp/ccP2IRDu.s:73882  .debug_str:0000000000009ba8 .LASF975
     /tmp/ccP2IRDu.s:74330  .debug_str:000000000000abb7 .LASF976
     /tmp/ccP2IRDu.s:75934  .debug_str:000000000000f1ea .LASF977
     /tmp/ccP2IRDu.s:73832  .debug_str:0000000000009977 .LASF978
     /tmp/ccP2IRDu.s:70648  .debug_str:000000000000135e .LASF979
     /tmp/ccP2IRDu.s:70428  .debug_str:0000000000000b09 .LASF980
     /tmp/ccP2IRDu.s:73834  .debug_str:000000000000997e .LASF981
     /tmp/ccP2IRDu.s:72906  .debug_str:000000000000710b .LASF982
     /tmp/ccP2IRDu.s:70432  .debug_str:0000000000000b3a .LASF983
     /tmp/ccP2IRDu.s:73836  .debug_str:0000000000009985 .LASF984
     /tmp/ccP2IRDu.s:75924  .debug_str:000000000000f16a .LASF985
     /tmp/ccP2IRDu.s:75016  .debug_str:000000000000c98f .LASF986
     /tmp/ccP2IRDu.s:73890  .debug_str:0000000000009bf3 .LASF987
     /tmp/ccP2IRDu.s:71584  .debug_str:0000000000003b24 .LASF988
     /tmp/ccP2IRDu.s:76638  .debug_str:0000000000010e87 .LASF989
     /tmp/ccP2IRDu.s:73892  .debug_str:0000000000009bfa .LASF990
     /tmp/ccP2IRDu.s:76114  .debug_str:000000000000f9b9 .LASF991
     /tmp/ccP2IRDu.s:74468  .debug_str:000000000000b047 .LASF992
     /tmp/ccP2IRDu.s:73894  .debug_str:0000000000009c01 .LASF993
     /tmp/ccP2IRDu.s:71648  .debug_str:0000000000003e0d .LASF994
     /tmp/ccP2IRDu.s:71148  .debug_str:00000000000028b2 .LASF995
     /tmp/ccP2IRDu.s:73896  .debug_str:0000000000009c08 .LASF996
     /tmp/ccP2IRDu.s:74820  .debug_str:000000000000c05b .LASF997
     /tmp/ccP2IRDu.s:76624  .debug_str:0000000000010e03 .LASF998
     /tmp/ccP2IRDu.s:73898  .debug_str:0000000000009c0f .LASF999
     /tmp/ccP2IRDu.s:70298  .debug_str:0000000000000604 .LASF1000
     /tmp/ccP2IRDu.s:76628  .debug_str:0000000000010e1b .LASF1001
     /tmp/ccP2IRDu.s:73900  .debug_str:0000000000009c16 .LASF1002
     /tmp/ccP2IRDu.s:73398  .debug_str:0000000000008752 .LASF1003
     /tmp/ccP2IRDu.s:72186  .debug_str:00000000000052c4 .LASF1004
     /tmp/ccP2IRDu.s:74022  .debug_str:000000000000a0ce .LASF1005
     /tmp/ccP2IRDu.s:76402  .debug_str:0000000000010605 .LASF1006
     /tmp/ccP2IRDu.s:73100  .debug_str:0000000000007a64 .LASF1007
     /tmp/ccP2IRDu.s:74026  .debug_str:000000000000a0de .LASF1008
     /tmp/ccP2IRDu.s:71914  .debug_str:000000000000496d .LASF1009
     /tmp/ccP2IRDu.s:73104  .debug_str:0000000000007a86 .LASF1010
     /tmp/ccP2IRDu.s:73906  .debug_str:0000000000009c57 .LASF1011
     /tmp/ccP2IRDu.s:75046  .debug_str:000000000000cb2d .LASF1012
     /tmp/ccP2IRDu.s:76614  .debug_str:0000000000010dbf .LASF1013
     /tmp/ccP2IRDu.s:73908  .debug_str:0000000000009c5e .LASF1014
     /tmp/ccP2IRDu.s:70624  .debug_str:0000000000001234 .LASF1015
     /tmp/ccP2IRDu.s:77164  .debug_str:0000000000012495 .LASF1016
     /tmp/ccP2IRDu.s:73962  .debug_str:0000000000009e71 .LASF1017
     /tmp/ccP2IRDu.s:72630  .debug_str:000000000000650a .LASF1018
     /tmp/ccP2IRDu.s:70922  .debug_str:0000000000001e2c .LASF1019
     /tmp/ccP2IRDu.s:74150  .debug_str:000000000000a54e .LASF1020
     /tmp/ccP2IRDu.s:70838  .debug_str:0000000000001ac7 .LASF1021
     /tmp/ccP2IRDu.s:74498  .debug_str:000000000000b1a2 .LASF1022
     /tmp/ccP2IRDu.s:73966  .debug_str:0000000000009e87 .LASF1023
     /tmp/ccP2IRDu.s:73914  .debug_str:0000000000009caa .LASF1024
     /tmp/ccP2IRDu.s:73684  .debug_str:00000000000093ba .LASF1025
     /tmp/ccP2IRDu.s:73968  .debug_str:0000000000009e8e .LASF1026
     /tmp/ccP2IRDu.s:76876  .debug_str:0000000000011849 .LASF1027
     /tmp/ccP2IRDu.s:73688  .debug_str:00000000000093d1 .LASF1028
     /tmp/ccP2IRDu.s:73970  .debug_str:0000000000009e95 .LASF1029
     /tmp/ccP2IRDu.s:72482  .debug_str:0000000000005e74 .LASF1030
     /tmp/ccP2IRDu.s:71536  .debug_str:0000000000003903 .LASF1031
     /tmp/ccP2IRDu.s:73972  .debug_str:0000000000009e9c .LASF1032
     /tmp/ccP2IRDu.s:75528  .debug_str:000000000000e02a .LASF1033
     /tmp/ccP2IRDu.s:72058  .debug_str:0000000000004e56 .LASF1034
     /tmp/ccP2IRDu.s:73974  .debug_str:0000000000009ea3 .LASF1035
     /tmp/ccP2IRDu.s:71072  .debug_str:0000000000002492 .LASF1036
     /tmp/ccP2IRDu.s:72060  .debug_str:0000000000004e61 .LASF1037
     /tmp/ccP2IRDu.s:73976  .debug_str:0000000000009eaa .LASF1038
     /tmp/ccP2IRDu.s:74204  .debug_str:000000000000a6fd .LASF1039
     /tmp/ccP2IRDu.s:70882  .debug_str:0000000000001c9f .LASF1040
     /tmp/ccP2IRDu.s:73978  .debug_str:0000000000009eb1 .LASF1041
     /tmp/ccP2IRDu.s:77126  .debug_str:00000000000122c5 .LASF1042
     /tmp/ccP2IRDu.s:75996  .debug_str:000000000000f476 .LASF1043
     /tmp/ccP2IRDu.s:73980  .debug_str:0000000000009eb8 .LASF1044
     /tmp/ccP2IRDu.s:72768  .debug_str:0000000000006b52 .LASF1045
     /tmp/ccP2IRDu.s:75998  .debug_str:000000000000f481 .LASF1046
     /tmp/ccP2IRDu.s:74030  .debug_str:000000000000a0f8 .LASF1047
     /tmp/ccP2IRDu.s:77346  .debug_str:0000000000012cd3 .LASF1048
     /tmp/ccP2IRDu.s:71458  .debug_str:00000000000035eb .LASF1049
     /tmp/ccP2IRDu.s:74032  .debug_str:000000000000a0ff .LASF1050
     /tmp/ccP2IRDu.s:72984  .debug_str:00000000000074b4 .LASF1051
     /tmp/ccP2IRDu.s:71916  .debug_str:000000000000498e .LASF1052
     /tmp/ccP2IRDu.s:74034  .debug_str:000000000000a106 .LASF1053
     /tmp/ccP2IRDu.s:76866  .debug_str:00000000000117ca .LASF1054
     /tmp/ccP2IRDu.s:73778  .debug_str:0000000000009748 .LASF1055
     /tmp/ccP2IRDu.s:74036  .debug_str:000000000000a10d .LASF1056
     /tmp/ccP2IRDu.s:71546  .debug_str:0000000000003962 .LASF1057
     /tmp/ccP2IRDu.s:74500  .debug_str:000000000000b1af .LASF1058
     /tmp/ccP2IRDu.s:74038  .debug_str:000000000000a114 .LASF1059
     /tmp/ccP2IRDu.s:74710  .debug_str:000000000000bb36 .LASF1060
     /tmp/ccP2IRDu.s:73458  .debug_str:0000000000008a28 .LASF1061
     /tmp/ccP2IRDu.s:74532  .debug_str:000000000000b33b .LASF1062
     /tmp/ccP2IRDu.s:70190  .debug_str:000000000000013e .LASF1063
     /tmp/ccP2IRDu.s:73034  .debug_str:000000000000772f .LASF1064
     /tmp/ccP2IRDu.s:74042  .debug_str:000000000000a139 .LASF1065
     /tmp/ccP2IRDu.s:73264  .debug_str:000000000000815a .LASF1066
     /tmp/ccP2IRDu.s:73038  .debug_str:0000000000007752 .LASF1067
     /tmp/ccP2IRDu.s:74044  .debug_str:000000000000a140 .LASF1068
     /tmp/ccP2IRDu.s:76254  .debug_str:000000000000ffe8 .LASF1069
     /tmp/ccP2IRDu.s:76126  .debug_str:000000000000fa2c .LASF1070
     /tmp/ccP2IRDu.s:74046  .debug_str:000000000000a147 .LASF1071
     /tmp/ccP2IRDu.s:71782  .debug_str:00000000000043d9 .LASF1072
     /tmp/ccP2IRDu.s:76898  .debug_str:0000000000011966 .LASF1073
     /tmp/ccP2IRDu.s:74048  .debug_str:000000000000a14e .LASF1074
     /tmp/ccP2IRDu.s:74926  .debug_str:000000000000c5b8 .LASF1075
     /tmp/ccP2IRDu.s:76900  .debug_str:0000000000011972 .LASF1076
     /tmp/ccP2IRDu.s:74098  .debug_str:000000000000a361 .LASF1077
     /tmp/ccP2IRDu.s:72026  .debug_str:0000000000004d9e .LASF1078
     /tmp/ccP2IRDu.s:74524  .debug_str:000000000000b2fe .LASF1079
     /tmp/ccP2IRDu.s:74100  .debug_str:000000000000a368 .LASF1080
     /tmp/ccP2IRDu.s:77200  .debug_str:00000000000125d3 .LASF1081
     /tmp/ccP2IRDu.s:77114  .debug_str:0000000000012262 .LASF1082
     /tmp/ccP2IRDu.s:74102  .debug_str:000000000000a36f .LASF1083
     /tmp/ccP2IRDu.s:70726  .debug_str:00000000000015fe .LASF1084
     /tmp/ccP2IRDu.s:71460  .debug_str:00000000000035fb .LASF1085
     /tmp/ccP2IRDu.s:74104  .debug_str:000000000000a376 .LASF1086
     /tmp/ccP2IRDu.s:73754  .debug_str:0000000000009614 .LASF1087
     /tmp/ccP2IRDu.s:74174  .debug_str:000000000000a5e6 .LASF1088
     /tmp/ccP2IRDu.s:74106  .debug_str:000000000000a37d .LASF1089
     /tmp/ccP2IRDu.s:76758  .debug_str:0000000000011368 .LASF1090
     /tmp/ccP2IRDu.s:75272  .debug_str:000000000000d549 .LASF1091
     /tmp/ccP2IRDu.s:74108  .debug_str:000000000000a384 .LASF1092
     /tmp/ccP2IRDu.s:72376  .debug_str:00000000000059dc .LASF1093
     /tmp/ccP2IRDu.s:76696  .debug_str:00000000000110f2 .LASF1094
     /tmp/ccP2IRDu.s:74110  .debug_str:000000000000a38b .LASF1095
     /tmp/ccP2IRDu.s:75408  .debug_str:000000000000db0c .LASF1096
     /tmp/ccP2IRDu.s:76698  .debug_str:00000000000110fd .LASF1097
     /tmp/ccP2IRDu.s:74112  .debug_str:000000000000a392 .LASF1098
     /tmp/ccP2IRDu.s:74828  .debug_str:000000000000c0ba .LASF1099
     /tmp/ccP2IRDu.s:71064  .debug_str:000000000000245f .LASF1100
     /tmp/ccP2IRDu.s:74114  .debug_str:000000000000a399 .LASF1101
     /tmp/ccP2IRDu.s:74070  .debug_str:000000000000a22e .LASF1102
     /tmp/ccP2IRDu.s:70862  .debug_str:0000000000001bd0 .LASF1103
     /tmp/ccP2IRDu.s:74116  .debug_str:000000000000a3a0 .LASF1104
     /tmp/ccP2IRDu.s:77004  .debug_str:0000000000011dc9 .LASF1105
     /tmp/ccP2IRDu.s:74918  .debug_str:000000000000c51c .LASF1106
     /tmp/ccP2IRDu.s:74158  .debug_str:000000000000a5a9 .LASF1107
     /tmp/ccP2IRDu.s:74292  .debug_str:000000000000aa35 .LASF1108
     /tmp/ccP2IRDu.s:73170  .debug_str:0000000000007d65 .LASF1109
     /tmp/ccP2IRDu.s:74160  .debug_str:000000000000a5b0 .LASF1110
     /tmp/ccP2IRDu.s:77212  .debug_str:0000000000012676 .LASF1111
     /tmp/ccP2IRDu.s:76018  .debug_str:000000000000f593 .LASF1112
     /tmp/ccP2IRDu.s:74540  .debug_str:000000000000b376 .LASF1113
     /tmp/ccP2IRDu.s:72854  .debug_str:0000000000006e71 .LASF1114
     /tmp/ccP2IRDu.s:75322  .debug_str:000000000000d722 .LASF1115
     /tmp/ccP2IRDu.s:74164  .debug_str:000000000000a5c3 .LASF1116
     /tmp/ccP2IRDu.s:75868  .debug_str:000000000000eec4 .LASF1117
     /tmp/ccP2IRDu.s:74262  .debug_str:000000000000a970 .LASF1118
     /tmp/ccP2IRDu.s:74166  .debug_str:000000000000a5ca .LASF1119
     /tmp/ccP2IRDu.s:71392  .debug_str:000000000000330c .LASF1120
     /tmp/ccP2IRDu.s:72842  .debug_str:0000000000006e08 .LASF1121
     /tmp/ccP2IRDu.s:74168  .debug_str:000000000000a5d1 .LASF1122
     /tmp/ccP2IRDu.s:74576  .debug_str:000000000000b4d0 .LASF1123
     /tmp/ccP2IRDu.s:74068  .debug_str:000000000000a21c .LASF1124
     /tmp/ccP2IRDu.s:74170  .debug_str:000000000000a5d8 .LASF1125
     /tmp/ccP2IRDu.s:76928  .debug_str:0000000000011a4d .LASF1126
     /tmp/ccP2IRDu.s:74202  .debug_str:000000000000a6eb .LASF1127
     /tmp/ccP2IRDu.s:74172  .debug_str:000000000000a5df .LASF1128
     /tmp/ccP2IRDu.s:73134  .debug_str:0000000000007bdf .LASF1129
     /tmp/ccP2IRDu.s:76832  .debug_str:000000000001167e .LASF1130
     /tmp/ccP2IRDu.s:74550  .debug_str:000000000000b3d0 .LASF1131
     /tmp/ccP2IRDu.s:76128  .debug_str:000000000000fa36 .LASF1132
     /tmp/ccP2IRDu.s:76834  .debug_str:000000000001168e .LASF1133
     /tmp/ccP2IRDu.s:74176  .debug_str:000000000000a5f3 .LASF1134
     /tmp/ccP2IRDu.s:71658  .debug_str:0000000000003e93 .LASF1135
     /tmp/ccP2IRDu.s:72922  .debug_str:00000000000071b7 .LASF1136
     /tmp/ccP2IRDu.s:74222  .debug_str:000000000000a7d7 .LASF1137
     /tmp/ccP2IRDu.s:76418  .debug_str:00000000000106b5 .LASF1138
     /tmp/ccP2IRDu.s:73314  .debug_str:0000000000008396 .LASF1139
     /tmp/ccP2IRDu.s:74224  .debug_str:000000000000a7de .LASF1140
     /tmp/ccP2IRDu.s:71920  .debug_str:00000000000049b3 .LASF1141
     /tmp/ccP2IRDu.s:73318  .debug_str:00000000000083d3 .LASF1142
     /tmp/ccP2IRDu.s:74226  .debug_str:000000000000a7e5 .LASF1143
     /tmp/ccP2IRDu.s:75056  .debug_str:000000000000cbb8 .LASF1144
     /tmp/ccP2IRDu.s:73350  .debug_str:0000000000008546 .LASF1145
     /tmp/ccP2IRDu.s:74228  .debug_str:000000000000a7ec .LASF1146
     /tmp/ccP2IRDu.s:70640  .debug_str:00000000000012f3 .LASF1147
     /tmp/ccP2IRDu.s:71076  .debug_str:00000000000024db .LASF1148
     /tmp/ccP2IRDu.s:75018  .debug_str:000000000000c99e .LASF1149
     /tmp/ccP2IRDu.s:73672  .debug_str:00000000000092fe .LASF1150
     /tmp/ccP2IRDu.s:73748  .debug_str:00000000000095ec .LASF1151
     /tmp/ccP2IRDu.s:74232  .debug_str:000000000000a7fd .LASF1152
     /tmp/ccP2IRDu.s:76700  .debug_str:0000000000011108 .LASF1153
     /tmp/ccP2IRDu.s:70656  .debug_str:00000000000013b7 .LASF1154
     /tmp/ccP2IRDu.s:74234  .debug_str:000000000000a804 .LASF1155
     /tmp/ccP2IRDu.s:72296  .debug_str:0000000000005651 .LASF1156
     /tmp/ccP2IRDu.s:76728  .debug_str:000000000001122d .LASF1157
     /tmp/ccP2IRDu.s:74236  .debug_str:000000000000a80b .LASF1158
     /tmp/ccP2IRDu.s:75326  .debug_str:000000000000d748 .LASF1159
     /tmp/ccP2IRDu.s:71422  .debug_str:00000000000034c1 .LASF1160
     /tmp/ccP2IRDu.s:74238  .debug_str:000000000000a812 .LASF1161
     /tmp/ccP2IRDu.s:70886  .debug_str:0000000000001cb8 .LASF1162
     /tmp/ccP2IRDu.s:71430  .debug_str:00000000000034ef .LASF1163
     /tmp/ccP2IRDu.s:74240  .debug_str:000000000000a819 .LASF1164
     /tmp/ccP2IRDu.s:73986  .debug_str:0000000000009f04 .LASF1165
     /tmp/ccP2IRDu.s:71154  .debug_str:00000000000028fb .LASF1166
     /tmp/ccP2IRDu.s:74278  .debug_str:000000000000a9f9 .LASF1167
     /tmp/ccP2IRDu.s:71094  .debug_str:00000000000025b8 .LASF1168
     /tmp/ccP2IRDu.s:73044  .debug_str:0000000000007791 .LASF1169
     /tmp/ccP2IRDu.s:74280  .debug_str:000000000000aa00 .LASF1170
     /tmp/ccP2IRDu.s:74214  .debug_str:000000000000a76d .LASF1171
     /tmp/ccP2IRDu.s:73048  .debug_str:00000000000077b7 .LASF1172
     /tmp/ccP2IRDu.s:74282  .debug_str:000000000000aa07 .LASF1173
     /tmp/ccP2IRDu.s:77136  .debug_str:000000000001232b .LASF1174
     /tmp/ccP2IRDu.s:77338  .debug_str:0000000000012c7e .LASF1175
     /tmp/ccP2IRDu.s:74284  .debug_str:000000000000aa0e .LASF1176
     /tmp/ccP2IRDu.s:72780  .debug_str:0000000000006bd4 .LASF1177
     /tmp/ccP2IRDu.s:76182  .debug_str:000000000000fca4 .LASF1178
     /tmp/ccP2IRDu.s:74286  .debug_str:000000000000aa15 .LASF1179
     /tmp/ccP2IRDu.s:75784  .debug_str:000000000000ebb2 .LASF1180
     /tmp/ccP2IRDu.s:73646  .debug_str:00000000000091c8 .LASF1181
     /tmp/ccP2IRDu.s:74774  .debug_str:000000000000be15 .LASF1182
     /tmp/ccP2IRDu.s:71338  .debug_str:00000000000030d8 .LASF1183
     /tmp/ccP2IRDu.s:73662  .debug_str:0000000000009279 .LASF1184
     /tmp/ccP2IRDu.s:74290  .debug_str:000000000000aa2e .LASF1185
     /tmp/ccP2IRDu.s:74514  .debug_str:000000000000b274 .LASF1186
     /tmp/ccP2IRDu.s:77470  .debug_str:00000000000131b6 .LASF1187
     /tmp/ccP2IRDu.s:74776  .debug_str:000000000000be1c .LASF1188
     /tmp/ccP2IRDu.s:77406  .debug_str:0000000000012f50 .LASF1189
     /tmp/ccP2IRDu.s:77474  .debug_str:000000000001320e .LASF1190
     /tmp/ccP2IRDu.s:74294  .debug_str:000000000000aa56 .LASF1191
     /tmp/ccP2IRDu.s:73056  .debug_str:000000000000781d .LASF1192
     /tmp/ccP2IRDu.s:71740  .debug_str:0000000000004215 .LASF1193
     /tmp/ccP2IRDu.s:74296  .debug_str:000000000000aa5d .LASF1194
     /tmp/ccP2IRDu.s:76058  .debug_str:000000000000f78c .LASF1195
     /tmp/ccP2IRDu.s:72788  .debug_str:0000000000006c39 .LASF1196
     /tmp/ccP2IRDu.s:74340  .debug_str:000000000000ac13 .LASF1197
     /tmp/ccP2IRDu.s:71404  .debug_str:00000000000033be .LASF1198
     /tmp/ccP2IRDu.s:72792  .debug_str:0000000000006c61 .LASF1199
     /tmp/ccP2IRDu.s:74342  .debug_str:000000000000ac1a .LASF1200
     /tmp/ccP2IRDu.s:76266  .debug_str:000000000001009c .LASF1201
     /tmp/ccP2IRDu.s:73040  .debug_str:000000000000775e .LASF1202
     /tmp/ccP2IRDu.s:74344  .debug_str:000000000000ac21 .LASF1203
     /tmp/ccP2IRDu.s:71794  .debug_str:00000000000044a2 .LASF1204
     /tmp/ccP2IRDu.s:76688  .debug_str:00000000000110b5 .LASF1205
     /tmp/ccP2IRDu.s:74346  .debug_str:000000000000ac28 .LASF1206
     /tmp/ccP2IRDu.s:74942  .debug_str:000000000000c646 .LASF1207
     /tmp/ccP2IRDu.s:76690  .debug_str:00000000000110c4 .LASF1208
     /tmp/ccP2IRDu.s:74348  .debug_str:000000000000ac2f .LASF1209
     /tmp/ccP2IRDu.s:70482  .debug_str:0000000000000cac .LASF1210
     /tmp/ccP2IRDu.s:72172  .debug_str:000000000000526e .LASF1211
     /tmp/ccP2IRDu.s:74350  .debug_str:000000000000ac36 .LASF1212
     /tmp/ccP2IRDu.s:73554  .debug_str:0000000000008d56 .LASF1213
     /tmp/ccP2IRDu.s:76670  .debug_str:000000000001100f .LASF1214
     /tmp/ccP2IRDu.s:74878  .debug_str:000000000000c362 .LASF1215
     /tmp/ccP2IRDu.s:76556  .debug_str:0000000000010c2b .LASF1216
     /tmp/ccP2IRDu.s:76672  .debug_str:000000000001101d .LASF1217
     /tmp/ccP2IRDu.s:74354  .debug_str:000000000000ac4a .LASF1218
     /tmp/ccP2IRDu.s:72126  .debug_str:000000000000510c .LASF1219
     /tmp/ccP2IRDu.s:75962  .debug_str:000000000000f2e4 .LASF1220
     /tmp/ccP2IRDu.s:74356  .debug_str:000000000000ac51 .LASF1221
     /tmp/ccP2IRDu.s:75196  .debug_str:000000000000d177 .LASF1222
     /tmp/ccP2IRDu.s:73138  .debug_str:0000000000007c1c .LASF1223
     /tmp/ccP2IRDu.s:74358  .debug_str:000000000000ac58 .LASF1224
     /tmp/ccP2IRDu.s:70776  .debug_str:000000000000181c .LASF1225
     /tmp/ccP2IRDu.s:73140  .debug_str:0000000000007c2a .LASF1226
     /tmp/ccP2IRDu.s:74416  .debug_str:000000000000aebe .LASF1227
     /tmp/ccP2IRDu.s:75424  .debug_str:000000000000dc0c .LASF1228
     /tmp/ccP2IRDu.s:76358  .debug_str:00000000000104b1 .LASF1229
     /tmp/ccP2IRDu.s:74418  .debug_str:000000000000aec5 .LASF1230
     /tmp/ccP2IRDu.s:70966  .debug_str:000000000000202e .LASF1231
     /tmp/ccP2IRDu.s:74946  .debug_str:000000000000c677 .LASF1232
     /tmp/ccP2IRDu.s:74420  .debug_str:000000000000aecc .LASF1233
     /tmp/ccP2IRDu.s:74080  .debug_str:000000000000a280 .LASF1234
     /tmp/ccP2IRDu.s:74950  .debug_str:000000000000c6a3 .LASF1235
     /tmp/ccP2IRDu.s:74422  .debug_str:000000000000aed3 .LASF1236
     /tmp/ccP2IRDu.s:77020  .debug_str:0000000000011e9b .LASF1237
     /tmp/ccP2IRDu.s:75088  .debug_str:000000000000cd6e .LASF1238
     /tmp/ccP2IRDu.s:74424  .debug_str:000000000000aeda .LASF1239
     /tmp/ccP2IRDu.s:72648  .debug_str:00000000000065b7 .LASF1240
     /tmp/ccP2IRDu.s:71316  .debug_str:0000000000002fb6 .LASF1241
     /tmp/ccP2IRDu.s:74426  .debug_str:000000000000aee1 .LASF1242
     /tmp/ccP2IRDu.s:75658  .debug_str:000000000000e5db .LASF1243
     /tmp/ccP2IRDu.s:71320  .debug_str:0000000000002fd3 .LASF1244
     /tmp/ccP2IRDu.s:74428  .debug_str:000000000000aee8 .LASF1245
     /tmp/ccP2IRDu.s:71216  .debug_str:0000000000002b70 .LASF1246
     /tmp/ccP2IRDu.s:70484  .debug_str:0000000000000ccd .LASF1247
     /tmp/ccP2IRDu.s:74430  .debug_str:000000000000aeef .LASF1248
     /tmp/ccP2IRDu.s:74362  .debug_str:000000000000ac6c .LASF1249
     /tmp/ccP2IRDu.s:77314  .debug_str:0000000000012b7a .LASF1250
     /tmp/ccP2IRDu.s:74432  .debug_str:000000000000aef6 .LASF1251
     /tmp/ccP2IRDu.s:77282  .debug_str:00000000000129ab .LASF1252
     /tmp/ccP2IRDu.s:77122  .debug_str:00000000000122a8 .LASF1253
     /tmp/ccP2IRDu.s:74434  .debug_str:000000000000aefd .LASF1254
     /tmp/ccP2IRDu.s:72924  .debug_str:00000000000071c5 .LASF1255
     /tmp/ccP2IRDu.s:70292  .debug_str:00000000000005d0 .LASF1256
     /tmp/ccP2IRDu.s:74640  .debug_str:000000000000b7ed .LASF1257
     /tmp/ccP2IRDu.s:73288  .debug_str:0000000000008261 .LASF1258
     /tmp/ccP2IRDu.s:70296  .debug_str:00000000000005f5 .LASF1259
     /tmp/ccP2IRDu.s:70392  .debug_str:00000000000009e6 .LASF1260
     /tmp/ccP2IRDu.s:76290  .debug_str:00000000000101c1 .LASF1261
     /tmp/ccP2IRDu.s:77562  .debug_str:000000000001359d .LASF1262
     /tmp/ccP2IRDu.s:70394  .debug_str:00000000000009ed .LASF1263
     /tmp/ccP2IRDu.s:71808  .debug_str:0000000000004554 .LASF1264
     /tmp/ccP2IRDu.s:74312  .debug_str:000000000000ab0a .LASF1265
     /tmp/ccP2IRDu.s:70396  .debug_str:00000000000009f4 .LASF1266
     /tmp/ccP2IRDu.s:74954  .debug_str:000000000000c6be .LASF1267
     /tmp/ccP2IRDu.s:74316  .debug_str:000000000000ab21 .LASF1268
     /tmp/ccP2IRDu.s:70398  .debug_str:00000000000009fb .LASF1269
     /tmp/ccP2IRDu.s:70500  .debug_str:0000000000000da9 .LASF1270
     /tmp/ccP2IRDu.s:76098  .debug_str:000000000000f90b .LASF1271
     /tmp/ccP2IRDu.s:70400  .debug_str:0000000000000a02 .LASF1272
     /tmp/ccP2IRDu.s:73568  .debug_str:0000000000008e29 .LASF1273
     /tmp/ccP2IRDu.s:76102  .debug_str:000000000000f928 .LASF1274
     /tmp/ccP2IRDu.s:74648  .debug_str:000000000000b826 .LASF1275
     /tmp/ccP2IRDu.s:75986  .debug_str:000000000000f3e2 .LASF1276
     /tmp/ccP2IRDu.s:70604  .debug_str:00000000000011cc .LASF1277
     /tmp/ccP2IRDu.s:70402  .debug_str:0000000000000a09 .LASF1278
     /tmp/ccP2IRDu.s:72160  .debug_str:00000000000051e3 .LASF1279
     /tmp/ccP2IRDu.s:70422  .debug_str:0000000000000ad2 .LASF1280
     /tmp/ccP2IRDu.s:70404  .debug_str:0000000000000a10 .LASF1281
     /tmp/ccP2IRDu.s:75216  .debug_str:000000000000d26f .LASF1282
     /tmp/ccP2IRDu.s:73726  .debug_str:000000000000952f .LASF1283
     /tmp/ccP2IRDu.s:70406  .debug_str:0000000000000a17 .LASF1284
     /tmp/ccP2IRDu.s:70796  .debug_str:0000000000001916 .LASF1285
     /tmp/ccP2IRDu.s:73944  .debug_str:0000000000009d86 .LASF1286
     /tmp/ccP2IRDu.s:70462  .debug_str:0000000000000c54 .LASF1287
     /tmp/ccP2IRDu.s:75438  .debug_str:000000000000dc95 .LASF1288
     /tmp/ccP2IRDu.s:73948  .debug_str:0000000000009dc2 .LASF1289
     /tmp/ccP2IRDu.s:70464  .debug_str:0000000000000c5b .LASF1290
     /tmp/ccP2IRDu.s:70982  .debug_str:00000000000020ea .LASF1291
     /tmp/ccP2IRDu.s:70374  .debug_str:0000000000000932 .LASF1292
     /tmp/ccP2IRDu.s:70466  .debug_str:0000000000000c62 .LASF1293
     /tmp/ccP2IRDu.s:71762  .debug_str:00000000000042e0 .LASF1294
     /tmp/ccP2IRDu.s:70300  .debug_str:0000000000000625 .LASF1295
     /tmp/ccP2IRDu.s:70468  .debug_str:0000000000000c69 .LASF1296
     /tmp/ccP2IRDu.s:77036  .debug_str:0000000000011f6b .LASF1297
     /tmp/ccP2IRDu.s:70302  .debug_str:0000000000000634 .LASF1298
     /tmp/ccP2IRDu.s:74756  .debug_str:000000000000bd60 .LASF1299
     /tmp/ccP2IRDu.s:72660  .debug_str:0000000000006669 .LASF1300
     /tmp/ccP2IRDu.s:76908  .debug_str:00000000000119a1 .LASF1301
     /tmp/ccP2IRDu.s:70472  .debug_str:0000000000000c89 .LASF1302
     /tmp/ccP2IRDu.s:75670  .debug_str:000000000000e671 .LASF1303
     /tmp/ccP2IRDu.s:71102  .debug_str:0000000000002612 .LASF1304
     /tmp/ccP2IRDu.s:70474  .debug_str:0000000000000c90 .LASF1305
     /tmp/ccP2IRDu.s:71230  .debug_str:0000000000002bfa .LASF1306
     /tmp/ccP2IRDu.s:73550  .debug_str:0000000000008d43 .LASF1307
     /tmp/ccP2IRDu.s:70476  .debug_str:0000000000000c97 .LASF1308
     /tmp/ccP2IRDu.s:74384  .debug_str:000000000000ad59 .LASF1309
     /tmp/ccP2IRDu.s:71178  .debug_str:00000000000029de .LASF1310
     /tmp/ccP2IRDu.s:70478  .debug_str:0000000000000c9e .LASF1311
     /tmp/ccP2IRDu.s:77292  .debug_str:0000000000012a8b .LASF1312
     /tmp/ccP2IRDu.s:72566  .debug_str:0000000000006274 .LASF1313
     /tmp/ccP2IRDu.s:70480  .debug_str:0000000000000ca5 .LASF1314
     /tmp/ccP2IRDu.s:72940  .debug_str:0000000000007253 .LASF1315
     /tmp/ccP2IRDu.s:71478  .debug_str:00000000000036c0 .LASF1316
     /tmp/ccP2IRDu.s:70544  .debug_str:0000000000000f69 .LASF1317
     /tmp/ccP2IRDu.s:77490  .debug_str:00000000000132ac .LASF1318
     /tmp/ccP2IRDu.s:77380  .debug_str:0000000000012e40 .LASF1319
     /tmp/ccP2IRDu.s:70546  .debug_str:0000000000000f70 .LASF1320
     /tmp/ccP2IRDu.s:73168  .debug_str:0000000000007d44 .LASF1321
     /tmp/ccP2IRDu.s:77382  .debug_str:0000000000012e4b .LASF1322
     /tmp/ccP2IRDu.s:70548  .debug_str:0000000000000f77 .LASF1323
     /tmp/ccP2IRDu.s:76148  .debug_str:000000000000fb01 .LASF1324
     /tmp/ccP2IRDu.s:70260  .debug_str:0000000000000476 .LASF1325
     /tmp/ccP2IRDu.s:70550  .debug_str:0000000000000f7e .LASF1326
     /tmp/ccP2IRDu.s:71686  .debug_str:0000000000004020 .LASF1327
     /tmp/ccP2IRDu.s:76184  .debug_str:000000000000fcb2 .LASF1328
     /tmp/ccP2IRDu.s:70552  .debug_str:0000000000000f85 .LASF1329
     /tmp/ccP2IRDu.s:74852  .debug_str:000000000000c214 .LASF1330
     /tmp/ccP2IRDu.s:76178  .debug_str:000000000000fc63 .LASF1331
     /tmp/ccP2IRDu.s:70554  .debug_str:0000000000000f8c .LASF1332
     /tmp/ccP2IRDu.s:70340  .debug_str:00000000000007d4 .LASF1333
     /tmp/ccP2IRDu.s:71732  .debug_str:00000000000041d2 .LASF1334
     /tmp/ccP2IRDu.s:70556  .debug_str:0000000000000f93 .LASF1335
     /tmp/ccP2IRDu.s:73436  .debug_str:00000000000088ed .LASF1336
     /tmp/ccP2IRDu.s:77244  .debug_str:00000000000127e8 .LASF1337
     /tmp/ccP2IRDu.s:70558  .debug_str:0000000000000f9a .LASF1338
     /tmp/ccP2IRDu.s:76352  .debug_str:0000000000010470 .LASF1339
     /tmp/ccP2IRDu.s:73378  .debug_str:000000000000868a .LASF1340
     /tmp/ccP2IRDu.s:70560  .debug_str:0000000000000fa1 .LASF1341
     /tmp/ccP2IRDu.s:73810  .debug_str:0000000000009892 .LASF1342
     /tmp/ccP2IRDu.s:70928  .debug_str:0000000000001e60 .LASF1343
     /tmp/ccP2IRDu.s:70562  .debug_str:0000000000000fa8 .LASF1344
     /tmp/ccP2IRDu.s:75078  .debug_str:000000000000cce9 .LASF1345
     /tmp/ccP2IRDu.s:74566  .debug_str:000000000000b46c .LASF1346
     /tmp/ccP2IRDu.s:70608  .debug_str:00000000000011fc .LASF1347
     /tmp/ccP2IRDu.s:77336  .debug_str:0000000000012c5d .LASF1348
     /tmp/ccP2IRDu.s:73434  .debug_str:00000000000088e2 .LASF1349
     /tmp/ccP2IRDu.s:70610  .debug_str:0000000000001203 .LASF1350
     /tmp/ccP2IRDu.s:75290  .debug_str:000000000000d5e7 .LASF1351
     /tmp/ccP2IRDu.s:75248  .debug_str:000000000000d418 .LASF1352
     /tmp/ccP2IRDu.s:70612  .debug_str:000000000000120a .LASF1353
     /tmp/ccP2IRDu.s:70858  .debug_str:0000000000001b97 .LASF1354
     /tmp/ccP2IRDu.s:77276  .debug_str:000000000001298a .LASF1355
     /tmp/ccP2IRDu.s:70614  .debug_str:0000000000001211 .LASF1356
     /tmp/ccP2IRDu.s:73952  .debug_str:0000000000009dea .LASF1357
     /tmp/ccP2IRDu.s:77278  .debug_str:0000000000012995 .LASF1358
     /tmp/ccP2IRDu.s:70616  .debug_str:0000000000001218 .LASF1359
     /tmp/ccP2IRDu.s:71902  .debug_str:00000000000048ea .LASF1360
     /tmp/ccP2IRDu.s:77128  .debug_str:00000000000122e6 .LASF1361
     /tmp/ccP2IRDu.s:70618  .debug_str:000000000000121f .LASF1362
     /tmp/ccP2IRDu.s:72528  .debug_str:00000000000060b6 .LASF1363
     /tmp/ccP2IRDu.s:72118  .debug_str:00000000000050ba .LASF1364
     /tmp/ccP2IRDu.s:70620  .debug_str:0000000000001226 .LASF1365
     /tmp/ccP2IRDu.s:75564  .debug_str:000000000000e1c1 .LASF1366
     /tmp/ccP2IRDu.s:72120  .debug_str:00000000000050c6 .LASF1367
     /tmp/ccP2IRDu.s:70622  .debug_str:000000000000122d .LASF1368
     /tmp/ccP2IRDu.s:71110  .debug_str:0000000000002671 .LASF1369
     /tmp/ccP2IRDu.s:75176  .debug_str:000000000000d0e1 .LASF1370
     /tmp/ccP2IRDu.s:74962  .debug_str:000000000000c743 .LASF1371
     /tmp/ccP2IRDu.s:74248  .debug_str:000000000000a878 .LASF1372
     /tmp/ccP2IRDu.s:75178  .debug_str:000000000000d0eb .LASF1373
     /tmp/ccP2IRDu.s:70626  .debug_str:0000000000001255 .LASF1374
     /tmp/ccP2IRDu.s:77152  .debug_str:00000000000123f6 .LASF1375
     /tmp/ccP2IRDu.s:75180  .debug_str:000000000000d0f5 .LASF1376
     /tmp/ccP2IRDu.s:70676  .debug_str:000000000000147d .LASF1377
     /tmp/ccP2IRDu.s:74486  .debug_str:000000000000b0ef .LASF1378
     /tmp/ccP2IRDu.s:75182  .debug_str:000000000000d0ff .LASF1379
     /tmp/ccP2IRDu.s:70678  .debug_str:0000000000001484 .LASF1380
     /tmp/ccP2IRDu.s:77376  .debug_str:0000000000012dfb .LASF1381
     /tmp/ccP2IRDu.s:74372  .debug_str:000000000000acd4 .LASF1382
     /tmp/ccP2IRDu.s:70680  .debug_str:000000000000148b .LASF1383
     /tmp/ccP2IRDu.s:73020  .debug_str:0000000000007685 .LASF1384
     /tmp/ccP2IRDu.s:71518  .debug_str:0000000000003850 .LASF1385
     /tmp/ccP2IRDu.s:70682  .debug_str:0000000000001492 .LASF1386
     /tmp/ccP2IRDu.s:74874  .debug_str:000000000000c31a .LASF1387
     /tmp/ccP2IRDu.s:71520  .debug_str:000000000000385c .LASF1388
     /tmp/ccP2IRDu.s:70684  .debug_str:0000000000001499 .LASF1389
     /tmp/ccP2IRDu.s:71576  .debug_str:0000000000003ae4 .LASF1390
     /tmp/ccP2IRDu.s:70342  .debug_str:00000000000007f5 .LASF1391
     /tmp/ccP2IRDu.s:70686  .debug_str:00000000000014a0 .LASF1392
     /tmp/ccP2IRDu.s:77054  .debug_str:000000000001200a .LASF1393
     /tmp/ccP2IRDu.s:71712  .debug_str:0000000000004137 .LASF1394
     /tmp/ccP2IRDu.s:70688  .debug_str:00000000000014a7 .LASF1395
     /tmp/ccP2IRDu.s:70218  .debug_str:0000000000000293 .LASF1396
     /tmp/ccP2IRDu.s:71714  .debug_str:0000000000004141 .LASF1397
     /tmp/ccP2IRDu.s:70690  .debug_str:00000000000014ae .LASF1398
     /tmp/ccP2IRDu.s:73294  .debug_str:00000000000082c6 .LASF1399
     /tmp/ccP2IRDu.s:71716  .debug_str:000000000000414b .LASF1400
     /tmp/ccP2IRDu.s:70692  .debug_str:00000000000014b5 .LASF1401
     /tmp/ccP2IRDu.s:76296  .debug_str:0000000000010229 .LASF1402
     /tmp/ccP2IRDu.s:71718  .debug_str:0000000000004155 .LASF1403
     /tmp/ccP2IRDu.s:70694  .debug_str:00000000000014bc .LASF1404
     /tmp/ccP2IRDu.s:71818  .debug_str:00000000000045b0 .LASF1405
     /tmp/ccP2IRDu.s:74336  .debug_str:000000000000abf9 .LASF1406
     /tmp/ccP2IRDu.s:70748  .debug_str:00000000000016d2 .LASF1407
     /tmp/ccP2IRDu.s:76528  .debug_str:0000000000010a82 .LASF1408
     /tmp/ccP2IRDu.s:76096  .debug_str:000000000000f8ff .LASF1409
     /tmp/ccP2IRDu.s:76338  .debug_str:000000000001040f .LASF1410
     /tmp/ccP2IRDu.s:77462  .debug_str:0000000000013152 .LASF1411
     /tmp/ccP2IRDu.s:74620  .debug_str:000000000000b6f6 .LASF1412
     /tmp/ccP2IRDu.s:76340  .debug_str:0000000000010417 .LASF1413
     /tmp/ccP2IRDu.s:73126  .debug_str:0000000000007b78 .LASF1414
     /tmp/ccP2IRDu.s:76100  .debug_str:000000000000f91c .LASF1415
     /tmp/ccP2IRDu.s:76342  .debug_str:000000000001041f .LASF1416
     /tmp/ccP2IRDu.s:76116  .debug_str:000000000000f9da .LASF1417
     /tmp/ccP2IRDu.s:76320  .debug_str:000000000001032c .LASF1418
     /tmp/ccP2IRDu.s:76956  .debug_str:0000000000011b7f .LASF1419
     /tmp/ccP2IRDu.s:75414  .debug_str:000000000000db73 .LASF1420
     /tmp/ccP2IRDu.s:70744  .debug_str:00000000000016ba .LASF1421
     /tmp/ccP2IRDu.s:77304  .debug_str:0000000000012b0e .LASF1422
     /tmp/ccP2IRDu.s:73276  .debug_str:00000000000081be .LASF1423
     /tmp/ccP2IRDu.s:76596  .debug_str:0000000000010d24 .LASF1424
     /tmp/ccP2IRDu.s:75150  .debug_str:000000000000cfaf .LASF1425
     /tmp/ccP2IRDu.s:74854  .debug_str:000000000000c235 .LASF1426
     /tmp/ccP2IRDu.s:72952  .debug_str:0000000000007312 .LASF1427
     /tmp/ccP2IRDu.s:71454  .debug_str:00000000000035b9 .LASF1428
     /tmp/ccP2IRDu.s:76304  .debug_str:0000000000010293 .LASF1429
     /tmp/ccP2IRDu.s:76526  .debug_str:0000000000010a76 .LASF1430
     /tmp/ccP2IRDu.s:72764  .debug_str:0000000000006b37 .LASF1431
     /tmp/ccP2IRDu.s:72204  .debug_str:00000000000053b8 .LASF1432
     /tmp/ccP2IRDu.s:71164  .debug_str:0000000000002957 .LASF1433
     /tmp/ccP2IRDu.s:72498  .debug_str:0000000000005f4f .LASF1434
     /tmp/ccP2IRDu.s:71826  .debug_str:000000000000461f .LASF1435
     /tmp/ccP2IRDu.s:76684  .debug_str:000000000001109a .LASF1436
     /tmp/ccP2IRDu.s:75566  .debug_str:000000000000e1e2 .LASF1437
     /tmp/ccP2IRDu.s:74504  .debug_str:000000000000b1c0 .LASF1438
     /tmp/ccP2IRDu.s:74482  .debug_str:000000000000b0bf .LASF1439
     /tmp/ccP2IRDu.s:71532  .debug_str:00000000000038e9 .LASF1440
     /tmp/ccP2IRDu.s:71480  .debug_str:00000000000036c9 .LASF1441
     /tmp/ccP2IRDu.s:72182  .debug_str:00000000000052b4 .LASF1442
     /tmp/ccP2IRDu.s:74882  .debug_str:000000000000c375 .LASF1443
     /tmp/ccP2IRDu.s:72620  .debug_str:0000000000006461 .LASF1444
     /tmp/ccP2IRDu.s:74182  .debug_str:000000000000a611 .LASF1445
     /tmp/ccP2IRDu.s:70228  .debug_str:0000000000000311 .LASF1446
     /tmp/ccP2IRDu.s:74920  .debug_str:000000000000c525 .LASF1447
     /tmp/ccP2IRDu.s:76158  .debug_str:000000000000fb91 .LASF1448
     /tmp/ccP2IRDu.s:73380  .debug_str:000000000000869a .LASF1449
     /tmp/ccP2IRDu.s:71640  .debug_str:0000000000003da6 .LASF1450
     /tmp/ccP2IRDu.s:74762  .debug_str:000000000000bd8e .LASF1451
     /tmp/ccP2IRDu.s:71384  .debug_str:00000000000032a3 .LASF1452
     /tmp/ccP2IRDu.s:77222  .debug_str:00000000000126f2 .LASF1453
     /tmp/ccP2IRDu.s:72750  .debug_str:0000000000006a9c .LASF1454
     /tmp/ccP2IRDu.s:71984  .debug_str:0000000000004bfe .LASF1455
     /tmp/ccP2IRDu.s:73186  .debug_str:0000000000007e2e .LASF1456
     /tmp/ccP2IRDu.s:70932  .debug_str:0000000000001e8d .LASF1457
     /tmp/ccP2IRDu.s:75482  .debug_str:000000000000de6e .LASF1458
     /tmp/ccP2IRDu.s:71770  .debug_str:0000000000004359 .LASF1459
     /tmp/ccP2IRDu.s:73702  .debug_str:0000000000009479 .LASF1460
     /tmp/ccP2IRDu.s:75970  .debug_str:000000000000f351 .LASF1461
     /tmp/ccP2IRDu.s:75618  .debug_str:000000000000e3cb .LASF1462
     /tmp/ccP2IRDu.s:73166  .debug_str:0000000000007d35 .LASF1463
     /tmp/ccP2IRDu.s:70900  .debug_str:0000000000001d52 .LASF1464
     /tmp/ccP2IRDu.s:76646  .debug_str:0000000000010ee5 .LASF1465
     /tmp/ccP2IRDu.s:73724  .debug_str:000000000000951b .LASF1466
     /tmp/ccP2IRDu.s:73492  .debug_str:0000000000008b4e .LASF1467
     /tmp/ccP2IRDu.s:72484  .debug_str:0000000000005e95 .LASF1468
     /tmp/ccP2IRDu.s:73596  .debug_str:0000000000008f97 .LASF1469
     /tmp/ccP2IRDu.s:76730  .debug_str:000000000001123a .LASF1470
     /tmp/ccP2IRDu.s:71256  .debug_str:0000000000002d03 .LASF1471
     /tmp/ccP2IRDu.s:73282  .debug_str:0000000000008217 .LASF1472
     /tmp/ccP2IRDu.s:70902  .debug_str:0000000000001d5b .LASF1473
     /tmp/ccP2IRDu.s:71234  .debug_str:0000000000002c26 .LASF1474
     /tmp/ccP2IRDu.s:72888  .debug_str:0000000000007013 .LASF1475
     /tmp/ccP2IRDu.s:71244  .debug_str:0000000000002c78 .LASF1476
     /tmp/ccP2IRDu.s:74964  .debug_str:000000000000c74a .LASF1477
     /tmp/ccP2IRDu.s:73042  .debug_str:000000000000776b .LASF1478
     /tmp/ccP2IRDu.s:73936  .debug_str:0000000000009d53 .LASF1479
     /tmp/ccP2IRDu.s:73266  .debug_str:000000000000817b .LASF1480
     /tmp/ccP2IRDu.s:72634  .debug_str:0000000000006545 .LASF1481
     /tmp/ccP2IRDu.s:71906  .debug_str:0000000000004916 .LASF1482
     /tmp/ccP2IRDu.s:70246  .debug_str:00000000000003ff .LASF1483
     /tmp/ccP2IRDu.s:72150  .debug_str:0000000000005183 .LASF1484
     /tmp/ccP2IRDu.s:71296  .debug_str:0000000000002efe .LASF1485
     /tmp/ccP2IRDu.s:70740  .debug_str:000000000000169f .LASF1486
     /tmp/ccP2IRDu.s:77424  .debug_str:0000000000013015 .LASF1487
     /tmp/ccP2IRDu.s:76820  .debug_str:000000000001160c .LASF1488
     /tmp/ccP2IRDu.s:70248  .debug_str:0000000000000406 .LASF1489
     /tmp/ccP2IRDu.s:75210  .debug_str:000000000000d20b .LASF1490
     /tmp/ccP2IRDu.s:70668  .debug_str:000000000000142f .LASF1491
     /tmp/ccP2IRDu.s:75844  .debug_str:000000000000ee09 .LASF1492
     /tmp/ccP2IRDu.s:73008  .debug_str:00000000000075dc .LASF1493
     /tmp/ccP2IRDu.s:76992  .debug_str:0000000000011d37 .LASF1494
     /tmp/ccP2IRDu.s:75846  .debug_str:000000000000ee17 .LASF1495
     /tmp/ccP2IRDu.s:76020  .debug_str:000000000000f59e .LASF1496
     /tmp/ccP2IRDu.s:75368  .debug_str:000000000000d92c .LASF1497
     /tmp/ccP2IRDu.s:75848  .debug_str:000000000000ee25 .LASF1498
     /tmp/ccP2IRDu.s:71570  .debug_str:0000000000003a9e .LASF1499
     /tmp/ccP2IRDu.s:71262  .debug_str:0000000000002d68 .LASF1500
     /tmp/ccP2IRDu.s:75850  .debug_str:000000000000ee33 .LASF1501
     /tmp/ccP2IRDu.s:74724  .debug_str:000000000000bc02 .LASF1502
     /tmp/ccP2IRDu.s:71526  .debug_str:0000000000003886 .LASF1503
     /tmp/ccP2IRDu.s:75852  .debug_str:000000000000ee41 .LASF1504
     /tmp/ccP2IRDu.s:70206  .debug_str:0000000000000206 .LASF1505
     /tmp/ccP2IRDu.s:72646  .debug_str:000000000000659c .LASF1506
     /tmp/ccP2IRDu.s:75854  .debug_str:000000000000ee4f .LASF1507
     /tmp/ccP2IRDu.s:73284  .debug_str:0000000000008227 .LASF1508
     /tmp/ccP2IRDu.s:77426  .debug_str:0000000000013022 .LASF1509
     /tmp/ccP2IRDu.s:75856  .debug_str:000000000000ee5d .LASF1510
     /tmp/ccP2IRDu.s:76282  .debug_str:0000000000010163 .LASF1511
     /tmp/ccP2IRDu.s:71446  .debug_str:0000000000003564 .LASF1512
     /tmp/ccP2IRDu.s:75870  .debug_str:000000000000eee5 .LASF1513
     /tmp/ccP2IRDu.s:75872  .debug_str:000000000000eef7 .LASF1514
     /tmp/ccP2IRDu.s:75874  .debug_str:000000000000ef09 .LASF1515
     /tmp/ccP2IRDu.s:73024  .debug_str:00000000000076ca .LASF1516
     /tmp/ccP2IRDu.s:71278  .debug_str:0000000000002e0a .LASF1517
     /tmp/ccP2IRDu.s:75876  .debug_str:000000000000ef1b .LASF1518
     /tmp/ccP2IRDu.s:75878  .debug_str:000000000000ef2d .LASF1519
     /tmp/ccP2IRDu.s:75880  .debug_str:000000000000ef3f .LASF1520
     /tmp/ccP2IRDu.s:75882  .debug_str:000000000000ef51 .LASF1521
     /tmp/ccP2IRDu.s:73026  .debug_str:00000000000076d9 .LASF1522
     /tmp/ccP2IRDu.s:74462  .debug_str:000000000000b005 .LASF1523
     /tmp/ccP2IRDu.s:70598  .debug_str:0000000000001158 .LASF1524
     /tmp/ccP2IRDu.s:72582  .debug_str:000000000000630c .LASF1525
     /tmp/ccP2IRDu.s:76450  .debug_str:00000000000107a7 .LASF1526
     /tmp/ccP2IRDu.s:71218  .debug_str:0000000000002b91 .LASF1527
     /tmp/ccP2IRDu.s:75242  .debug_str:000000000000d3c8 .LASF1528
     /tmp/ccP2IRDu.s:71982  .debug_str:0000000000004bd4 .LASF1529
     /tmp/ccP2IRDu.s:72398  .debug_str:0000000000005afb .LASF1530
     /tmp/ccP2IRDu.s:74606  .debug_str:000000000000b619 .LASF1531
     /tmp/ccP2IRDu.s:73814  .debug_str:00000000000098dc .LASF1532
     /tmp/ccP2IRDu.s:77452  .debug_str:00000000000130d9 .LASF1533
     /tmp/ccP2IRDu.s:77450  .debug_str:00000000000130c7 .LASF1534
     /tmp/ccP2IRDu.s:73144  .debug_str:0000000000007c69 .LASF1535
     /tmp/ccP2IRDu.s:70262  .debug_str:0000000000000486 .LASF1536
     /tmp/ccP2IRDu.s:70904  .debug_str:0000000000001d6b .LASF1537
     /tmp/ccP2IRDu.s:73940  .debug_str:0000000000009d6b .LASF1538
     /tmp/ccP2IRDu.s:77354  .debug_str:0000000000012d29 .LASF1539
     /tmp/ccP2IRDu.s:73862  .debug_str:0000000000009ad0 .LASF1540
     /tmp/ccP2IRDu.s:70856  .debug_str:0000000000001b7f .LASF1541
     /tmp/ccP2IRDu.s:74074  .debug_str:000000000000a255 .LASF1542
     /tmp/ccP2IRDu.s:70860  .debug_str:0000000000001bb8 .LASF1543
     /tmp/ccP2IRDu.s:72456  .debug_str:0000000000005d45 .LASF1544
     /tmp/ccP2IRDu.s:73482  .debug_str:0000000000008ac5 .LASF1545
     /tmp/ccP2IRDu.s:75024  .debug_str:000000000000c9db .LASF1546
     /tmp/ccP2IRDu.s:70864  .debug_str:0000000000001bdf .LASF1547
     /tmp/ccP2IRDu.s:72094  .debug_str:0000000000004f69 .LASF1548
     /tmp/ccP2IRDu.s:70734  .debug_str:000000000000164c .LASF1549
     /tmp/ccP2IRDu.s:72098  .debug_str:0000000000004fa7 .LASF1550
     /tmp/ccP2IRDu.s:72100  .debug_str:0000000000004fc5 .LASF1551
     /tmp/ccP2IRDu.s:72102  .debug_str:0000000000004fe3 .LASF1552
     /tmp/ccP2IRDu.s:72348  .debug_str:0000000000005907 .LASF1553
     /tmp/ccP2IRDu.s:74592  .debug_str:000000000000b595 .LASF1554
     /tmp/ccP2IRDu.s:74594  .debug_str:000000000000b5b2 .LASF1555
     /tmp/ccP2IRDu.s:76710  .debug_str:0000000000011170 .LASF1556
     /tmp/ccP2IRDu.s:74600  .debug_str:000000000000b5e0 .LASF1557
     /tmp/ccP2IRDu.s:70378  .debug_str:0000000000000946 .LASF1558
     /tmp/ccP2IRDu.s:70380  .debug_str:0000000000000960 .LASF1559
     /tmp/ccP2IRDu.s:76776  .debug_str:0000000000011424 .LASF1560
     /tmp/ccP2IRDu.s:70384  .debug_str:000000000000099e .LASF1561
     /tmp/ccP2IRDu.s:70386  .debug_str:00000000000009b8 .LASF1562
     /tmp/ccP2IRDu.s:77356  .debug_str:0000000000012d38 .LASF1563
     /tmp/ccP2IRDu.s:74736  .debug_str:000000000000bc9f .LASF1564
     /tmp/ccP2IRDu.s:73484  .debug_str:0000000000008add .LASF1565
     /tmp/ccP2IRDu.s:70580  .debug_str:000000000000105e .LASF1566
     /tmp/ccP2IRDu.s:75884  .debug_str:000000000000ef63 .LASF1567
     /tmp/ccP2IRDu.s:77498  .debug_str:0000000000013331 .LASF1568
     /tmp/ccP2IRDu.s:77500  .debug_str:000000000001334e .LASF1569
     /tmp/ccP2IRDu.s:77502  .debug_str:000000000001336b .LASF1570
     /tmp/ccP2IRDu.s:73076  .debug_str:00000000000078d0 .LASF1571
     /tmp/ccP2IRDu.s:72714  .debug_str:00000000000068d7 .LASF1572
     /tmp/ccP2IRDu.s:77504  .debug_str:0000000000013388 .LASF1573
     /tmp/ccP2IRDu.s:71662  .debug_str:0000000000003ecb .LASF1574
     /tmp/ccP2IRDu.s:71664  .debug_str:0000000000003eee .LASF1575
     /tmp/ccP2IRDu.s:71666  .debug_str:0000000000003f11 .LASF1576
     /tmp/ccP2IRDu.s:71668  .debug_str:0000000000003f34 .LASF1577
     /tmp/ccP2IRDu.s:71670  .debug_str:0000000000003f57 .LASF1578
     /tmp/ccP2IRDu.s:71328  .debug_str:000000000000302e .LASF1579
     /tmp/ccP2IRDu.s:71330  .debug_str:0000000000003050 .LASF1580
     /tmp/ccP2IRDu.s:71332  .debug_str:0000000000003072 .LASF1581
     /tmp/ccP2IRDu.s:71334  .debug_str:0000000000003094 .LASF1582
     /tmp/ccP2IRDu.s:71336  .debug_str:00000000000030b6 .LASF1583
     /tmp/ccP2IRDu.s:73796  .debug_str:00000000000097e0 .LASF1584
     /tmp/ccP2IRDu.s:73798  .debug_str:00000000000097ff .LASF1585
     /tmp/ccP2IRDu.s:73464  .debug_str:0000000000008a57 .LASF1586
     /tmp/ccP2IRDu.s:73802  .debug_str:0000000000009826 .LASF1587
     /tmp/ccP2IRDu.s:73804  .debug_str:0000000000009845 .LASF1588
     /tmp/ccP2IRDu.s:77240  .debug_str:00000000000127a2 .LASF1589
     /tmp/ccP2IRDu.s:77312  .debug_str:0000000000012b5e .LASF1590
     /tmp/ccP2IRDu.s:73386  .debug_str:00000000000086c8 .LASF1591
     /tmp/ccP2IRDu.s:75716  .debug_str:000000000000e882 .LASF1592
     /tmp/ccP2IRDu.s:72852  .debug_str:0000000000006e59 .LASF1593
     /tmp/ccP2IRDu.s:73328  .debug_str:0000000000008448 .LASF1594
     /tmp/ccP2IRDu.s:72856  .debug_str:0000000000006e92 .LASF1595
     /tmp/ccP2IRDu.s:73332  .debug_str:000000000000846d .LASF1596
     /tmp/ccP2IRDu.s:75652  .debug_str:000000000000e594 .LASF1597
     /tmp/ccP2IRDu.s:76258  .debug_str:0000000000010022 .LASF1598
     /tmp/ccP2IRDu.s:73334  .debug_str:0000000000008485 .LASF1599
     /tmp/ccP2IRDu.s:74662  .debug_str:000000000000b8c0 .LASF1600
     /tmp/ccP2IRDu.s:74664  .debug_str:000000000000b8de .LASF1601
     /tmp/ccP2IRDu.s:74666  .debug_str:000000000000b8fc .LASF1602
     /tmp/ccP2IRDu.s:74668  .debug_str:000000000000b91a .LASF1603
     /tmp/ccP2IRDu.s:74670  .debug_str:000000000000b938 .LASF1604
     /tmp/ccP2IRDu.s:74834  .debug_str:000000000000c111 .LASF1605
     /tmp/ccP2IRDu.s:74948  .debug_str:000000000000c686 .LASF1606
     /tmp/ccP2IRDu.s:74838  .debug_str:000000000000c155 .LASF1607
     /tmp/ccP2IRDu.s:74840  .debug_str:000000000000c172 .LASF1608
     /tmp/ccP2IRDu.s:74842  .debug_str:000000000000c18f .LASF1609
     /tmp/ccP2IRDu.s:77138  .debug_str:000000000001234c .LASF1610
     /tmp/ccP2IRDu.s:72890  .debug_str:000000000000703a .LASF1611
     /tmp/ccP2IRDu.s:72892  .debug_str:0000000000007054 .LASF1612
     /tmp/ccP2IRDu.s:72894  .debug_str:000000000000706e .LASF1613
     /tmp/ccP2IRDu.s:72896  .debug_str:0000000000007088 .LASF1614
     /tmp/ccP2IRDu.s:73442  .debug_str:000000000000892d .LASF1615
     /tmp/ccP2IRDu.s:76554  .debug_str:0000000000010c14 .LASF1616
     /tmp/ccP2IRDu.s:75654  .debug_str:000000000000e5ac .LASF1617
     /tmp/ccP2IRDu.s:72302  .debug_str:00000000000056b5 .LASF1618
     /tmp/ccP2IRDu.s:76934  .debug_str:0000000000011a8c .LASF1619
     /tmp/ccP2IRDu.s:77182  .debug_str:0000000000012539 .LASF1620
     /tmp/ccP2IRDu.s:76938  .debug_str:0000000000011aaa .LASF1621
     /tmp/ccP2IRDu.s:76940  .debug_str:0000000000011ac1 .LASF1622
     /tmp/ccP2IRDu.s:77188  .debug_str:000000000001255e .LASF1623
     /tmp/ccP2IRDu.s:76538  .debug_str:0000000000010b38 .LASF1624
     /tmp/ccP2IRDu.s:76942  .debug_str:0000000000011ad8 .LASF1625
     /tmp/ccP2IRDu.s:70784  .debug_str:000000000000186d .LASF1626
     /tmp/ccP2IRDu.s:70786  .debug_str:000000000000188a .LASF1627
     /tmp/ccP2IRDu.s:70788  .debug_str:00000000000018a7 .LASF1628
     /tmp/ccP2IRDu.s:70790  .debug_str:00000000000018c4 .LASF1629
     /tmp/ccP2IRDu.s:70792  .debug_str:00000000000018e1 .LASF1630
     /tmp/ccP2IRDu.s:76652  .debug_str:0000000000010f3f .LASF1631
     /tmp/ccP2IRDu.s:76654  .debug_str:0000000000010f5b .LASF1632
     /tmp/ccP2IRDu.s:76656  .debug_str:0000000000010f77 .LASF1633
     /tmp/ccP2IRDu.s:76658  .debug_str:0000000000010f93 .LASF1634
     /tmp/ccP2IRDu.s:76660  .debug_str:0000000000010faf .LASF1635
     /tmp/ccP2IRDu.s:74786  .debug_str:000000000000be9a .LASF1636
     /tmp/ccP2IRDu.s:74788  .debug_str:000000000000beb3 .LASF1637
     /tmp/ccP2IRDu.s:74790  .debug_str:000000000000becc .LASF1638
     /tmp/ccP2IRDu.s:74792  .debug_str:000000000000bee5 .LASF1639
     /tmp/ccP2IRDu.s:74794  .debug_str:000000000000befe .LASF1640
     /tmp/ccP2IRDu.s:77272  .debug_str:000000000001296b .LASF1641
     /tmp/ccP2IRDu.s:75204  .debug_str:000000000000d1c8 .LASF1642
     /tmp/ccP2IRDu.s:71646  .debug_str:0000000000003df6 .LASF1643
     /tmp/ccP2IRDu.s:74990  .debug_str:000000000000c864 .LASF1644
     /tmp/ccP2IRDu.s:75410  .debug_str:000000000000db2d .LASF1645
     /tmp/ccP2IRDu.s:75412  .debug_str:000000000000db50 .LASF1646
     /tmp/ccP2IRDu.s:75574  .debug_str:000000000000e21f .LASF1647
     /tmp/ccP2IRDu.s:75416  .debug_str:000000000000db7e .LASF1648
     /tmp/ccP2IRDu.s:75418  .debug_str:000000000000dba1 .LASF1649
     /tmp/ccP2IRDu.s:74986  .debug_str:000000000000c833 .LASF1650
     /tmp/ccP2IRDu.s:74632  .debug_str:000000000000b76f .LASF1651
     /tmp/ccP2IRDu.s:74488  .debug_str:000000000000b110 .LASF1652
     /tmp/ccP2IRDu.s:73760  .debug_str:0000000000009652 .LASF1653
     /tmp/ccP2IRDu.s:73762  .debug_str:0000000000009676 .LASF1654
     /tmp/ccP2IRDu.s:73764  .debug_str:000000000000969a .LASF1655
     /tmp/ccP2IRDu.s:75706  .debug_str:000000000000e7dc .LASF1656
     /tmp/ccP2IRDu.s:73768  .debug_str:00000000000096c5 .LASF1657
     /tmp/ccP2IRDu.s:71572  .debug_str:0000000000003ac6 .LASF1658
     /tmp/ccP2IRDu.s:71322  .debug_str:0000000000002fe2 .LASF1659
     /tmp/ccP2IRDu.s:71414  .debug_str:000000000000346a .LASF1660
     /tmp/ccP2IRDu.s:76014  .debug_str:000000000000f539 .LASF1661
     /tmp/ccP2IRDu.s:73236  .debug_str:0000000000008052 .LASF1662
     /tmp/ccP2IRDu.s:70542  .debug_str:0000000000000f54 .LASF1663
     /tmp/ccP2IRDu.s:72462  .debug_str:0000000000005da1 .LASF1664
     /tmp/ccP2IRDu.s:74410  .debug_str:000000000000ae6f .LASF1665
     /tmp/ccP2IRDu.s:71096  .debug_str:00000000000025d9 .LASF1666
     /tmp/ccP2IRDu.s:71724  .debug_str:0000000000004179 .LASF1667
     /tmp/ccP2IRDu.s:70840  .debug_str:0000000000001ae8 .LASF1668
     /tmp/ccP2IRDu.s:74856  .debug_str:000000000000c23a .LASF1669
     /tmp/ccP2IRDu.s:76294  .debug_str:00000000000101f8 .LASF1670
     /tmp/ccP2IRDu.s:74602  .debug_str:000000000000b5fd .LASF1671
     /tmp/ccP2IRDu.s:76328  .debug_str:0000000000010399 .LASF1672
     /tmp/ccP2IRDu.s:72500  .debug_str:0000000000005f66 .LASF1673
     /tmp/ccP2IRDu.s:75896  .debug_str:000000000000eff9 .LASF1674
     /tmp/ccP2IRDu.s:75238  .debug_str:000000000000d370 .LASF1675
     /tmp/ccP2IRDu.s:76544  .debug_str:0000000000010bcd .LASF1676
     /tmp/ccP2IRDu.s:76734  .debug_str:0000000000011269 .LASF1677
     /tmp/ccP2IRDu.s:72836  .debug_str:0000000000006dda .LASF1678
     /tmp/ccP2IRDu.s:72402  .debug_str:0000000000005b33 .LASF1679
     /tmp/ccP2IRDu.s:74858  .debug_str:000000000000c251 .LASF1680
     /tmp/ccP2IRDu.s:74862  .debug_str:000000000000c290 .LASF1681
     /tmp/ccP2IRDu.s:75922  .debug_str:000000000000f14b .LASF1682
     /tmp/ccP2IRDu.s:74866  .debug_str:000000000000c2b9 .LASF1683
     /tmp/ccP2IRDu.s:75630  .debug_str:000000000000e484 .LASF1684
     /tmp/ccP2IRDu.s:76490  .debug_str:000000000001095a .LASF1685
     /tmp/ccP2IRDu.s:70526  .debug_str:0000000000000e8e .LASF1686
     /tmp/ccP2IRDu.s:75632  .debug_str:000000000000e4a0 .LASF1687
     /tmp/ccP2IRDu.s:72022  .debug_str:0000000000004d5f .LASF1688
     /tmp/ccP2IRDu.s:72020  .debug_str:0000000000004d42 .LASF1689
     /tmp/ccP2IRDu.s:72692  .debug_str:00000000000067d0 .LASF1690
     /tmp/ccP2IRDu.s:72694  .debug_str:00000000000067ed .LASF1691
     /tmp/ccP2IRDu.s:72696  .debug_str:000000000000680a .LASF1692
     /tmp/ccP2IRDu.s:72698  .debug_str:0000000000006827 .LASF1693
     /tmp/ccP2IRDu.s:71476  .debug_str:00000000000036b1 .LASF1694
     /tmp/ccP2IRDu.s:75622  .debug_str:000000000000e419 .LASF1695
     /tmp/ccP2IRDu.s:73642  .debug_str:0000000000009195 .LASF1696
     /tmp/ccP2IRDu.s:72996  .debug_str:0000000000007547 .LASF1697
     /tmp/ccP2IRDu.s:77458  .debug_str:000000000001312c .LASF1698
     /tmp/ccP2IRDu.s:74360  .debug_str:000000000000ac5f .LASF1699
     /tmp/ccP2IRDu.s:76012  .debug_str:000000000000f512 .LASF1700
     /tmp/ccP2IRDu.s:73598  .debug_str:0000000000008fb5 .LASF1701
     /tmp/ccP2IRDu.s:73600  .debug_str:0000000000008fd1 .LASF1702
     /tmp/ccP2IRDu.s:73602  .debug_str:0000000000008fed .LASF1703
     /tmp/ccP2IRDu.s:73604  .debug_str:0000000000009009 .LASF1704
     /tmp/ccP2IRDu.s:70808  .debug_str:0000000000001996 .LASF1705
     /tmp/ccP2IRDu.s:72334  .debug_str:0000000000005842 .LASF1706
     /tmp/ccP2IRDu.s:73606  .debug_str:0000000000009025 .LASF1707
     /tmp/ccP2IRDu.s:73346  .debug_str:0000000000008522 .LASF1708
     /tmp/ccP2IRDu.s:70994  .debug_str:0000000000002169 .LASF1709
     /tmp/ccP2IRDu.s:71676  .debug_str:0000000000003fb4 .LASF1710
     /tmp/ccP2IRDu.s:75302  .debug_str:000000000000d66e .LASF1711
     /tmp/ccP2IRDu.s:72154  .debug_str:00000000000051b8 .LASF1712
     /tmp/ccP2IRDu.s:77492  .debug_str:00000000000132cd .LASF1713
     /tmp/ccP2IRDu.s:72298  .debug_str:0000000000005672 .LASF1714
     /tmp/ccP2IRDu.s:76848  .debug_str:00000000000116e6 .LASF1715
     /tmp/ccP2IRDu.s:74966  .debug_str:000000000000c756 .LASF1716
     /tmp/ccP2IRDu.s:77052  .debug_str:0000000000011ffc .LASF1717
     /tmp/ccP2IRDu.s:75354  .debug_str:000000000000d88e .LASF1718
     /tmp/ccP2IRDu.s:71184  .debug_str:0000000000002a17 .LASF1719
     /tmp/ccP2IRDu.s:70204  .debug_str:00000000000001f2 .LASF1720
     /tmp/ccP2IRDu.s:73462  .debug_str:0000000000008a44 .LASF1721
     /tmp/ccP2IRDu.s:74178  .debug_str:000000000000a5fa .LASF1722
     /tmp/ccP2IRDu.s:76264  .debug_str:0000000000010073 .LASF1723
     /tmp/ccP2IRDu.s:75822  .debug_str:000000000000ed25 .LASF1724
     /tmp/ccP2IRDu.s:72726  .debug_str:000000000000699e .LASF1725
     /tmp/ccP2IRDu.s:73728  .debug_str:0000000000009540 .LASF1726
     /tmp/ccP2IRDu.s:75718  .debug_str:000000000000e8b9 .LASF1727
     /tmp/ccP2IRDu.s:75500  .debug_str:000000000000df13 .LASF1728
     /tmp/ccP2IRDu.s:72156  .debug_str:00000000000051ca .LASF1729
     /tmp/ccP2IRDu.s:71674  .debug_str:0000000000003fa7 .LASF1730
     /tmp/ccP2IRDu.s:72106  .debug_str:000000000000501d .LASF1731
     /tmp/ccP2IRDu.s:75220  .debug_str:000000000000d2b6 .LASF1732
     /tmp/ccP2IRDu.s:72970  .debug_str:00000000000073b8 .LASF1733
     /tmp/ccP2IRDu.s:77080  .debug_str:00000000000120f6 .LASF1734
     /tmp/ccP2IRDu.s:75690  .debug_str:000000000000e756 .LASF1735
     /tmp/ccP2IRDu.s:71820  .debug_str:00000000000045d1 .LASF1736
     /tmp/ccP2IRDu.s:76198  .debug_str:000000000000fd2b .LASF1737
     /tmp/ccP2IRDu.s:71654  .debug_str:0000000000003e62 .LASF1738
     /tmp/ccP2IRDu.s:74394  .debug_str:000000000000ade6 .LASF1739
     /tmp/ccP2IRDu.s:76202  .debug_str:000000000000fd64 .LASF1740
     /tmp/ccP2IRDu.s:76466  .debug_str:000000000001084e .LASF1741
     /tmp/ccP2IRDu.s:70960  .debug_str:0000000000001ffd .LASF1742
     /tmp/ccP2IRDu.s:74200  .debug_str:000000000000a6e0 .LASF1743
     /tmp/ccP2IRDu.s:76932  .debug_str:0000000000011a81 .LASF1744
     /tmp/ccP2IRDu.s:71968  .debug_str:0000000000004b37 .LASF1745
     /tmp/ccP2IRDu.s:74900  .debug_str:000000000000c43e .LASF1746
     /tmp/ccP2IRDu.s:71258  .debug_str:0000000000002d2d .LASF1747
     /tmp/ccP2IRDu.s:71240  .debug_str:0000000000002c4d .LASF1748
     /tmp/ccP2IRDu.s:71972  .debug_str:0000000000004b5f .LASF1749
     /tmp/ccP2IRDu.s:73028  .debug_str:00000000000076e8 .LASF1750
     /tmp/ccP2IRDu.s:72708  .debug_str:000000000000689e .LASF1751
     /tmp/ccP2IRDu.s:71012  .debug_str:0000000000002236 .LASF1752
     /tmp/ccP2IRDu.s:71606  .debug_str:0000000000003c57 .LASF1753
     /tmp/ccP2IRDu.s:71272  .debug_str:0000000000002dcc .LASF1754
     /tmp/ccP2IRDu.s:75554  .debug_str:000000000000e135 .LASF1755
     /tmp/ccP2IRDu.s:71468  .debug_str:0000000000003644 .LASF1756
     /tmp/ccP2IRDu.s:75550  .debug_str:000000000000e103 .LASF1757
     /tmp/ccP2IRDu.s:71466  .debug_str:000000000000362b .LASF1758
     /tmp/ccP2IRDu.s:74984  .debug_str:000000000000c828 .LASF1759
     /tmp/ccP2IRDu.s:73610  .debug_str:0000000000009050 .LASF1760
     /tmp/ccP2IRDu.s:76780  .debug_str:000000000001146d .LASF1761
     /tmp/ccP2IRDu.s:70766  .debug_str:00000000000017b5 .LASF1762
     /tmp/ccP2IRDu.s:74706  .debug_str:000000000000bb0e .LASF1763
     /tmp/ccP2IRDu.s:74902  .debug_str:000000000000c449 .LASF1764
     /tmp/ccP2IRDu.s:72472  .debug_str:0000000000005e0b .LASF1765
     /tmp/ccP2IRDu.s:73440  .debug_str:000000000000891f .LASF1766
     /tmp/ccP2IRDu.s:73790  .debug_str:00000000000097b8 .LASF1767
     /tmp/ccP2IRDu.s:74004  .debug_str:000000000000a020 .LASF1768
     /tmp/ccP2IRDu.s:72378  .debug_str:00000000000059fd .LASF1769
     /tmp/ccP2IRDu.s:73580  .debug_str:0000000000008eeb .LASF1770
     /tmp/ccP2IRDu.s:76420  .debug_str:00000000000106d6 .LASF1771
     /tmp/ccP2IRDu.s:74134  .debug_str:000000000000a482 .LASF1772
     /tmp/ccP2IRDu.s:74556  .debug_str:000000000000b3fe .LASF1773
     /tmp/ccP2IRDu.s:76854  .debug_str:0000000000011733 .LASF1774
     /tmp/ccP2IRDu.s:76726  .debug_str:000000000001121f .LASF1775
     /tmp/ccP2IRDu.s:71936  .debug_str:0000000000004a5f .LASF1776
     /tmp/ccP2IRDu.s:73322  .debug_str:0000000000008409 .LASF1777
     /tmp/ccP2IRDu.s:70314  .debug_str:00000000000006de .LASF1778
     /tmp/ccP2IRDu.s:75472  .debug_str:000000000000de1a .LASF1779
     /tmp/ccP2IRDu.s:71182  .debug_str:0000000000002a06 .LASF1780
     /tmp/ccP2IRDu.s:71644  .debug_str:0000000000003de3 .LASF1781
     /tmp/ccP2IRDu.s:74542  .debug_str:000000000000b37d .LASF1782
     /tmp/ccP2IRDu.s:76708  .debug_str:000000000001115b .LASF1783
     /tmp/ccP2IRDu.s:73614  .debug_str:0000000000009083 .LASF1784
     /tmp/ccP2IRDu.s:70752  .debug_str:00000000000016e9 .LASF1785
     /tmp/ccP2IRDu.s:75782  .debug_str:000000000000eba4 .LASF1786
     /tmp/ccP2IRDu.s:73456  .debug_str:0000000000008a1a .LASF1787
     /tmp/ccP2IRDu.s:76520  .debug_str:0000000000010a42 .LASF1788
     /tmp/ccP2IRDu.s:76218  .debug_str:000000000000fdfe .LASF1789
     /tmp/ccP2IRDu.s:72796  .debug_str:0000000000006c7c .LASF1790
     /tmp/ccP2IRDu.s:72932  .debug_str:0000000000007218 .LASF1791
     /tmp/ccP2IRDu.s:75480  .debug_str:000000000000de5d .LASF1792
     /tmp/ccP2IRDu.s:77130  .debug_str:00000000000122f2 .LASF1793
     /tmp/ccP2IRDu.s:74872  .debug_str:000000000000c30c .LASF1794
     /tmp/ccP2IRDu.s:73438  .debug_str:000000000000890e .LASF1795
     /tmp/ccP2IRDu.s:70868  .debug_str:0000000000001c17 .LASF1796
     /tmp/ccP2IRDu.s:72248  .debug_str:00000000000054fa .LASF1797
     /tmp/ccP2IRDu.s:72826  .debug_str:0000000000006d6f .LASF1798
     /tmp/ccP2IRDu.s:74974  .debug_str:000000000000c7bb .LASF1799
     /tmp/ccP2IRDu.s:74560  .debug_str:000000000000b433 .LASF1800
     /tmp/ccP2IRDu.s:71388  .debug_str:00000000000032ce .LASF1801
     /tmp/ccP2IRDu.s:73290  .debug_str:0000000000008282 .LASF1802
     /tmp/ccP2IRDu.s:73160  .debug_str:0000000000007ce7 .LASF1803
     /tmp/ccP2IRDu.s:73074  .debug_str:00000000000078bd .LASF1804
     /tmp/ccP2IRDu.s:72436  .debug_str:0000000000005c45 .LASF1805
     /tmp/ccP2IRDu.s:73874  .debug_str:0000000000009b5f .LASF1806
     /tmp/ccP2IRDu.s:73218  .debug_str:0000000000007f4d .LASF1807
     /tmp/ccP2IRDu.s:72564  .debug_str:0000000000006266 .LASF1808
     /tmp/ccP2IRDu.s:75464  .debug_str:000000000000dddc .LASF1809
     /tmp/ccP2IRDu.s:74388  .debug_str:000000000000ad81 .LASF1810
     /tmp/ccP2IRDu.s:71340  .debug_str:00000000000030f9 .LASF1811
     /tmp/ccP2IRDu.s:77220  .debug_str:00000000000126e5 .LASF1812
     /tmp/ccP2IRDu.s:73426  .debug_str:0000000000008861 .LASF1813
     /tmp/ccP2IRDu.s:73058  .debug_str:000000000000783e .LASF1814
     /tmp/ccP2IRDu.s:76194  .debug_str:000000000000fd10 .LASF1815
     /tmp/ccP2IRDu.s:74976  .debug_str:000000000000c7c4 .LASF1816
     /tmp/ccP2IRDu.s:70442  .debug_str:0000000000000bad .LASF1817
     /tmp/ccP2IRDu.s:74780  .debug_str:000000000000be63 .LASF1818
     /tmp/ccP2IRDu.s:70438  .debug_str:0000000000000b85 .LASF1819
     /tmp/ccP2IRDu.s:76836  .debug_str:000000000001169e .LASF1820
     /tmp/ccP2IRDu.s:72446  .debug_str:0000000000005cc4 .LASF1821
     /tmp/ccP2IRDu.s:74472  .debug_str:000000000000b05f .LASF1822
     /tmp/ccP2IRDu.s:70410  .debug_str:0000000000000a30 .LASF1823
     /tmp/ccP2IRDu.s:71540  .debug_str:0000000000003929 .LASF1824
     /tmp/ccP2IRDu.s:74338  .debug_str:000000000000ac01 .LASF1825
     /tmp/ccP2IRDu.s:73252  .debug_str:0000000000008111 .LASF1826
     /tmp/ccP2IRDu.s:76214  .debug_str:000000000000fdcb .LASF1827
     /tmp/ccP2IRDu.s:74298  .debug_str:000000000000aa64 .LASF1828
     /tmp/ccP2IRDu.s:72658  .debug_str:000000000000665b .LASF1829
     /tmp/ccP2IRDu.s:74760  .debug_str:000000000000bd80 .LASF1830
     /tmp/ccP2IRDu.s:71416  .debug_str:0000000000003480 .LASF1831
     /tmp/ccP2IRDu.s:73148  .debug_str:0000000000007c91 .LASF1832
     /tmp/ccP2IRDu.s:71306  .debug_str:0000000000002f63 .LASF1833
     /tmp/ccP2IRDu.s:70750  .debug_str:00000000000016d9 .LASF1834
     /tmp/ccP2IRDu.s:71690  .debug_str:0000000000004053 .LASF1835
     /tmp/ccP2IRDu.s:70996  .debug_str:000000000000219a .LASF1836
     /tmp/ccP2IRDu.s:75372  .debug_str:000000000000d968 .LASF1837
     /tmp/ccP2IRDu.s:75276  .debug_str:000000000000d55e .LASF1838
     /tmp/ccP2IRDu.s:72990  .debug_str:000000000000750a .LASF1839
     /tmp/ccP2IRDu.s:74400  .debug_str:000000000000ae11 .LASF1840
     /tmp/ccP2IRDu.s:70318  .debug_str:00000000000006fc .LASF1841
     /tmp/ccP2IRDu.s:74142  .debug_str:000000000000a4ed .LASF1842
     /tmp/ccP2IRDu.s:71038  .debug_str:0000000000002354 .LASF1843
     /tmp/ccP2IRDu.s:75406  .debug_str:000000000000daf8 .LASF1844
     /tmp/ccP2IRDu.s:74812  .debug_str:000000000000bfcc .LASF1845
     /tmp/ccP2IRDu.s:74190  .debug_str:000000000000a671 .LASF1846
     /tmp/ccP2IRDu.s:73514  .debug_str:0000000000008bf3 .LASF1847
     /tmp/ccP2IRDu.s:71602  .debug_str:0000000000003c1e .LASF1848
     /tmp/ccP2IRDu.s:77392  .debug_str:0000000000012eaf .LASF1849
     /tmp/ccP2IRDu.s:70670  .debug_str:000000000000143e .LASF1850
     /tmp/ccP2IRDu.s:75038  .debug_str:000000000000cac9 .LASF1851
     /tmp/ccP2IRDu.s:77330  .debug_str:0000000000012c0d .LASF1852
     /tmp/ccP2IRDu.s:76616  .debug_str:0000000000010dd0 .LASF1853
     /tmp/ccP2IRDu.s:72734  .debug_str:00000000000069c8 .LASF1854
     /tmp/ccP2IRDu.s:73084  .debug_str:00000000000079e2 .LASF1855
     /tmp/ccP2IRDu.s:74870  .debug_str:000000000000c2f9 .LASF1856
     /tmp/ccP2IRDu.s:76812  .debug_str:000000000001159d .LASF1857
     /tmp/ccP2IRDu.s:76592  .debug_str:0000000000010d0c .LASF1858
     /tmp/ccP2IRDu.s:71976  .debug_str:0000000000004b9d .LASF1859
     /tmp/ccP2IRDu.s:74626  .debug_str:000000000000b734 .LASF1860
     /tmp/ccP2IRDu.s:72964  .debug_str:0000000000007378 .LASF1861
     /tmp/ccP2IRDu.s:74148  .debug_str:000000000000a53e .LASF1862
     /tmp/ccP2IRDu.s:74510  .debug_str:000000000000b22b .LASF1863
     /tmp/ccP2IRDu.s:73884  .debug_str:0000000000009baf .LASF1864
     /tmp/ccP2IRDu.s:70652  .debug_str:0000000000001394 .LASF1865
     /tmp/ccP2IRDu.s:72264  .debug_str:0000000000005596 .LASF1866
     /tmp/ccP2IRDu.s:75402  .debug_str:000000000000dac5 .LASF1867
     /tmp/ccP2IRDu.s:73706  .debug_str:00000000000094ab .LASF1868
     /tmp/ccP2IRDu.s:70284  .debug_str:0000000000000567 .LASF1869
     /tmp/ccP2IRDu.s:71264  .debug_str:0000000000002d83 .LASF1870
     /tmp/ccP2IRDu.s:74364  .debug_str:000000000000ac8d .LASF1871
     /tmp/ccP2IRDu.s:71424  .debug_str:00000000000034cc .LASF1872
     /tmp/ccP2IRDu.s:76620  .debug_str:0000000000010de7 .LASF1873
     /tmp/ccP2IRDu.s:71428  .debug_str:00000000000034e1 .LASF1874
     /tmp/ccP2IRDu.s:76622  .debug_str:0000000000010df5 .LASF1875
     /tmp/ccP2IRDu.s:71432  .debug_str:00000000000034fa .LASF1876
     /tmp/ccP2IRDu.s:71434  .debug_str:0000000000003508 .LASF1877
     /tmp/ccP2IRDu.s:71436  .debug_str:0000000000003516 .LASF1878
     /tmp/ccP2IRDu.s:71438  .debug_str:0000000000003524 .LASF1879
     /tmp/ccP2IRDu.s:71440  .debug_str:0000000000003532 .LASF1880
     /tmp/ccP2IRDu.s:76798  .debug_str:0000000000011509 .LASF1881
     /tmp/ccP2IRDu.s:76150  .debug_str:000000000000fb22 .LASF1882
     /tmp/ccP2IRDu.s:72776  .debug_str:0000000000006bb2 .LASF1883
     /tmp/ccP2IRDu.s:75398  .debug_str:000000000000da92 .LASF1884
     /tmp/ccP2IRDu.s:74156  .debug_str:000000000000a598 .LASF1885
     /tmp/ccP2IRDu.s:77302  .debug_str:0000000000012afd .LASF1886
     /tmp/ccP2IRDu.s:77370  .debug_str:0000000000012dc6 .LASF1887
     /tmp/ccP2IRDu.s:75230  .debug_str:000000000000d32a .LASF1888
     /tmp/ccP2IRDu.s:74198  .debug_str:000000000000a6d0 .LASF1889
     /tmp/ccP2IRDu.s:72010  .debug_str:0000000000004cef .LASF1890
     /tmp/ccP2IRDu.s:77456  .debug_str:000000000001310d .LASF1891
     /tmp/ccP2IRDu.s:76516  .debug_str:0000000000010a0c .LASF1892
     /tmp/ccP2IRDu.s:76228  .debug_str:000000000000fe83 .LASF1893
     /tmp/ccP2IRDu.s:73454  .debug_str:00000000000089fa .LASF1894
     /tmp/ccP2IRDu.s:72870  .debug_str:0000000000006f37 .LASF1895
     /tmp/ccP2IRDu.s:73998  .debug_str:0000000000009f9e .LASF1896
     /tmp/ccP2IRDu.s:74548  .debug_str:000000000000b3bd .LASF1897
     /tmp/ccP2IRDu.s:71116  .debug_str:00000000000026e9 .LASF1898
     /tmp/ccP2IRDu.s:70810  .debug_str:00000000000019ac .LASF1899
     /tmp/ccP2IRDu.s:74584  .debug_str:000000000000b524 .LASF1900
     /tmp/ccP2IRDu.s:75584  .debug_str:000000000000e2bd .LASF1901
     /tmp/ccP2IRDu.s:73872  .debug_str:0000000000009b38 .LASF1902
     /tmp/ccP2IRDu.s:76280  .debug_str:0000000000010151 .LASF1903
     /tmp/ccP2IRDu.s:75698  .debug_str:000000000000e7a0 .LASF1904
     /tmp/ccP2IRDu.s:74772  .debug_str:000000000000bdef .LASF1905
     /tmp/ccP2IRDu.s:76702  .debug_str:0000000000011129 .LASF1906
     /tmp/ccP2IRDu.s:72992  .debug_str:0000000000007523 .LASF1907
     /tmp/ccP2IRDu.s:70242  .debug_str:00000000000003c7 .LASF1908
     /tmp/ccP2IRDu.s:76284  .debug_str:000000000001018b .LASF1909
     /tmp/ccP2IRDu.s:72994  .debug_str:0000000000007535 .LASF1910
     /tmp/ccP2IRDu.s:73320  .debug_str:00000000000083e3 .LASF1911
     /tmp/ccP2IRDu.s:76286  .debug_str:000000000001019d .LASF1912
     /tmp/ccP2IRDu.s:75704  .debug_str:000000000000e7ca .LASF1913
     /tmp/ccP2IRDu.s:76324  .debug_str:000000000001034f .LASF1914
     /tmp/ccP2IRDu.s:70660  .debug_str:00000000000013cd .LASF1915
     /tmp/ccP2IRDu.s:77090  .debug_str:0000000000012152 .LASF1916
     /tmp/ccP2IRDu.s:74558  .debug_str:000000000000b40d .LASF1917
     /tmp/ccP2IRDu.s:73180  .debug_str:0000000000007de4 .LASF1918
     /tmp/ccP2IRDu.s:77236  .debug_str:000000000001277e .LASF1919
     /tmp/ccP2IRDu.s:75358  .debug_str:000000000000d8a6 .LASF1920
     /tmp/ccP2IRDu.s:73182  .debug_str:0000000000007df6 .LASF1921
     /tmp/ccP2IRDu.s:77238  .debug_str:0000000000012790 .LASF1922
     /tmp/ccP2IRDu.s:72770  .debug_str:0000000000006b73 .LASF1923
     /tmp/ccP2IRDu.s:77400  .debug_str:0000000000012f06 .LASF1924
     /tmp/ccP2IRDu.s:76668  .debug_str:0000000000010fff .LASF1925
     /tmp/ccP2IRDu.s:72380  .debug_str:0000000000005a06 .LASF1926
     /tmp/ccP2IRDu.s:74246  .debug_str:000000000000a867 .LASF1927
     /tmp/ccP2IRDu.s:75864  .debug_str:000000000000ee9b .LASF1928
     /tmp/ccP2IRDu.s:73224  .debug_str:0000000000007f8e .LASF1929
     /tmp/ccP2IRDu.s:74728  .debug_str:000000000000bc48 .LASF1930
     /tmp/ccP2IRDu.s:75448  .debug_str:000000000000dd35 .LASF1931
     /tmp/ccP2IRDu.s:75126  .debug_str:000000000000ce99 .LASF1932
     /tmp/ccP2IRDu.s:73848  .debug_str:0000000000009a06 .LASF1933
     /tmp/ccP2IRDu.s:70510  .debug_str:0000000000000e3c .LASF1934
     /tmp/ccP2IRDu.s:73838  .debug_str:000000000000998c .LASF1935
     /tmp/ccP2IRDu.s:73344  .debug_str:0000000000008516 .LASF1936
     /tmp/ccP2IRDu.s:72700  .debug_str:0000000000006844 .LASF1937
     /tmp/ccP2IRDu.s:71010  .debug_str:0000000000002216 .LASF1938
     /tmp/ccP2IRDu.s:73752  .debug_str:0000000000009608 .LASF1939
     /tmp/ccP2IRDu.s:77134  .debug_str:000000000001231f .LASF1940
     /tmp/ccP2IRDu.s:74092  .debug_str:000000000000a304 .LASF1941
     /tmp/ccP2IRDu.s:73758  .debug_str:0000000000009646 .LASF1942
     /tmp/ccP2IRDu.s:77124  .debug_str:00000000000122b9 .LASF1943
     /tmp/ccP2IRDu.s:75954  .debug_str:000000000000f293 .LASF1944
     /tmp/ccP2IRDu.s:75796  .debug_str:000000000000ec35 .LASF1945
     /tmp/ccP2IRDu.s:71720  .debug_str:000000000000415f .LASF1946
     /tmp/ccP2IRDu.s:72706  .debug_str:000000000000687e .LASF1947
     /tmp/ccP2IRDu.s:73842  .debug_str:00000000000099be .LASF1948
     /tmp/ccP2IRDu.s:76288  .debug_str:00000000000101af .LASF1949
     /tmp/ccP2IRDu.s:73486  .debug_str:0000000000008af5 .LASF1950
     /tmp/ccP2IRDu.s:73536  .debug_str:0000000000008cbb .LASF1951
     /tmp/ccP2IRDu.s:73982  .debug_str:0000000000009ebf .LASF1952
     /tmp/ccP2IRDu.s:72440  .debug_str:0000000000005c66 .LASF1953
     /tmp/ccP2IRDu.s:71510  .debug_str:00000000000037f9 .LASF1954
     /tmp/ccP2IRDu.s:77280  .debug_str:00000000000129a0 .LASF1955
     /tmp/ccP2IRDu.s:76006  .debug_str:000000000000f4d1 .LASF1956
     /tmp/ccP2IRDu.s:71348  .debug_str:0000000000003152 .LASF1957
     /tmp/ccP2IRDu.s:72272  .debug_str:00000000000055ee .LASF1958
     /tmp/ccP2IRDu.s:72400  .debug_str:0000000000005b10 .LASF1959
     /tmp/ccP2IRDu.s:75478  .debug_str:000000000000de45 .LASF1960
     /tmp/ccP2IRDu.s:72434  .debug_str:0000000000005c2d .LASF1961
     /tmp/ccP2IRDu.s:75558  .debug_str:000000000000e15a .LASF1962
     /tmp/ccP2IRDu.s:77350  .debug_str:0000000000012d05 .LASF1963
     /tmp/ccP2IRDu.s:72552  .debug_str:00000000000061ec .LASF1964
     /tmp/ccP2IRDu.s:74060  .debug_str:000000000000a1a8 .LASF1965
     /tmp/ccP2IRDu.s:73654  .debug_str:0000000000009215 .LASF1966
     /tmp/ccP2IRDu.s:72328  .debug_str:00000000000057f7 .LASF1967
     /tmp/ccP2IRDu.s:75792  .debug_str:000000000000ec00 .LASF1968
     /tmp/ccP2IRDu.s:76386  .debug_str:0000000000010566 .LASF1969
     /tmp/ccP2IRDu.s:70962  .debug_str:000000000000200d .LASF1970
     /tmp/ccP2IRDu.s:71974  .debug_str:0000000000004b73 .LASF1971
     /tmp/ccP2IRDu.s:75506  .debug_str:000000000000df53 .LASF1972
     /tmp/ccP2IRDu.s:77000  .debug_str:0000000000011d8e .LASF1973
     /tmp/ccP2IRDu.s:72122  .debug_str:00000000000050d2 .LASF1974
     /tmp/ccP2IRDu.s:70794  .debug_str:00000000000018fe .LASF1975
     /tmp/ccP2IRDu.s:72544  .debug_str:00000000000061a1 .LASF1976
     /tmp/ccP2IRDu.s:71600  .debug_str:0000000000003bf2 .LASF1977
     /tmp/ccP2IRDu.s:71790  .debug_str:000000000000446c .LASF1978
     /tmp/ccP2IRDu.s:74988  .debug_str:000000000000c84f .LASF1979
     /tmp/ccP2IRDu.s:72338  .debug_str:000000000000587b .LASF1980
     /tmp/ccP2IRDu.s:76050  .debug_str:000000000000f70f .LASF1981
     /tmp/ccP2IRDu.s:76038  .debug_str:000000000000f687 .LASF1982
     /tmp/ccP2IRDu.s:71160  .debug_str:000000000000291d .LASF1983
     /tmp/ccP2IRDu.s:71132  .debug_str:0000000000002800 .LASF1984
     /tmp/ccP2IRDu.s:70282  .debug_str:0000000000000557 .LASF1985
     /tmp/ccP2IRDu.s:76888  .debug_str:00000000000118f2 .LASF1986
     /tmp/ccP2IRDu.s:74396  .debug_str:000000000000adf1 .LASF1987
     /tmp/ccP2IRDu.s:76160  .debug_str:000000000000fba2 .LASF1988
     /tmp/ccP2IRDu.s:76274  .debug_str:0000000000010100 .LASF1989
     /tmp/ccP2IRDu.s:76864  .debug_str:00000000000117b3 .LASF1990
     /tmp/ccP2IRDu.s:73004  .debug_str:00000000000075b5 .LASF1991
     /tmp/ccP2IRDu.s:72898  .debug_str:00000000000070a2 .LASF1992
     /tmp/ccP2IRDu.s:72642  .debug_str:000000000000657a .LASF1993
     /tmp/ccP2IRDu.s:76902  .debug_str:000000000001197e .LASF1994
     /tmp/ccP2IRDu.s:77262  .debug_str:00000000000128ce .LASF1995
     /tmp/ccP2IRDu.s:75918  .debug_str:000000000000f118 .LASF1996
     /tmp/ccP2IRDu.s:74708  .debug_str:000000000000bb1c .LASF1997
     /tmp/ccP2IRDu.s:76884  .debug_str:00000000000118be .LASF1998
     /tmp/ccP2IRDu.s:73542  .debug_str:0000000000008d03 .LASF1999
     /tmp/ccP2IRDu.s:76982  .debug_str:0000000000011cc6 .LASF2000
     /tmp/ccP2IRDu.s:75318  .debug_str:000000000000d6f5 .LASF2001
     /tmp/ccP2IRDu.s:71918  .debug_str:000000000000499c .LASF2002
     /tmp/ccP2IRDu.s:73622  .debug_str:00000000000090bf .LASF2003
     /tmp/ccP2IRDu.s:71134  .debug_str:0000000000002810 .LASF2004
     /tmp/ccP2IRDu.s:74588  .debug_str:000000000000b54f .LASF2005
     /tmp/ccP2IRDu.s:76564  .debug_str:0000000000010c6b .LASF2006
     /tmp/ccP2IRDu.s:72202  .debug_str:000000000000538c .LASF2007
     /tmp/ccP2IRDu.s:71708  .debug_str:0000000000004109 .LASF2008
     /tmp/ccP2IRDu.s:73060  .debug_str:000000000000784e .LASF2009
     /tmp/ccP2IRDu.s:76482  .debug_str:000000000001090d .LASF2010
     /tmp/ccP2IRDu.s:77092  .debug_str:0000000000012164 .LASF2011
     /tmp/ccP2IRDu.s:73524  .debug_str:0000000000008c4c .LASF2012
     /tmp/ccP2IRDu.s:71100  .debug_str:00000000000025f1 .LASF2013
     /tmp/ccP2IRDu.s:73070  .debug_str:00000000000078a4 .LASF2014
     /tmp/ccP2IRDu.s:75648  .debug_str:000000000000e570 .LASF2015
     /tmp/ccP2IRDu.s:75090  .debug_str:000000000000cd7b .LASF2016
     /tmp/ccP2IRDu.s:75710  .debug_str:000000000000e823 .LASF2017
     /tmp/ccP2IRDu.s:75404  .debug_str:000000000000daea .LASF2018
     /tmp/ccP2IRDu.s:77454  .debug_str:00000000000130eb .LASF2019
     /tmp/ccP2IRDu.s:71242  .debug_str:0000000000002c5e .LASF2020
     /tmp/ccP2IRDu.s:74894  .debug_str:000000000000c40c .LASF2021
     /tmp/ccP2IRDu.s:77332  .debug_str:0000000000012c1a .LASF2022
     /tmp/ccP2IRDu.s:74084  .debug_str:000000000000a2ac .LASF2023
     /tmp/ccP2IRDu.s:77270  .debug_str:000000000001295e .LASF2024
     /tmp/ccP2IRDu.s:71784  .debug_str:00000000000043fa .LASF2025
     /tmp/ccP2IRDu.s:74332  .debug_str:000000000000abd8 .LASF2026
     /tmp/ccP2IRDu.s:71292  .debug_str:0000000000002ee0 .LASF2027
     /tmp/ccP2IRDu.s:71550  .debug_str:0000000000003993 .LASF2028
     /tmp/ccP2IRDu.s:72464  .debug_str:0000000000005daf .LASF2029
     /tmp/ccP2IRDu.s:77158  .debug_str:0000000000012439 .LASF2030
     /tmp/ccP2IRDu.s:70664  .debug_str:00000000000013ec .LASF2031
     /tmp/ccP2IRDu.s:72818  .debug_str:0000000000006ceb .LASF2032
     /tmp/ccP2IRDu.s:76850  .debug_str:0000000000011709 .LASF2033
     /tmp/ccP2IRDu.s:70540  .debug_str:0000000000000f2c .LASF2034
     /tmp/ccP2IRDu.s:76802  .debug_str:000000000001153f .LASF2035
     /tmp/ccP2IRDu.s:73696  .debug_str:000000000000944b .LASF2036
     /tmp/ccP2IRDu.s:73106  .debug_str:0000000000007a94 .LASF2037
     /tmp/ccP2IRDu.s:70336  .debug_str:00000000000007c1 .LASF2038
     /tmp/ccP2IRDu.s:73708  .debug_str:00000000000094b5 .LASF2039
     /tmp/ccP2IRDu.s:73564  .debug_str:0000000000008de2 .LASF2040
     /tmp/ccP2IRDu.s:70328  .debug_str:000000000000076f .LASF2041
     /tmp/ccP2IRDu.s:74696  .debug_str:000000000000baba .LASF2042
     /tmp/ccP2IRDu.s:74726  .debug_str:000000000000bc2a .LASF2043
     /tmp/ccP2IRDu.s:70294  .debug_str:00000000000005df .LASF2044
     /tmp/ccP2IRDu.s:76452  .debug_str:00000000000107cf .LASF2045
     /tmp/ccP2IRDu.s:70736  .debug_str:000000000000166a .LASF2046
     /tmp/ccP2IRDu.s:70414  .debug_str:0000000000000a6f .LASF2047
     /tmp/ccP2IRDu.s:74520  .debug_str:000000000000b2ba .LASF2048
     /tmp/ccP2IRDu.s:73812  .debug_str:00000000000098b3 .LASF2049
     /tmp/ccP2IRDu.s:75184  .debug_str:000000000000d109 .LASF2050
     /tmp/ccP2IRDu.s:77416  .debug_str:0000000000012fc3 .LASF2051
     /tmp/ccP2IRDu.s:73566  .debug_str:0000000000008e00 .LASF2052
     /tmp/ccP2IRDu.s:71024  .debug_str:00000000000022d9 .LASF2053
     /tmp/ccP2IRDu.s:74460  .debug_str:000000000000affb .LASF2054
     /tmp/ccP2IRDu.s:75374  .debug_str:000000000000d982 .LASF2055
     /tmp/ccP2IRDu.s:71022  .debug_str:00000000000022cf .LASF2056
     /tmp/ccP2IRDu.s:76332  .debug_str:00000000000103b8 .LASF2057
     /tmp/ccP2IRDu.s:76468  .debug_str:0000000000010859 .LASF2058
     /tmp/ccP2IRDu.s:76644  .debug_str:0000000000010edb .LASF2059
     /tmp/ccP2IRDu.s:73498  .debug_str:0000000000008b6c .LASF2060
     /tmp/ccP2IRDu.s:76972  .debug_str:0000000000011c4f .LASF2061
     /tmp/ccP2IRDu.s:77532  .debug_str:000000000001348d .LASF2062
     /tmp/ccP2IRDu.s:73494  .debug_str:0000000000008b59 .LASF2063
     /tmp/ccP2IRDu.s:74826  .debug_str:000000000000c09c .LASF2064
     /tmp/ccP2IRDu.s:73544  .debug_str:0000000000008d14 .LASF2065
     /tmp/ccP2IRDu.s:75570  .debug_str:000000000000e1fb .LASF2066
     /tmp/ccP2IRDu.s:75246  .debug_str:000000000000d3f3 .LASF2067
     /tmp/ccP2IRDu.s:72604  .debug_str:00000000000063ff .LASF2068
     /tmp/ccP2IRDu.s:75592  .debug_str:000000000000e309 .LASF2069
     /tmp/ccP2IRDu.s:71246  .debug_str:0000000000002c8a .LASF2070
     /tmp/ccP2IRDu.s:70836  .debug_str:0000000000001ab9 .LASF2071
     /tmp/ccP2IRDu.s:70234  .debug_str:0000000000000358 .LASF2072
     /tmp/ccP2IRDu.s:73296  .debug_str:00000000000082e7 .LASF2073
     /tmp/ccP2IRDu.s:75936  .debug_str:000000000000f1fd .LASF2074
     /tmp/ccP2IRDu.s:77076  .debug_str:00000000000120e4 .LASF2075
     /tmp/ccP2IRDu.s:77294  .debug_str:0000000000012aac .LASF2076
     /tmp/ccP2IRDu.s:75938  .debug_str:000000000000f206 .LASF2077
     /tmp/ccP2IRDu.s:77078  .debug_str:00000000000120ed .LASF2078
     /tmp/ccP2IRDu.s:72942  .debug_str:0000000000007274 .LASF2079
     /tmp/ccP2IRDu.s:75942  .debug_str:000000000000f218 .LASF2080
     /tmp/ccP2IRDu.s:70936  .debug_str:0000000000001ec0 .LASF2081
     /tmp/ccP2IRDu.s:71482  .debug_str:00000000000036f2 .LASF2082
     /tmp/ccP2IRDu.s:77028  .debug_str:0000000000011ef3 .LASF2083
     /tmp/ccP2IRDu.s:72676  .debug_str:0000000000006701 .LASF2084
     /tmp/ccP2IRDu.s:73352  .debug_str:0000000000008558 .LASF2085
     /tmp/ccP2IRDu.s:73192  .debug_str:0000000000007e6d .LASF2086
     /tmp/ccP2IRDu.s:75588  .debug_str:000000000000e2d9 .LASF2087
     /tmp/ccP2IRDu.s:74140  .debug_str:000000000000a4c1 .LASF2088
     /tmp/ccP2IRDu.s:74538  .debug_str:000000000000b35e .LASF2089
     /tmp/ccP2IRDu.s:75590  .debug_str:000000000000e2f1 .LASF2090
     /tmp/ccP2IRDu.s:76462  .debug_str:0000000000010815 .LASF2091
     /tmp/ccP2IRDu.s:71052  .debug_str:00000000000023d3 .LASF2092
     /tmp/ccP2IRDu.s:77044  .debug_str:0000000000011faf .LASF2093
     /tmp/ccP2IRDu.s:75724  .debug_str:000000000000e904 .LASF2094
     /tmp/ccP2IRDu.s:71054  .debug_str:00000000000023eb .LASF2095
     /tmp/ccP2IRDu.s:77048  .debug_str:0000000000011fd8 .LASF2096
     /tmp/ccP2IRDu.s:71276  .debug_str:0000000000002dde .LASF2097
     /tmp/ccP2IRDu.s:75172  .debug_str:000000000000d0a9 .LASF2098
     /tmp/ccP2IRDu.s:76268  .debug_str:00000000000100bd .LASF2099
     /tmp/ccP2IRDu.s:74992  .debug_str:000000000000c895 .LASF2100
     /tmp/ccP2IRDu.s:74698  .debug_str:000000000000bac4 .LASF2101
     /tmp/ccP2IRDu.s:76270  .debug_str:00000000000100d5 .LASF2102
     /tmp/ccP2IRDu.s:71126  .debug_str:000000000000277c .LASF2103
     /tmp/ccP2IRDu.s:75332  .debug_str:000000000000d784 .LASF2104
     /tmp/ccP2IRDu.s:72944  .debug_str:0000000000007291 .LASF2105
     /tmp/ccP2IRDu.s:72874  .debug_str:0000000000006f69 .LASF2106
     /tmp/ccP2IRDu.s:71710  .debug_str:000000000000411f .LASF2107
     /tmp/ccP2IRDu.s:72946  .debug_str:00000000000072a9 .LASF2108
     /tmp/ccP2IRDu.s:75894  .debug_str:000000000000efcd .LASF2109
     /tmp/ccP2IRDu.s:75866  .debug_str:000000000000eeac .LASF2110
     /tmp/ccP2IRDu.s:76970  .debug_str:0000000000011c37 .LASF2111
     /tmp/ccP2IRDu.s:76144  .debug_str:000000000000faca .LASF2112
     /tmp/ccP2IRDu.s:76028  .debug_str:000000000000f60d .LASF2113
     /tmp/ccP2IRDu.s:71704  .debug_str:00000000000040e1 .LASF2114
     /tmp/ccP2IRDu.s:70762  .debug_str:000000000000177c .LASF2115
     /tmp/ccP2IRDu.s:72504  .debug_str:0000000000005f90 .LASF2116
     /tmp/ccP2IRDu.s:73658  .debug_str:0000000000009249 .LASF2117
     /tmp/ccP2IRDu.s:72978  .debug_str:000000000000743a .LASF2118
     /tmp/ccP2IRDu.s:72506  .debug_str:0000000000005fa8 .LASF2119
     /tmp/ccP2IRDu.s:73660  .debug_str:0000000000009261 .LASF2120
     /tmp/ccP2IRDu.s:73014  .debug_str:0000000000007633 .LASF2121
     /tmp/ccP2IRDu.s:76588  .debug_str:0000000000010cdc .LASF2122
     /tmp/ccP2IRDu.s:73232  .debug_str:0000000000008006 .LASF2123
     /tmp/ccP2IRDu.s:70488  .debug_str:0000000000000ceb .LASF2124
     /tmp/ccP2IRDu.s:70898  .debug_str:0000000000001d3a .LASF2125
     /tmp/ccP2IRDu.s:70236  .debug_str:0000000000000366 .LASF2126
     /tmp/ccP2IRDu.s:75370  .debug_str:000000000000d93c .LASF2127
     /tmp/ccP2IRDu.s:70756  .debug_str:0000000000001715 .LASF2128
     /tmp/ccP2IRDu.s:74450  .debug_str:000000000000af92 .LASF2129
     /tmp/ccP2IRDu.s:74678  .debug_str:000000000000b9b1 .LASF2130
     /tmp/ccP2IRDu.s:73248  .debug_str:00000000000080ec .LASF2131
     /tmp/ccP2IRDu.s:74452  .debug_str:000000000000afaa .LASF2132
     /tmp/ccP2IRDu.s:77558  .debug_str:0000000000013565 .LASF2133
     /tmp/ccP2IRDu.s:77266  .debug_str:000000000001292e .LASF2134
     /tmp/ccP2IRDu.s:70972  .debug_str:000000000000207e .LASF2135
     /tmp/ccP2IRDu.s:76816  .debug_str:00000000000115ce .LASF2136
     /tmp/ccP2IRDu.s:77268  .debug_str:0000000000012946 .LASF2137
     /tmp/ccP2IRDu.s:70974  .debug_str:0000000000002096 .LASF2138
     /tmp/ccP2IRDu.s:72448  .debug_str:0000000000005ce0 .LASF2139
     /tmp/ccP2IRDu.s:73996  .debug_str:0000000000009f86 .LASF2140
     /tmp/ccP2IRDu.s:75082  .debug_str:000000000000cd37 .LASF2141
     /tmp/ccP2IRDu.s:71632  .debug_str:0000000000003d3d .LASF2142
     /tmp/ccP2IRDu.s:72174  .debug_str:000000000000527e .LASF2143
     /tmp/ccP2IRDu.s:75084  .debug_str:000000000000cd4f .LASF2144
     /tmp/ccP2IRDu.s:74802  .debug_str:000000000000bf46 .LASF2145
     /tmp/ccP2IRDu.s:74544  .debug_str:000000000000b38b .LASF2146
     /tmp/ccP2IRDu.s:72880  .debug_str:0000000000006fb6 .LASF2147
     /tmp/ccP2IRDu.s:75992  .debug_str:000000000000f434 .LASF2148
     /tmp/ccP2IRDu.s:74546  .debug_str:000000000000b3a4 .LASF2149
     /tmp/ccP2IRDu.s:72882  .debug_str:0000000000006fcf .LASF2150
     /tmp/ccP2IRDu.s:71528  .debug_str:00000000000038a1 .LASF2151
     /tmp/ccP2IRDu.s:71058  .debug_str:0000000000002423 .LASF2152
     /tmp/ccP2IRDu.s:76918  .debug_str:00000000000119d1 .LASF2153
     /tmp/ccP2IRDu.s:75080  .debug_str:000000000000cd0a .LASF2154
     /tmp/ccP2IRDu.s:71060  .debug_str:000000000000243c .LASF2155
     /tmp/ccP2IRDu.s:72006  .debug_str:0000000000004cbb .LASF2156
     /tmp/ccP2IRDu.s:73946  .debug_str:0000000000009d95 .LASF2157
     /tmp/ccP2IRDu.s:75186  .debug_str:000000000000d11e .LASF2158
     /tmp/ccP2IRDu.s:71144  .debug_str:0000000000002868 .LASF2159
     /tmp/ccP2IRDu.s:73188  .debug_str:0000000000007e3b .LASF2160
     /tmp/ccP2IRDu.s:75188  .debug_str:000000000000d137 .LASF2161
     /tmp/ccP2IRDu.s:72790  .debug_str:0000000000006c48 .LASF2162
     /tmp/ccP2IRDu.s:76180  .debug_str:000000000000fc77 .LASF2163
     /tmp/ccP2IRDu.s:71728  .debug_str:00000000000041a0 .LASF2164
     /tmp/ccP2IRDu.s:70188  .debug_str:0000000000000125 .LASF2165
     /tmp/ccP2IRDu.s:75440  .debug_str:000000000000dcb6 .LASF2166
     /tmp/ccP2IRDu.s:71730  .debug_str:00000000000041b9 .LASF2167
     /tmp/ccP2IRDu.s:76768  .debug_str:00000000000113ca .LASF2168
     /tmp/ccP2IRDu.s:70986  .debug_str:000000000000211d .LASF2169
     /tmp/ccP2IRDu.s:75888  .debug_str:000000000000ef94 .LASF2170
     /tmp/ccP2IRDu.s:74368  .debug_str:000000000000aca2 .LASF2171
     /tmp/ccP2IRDu.s:70240  .debug_str:000000000000039a .LASF2172
     /tmp/ccP2IRDu.s:75890  .debug_str:000000000000efad .LASF2173
     /tmp/ccP2IRDu.s:74370  .debug_str:000000000000acbb .LASF2174
     /tmp/ccP2IRDu.s:73316  .debug_str:00000000000083a6 .LASF2175
     /tmp/ccP2IRDu.s:72526  .debug_str:000000000000609d .LASF2176
     /tmp/ccP2IRDu.s:70910  .debug_str:0000000000001da2 .LASF2177
     /tmp/ccP2IRDu.s:72602  .debug_str:00000000000063d2 .LASF2178
     /tmp/ccP2IRDu.s:75824  .debug_str:000000000000ed33 .LASF2179
     /tmp/ccP2IRDu.s:70912  .debug_str:0000000000001dbb .LASF2180
     /tmp/ccP2IRDu.s:75634  .debug_str:000000000000e4bc .LASF2181
     /tmp/ccP2IRDu.s:70366  .debug_str:00000000000008f2 .LASF2182
     /tmp/ccP2IRDu.s:73690  .debug_str:00000000000093e0 .LASF2183
     /tmp/ccP2IRDu.s:70602  .debug_str:000000000000119a .LASF2184
     /tmp/ccP2IRDu.s:76118  .debug_str:000000000000f9fc .LASF2185
     /tmp/ccP2IRDu.s:71922  .debug_str:00000000000049d4 .LASF2186
     /tmp/ccP2IRDu.s:73280  .debug_str:00000000000081f6 .LASF2187
     /tmp/ccP2IRDu.s:76120  .debug_str:000000000000fa09 .LASF2188
     /tmp/ccP2IRDu.s:71924  .debug_str:00000000000049e1 .LASF2189
     /tmp/ccP2IRDu.s:76276  .debug_str:0000000000010124 .LASF2190
     /tmp/ccP2IRDu.s:76124  .debug_str:000000000000fa1f .LASF2191
     /tmp/ccP2IRDu.s:71926  .debug_str:00000000000049ee .LASF2192
     /tmp/ccP2IRDu.s:71090  .debug_str:0000000000002583 .LASF2193
     /tmp/ccP2IRDu.s:72848  .debug_str:0000000000006e3c .LASF2194
     /tmp/ccP2IRDu.s:74328  .debug_str:000000000000abab .LASF2195
     /tmp/ccP2IRDu.s:70358  .debug_str:0000000000000890 .LASF2196
     /tmp/ccP2IRDu.s:71678  .debug_str:0000000000003fcb .LASF2197
     /tmp/ccP2IRDu.s:71560  .debug_str:0000000000003a0c .LASF2198
     /tmp/ccP2IRDu.s:76890  .debug_str:0000000000011916 .LASF2199
     /tmp/ccP2IRDu.s:71530  .debug_str:00000000000038ce .LASF2200
     /tmp/ccP2IRDu.s:73260  .debug_str:0000000000008134 .LASF2201
     /tmp/ccP2IRDu.s:76986  .debug_str:0000000000011ce6 .LASF2202
     /tmp/ccP2IRDu.s:75832  .debug_str:000000000000eda8 .LASF2203
     /tmp/ccP2IRDu.s:71684  .debug_str:000000000000400d .LASF2204
     /tmp/ccP2IRDu.s:77180  .debug_str:0000000000012512 .LASF2205
     /tmp/ccP2IRDu.s:72018  .debug_str:0000000000004d30 .LASF2206
     /tmp/ccP2IRDu.s:76856  .debug_str:0000000000011741 .LASF2207
     /tmp/ccP2IRDu.s:70590  .debug_str:00000000000010d9 .LASF2208
     /tmp/ccP2IRDu.s:70408  .debug_str:0000000000000a1e .LASF2209
     /tmp/ccP2IRDu.s:72724  .debug_str:000000000000698c .LASF2210
     /tmp/ccP2IRDu.s:74304  .debug_str:000000000000aaa6 .LASF2211
     /tmp/ccP2IRDu.s:76796  .debug_str:00000000000114f3 .LASF2212
     /tmp/ccP2IRDu.s:70572  .debug_str:0000000000000fff .LASF2213
     /tmp/ccP2IRDu.s:75560  .debug_str:000000000000e186 .LASF2214
     /tmp/ccP2IRDu.s:72322  .debug_str:00000000000057bc .LASF2215
     /tmp/ccP2IRDu.s:75234  .debug_str:000000000000d34b .LASF2216
     /tmp/ccP2IRDu.s:70290  .debug_str:00000000000005ab .LASF2217
     /tmp/ccP2IRDu.s:77096  .debug_str:000000000001219a .LASF2218
     /tmp/ccP2IRDu.s:71626  .debug_str:0000000000003d1d .LASF2219
     /tmp/ccP2IRDu.s:74322  .debug_str:000000000000ab3e .LASF2220
     /tmp/ccP2IRDu.s:75750  .debug_str:000000000000ea2d .LASF2221
     /tmp/ccP2IRDu.s:74490  .debug_str:000000000000b135 .LASF2222
     /tmp/ccP2IRDu.s:73860  .debug_str:0000000000009aab .LASF2223
     /tmp/ccP2IRDu.s:75390  .debug_str:000000000000da32 .LASF2224
     /tmp/ccP2IRDu.s:71994  .debug_str:0000000000004c80 .LASF2225
     /tmp/ccP2IRDu.s:70196  .debug_str:0000000000000182 .LASF2226
     /tmp/ccP2IRDu.s:71174  .debug_str:00000000000029c1 .LASF2227
     /tmp/ccP2IRDu.s:76168  .debug_str:000000000000fbed .LASF2228
     /tmp/ccP2IRDu.s:70434  .debug_str:0000000000000b4b .LASF2229
     /tmp/ccP2IRDu.s:75794  .debug_str:000000000000ec28 .LASF2230
     /tmp/ccP2IRDu.s:71698  .debug_str:00000000000040b8 .LASF2231
     /tmp/ccP2IRDu.s:75908  .debug_str:000000000000f0a0 .LASF2232
     /tmp/ccP2IRDu.s:71286  .debug_str:0000000000002e93 .LASF2233
     /tmp/ccP2IRDu.s:70182  .debug_str:00000000000000c9 .LASF2234
     /tmp/ccP2IRDu.s:76220  .debug_str:000000000000fe0c .LASF2235
     /tmp/ccP2IRDu.s:71636  .debug_str:0000000000003d89 .LASF2236
     /tmp/ccP2IRDu.s:73412  .debug_str:00000000000087f1 .LASF2237
     /tmp/ccP2IRDu.s:70702  .debug_str:00000000000014f7 .LASF2238
     /tmp/ccP2IRDu.s:74366  .debug_str:000000000000ac9b .LASF2239
     /tmp/ccP2IRDu.s:74628  .debug_str:000000000000b73e .LASF2240
     /tmp/ccP2IRDu.s:73424  .debug_str:0000000000008846 .LASF2241
     /tmp/ccP2IRDu.s:77390  .debug_str:0000000000012ea4 .LASF2242
     /tmp/ccP2IRDu.s:76678  .debug_str:0000000000011066 .LASF2243
     /tmp/ccP2IRDu.s:75294  .debug_str:000000000000d60f .LASF2244
     /tmp/ccP2IRDu.s:74268  .debug_str:000000000000a9b0 .LASF2245
     /tmp/ccP2IRDu.s:76822  .debug_str:0000000000011619 .LASF2246
     /tmp/ccP2IRDu.s:72650  .debug_str:00000000000065d8 .LASF2247
     /tmp/ccP2IRDu.s:70720  .debug_str:00000000000015c1 .LASF2248
     /tmp/ccP2IRDu.s:75614  .debug_str:000000000000e3aa .LASF2249
     /tmp/ccP2IRDu.s:73736  .debug_str:0000000000009594 .LASF2250
     /tmp/ccP2IRDu.s:74012  .debug_str:000000000000a051 .LASF2251
     /tmp/ccP2IRDu.s:75594  .debug_str:000000000000e31a .LASF2252
     /tmp/ccP2IRDu.s:70238  .debug_str:000000000000037e .LASF2253
     /tmp/ccP2IRDu.s:75580  .debug_str:000000000000e279 .LASF2254
     /tmp/ccP2IRDu.s:75672  .debug_str:000000000000e692 .LASF2255
     /tmp/ccP2IRDu.s:73770  .debug_str:00000000000096e9 .LASF2256
     /tmp/ccP2IRDu.s:76484  .debug_str:0000000000010937 .LASF2257
     /tmp/ccP2IRDu.s:76602  .debug_str:0000000000010d5f .LASF2258
     /tmp/ccP2IRDu.s:76108  .debug_str:000000000000f953 .LASF2259
     /tmp/ccP2IRDu.s:76846  .debug_str:00000000000116df .LASF2260
     /tmp/ccP2IRDu.s:75530  .debug_str:000000000000e04b .LASF2261
     /tmp/ccP2IRDu.s:75244  .debug_str:000000000000d3d8 .LASF2262
     /tmp/ccP2IRDu.s:76830  .debug_str:0000000000011677 .LASF2263
     /tmp/ccP2IRDu.s:75518  .debug_str:000000000000dfe0 .LASF2264
     /tmp/ccP2IRDu.s:73046  .debug_str:000000000000779c .LASF2265
     /tmp/ccP2IRDu.s:71142  .debug_str:0000000000002860 .LASF2266
     /tmp/ccP2IRDu.s:71248  .debug_str:0000000000002caf .LASF2267
     /tmp/ccP2IRDu.s:77162  .debug_str:0000000000012479 .LASF2268
     /tmp/ccP2IRDu.s:75732  .debug_str:000000000000e971 .LASF2269
     /tmp/ccP2IRDu.s:75862  .debug_str:000000000000ee93 .LASF2270
     /tmp/ccP2IRDu.s:77102  .debug_str:00000000000121c5 .LASF2271
     /tmp/ccP2IRDu.s:76612  .debug_str:0000000000010db7 .LASF2272
     /tmp/ccP2IRDu.s:76736  .debug_str:0000000000011281 .LASF2273
     /tmp/ccP2IRDu.s:72104  .debug_str:0000000000005001 .LASF2274
     /tmp/ccP2IRDu.s:76842  .debug_str:00000000000116d1 .LASF2275
     /tmp/ccP2IRDu.s:75810  .debug_str:000000000000ec9e .LASF2276
     /tmp/ccP2IRDu.s:77072  .debug_str:00000000000120c1 .LASF2277
     /tmp/ccP2IRDu.s:74764  .debug_str:000000000000bda2 .LASF2278
     /tmp/ccP2IRDu.s:75274  .debug_str:000000000000d556 .LASF2279
     /tmp/ccP2IRDu.s:72908  .debug_str:000000000000712c .LASF2280
     /tmp/ccP2IRDu.s:76122  .debug_str:000000000000fa16 .LASF2281
     /tmp/ccP2IRDu.s:76782  .debug_str:000000000001147d .LASF2282
     /tmp/ccP2IRDu.s:71970  .debug_str:0000000000004b42 .LASF2283
     /tmp/ccP2IRDu.s:77184  .debug_str:0000000000012550 .LASF2284
     /tmp/ccP2IRDu.s:73590  .debug_str:0000000000008f55 .LASF2285
     /tmp/ccP2IRDu.s:73198  .debug_str:0000000000007e9f .LASF2286
     /tmp/ccP2IRDu.s:71220  .debug_str:0000000000002ba2 .LASF2287
     /tmp/ccP2IRDu.s:75840  .debug_str:000000000000edf2 .LASF2288
     /tmp/ccP2IRDu.s:74928  .debug_str:000000000000c5d9 .LASF2289
     /tmp/ccP2IRDu.s:75948  .debug_str:000000000000f247 .LASF2290
     /tmp/ccP2IRDu.s:70980  .debug_str:00000000000020e3 .LASF2291
     /tmp/ccP2IRDu.s:75552  .debug_str:000000000000e11a .LASF2292
     /tmp/ccP2IRDu.s:73870  .debug_str:0000000000009b26 .LASF2293
     /tmp/ccP2IRDu.s:76260  .debug_str:0000000000010054 .LASF2294
     /tmp/ccP2IRDu.s:77146  .debug_str:00000000000123b0 .LASF2295
     /tmp/ccP2IRDu.s:76552  .debug_str:0000000000010c01 .LASF2296
     /tmp/ccP2IRDu.s:71444  .debug_str:0000000000003551 .LASF2297
     /tmp/ccP2IRDu.s:70592  .debug_str:00000000000010ff .LASF2298
     /tmp/ccP2IRDu.s:73774  .debug_str:0000000000009713 .LASF2299
     /tmp/ccP2IRDu.s:74934  .debug_str:000000000000c610 .LASF2300
     /tmp/ccP2IRDu.s:74096  .debug_str:000000000000a33c .LASF2301
     /tmp/ccP2IRDu.s:73354  .debug_str:000000000000857f .LASF2302
     /tmp/ccP2IRDu.s:73534  .debug_str:0000000000008ca9 .LASF2303
     /tmp/ccP2IRDu.s:73184  .debug_str:0000000000007e08 .LASF2304
     /tmp/ccP2IRDu.s:75818  .debug_str:000000000000ecf8 .LASF2305
     /tmp/ccP2IRDu.s:72082  .debug_str:0000000000004eee .LASF2306
     /tmp/ccP2IRDu.s:73956  .debug_str:0000000000009e1c .LASF2307
     /tmp/ccP2IRDu.s:71754  .debug_str:00000000000042b0 .LASF2308
     /tmp/ccP2IRDu.s:75026  .debug_str:000000000000ca0d .LASF2309
     /tmp/ccP2IRDu.s:76224  .debug_str:000000000000fe44 .LASF2310
     /tmp/ccP2IRDu.s:76704  .debug_str:000000000001113b .LASF2311
     /tmp/ccP2IRDu.s:75160  .debug_str:000000000000d02d .LASF2312
     /tmp/ccP2IRDu.s:73786  .debug_str:0000000000009781 .LASF2313
     /tmp/ccP2IRDu.s:76356  .debug_str:000000000001049b .LASF2314
     /tmp/ccP2IRDu.s:76712  .debug_str:000000000001118d .LASF2315
     /tmp/ccP2IRDu.s:73490  .debug_str:0000000000008b24 .LASF2316
     /tmp/ccP2IRDu.s:71802  .debug_str:000000000000450f .LASF2317
     /tmp/ccP2IRDu.s:75296  .debug_str:000000000000d62e .LASF2318
     /tmp/ccP2IRDu.s:70348  .debug_str:0000000000000825 .LASF2319
     /tmp/ccP2IRDu.s:73920  .debug_str:0000000000009ce6 .LASF2320
     /tmp/ccP2IRDu.s:75280  .debug_str:000000000000d580 .LASF2321
     /tmp/ccP2IRDu.s:73704  .debug_str:000000000000948f .LASF2322
     /tmp/ccP2IRDu.s:75900  .debug_str:000000000000f02b .LASF2323
     /tmp/ccP2IRDu.s:74638  .debug_str:000000000000b7e6 .LASF2324
     /tmp/ccP2IRDu.s:75338  .debug_str:000000000000d7cc .LASF2325
     /tmp/ccP2IRDu.s:76008  .debug_str:000000000000f4f0 .LASF2326
     /tmp/ccP2IRDu.s:74750  .debug_str:000000000000bd2d .LASF2327
     /tmp/ccP2IRDu.s:72678  .debug_str:0000000000006714 .LASF2328
     /tmp/ccP2IRDu.s:70270  .debug_str:00000000000004e7 .LASF2329
     /tmp/ccP2IRDu.s:76190  .debug_str:000000000000fced .LASF2330
     /tmp/ccP2IRDu.s:74266  .debug_str:000000000000a993 .LASF2331
     /tmp/ccP2IRDu.s:76618  .debug_str:0000000000010ddf .LASF2332
     /tmp/ccP2IRDu.s:76738  .debug_str:0000000000011289 .LASF2333
     /tmp/ccP2IRDu.s:76800  .debug_str:0000000000011523 .LASF2334
     /tmp/ccP2IRDu.s:75928  .debug_str:000000000000f1a7 .LASF2335
     /tmp/ccP2IRDu.s:70208  .debug_str:000000000000022e .LASF2336
     /tmp/ccP2IRDu.s:77002  .debug_str:0000000000011da5 .LASF2337
     /tmp/ccP2IRDu.s:73202  .debug_str:0000000000007ed0 .LASF2338
     /tmp/ccP2IRDu.s:72550  .debug_str:00000000000061e0 .LASF2339
     /tmp/ccP2IRDu.s:73910  .debug_str:0000000000009c65 .LASF2340
     /tmp/ccP2IRDu.s:75094  .debug_str:000000000000cda9 .LASF2341
     /tmp/ccP2IRDu.s:71098  .debug_str:00000000000025df .LASF2342
     /tmp/ccP2IRDu.s:76880  .debug_str:000000000001187d .LASF2343
     /tmp/ccP2IRDu.s:70458  .debug_str:0000000000000c3c .LASF2344
     /tmp/ccP2IRDu.s:70802  .debug_str:0000000000001964 .LASF2345
     /tmp/ccP2IRDu.s:73444  .debug_str:0000000000008947 .LASF2346
     /tmp/ccP2IRDu.s:76486  .debug_str:000000000001093f .LASF2347
     /tmp/ccP2IRDu.s:73888  .debug_str:0000000000009be3 .LASF2348
     /tmp/ccP2IRDu.s:75538  .debug_str:000000000000e089 .LASF2349
     /tmp/ccP2IRDu.s:70166  .debug_str:0000000000000000 .LASF2350
     /tmp/ccP2IRDu.s:71152  .debug_str:00000000000028ea .LASF2351
     /tmp/ccP2IRDu.s:73650  .debug_str:00000000000091e1 .LASF2352
     /tmp/ccP2IRDu.s:70344  .debug_str:0000000000000801 .LASF2353
     /tmp/ccP2IRDu.s:70426  .debug_str:0000000000000af6 .LASF2354
     /tmp/ccP2IRDu.s:72538  .debug_str:000000000000613a .LASF2355
     /tmp/ccP2IRDu.s:70906  .debug_str:0000000000001d7c .LASF2356
     /tmp/ccP2IRDu.s:77516  .debug_str:0000000000013408 .LASF2357
     /tmp/ccP2IRDu.s:75578  .debug_str:000000000000e252 .LASF2358
     /tmp/ccP2IRDu.s:70908  .debug_str:0000000000001d8f .LASF2359
     /tmp/ccP2IRDu.s:77520  .debug_str:000000000001342e .LASF2360
     /tmp/ccP2IRDu.s:71128  .debug_str:00000000000027a8 .LASF2361
     /tmp/ccP2IRDu.s:70352  .debug_str:0000000000000857 .LASF2362
     /tmp/ccP2IRDu.s:77524  .debug_str:000000000001344d .LASF2363
     /tmp/ccP2IRDu.s:74254  .debug_str:000000000000a8cf .LASF2364
     /tmp/ccP2IRDu.s:70354  .debug_str:000000000000086a .LASF2365
     /tmp/ccP2IRDu.s:77526  .debug_str:0000000000013460 .LASF2366
     /tmp/ccP2IRDu.s:75162  .debug_str:000000000000d042 .LASF2367
     /tmp/ccP2IRDu.s:70356  .debug_str:000000000000087d .LASF2368
     /tmp/ccP2IRDu.s:70436  .debug_str:0000000000000b72 .LASF2369
     /tmp/ccP2IRDu.s:72820  .debug_str:0000000000006cff .LASF2370
     /tmp/ccP2IRDu.s:70916  .debug_str:0000000000001df5 .LASF2371
     /tmp/ccP2IRDu.s:77530  .debug_str:000000000001347a .LASF2372
     /tmp/ccP2IRDu.s:75816  .debug_str:000000000000ecd1 .LASF2373
     /tmp/ccP2IRDu.s:70360  .debug_str:00000000000008b0 .LASF2374
     /tmp/ccP2IRDu.s:70440  .debug_str:0000000000000b9a .LASF2375
     /tmp/ccP2IRDu.s:71372  .debug_str:00000000000031ff .LASF2376
     /tmp/ccP2IRDu.s:75660  .debug_str:000000000000e5fc .LASF2377
     /tmp/ccP2IRDu.s:75442  .debug_str:000000000000dce3 .LASF2378
     /tmp/ccP2IRDu.s:76774  .debug_str:00000000000113fd .LASF2379
     /tmp/ccP2IRDu.s:75662  .debug_str:000000000000e60f .LASF2380
     /tmp/ccP2IRDu.s:71496  .debug_str:0000000000003774 .LASF2381
     /tmp/ccP2IRDu.s:72390  .debug_str:0000000000005a9e .LASF2382
     /tmp/ccP2IRDu.s:71938  .debug_str:0000000000004a74 .LASF2383
     /tmp/ccP2IRDu.s:71498  .debug_str:0000000000003787 .LASF2384
     /tmp/ccP2IRDu.s:75426  .debug_str:000000000000dc2d .LASF2385
     /tmp/ccP2IRDu.s:71940  .debug_str:0000000000004a87 .LASF2386
     /tmp/ccP2IRDu.s:71500  .debug_str:000000000000379a .LASF2387
     /tmp/ccP2IRDu.s:70968  .debug_str:000000000000204f .LASF2388
     /tmp/ccP2IRDu.s:71942  .debug_str:0000000000004a9a .LASF2389
     /tmp/ccP2IRDu.s:71502  .debug_str:00000000000037ad .LASF2390
     /tmp/ccP2IRDu.s:77476  .debug_str:000000000001321c .LASF2391
     /tmp/ccP2IRDu.s:75666  .debug_str:000000000000e64b .LASF2392
     /tmp/ccP2IRDu.s:71504  .debug_str:00000000000037c0 .LASF2393
     /tmp/ccP2IRDu.s:77024  .debug_str:0000000000011ec2 .LASF2394
     /tmp/ccP2IRDu.s:71946  .debug_str:0000000000004ab8 .LASF2395
     /tmp/ccP2IRDu.s:71506  .debug_str:00000000000037d3 .LASF2396
     /tmp/ccP2IRDu.s:72652  .debug_str:00000000000065fc .LASF2397
     /tmp/ccP2IRDu.s:75668  .debug_str:000000000000e65e .LASF2398
     /tmp/ccP2IRDu.s:71508  .debug_str:00000000000037e6 .LASF2399
     /tmp/ccP2IRDu.s:77160  .debug_str:0000000000012452 .LASF2400
     /tmp/ccP2IRDu.s:72260  .debug_str:0000000000005563 .LASF2401
     /tmp/ccP2IRDu.s:70870  .debug_str:0000000000001c2a .LASF2402
     /tmp/ccP2IRDu.s:75906  .debug_str:000000000000f079 .LASF2403
     /tmp/ccP2IRDu.s:75836  .debug_str:000000000000edcf .LASF2404
     /tmp/ccP2IRDu.s:71842  .debug_str:00000000000046a5 .LASF2405
     /tmp/ccP2IRDu.s:72738  .debug_str:00000000000069fd .LASF2406
     /tmp/ccP2IRDu.s:74754  .debug_str:000000000000bd4c .LASF2407
     /tmp/ccP2IRDu.s:75886  .debug_str:000000000000ef80 .LASF2408
     /tmp/ccP2IRDu.s:72654  .debug_str:0000000000006623 .LASF2409
     /tmp/ccP2IRDu.s:71408  .debug_str:0000000000003407 .LASF2410
     /tmp/ccP2IRDu.s:72742  .debug_str:0000000000006a4d .LASF2411
     /tmp/ccP2IRDu.s:71692  .debug_str:0000000000004060 .LASF2412
     /tmp/ccP2IRDu.s:73090  .debug_str:0000000000007a15 .LASF2413
     /tmp/ccP2IRDu.s:74318  .debug_str:000000000000ab30 .LASF2414
     /tmp/ccP2IRDu.s:72238  .debug_str:000000000000549e .LASF2415
     /tmp/ccP2IRDu.s:74906  .debug_str:000000000000c46b .LASF2416
     /tmp/ccP2IRDu.s:73876  .debug_str:0000000000009b72 .LASF2417
     /tmp/ccP2IRDu.s:76350  .debug_str:0000000000010452 .LASF2418
     /tmp/ccP2IRDu.s:73922  .debug_str:0000000000009cee .LASF2419
     /tmp/ccP2IRDu.s:72152  .debug_str:00000000000051a4 .LASF2420
     /tmp/ccP2IRDu.s:71406  .debug_str:00000000000033df .LASF2421
     /tmp/ccP2IRDu.s:74784  .debug_str:000000000000be8e .LASF2422
     /tmp/ccP2IRDu.s:72392  .debug_str:0000000000005ac5 .LASF2423
     /tmp/ccP2IRDu.s:71378  .debug_str:0000000000003252 .LASF2424
     /tmp/ccP2IRDu.s:71996  .debug_str:0000000000004c88 .LASF2425
     /tmp/ccP2IRDu.s:70894  .debug_str:0000000000001d22 .LASF2426
     /tmp/ccP2IRDu.s:73136  .debug_str:0000000000007c00 .LASF2427
     /tmp/ccP2IRDu.s:77186  .debug_str:0000000000012557 .LASF2428
     /tmp/ccP2IRDu.s:75892  .debug_str:000000000000efc6 .LASF2429
     /tmp/ccP2IRDu.s:72008  .debug_str:0000000000004cd4 .LASF2430
     /tmp/ccP2IRDu.s:71574  .debug_str:0000000000003ada .LASF2431
     /tmp/ccP2IRDu.s:70536  .debug_str:0000000000000f0f .LASF2432
     /tmp/ccP2IRDu.s:76142  .debug_str:000000000000faac .LASF2433
     /tmp/ccP2IRDu.s:71048  .debug_str:00000000000023b9 .LASF2434
     /tmp/ccP2IRDu.s:75504  .debug_str:000000000000df4b .LASF2435
     /tmp/ccP2IRDu.s:75926  .debug_str:000000000000f18b .LASF2436
     /tmp/ccP2IRDu.s:73682  .debug_str:00000000000093ae .LASF2437
     /tmp/ccP2IRDu.s:72492  .debug_str:0000000000005f19 .LASF2438
     /tmp/ccP2IRDu.s:73636  .debug_str:000000000000914f .LASF2439
     /tmp/ccP2IRDu.s:75166  .debug_str:000000000000d081 .LASF2440
     /tmp/ccP2IRDu.s:75278  .debug_str:000000000000d578 .LASF2441
     /tmp/ccP2IRDu.s:76752  .debug_str:000000000001131d .LASF2442
     /tmp/ccP2IRDu.s:73052  .debug_str:00000000000077ef .LASF2443
     /tmp/ccP2IRDu.s:71778  .debug_str:00000000000043c1 .LASF2444
     /tmp/ccP2IRDu.s:72704  .debug_str:000000000000685e .LASF2445
     /tmp/ccP2IRDu.s:71860  .debug_str:00000000000047cb .LASF2446
     /tmp/ccP2IRDu.s:73108  .debug_str:0000000000007abe .LASF2447
     /tmp/ccP2IRDu.s:73640  .debug_str:0000000000009178 .LASF2448
     /tmp/ccP2IRDu.s:72832  .debug_str:0000000000006dc3 .LASF2449
     /tmp/ccP2IRDu.s:71402  .debug_str:00000000000033b3 .LASF2450
     /tmp/ccP2IRDu.s:75972  .debug_str:000000000000f35e .LASF2451
     /tmp/ccP2IRDu.s:76706  .debug_str:0000000000011150 .LASF2452
     /tmp/ccP2IRDu.s:77478  .debug_str:0000000000013243 .LASF2453
     /tmp/ccP2IRDu.s:77016  .debug_str:0000000000011e72 .LASF2454
     /tmp/ccP2IRDu.s:72452  .debug_str:0000000000005d19 .LASF2455
     /tmp/ccP2IRDu.s:75786  .debug_str:000000000000ebd3 .LASF2456
     /tmp/ccP2IRDu.s:75814  .debug_str:000000000000ecb1 .LASF2457
     /tmp/ccP2IRDu.s:73154  .debug_str:0000000000007cc2 .LASF2458
     /tmp/ccP2IRDu.s:73268  .debug_str:0000000000008188 .LASF2459
     /tmp/ccP2IRDu.s:76640  .debug_str:0000000000010e98 .LASF2460
     /tmp/ccP2IRDu.s:75066  .debug_str:000000000000cc3d .LASF2461
     /tmp/ccP2IRDu.s:75960  .debug_str:000000000000f2d4 .LASF2462
     /tmp/ccP2IRDu.s:72824  .debug_str:0000000000006d4b .LASF2463
     /tmp/ccP2IRDu.s:71548  .debug_str:0000000000003983 .LASF2464
     /tmp/ccP2IRDu.s:75344  .debug_str:000000000000d808 .LASF2465
     /tmp/ccP2IRDu.s:73734  .debug_str:0000000000009570 .LASF2466
     /tmp/ccP2IRDu.s:75604  .debug_str:000000000000e369 .LASF2467
     /tmp/ccP2IRDu.s:76348  .debug_str:0000000000010443 .LASF2468
     /tmp/ccP2IRDu.s:76252  .debug_str:000000000000ffc5 .LASF2469
     /tmp/ccP2IRDu.s:75572  .debug_str:000000000000e20c .LASF2470
     /tmp/ccP2IRDu.s:70538  .debug_str:0000000000000f19 .LASF2471
     /tmp/ccP2IRDu.s:75044  .debug_str:000000000000cb06 .LASF2472
     /tmp/ccP2IRDu.s:72730  .debug_str:00000000000069b2 .LASF2473
     /tmp/ccP2IRDu.s:70214  .debug_str:000000000000025f .LASF2474
     /tmp/ccP2IRDu.s:71082  .debug_str:0000000000002507 .LASF2475
     /tmp/ccP2IRDu.s:71418  .debug_str:000000000000348d .LASF2476
     /tmp/ccP2IRDu.s:75694  .debug_str:000000000000e783 .LASF2477
     /tmp/ccP2IRDu.s:71150  .debug_str:00000000000028c2 .LASF2478
     /tmp/ccP2IRDu.s:74994  .debug_str:000000000000c8c1 .LASF2479
     /tmp/ccP2IRDu.s:77444  .debug_str:000000000001308c .LASF2480
     /tmp/ccP2IRDu.s:72682  .debug_str:0000000000006739 .LASF2481
     /tmp/ccP2IRDu.s:71722  .debug_str:000000000000416b .LASF2482
     /tmp/ccP2IRDu.s:76976  .debug_str:0000000000011c7b .LASF2483
     /tmp/ccP2IRDu.s:72752  .debug_str:0000000000006aa9 .LASF2484
     /tmp/ccP2IRDu.s:72542  .debug_str:0000000000006186 .LASF2485
     /tmp/ccP2IRDu.s:73228  .debug_str:0000000000007fc3 .LASF2486
     /tmp/ccP2IRDu.s:70492  .debug_str:0000000000000d29 .LASF2487
     /tmp/ccP2IRDu.s:73270  .debug_str:0000000000008190 .LASF2488
     /tmp/ccP2IRDu.s:71776  .debug_str:00000000000043a6 .LASF2489
     /tmp/ccP2IRDu.s:70954  .debug_str:0000000000001fac .LASF2490
     /tmp/ccP2IRDu.s:73612  .debug_str:0000000000009075 .LASF2491
     /tmp/ccP2IRDu.s:75010  .debug_str:000000000000c95b .LASF2492
     /tmp/ccP2IRDu.s:71856  .debug_str:0000000000004782 .LASF2493
     /tmp/ccP2IRDu.s:76026  .debug_str:000000000000f600 .LASF2494
     /tmp/ccP2IRDu.s:75730  .debug_str:000000000000e964 .LASF2495
     /tmp/ccP2IRDu.s:70848  .debug_str:0000000000001b33 .LASF2496
     /tmp/ccP2IRDu.s:73376  .debug_str:000000000000867c .LASF2497
     /tmp/ccP2IRDu.s:74066  .debug_str:000000000000a20e .LASF2498
     /tmp/ccP2IRDu.s:76958  .debug_str:0000000000011b89 .LASF2499
     /tmp/ccP2IRDu.s:75958  .debug_str:000000000000f2c6 .LASF2500
     /tmp/ccP2IRDu.s:73808  .debug_str:0000000000009884 .LASF2501
     /tmp/ccP2IRDu.s:73630  .debug_str:0000000000009103 .LASF2502
     /tmp/ccP2IRDu.s:71308  .debug_str:0000000000002f73 .LASF2503
     /tmp/ccP2IRDu.s:73868  .debug_str:0000000000009b19 .LASF2504
     /tmp/ccP2IRDu.s:72760  .debug_str:0000000000006b0b .LASF2505
     /tmp/ccP2IRDu.s:74716  .debug_str:000000000000bb99 .LASF2506
     /tmp/ccP2IRDu.s:70806  .debug_str:0000000000001986 .LASF2507
     /tmp/ccP2IRDu.s:70978  .debug_str:00000000000020bf .LASF2508
     /tmp/ccP2IRDu.s:72190  .debug_str:0000000000005310 .LASF2509
     /tmp/ccP2IRDu.s:70498  .debug_str:0000000000000d99 .LASF2510
     /tmp/ccP2IRDu.s:73336  .debug_str:000000000000849d .LASF2511
     /tmp/ccP2IRDu.s:73392  .debug_str:000000000000870e .LASF2512
     /tmp/ccP2IRDu.s:74598  .debug_str:000000000000b5d7 .LASF2513
     /tmp/ccP2IRDu.s:72948  .debug_str:00000000000072c1 .LASF2514
     /tmp/ccP2IRDu.s:76874  .debug_str:0000000000011837 .LASF2515
     /tmp/ccP2IRDu.s:71838  .debug_str:0000000000004678 .LASF2516
     /tmp/ccP2IRDu.s:74832  .debug_str:000000000000c0eb .LASF2517
     /tmp/ccP2IRDu.s:76590  .debug_str:0000000000010cf4 .LASF2518
     /tmp/ccP2IRDu.s:76322  .debug_str:0000000000010337 .LASF2519
     /tmp/ccP2IRDu.s:76792  .debug_str:00000000000114b3 .LASF2520
     /tmp/ccP2IRDu.s:75534  .debug_str:000000000000e05a .LASF2521
     /tmp/ccP2IRDu.s:71366  .debug_str:00000000000031c9 .LASF2522
     /tmp/ccP2IRDu.s:71260  .debug_str:0000000000002d3e .LASF2523
     /tmp/ccP2IRDu.s:76292  .debug_str:00000000000101e2 .LASF2524
     /tmp/ccP2IRDu.s:71512  .debug_str:0000000000003804 .LASF2525
     /tmp/ccP2IRDu.s:72974  .debug_str:00000000000073e9 .LASF2526
     /tmp/ccP2IRDu.s:73146  .debug_str:0000000000007c7b .LASF2527
     /tmp/ccP2IRDu.s:76852  .debug_str:000000000001171d .LASF2528
     /tmp/ccP2IRDu.s:74446  .debug_str:000000000000af5d .LASF2529
     /tmp/ccP2IRDu.s:72458  .debug_str:0000000000005d5d .LASF2530
     /tmp/ccP2IRDu.s:71070  .debug_str:000000000000248a .LASF2531
     /tmp/ccP2IRDu.s:77342  .debug_str:0000000000012c9b .LASF2532
     /tmp/ccP2IRDu.s:70970  .debug_str:0000000000002076 .LASF2533
     /tmp/ccP2IRDu.s:75320  .debug_str:000000000000d71a .LASF2534
     /tmp/ccP2IRDu.s:76048  .debug_str:000000000000f6f3 .LASF2535
     /tmp/ccP2IRDu.s:70890  .debug_str:0000000000001d02 .LASF2536
     /tmp/ccP2IRDu.s:75254  .debug_str:000000000000d452 .LASF2537
     /tmp/ccP2IRDu.s:71828  .debug_str:000000000000462d .LASF2538
     /tmp/ccP2IRDu.s:77118  .debug_str:000000000001228d .LASF2539
     /tmp/ccP2IRDu.s:75802  .debug_str:000000000000ec5e .LASF2540
     /tmp/ccP2IRDu.s:73846  .debug_str:00000000000099eb .LASF2541
     /tmp/ccP2IRDu.s:76844  .debug_str:00000000000116d8 .LASF2542
     /tmp/ccP2IRDu.s:75526  .debug_str:000000000000e023 .LASF2543
     /tmp/ccP2IRDu.s:73844  .debug_str:00000000000099d0 .LASF2544
     /tmp/ccP2IRDu.s:76062  .debug_str:000000000000f7b6 .LASF2545
     /tmp/ccP2IRDu.s:71162  .debug_str:0000000000002943 .LASF2546
     /tmp/ccP2IRDu.s:70600  .debug_str:0000000000001172 .LASF2547
     /tmp/ccP2IRDu.s:70644  .debug_str:0000000000001322 .LASF2548
     /tmp/ccP2IRDu.s:74534  .debug_str:000000000000b342 .LASF2549
     /tmp/ccP2IRDu.s:72830  .debug_str:0000000000006d9d .LASF2550
     /tmp/ccP2IRDu.s:72168  .debug_str:0000000000005254 .LASF2551
     /tmp/ccP2IRDu.s:70594  .debug_str:0000000000001126 .LASF2552
     /tmp/ccP2IRDu.s:72316  .debug_str:0000000000005772 .LASF2553
     /tmp/ccP2IRDu.s:71538  .debug_str:0000000000003910 .LASF2554
     /tmp/ccP2IRDu.s:76256  .debug_str:0000000000010009 .LASF2555
     /tmp/ccP2IRDu.s:70286  .debug_str:0000000000000572 .LASF2556
     /tmp/ccP2IRDu.s:72320  .debug_str:00000000000057ac .LASF2557
     /tmp/ccP2IRDu.s:72108  .debug_str:0000000000005039 .LASF2558
     /tmp/ccP2IRDu.s:76326  .debug_str:0000000000010375 .LASF2559
     /tmp/ccP2IRDu.s:76808  .debug_str:0000000000011573 .LASF2560
     /tmp/ccP2IRDu.s:75380  .debug_str:000000000000d9e2 .LASF2561
     /tmp/ccP2IRDu.s:71604  .debug_str:0000000000003c2c .LASF2562
     /tmp/ccP2IRDu.s:75468  .debug_str:000000000000ddff .LASF2563
     /tmp/ccP2IRDu.s:73400  .debug_str:0000000000008773 .LASF2564
     /tmp/ccP2IRDu.s:76250  .debug_str:000000000000ffa0 .LASF2565
     /tmp/ccP2IRDu.s:70280  .debug_str:0000000000000543 .LASF2566
     /tmp/ccP2IRDu.s:74910  .debug_str:000000000000c4b6 .LASF2567
     /tmp/ccP2IRDu.s:73856  .debug_str:0000000000009a52 .LASF2568
     /tmp/ccP2IRDu.s:71088  .debug_str:000000000000256c .LASF2569
     /tmp/ccP2IRDu.s:73364  .debug_str:00000000000085ee .LASF2570
     /tmp/ccP2IRDu.s:70178  .debug_str:000000000000008c .LASF2571
     /tmp/ccP2IRDu.s:74300  .debug_str:000000000000aa72 .LASF2572
     /tmp/ccP2IRDu.s:75092  .debug_str:000000000000cd9d .LASF2573
     /tmp/ccP2IRDu.s:71302  .debug_str:0000000000002f1f .LASF2574
     /tmp/ccP2IRDu.s:77348  .debug_str:0000000000012cf4 .LASF2575
     /tmp/ccP2IRDu.s:76088  .debug_str:000000000000f8a6 .LASF2576
     /tmp/ccP2IRDu.s:76868  .debug_str:00000000000117eb .LASF2577
     /tmp/ccP2IRDu.s:74782  .debug_str:000000000000be7a .LASF2578
     /tmp/ccP2IRDu.s:75258  .debug_str:000000000000d481 .LASF2579
     /tmp/ccP2IRDu.s:70202  .debug_str:00000000000001ca .LASF2580
     /tmp/ccP2IRDu.s:77064  .debug_str:000000000001207e .LASF2581
     /tmp/ccP2IRDu.s:73532  .debug_str:0000000000008c9b .LASF2582
     /tmp/ccP2IRDu.s:75546  .debug_str:000000000000e0d7 .LASF2583
     /tmp/ccP2IRDu.s:76872  .debug_str:0000000000011820 .LASF2584
     /tmp/ccP2IRDu.s:71008  .debug_str:00000000000021ff .LASF2585
     /tmp/ccP2IRDu.s:71742  .debug_str:0000000000004226 .LASF2586
     /tmp/ccP2IRDu.s:70992  .debug_str:000000000000215e .LASF2587
     /tmp/ccP2IRDu.s:72778  .debug_str:0000000000006bc9 .LASF2588
     /tmp/ccP2IRDu.s:70256  .debug_str:000000000000042f .LASF2589
     /tmp/ccP2IRDu.s:77030  .debug_str:0000000000011f06 .LASF2590
     /tmp/ccP2IRDu.s:76994  .debug_str:0000000000011d4b .LASF2591
     /tmp/ccP2IRDu.s:72310  .debug_str:000000000000571b .LASF2592
     /tmp/ccP2IRDu.s:74136  .debug_str:000000000000a490 .LASF2593
     /tmp/ccP2IRDu.s:74264  .debug_str:000000000000a97e .LASF2594
     /tmp/ccP2IRDu.s:73340  .debug_str:00000000000084c7 .LASF2595
     /tmp/ccP2IRDu.s:75312  .debug_str:000000000000d6c3 .LASF2596
     /tmp/ccP2IRDu.s:72744  .debug_str:0000000000006a61 .LASF2597
     /tmp/ccP2IRDu.s:72540  .debug_str:0000000000006161 .LASF2598
     /tmp/ccP2IRDu.s:76458  .debug_str:00000000000107fd .LASF2599
     /tmp/ccP2IRDu.s:70770  .debug_str:00000000000017ce .LASF2600
     /tmp/ccP2IRDu.s:70506  .debug_str:0000000000000df8 .LASF2601
     /tmp/ccP2IRDu.s:70822  .debug_str:0000000000001a51 .LASF2602
     /tmp/ccP2IRDu.s:72584  .debug_str:000000000000631a .LASF2603
     /tmp/ccP2IRDu.s:77132  .debug_str:0000000000012300 .LASF2604
     /tmp/ccP2IRDu.s:70528  .debug_str:0000000000000ead .LASF2605
     /tmp/ccP2IRDu.s:75568  .debug_str:000000000000e1f0 .LASF2606
     /tmp/ccP2IRDu.s:75054  .debug_str:000000000000cb99 .LASF2607
     /tmp/ccP2IRDu.s:76950  .debug_str:0000000000011b39 .LASF2608
     /tmp/ccP2IRDu.s:72644  .debug_str:0000000000006587 .LASF2609
     /tmp/ccP2IRDu.s:72490  .debug_str:0000000000005ef0 .LASF2610
     /tmp/ccP2IRDu.s:75170  .debug_str:000000000000d099 .LASF2611
     /tmp/ccP2IRDu.s:73006  .debug_str:00000000000075cc .LASF2612
     /tmp/ccP2IRDu.s:75240  .debug_str:000000000000d3a4 .LASF2613
     /tmp/ccP2IRDu.s:77538  .debug_str:00000000000134b5 .LASF2614
     /tmp/ccP2IRDu.s:74014  .debug_str:000000000000a059 .LASF2615
     /tmp/ccP2IRDu.s:70186  .debug_str:0000000000000100 .LASF2616
     /tmp/ccP2IRDu.s:74008  .debug_str:000000000000a036 .LASF2617
     /tmp/ccP2IRDu.s:75624  .debug_str:000000000000e442 .LASF2618
     /tmp/ccP2IRDu.s:70934  .debug_str:0000000000001e9a .LASF2619
     /tmp/ccP2IRDu.s:75118  .debug_str:000000000000ce58 .LASF2620
     /tmp/ccP2IRDu.s:75616  .debug_str:000000000000e3ba .LASF2621
     /tmp/ccP2IRDu.s:75770  .debug_str:000000000000eb2f .LASF2622
     /tmp/ccP2IRDu.s:75228  .debug_str:000000000000d311 .LASF2623
     /tmp/ccP2IRDu.s:70958  .debug_str:0000000000001fe4 .LASF2624
     /tmp/ccP2IRDu.s:75070  .debug_str:000000000000cc5b .LASF2625
     /tmp/ccP2IRDu.s:74952  .debug_str:000000000000c6b2 .LASF2626
     /tmp/ccP2IRDu.s:71702  .debug_str:00000000000040d5 .LASF2627
     /tmp/ccP2IRDu.s:71844  .debug_str:00000000000046b8 .LASF2628
     /tmp/ccP2IRDu.s:71084  .debug_str:000000000000252b .LASF2629
     /tmp/ccP2IRDu.s:72056  .debug_str:0000000000004e48 .LASF2630
     /tmp/ccP2IRDu.s:72340  .debug_str:00000000000058a4 .LASF2631
     /tmp/ccP2IRDu.s:74518  .debug_str:000000000000b2a8 .LASF2632
     /tmp/ccP2IRDu.s:73066  .debug_str:000000000000787d .LASF2633
     /tmp/ccP2IRDu.s:74382  .debug_str:000000000000ad33 .LASF2634
     /tmp/ccP2IRDu.s:75034  .debug_str:000000000000ca73 .LASF2635
     /tmp/ccP2IRDu.s:74526  .debug_str:000000000000b30b .LASF2636
     /tmp/ccP2IRDu.s:71104  .debug_str:000000000000261d .LASF2637
     /tmp/ccP2IRDu.s:71050  .debug_str:00000000000023c1 .LASF2638
     /tmp/ccP2IRDu.s:77034  .debug_str:0000000000011f59 .LASF2639
     /tmp/ccP2IRDu.s:71032  .debug_str:0000000000002308 .LASF2640
     /tmp/ccP2IRDu.s:70636  .debug_str:00000000000012ba .LASF2641
     /tmp/ccP2IRDu.s:75562  .debug_str:000000000000e1b0 .LASF2642
     /tmp/ccP2IRDu.s:77210  .debug_str:0000000000012651 .LASF2643
     /tmp/ccP2IRDu.s:75014  .debug_str:000000000000c97d .LASF2644
     /tmp/ccP2IRDu.s:73538  .debug_str:0000000000008cd7 .LASF2645
     /tmp/ccP2IRDu.s:74210  .debug_str:000000000000a739 .LASF2646
     /tmp/ccP2IRDu.s:76818  .debug_str:00000000000115fa .LASF2647
     /tmp/ccP2IRDu.s:71688  .debug_str:0000000000004041 .LASF2648
     /tmp/ccP2IRDu.s:71806  .debug_str:000000000000452e .LASF2649
     /tmp/ccP2IRDu.s:74884  .debug_str:000000000000c385 .LASF2650
     /tmp/ccP2IRDu.s:77482  .debug_str:0000000000013272 .LASF2651
     /tmp/ccP2IRDu.s:75346  .debug_str:000000000000d818 .LASF2652
     /tmp/ccP2IRDu.s:71214  .debug_str:0000000000002b58 .LASF2653
     /tmp/ccP2IRDu.s:72904  .debug_str:00000000000070f3 .LASF2654
     /tmp/ccP2IRDu.s:72300  .debug_str:0000000000005689 .LASF2655
     /tmp/ccP2IRDu.s:73200  .debug_str:0000000000007eba .LASF2656
     /tmp/ccP2IRDu.s:70774  .debug_str:0000000000001806 .LASF2657
     /tmp/ccP2IRDu.s:72594  .debug_str:000000000000635d .LASF2658
     /tmp/ccP2IRDu.s:73526  .debug_str:0000000000008c59 .LASF2659
     /tmp/ccP2IRDu.s:76272  .debug_str:00000000000100ed .LASF2660
     /tmp/ccP2IRDu.s:75000  .debug_str:000000000000c8e5 .LASF2661
     /tmp/ccP2IRDu.s:73086  .debug_str:00000000000079f3 .LASF2662
     /tmp/ccP2IRDu.s:72570  .debug_str:0000000000006296 .LASF2663
     /tmp/ccP2IRDu.s:73676  .debug_str:000000000000934c .LASF2664
     /tmp/ccP2IRDu.s:73428  .debug_str:0000000000008871 .LASF2665
     /tmp/ccP2IRDu.s:71594  .debug_str:0000000000003bbc .LASF2666
     /tmp/ccP2IRDu.s:77494  .debug_str:00000000000132df .LASF2667
     /tmp/ccP2IRDu.s:76240  .debug_str:000000000000ff16 .LASF2668
     /tmp/ccP2IRDu.s:76922  .debug_str:0000000000011a0a .LASF2669
     /tmp/ccP2IRDu.s:73666  .debug_str:000000000000928d .LASF2670
     /tmp/ccP2IRDu.s:77056  .debug_str:000000000001202b .LASF2671
     /tmp/ccP2IRDu.s:76046  .debug_str:000000000000f6d4 .LASF2672
     /tmp/ccP2IRDu.s:75136  .debug_str:000000000000cef2 .LASF2673
     /tmp/ccP2IRDu.s:72166  .debug_str:000000000000523d .LASF2674
     /tmp/ccP2IRDu.s:73036  .debug_str:000000000000773b .LASF2675
     /tmp/ccP2IRDu.s:71170  .debug_str:0000000000002975 .LASF2676
     /tmp/ccP2IRDu.s:76210  .debug_str:000000000000fdaa .LASF2677
     /tmp/ccP2IRDu.s:74796  .debug_str:000000000000bf17 .LASF2678
     /tmp/ccP2IRDu.s:75350  .debug_str:000000000000d843 .LASF2679
     /tmp/ccP2IRDu.s:76714  .debug_str:00000000000111a3 .LASF2680
     /tmp/ccP2IRDu.s:74334  .debug_str:000000000000abeb .LASF2681
     /tmp/ccP2IRDu.s:77286  .debug_str:00000000000129f8 .LASF2682
     /tmp/ccP2IRDu.s:71092  .debug_str:00000000000025a4 .LASF2683
     /tmp/ccP2IRDu.s:73382  .debug_str:00000000000086a6 .LASF2684
     /tmp/ccP2IRDu.s:70258  .debug_str:000000000000044e .LASF2685
     /tmp/ccP2IRDu.s:76766  .debug_str:00000000000113c1 .LASF2686
     /tmp/ccP2IRDu.s:70446  .debug_str:0000000000000bd5 .LASF2687
     /tmp/ccP2IRDu.s:75282  .debug_str:000000000000d588 .LASF2688
     /tmp/ccP2IRDu.s:77460  .debug_str:0000000000013140 .LASF2689
     /tmp/ccP2IRDu.s:74378  .debug_str:000000000000ad15 .LASF2690
     /tmp/ccP2IRDu.s:71622  .debug_str:0000000000003ce8 .LASF2691
     /tmp/ccP2IRDu.s:73718  .debug_str:00000000000094ec .LASF2692
     /tmp/ccP2IRDu.s:77120  .debug_str:0000000000012294 .LASF2693
     /tmp/ccP2IRDu.s:75722  .debug_str:000000000000e8dc .LASF2694
     /tmp/ccP2IRDu.s:70454  .debug_str:0000000000000c21 .LASF2695
     /tmp/ccP2IRDu.s:71912  .debug_str:0000000000004958 .LASF2696
     /tmp/ccP2IRDu.s:71556  .debug_str:00000000000039da .LASF2697
     /tmp/ccP2IRDu.s:70814  .debug_str:00000000000019f9 .LASF2698
     /tmp/ccP2IRDu.s:71660  .debug_str:0000000000003eb4 .LASF2699
     /tmp/ccP2IRDu.s:77404  .debug_str:0000000000012f25 .LASF2700
     /tmp/ccP2IRDu.s:70490  .debug_str:0000000000000d17 .LASF2701
     /tmp/ccP2IRDu.s:70584  .debug_str:000000000000109f .LASF2702
     /tmp/ccP2IRDu.s:74220  .debug_str:000000000000a7b1 .LASF2703
     /tmp/ccP2IRDu.s:74442  .debug_str:000000000000af30 .LASF2704
     /tmp/ccP2IRDu.s:73370  .debug_str:000000000000862c .LASF2705
     /tmp/ccP2IRDu.s:76718  .debug_str:00000000000111db .LASF2706
     /tmp/ccP2IRDu.s:74770  .debug_str:000000000000bdca .LASF2707
     /tmp/ccP2IRDu.s:73450  .debug_str:00000000000089c0 .LASF2708
     /tmp/ccP2IRDu.s:71016  .debug_str:0000000000002271 .LASF2709
     /tmp/ccP2IRDu.s:71254  .debug_str:0000000000002cf9 .LASF2710
     /tmp/ccP2IRDu.s:72680  .debug_str:000000000000672f .LASF2711
     /tmp/ccP2IRDu.s:71738  .debug_str:00000000000041f7 .LASF2712
     /tmp/ccP2IRDu.s:71266  .debug_str:0000000000002da8 .LASF2713
     /tmp/ccP2IRDu.s:72688  .debug_str:000000000000678b .LASF2714
     /tmp/ccP2IRDu.s:72502  .debug_str:0000000000005f72 .LASF2715
     /tmp/ccP2IRDu.s:73194  .debug_str:0000000000007e85 .LASF2716
     /tmp/ccP2IRDu.s:76456  .debug_str:00000000000107f0 .LASF2717
     /tmp/ccP2IRDu.s:71792  .debug_str:0000000000004481 .LASF2718
     /tmp/ccP2IRDu.s:75306  .debug_str:000000000000d691 .LASF2719
     /tmp/ccP2IRDu.s:77334  .debug_str:0000000000012c48 .LASF2720
     /tmp/ccP2IRDu.s:72740  .debug_str:0000000000006a24 .LASF2721
     /tmp/ccP2IRDu.s:76744  .debug_str:00000000000112ae .LASF2722
     /tmp/ccP2IRDu.s:72442  .debug_str:0000000000005c96 .LASF2723
     /tmp/ccP2IRDu.s:71400  .debug_str:0000000000003385 .LASF2724
     /tmp/ccP2IRDu.s:71044  .debug_str:0000000000002390 .LASF2725
     /tmp/ccP2IRDu.s:76674  .debug_str:000000000001102b .LASF2726
     /tmp/ccP2IRDu.s:74126  .debug_str:000000000000a407 .LASF2727
     /tmp/ccP2IRDu.s:77442  .debug_str:0000000000013070 .LASF2728
     /tmp/ccP2IRDu.s:74660  .debug_str:000000000000b8a4 .LASF2729
     /tmp/ccP2IRDu.s:70416  .debug_str:0000000000000a84 .LASF2730
     /tmp/ccP2IRDu.s:75952  .debug_str:000000000000f276 .LASF2731
     /tmp/ccP2IRDu.s:76188  .debug_str:000000000000fcd0 .LASF2732
     /tmp/ccP2IRDu.s:77008  .debug_str:0000000000011dfa .LASF2733
     /tmp/ccP2IRDu.s:76878  .debug_str:000000000001186a .LASF2734
     /tmp/ccP2IRDu.s:77328  .debug_str:0000000000012bfa .LASF2735
     /tmp/ccP2IRDu.s:76530  .debug_str:0000000000010aa3 .LASF2736
     /tmp/ccP2IRDu.s:72556  .debug_str:0000000000006213 .LASF2737
     /tmp/ccP2IRDu.s:70222  .debug_str:00000000000002dc .LASF2738
     /tmp/ccP2IRDu.s:73310  .debug_str:0000000000008365 .LASF2739
     /tmp/ccP2IRDu.s:72986  .debug_str:00000000000074d5 .LASF2740
     /tmp/ccP2IRDu.s:71224  .debug_str:0000000000002bd0 .LASF2741
     /tmp/ccP2IRDu.s:73234  .debug_str:000000000000801e .LASF2742
     /tmp/ccP2IRDu.s:74624  .debug_str:000000000000b72e .LASF2743
     /tmp/ccP2IRDu.s:77274  .debug_str:0000000000012984 .LASF2744
     /tmp/ccP2IRDu.s:71186  .debug_str:0000000000002a2b .LASF2745
     /tmp/ccP2IRDu.s:76720  .debug_str:0000000000011206 .LASF2746
     /tmp/ccP2IRDu.s:76032  .debug_str:000000000000f63a .LASF2747
     /tmp/ccP2IRDu.s:72384  .debug_str:0000000000005a38 .LASF2748
     /tmp/ccP2IRDu.s:72386  .debug_str:0000000000005a59 .LASF2749
     /tmp/ccP2IRDu.s:72330  .debug_str:000000000000580b .LASF2750
     /tmp/ccP2IRDu.s:76208  .debug_str:000000000000fd85 .LASF2751
     /tmp/ccP2IRDu.s:70844  .debug_str:0000000000001b1b .LASF2752
     /tmp/ccP2IRDu.s:76316  .debug_str:0000000000010304 .LASF2753
     /tmp/ccP2IRDu.s:77258  .debug_str:000000000001289c .LASF2754
     /tmp/ccP2IRDu.s:77394  .debug_str:0000000000012eb8 .LASF2755
     /tmp/ccP2IRDu.s:72840  .debug_str:0000000000006dfd .LASF2756
     /tmp/ccP2IRDu.s:76732  .debug_str:000000000001124a .LASF2757
     /tmp/ccP2IRDu.s:76740  .debug_str:0000000000011291 .LASF2758
     /tmp/ccP2IRDu.s:76630  .debug_str:0000000000010e29 .LASF2759
     /tmp/ccP2IRDu.s:77480  .debug_str:000000000001324e .LASF2760
     /tmp/ccP2IRDu.s:72230  .debug_str:000000000000544b .LASF2761
     /tmp/ccP2IRDu.s:72232  .debug_str:000000000000545b .LASF2762
     /tmp/ccP2IRDu.s:75362  .debug_str:000000000000d8dc .LASF2763
     /tmp/ccP2IRDu.s:70564  .debug_str:0000000000000faf .LASF2764
     /tmp/ccP2IRDu.s:72954  .debug_str:000000000000731e .LASF2765
     /tmp/ccP2IRDu.s:75708  .debug_str:000000000000e800 .LASF2766
     /tmp/ccP2IRDu.s:75456  .debug_str:000000000000dd81 .LASF2767
     /tmp/ccP2IRDu.s:71768  .debug_str:000000000000434c .LASF2768
     /tmp/ccP2IRDu.s:73116  .debug_str:0000000000007b03 .LASF2769
     /tmp/ccP2IRDu.s:72450  .debug_str:0000000000005d0c .LASF2770
     /tmp/ccP2IRDu.s:74454  .debug_str:000000000000afc2 .LASF2771
     /tmp/ccP2IRDu.s:74570  .debug_str:000000000000b48b .LASF2772
     /tmp/ccP2IRDu.s:74562  .debug_str:000000000000b456 .LASF2773
     /tmp/ccP2IRDu.s:75436  .debug_str:000000000000dc89 .LASF2774
     /tmp/ccP2IRDu.s:76090  .debug_str:000000000000f8b7 .LASF2775
     /tmp/ccP2IRDu.s:74766  .debug_str:000000000000bdaa .LASF2776
     /tmp/ccP2IRDu.s:75386  .debug_str:000000000000da12 .LASF2777
     /tmp/ccP2IRDu.s:73776  .debug_str:0000000000009724 .LASF2778
     /tmp/ccP2IRDu.s:74768  .debug_str:000000000000bdba .LASF2779
     /tmp/ccP2IRDu.s:75388  .debug_str:000000000000da22 .LASF2780
     /tmp/ccP2IRDu.s:74722  .debug_str:000000000000bbde .LASF2781
     /tmp/ccP2IRDu.s:75772  .debug_str:000000000000eb54 .LASF2782
     /tmp/ccP2IRDu.s:75686  .debug_str:000000000000e734 .LASF2783
     /tmp/ccP2IRDu.s:75758  .debug_str:000000000000ea89 .LASF2784
     /tmp/ccP2IRDu.s:75774  .debug_str:000000000000eb64 .LASF2785
     /tmp/ccP2IRDu.s:76470  .debug_str:0000000000010877 .LASF2786
     /tmp/ccP2IRDu.s:71304  .debug_str:0000000000002f3f .LASF2787
     /tmp/ccP2IRDu.s:75776  .debug_str:000000000000eb74 .LASF2788
     /tmp/ccP2IRDu.s:76472  .debug_str:0000000000010887 .LASF2789
     /tmp/ccP2IRDu.s:74492  .debug_str:000000000000b146 .LASF2790
     /tmp/ccP2IRDu.s:75778  .debug_str:000000000000eb84 .LASF2791
     /tmp/ccP2IRDu.s:76474  .debug_str:0000000000010897 .LASF2792
     /tmp/ccP2IRDu.s:77378  .debug_str:0000000000012e1c .LASF2793
     /tmp/ccP2IRDu.s:75780  .debug_str:000000000000eb94 .LASF2794
     /tmp/ccP2IRDu.s:76476  .debug_str:00000000000108a7 .LASF2795
     /tmp/ccP2IRDu.s:73022  .debug_str:00000000000076a6 .LASF2796
     /tmp/ccP2IRDu.s:75120  .debug_str:000000000000ce69 .LASF2797
     /tmp/ccP2IRDu.s:70650  .debug_str:000000000000137f .LASF2798
     /tmp/ccP2IRDu.s:74154  .debug_str:000000000000a56f .LASF2799
     /tmp/ccP2IRDu.s:77256  .debug_str:000000000001288c .LASF2800
     /tmp/ccP2IRDu.s:74398  .debug_str:000000000000ae01 .LASF2801
     /tmp/ccP2IRDu.s:70216  .debug_str:000000000000026f .LASF2802
     /tmp/ccP2IRDu.s:76162  .debug_str:000000000000fbb2 .LASF2803
     /tmp/ccP2IRDu.s:70704  .debug_str:0000000000001514 .LASF2804
     /tmp/ccP2IRDu.s:75064  .debug_str:000000000000cc13 .LASF2805
     /tmp/ccP2IRDu.s:76166  .debug_str:000000000000fbd7 .LASF2806
     /tmp/ccP2IRDu.s:71280  .debug_str:0000000000002e33 .LASF2807
     /tmp/ccP2IRDu.s:70646  .debug_str:0000000000001334 .LASF2808
     /tmp/ccP2IRDu.s:76170  .debug_str:000000000000fc00 .LASF2809
     /tmp/ccP2IRDu.s:70708  .debug_str:000000000000153d .LASF2810
     /tmp/ccP2IRDu.s:73680  .debug_str:0000000000009384 .LASF2811
     /tmp/ccP2IRDu.s:72512  .debug_str:0000000000005ff0 .LASF2812
     /tmp/ccP2IRDu.s:70710  .debug_str:0000000000001553 .LASF2813
     /tmp/ccP2IRDu.s:76716  .debug_str:00000000000111b1 .LASF2814
     /tmp/ccP2IRDu.s:72514  .debug_str:0000000000006006 .LASF2815
     /tmp/ccP2IRDu.s:70712  .debug_str:0000000000001569 .LASF2816
     /tmp/ccP2IRDu.s:72372  .debug_str:00000000000059a3 .LASF2817
     /tmp/ccP2IRDu.s:72516  .debug_str:000000000000601c .LASF2818
     /tmp/ccP2IRDu.s:70714  .debug_str:000000000000157f .LASF2819
     /tmp/ccP2IRDu.s:72078  .debug_str:0000000000004ebc .LASF2820
     /tmp/ccP2IRDu.s:72518  .debug_str:0000000000006032 .LASF2821
     /tmp/ccP2IRDu.s:70716  .debug_str:0000000000001595 .LASF2822
     /tmp/ccP2IRDu.s:76944  .debug_str:0000000000011aef .LASF2823
     /tmp/ccP2IRDu.s:72520  .debug_str:0000000000006048 .LASF2824
     /tmp/ccP2IRDu.s:70718  .debug_str:00000000000015ab .LASF2825
     /tmp/ccP2IRDu.s:74476  .debug_str:000000000000b07d .LASF2826
     /tmp/ccP2IRDu.s:74270  .debug_str:000000000000a9c0 .LASF2827
     /tmp/ccP2IRDu.s:75502  .debug_str:000000000000df3c .LASF2828
     /tmp/ccP2IRDu.s:70308  .debug_str:0000000000000663 .LASF2829
     /tmp/ccP2IRDu.s:71290  .debug_str:0000000000002ecb .LASF2830
     /tmp/ccP2IRDu.s:73452  .debug_str:00000000000089e5 .LASF2831
     /tmp/ccP2IRDu.s:70272  .debug_str:00000000000004f0 .LASF2832
     /tmp/ccP2IRDu.s:75536  .debug_str:000000000000e070 .LASF2833
     /tmp/ccP2IRDu.s:71590  .debug_str:0000000000003b7d .LASF2834
     /tmp/ccP2IRDu.s:71284  .debug_str:0000000000002e66 .LASF2835
     /tmp/ccP2IRDu.s:75656  .debug_str:000000000000e5c4 .LASF2836
     /tmp/ccP2IRDu.s:75342  .debug_str:000000000000d7f1 .LASF2837
     /tmp/ccP2IRDu.s:71210  .debug_str:0000000000002b0f .LASF2838
     /tmp/ccP2IRDu.s:71700  .debug_str:00000000000040c5 .LASF2839
     /tmp/ccP2IRDu.s:72308  .debug_str:000000000000570b .LASF2840
     /tmp/ccP2IRDu.s:72972  .debug_str:00000000000073c5 .LASF2841
     /tmp/ccP2IRDu.s:75432  .debug_str:000000000000dc69 .LASF2842
     /tmp/ccP2IRDu.s:74152  .debug_str:000000000000a555 .LASF2843
     /tmp/ccP2IRDu.s:73448  .debug_str:0000000000008992 .LASF2844
     /tmp/ccP2IRDu.s:71034  .debug_str:000000000000232e .LASF2845
     /tmp/ccP2IRDu.s:73510  .debug_str:0000000000008bd1 .LASF2846
     /tmp/ccP2IRDu.s:76200  .debug_str:000000000000fd3c .LASF2847
     /tmp/ccP2IRDu.s:76024  .debug_str:000000000000f5ed .LASF2848
     /tmp/ccP2IRDu.s:72162  .debug_str:0000000000005204 .LASF2849
     /tmp/ccP2IRDu.s:76022  .debug_str:000000000000f5c6 .LASF2850
     /tmp/ccP2IRDu.s:76760  .debug_str:0000000000011389 .LASF2851
     /tmp/ccP2IRDu.s:73156  .debug_str:0000000000007cca .LASF2852
     /tmp/ccP2IRDu.s:73994  .debug_str:0000000000009f68 .LASF2853
     /tmp/ccP2IRDu.s:72606  .debug_str:0000000000006410 .LASF2854
     /tmp/ccP2IRDu.s:74610  .debug_str:000000000000b63d .LASF2855
     /tmp/ccP2IRDu.s:76534  .debug_str:0000000000010af9 .LASF2856
     /tmp/ccP2IRDu.s:75650  .debug_str:000000000000e57e .LASF2857
     /tmp/ccP2IRDu.s:75734  .debug_str:000000000000e979 .LASF2858
     /tmp/ccP2IRDu.s:77410  .debug_str:0000000000012f80 .LASF2859
     /tmp/ccP2IRDu.s:76448  .debug_str:0000000000010798 .LASF2860
     /tmp/ccP2IRDu.s:73278  .debug_str:00000000000081e7 .LASF2861
     /tmp/ccP2IRDu.s:73508  .debug_str:0000000000008bae .LASF2862
     /tmp/ccP2IRDu.s:75364  .debug_str:000000000000d900 .LASF2863
     /tmp/ccP2IRDu.s:75264  .debug_str:000000000000d4ed .LASF2864
     /tmp/ccP2IRDu.s:77110  .debug_str:000000000001221a .LASF2865
     /tmp/ccP2IRDu.s:74868  .debug_str:000000000000c2d8 .LASF2866
     /tmp/ccP2IRDu.s:70230  .debug_str:0000000000000320 .LASF2867
     /tmp/ccP2IRDu.s:73558  .debug_str:0000000000008d82 .LASF2868
     /tmp/ccP2IRDu.s:74440  .debug_str:000000000000af18 .LASF2869
     /tmp/ccP2IRDu.s:74742  .debug_str:000000000000bcd4 .LASF2870
     /tmp/ccP2IRDu.s:74622  .debug_str:000000000000b702 .LASF2871
     /tmp/ccP2IRDu.s:70654  .debug_str:000000000000139e .LASF2872
     /tmp/ccP2IRDu.s:76310  .debug_str:00000000000102d1 .LASF2873
     /tmp/ccP2IRDu.s:71672  .debug_str:0000000000003f7a .LASF2874
     /tmp/ccP2IRDu.s:73592  .debug_str:0000000000008f5c .LASF2875
     /tmp/ccP2IRDu.s:73628  .debug_str:00000000000090ec .LASF2876
     /tmp/ccP2IRDu.s:76964  .debug_str:0000000000011bdd .LASF2877
     /tmp/ccP2IRDu.s:74758  .debug_str:000000000000bd67 .LASF2878
     /tmp/ccP2IRDu.s:75920  .debug_str:000000000000f132 .LASF2879
     /tmp/ccP2IRDu.s:70940  .debug_str:0000000000001ef4 .LASF2880
     /tmp/ccP2IRDu.s:72554  .debug_str:00000000000061fa .LASF2881
     /tmp/ccP2IRDu.s:72194  .debug_str:0000000000005328 .LASF2882
     /tmp/ccP2IRDu.s:74508  .debug_str:000000000000b1fe .LASF2883
     /tmp/ccP2IRDu.s:73632  .debug_str:0000000000009125 .LASF2884
     /tmp/ccP2IRDu.s:72196  .debug_str:0000000000005341 .LASF2885
     /tmp/ccP2IRDu.s:77398  .debug_str:0000000000012ed9 .LASF2886
     /tmp/ccP2IRDu.s:72558  .debug_str:0000000000006225 .LASF2887
     /tmp/ccP2IRDu.s:72198  .debug_str:000000000000535a .LASF2888
     /tmp/ccP2IRDu.s:73050  .debug_str:00000000000077c2 .LASF2889
     /tmp/ccP2IRDu.s:72560  .debug_str:000000000000623e .LASF2890
     /tmp/ccP2IRDu.s:72200  .debug_str:0000000000005373 .LASF2891
     /tmp/ccP2IRDu.s:76054  .debug_str:000000000000f751 .LASF2892
     /tmp/ccP2IRDu.s:76840  .debug_str:00000000000116bd .LASF2893
     /tmp/ccP2IRDu.s:70326  .debug_str:000000000000075b .LASF2894
     /tmp/ccP2IRDu.s:74302  .debug_str:000000000000aa7e .LASF2895
     /tmp/ccP2IRDu.s:71204  .debug_str:0000000000002ade .LASF2896
     /tmp/ccP2IRDu.s:72110  .debug_str:0000000000005049 .LASF2897
     /tmp/ccP2IRDu.s:76244  .debug_str:000000000000ff42 .LASF2898
     /tmp/ccP2IRDu.s:72346  .debug_str:00000000000058f9 .LASF2899
     /tmp/ccP2IRDu.s:71192  .debug_str:0000000000002a74 .LASF2900
     /tmp/ccP2IRDu.s:75376  .debug_str:000000000000d9a0 .LASF2901
     /tmp/ccP2IRDu.s:71836  .debug_str:0000000000004665 .LASF2902
     /tmp/ccP2IRDu.s:75226  .debug_str:000000000000d2fe .LASF2903
     /tmp/ccP2IRDu.s:70184  .debug_str:00000000000000d9 .LASF2904
     /tmp/ccP2IRDu.s:75114  .debug_str:000000000000ce40 .LASF2905
     /tmp/ccP2IRDu.s:75768  .debug_str:000000000000eb21 .LASF2906
     /tmp/ccP2IRDu.s:71252  .debug_str:0000000000002cd7 .LASF2907
     /tmp/ccP2IRDu.s:71612  .debug_str:0000000000003c8d .LASF2908
     /tmp/ccP2IRDu.s:70486  .debug_str:0000000000000cdf .LASF2909
     /tmp/ccP2IRDu.s:76136  .debug_str:000000000000fa70 .LASF2910
     /tmp/ccP2IRDu.s:73196  .debug_str:0000000000007e92 .LASF2911
     /tmp/ccP2IRDu.s:76460  .debug_str:0000000000010808 .LASF2912
     /tmp/ccP2IRDu.s:77196  .debug_str:00000000000125a3 .LASF2913
     /tmp/ccP2IRDu.s:70634  .debug_str:00000000000012a6 .LASF2914
     /tmp/ccP2IRDu.s:74188  .debug_str:000000000000a65d .LASF2915
     /tmp/ccP2IRDu.s:71074  .debug_str:00000000000024b3 .LASF2916
     /tmp/ccP2IRDu.s:71638  .debug_str:0000000000003d92 .LASF2917
     /tmp/ccP2IRDu.s:75492  .debug_str:000000000000ded7 .LASF2918
     /tmp/ccP2IRDu.s:73230  .debug_str:0000000000007fde .LASF2919
     /tmp/ccP2IRDu.s:72324  .debug_str:00000000000057cd .LASF2920
     /tmp/ccP2IRDu.s:71614  .debug_str:0000000000003c99 .LASF2921
     /tmp/ccP2IRDu.s:76756  .debug_str:000000000001133e .LASF2922
     /tmp/ccP2IRDu.s:74412  .debug_str:000000000000ae97 .LASF2923
     /tmp/ccP2IRDu.s:75644  .debug_str:000000000000e539 .LASF2924
     /tmp/ccP2IRDu.s:75712  .debug_str:000000000000e831 .LASF2925
     /tmp/ccP2IRDu.s:72476  .debug_str:0000000000005e4a .LASF2926
     /tmp/ccP2IRDu.s:72608  .debug_str:000000000000641b .LASF2927
     /tmp/ccP2IRDu.s:76080  .debug_str:000000000000f873 .LASF2928
     /tmp/ccP2IRDu.s:71978  .debug_str:0000000000004bae .LASF2929
     /tmp/ccP2IRDu.s:75944  .debug_str:000000000000f221 .LASF2930
     /tmp/ccP2IRDu.s:73410  .debug_str:00000000000087ca .LASF2931
     /tmp/ccP2IRDu.s:71980  .debug_str:0000000000004bc1 .LASF2932
     /tmp/ccP2IRDu.s:75946  .debug_str:000000000000f234 .LASF2933
     /tmp/ccP2IRDu.s:76416  .debug_str:000000000001068e .LASF2934
     /tmp/ccP2IRDu.s:73102  .debug_str:0000000000007a72 .LASF2935
     /tmp/ccP2IRDu.s:76222  .debug_str:000000000000fe30 .LASF2936
     /tmp/ccP2IRDu.s:75950  .debug_str:000000000000f24e .LASF2937
     /tmp/ccP2IRDu.s:74578  .debug_str:000000000000b4f1 .LASF2938
     /tmp/ccP2IRDu.s:76226  .debug_str:000000000000fe6f .LASF2939
     /tmp/ccP2IRDu.s:71470  .debug_str:000000000000365d .LASF2940
     /tmp/ccP2IRDu.s:74580  .debug_str:000000000000b505 .LASF2941
     /tmp/ccP2IRDu.s:75834  .debug_str:000000000000edbb .LASF2942
     /tmp/ccP2IRDu.s:74656  .debug_str:000000000000b875 .LASF2943
     /tmp/ccP2IRDu.s:71486  .debug_str:0000000000003715 .LASF2944
     /tmp/ccP2IRDu.s:76662  .debug_str:0000000000010fcb .LASF2945
     /tmp/ccP2IRDu.s:77542  .debug_str:00000000000134d3 .LASF2946
     /tmp/ccP2IRDu.s:76034  .debug_str:000000000000f647 .LASF2947
     /tmp/ccP2IRDu.s:76664  .debug_str:0000000000010fdf .LASF2948
     /tmp/ccP2IRDu.s:73208  .debug_str:0000000000007f00 .LASF2949
     /tmp/ccP2IRDu.s:77552  .debug_str:000000000001352a .LASF2950
     /tmp/ccP2IRDu.s:76784  .debug_str:0000000000011486 .LASF2951
     /tmp/ccP2IRDu.s:76302  .debug_str:000000000001026d .LASF2952
     /tmp/ccP2IRDu.s:70984  .debug_str:000000000000210b .LASF2953
     /tmp/ccP2IRDu.s:71350  .debug_str:0000000000003161 .LASF2954
     /tmp/ccP2IRDu.s:71824  .debug_str:00000000000045f9 .LASF2955
     /tmp/ccP2IRDu.s:74604  .debug_str:000000000000b607 .LASF2956
     /tmp/ccP2IRDu.s:71352  .debug_str:0000000000003173 .LASF2957
     /tmp/ccP2IRDu.s:72332  .debug_str:000000000000581c .LASF2958
     /tmp/ccP2IRDu.s:71810  .debug_str:0000000000004575 .LASF2959
     /tmp/ccP2IRDu.s:72304  .debug_str:00000000000056e7 .LASF2960
     /tmp/ccP2IRDu.s:72916  .debug_str:000000000000717b .LASF2961
     /tmp/ccP2IRDu.s:71812  .debug_str:0000000000004587 .LASF2962
     /tmp/ccP2IRDu.s:72306  .debug_str:00000000000056f9 .LASF2963
     /tmp/ccP2IRDu.s:70268  .debug_str:00000000000004c1 .LASF2964
     /tmp/ccP2IRDu.s:71814  .debug_str:0000000000004599 .LASF2965
     /tmp/ccP2IRDu.s:74002  .debug_str:000000000000a00e .LASF2966
     /tmp/ccP2IRDu.s:72206  .debug_str:00000000000053c4 .LASF2967
     /tmp/ccP2IRDu.s:71324  .debug_str:0000000000003010 .LASF2968
     /tmp/ccP2IRDu.s:73286  .debug_str:000000000000824f .LASF2969
     /tmp/ccP2IRDu.s:74458  .debug_str:000000000000afd5 .LASF2970
     /tmp/ccP2IRDu.s:70876  .debug_str:0000000000001c74 .LASF2971
     /tmp/ccP2IRDu.s:76648  .debug_str:0000000000010f08 .LASF2972
     /tmp/ccP2IRDu.s:71222  .debug_str:0000000000002baa .LASF2973
     /tmp/ccP2IRDu.s:71180  .debug_str:00000000000029ef .LASF2974
     /tmp/ccP2IRDu.s:76002  .debug_str:000000000000f4af .LASF2975
     /tmp/ccP2IRDu.s:71990  .debug_str:0000000000004c43 .LASF2976
     /tmp/ccP2IRDu.s:75214  .debug_str:000000000000d256 .LASF2977
     /tmp/ccP2IRDu.s:72868  .debug_str:0000000000006f1e .LASF2978
     /tmp/ccP2IRDu.s:72406  .debug_str:0000000000005b83 .LASF2979
     /tmp/ccP2IRDu.s:75334  .debug_str:000000000000d79c .LASF2980
     /tmp/ccP2IRDu.s:71582  .debug_str:0000000000003b17 .LASF2981
     /tmp/ccP2IRDu.s:75484  .debug_str:000000000000de77 .LASF2982
     /tmp/ccP2IRDu.s:73698  .debug_str:0000000000009461 .LASF2983
     /tmp/ccP2IRDu.s:75790  .debug_str:000000000000ebee .LASF2984
     /tmp/ccP2IRDu.s:72722  .debug_str:0000000000006966 .LASF2985
     /tmp/ccP2IRDu.s:76330  .debug_str:00000000000103a3 .LASF2986
     /tmp/ccP2IRDu.s:77226  .debug_str:0000000000012721 .LASF2987
     /tmp/ccP2IRDu.s:72342  .debug_str:00000000000058c6 .LASF2988
     /tmp/ccP2IRDu.s:72628  .debug_str:00000000000064ed .LASF2989
     /tmp/ccP2IRDu.s:76676  .debug_str:0000000000011049 .LASF2990
     /tmp/ccP2IRDu.s:76478  .debug_str:00000000000108b7 .LASF2991
     /tmp/ccP2IRDu.s:71382  .debug_str:0000000000003286 .LASF2992
     /tmp/ccP2IRDu.s:74390  .debug_str:000000000000ad9e .LASF2993
     /tmp/ccP2IRDu.s:71870  .debug_str:00000000000047ff .LASF2994
     /tmp/ccP2IRDu.s:77506  .debug_str:00000000000133a5 .LASF2995
     /tmp/ccP2IRDu.s:74730  .debug_str:000000000000bc5e .LASF2996
     /tmp/ccP2IRDu.s:74694  .debug_str:000000000000ba89 .LASF2997
     /tmp/ccP2IRDu.s:76522  .debug_str:0000000000010a51 .LASF2998
     /tmp/ccP2IRDu.s:71380  .debug_str:0000000000003272 .LASF2999
     /tmp/ccP2IRDu.s:73988  .debug_str:0000000000009f25 .LASF3000
     /tmp/ccP2IRDu.s:75002  .debug_str:000000000000c90c .LASF3001
     /tmp/ccP2IRDu.s:73388  .debug_str:00000000000086e5 .LASF3002
     /tmp/ccP2IRDu.s:73098  .debug_str:0000000000007a3c .LASF3003
     /tmp/ccP2IRDu.s:73866  .debug_str:0000000000009b05 .LASF3004
     /tmp/ccP2IRDu.s:72086  .debug_str:0000000000004f15 .LASF3005
     /tmp/ccP2IRDu.s:75138  .debug_str:000000000000cf25 .LASF3006
     /tmp/ccP2IRDu.s:71036  .debug_str:0000000000002342 .LASF3007
     /tmp/ccP2IRDu.s:77174  .debug_str:00000000000124cc .LASF3008
     /tmp/ccP2IRDu.s:77362  .debug_str:0000000000012d70 .LASF3009
     /tmp/ccP2IRDu.s:75462  .debug_str:000000000000ddc7 .LASF3010
     /tmp/ccP2IRDu.s:70778  .debug_str:000000000000183d .LASF3011
     /tmp/ccP2IRDu.s:71014  .debug_str:0000000000002248 .LASF3012
     /tmp/ccP2IRDu.s:76686  .debug_str:00000000000110a0 .LASF3013
     /tmp/ccP2IRDu.s:72988  .debug_str:00000000000074f5 .LASF3014
     /tmp/ccP2IRDu.s:75826  .debug_str:000000000000ed4c .LASF3015
     /tmp/ccP2IRDu.s:71898  .debug_str:00000000000048b3 .LASF3016
     /tmp/ccP2IRDu.s:75576  .debug_str:000000000000e242 .LASF3017
     /tmp/ccP2IRDu.s:72228  .debug_str:0000000000005427 .LASF3018
     /tmp/ccP2IRDu.s:76306  .debug_str:00000000000102a1 .LASF3019
     /tmp/ccP2IRDu.s:71752  .debug_str:000000000000429d .LASF3020
     /tmp/ccP2IRDu.s:71396  .debug_str:0000000000003357 .LASF3021
     /tmp/ccP2IRDu.s:73018  .debug_str:000000000000766b .LASF3022
     /tmp/ccP2IRDu.s:72468  .debug_str:0000000000005dd1 .LASF3023
     /tmp/ccP2IRDu.s:74886  .debug_str:000000000000c396 .LASF3024
     /tmp/ccP2IRDu.s:76924  .debug_str:0000000000011a2d .LASF3025
     /tmp/ccP2IRDu.s:74752  .debug_str:000000000000bd34 .LASF3026
     /tmp/ccP2IRDu.s:76036  .debug_str:000000000000f65b .LASF3027
     /tmp/ccP2IRDu.s:75476  .debug_str:000000000000de36 .LASF3028
     /tmp/ccP2IRDu.s:73528  .debug_str:0000000000008c6c .LASF3029
     /tmp/ccP2IRDu.s:75336  .debug_str:000000000000d7a9 .LASF3030
     /tmp/ccP2IRDu.s:75720  .debug_str:000000000000e8c8 .LASF3031
     /tmp/ccP2IRDu.s:71236  .debug_str:0000000000002c33 .LASF3032
     /tmp/ccP2IRDu.s:71618  .debug_str:0000000000003cb9 .LASF3033
     /tmp/ccP2IRDu.s:73080  .debug_str:00000000000079b3 .LASF3034
     /tmp/ccP2IRDu.s:77514  .debug_str:00000000000133ee .LASF3035
     /tmp/ccP2IRDu.s:71988  .debug_str:0000000000004c15 .LASF3036
     /tmp/ccP2IRDu.s:75028  .debug_str:000000000000ca24 .LASF3037
     /tmp/ccP2IRDu.s:70232  .debug_str:0000000000000341 .LASF3038
     /tmp/ccP2IRDu.s:76862  .debug_str:0000000000011788 .LASF3039
     /tmp/ccP2IRDu.s:77308  .debug_str:0000000000012b33 .LASF3040
     /tmp/ccP2IRDu.s:74088  .debug_str:000000000000a2c1 .LASF3041
     /tmp/ccP2IRDu.s:70496  .debug_str:0000000000000d6a .LASF3042
     /tmp/ccP2IRDu.s:77144  .debug_str:00000000000123a0 .LASF3043
     /tmp/ccP2IRDu.s:74636  .debug_str:000000000000b7d6 .LASF3044
     /tmp/ccP2IRDu.s:72578  .debug_str:00000000000062d7 .LASF3045
     /tmp/ccP2IRDu.s:72928  .debug_str:00000000000071fb .LASF3046
     /tmp/ccP2IRDu.s:71852  .debug_str:000000000000473c .LASF3047
     /tmp/ccP2IRDu.s:76154  .debug_str:000000000000fb48 .LASF3048
     /tmp/ccP2IRDu.s:70200  .debug_str:00000000000001b6 .LASF3049
     /tmp/ccP2IRDu.s:74568  .debug_str:000000000000b477 .LASF3050
     /tmp/ccP2IRDu.s:74090  .debug_str:000000000000a2dc .LASF3051
     /tmp/ccP2IRDu.s:75396  .debug_str:000000000000da7f .LASF3052
     /tmp/ccP2IRDu.s:76362  .debug_str:00000000000104cd .LASF3053
     /tmp/ccP2IRDu.s:76642  .debug_str:0000000000010eb4 .LASF3054
     /tmp/ccP2IRDu.s:71562  .debug_str:0000000000003a18 .LASF3055
     /tmp/ccP2IRDu.s:70628  .debug_str:000000000000125c .LASF3056
     /tmp/ccP2IRDu.s:71448  .debug_str:0000000000003576 .LASF3057
     /tmp/ccP2IRDu.s:71564  .debug_str:0000000000003a35 .LASF3058
     /tmp/ccP2IRDu.s:70632  .debug_str:0000000000001289 .LASF3059
     /tmp/ccP2IRDu.s:74634  .debug_str:000000000000b7a5 .LASF3060
     /tmp/ccP2IRDu.s:75674  .debug_str:000000000000e69a .LASF3061
     /tmp/ccP2IRDu.s:71282  .debug_str:0000000000002e49 .LASF3062
     /tmp/ccP2IRDu.s:73858  .debug_str:0000000000009a7a .LASF3063
     /tmp/ccP2IRDu.s:75676  .debug_str:000000000000e6b7 .LASF3064
     /tmp/ccP2IRDu.s:76248  .debug_str:000000000000ff83 .LASF3065
     /tmp/ccP2IRDu.s:73142  .debug_str:0000000000007c38 .LASF3066
     /tmp/ccP2IRDu.s:75808  .debug_str:000000000000ec83 .LASF3067
     /tmp/ccP2IRDu.s:73360  .debug_str:00000000000085b8 .LASF3068
     /tmp/ccP2IRDu.s:72114  .debug_str:000000000000507e .LASF3069
     /tmp/ccP2IRDu.s:76882  .debug_str:00000000000118a3 .LASF3070
     /tmp/ccP2IRDu.s:73362  .debug_str:00000000000085d3 .LASF3071
     /tmp/ccP2IRDu.s:73132  .debug_str:0000000000007bb0 .LASF3072
     /tmp/ccP2IRDu.s:71840  .debug_str:000000000000468a .LASF3073
     /tmp/ccP2IRDu.s:76074  .debug_str:000000000000f82b .LASF3074
     /tmp/ccP2IRDu.s:71344  .debug_str:0000000000003116 .LASF3075
     /tmp/ccP2IRDu.s:76540  .debug_str:0000000000010b69 .LASF3076
     /tmp/ccP2IRDu.s:76076  .debug_str:000000000000f846 .LASF3077
     /tmp/ccP2IRDu.s:74522  .debug_str:000000000000b2cf .LASF3078
     /tmp/ccP2IRDu.s:70322  .debug_str:0000000000000721 .LASF3079
     /tmp/ccP2IRDu.s:75684  .debug_str:000000000000e717 .LASF3080
     /tmp/ccP2IRDu.s:73292  .debug_str:0000000000008295 .LASF3081
     /tmp/ccP2IRDu.s:70324  .debug_str:000000000000073e .LASF3082
     /tmp/ccP2IRDu.s:76990  .debug_str:0000000000011d1a .LASF3083
     /tmp/ccP2IRDu.s:71854  .debug_str:0000000000004751 .LASF3084
     /tmp/ccP2IRDu.s:73162  .debug_str:0000000000007cfb .LASF3085
     /tmp/ccP2IRDu.s:73668  .debug_str:00000000000092c4 .LASF3086
     /tmp/ccP2IRDu.s:71130  .debug_str:00000000000027cf .LASF3087
     /tmp/ccP2IRDu.s:73164  .debug_str:0000000000007d18 .LASF3088
     /tmp/ccP2IRDu.s:73670  .debug_str:00000000000092e1 .LASF3089
     /tmp/ccP2IRDu.s:74260  .debug_str:000000000000a93f .LASF3090
     /tmp/ccP2IRDu.s:75520  .debug_str:000000000000dfe7 .LASF3091
     /tmp/ccP2IRDu.s:72828  .debug_str:0000000000006d84 .LASF3092
     /tmp/ccP2IRDu.s:74376  .debug_str:000000000000ace8 .LASF3093
     /tmp/ccP2IRDu.s:75524  .debug_str:000000000000e00a .LASF3094
     /tmp/ccP2IRDu.s:77386  .debug_str:0000000000012e76 .LASF3095
     /tmp/ccP2IRDu.s:77290  .debug_str:0000000000012a5e .LASF3096
     /tmp/ccP2IRDu.s:70370  .debug_str:000000000000091a .LASF3097
     /tmp/ccP2IRDu.s:75076  .debug_str:000000000000ccd8 .LASF3098
     /tmp/ccP2IRDu.s:76650  .debug_str:0000000000010f1a .LASF3099
     /tmp/ccP2IRDu.s:77318  .debug_str:0000000000012b9d .LASF3100
     /tmp/ccP2IRDu.s:70568  .debug_str:0000000000000fe2 .LASF3101
     /tmp/ccP2IRDu.s:77446  .debug_str:000000000001309a .LASF3102
     /tmp/ccP2IRDu.s:72956  .debug_str:000000000000732d .LASF3103
     /tmp/ccP2IRDu.s:77464  .debug_str:0000000000013174 .LASF3104
     /tmp/ccP2IRDu.s:70362  .debug_str:00000000000008c3 .LASF3105
     /tmp/ccP2IRDu.s:77154  .debug_str:0000000000012417 .LASF3106
     /tmp/ccP2IRDu.s:74516  .debug_str:000000000000b295 .LASF3107
     /tmp/ccP2IRDu.s:75156  .debug_str:000000000000cff5 .LASF3108
     /tmp/ccP2IRDu.s:73518  .debug_str:0000000000008c10 .LASF3109
     /tmp/ccP2IRDu.s:74274  .debug_str:000000000000a9db .LASF3110
     /tmp/ccP2IRDu.s:76424  .debug_str:0000000000010706 .LASF3111
     /tmp/ccP2IRDu.s:72674  .debug_str:00000000000066ea .LASF3112
     /tmp/ccP2IRDu.s:71642  .debug_str:0000000000003dcc .LASF3113
     /tmp/ccP2IRDu.s:70938  .debug_str:0000000000001ec9 .LASF3114
     /tmp/ccP2IRDu.s:75158  .debug_str:000000000000d01c .LASF3115
     /tmp/ccP2IRDu.s:72850  .debug_str:0000000000006e48 .LASF3116
     /tmp/ccP2IRDu.s:76966  .debug_str:0000000000011c08 .LASF3117
     /tmp/ccP2IRDu.s:70424  .debug_str:0000000000000ae0 .LASF3118
     /tmp/ccP2IRDu.s:75324  .debug_str:000000000000d732 .LASF3119
     /tmp/ccP2IRDu.s:72266  .debug_str:00000000000055a1 .LASF3120
     /tmp/ccP2IRDu.s:72412  .debug_str:0000000000005bd5 .LASF3121
     /tmp/ccP2IRDu.s:74682  .debug_str:000000000000b9f3 .LASF3122
     /tmp/ccP2IRDu.s:75452  .debug_str:000000000000dd52 .LASF3123
     /tmp/ccP2IRDu.s:70578  .debug_str:0000000000001049 .LASF3124
     /tmp/ccP2IRDu.s:76044  .debug_str:000000000000f6bf .LASF3125
     /tmp/ccP2IRDu.s:76174  .debug_str:000000000000fc1c .LASF3126
     /tmp/ccP2IRDu.s:75012  .debug_str:000000000000c969 .LASF3127
     /tmp/ccP2IRDu.s:71552  .debug_str:00000000000039ba .LASF3128
     /tmp/ccP2IRDu.s:70220  .debug_str:00000000000002b4 .LASF3129
     /tmp/ccP2IRDu.s:73716  .debug_str:00000000000094e0 .LASF3130
     /tmp/ccP2IRDu.s:75190  .debug_str:000000000000d150 .LASF3131
     /tmp/ccP2IRDu.s:71726  .debug_str:0000000000004180 .LASF3132
     /tmp/ccP2IRDu.s:73480  .debug_str:0000000000008ab5 .LASF3133
     /tmp/ccP2IRDu.s:72314  .debug_str:0000000000005762 .LASF3134
     /tmp/ccP2IRDu.s:70566  .debug_str:0000000000000fbe .LASF3135
     /tmp/ccP2IRDu.s:76826  .debug_str:0000000000011633 .LASF3136
     /tmp/ccP2IRDu.s:70452  .debug_str:0000000000000c08 .LASF3137
     /tmp/ccP2IRDu.s:71114  .debug_str:00000000000026bc .LASF3138
     /tmp/ccP2IRDu.s:75980  .debug_str:000000000000f3bc .LASF3139
     /tmp/ccP2IRDu.s:70666  .debug_str:0000000000001419 .LASF3140
     /tmp/ccP2IRDu.s:75514  .debug_str:000000000000dfa6 .LASF3141
     /tmp/ccP2IRDu.s:72546  .debug_str:00000000000061b9 .LASF3142
     /tmp/ccP2IRDu.s:76948  .debug_str:0000000000011b24 .LASF3143
     /tmp/ccP2IRDu.s:76110  .debug_str:000000000000f96f .LASF3144
     /tmp/ccP2IRDu.s:73390  .debug_str:00000000000086f9 .LASF3145
     /tmp/ccP2IRDu.s:74310  .debug_str:000000000000aaf5 .LASF3146
     /tmp/ccP2IRDu.s:76334  .debug_str:00000000000103c2 .LASF3147
     /tmp/ccP2IRDu.s:70264  .debug_str:0000000000000499 .LASF3148
     /tmp/ccP2IRDu.s:72444  .debug_str:0000000000005cb0 .LASF3149
     /tmp/ccP2IRDu.s:74324  .debug_str:000000000000ab63 .LASF3150
     /tmp/ccP2IRDu.s:75898  .debug_str:000000000000f013 .LASF3151
     /tmp/ccP2IRDu.s:75030  .debug_str:000000000000ca3b .LASF3152
     /tmp/ccP2IRDu.s:77284  .debug_str:00000000000129cc .LASF3153
     /tmp/ccP2IRDu.s:73500  .debug_str:0000000000008b76 .LASF3154
     /tmp/ccP2IRDu.s:75910  .debug_str:000000000000f0c1 .LASF3155
     /tmp/ccP2IRDu.s:77300  .debug_str:0000000000012ae0 .LASF3156
     /tmp/ccP2IRDu.s:76404  .debug_str:0000000000010626 .LASF3157
     /tmp/ccP2IRDu.s:76406  .debug_str:0000000000010635 .LASF3158
     /tmp/ccP2IRDu.s:76408  .debug_str:0000000000010644 .LASF3159
     /tmp/ccP2IRDu.s:72862  .debug_str:0000000000006edd .LASF3160
     /tmp/ccP2IRDu.s:76230  .debug_str:000000000000feb6 .LASF3161
     /tmp/ccP2IRDu.s:70588  .debug_str:00000000000010c0 .LASF3162
     /tmp/ccP2IRDu.s:73244  .debug_str:00000000000080b0 .LASF3163
     /tmp/ccP2IRDu.s:74808  .debug_str:000000000000bfac .LASF3164
     /tmp/ccP2IRDu.s:74614  .debug_str:000000000000b68a .LASF3165
     /tmp/ccP2IRDu.s:72394  .debug_str:0000000000005ad1 .LASF3166
     /tmp/ccP2IRDu.s:71122  .debug_str:000000000000274f .LASF3167
     /tmp/ccP2IRDu.s:76422  .debug_str:00000000000106e4 .LASF3168
     /tmp/ccP2IRDu.s:77068  .debug_str:0000000000012096 .LASF3169
     /tmp/ccP2IRDu.s:74586  .debug_str:000000000000b537 .LASF3170
     /tmp/ccP2IRDu.s:73576  .debug_str:0000000000008ebb .LASF3171
     /tmp/ccP2IRDu.s:74574  .debug_str:000000000000b4b1 .LASF3172
     /tmp/ccP2IRDu.s:75982  .debug_str:000000000000f3d2 .LASF3173
     /tmp/ccP2IRDu.s:76790  .debug_str:00000000000114aa .LASF3174
     /tmp/ccP2IRDu.s:76786  .debug_str:0000000000011498 .LASF3175
     /tmp/ccP2IRDu.s:76788  .debug_str:00000000000114a1 .LASF3176
     /tmp/ccP2IRDu.s:72876  .debug_str:0000000000006f95 .LASF3177
     /tmp/ccP2IRDu.s:71042  .debug_str:000000000000238b .LASF3178
     /tmp/ccP2IRDu.s:72998  .debug_str:000000000000755b .LASF3179
     /tmp/ccP2IRDu.s:77104  .debug_str:00000000000121e1 .LASF3180
     /tmp/ccP2IRDu.s:73788  .debug_str:00000000000097aa .LASF3181
     /tmp/ccP2IRDu.s:77062  .debug_str:0000000000012073 .LASF3182
     /tmp/ccP2IRDu.s:76410  .debug_str:0000000000010653 .LASF3183
     /tmp/ccP2IRDu.s:75858  .debug_str:000000000000ee6b .LASF3184
     /tmp/ccP2IRDu.s:76412  .debug_str:0000000000010662 .LASF3185
     /tmp/ccP2IRDu.s:73556  .debug_str:0000000000008d77 .LASF3186
     /tmp/ccP2IRDu.s:75494  .debug_str:000000000000deeb .LASF3187
     /tmp/ccP2IRDu.s:75328  .debug_str:000000000000d769 .LASF3188
     /tmp/ccP2IRDu.s:75812  .debug_str:000000000000eca5 .LASF3189
     /tmp/ccP2IRDu.s:71800  .debug_str:0000000000004501 .LASF3190
     /tmp/ccP2IRDu.s:73250  .debug_str:0000000000008104 .LASF3191
     /tmp/ccP2IRDu.s:73864  .debug_str:0000000000009af9 .LASF3192
     /tmp/ccP2IRDu.s:75466  .debug_str:000000000000ddf5 .LASF3193
     /tmp/ccP2IRDu.s:75762  .debug_str:000000000000ead4 .LASF3194
     /tmp/ccP2IRDu.s:75470  .debug_str:000000000000de10 .LASF3195
     /tmp/ccP2IRDu.s:71864  .debug_str:00000000000047e0 .LASF3196
     /tmp/ccP2IRDu.s:72312  .debug_str:0000000000005746 .LASF3197
     /tmp/ccP2IRDu.s:70892  .debug_str:0000000000001d14 .LASF3198
     /tmp/ccP2IRDu.s:74564  .debug_str:000000000000b462 .LASF3199
     /tmp/ccP2IRDu.s:74086  .debug_str:000000000000a2b9 .LASF3200
     /tmp/ccP2IRDu.s:72720  .debug_str:000000000000695b .LASF3201
     /tmp/ccP2IRDu.s:71398  .debug_str:000000000000337e .LASF3202
     /tmp/ccP2IRDu.s:72878  .debug_str:0000000000006f9e .LASF3203
     /tmp/ccP2IRDu.s:75540  .debug_str:000000000000e0ad .LASF3204
     /tmp/ccP2IRDu.s:75430  .debug_str:000000000000dc63 .LASF3205
     /tmp/ccP2IRDu.s:73206  .debug_str:0000000000007ee9 .LASF3206
     /tmp/ccP2IRDu.s:70330  .debug_str:0000000000000779 .LASF3207
     /tmp/ccP2IRDu.s:76606  .debug_str:0000000000010d90 .LASF3208
     /tmp/ccP2IRDu.s:76042  .debug_str:000000000000f6b9 .LASF3209
     /tmp/ccP2IRDu.s:73584  .debug_str:0000000000008f1e .LASF3210
     /tmp/ccP2IRDu.s:75222  .debug_str:000000000000d2ec .LASF3211
     /tmp/ccP2IRDu.s:72884  .debug_str:0000000000006fe8 .LASF3212
     /tmp/ccP2IRDu.s:74118  .debug_str:000000000000a3a7 .LASF3213
     /tmp/ccP2IRDu.s:74572  .debug_str:000000000000b4ac .LASF3214
     /tmp/ccP2IRDu.s:73258  .debug_str:000000000000812e .LASF3215
     /tmp/ccP2IRDu.s:70372  .debug_str:000000000000092b .LASF3216
     /tmp/ccP2IRDu.s:73560  .debug_str:0000000000008db7 .LASF3217
     /tmp/ccP2IRDu.s:76722  .debug_str:0000000000011213 .LASF3218
     /tmp/ccP2IRDu.s:70278  .debug_str:000000000000053e .LASF3219
     /tmp/ccP2IRDu.s:73854  .debug_str:0000000000009a4b .LASF3220
     /tmp/ccP2IRDu.s:73938  .debug_str:0000000000009d60 .LASF3221
     /tmp/ccP2IRDu.s:75932  .debug_str:000000000000f1c3 .LASF3222
     /tmp/ccP2IRDu.s:73254  .debug_str:000000000000811a .LASF3223
     /tmp/ccP2IRDu.s:73562  .debug_str:0000000000008dbc .LASF3224
     /tmp/ccP2IRDu.s:71030  .debug_str:0000000000002303 .LASF3225
     /tmp/ccP2IRDu.s:73916  .debug_str:0000000000009ccb .LASF3226
     /tmp/ccP2IRDu.s:74916  .debug_str:000000000000c4f6 .LASF3227
     /tmp/ccP2IRDu.s:71232  .debug_str:0000000000002c1b .LASF3228
     /tmp/ccP2IRDu.s:75760  .debug_str:000000000000eaad .LASF3229
     /tmp/ccP2IRDu.s:76626  .debug_str:0000000000010e11 .LASF3230
     /tmp/ccP2IRDu.s:75288  .debug_str:000000000000d5c1 .LASF3231
     /tmp/ccP2IRDu.s:75596  .debug_str:000000000000e322 .LASF3232
     /tmp/ccP2IRDu.s:77230  .debug_str:0000000000012740 .LASF3233
     /tmp/ccP2IRDu.s:75200  .debug_str:000000000000d1ac .LASF3234
     /tmp/ccP2IRDu.s:71616  .debug_str:0000000000003caf .LASF3235
     /tmp/ccP2IRDu.s:74914  .debug_str:000000000000c4ea .LASF3236
     /tmp/ccP2IRDu.s:71868  .debug_str:00000000000047f4 .LASF3237
     /tmp/ccP2IRDu.s:76134  .debug_str:000000000000fa64 .LASF3238
     /tmp/ccP2IRDu.s:70420  .debug_str:0000000000000ac7 .LASF3239
     /tmp/ccP2IRDu.s:74216  .debug_str:000000000000a78e .LASF3240
     /tmp/ccP2IRDu.s:75314  .debug_str:000000000000d6d4 .LASF3241
     /tmp/ccP2IRDu.s:74480  .debug_str:000000000000b0b0 .LASF3242
     /tmp/ccP2IRDu.s:74972  .debug_str:000000000000c7ad .LASF3243
     /tmp/ccP2IRDu.s:76492  .debug_str:0000000000010990 .LASF3244
     /tmp/ccP2IRDu.s:71874  .debug_str:000000000000483e .LASF3245
     /tmp/ccP2IRDu.s:74654  .debug_str:000000000000b85f .LASF3246
     /tmp/ccP2IRDu.s:77534  .debug_str:0000000000013497 .LASF3247
     /tmp/ccP2IRDu.s:75232  .debug_str:000000000000d33a .LASF3248
     /tmp/ccP2IRDu.s:71002  .debug_str:00000000000021c8 .LASF3249
     /tmp/ccP2IRDu.s:70834  .debug_str:0000000000001aae .LASF3250
     /tmp/ccP2IRDu.s:75902  .debug_str:000000000000f032 .LASF3251
     /tmp/ccP2IRDu.s:75348  .debug_str:000000000000d83d .LASF3252
     /tmp/ccP2IRDu.s:77544  .debug_str:00000000000134fb .LASF3253
     /tmp/ccP2IRDu.s:74646  .debug_str:000000000000b81a .LASF3254
     /tmp/ccP2IRDu.s:72004  .debug_str:0000000000004caf .LASF3255
     /tmp/ccP2IRDu.s:74798  .debug_str:000000000000bf2d .LASF3256
     /tmp/ccP2IRDu.s:74816  .debug_str:000000000000c023 .LASF3257
     /tmp/ccP2IRDu.s:76172  .debug_str:000000000000fc16 .LASF3258
     /tmp/ccP2IRDu.s:75304  .debug_str:000000000000d689 .LASF3259
     /tmp/ccP2IRDu.s:75400  .debug_str:000000000000dabd .LASF3260
     /tmp/ccP2IRDu.s:72176  .debug_str:0000000000005296 .LASF3261
     /tmp/ccP2IRDu.s:75620  .debug_str:000000000000e3f2 .LASF3262
     /tmp/ccP2IRDu.s:72170  .debug_str:0000000000005266 .LASF3263
     /tmp/ccP2IRDu.s:70376  .debug_str:000000000000093f .LASF3264
     /tmp/ccP2IRDu.s:73694  .debug_str:000000000000943f .LASF3265
     /tmp/ccP2IRDu.s:71998  .debug_str:0000000000004c90 .LASF3266
     /tmp/ccP2IRDu.s:73366  .debug_str:0000000000008605 .LASF3267
     /tmp/ccP2IRDu.s:72980  .debug_str:0000000000007466 .LASF3268
     /tmp/ccP2IRDu.s:73394  .debug_str:0000000000008717 .LASF3269
     /tmp/ccP2IRDu.s:75548  .debug_str:000000000000e0f9 .LASF3270
     /tmp/ccP2IRDu.s:72474  .debug_str:0000000000005e24 .LASF3271
     /tmp/ccP2IRDu.s:70210  .debug_str:000000000000023e .LASF3272
     /tmp/ccP2IRDu.s:73212  .debug_str:0000000000007f2f .LASF3273
     /tmp/ccP2IRDu.s:72920  .debug_str:00000000000071b1 .LASF3274
     /tmp/ccP2IRDu.s:76130  .debug_str:000000000000fa57 .LASF3275
     /tmp/ccP2IRDu.s:77448  .debug_str:00000000000130c0 .LASF3276
     /tmp/ccP2IRDu.s:71746  .debug_str:000000000000425e .LASF3277
     /tmp/ccP2IRDu.s:74892  .debug_str:000000000000c3e3 .LASF3278
     /tmp/ccP2IRDu.s:76946  .debug_str:0000000000011b19 .LASF3279
     /tmp/ccP2IRDu.s:70926  .debug_str:0000000000001e51 .LASF3280
     /tmp/ccP2IRDu.s:71200  .debug_str:0000000000002ac3 .LASF3281
     /tmp/ccP2IRDu.s:73626  .debug_str:00000000000090e5 .LASF3282
     /tmp/ccP2IRDu.s:75510  .debug_str:000000000000df79 .LASF3283
     /tmp/ccP2IRDu.s:72236  .debug_str:0000000000005475 .LASF3284
     /tmp/ccP2IRDu.s:74880  .debug_str:000000000000c369 .LASF3285
     /tmp/ccP2IRDu.s:71558  .debug_str:0000000000003a03 .LASF3286
     /tmp/ccP2IRDu.s:70854  .debug_str:0000000000001b72 .LASF3287
     /tmp/ccP2IRDu.s:77224  .debug_str:0000000000012717 .LASF3288
     /tmp/ccP2IRDu.s:72662  .debug_str:000000000000668a .LASF3289
     /tmp/ccP2IRDu.s:77228  .debug_str:0000000000012736 .LASF3290
     /tmp/ccP2IRDu.s:72666  .debug_str:00000000000066a4 .LASF3291
     /tmp/ccP2IRDu.s:77232  .debug_str:0000000000012766 .LASF3292
     /tmp/ccP2IRDu.s:73088  .debug_str:0000000000007a08 .LASF3293
     /tmp/ccP2IRDu.s:70530  .debug_str:0000000000000eb8 .LASF3294
     /tmp/ccP2IRDu.s:75366  .debug_str:000000000000d921 .LASF3295
     /tmp/ccP2IRDu.s:70826  .debug_str:0000000000001a62 .LASF3296
     /tmp/ccP2IRDu.s:73730  .debug_str:0000000000009548 .LASF3297
     /tmp/ccP2IRDu.s:73738  .debug_str:00000000000095b8 .LASF3298
     /tmp/ccP2IRDu.s:71858  .debug_str:00000000000047a4 .LASF3299
     /tmp/ccP2IRDu.s:73740  .debug_str:00000000000095c3 .LASF3300
     /tmp/ccP2IRDu.s:75978  .debug_str:000000000000f395 .LASF3301
     /tmp/ccP2IRDu.s:73742  .debug_str:00000000000095ce .LASF3302
     /tmp/ccP2IRDu.s:77242  .debug_str:00000000000127c1 .LASF3303
     /tmp/ccP2IRDu.s:70768  .debug_str:00000000000017c3 .LASF3304
     /tmp/ccP2IRDu.s:74686  .debug_str:000000000000ba2c .LASF3305
     /tmp/ccP2IRDu.s:73746  .debug_str:00000000000095e1 .LASF3306
     /tmp/ccP2IRDu.s:77564  .debug_str:00000000000135aa .LASF3307
     /tmp/ccP2IRDu.s:72800  .debug_str:0000000000006c95 .LASF3308
     /tmp/ccP2IRDu.s:74960  .debug_str:000000000000c71d .LASF3309
     /tmp/ccP2IRDu.s:72802  .debug_str:0000000000006c9f .LASF3310
     /tmp/ccP2IRDu.s:70504  .debug_str:0000000000000dd2 .LASF3311
     /tmp/ccP2IRDu.s:72804  .debug_str:0000000000006ca9 .LASF3312
     /tmp/ccP2IRDu.s:73572  .debug_str:0000000000008e74 .LASF3313
     /tmp/ccP2IRDu.s:72806  .debug_str:0000000000006cb3 .LASF3314
     /tmp/ccP2IRDu.s:70944  .debug_str:0000000000001f31 .LASF3315
     /tmp/ccP2IRDu.s:73092  .debug_str:0000000000007a1e .LASF3316
     /tmp/ccP2IRDu.s:72164  .debug_str:0000000000005217 .LASF3317
     /tmp/ccP2IRDu.s:73094  .debug_str:0000000000007a28 .LASF3318
     /tmp/ccP2IRDu.s:75218  .debug_str:000000000000d290 .LASF3319
     /tmp/ccP2IRDu.s:73096  .debug_str:0000000000007a32 .LASF3320
     /tmp/ccP2IRDu.s:70800  .debug_str:000000000000193e .LASF3321
     /tmp/ccP2IRDu.s:72816  .debug_str:0000000000006ce1 .LASF3322
     /tmp/ccP2IRDu.s:73852  .debug_str:0000000000009a25 .LASF3323
     /tmp/ccP2IRDu.s:77418  .debug_str:0000000000012fd8 .LASF3324
     /tmp/ccP2IRDu.s:72576  .debug_str:00000000000062ca .LASF3325
     /tmp/ccP2IRDu.s:73984  .debug_str:0000000000009edb .LASF3326
     /tmp/ccP2IRDu.s:72242  .debug_str:00000000000054dc .LASF3327
     /tmp/ccP2IRDu.s:76724  .debug_str:0000000000011219 .LASF3328
     /tmp/ccP2IRDu.s:73054  .debug_str:00000000000077fb .LASF3329
     /tmp/ccP2IRDu.s:74006  .debug_str:000000000000a02c .LASF3330
     /tmp/ccP2IRDu.s:74982  .debug_str:000000000000c802 .LASF3331
     /tmp/ccP2IRDu.s:76764  .debug_str:00000000000113ba .LASF3332
     /tmp/ccP2IRDu.s:76694  .debug_str:00000000000110e6 .LASF3333
     /tmp/ccP2IRDu.s:70638  .debug_str:00000000000012cb .LASF3334
     /tmp/ccP2IRDu.s:74076  .debug_str:000000000000a26d .LASF3335
     /tmp/ccP2IRDu.s:73594  .debug_str:0000000000008f73 .LASF3336
     /tmp/ccP2IRDu.s:72934  .debug_str:000000000000722d .LASF3337
     /tmp/ccP2IRDu.s:76748  .debug_str:00000000000112e8 .LASF3338
     /tmp/ccP2IRDu.s:75728  .debug_str:000000000000e93a .LASF3339
     /tmp/ccP2IRDu.s:73460  .debug_str:0000000000008a36 .LASF3340
     /tmp/ccP2IRDu.s:71112  .debug_str:0000000000002692 .LASF3341
     /tmp/ccP2IRDu.s:76346  .debug_str:0000000000010431 .LASF3342
     /tmp/ccP2IRDu.s:75194  .debug_str:000000000000d16e .LASF3343
     /tmp/ccP2IRDu.s:73678  .debug_str:0000000000009375 .LASF3344
     /tmp/ccP2IRDu.s:74904  .debug_str:000000000000c45f .LASF3345
     /tmp/ccP2IRDu.s:71456  .debug_str:00000000000035df .LASF3346
     /tmp/ccP2IRDu.s:75128  .debug_str:000000000000cec3 .LASF3347
     /tmp/ccP2IRDu.s:71268  .debug_str:0000000000002db2 .LASF3348
     /tmp/ccP2IRDu.s:77194  .debug_str:0000000000012597 .LASF3349
     /tmp/ccP2IRDu.s:73992  .debug_str:0000000000009f57 .LASF3350
     /tmp/ccP2IRDu.s:75752  .debug_str:000000000000ea3e .LASF3351
     /tmp/ccP2IRDu.s:74010  .debug_str:000000000000a048 .LASF3352
     /tmp/ccP2IRDu.s:76974  .debug_str:0000000000011c6d .LASF3353
     /tmp/ccP2IRDu.s:71062  .debug_str:0000000000002455 .LASF3354
     /tmp/ccP2IRDu.s:71374  .debug_str:0000000000003226 .LASF3355
     /tmp/ccP2IRDu.s:76262  .debug_str:0000000000010066 .LASF3356
     /tmp/ccP2IRDu.s:71568  .debug_str:0000000000003a8d .LASF3357
     /tmp/ccP2IRDu.s:70364  .debug_str:00000000000008e3 .LASF3358
     /tmp/ccP2IRDu.s:72936  .debug_str:0000000000007238 .LASF3359
     /tmp/ccP2IRDu.s:77192  .debug_str:000000000001258e .LASF3360
     /tmp/ccP2IRDu.s:75742  .debug_str:000000000000e9e3 .LASF3361
     /tmp/ccP2IRDu.s:73338  .debug_str:00000000000084c1 .LASF3362
     /tmp/ccP2IRDu.s:73926  .debug_str:0000000000009d15 .LASF3363
     /tmp/ccP2IRDu.s:76336  .debug_str:00000000000103eb .LASF3364
     /tmp/ccP2IRDu.s:70456  .debug_str:0000000000000c36 .LASF3365
     /tmp/ccP2IRDu.s:75102  .debug_str:000000000000cdf5 .LASF3366
     /tmp/ccP2IRDu.s:75556  .debug_str:000000000000e14c .LASF3367
     /tmp/ccP2IRDu.s:73372  .debug_str:0000000000008643 .LASF3368
     /tmp/ccP2IRDu.s:71226  .debug_str:0000000000002bf0 .LASF3369
     /tmp/ccP2IRDu.s:71228  .debug_str:0000000000002bf5 .LASF3370
     /tmp/ccP2IRDu.s:73010  .debug_str:0000000000007604 .LASF3371
     /tmp/ccP2IRDu.s:71630  .debug_str:0000000000003d38 .LASF3372
     /tmp/ccP2IRDu.s:73210  .debug_str:0000000000007f28 .LASF3373
     /tmp/ccP2IRDu.s:74320  .debug_str:000000000000ab39 .LASF3374
     /tmp/ccP2IRDu.s:76912  .debug_str:00000000000119bf .LASF3375
     /tmp/ccP2IRDu.s:76914  .debug_str:00000000000119c5 .LASF3376
     /tmp/ccP2IRDu.s:76916  .debug_str:00000000000119cb .LASF3377
     /tmp/ccP2IRDu.s:75208  .debug_str:000000000000d205 .LASF3378
     /tmp/ccP2IRDu.s:73582  .debug_str:0000000000008f0e .LASF3379
     /tmp/ccP2IRDu.s:75052  .debug_str:000000000000cb6d .LASF3380
     /tmp/ccP2IRDu.s:75542  .debug_str:000000000000e0ba .LASF3381
     /tmp/ccP2IRDu.s:72092  .debug_str:0000000000004f3f .LASF3382
     /tmp/ccP2IRDu.s:70494  .debug_str:0000000000000d58 .LASF3383
     /tmp/ccP2IRDu.s:74732  .debug_str:000000000000bc7b .LASF3384
     /tmp/ccP2IRDu.s:71202  .debug_str:0000000000002ac9 .LASF3385
     /tmp/ccP2IRDu.s:77006  .debug_str:0000000000011dea .LASF3386
     /tmp/ccP2IRDu.s:70252  .debug_str:000000000000041c .LASF3387
     /tmp/ccP2IRDu.s:73912  .debug_str:0000000000009c85 .LASF3388
     /tmp/ccP2IRDu.s:75682  .debug_str:000000000000e70a .LASF3389
     /tmp/ccP2IRDu.s:76870  .debug_str:0000000000011810 .LASF3390
     /tmp/ccP2IRDu.s:70630  .debug_str:0000000000001279 .LASF3391
     /tmp/ccP2IRDu.s:74644  .debug_str:000000000000b805 .LASF3392
     /tmp/ccP2IRDu.s:77360  .debug_str:0000000000012d5c .LASF3393
     /tmp/ccP2IRDu.s:70226  .debug_str:00000000000002ff .LASF3394
     /tmp/ccP2IRDu.s:72586  .debug_str:0000000000006325 .LASF3395
     /tmp/ccP2IRDu.s:74704  .debug_str:000000000000baf6 .LASF3396
     /tmp/ccP2IRDu.s:73272  .debug_str:00000000000081ab .LASF3397
     /tmp/ccP2IRDu.s:73878  .debug_str:0000000000009b7c .LASF3398
     /tmp/ccP2IRDu.s:74830  .debug_str:000000000000c0db .LASF3399
     /tmp/ccP2IRDu.s:73990  .debug_str:0000000000009f4d .LASF3400
     /tmp/ccP2IRDu.s:73608  .debug_str:0000000000009041 .LASF3401
     /tmp/ccP2IRDu.s:72562  .debug_str:0000000000006257 .LASF3402
     /tmp/ccP2IRDu.s:75108  .debug_str:000000000000ce08 .LASF3403
     /tmp/ccP2IRDu.s:74958  .debug_str:000000000000c6f0 .LASF3404
     /tmp/ccP2IRDu.s:75316  .debug_str:000000000000d6e2 .LASF3405
     /tmp/ccP2IRDu.s:72438  .debug_str:0000000000005c53 .LASF3406
     /tmp/ccP2IRDu.s:77042  .debug_str:0000000000011f9c .LASF3407
     /tmp/ccP2IRDu.s:72084  .debug_str:0000000000004f04 .LASF3408
     /tmp/ccP2IRDu.s:77112  .debug_str:000000000001224f .LASF3409
     /tmp/ccP2IRDu.s:76532  .debug_str:0000000000010aca .LASF3410
     /tmp/ccP2IRDu.s:75700  .debug_str:000000000000e7b2 .LASF3411
     /tmp/ccP2IRDu.s:73648  .debug_str:00000000000091d6 .LASF3412
     /tmp/ccP2IRDu.s:73158  .debug_str:0000000000007cd4 .LASF3413
     /tmp/ccP2IRDu.s:72524  .debug_str:000000000000606e .LASF3414
     /tmp/ccP2IRDu.s:77202  .debug_str:00000000000125f4 .LASF3415
     /tmp/ccP2IRDu.s:76778  .debug_str:000000000001143e .LASF3416
     /tmp/ccP2IRDu.s:74180  .debug_str:000000000000a609 .LASF3417
     /tmp/ccP2IRDu.s:73176  .debug_str:0000000000007db5 .LASF3418
     /tmp/ccP2IRDu.s:76082  .debug_str:000000000000f88f .LASF3419
     /tmp/ccP2IRDu.s:76084  .debug_str:000000000000f895 .LASF3420
     /tmp/ccP2IRDu.s:71358  .debug_str:00000000000031a1 .LASF3421
     /tmp/ccP2IRDu.s:72596  .debug_str:0000000000006387 .LASF3422
     /tmp/ccP2IRDu.s:73552  .debug_str:0000000000008d4e .LASF3423
     /tmp/ccP2IRDu.s:71542  .debug_str:0000000000003944 .LASF3424
     /tmp/ccP2IRDu.s:77060  .debug_str:000000000001206a .LASF3425
     /tmp/ccP2IRDu.s:71270  .debug_str:0000000000002dc3 .LASF3426
     /tmp/ccP2IRDu.s:70448  .debug_str:0000000000000bde .LASF3427
     /tmp/ccP2IRDu.s:70946  .debug_str:0000000000001f57 .LASF3428
     /tmp/ccP2IRDu.s:74078  .debug_str:000000000000a275 .LASF3429
     /tmp/ccP2IRDu.s:75268  .debug_str:000000000000d518 .LASF3430
     /tmp/ccP2IRDu.s:76132  .debug_str:000000000000fa5c .LASF3431
     /tmp/ccP2IRDu.s:76060  .debug_str:000000000000f7ad .LASF3432
     /tmp/ccP2IRDu.s:74978  .debug_str:000000000000c7e9 .LASF3433
     /tmp/ccP2IRDu.s:72344  .debug_str:00000000000058ef .LASF3434
     /tmp/ccP2IRDu.s:70532  .debug_str:0000000000000ec8 .LASF3435
     /tmp/ccP2IRDu.s:71326  .debug_str:0000000000003022 .LASF3436
     /tmp/ccP2IRDu.s:76770  .debug_str:00000000000113e3 .LASF3437
     /tmp/ccP2IRDu.s:70842  .debug_str:0000000000001af4 .LASF3438
     /tmp/ccP2IRDu.s:70798  .debug_str:0000000000001937 .LASF3439
     /tmp/ccP2IRDu.s:72066  .debug_str:0000000000004e80 .LASF3440
     /tmp/ccP2IRDu.s:72068  .debug_str:0000000000004e8a .LASF3441
     /tmp/ccP2IRDu.s:72070  .debug_str:0000000000004e94 .LASF3442
     /tmp/ccP2IRDu.s:72072  .debug_str:0000000000004e9e .LASF3443
     /tmp/ccP2IRDu.s:72074  .debug_str:0000000000004ea8 .LASF3444
     /tmp/ccP2IRDu.s:76152  .debug_str:000000000000fb39 .LASF3445
     /tmp/ccP2IRDu.s:72076  .debug_str:0000000000004eb2 .LASF3446
     /tmp/ccP2IRDu.s:76004  .debug_str:000000000000f4c6 .LASF3447
     /tmp/ccP2IRDu.s:70964  .debug_str:0000000000002023 .LASF3448
     /tmp/ccP2IRDu.s:77178  .debug_str:0000000000012507 .LASF3449
     /tmp/ccP2IRDu.s:75606  .debug_str:000000000000e378 .LASF3450
     /tmp/ccP2IRDu.s:77086  .debug_str:0000000000012121 .LASF3451
     /tmp/ccP2IRDu.s:70950  .debug_str:0000000000001f81 .LASF3452
     /tmp/ccP2IRDu.s:76894  .debug_str:0000000000011948 .LASF3453
     /tmp/ccP2IRDu.s:75608  .debug_str:000000000000e383 .LASF3454
     /tmp/ccP2IRDu.s:76400  .debug_str:00000000000105de .LASF3455
     /tmp/ccP2IRDu.s:72184  .debug_str:00000000000052bb .LASF3456
     /tmp/ccP2IRDu.s:75610  .debug_str:000000000000e38e .LASF3457
     /tmp/ccP2IRDu.s:75714  .debug_str:000000000000e85b .LASF3458
     /tmp/ccP2IRDu.s:77296  .debug_str:0000000000012ac9 .LASF3459
     /tmp/ccP2IRDu.s:73312  .debug_str:000000000000838b .LASF3460
     /tmp/ccP2IRDu.s:73262  .debug_str:000000000000814f .LASF3461
     /tmp/ccP2IRDu.s:70998  .debug_str:00000000000021b4 .LASF3462
     /tmp/ccP2IRDu.s:70812  .debug_str:00000000000019d3 .LASF3463
     /tmp/ccP2IRDu.s:76204  .debug_str:000000000000fd6f .LASF3464
     /tmp/ccP2IRDu.s:70722  .debug_str:00000000000015d1 .LASF3465
     /tmp/ccP2IRDu.s:76206  .debug_str:000000000000fd7a .LASF3466
     /tmp/ccP2IRDu.s:75738  .debug_str:000000000000e9b3 .LASF3467
     /tmp/ccP2IRDu.s:74996  .debug_str:000000000000c8cf .LASF3468
     /tmp/ccP2IRDu.s:74672  .debug_str:000000000000b956 .LASF3469
     /tmp/ccP2IRDu.s:74998  .debug_str:000000000000c8da .LASF3470
     /tmp/ccP2IRDu.s:71900  .debug_str:00000000000048c3 .LASF3471
     /tmp/ccP2IRDu.s:76488  .debug_str:000000000001094f .LASF3472
     /tmp/ccP2IRDu.s:76814  .debug_str:00000000000115a7 .LASF3473
     /tmp/ccP2IRDu.s:75522  .debug_str:000000000000e000 .LASF3474
     /tmp/ccP2IRDu.s:71592  .debug_str:0000000000003b96 .LASF3475
     /tmp/ccP2IRDu.s:74082  .debug_str:000000000000a2a1 .LASF3476
     /tmp/ccP2IRDu.s:76762  .debug_str:0000000000011393 .LASF3477
     /tmp/ccP2IRDu.s:72762  .debug_str:0000000000006b2c .LASF3478
     /tmp/ccP2IRDu.s:74252  .debug_str:000000000000a8a8 .LASF3479
     /tmp/ccP2IRDu.s:74404  .debug_str:000000000000ae4e .LASF3480
     /tmp/ccP2IRDu.s:73220  .debug_str:0000000000007f5b .LASF3481
     /tmp/ccP2IRDu.s:74406  .debug_str:000000000000ae59 .LASF3482
     /tmp/ccP2IRDu.s:75148  .debug_str:000000000000cf88 .LASF3483
     /tmp/ccP2IRDu.s:74408  .debug_str:000000000000ae64 .LASF3484
     /tmp/ccP2IRDu.s:75488  .debug_str:000000000000dea4 .LASF3485
     /tmp/ccP2IRDu.s:70368  .debug_str:0000000000000910 .LASF3486
     /tmp/ccP2IRDu.s:72488  .debug_str:0000000000005eca .LASF3487
     /tmp/ccP2IRDu.s:72088  .debug_str:0000000000004f29 .LASF3488
     /tmp/ccP2IRDu.s:74876  .debug_str:000000000000c33b .LASF3489
     /tmp/ccP2IRDu.s:72090  .debug_str:0000000000004f34 .LASF3490
     /tmp/ccP2IRDu.s:75206  .debug_str:000000000000d1de .LASF3491
     /tmp/ccP2IRDu.s:73710  .debug_str:00000000000094bf .LASF3492
     /tmp/ccP2IRDu.s:71750  .debug_str:0000000000004276 .LASF3493
     /tmp/ccP2IRDu.s:73712  .debug_str:00000000000094ca .LASF3494
     /tmp/ccP2IRDu.s:72668  .debug_str:00000000000066ae .LASF3495
     /tmp/ccP2IRDu.s:73714  .debug_str:00000000000094d5 .LASF3496
     /tmp/ccP2IRDu.s:75678  .debug_str:000000000000e6d4 .LASF3497
     /tmp/ccP2IRDu.s:75340  .debug_str:000000000000d7e7 .LASF3498
     /tmp/ccP2IRDu.s:73342  .debug_str:00000000000084f0 .LASF3499
     /tmp/ccP2IRDu.s:72318  .debug_str:0000000000005798 .LASF3500
     /tmp/ccP2IRDu.s:77012  .debug_str:0000000000011e4e .LASF3501
     /tmp/ccP2IRDu.s:72326  .debug_str:00000000000057e3 .LASF3502
     /tmp/ccP2IRDu.s:76390  .debug_str:0000000000010585 .LASF3503
     /tmp/ccP2IRDu.s:76392  .debug_str:0000000000010596 .LASF3504
     /tmp/ccP2IRDu.s:76394  .debug_str:00000000000105a7 .LASF3505
     /tmp/ccP2IRDu.s:70574  .debug_str:0000000000001015 .LASF3506
     /tmp/ccP2IRDu.s:77488  .debug_str:000000000001329b .LASF3507
     /tmp/ccP2IRDu.s:72872  .debug_str:0000000000006f57 .LASF3508
     /tmp/ccP2IRDu.s:72926  .debug_str:00000000000071e6 .LASF3509
     /tmp/ccP2IRDu.s:74746  .debug_str:000000000000bcf4 .LASF3510
     /tmp/ccP2IRDu.s:75754  .debug_str:000000000000ea6b .LASF3511
     /tmp/ccP2IRDu.s:73302  .debug_str:000000000000832f .LASF3512
     /tmp/ccP2IRDu.s:73242  .debug_str:0000000000008097 .LASF3513
     /tmp/ccP2IRDu.s:72626  .debug_str:00000000000064d5 .LASF3514
     /tmp/ccP2IRDu.s:74740  .debug_str:000000000000bcc6 .LASF3515
     /tmp/ccP2IRDu.s:72622  .debug_str:000000000000648b .LASF3516
     /tmp/ccP2IRDu.s:76750  .debug_str:000000000001130f .LASF3517
     /tmp/ccP2IRDu.s:74748  .debug_str:000000000000bd03 .LASF3518
     /tmp/ccP2IRDu.s:74196  .debug_str:000000000000a6b4 .LASF3519
     /tmp/ccP2IRDu.s:70804  .debug_str:0000000000001974 .LASF3520
     /tmp/ccP2IRDu.s:73506  .debug_str:0000000000008ba7 .LASF3521
     /tmp/ccP2IRDu.s:77084  .debug_str:0000000000012115 .LASF3522
     /tmp/ccP2IRDu.s:74054  .debug_str:000000000000a185 .LASF3523
     /tmp/ccP2IRDu.s:70346  .debug_str:0000000000000814 .LASF3554
     /tmp/ccP2IRDu.s:77326  .debug_str:0000000000012bef .LASF3524
     /tmp/ccP2IRDu.s:74898  .debug_str:000000000000c42f .LASF3525
     /tmp/ccP2IRDu.s:74478  .debug_str:000000000000b0a7 .LASF3526
     /tmp/ccP2IRDu.s:71748  .debug_str:000000000000426b .LASF3527
     /tmp/ccP2IRDu.s:72846  .debug_str:0000000000006e32 .LASF3528
     /tmp/ccP2IRDu.s:75110  .debug_str:000000000000ce19 .LASF3529
     /tmp/ccP2IRDu.s:75804  .debug_str:000000000000ec65 .LASF3530
     /tmp/ccP2IRDu.s:70782  .debug_str:0000000000001863 .LASF3531
     /tmp/ccP2IRDu.s:71734  .debug_str:00000000000041e4 .LASF3532
     /tmp/ccP2IRDu.s:76824  .debug_str:0000000000011629 .LASF3533
     /tmp/ccP2IRDu.s:73072  .debug_str:00000000000078b2 .LASF3534
     /tmp/ccP2IRDu.s:76904  .debug_str:000000000001198b .LASF3535
     /tmp/ccP2IRDu.s:76906  .debug_str:0000000000011996 .LASF3536
     /tmp/ccP2IRDu.s:70700  .debug_str:00000000000014ec .LASF3537
     /tmp/ccP2IRDu.s:71780  .debug_str:00000000000043cd .LASF3538
     /tmp/ccP2IRDu.s:76314  .debug_str:00000000000102f6 .LASF3539
     /tmp/ccP2IRDu.s:75062  .debug_str:000000000000cc0b .LASF3540
     /tmp/ccP2IRDu.s:71744  .debug_str:0000000000004251 .LASF3541
     /tmp/ccP2IRDu.s:76388  .debug_str:000000000001057c .LASF3542
     /tmp/ccP2IRDu.s:74818  .debug_str:000000000000c04b .LASF3543
     /tmp/ccP2IRDu.s:77396  .debug_str:0000000000012ec3 .LASF3544
     /tmp/ccP2IRDu.s:75516  .debug_str:000000000000dfd0 .LASF3545
     /tmp/ccP2IRDu.s:75060  .debug_str:000000000000cbfb .LASF3546
     /tmp/ccP2IRDu.s:75688  .debug_str:000000000000e744 .LASF3547
     /tmp/ccP2IRDu.s:70266  .debug_str:00000000000004ad .LASF3548
     /tmp/ccP2IRDu.s:74218  .debug_str:000000000000a79b .LASF3549
     /tmp/ccP2IRDu.s:72408  .debug_str:0000000000005bb0 .LASF3550
     /tmp/ccP2IRDu.s:76692  .debug_str:00000000000110d3 .LASF3551
     /tmp/ccP2IRDu.s:75382  .debug_str:000000000000d9f9 .LASF3552
     /tmp/ccP2IRDu.s:71138  .debug_str:0000000000002846 .LASF3553
     /tmp/ccP2IRDu.s:72268  .debug_str:00000000000055cb .LASF3555
     /tmp/ccP2IRDu.s:75300  .debug_str:000000000000d660 .LASF3556
     /tmp/ccP2IRDu.s:75040  .debug_str:000000000000cad7 .LASF3557
     /tmp/ccP2IRDu.s:73918  .debug_str:0000000000009cd5 .LASF3558
     /tmp/ccP2IRDu.s:72050  .debug_str:0000000000004e12 .LASF3559
     /tmp/ccP2IRDu.s:71080  .debug_str:00000000000024f4 .LASF3560
     /tmp/ccP2IRDu.s:72054  .debug_str:0000000000004e35 .LASF3561
     /tmp/ccP2IRDu.s:77510  .debug_str:00000000000133c8 .LASF3562
     /tmp/ccP2IRDu.s:77512  .debug_str:00000000000133db .LASF3563
     /tmp/ccP2IRDu.s:74124  .debug_str:000000000000a3f6 .LASF3564
     /tmp/ccP2IRDu.s:73118  .debug_str:0000000000007b24 .LASF3565
     /tmp/ccP2IRDu.s:74128  .debug_str:000000000000a439 .LASF3566
     /tmp/ccP2IRDu.s:74130  .debug_str:000000000000a44a .LASF3567
     /tmp/ccP2IRDu.s:73122  .debug_str:0000000000007b5b .LASF3568
     /tmp/ccP2IRDu.s:74822  .debug_str:000000000000c07c .LASF3569
     /tmp/ccP2IRDu.s:74824  .debug_str:000000000000c08c .LASF3570
     /tmp/ccP2IRDu.s:74206  .debug_str:000000000000a71e .LASF3571
     /tmp/ccP2IRDu.s:75168  .debug_str:000000000000d089 .LASF3572
     /tmp/ccP2IRDu.s:75152  .debug_str:000000000000cfd5 .LASF3573
     /tmp/ccP2IRDu.s:75154  .debug_str:000000000000cfe5 .LASF3574
     /tmp/ccP2IRDu.s:75798  .debug_str:000000000000ec41 .LASF3575
     /tmp/ccP2IRDu.s:75828  .debug_str:000000000000ed75 .LASF3576
     /tmp/ccP2IRDu.s:74306  .debug_str:000000000000aacc .LASF3577
     /tmp/ccP2IRDu.s:73616  .debug_str:000000000000908c .LASF3578
     /tmp/ccP2IRDu.s:73618  .debug_str:000000000000909d .LASF3579
     /tmp/ccP2IRDu.s:73620  .debug_str:00000000000090ae .LASF3580
     /tmp/ccP2IRDu.s:74250  .debug_str:000000000000a899 .LASF3581
     /tmp/ccP2IRDu.s:74932  .debug_str:000000000000c5fe .LASF3582
     /tmp/ccP2IRDu.s:77320  .debug_str:0000000000012baf .LASF3583
     /tmp/ccP2IRDu.s:75788  .debug_str:000000000000ebdf .LASF3584
     /tmp/ccP2IRDu.s:77368  .debug_str:0000000000012db3 .LASF3585
     /tmp/ccP2IRDu.s:74980  .debug_str:000000000000c7f0 .LASF3586
     /tmp/ccP2IRDu.s:73306  .debug_str:0000000000008348 .LASF3587
     /tmp/ccP2IRDu.s:74506  .debug_str:000000000000b1e8 .LASF3588
     /tmp/ccP2IRDu.s:74056  .debug_str:000000000000a18e .LASF3589
     /tmp/ccP2IRDu.s:71624  .debug_str:0000000000003d0e .LASF3590
     /tmp/ccP2IRDu.s:71026  .debug_str:00000000000022e3 .LASF3591
     /tmp/ccP2IRDu.s:75360  .debug_str:000000000000d8cc .LASF3592
     /tmp/ccP2IRDu.s:71028  .debug_str:00000000000022f3 .LASF3593
     /tmp/ccP2IRDu.s:73226  .debug_str:0000000000007fb3 .LASF3594
     /tmp/ccP2IRDu.s:71108  .debug_str:0000000000002666 .LASF3595
     /tmp/ccP2IRDu.s:76066  .debug_str:000000000000f7ef .LASF3596
     /tmp/ccP2IRDu.s:75642  .debug_str:000000000000e526 .LASF3597
     /tmp/ccP2IRDu.s:71804  .debug_str:0000000000004521 .LASF3598
     /tmp/ccP2IRDu.s:75702  .debug_str:000000000000e7bd .LASF3599
     /tmp/ccP2IRDu.s:76860  .debug_str:0000000000011773 .LASF3600
     /tmp/ccP2IRDu.s:75498  .debug_str:000000000000df09 .LASF3601
     /tmp/ccP2IRDu.s:70732  .debug_str:0000000000001635 .LASF3602
     /tmp/ccP2IRDu.s:71046  .debug_str:00000000000023ae .LASF3603
     /tmp/ccP2IRDu.s:75746  .debug_str:000000000000ea04 .LASF3604
     /tmp/ccP2IRDu.s:75308  .debug_str:000000000000d6a6 .LASF3605
     /tmp/ccP2IRDu.s:76980  .debug_str:0000000000011ca9 .LASF3606
     /tmp/ccP2IRDu.s:74414  .debug_str:000000000000aead .LASF3607
     /tmp/ccP2IRDu.s:75006  .debug_str:000000000000c947 .LASF3608
     /tmp/ccP2IRDu.s:75008  .debug_str:000000000000c951 .LASF3609
     /tmp/ccP2IRDu.s:76546  .debug_str:0000000000010be3 .LASF3610
     /tmp/ccP2IRDu.s:76548  .debug_str:0000000000010bed .LASF3611
     /tmp/ccP2IRDu.s:76550  .debug_str:0000000000010bf7 .LASF3612
     /tmp/ccP2IRDu.s:73298  .debug_str:0000000000008309 .LASF3613
     /tmp/ccP2IRDu.s:71442  .debug_str:0000000000003540 .LASF3614
     /tmp/ccP2IRDu.s:76312  .debug_str:00000000000102ea .LASF3615
     /tmp/ccP2IRDu.s:74712  .debug_str:000000000000bb57 .LASF3616
     /tmp/ccP2IRDu.s:75820  .debug_str:000000000000ed0e .LASF3617
     /tmp/ccP2IRDu.s:76216  .debug_str:000000000000fdee .LASF3618
     /tmp/ccP2IRDu.s:74018  .debug_str:000000000000a08b .LASF3619
     /tmp/ccP2IRDu.s:75428  .debug_str:000000000000dc54 .LASF3620
     /tmp/ccP2IRDu.s:76454  .debug_str:00000000000107e5 .LASF3621
     /tmp/ccP2IRDu.s:75048  .debug_str:000000000000cb4e .LASF3622
     /tmp/ccP2IRDu.s:70728  .debug_str:000000000000161f .LASF3623
     /tmp/ccP2IRDu.s:74680  .debug_str:000000000000b9dd .LASF3624
     /tmp/ccP2IRDu.s:71680  .debug_str:0000000000003fd7 .LASF3625
     /tmp/ccP2IRDu.s:76586  .debug_str:0000000000010ccb .LASF3626
     /tmp/ccP2IRDu.s:77522  .debug_str:0000000000013441 .LASF3627
     /tmp/ccP2IRDu.s:76524  .debug_str:0000000000010a65 .LASF3628
     /tmp/ccP2IRDu.s:77402  .debug_str:0000000000012f16 .LASF3629
     /tmp/ccP2IRDu.s:71212  .debug_str:0000000000002b3a .LASF3630
     /tmp/ccP2IRDu.s:71588  .debug_str:0000000000003b65 .LASF3631
     /tmp/ccP2IRDu.s:76910  .debug_str:00000000000119ae .LASF3632
     /tmp/ccP2IRDu.s:74094  .debug_str:000000000000a324 .LASF3633
     /tmp/ccP2IRDu.s:73114  .debug_str:0000000000007aeb .LASF3634
     /tmp/ccP2IRDu.s:70418  .debug_str:0000000000000ab4 .LASF3635
     /tmp/ccP2IRDu.s:71386  .debug_str:00000000000032ae .LASF3636
     /tmp/ccP2IRDu.s:71018  .debug_str:00000000000022aa .LASF3637
     /tmp/ccP2IRDu.s:73240  .debug_str:0000000000008087 .LASF3638
     /tmp/ccP2IRDu.s:74844  .debug_str:000000000000c1ac .LASF3639
     /tmp/ccP2IRDu.s:70194  .debug_str:0000000000000170 .LASF3640
     /tmp/ccP2IRDu.s:77218  .debug_str:00000000000126d3 .LASF3641
     /tmp/ccP2IRDu.s:71706  .debug_str:00000000000040f9 .LASF3642
     /tmp/ccP2IRDu.s:77082  .debug_str:0000000000012102 .LASF3643
     /tmp/ccP2IRDu.s:72256  .debug_str:000000000000554a .LASF3644
     /tmp/ccP2IRDu.s:71208  .debug_str:0000000000002afc .LASF3645
     /tmp/ccP2IRDu.s:72610  .debug_str:0000000000006423 .LASF3646
     /tmp/ccP2IRDu.s:73152  .debug_str:0000000000007caf .LASF3647
     /tmp/ccP2IRDu.s:72664  .debug_str:0000000000006694 .LASF3648
     /tmp/ccP2IRDu.s:77260  .debug_str:00000000000128bb .LASF3649
     /tmp/ccP2IRDu.s:72522  .debug_str:000000000000605e .LASF3650
     /tmp/ccP2IRDu.s:73396  .debug_str:000000000000873f .LASF3651
     /tmp/ccP2IRDu.s:75164  .debug_str:000000000000d069 .LASF3652
     /tmp/ccP2IRDu.s:71544  .debug_str:000000000000394c .LASF3653
     /tmp/ccP2IRDu.s:70746  .debug_str:00000000000016c6 .LASF3654
     /tmp/ccP2IRDu.s:73416  .debug_str:0000000000008804 .LASF3655
     /tmp/ccP2IRDu.s:71736  .debug_str:00000000000041ec .LASF3656
     /tmp/ccP2IRDu.s:72772  .debug_str:0000000000006b99 .LASF3657
     /tmp/ccP2IRDu.s:70570  .debug_str:0000000000000ff4 .LASF3658
     /tmp/ccP2IRDu.s:74938  .debug_str:000000000000c630 .LASF3659
     /tmp/ccP2IRDu.s:71364  .debug_str:00000000000031bf .LASF3660
     /tmp/ccP2IRDu.s:73588  .debug_str:0000000000008f48 .LASF3661
     /tmp/ccP2IRDu.s:71156  .debug_str:0000000000002904 .LASF3662
     /tmp/ccP2IRDu.s:76278  .debug_str:0000000000010145 .LASF3663
     /tmp/ccP2IRDu.s:71190  .debug_str:0000000000002a68 .LASF3664
     /tmp/ccP2IRDu.s:71196  .debug_str:0000000000002a95 .LASF3665
     /tmp/ccP2IRDu.s:73502  .debug_str:0000000000008b93 .LASF3666
     /tmp/ccP2IRDu.s:73772  .debug_str:0000000000009705 .LASF3667
     /tmp/ccP2IRDu.s:75490  .debug_str:000000000000decb .LASF3668
     /tmp/ccP2IRDu.s:74494  .debug_str:000000000000b16a .LASF3669
     /tmp/ccP2IRDu.s:72782  .debug_str:0000000000006bf5 .LASF3670
     /tmp/ccP2IRDu.s:73924  .debug_str:0000000000009d02 .LASF3671
     /tmp/ccP2IRDu.s:74554  .debug_str:000000000000b3ed .LASF3672
     /tmp/ccP2IRDu.s:75914  .debug_str:000000000000f0e5 .LASF3673
     /tmp/ccP2IRDu.s:75310  .debug_str:000000000000d6b2 .LASF3674
     /tmp/ccP2IRDu.s:73032  .debug_str:000000000000771c .LASF3675
     /tmp/ccP2IRDu.s:74888  .debug_str:000000000000c3c4 .LASF3676
     /tmp/ccP2IRDu.s:77518  .debug_str:000000000001341b .LASF3677
     /tmp/ccP2IRDu.s:74642  .debug_str:000000000000b7f4 .LASF3678
     /tmp/ccP2IRDu.s:77310  .debug_str:0000000000012b4e .LASF3683
     /tmp/ccP2IRDu.s:71652  .debug_str:0000000000003e48 .LASF3696
     /tmp/ccP2IRDu.s:72968  .debug_str:00000000000073a7 .LASF3679
     /tmp/ccP2IRDu.s:75806  .debug_str:000000000000ec71 .LASF3680
     /tmp/ccP2IRDu.s:72178  .debug_str:00000000000052a1 .LASF3681
     /tmp/ccP2IRDu.s:73016  .debug_str:000000000000765f .LASF3682
     /tmp/ccP2IRDu.s:72912  .debug_str:0000000000007156 .LASF3685
     /tmp/ccP2IRDu.s:845    .text.ddr_pvt_recalibration:0000000000000000 .LFB28
     /tmp/ccP2IRDu.s:927    .text.ddr_pvt_recalibration:000000000000006c .LFE28
     /tmp/ccP2IRDu.s:77088  .debug_str:0000000000012148 .LASF3684
     /tmp/ccP2IRDu.s:77366  .debug_str:0000000000012d9f .LASF3686
     /tmp/ccP2IRDu.s:710    .text.ddr_pvt_calibration:0000000000000000 .LFB27
     /tmp/ccP2IRDu.s:838    .text.ddr_pvt_calibration:000000000000009e .LFE27
     /tmp/ccP2IRDu.s:73374  .debug_str:000000000000866d .LASF3687
     /tmp/ccP2IRDu.s:662    .text.sgmii_off_mode:0000000000000000 .LFB26
     /tmp/ccP2IRDu.s:703    .text.sgmii_off_mode:0000000000000038 .LFE26
     /tmp/ccP2IRDu.s:689    .text.sgmii_off_mode:000000000000002a .LVL17
     /tmp/ccP2IRDu.s:75252  .debug_str:000000000000d437 .LASF3697
     /tmp/ccP2IRDu.s:13     .text.setup_sgmii_rpc_per_config:0000000000000000 .LFB25
     /tmp/ccP2IRDu.s:57     .text.setup_sgmii_rpc_per_config:0000000000000056 .LFE25
     /tmp/ccP2IRDu.s:75262  .debug_str:000000000000d4d9 .LASF3698
     /tmp/ccP2IRDu.s:71846  .debug_str:00000000000046d8 .LASF3688
     /tmp/ccP2IRDu.s:73784  .debug_str:0000000000009775 .LASF3699
     /tmp/ccP2IRDu.s:64     .text.sgmii_setup:0000000000000000 .LFB23
     /tmp/ccP2IRDu.s:655    .text.sgmii_setup:0000000000000368 .LFE23
     /tmp/ccP2IRDu.s:80     .text.sgmii_setup:000000000000000a .LBB12
     /tmp/ccP2IRDu.s:84     .text.sgmii_setup:000000000000000c .LBB14
     /tmp/ccP2IRDu.s:69955  .debug_loc:0000000000000000 .LLST0
     /tmp/ccP2IRDu.s:69963  .debug_loc:0000000000000024 .LLST1
     /tmp/ccP2IRDu.s:69971  .debug_loc:0000000000000048 .LLST2
     /tmp/ccP2IRDu.s:69982  .debug_loc:000000000000006f .LLST3
     /tmp/ccP2IRDu.s:92     .text.sgmii_setup:0000000000000012 .LBB18
     /tmp/ccP2IRDu.s:69992  .debug_loc:0000000000000095 .LLST4
     /tmp/ccP2IRDu.s:70000  .debug_loc:00000000000000b9 .LLST5
     /tmp/ccP2IRDu.s:70008  .debug_loc:00000000000000dd .LLST6
     /tmp/ccP2IRDu.s:70019  .debug_loc:0000000000000104 .LLST7
     /tmp/ccP2IRDu.s:467    .text.sgmii_setup:0000000000000278 .LBB24
     /tmp/ccP2IRDu.s:490    .text.sgmii_setup:0000000000000290 .LBE24
     /tmp/ccP2IRDu.s:70029  .debug_loc:000000000000012a .LLST8
     /tmp/ccP2IRDu.s:70037  .debug_loc:000000000000014e .LLST9
     /tmp/ccP2IRDu.s:468    .text.sgmii_setup:0000000000000278 .LBB25
     /tmp/ccP2IRDu.s:489    .text.sgmii_setup:0000000000000290 .LBE25
     /tmp/ccP2IRDu.s:70045  .debug_loc:0000000000000172 .LLST10
     /tmp/ccP2IRDu.s:70056  .debug_loc:0000000000000199 .LLST11
     /tmp/ccP2IRDu.s:538    .text.sgmii_setup:00000000000002c8 .LBB27
     /tmp/ccP2IRDu.s:560    .text.sgmii_setup:00000000000002da .LBE27
     /tmp/ccP2IRDu.s:70066  .debug_loc:00000000000001bf .LLST12
     /tmp/ccP2IRDu.s:70074  .debug_loc:00000000000001e3 .LLST13
     /tmp/ccP2IRDu.s:539    .text.sgmii_setup:00000000000002c8 .LBB28
     /tmp/ccP2IRDu.s:559    .text.sgmii_setup:00000000000002da .LBE28
     /tmp/ccP2IRDu.s:70082  .debug_loc:0000000000000207 .LLST14
     /tmp/ccP2IRDu.s:70093  .debug_loc:000000000000022e .LLST15
     /tmp/ccP2IRDu.s:184    .text.sgmii_setup:0000000000000080 .LVL0
     /tmp/ccP2IRDu.s:368    .text.sgmii_setup:00000000000001c6 .LVL1
     /tmp/ccP2IRDu.s:372    .text.sgmii_setup:00000000000001d0 .LVL2
     /tmp/ccP2IRDu.s:418    .text.sgmii_setup:0000000000000222 .LVL3
     /tmp/ccP2IRDu.s:425    .text.sgmii_setup:0000000000000230 .LVL4
     /tmp/ccP2IRDu.s:72938  .debug_str:0000000000007242 .LASF3689
     /tmp/ccP2IRDu.s:71908  .debug_str:0000000000004923 .LASF3690
     /tmp/ccP2IRDu.s:71798  .debug_str:00000000000044ee .LASF3691
     /tmp/ccP2IRDu.s:612    .text.sgmii_setup:000000000000033e .LVL14
     /tmp/ccP2IRDu.s:631    .text.sgmii_setup:000000000000034e .LVL16
     /tmp/ccP2IRDu.s:624    .text.sgmii_setup:0000000000000346 .LVL15
     /tmp/ccP2IRDu.s:508    .text.sgmii_setup:00000000000002ac .LVL8
     /tmp/ccP2IRDu.s:528    .text.sgmii_setup:00000000000002be .LVL10
     /tmp/ccP2IRDu.s:520    .text.sgmii_setup:00000000000002b4 .LVL9
     /tmp/ccP2IRDu.s:466    .text.sgmii_setup:0000000000000278 .LVL5
     /tmp/ccP2IRDu.s:487    .text.sgmii_setup:0000000000000290 .LVL7
     /tmp/ccP2IRDu.s:478    .text.sgmii_setup:0000000000000280 .LVL6
     /tmp/ccP2IRDu.s:537    .text.sgmii_setup:00000000000002c8 .LVL11
     /tmp/ccP2IRDu.s:557    .text.sgmii_setup:00000000000002da .LVL13
     /tmp/ccP2IRDu.s:549    .text.sgmii_setup:00000000000002d0 .LVL12
     /tmp/ccP2IRDu.s:975    .debug_info:0000000000000000 .Ldebug_info0
     /tmp/ccP2IRDu.s:99     .text.sgmii_setup:0000000000000016 .LBE12
     /tmp/ccP2IRDu.s:107    .text.sgmii_setup:000000000000001c .LBB33
     /tmp/ccP2IRDu.s:127    .text.sgmii_setup:000000000000002c .LBE33
     /tmp/ccP2IRDu.s:129    .text.sgmii_setup:000000000000002c .LBB34
     /tmp/ccP2IRDu.s:196    .text.sgmii_setup:0000000000000090 .LBE34
     /tmp/ccP2IRDu.s:224    .text.sgmii_setup:00000000000000b0 .LBB35
     /tmp/ccP2IRDu.s:653    .text.sgmii_setup:0000000000000368 .LBE35
     /tmp/ccP2IRDu.s:89     .text.sgmii_setup:0000000000000010 .LBE14
     /tmp/ccP2IRDu.s:109    .text.sgmii_setup:000000000000001c .LBB22
     /tmp/ccP2IRDu.s:114    .text.sgmii_setup:0000000000000020 .LBE22
     /tmp/ccP2IRDu.s:613    .text.sgmii_setup:000000000000033e .LBB29
     /tmp/ccP2IRDu.s:633    .text.sgmii_setup:000000000000034e .LBE29
     /tmp/ccP2IRDu.s:97     .text.sgmii_setup:0000000000000016 .LBE18
     /tmp/ccP2IRDu.s:119    .text.sgmii_setup:0000000000000028 .LBB23
     /tmp/ccP2IRDu.s:125    .text.sgmii_setup:000000000000002c .LBE23
     /tmp/ccP2IRDu.s:509    .text.sgmii_setup:00000000000002ac .LBB26
     /tmp/ccP2IRDu.s:531    .text.sgmii_setup:00000000000002be .LBE26

UNDEFINED SYMBOLS
CFG_DDR_SGMII_PHY
SCB_REGS
IOSCB_IO_CALIB_SGMII
sgmii_mux_config
sgmii_pll_config_scb
mss_config_clk_rst
IOSCB_IO_CALIB_DDR
