   1              		.file	"mss_io.c"
   2              		.option nopic
   3              		.attribute arch, "rv64i2p0_m2p0_a2p0_f2p0_d2p0_c2p0"
   4              		.attribute unaligned_access, 0
   5              		.attribute stack_align, 16
   6              		.text
   7              	.Ltext0:
   8              		.cfi_sections	.debug_frame
   9              		.section	.text.io_mux_and_bank_config,"ax",@progbits
  10              		.align	1
  12              	io_mux_and_bank_config:
  13              	.LFB24:
  14              		.file 1 "../src/platform/mpfs_hal/common/nwc/mss_io.c"
   1:../src/platform/mpfs_hal/common/nwc/mss_io.c **** /*******************************************************************************
   2:../src/platform/mpfs_hal/common/nwc/mss_io.c ****  * Copyright 2019-2022 Microchip FPGA Embedded Systems Solutions.
   3:../src/platform/mpfs_hal/common/nwc/mss_io.c ****  *
   4:../src/platform/mpfs_hal/common/nwc/mss_io.c ****  * SPDX-License-Identifier: MIT
   5:../src/platform/mpfs_hal/common/nwc/mss_io.c ****  *
   6:../src/platform/mpfs_hal/common/nwc/mss_io.c ****  * MPFS HAL Embedded Software
   7:../src/platform/mpfs_hal/common/nwc/mss_io.c ****  *
   8:../src/platform/mpfs_hal/common/nwc/mss_io.c ****  */
   9:../src/platform/mpfs_hal/common/nwc/mss_io.c **** 
  10:../src/platform/mpfs_hal/common/nwc/mss_io.c **** /*******************************************************************************
  11:../src/platform/mpfs_hal/common/nwc/mss_io.c ****  * @file mss_io.h
  12:../src/platform/mpfs_hal/common/nwc/mss_io.c ****  * @author Microchip-FPGA Embedded Systems Solutions
  13:../src/platform/mpfs_hal/common/nwc/mss_io.c ****  * @brief MSS IO related code
  14:../src/platform/mpfs_hal/common/nwc/mss_io.c ****  *
  15:../src/platform/mpfs_hal/common/nwc/mss_io.c ****  */
  16:../src/platform/mpfs_hal/common/nwc/mss_io.c **** #include <string.h>
  17:../src/platform/mpfs_hal/common/nwc/mss_io.c **** #include <stdio.h>
  18:../src/platform/mpfs_hal/common/nwc/mss_io.c **** 
  19:../src/platform/mpfs_hal/common/nwc/mss_io.c **** #include "mpfs_hal/mss_hal.h"
  20:../src/platform/mpfs_hal/common/nwc/mss_io.c **** #ifdef LIBERO_SETTING_ALT_IOMUX1_CR
  21:../src/platform/mpfs_hal/common/nwc/mss_io.c **** #if ((LIBERO_SETTING_MSSIO_CONFIGURATION_OPTIONS & (EMMC_CONFIGURED_MASK | SD_CONFIGURED_MASK)) == 
  22:../src/platform/mpfs_hal/common/nwc/mss_io.c **** static uint8_t io_mux_and_bank_config_alt(void);
  23:../src/platform/mpfs_hal/common/nwc/mss_io.c **** #endif
  24:../src/platform/mpfs_hal/common/nwc/mss_io.c **** #endif
  25:../src/platform/mpfs_hal/common/nwc/mss_io.c **** 
  26:../src/platform/mpfs_hal/common/nwc/mss_io.c **** /*******************************************************************************
  27:../src/platform/mpfs_hal/common/nwc/mss_io.c ****  * external functions
  28:../src/platform/mpfs_hal/common/nwc/mss_io.c ****  */
  29:../src/platform/mpfs_hal/common/nwc/mss_io.c **** 
  30:../src/platform/mpfs_hal/common/nwc/mss_io.c **** 
  31:../src/platform/mpfs_hal/common/nwc/mss_io.c **** /*
  32:../src/platform/mpfs_hal/common/nwc/mss_io.c ****  * IOMUX values from Libero
  33:../src/platform/mpfs_hal/common/nwc/mss_io.c ****  */
  34:../src/platform/mpfs_hal/common/nwc/mss_io.c **** IOMUX_CONFIG   iomux_config_values = {
  35:../src/platform/mpfs_hal/common/nwc/mss_io.c ****     LIBERO_SETTING_IOMUX0_CR, /* Selects whether the peripheral is connected to
  36:../src/platform/mpfs_hal/common/nwc/mss_io.c ****                                  the Fabric or IOMUX structure. */
  37:../src/platform/mpfs_hal/common/nwc/mss_io.c ****     LIBERO_SETTING_IOMUX1_CR, /* BNK4 SDV PAD 0 to 7, each IO has 4 bits   */
  38:../src/platform/mpfs_hal/common/nwc/mss_io.c ****     LIBERO_SETTING_IOMUX2_CR, /* BNK4 SDV PAD 8 to 13     */
  39:../src/platform/mpfs_hal/common/nwc/mss_io.c ****     LIBERO_SETTING_IOMUX3_CR, /* BNK2 SDV PAD 14 to 21    */
  40:../src/platform/mpfs_hal/common/nwc/mss_io.c ****     LIBERO_SETTING_IOMUX4_CR, /* BNK2 SDV PAD 22 to 29    */
  41:../src/platform/mpfs_hal/common/nwc/mss_io.c ****     LIBERO_SETTING_IOMUX5_CR, /* BNK2 PAD 30 to 37        */
  42:../src/platform/mpfs_hal/common/nwc/mss_io.c ****     LIBERO_SETTING_IOMUX6_CR  /* Sets whether the MMC/SD Voltage select lines
  43:../src/platform/mpfs_hal/common/nwc/mss_io.c ****                                  are inverted on entry to the IOMUX structure */
  44:../src/platform/mpfs_hal/common/nwc/mss_io.c **** };
  45:../src/platform/mpfs_hal/common/nwc/mss_io.c **** 
  46:../src/platform/mpfs_hal/common/nwc/mss_io.c **** #ifdef LIBERO_SETTING_ALT_IOMUX1_CR
  47:../src/platform/mpfs_hal/common/nwc/mss_io.c **** IOMUX_CONFIG   iomux_alt_config_values = {
  48:../src/platform/mpfs_hal/common/nwc/mss_io.c ****     LIBERO_SETTING_ALT_IOMUX0_CR, /* Selects whether the peripheral is connected to
  49:../src/platform/mpfs_hal/common/nwc/mss_io.c ****                                  the Fabric or IOMUX structure. */
  50:../src/platform/mpfs_hal/common/nwc/mss_io.c ****     LIBERO_SETTING_ALT_IOMUX1_CR, /* BNK4 SDV PAD 0 to 7, each IO has 4 bits   */
  51:../src/platform/mpfs_hal/common/nwc/mss_io.c ****     LIBERO_SETTING_ALT_IOMUX2_CR, /* BNK4 SDV PAD 8 to 13     */
  52:../src/platform/mpfs_hal/common/nwc/mss_io.c ****     LIBERO_SETTING_ALT_IOMUX3_CR, /* BNK2 SDV PAD 14 to 21    */
  53:../src/platform/mpfs_hal/common/nwc/mss_io.c ****     LIBERO_SETTING_ALT_IOMUX4_CR, /* BNK2 SDV PAD 22 to 29    */
  54:../src/platform/mpfs_hal/common/nwc/mss_io.c ****     LIBERO_SETTING_ALT_IOMUX5_CR, /* BNK2 PAD 30 to 37        */
  55:../src/platform/mpfs_hal/common/nwc/mss_io.c ****     LIBERO_SETTING_ALT_IOMUX6_CR  /* Sets whether the MMC/SD Voltage select lines
  56:../src/platform/mpfs_hal/common/nwc/mss_io.c ****                                  are inverted on entry to the IOMUX structure */
  57:../src/platform/mpfs_hal/common/nwc/mss_io.c **** };
  58:../src/platform/mpfs_hal/common/nwc/mss_io.c **** #endif
  59:../src/platform/mpfs_hal/common/nwc/mss_io.c **** 
  60:../src/platform/mpfs_hal/common/nwc/mss_io.c **** /*
  61:../src/platform/mpfs_hal/common/nwc/mss_io.c ****  * Bank 4 and 2 settings, the 38 MSSIO.
  62:../src/platform/mpfs_hal/common/nwc/mss_io.c ****  */
  63:../src/platform/mpfs_hal/common/nwc/mss_io.c **** MSSIO_BANK4_CONFIG mssio_bank4_io_config = {
  64:../src/platform/mpfs_hal/common/nwc/mss_io.c ****     /* LIBERO_SETTING_mssio_bank4_io_cfg_0_cr
  65:../src/platform/mpfs_hal/common/nwc/mss_io.c ****         x_vddi Ratio Rx<0-2> == 001
  66:../src/platform/mpfs_hal/common/nwc/mss_io.c ****         drv<3-6> == 1111
  67:../src/platform/mpfs_hal/common/nwc/mss_io.c ****         7:clamp   == 0
  68:../src/platform/mpfs_hal/common/nwc/mss_io.c ****         enhyst   == 0
  69:../src/platform/mpfs_hal/common/nwc/mss_io.c ****         lockdn_en == 1
  70:../src/platform/mpfs_hal/common/nwc/mss_io.c ****         10:wpd  == 0
  71:../src/platform/mpfs_hal/common/nwc/mss_io.c ****         atp_en`== 0
  72:../src/platform/mpfs_hal/common/nwc/mss_io.c ****         lpmd_ibuf  == 0
  73:../src/platform/mpfs_hal/common/nwc/mss_io.c ****         lpmd_obuf == 0
  74:../src/platform/mpfs_hal/common/nwc/mss_io.c ****         persist == 0
  75:../src/platform/mpfs_hal/common/nwc/mss_io.c ****         */
  76:../src/platform/mpfs_hal/common/nwc/mss_io.c ****     LIBERO_SETTING_MSSIO_BANK4_IO_CFG_0_1_CR,
  77:../src/platform/mpfs_hal/common/nwc/mss_io.c ****     LIBERO_SETTING_MSSIO_BANK4_IO_CFG_2_3_CR,
  78:../src/platform/mpfs_hal/common/nwc/mss_io.c ****     LIBERO_SETTING_MSSIO_BANK4_IO_CFG_4_5_CR,
  79:../src/platform/mpfs_hal/common/nwc/mss_io.c ****     LIBERO_SETTING_MSSIO_BANK4_IO_CFG_6_7_CR,
  80:../src/platform/mpfs_hal/common/nwc/mss_io.c ****     LIBERO_SETTING_MSSIO_BANK4_IO_CFG_8_9_CR,
  81:../src/platform/mpfs_hal/common/nwc/mss_io.c ****     LIBERO_SETTING_MSSIO_BANK4_IO_CFG_10_11_CR,
  82:../src/platform/mpfs_hal/common/nwc/mss_io.c ****     LIBERO_SETTING_MSSIO_BANK4_IO_CFG_12_13_CR,
  83:../src/platform/mpfs_hal/common/nwc/mss_io.c **** };
  84:../src/platform/mpfs_hal/common/nwc/mss_io.c **** 
  85:../src/platform/mpfs_hal/common/nwc/mss_io.c **** /*
  86:../src/platform/mpfs_hal/common/nwc/mss_io.c ****  * Bank 4 and 2 settings, the 38 MSSIO.
  87:../src/platform/mpfs_hal/common/nwc/mss_io.c ****  */
  88:../src/platform/mpfs_hal/common/nwc/mss_io.c **** #ifdef LIBERO_SETTING_ALT_IOMUX1_CR
  89:../src/platform/mpfs_hal/common/nwc/mss_io.c **** MSSIO_BANK4_CONFIG mssio_alt_bank4_io_config = {
  90:../src/platform/mpfs_hal/common/nwc/mss_io.c ****     /* LIBERO_SETTING_mssio_bank4_io_cfg_0_cr
  91:../src/platform/mpfs_hal/common/nwc/mss_io.c ****         x_vddi Ratio Rx<0-2> == 001
  92:../src/platform/mpfs_hal/common/nwc/mss_io.c ****         drv<3-6> == 1111
  93:../src/platform/mpfs_hal/common/nwc/mss_io.c ****         7:clamp   == 0
  94:../src/platform/mpfs_hal/common/nwc/mss_io.c ****         enhyst   == 0
  95:../src/platform/mpfs_hal/common/nwc/mss_io.c ****         lockdn_en == 1
  96:../src/platform/mpfs_hal/common/nwc/mss_io.c ****         10:wpd  == 0
  97:../src/platform/mpfs_hal/common/nwc/mss_io.c ****         atp_en`== 0
  98:../src/platform/mpfs_hal/common/nwc/mss_io.c ****         lpmd_ibuf  == 0
  99:../src/platform/mpfs_hal/common/nwc/mss_io.c ****         lpmd_obuf == 0
 100:../src/platform/mpfs_hal/common/nwc/mss_io.c ****         persist == 0
 101:../src/platform/mpfs_hal/common/nwc/mss_io.c ****         */
 102:../src/platform/mpfs_hal/common/nwc/mss_io.c ****     LIBERO_SETTING_ALT_MSSIO_BANK4_IO_CFG_0_1_CR,
 103:../src/platform/mpfs_hal/common/nwc/mss_io.c ****     LIBERO_SETTING_ALT_MSSIO_BANK4_IO_CFG_2_3_CR,
 104:../src/platform/mpfs_hal/common/nwc/mss_io.c ****     LIBERO_SETTING_ALT_MSSIO_BANK4_IO_CFG_4_5_CR,
 105:../src/platform/mpfs_hal/common/nwc/mss_io.c ****     LIBERO_SETTING_ALT_MSSIO_BANK4_IO_CFG_6_7_CR,
 106:../src/platform/mpfs_hal/common/nwc/mss_io.c ****     LIBERO_SETTING_ALT_MSSIO_BANK4_IO_CFG_8_9_CR,
 107:../src/platform/mpfs_hal/common/nwc/mss_io.c ****     LIBERO_SETTING_ALT_MSSIO_BANK4_IO_CFG_10_11_CR,
 108:../src/platform/mpfs_hal/common/nwc/mss_io.c ****     LIBERO_SETTING_ALT_MSSIO_BANK4_IO_CFG_12_13_CR,
 109:../src/platform/mpfs_hal/common/nwc/mss_io.c **** };
 110:../src/platform/mpfs_hal/common/nwc/mss_io.c **** #endif
 111:../src/platform/mpfs_hal/common/nwc/mss_io.c **** 
 112:../src/platform/mpfs_hal/common/nwc/mss_io.c **** /*
 113:../src/platform/mpfs_hal/common/nwc/mss_io.c ****  * Bank 4 and 2 settings, the 38 MSSIO.
 114:../src/platform/mpfs_hal/common/nwc/mss_io.c ****  */
 115:../src/platform/mpfs_hal/common/nwc/mss_io.c **** MSSIO_BANK2_CONFIG mssio_bank2_io_config = {
 116:../src/platform/mpfs_hal/common/nwc/mss_io.c ****     /* LIBERO_SETTING_mssio_bank4_io_cfg_0_cr
 117:../src/platform/mpfs_hal/common/nwc/mss_io.c ****         x_vddi Ratio Rx<0-2> == 001
 118:../src/platform/mpfs_hal/common/nwc/mss_io.c ****         drv<3-6> == 1111
 119:../src/platform/mpfs_hal/common/nwc/mss_io.c ****         7:clamp   == 0
 120:../src/platform/mpfs_hal/common/nwc/mss_io.c ****         enhyst   == 0
 121:../src/platform/mpfs_hal/common/nwc/mss_io.c ****         lockdn_en == 1
 122:../src/platform/mpfs_hal/common/nwc/mss_io.c ****         10:wpd  == 0
 123:../src/platform/mpfs_hal/common/nwc/mss_io.c ****         atp_en`== 0
 124:../src/platform/mpfs_hal/common/nwc/mss_io.c ****         lpmd_ibuf  == 0
 125:../src/platform/mpfs_hal/common/nwc/mss_io.c ****         lpmd_obuf == 0
 126:../src/platform/mpfs_hal/common/nwc/mss_io.c ****         persist == 0
 127:../src/platform/mpfs_hal/common/nwc/mss_io.c ****         */
 128:../src/platform/mpfs_hal/common/nwc/mss_io.c ****     LIBERO_SETTING_MSSIO_BANK2_IO_CFG_0_1_CR,
 129:../src/platform/mpfs_hal/common/nwc/mss_io.c ****     LIBERO_SETTING_MSSIO_BANK2_IO_CFG_2_3_CR,
 130:../src/platform/mpfs_hal/common/nwc/mss_io.c ****     LIBERO_SETTING_MSSIO_BANK2_IO_CFG_4_5_CR,
 131:../src/platform/mpfs_hal/common/nwc/mss_io.c ****     LIBERO_SETTING_MSSIO_BANK2_IO_CFG_6_7_CR,
 132:../src/platform/mpfs_hal/common/nwc/mss_io.c ****     LIBERO_SETTING_MSSIO_BANK2_IO_CFG_8_9_CR,
 133:../src/platform/mpfs_hal/common/nwc/mss_io.c ****     LIBERO_SETTING_MSSIO_BANK2_IO_CFG_10_11_CR,
 134:../src/platform/mpfs_hal/common/nwc/mss_io.c ****     LIBERO_SETTING_MSSIO_BANK2_IO_CFG_12_13_CR,
 135:../src/platform/mpfs_hal/common/nwc/mss_io.c ****     LIBERO_SETTING_MSSIO_BANK2_IO_CFG_14_15_CR,
 136:../src/platform/mpfs_hal/common/nwc/mss_io.c ****     LIBERO_SETTING_MSSIO_BANK2_IO_CFG_16_17_CR,
 137:../src/platform/mpfs_hal/common/nwc/mss_io.c ****     LIBERO_SETTING_MSSIO_BANK2_IO_CFG_18_19_CR,
 138:../src/platform/mpfs_hal/common/nwc/mss_io.c ****     LIBERO_SETTING_MSSIO_BANK2_IO_CFG_20_21_CR,
 139:../src/platform/mpfs_hal/common/nwc/mss_io.c ****     LIBERO_SETTING_MSSIO_BANK2_IO_CFG_22_23_CR
 140:../src/platform/mpfs_hal/common/nwc/mss_io.c **** };
 141:../src/platform/mpfs_hal/common/nwc/mss_io.c **** 
 142:../src/platform/mpfs_hal/common/nwc/mss_io.c **** #ifdef LIBERO_SETTING_ALT_IOMUX1_CR
 143:../src/platform/mpfs_hal/common/nwc/mss_io.c **** MSSIO_BANK2_CONFIG mssio_alt_bank2_io_config = {
 144:../src/platform/mpfs_hal/common/nwc/mss_io.c ****     /* LIBERO_SETTING_mssio_bank4_io_cfg_0_cr
 145:../src/platform/mpfs_hal/common/nwc/mss_io.c ****         x_vddi Ratio Rx<0-2> == 001
 146:../src/platform/mpfs_hal/common/nwc/mss_io.c ****         drv<3-6> == 1111
 147:../src/platform/mpfs_hal/common/nwc/mss_io.c ****         7:clamp   == 0
 148:../src/platform/mpfs_hal/common/nwc/mss_io.c ****         enhyst   == 0
 149:../src/platform/mpfs_hal/common/nwc/mss_io.c ****         lockdn_en == 1
 150:../src/platform/mpfs_hal/common/nwc/mss_io.c ****         10:wpd  == 0
 151:../src/platform/mpfs_hal/common/nwc/mss_io.c ****         atp_en`== 0
 152:../src/platform/mpfs_hal/common/nwc/mss_io.c ****         lpmd_ibuf  == 0
 153:../src/platform/mpfs_hal/common/nwc/mss_io.c ****         lpmd_obuf == 0
 154:../src/platform/mpfs_hal/common/nwc/mss_io.c ****         persist == 0
 155:../src/platform/mpfs_hal/common/nwc/mss_io.c ****         */
 156:../src/platform/mpfs_hal/common/nwc/mss_io.c ****     LIBERO_SETTING_ALT_MSSIO_BANK2_IO_CFG_0_1_CR,
 157:../src/platform/mpfs_hal/common/nwc/mss_io.c ****     LIBERO_SETTING_ALT_MSSIO_BANK2_IO_CFG_2_3_CR,
 158:../src/platform/mpfs_hal/common/nwc/mss_io.c ****     LIBERO_SETTING_ALT_MSSIO_BANK2_IO_CFG_4_5_CR,
 159:../src/platform/mpfs_hal/common/nwc/mss_io.c ****     LIBERO_SETTING_ALT_MSSIO_BANK2_IO_CFG_6_7_CR,
 160:../src/platform/mpfs_hal/common/nwc/mss_io.c ****     LIBERO_SETTING_ALT_MSSIO_BANK2_IO_CFG_8_9_CR,
 161:../src/platform/mpfs_hal/common/nwc/mss_io.c ****     LIBERO_SETTING_ALT_MSSIO_BANK2_IO_CFG_10_11_CR,
 162:../src/platform/mpfs_hal/common/nwc/mss_io.c ****     LIBERO_SETTING_ALT_MSSIO_BANK2_IO_CFG_12_13_CR,
 163:../src/platform/mpfs_hal/common/nwc/mss_io.c ****     LIBERO_SETTING_ALT_MSSIO_BANK2_IO_CFG_14_15_CR,
 164:../src/platform/mpfs_hal/common/nwc/mss_io.c ****     LIBERO_SETTING_ALT_MSSIO_BANK2_IO_CFG_16_17_CR,
 165:../src/platform/mpfs_hal/common/nwc/mss_io.c ****     LIBERO_SETTING_ALT_MSSIO_BANK2_IO_CFG_18_19_CR,
 166:../src/platform/mpfs_hal/common/nwc/mss_io.c ****     LIBERO_SETTING_ALT_MSSIO_BANK2_IO_CFG_20_21_CR,
 167:../src/platform/mpfs_hal/common/nwc/mss_io.c ****     LIBERO_SETTING_ALT_MSSIO_BANK2_IO_CFG_22_23_CR
 168:../src/platform/mpfs_hal/common/nwc/mss_io.c **** };
 169:../src/platform/mpfs_hal/common/nwc/mss_io.c **** #endif
 170:../src/platform/mpfs_hal/common/nwc/mss_io.c **** 
 171:../src/platform/mpfs_hal/common/nwc/mss_io.c **** /*******************************************************************************
 172:../src/platform/mpfs_hal/common/nwc/mss_io.c ****  * Local functions
 173:../src/platform/mpfs_hal/common/nwc/mss_io.c ****  */
 174:../src/platform/mpfs_hal/common/nwc/mss_io.c **** static uint8_t io_mux_and_bank_config(void);
 175:../src/platform/mpfs_hal/common/nwc/mss_io.c **** 
 176:../src/platform/mpfs_hal/common/nwc/mss_io.c **** /***************************************************************************//**
 177:../src/platform/mpfs_hal/common/nwc/mss_io.c ****  *    MSSIO OFF Mode
 178:../src/platform/mpfs_hal/common/nwc/mss_io.c ****  *
 179:../src/platform/mpfs_hal/common/nwc/mss_io.c ****  *    The following settings are applied if MMSIO unused/off
 180:../src/platform/mpfs_hal/common/nwc/mss_io.c ****  *
 181:../src/platform/mpfs_hal/common/nwc/mss_io.c ****  *      The IO Buffers are disabled.
 182:../src/platform/mpfs_hal/common/nwc/mss_io.c ****  *      Output drivers are disabled (set the drv<3:0> bits to 0000, output
 183:../src/platform/mpfs_hal/common/nwc/mss_io.c ****  *      enable "mss_oe" bit to 0)
 184:../src/platform/mpfs_hal/common/nwc/mss_io.c ****  *      Disable the WPU bit set to 0 and enable the WPD bit set to 1.
 185:../src/platform/mpfs_hal/common/nwc/mss_io.c ****  *      Receivers are disabled. (Ibufmd<2:0> set to 7)
 186:../src/platform/mpfs_hal/common/nwc/mss_io.c ****  *
 187:../src/platform/mpfs_hal/common/nwc/mss_io.c ****  *      MSS can enable OFF mode through configurator bit for selective MSSIO
 188:../src/platform/mpfs_hal/common/nwc/mss_io.c ****  *      from Bank2/Bank4 by making drv<3:0>/mss_oe bit to "0" for that
 189:../src/platform/mpfs_hal/common/nwc/mss_io.c ****  *      particular MSSIO making Output driver disabled and ibufmd <2:0>  bit to
 190:../src/platform/mpfs_hal/common/nwc/mss_io.c ****  *      "7" for that particular MSSIO making input receiver disabled.
 191:../src/platform/mpfs_hal/common/nwc/mss_io.c ****  *
 192:../src/platform/mpfs_hal/common/nwc/mss_io.c ****  */
 193:../src/platform/mpfs_hal/common/nwc/mss_io.c **** 
 194:../src/platform/mpfs_hal/common/nwc/mss_io.c **** /***************************************************************************//**
 195:../src/platform/mpfs_hal/common/nwc/mss_io.c ****  * mssio_setup()
 196:../src/platform/mpfs_hal/common/nwc/mss_io.c ****  *
 197:../src/platform/mpfs_hal/common/nwc/mss_io.c ****  * Setup the IOMUX and IO bank 2 and 4.
 198:../src/platform/mpfs_hal/common/nwc/mss_io.c ****  *
 199:../src/platform/mpfs_hal/common/nwc/mss_io.c ****  * To setup bank 2 and 4, ncode and pcode scb registers in system
 200:../src/platform/mpfs_hal/common/nwc/mss_io.c ****  * register block are set as per Libero supplied values.
 201:../src/platform/mpfs_hal/common/nwc/mss_io.c ****  * These need to be transferred to I/0
 202:../src/platform/mpfs_hal/common/nwc/mss_io.c ****  *
 203:../src/platform/mpfs_hal/common/nwc/mss_io.c ****  * @return 0 => pass
 204:../src/platform/mpfs_hal/common/nwc/mss_io.c ****  */
 205:../src/platform/mpfs_hal/common/nwc/mss_io.c **** uint8_t mssio_setup(void)
 206:../src/platform/mpfs_hal/common/nwc/mss_io.c **** {
 207:../src/platform/mpfs_hal/common/nwc/mss_io.c ****     uint8_t ret_status = 0U;
 208:../src/platform/mpfs_hal/common/nwc/mss_io.c ****     ret_status = io_mux_and_bank_config();
 209:../src/platform/mpfs_hal/common/nwc/mss_io.c ****     set_bank2_and_bank4_volts(DEFAULT_MSSIO_CONFIGURATION);
 210:../src/platform/mpfs_hal/common/nwc/mss_io.c ****     return (ret_status);
 211:../src/platform/mpfs_hal/common/nwc/mss_io.c **** }
 212:../src/platform/mpfs_hal/common/nwc/mss_io.c **** 
 213:../src/platform/mpfs_hal/common/nwc/mss_io.c **** /***************************************************************************//**
 214:../src/platform/mpfs_hal/common/nwc/mss_io.c ****  * io_mux_and_bank_config(void)
 215:../src/platform/mpfs_hal/common/nwc/mss_io.c ****  * sets up the IOMUX and bank 2 and 4 pcodes and n codes
 216:../src/platform/mpfs_hal/common/nwc/mss_io.c ****  * @return 0 => OK
 217:../src/platform/mpfs_hal/common/nwc/mss_io.c ****  */
 218:../src/platform/mpfs_hal/common/nwc/mss_io.c **** static uint8_t io_mux_and_bank_config(void)
 219:../src/platform/mpfs_hal/common/nwc/mss_io.c **** {
  15              		.loc 1 219 1
  16              		.cfi_startproc
 220:../src/platform/mpfs_hal/common/nwc/mss_io.c ****     /* Configure IO mux's
 221:../src/platform/mpfs_hal/common/nwc/mss_io.c ****      *
 222:../src/platform/mpfs_hal/common/nwc/mss_io.c ****      * IOMUX1_CR - IOMUX5_CR, five 32-bit registers, with four bits four bits
 223:../src/platform/mpfs_hal/common/nwc/mss_io.c ****      * for each I/O determine what is connected to each pad
 224:../src/platform/mpfs_hal/common/nwc/mss_io.c ****      *
 225:../src/platform/mpfs_hal/common/nwc/mss_io.c ****      * All internal peripherals are also connected to the fabric (apart from
 226:../src/platform/mpfs_hal/common/nwc/mss_io.c ****      * MMC/SDIO/GPIO/USB). The IOMUX0 register configures whether the IO
 227:../src/platform/mpfs_hal/common/nwc/mss_io.c ****      * function is connected to the fabric or the IOMUX.
 228:../src/platform/mpfs_hal/common/nwc/mss_io.c ****      *
 229:../src/platform/mpfs_hal/common/nwc/mss_io.c ****      * IOMUX6_CR Sets whether the MMC/SD Voltage select lines are inverted on
 230:../src/platform/mpfs_hal/common/nwc/mss_io.c ****      * entry to the IOMUX structure
 231:../src/platform/mpfs_hal/common/nwc/mss_io.c ****      *
 232:../src/platform/mpfs_hal/common/nwc/mss_io.c ****      * */
 233:../src/platform/mpfs_hal/common/nwc/mss_io.c ****     config_32_copy((void *)(&(SYSREG->IOMUX0_CR)),
  17              		.loc 1 233 5
 219:../src/platform/mpfs_hal/common/nwc/mss_io.c ****     /* Configure IO mux's
  18              		.loc 1 219 1 is_stmt 0
  19 0000 4111     		addi	sp,sp,-16
  20              		.cfi_def_cfa_offset 16
  21 0002 22E0     		sd	s0,0(sp)
  22              		.cfi_offset 8, -16
  23              		.loc 1 233 5
  24 0004 37240020 		li	s0,536879104
  25 0008 7146     		li	a2,28
  26 000a 97050000 		lla	a1,.LANCHOR0
  26      93850500 
  27 0012 13050420 		addi	a0,s0,512
 219:../src/platform/mpfs_hal/common/nwc/mss_io.c ****     /* Configure IO mux's
  28              		.loc 1 219 1
  29 0016 06E4     		sd	ra,8(sp)
  30              		.cfi_offset 1, -8
  31              		.loc 1 233 5
  32 0018 97000000 		call	config_32_copy
  32      E7800000 
  33              	.LVL0:
 234:../src/platform/mpfs_hal/common/nwc/mss_io.c ****                 &(iomux_config_values),
 235:../src/platform/mpfs_hal/common/nwc/mss_io.c ****                 sizeof(IOMUX_CONFIG));
 236:../src/platform/mpfs_hal/common/nwc/mss_io.c **** 
 237:../src/platform/mpfs_hal/common/nwc/mss_io.c ****     /*
 238:../src/platform/mpfs_hal/common/nwc/mss_io.c ****      * Configure MSS IO banks
 239:../src/platform/mpfs_hal/common/nwc/mss_io.c ****      *    sets pcode and ncode using (mssio_bank2_cfg_cr/mssio_bank4_cfg_cr)
 240:../src/platform/mpfs_hal/common/nwc/mss_io.c ****      *
 241:../src/platform/mpfs_hal/common/nwc/mss_io.c ****      * The MSS IO pad configuration is provided by nineteen system registers
 242:../src/platform/mpfs_hal/common/nwc/mss_io.c ****      * each configuring two IO's using 15-bits per IO
 243:../src/platform/mpfs_hal/common/nwc/mss_io.c ****      * - (mssio_bank*_io_cfg_*_*_cr).
 244:../src/platform/mpfs_hal/common/nwc/mss_io.c **** 
 245:../src/platform/mpfs_hal/common/nwc/mss_io.c ****         | mssio_bank*_io_cfg_*_*_cr | offset        | info |
 246:../src/platform/mpfs_hal/common/nwc/mss_io.c ****         | field                     | offset        | info |
 247:../src/platform/mpfs_hal/common/nwc/mss_io.c ****         |:-------------------------:|:-------------:|:-----|
 248:../src/platform/mpfs_hal/common/nwc/mss_io.c ****         |      io_cfg_ibufmd_0      |0              |      |
 249:../src/platform/mpfs_hal/common/nwc/mss_io.c ****         |      io_cfg_ibufmd_1      |1              |      |
 250:../src/platform/mpfs_hal/common/nwc/mss_io.c ****         |      io_cfg_ibufmd_2      |2              |      |
 251:../src/platform/mpfs_hal/common/nwc/mss_io.c ****         |      io_cfg_drv_0         |3              |      |
 252:../src/platform/mpfs_hal/common/nwc/mss_io.c ****         |      Io_cfg_drv_1         |4              |      |
 253:../src/platform/mpfs_hal/common/nwc/mss_io.c ****         |      Io_cfg_drv_2         |5              |      |
 254:../src/platform/mpfs_hal/common/nwc/mss_io.c ****         |      io_cfg_drv_3         |6              |      |
 255:../src/platform/mpfs_hal/common/nwc/mss_io.c ****         |      io_cfg_clamp         |7              |      |
 256:../src/platform/mpfs_hal/common/nwc/mss_io.c ****         |      io_cfg_enhyst        |8              |      |
 257:../src/platform/mpfs_hal/common/nwc/mss_io.c ****         |      io_cfg_lockdn_en     |9              |      |
 258:../src/platform/mpfs_hal/common/nwc/mss_io.c ****         |      io_cfg_wpd           |10             |      |
 259:../src/platform/mpfs_hal/common/nwc/mss_io.c ****         |      io_cfg_wpu           |11             |      |
 260:../src/platform/mpfs_hal/common/nwc/mss_io.c ****         |      io_cfg_atp_en        |12             |      |
 261:../src/platform/mpfs_hal/common/nwc/mss_io.c ****         |      io_cfg_lp_persist_en |13             |      |
 262:../src/platform/mpfs_hal/common/nwc/mss_io.c ****         |      io_cfg_lp_bypass_en  |14             |      |
 263:../src/platform/mpfs_hal/common/nwc/mss_io.c ****      * */
 264:../src/platform/mpfs_hal/common/nwc/mss_io.c **** 
 265:../src/platform/mpfs_hal/common/nwc/mss_io.c ****     config_32_copy((void *)(&(SYSREG->MSSIO_BANK4_IO_CFG_0_1_CR)),
  34              		.loc 1 265 5 is_stmt 1
  35 0020 7146     		li	a2,28
  36 0022 97050000 		lla	a1,.LANCHOR1
  36      93850500 
  37 002a 13054423 		addi	a0,s0,564
  38 002e 97000000 		call	config_32_copy
  38      E7800000 
  39              	.LVL1:
 266:../src/platform/mpfs_hal/common/nwc/mss_io.c ****                 &(mssio_bank4_io_config),
 267:../src/platform/mpfs_hal/common/nwc/mss_io.c ****                 sizeof(MSSIO_BANK4_CONFIG));
 268:../src/platform/mpfs_hal/common/nwc/mss_io.c **** 
 269:../src/platform/mpfs_hal/common/nwc/mss_io.c ****     config_32_copy((void *)(&(SYSREG->MSSIO_BANK2_IO_CFG_0_1_CR)),
  40              		.loc 1 269 5
  41 0036 13054425 		addi	a0,s0,596
  42 003a 13060003 		li	a2,48
  43 003e 97050000 		lla	a1,.LANCHOR2
  43      93850500 
  44 0046 97000000 		call	config_32_copy
  44      E7800000 
  45              	.LVL2:
 270:../src/platform/mpfs_hal/common/nwc/mss_io.c ****                 &(mssio_bank2_io_config),
 271:../src/platform/mpfs_hal/common/nwc/mss_io.c ****                 sizeof(MSSIO_BANK2_CONFIG));
 272:../src/platform/mpfs_hal/common/nwc/mss_io.c **** 
 273:../src/platform/mpfs_hal/common/nwc/mss_io.c ****     set_bank2_and_bank4_volts(DEFAULT_MSSIO_CONFIGURATION);
  46              		.loc 1 273 5
 274:../src/platform/mpfs_hal/common/nwc/mss_io.c **** 
 275:../src/platform/mpfs_hal/common/nwc/mss_io.c **** 
 276:../src/platform/mpfs_hal/common/nwc/mss_io.c ****     return(0L);
 277:../src/platform/mpfs_hal/common/nwc/mss_io.c **** }
 278:../src/platform/mpfs_hal/common/nwc/mss_io.c **** 
 279:../src/platform/mpfs_hal/common/nwc/mss_io.c **** /***************************************************************************//**
 280:../src/platform/mpfs_hal/common/nwc/mss_io.c ****  * io_mux_and_bank_config_alt(void)
 281:../src/platform/mpfs_hal/common/nwc/mss_io.c ****  * Configures alt setting
 282:../src/platform/mpfs_hal/common/nwc/mss_io.c ****  * @return
 283:../src/platform/mpfs_hal/common/nwc/mss_io.c ****  */
 284:../src/platform/mpfs_hal/common/nwc/mss_io.c **** #ifdef LIBERO_SETTING_ALT_IOMUX1_CR
 285:../src/platform/mpfs_hal/common/nwc/mss_io.c **** #if ((LIBERO_SETTING_MSSIO_CONFIGURATION_OPTIONS & (EMMC_CONFIGURED_MASK | SD_CONFIGURED_MASK)) == 
 286:../src/platform/mpfs_hal/common/nwc/mss_io.c **** static uint8_t io_mux_and_bank_config_alt(void)
 287:../src/platform/mpfs_hal/common/nwc/mss_io.c **** {
 288:../src/platform/mpfs_hal/common/nwc/mss_io.c ****     /* Configure IO mux's
 289:../src/platform/mpfs_hal/common/nwc/mss_io.c ****      *
 290:../src/platform/mpfs_hal/common/nwc/mss_io.c ****      * IOMUX1_CR - IOMUX5_CR, five 32-bit registers, with four bits four bits
 291:../src/platform/mpfs_hal/common/nwc/mss_io.c ****      * for each I/O determine what is connected to each pad
 292:../src/platform/mpfs_hal/common/nwc/mss_io.c ****      *
 293:../src/platform/mpfs_hal/common/nwc/mss_io.c ****      * All internal peripherals are also connected to the fabric (apart from
 294:../src/platform/mpfs_hal/common/nwc/mss_io.c ****      * MMC/SDIO/GPIO/USB). The IOMUX0 register configures whether the IO
 295:../src/platform/mpfs_hal/common/nwc/mss_io.c ****      * function is connected to the fabric or the IOMUX.
 296:../src/platform/mpfs_hal/common/nwc/mss_io.c ****      *
 297:../src/platform/mpfs_hal/common/nwc/mss_io.c ****      * IOMUX6_CR Sets whether the MMC/SD Voltage select lines are inverted on
 298:../src/platform/mpfs_hal/common/nwc/mss_io.c ****      * entry to the IOMUX structure
 299:../src/platform/mpfs_hal/common/nwc/mss_io.c ****      *
 300:../src/platform/mpfs_hal/common/nwc/mss_io.c ****      * */
 301:../src/platform/mpfs_hal/common/nwc/mss_io.c **** 
 302:../src/platform/mpfs_hal/common/nwc/mss_io.c ****     config_32_copy((void *)(&(SYSREG->IOMUX0_CR)),
 303:../src/platform/mpfs_hal/common/nwc/mss_io.c ****                 &(iomux_alt_config_values),
 304:../src/platform/mpfs_hal/common/nwc/mss_io.c ****                 sizeof(IOMUX_CONFIG));
 305:../src/platform/mpfs_hal/common/nwc/mss_io.c **** 
 306:../src/platform/mpfs_hal/common/nwc/mss_io.c ****     /*
 307:../src/platform/mpfs_hal/common/nwc/mss_io.c ****      * Configure MSS IO banks
 308:../src/platform/mpfs_hal/common/nwc/mss_io.c ****      *    sets pcode and ncode using (mssio_bank2_cfg_cr/mssio_bank4_cfg_cr)
 309:../src/platform/mpfs_hal/common/nwc/mss_io.c ****      *
 310:../src/platform/mpfs_hal/common/nwc/mss_io.c ****      * The MSS IO pad configuration is provided by nineteen system registers
 311:../src/platform/mpfs_hal/common/nwc/mss_io.c ****      * each configuring two IO's using 15-bits per IO
 312:../src/platform/mpfs_hal/common/nwc/mss_io.c ****      * - (mssio_bank*_io_cfg_*_*_cr).
 313:../src/platform/mpfs_hal/common/nwc/mss_io.c **** 
 314:../src/platform/mpfs_hal/common/nwc/mss_io.c ****         | mssio_bank*_io_cfg_*_*_cr | offset        | info |
 315:../src/platform/mpfs_hal/common/nwc/mss_io.c ****         | field                     | offset        | info |
 316:../src/platform/mpfs_hal/common/nwc/mss_io.c ****         |:-------------------------:|:-------------:|:-----|
 317:../src/platform/mpfs_hal/common/nwc/mss_io.c ****         |      io_cfg_ibufmd_0      |0              |      |
 318:../src/platform/mpfs_hal/common/nwc/mss_io.c ****         |      io_cfg_ibufmd_1      |1              |      |
 319:../src/platform/mpfs_hal/common/nwc/mss_io.c ****         |      io_cfg_ibufmd_2      |2              |      |
 320:../src/platform/mpfs_hal/common/nwc/mss_io.c ****         |      io_cfg_drv_0         |3              |      |
 321:../src/platform/mpfs_hal/common/nwc/mss_io.c ****         |      Io_cfg_drv_1         |4              |      |
 322:../src/platform/mpfs_hal/common/nwc/mss_io.c ****         |      Io_cfg_drv_2         |5              |      |
 323:../src/platform/mpfs_hal/common/nwc/mss_io.c ****         |      io_cfg_drv_3         |6              |      |
 324:../src/platform/mpfs_hal/common/nwc/mss_io.c ****         |      io_cfg_clamp         |7              |      |
 325:../src/platform/mpfs_hal/common/nwc/mss_io.c ****         |      io_cfg_enhyst        |8              |      |
 326:../src/platform/mpfs_hal/common/nwc/mss_io.c ****         |      io_cfg_lockdn_en     |9              |      |
 327:../src/platform/mpfs_hal/common/nwc/mss_io.c ****         |      io_cfg_wpd           |10             |      |
 328:../src/platform/mpfs_hal/common/nwc/mss_io.c ****         |      io_cfg_wpu           |11             |      |
 329:../src/platform/mpfs_hal/common/nwc/mss_io.c ****         |      io_cfg_atp_en        |12             |      |
 330:../src/platform/mpfs_hal/common/nwc/mss_io.c ****         |      io_cfg_lp_persist_en |13             |      |
 331:../src/platform/mpfs_hal/common/nwc/mss_io.c ****         |      io_cfg_lp_bypass_en  |14             |      |
 332:../src/platform/mpfs_hal/common/nwc/mss_io.c ****      * */
 333:../src/platform/mpfs_hal/common/nwc/mss_io.c **** 
 334:../src/platform/mpfs_hal/common/nwc/mss_io.c ****     config_32_copy((void *)(&(SYSREG->MSSIO_BANK4_IO_CFG_0_1_CR)),
 335:../src/platform/mpfs_hal/common/nwc/mss_io.c ****                 &(mssio_alt_bank4_io_config),
 336:../src/platform/mpfs_hal/common/nwc/mss_io.c ****                 sizeof(MSSIO_BANK4_CONFIG));
 337:../src/platform/mpfs_hal/common/nwc/mss_io.c **** 
 338:../src/platform/mpfs_hal/common/nwc/mss_io.c ****     config_32_copy((void *)(&(SYSREG->MSSIO_BANK2_IO_CFG_0_1_CR)),
 339:../src/platform/mpfs_hal/common/nwc/mss_io.c ****                 &(mssio_alt_bank2_io_config),
 340:../src/platform/mpfs_hal/common/nwc/mss_io.c ****                 sizeof(MSSIO_BANK2_CONFIG));
 341:../src/platform/mpfs_hal/common/nwc/mss_io.c **** 
 342:../src/platform/mpfs_hal/common/nwc/mss_io.c ****     set_bank2_and_bank4_volts(DEFAULT_MSSIO_CONFIGURATION);
 343:../src/platform/mpfs_hal/common/nwc/mss_io.c **** 
 344:../src/platform/mpfs_hal/common/nwc/mss_io.c ****     return(0L);
 345:../src/platform/mpfs_hal/common/nwc/mss_io.c **** }
 346:../src/platform/mpfs_hal/common/nwc/mss_io.c **** #endif
 347:../src/platform/mpfs_hal/common/nwc/mss_io.c **** #endif
 348:../src/platform/mpfs_hal/common/nwc/mss_io.c **** 
 349:../src/platform/mpfs_hal/common/nwc/mss_io.c **** /**
 350:../src/platform/mpfs_hal/common/nwc/mss_io.c ****  * set_bank2_and_bank4_volts(void)
 351:../src/platform/mpfs_hal/common/nwc/mss_io.c ****  * sets bank voltage parameters
 352:../src/platform/mpfs_hal/common/nwc/mss_io.c ****  *   bank_pcode
 353:../src/platform/mpfs_hal/common/nwc/mss_io.c ****  *   bank_ncode
 354:../src/platform/mpfs_hal/common/nwc/mss_io.c ****  *   vs
 355:../src/platform/mpfs_hal/common/nwc/mss_io.c ****  * @return
 356:../src/platform/mpfs_hal/common/nwc/mss_io.c ****  */
 357:../src/platform/mpfs_hal/common/nwc/mss_io.c **** void set_bank2_and_bank4_volts(MSSIO_CONFIG_OPTION config)
 358:../src/platform/mpfs_hal/common/nwc/mss_io.c **** {
 359:../src/platform/mpfs_hal/common/nwc/mss_io.c **** 
 360:../src/platform/mpfs_hal/common/nwc/mss_io.c ****     switch(config)
  47              		.loc 1 360 5
  48              	.LBB16:
  49              	.LBB17:
  50              	.LBB18:
 361:../src/platform/mpfs_hal/common/nwc/mss_io.c ****     {
 362:../src/platform/mpfs_hal/common/nwc/mss_io.c ****         default:
 363:../src/platform/mpfs_hal/common/nwc/mss_io.c ****         SCB_REGS->MSSIO_BANK2_CFG_CR.MSSIO_BANK2_CFG_CR =\
  51              		.loc 1 363 9
  52              		.loc 1 363 17 is_stmt 0
  53 004e 97070000 		lla	a5,SCB_REGS
  53      93870700 
  54 0056 9863     		ld	a4,0(a5)
  55              		.loc 1 363 57
  56 0058 B7170800 		li	a5,528384
  57 005c 93877790 		addi	a5,a5,-1785
  58 0060 2322F71C 		sw	a5,452(a4)
 364:../src/platform/mpfs_hal/common/nwc/mss_io.c ****                     (uint32_t)LIBERO_SETTING_MSSIO_BANK2_CFG_CR;
 365:../src/platform/mpfs_hal/common/nwc/mss_io.c ****         SCB_REGS->MSSIO_BANK4_CFG_CR.MSSIO_BANK4_CFG_CR =\
  59              		.loc 1 365 9 is_stmt 1
  60              	.LBE18:
  61              	.LBE17:
  62              	.LBE16:
 277:../src/platform/mpfs_hal/common/nwc/mss_io.c **** 
  63              		.loc 1 277 1 is_stmt 0
  64 0064 A260     		ld	ra,8(sp)
  65              		.cfi_restore 1
  66 0066 0264     		ld	s0,0(sp)
  67              		.cfi_restore 8
  68              	.LBB21:
  69              	.LBB20:
  70              	.LBB19:
  71              		.loc 1 365 57
  72 0068 B7170400 		li	a5,266240
  73 006c 9387D7A0 		addi	a5,a5,-1523
  74 0070 2324F71C 		sw	a5,456(a4)
 366:../src/platform/mpfs_hal/common/nwc/mss_io.c ****                     (uint32_t)LIBERO_SETTING_MSSIO_BANK4_CFG_CR;
 367:../src/platform/mpfs_hal/common/nwc/mss_io.c ****         break;
  75              		.loc 1 367 9 is_stmt 1
 368:../src/platform/mpfs_hal/common/nwc/mss_io.c **** 
 369:../src/platform/mpfs_hal/common/nwc/mss_io.c **** #ifdef LIBERO_SETTING_MSSIO_CONFIGURATION_OPTIONS
 370:../src/platform/mpfs_hal/common/nwc/mss_io.c ****         case ALT_MSSIO_CONFIGURATION:
 371:../src/platform/mpfs_hal/common/nwc/mss_io.c ****             break;
 372:../src/platform/mpfs_hal/common/nwc/mss_io.c **** #endif
 373:../src/platform/mpfs_hal/common/nwc/mss_io.c **** 
 374:../src/platform/mpfs_hal/common/nwc/mss_io.c ****     }
 375:../src/platform/mpfs_hal/common/nwc/mss_io.c ****     return;
  76              		.loc 1 375 5
  77              	.LVL3:
  78              	.LBE19:
  79              	.LBE20:
  80              	.LBE21:
  81              		.loc 1 375 5
 276:../src/platform/mpfs_hal/common/nwc/mss_io.c **** }
  82              		.loc 1 276 5
 277:../src/platform/mpfs_hal/common/nwc/mss_io.c **** 
  83              		.loc 1 277 1 is_stmt 0
  84 0074 0145     		li	a0,0
  85 0076 4101     		addi	sp,sp,16
  86              		.cfi_def_cfa_offset 0
  87 0078 8280     		jr	ra
  88              		.cfi_endproc
  89              	.LFE24:
  91              		.section	.text.mssio_setup,"ax",@progbits
  92              		.align	1
  93              		.globl	mssio_setup
  95              	mssio_setup:
  96              	.LFB23:
 206:../src/platform/mpfs_hal/common/nwc/mss_io.c ****     uint8_t ret_status = 0U;
  97              		.loc 1 206 1 is_stmt 1
  98              		.cfi_startproc
 207:../src/platform/mpfs_hal/common/nwc/mss_io.c ****     ret_status = io_mux_and_bank_config();
  99              		.loc 1 207 5
 100              	.LVL4:
 208:../src/platform/mpfs_hal/common/nwc/mss_io.c ****     set_bank2_and_bank4_volts(DEFAULT_MSSIO_CONFIGURATION);
 101              		.loc 1 208 5
 206:../src/platform/mpfs_hal/common/nwc/mss_io.c ****     uint8_t ret_status = 0U;
 102              		.loc 1 206 1 is_stmt 0
 103 0000 4111     		addi	sp,sp,-16
 104              		.cfi_def_cfa_offset 16
 105 0002 06E4     		sd	ra,8(sp)
 106              		.cfi_offset 1, -8
 208:../src/platform/mpfs_hal/common/nwc/mss_io.c ****     set_bank2_and_bank4_volts(DEFAULT_MSSIO_CONFIGURATION);
 107              		.loc 1 208 18
 108 0004 97000000 		call	io_mux_and_bank_config
 108      E7800000 
 109              	.LVL5:
 209:../src/platform/mpfs_hal/common/nwc/mss_io.c ****     return (ret_status);
 110              		.loc 1 209 5 is_stmt 1
 360:../src/platform/mpfs_hal/common/nwc/mss_io.c ****     {
 111              		.loc 1 360 5
 112              	.LBB26:
 113              	.LBB27:
 114              	.LBB28:
 363:../src/platform/mpfs_hal/common/nwc/mss_io.c ****                     (uint32_t)LIBERO_SETTING_MSSIO_BANK2_CFG_CR;
 115              		.loc 1 363 9
 363:../src/platform/mpfs_hal/common/nwc/mss_io.c ****                     (uint32_t)LIBERO_SETTING_MSSIO_BANK2_CFG_CR;
 116              		.loc 1 363 17 is_stmt 0
 117 000c 97070000 		lla	a5,SCB_REGS
 117      93870700 
 118 0014 9863     		ld	a4,0(a5)
 363:../src/platform/mpfs_hal/common/nwc/mss_io.c ****                     (uint32_t)LIBERO_SETTING_MSSIO_BANK2_CFG_CR;
 119              		.loc 1 363 57
 120 0016 B7170800 		li	a5,528384
 121 001a 93877790 		addi	a5,a5,-1785
 122 001e 2322F71C 		sw	a5,452(a4)
 365:../src/platform/mpfs_hal/common/nwc/mss_io.c ****                     (uint32_t)LIBERO_SETTING_MSSIO_BANK4_CFG_CR;
 123              		.loc 1 365 9 is_stmt 1
 124              	.LBE28:
 125              	.LBE27:
 126              	.LBE26:
 211:../src/platform/mpfs_hal/common/nwc/mss_io.c **** 
 127              		.loc 1 211 1 is_stmt 0
 128 0022 A260     		ld	ra,8(sp)
 129              		.cfi_restore 1
 130              	.LBB31:
 131              	.LBB30:
 132              	.LBB29:
 365:../src/platform/mpfs_hal/common/nwc/mss_io.c ****                     (uint32_t)LIBERO_SETTING_MSSIO_BANK4_CFG_CR;
 133              		.loc 1 365 57
 134 0024 B7170400 		li	a5,266240
 135 0028 9387D7A0 		addi	a5,a5,-1523
 136 002c 2324F71C 		sw	a5,456(a4)
 367:../src/platform/mpfs_hal/common/nwc/mss_io.c **** 
 137              		.loc 1 367 9 is_stmt 1
 138              		.loc 1 375 5
 139              	.LVL6:
 140              	.LBE29:
 141              	.LBE30:
 142              	.LBE31:
 143              		.loc 1 375 5
 210:../src/platform/mpfs_hal/common/nwc/mss_io.c **** }
 144              		.loc 1 210 5
 211:../src/platform/mpfs_hal/common/nwc/mss_io.c **** 
 145              		.loc 1 211 1 is_stmt 0
 146 0030 4101     		addi	sp,sp,16
 147              		.cfi_def_cfa_offset 0
 148 0032 8280     		jr	ra
 149              		.cfi_endproc
 150              	.LFE23:
 152              		.section	.text.set_bank2_and_bank4_volts,"ax",@progbits
 153              		.align	1
 154              		.globl	set_bank2_and_bank4_volts
 156              	set_bank2_and_bank4_volts:
 157              	.LFB25:
 358:../src/platform/mpfs_hal/common/nwc/mss_io.c **** 
 158              		.loc 1 358 1 is_stmt 1
 159              		.cfi_startproc
 160              	.LVL7:
 360:../src/platform/mpfs_hal/common/nwc/mss_io.c ****     {
 161              		.loc 1 360 5
 162 0000 8547     		li	a5,1
 163 0002 6303F502 		beq	a0,a5,.L5
 164              	.LVL8:
 165              	.LBB34:
 166              	.LBB35:
 363:../src/platform/mpfs_hal/common/nwc/mss_io.c ****                     (uint32_t)LIBERO_SETTING_MSSIO_BANK2_CFG_CR;
 167              		.loc 1 363 9
 363:../src/platform/mpfs_hal/common/nwc/mss_io.c ****                     (uint32_t)LIBERO_SETTING_MSSIO_BANK2_CFG_CR;
 168              		.loc 1 363 17 is_stmt 0
 169 0006 97070000 		lla	a5,SCB_REGS
 169      93870700 
 170 000e 9863     		ld	a4,0(a5)
 363:../src/platform/mpfs_hal/common/nwc/mss_io.c ****                     (uint32_t)LIBERO_SETTING_MSSIO_BANK2_CFG_CR;
 171              		.loc 1 363 57
 172 0010 B7170800 		li	a5,528384
 173 0014 93877790 		addi	a5,a5,-1785
 174 0018 2322F71C 		sw	a5,452(a4)
 365:../src/platform/mpfs_hal/common/nwc/mss_io.c ****                     (uint32_t)LIBERO_SETTING_MSSIO_BANK4_CFG_CR;
 175              		.loc 1 365 9 is_stmt 1
 365:../src/platform/mpfs_hal/common/nwc/mss_io.c ****                     (uint32_t)LIBERO_SETTING_MSSIO_BANK4_CFG_CR;
 176              		.loc 1 365 57 is_stmt 0
 177 001c B7170400 		li	a5,266240
 178 0020 9387D7A0 		addi	a5,a5,-1523
 179 0024 2324F71C 		sw	a5,456(a4)
 367:../src/platform/mpfs_hal/common/nwc/mss_io.c **** 
 180              		.loc 1 367 9 is_stmt 1
 181              		.loc 1 375 5
 182              	.LBE35:
 183              	.LBE34:
 184              		.loc 1 375 5
 185              	.LVL9:
 186              	.L5:
 376:../src/platform/mpfs_hal/common/nwc/mss_io.c **** }
 187              		.loc 1 376 1 is_stmt 0
 188 0028 8280     		ret
 189              		.cfi_endproc
 190              	.LFE25:
 192              		.section	.text.mss_is_alternate_io_configured,"ax",@progbits
 193              		.align	1
 194              		.globl	mss_is_alternate_io_configured
 196              	mss_is_alternate_io_configured:
 197              	.LFB26:
 377:../src/platform/mpfs_hal/common/nwc/mss_io.c **** 
 378:../src/platform/mpfs_hal/common/nwc/mss_io.c **** /***************************************************************************//**
 379:../src/platform/mpfs_hal/common/nwc/mss_io.c ****  * alternate_io_configured()
 380:../src/platform/mpfs_hal/common/nwc/mss_io.c ****  * Answers question is alternate I/O configuration present
 381:../src/platform/mpfs_hal/common/nwc/mss_io.c ****  * @return true/false
 382:../src/platform/mpfs_hal/common/nwc/mss_io.c ****  */
 383:../src/platform/mpfs_hal/common/nwc/mss_io.c **** uint8_t  mss_is_alternate_io_configured(void)
 384:../src/platform/mpfs_hal/common/nwc/mss_io.c **** {
 198              		.loc 1 384 1 is_stmt 1
 199              		.cfi_startproc
 385:../src/platform/mpfs_hal/common/nwc/mss_io.c ****     uint8_t result = false;
 200              		.loc 1 385 5
 201              	.LVL10:
 386:../src/platform/mpfs_hal/common/nwc/mss_io.c **** #ifdef LIBERO_SETTING_MSSIO_CONFIGURATION_OPTIONS
 387:../src/platform/mpfs_hal/common/nwc/mss_io.c ****     if ((LIBERO_SETTING_MSSIO_CONFIGURATION_OPTIONS & (EMMC_CONFIGURED_MASK | SD_CONFIGURED_MASK)) 
 202              		.loc 1 387 5
 388:../src/platform/mpfs_hal/common/nwc/mss_io.c ****     {
 389:../src/platform/mpfs_hal/common/nwc/mss_io.c ****         result = true;
 203              		.loc 1 389 9
 390:../src/platform/mpfs_hal/common/nwc/mss_io.c ****     }
 391:../src/platform/mpfs_hal/common/nwc/mss_io.c **** #endif
 392:../src/platform/mpfs_hal/common/nwc/mss_io.c ****     return result;
 204              		.loc 1 392 5
 393:../src/platform/mpfs_hal/common/nwc/mss_io.c **** }
 205              		.loc 1 393 1 is_stmt 0
 206 0000 0545     		li	a0,1
 207 0002 8280     		ret
 208              		.cfi_endproc
 209              	.LFE26:
 211              		.section	.text.mss_is_alternate_io_setting_sd,"ax",@progbits
 212              		.align	1
 213              		.globl	mss_is_alternate_io_setting_sd
 215              	mss_is_alternate_io_setting_sd:
 216              	.LFB36:
 217              		.cfi_startproc
 218 0000 0145     		li	a0,0
 219 0002 8280     		ret
 220              		.cfi_endproc
 221              	.LFE36:
 223              		.section	.text.mss_is_alternate_io_setting_emmc,"ax",@progbits
 224              		.align	1
 225              		.globl	mss_is_alternate_io_setting_emmc
 227              	mss_is_alternate_io_setting_emmc:
 228              	.LFB38:
 229              		.cfi_startproc
 230 0000 0545     		li	a0,1
 231 0002 8280     		ret
 232              		.cfi_endproc
 233              	.LFE38:
 235              		.section	.text.mss_does_xml_ver_support_switch,"ax",@progbits
 236              		.align	1
 237              		.globl	mss_does_xml_ver_support_switch
 239              	mss_does_xml_ver_support_switch:
 240              	.LFB29:
 394:../src/platform/mpfs_hal/common/nwc/mss_io.c **** 
 395:../src/platform/mpfs_hal/common/nwc/mss_io.c **** /***************************************************************************//**
 396:../src/platform/mpfs_hal/common/nwc/mss_io.c ****  * alternate_io_setting_sd()
 397:../src/platform/mpfs_hal/common/nwc/mss_io.c ****  * Answers question is alternate setting SD?
 398:../src/platform/mpfs_hal/common/nwc/mss_io.c ****  * @return returns true if sd is alternate setting
 399:../src/platform/mpfs_hal/common/nwc/mss_io.c ****  */
 400:../src/platform/mpfs_hal/common/nwc/mss_io.c **** uint8_t  mss_is_alternate_io_setting_sd(void)
 401:../src/platform/mpfs_hal/common/nwc/mss_io.c **** {
 402:../src/platform/mpfs_hal/common/nwc/mss_io.c ****     uint8_t result = false;
 403:../src/platform/mpfs_hal/common/nwc/mss_io.c **** #ifdef LIBERO_SETTING_MSSIO_CONFIGURATION_OPTIONS
 404:../src/platform/mpfs_hal/common/nwc/mss_io.c ****     if ((LIBERO_SETTING_MSSIO_CONFIGURATION_OPTIONS & (EMMC_CONFIGURED_MASK | SD_CONFIGURED_MASK)) 
 405:../src/platform/mpfs_hal/common/nwc/mss_io.c ****     {
 406:../src/platform/mpfs_hal/common/nwc/mss_io.c ****         if ((LIBERO_SETTING_MSSIO_CONFIGURATION_OPTIONS & DEFAULT_ON_START_MASK)!=DEFAULT_ON_START_
 407:../src/platform/mpfs_hal/common/nwc/mss_io.c ****         {
 408:../src/platform/mpfs_hal/common/nwc/mss_io.c ****             result = true;
 409:../src/platform/mpfs_hal/common/nwc/mss_io.c ****         }
 410:../src/platform/mpfs_hal/common/nwc/mss_io.c ****     }
 411:../src/platform/mpfs_hal/common/nwc/mss_io.c **** #endif
 412:../src/platform/mpfs_hal/common/nwc/mss_io.c ****     return result;
 413:../src/platform/mpfs_hal/common/nwc/mss_io.c **** }
 414:../src/platform/mpfs_hal/common/nwc/mss_io.c **** 
 415:../src/platform/mpfs_hal/common/nwc/mss_io.c **** /***************************************************************************//**
 416:../src/platform/mpfs_hal/common/nwc/mss_io.c ****  * alternate_io_setting_sd()
 417:../src/platform/mpfs_hal/common/nwc/mss_io.c ****  * Answers question is alternate setting emmc?
 418:../src/platform/mpfs_hal/common/nwc/mss_io.c ****  * @return returns true if sd is alternate setting
 419:../src/platform/mpfs_hal/common/nwc/mss_io.c ****  */
 420:../src/platform/mpfs_hal/common/nwc/mss_io.c **** uint8_t  mss_is_alternate_io_setting_emmc(void)
 421:../src/platform/mpfs_hal/common/nwc/mss_io.c **** {
 422:../src/platform/mpfs_hal/common/nwc/mss_io.c ****     uint8_t result = false;
 423:../src/platform/mpfs_hal/common/nwc/mss_io.c **** #ifdef LIBERO_SETTING_MSSIO_CONFIGURATION_OPTIONS
 424:../src/platform/mpfs_hal/common/nwc/mss_io.c ****     if ((LIBERO_SETTING_MSSIO_CONFIGURATION_OPTIONS & (EMMC_CONFIGURED_MASK | SD_CONFIGURED_MASK)) 
 425:../src/platform/mpfs_hal/common/nwc/mss_io.c ****     {
 426:../src/platform/mpfs_hal/common/nwc/mss_io.c ****         if ((LIBERO_SETTING_MSSIO_CONFIGURATION_OPTIONS & DEFAULT_ON_START_MASK)==DEFAULT_ON_START_
 427:../src/platform/mpfs_hal/common/nwc/mss_io.c ****         {
 428:../src/platform/mpfs_hal/common/nwc/mss_io.c ****             result = true;
 429:../src/platform/mpfs_hal/common/nwc/mss_io.c ****         }
 430:../src/platform/mpfs_hal/common/nwc/mss_io.c ****     }
 431:../src/platform/mpfs_hal/common/nwc/mss_io.c **** #endif
 432:../src/platform/mpfs_hal/common/nwc/mss_io.c ****     return result;
 433:../src/platform/mpfs_hal/common/nwc/mss_io.c **** }
 434:../src/platform/mpfs_hal/common/nwc/mss_io.c **** 
 435:../src/platform/mpfs_hal/common/nwc/mss_io.c **** /**
 436:../src/platform/mpfs_hal/common/nwc/mss_io.c ****  * Determines if MSSIO alt switch support in MSS configurator version
 437:../src/platform/mpfs_hal/common/nwc/mss_io.c ****  * Does not indicate if alternate has been configured.
 438:../src/platform/mpfs_hal/common/nwc/mss_io.c ****  * Indicates you can use the following to determine setup
 439:../src/platform/mpfs_hal/common/nwc/mss_io.c ****  *  mss_io_defaut_setting(void)
 440:../src/platform/mpfs_hal/common/nwc/mss_io.c ****  *  mss_is_alternate_io_configured(void)
 441:../src/platform/mpfs_hal/common/nwc/mss_io.c ****  *  mss_is_alternate_io_setting_emmc(void)
 442:../src/platform/mpfs_hal/common/nwc/mss_io.c ****  *  mss_is_alternate_io_setting_sd(void)
 443:../src/platform/mpfs_hal/common/nwc/mss_io.c ****  *
 444:../src/platform/mpfs_hal/common/nwc/mss_io.c ****  * @return return true/false
 445:../src/platform/mpfs_hal/common/nwc/mss_io.c ****  */
 446:../src/platform/mpfs_hal/common/nwc/mss_io.c **** uint8_t  mss_does_xml_ver_support_switch(void)
 447:../src/platform/mpfs_hal/common/nwc/mss_io.c **** {
 241              		.loc 1 447 1 is_stmt 1
 242              		.cfi_startproc
 448:../src/platform/mpfs_hal/common/nwc/mss_io.c ****     uint8_t result = false;
 243              		.loc 1 448 5
 244              	.LVL11:
 449:../src/platform/mpfs_hal/common/nwc/mss_io.c **** #ifdef LIBERO_SETTING_HEADER_GENERATOR_VERSION_MAJOR
 450:../src/platform/mpfs_hal/common/nwc/mss_io.c ****     uint32_t header_ver = (LIBERO_SETTING_HEADER_GENERATOR_VERSION_MAJOR*100) + (LIBERO_SETTING_HEA
 245              		.loc 1 450 5
 451:../src/platform/mpfs_hal/common/nwc/mss_io.c ****     uint32_t xml_ver = (LIBERO_SETTING_XML_VERSION_MAJOR*100) + (LIBERO_SETTING_XML_VERSION_MINOR*1
 246              		.loc 1 451 5
 452:../src/platform/mpfs_hal/common/nwc/mss_io.c **** 
 453:../src/platform/mpfs_hal/common/nwc/mss_io.c ****     if ((header_ver >= 64U) && (xml_ver >= 56U))
 247              		.loc 1 453 5
 454:../src/platform/mpfs_hal/common/nwc/mss_io.c ****     {
 455:../src/platform/mpfs_hal/common/nwc/mss_io.c ****         result = true;
 456:../src/platform/mpfs_hal/common/nwc/mss_io.c ****     }
 457:../src/platform/mpfs_hal/common/nwc/mss_io.c **** #else
 458:../src/platform/mpfs_hal/common/nwc/mss_io.c ****     (void)result;
 459:../src/platform/mpfs_hal/common/nwc/mss_io.c **** #endif
 460:../src/platform/mpfs_hal/common/nwc/mss_io.c ****     return result;
 248              		.loc 1 460 5
 461:../src/platform/mpfs_hal/common/nwc/mss_io.c **** }
 249              		.loc 1 461 1 is_stmt 0
 250 0000 0145     		li	a0,0
 251 0002 8280     		ret
 252              		.cfi_endproc
 253              	.LFE29:
 255              		.section	.text.switch_mssio_config,"ax",@progbits
 256              		.align	1
 257              		.globl	switch_mssio_config
 259              	switch_mssio_config:
 260              	.LFB30:
 462:../src/platform/mpfs_hal/common/nwc/mss_io.c **** 
 463:../src/platform/mpfs_hal/common/nwc/mss_io.c **** 
 464:../src/platform/mpfs_hal/common/nwc/mss_io.c **** /**
 465:../src/platform/mpfs_hal/common/nwc/mss_io.c ****  * mss_io_default_setting(void)
 466:../src/platform/mpfs_hal/common/nwc/mss_io.c ****  * @return returns what is configured on default if mss configurator version supports this.
 467:../src/platform/mpfs_hal/common/nwc/mss_io.c ****  */
 468:../src/platform/mpfs_hal/common/nwc/mss_io.c **** #ifdef LIBERO_SETTING_ALT_IOMUX1_CR
 469:../src/platform/mpfs_hal/common/nwc/mss_io.c **** uint8_t  mss_io_default_setting(void)
 470:../src/platform/mpfs_hal/common/nwc/mss_io.c **** {
 471:../src/platform/mpfs_hal/common/nwc/mss_io.c ****     uint8_t result;
 472:../src/platform/mpfs_hal/common/nwc/mss_io.c **** 
 473:../src/platform/mpfs_hal/common/nwc/mss_io.c ****     if  ( mss_does_xml_ver_support_switch() == false )
 474:../src/platform/mpfs_hal/common/nwc/mss_io.c ****     {
 475:../src/platform/mpfs_hal/common/nwc/mss_io.c ****         result = NO_SUPPORT_MSSIO_CONFIGURATION;
 476:../src/platform/mpfs_hal/common/nwc/mss_io.c ****     }
 477:../src/platform/mpfs_hal/common/nwc/mss_io.c ****     else
 478:../src/platform/mpfs_hal/common/nwc/mss_io.c ****     {
 479:../src/platform/mpfs_hal/common/nwc/mss_io.c **** #ifdef LIBERO_SETTING_MSSIO_CONFIGURATION_OPTIONS
 480:../src/platform/mpfs_hal/common/nwc/mss_io.c **** #if ((LIBERO_SETTING_MSSIO_CONFIGURATION_OPTIONS & (SD_CONFIGURED_MASK | DEFAULT_ON_START_MASK)) ==
 481:../src/platform/mpfs_hal/common/nwc/mss_io.c **** 
 482:../src/platform/mpfs_hal/common/nwc/mss_io.c ****     result = SD_MSSIO_CONFIGURATION;
 483:../src/platform/mpfs_hal/common/nwc/mss_io.c **** 
 484:../src/platform/mpfs_hal/common/nwc/mss_io.c **** #elif  ((LIBERO_SETTING_MSSIO_CONFIGURATION_OPTIONS & (EMMC_CONFIGURED_MASK | DEFAULT_ON_START_MASK
 485:../src/platform/mpfs_hal/common/nwc/mss_io.c **** 
 486:../src/platform/mpfs_hal/common/nwc/mss_io.c ****     result = SD_MSSIO_CONFIGURATION;
 487:../src/platform/mpfs_hal/common/nwc/mss_io.c **** #else
 488:../src/platform/mpfs_hal/common/nwc/mss_io.c ****     result = NOT_SETUP_MSSIO_CONFIGURATION;
 489:../src/platform/mpfs_hal/common/nwc/mss_io.c **** #endif
 490:../src/platform/mpfs_hal/common/nwc/mss_io.c **** #endif
 491:../src/platform/mpfs_hal/common/nwc/mss_io.c ****     }
 492:../src/platform/mpfs_hal/common/nwc/mss_io.c **** 
 493:../src/platform/mpfs_hal/common/nwc/mss_io.c ****     return(result);
 494:../src/platform/mpfs_hal/common/nwc/mss_io.c **** }
 495:../src/platform/mpfs_hal/common/nwc/mss_io.c **** #endif
 496:../src/platform/mpfs_hal/common/nwc/mss_io.c **** 
 497:../src/platform/mpfs_hal/common/nwc/mss_io.c **** /**
 498:../src/platform/mpfs_hal/common/nwc/mss_io.c ****  * Set the MSSIO to a desired config
 499:../src/platform/mpfs_hal/common/nwc/mss_io.c ****  * @param option  SD or eMMC
 500:../src/platform/mpfs_hal/common/nwc/mss_io.c ****  * @return
 501:../src/platform/mpfs_hal/common/nwc/mss_io.c ****  */
 502:../src/platform/mpfs_hal/common/nwc/mss_io.c **** uint8_t switch_mssio_config(MSS_IO_OPTIONS option)
 503:../src/platform/mpfs_hal/common/nwc/mss_io.c **** {
 261              		.loc 1 503 1 is_stmt 1
 262              		.cfi_startproc
 263              	.LVL12:
 504:../src/platform/mpfs_hal/common/nwc/mss_io.c ****     uint8_t result = false;
 264              		.loc 1 504 5
 505:../src/platform/mpfs_hal/common/nwc/mss_io.c **** #ifdef LIBERO_SETTING_MSSIO_CONFIGURATION_OPTIONS
 506:../src/platform/mpfs_hal/common/nwc/mss_io.c **** #if ((LIBERO_SETTING_MSSIO_CONFIGURATION_OPTIONS & (EMMC_CONFIGURED_MASK | SD_CONFIGURED_MASK)) == 
 507:../src/platform/mpfs_hal/common/nwc/mss_io.c ****     switch(option)
 265              		.loc 1 507 5
 503:../src/platform/mpfs_hal/common/nwc/mss_io.c ****     uint8_t result = false;
 266              		.loc 1 503 1 is_stmt 0
 267 0000 4111     		addi	sp,sp,-16
 268              		.cfi_def_cfa_offset 16
 269 0002 06E4     		sd	ra,8(sp)
 270              		.cfi_offset 1, -8
 271              		.loc 1 507 5
 272 0004 8947     		li	a5,2
 273 0006 6309F500 		beq	a0,a5,.L12
 274 000a 8D47     		li	a5,3
 275 000c 630BF500 		beq	a0,a5,.L13
 276              	.LVL13:
 277              	.L14:
 508:../src/platform/mpfs_hal/common/nwc/mss_io.c ****     {
 509:../src/platform/mpfs_hal/common/nwc/mss_io.c ****         case SD_MSSIO_CONFIGURATION:
 510:../src/platform/mpfs_hal/common/nwc/mss_io.c ****             if (mss_is_alternate_io_setting_sd() == true)
 511:../src/platform/mpfs_hal/common/nwc/mss_io.c ****             {
 512:../src/platform/mpfs_hal/common/nwc/mss_io.c ****                 io_mux_and_bank_config_alt();
 513:../src/platform/mpfs_hal/common/nwc/mss_io.c **** 
 514:../src/platform/mpfs_hal/common/nwc/mss_io.c ****             }
 515:../src/platform/mpfs_hal/common/nwc/mss_io.c ****             else
 516:../src/platform/mpfs_hal/common/nwc/mss_io.c ****             {
 517:../src/platform/mpfs_hal/common/nwc/mss_io.c ****                 io_mux_and_bank_config();
 518:../src/platform/mpfs_hal/common/nwc/mss_io.c ****             }
 519:../src/platform/mpfs_hal/common/nwc/mss_io.c ****             break;
 520:../src/platform/mpfs_hal/common/nwc/mss_io.c **** 
 521:../src/platform/mpfs_hal/common/nwc/mss_io.c ****         case EMMC_MSSIO_CONFIGURATION:
 522:../src/platform/mpfs_hal/common/nwc/mss_io.c ****             if (mss_is_alternate_io_setting_emmc() == true)
 523:../src/platform/mpfs_hal/common/nwc/mss_io.c ****             {
 524:../src/platform/mpfs_hal/common/nwc/mss_io.c ****                 io_mux_and_bank_config_alt();
 525:../src/platform/mpfs_hal/common/nwc/mss_io.c ****             }
 526:../src/platform/mpfs_hal/common/nwc/mss_io.c ****             else
 527:../src/platform/mpfs_hal/common/nwc/mss_io.c ****             {
 528:../src/platform/mpfs_hal/common/nwc/mss_io.c ****                 io_mux_and_bank_config();
 529:../src/platform/mpfs_hal/common/nwc/mss_io.c ****             }
 530:../src/platform/mpfs_hal/common/nwc/mss_io.c ****             break;
 531:../src/platform/mpfs_hal/common/nwc/mss_io.c **** 
 532:../src/platform/mpfs_hal/common/nwc/mss_io.c ****         case NO_SUPPORT_MSSIO_CONFIGURATION:
 533:../src/platform/mpfs_hal/common/nwc/mss_io.c ****             break;
 534:../src/platform/mpfs_hal/common/nwc/mss_io.c **** 
 535:../src/platform/mpfs_hal/common/nwc/mss_io.c ****         case NOT_SETUP_MSSIO_CONFIGURATION:
 536:../src/platform/mpfs_hal/common/nwc/mss_io.c ****             break;
 537:../src/platform/mpfs_hal/common/nwc/mss_io.c ****     }
 538:../src/platform/mpfs_hal/common/nwc/mss_io.c ****     result = true;
 278              		.loc 1 538 5 is_stmt 1
 539:../src/platform/mpfs_hal/common/nwc/mss_io.c **** #else
 540:../src/platform/mpfs_hal/common/nwc/mss_io.c ****     (void)option;
 541:../src/platform/mpfs_hal/common/nwc/mss_io.c ****     result = false;
 542:../src/platform/mpfs_hal/common/nwc/mss_io.c **** #endif
 543:../src/platform/mpfs_hal/common/nwc/mss_io.c **** #endif
 544:../src/platform/mpfs_hal/common/nwc/mss_io.c ****     return result;
 279              		.loc 1 544 5
 545:../src/platform/mpfs_hal/common/nwc/mss_io.c **** }
 280              		.loc 1 545 1 is_stmt 0
 281 0010 A260     		ld	ra,8(sp)
 282              		.cfi_remember_state
 283              		.cfi_restore 1
 284 0012 0545     		li	a0,1
 285 0014 4101     		addi	sp,sp,16
 286              		.cfi_def_cfa_offset 0
 287 0016 8280     		jr	ra
 288              	.LVL14:
 289              	.L12:
 290              		.cfi_restore_state
 510:../src/platform/mpfs_hal/common/nwc/mss_io.c ****             {
 291              		.loc 1 510 13 is_stmt 1
 402:../src/platform/mpfs_hal/common/nwc/mss_io.c **** #ifdef LIBERO_SETTING_MSSIO_CONFIGURATION_OPTIONS
 292              		.loc 1 402 5
 404:../src/platform/mpfs_hal/common/nwc/mss_io.c ****     {
 293              		.loc 1 404 5
 406:../src/platform/mpfs_hal/common/nwc/mss_io.c ****         {
 294              		.loc 1 406 9
 412:../src/platform/mpfs_hal/common/nwc/mss_io.c **** }
 295              		.loc 1 412 5
 517:../src/platform/mpfs_hal/common/nwc/mss_io.c ****             }
 296              		.loc 1 517 17
 297 0018 97000000 		call	io_mux_and_bank_config
 297      E7800000 
 298              	.LVL15:
 299 0020 C5BF     		j	.L14
 300              	.LVL16:
 301              	.L13:
 522:../src/platform/mpfs_hal/common/nwc/mss_io.c ****             {
 302              		.loc 1 522 13
 422:../src/platform/mpfs_hal/common/nwc/mss_io.c **** #ifdef LIBERO_SETTING_MSSIO_CONFIGURATION_OPTIONS
 303              		.loc 1 422 5
 424:../src/platform/mpfs_hal/common/nwc/mss_io.c ****     {
 304              		.loc 1 424 5
 426:../src/platform/mpfs_hal/common/nwc/mss_io.c ****         {
 305              		.loc 1 426 9
 428:../src/platform/mpfs_hal/common/nwc/mss_io.c ****         }
 306              		.loc 1 428 13
 432:../src/platform/mpfs_hal/common/nwc/mss_io.c **** }
 307              		.loc 1 432 5
 308              	.LBB36:
 524:../src/platform/mpfs_hal/common/nwc/mss_io.c ****             }
 309              		.loc 1 524 17
 310 0022 97000000 		call	io_mux_and_bank_config_alt
 310      E7800000 
 311              	.LVL17:
 312              	.LBE36:
 313 002a DDB7     		j	.L14
 314              		.cfi_endproc
 315              	.LFE30:
 317              		.section	.text.switch_external_mux,"ax",@progbits
 318              		.align	1
 319              		.weak	switch_external_mux
 321              	switch_external_mux:
 322              	.LFB31:
 546:../src/platform/mpfs_hal/common/nwc/mss_io.c **** 
 547:../src/platform/mpfs_hal/common/nwc/mss_io.c **** /**
 548:../src/platform/mpfs_hal/common/nwc/mss_io.c ****  * switch_external_mux()
 549:../src/platform/mpfs_hal/common/nwc/mss_io.c ****  * Requires fpga switch hdl. This comes with reference icicle kit design.
 550:../src/platform/mpfs_hal/common/nwc/mss_io.c ****  * You will need to create your own or copy when creating your own fpga design
 551:../src/platform/mpfs_hal/common/nwc/mss_io.c ****  * along with an external mux in your board design if you wish to use SD/eMMC
 552:../src/platform/mpfs_hal/common/nwc/mss_io.c ****  * muxing in your hardware design.
 553:../src/platform/mpfs_hal/common/nwc/mss_io.c ****  * Please note this function will cause a hang if you do not have support
 554:../src/platform/mpfs_hal/common/nwc/mss_io.c ****  * for switching in your fpga design, nlu use if you have this support if your
 555:../src/platform/mpfs_hal/common/nwc/mss_io.c ****  * fabric design.
 556:../src/platform/mpfs_hal/common/nwc/mss_io.c ****  * @param option SD_MSSIO_CONFIGURATION/EMMC_MSSIO_CONFIGURATION
 557:../src/platform/mpfs_hal/common/nwc/mss_io.c ****  * @return
 558:../src/platform/mpfs_hal/common/nwc/mss_io.c ****  */
 559:../src/platform/mpfs_hal/common/nwc/mss_io.c **** __attribute__((weak)) uint8_t switch_external_mux(MSS_IO_OPTIONS option)
 560:../src/platform/mpfs_hal/common/nwc/mss_io.c **** {
 323              		.loc 1 560 1
 324              		.cfi_startproc
 325              	.LVL18:
 561:../src/platform/mpfs_hal/common/nwc/mss_io.c ****     uint8_t result = false;
 326              		.loc 1 561 5
 562:../src/platform/mpfs_hal/common/nwc/mss_io.c **** 
 563:../src/platform/mpfs_hal/common/nwc/mss_io.c ****     volatile uint32_t *reg_pt = (uint32_t *)ICICLE_KIT_REF_DESIGN_FPGS_SWITCH_ADDRESS;
 327              		.loc 1 563 5
 564:../src/platform/mpfs_hal/common/nwc/mss_io.c ****     switch(option)
 328              		.loc 1 564 5
 329 0000 8947     		li	a5,2
 330 0002 6307F500 		beq	a0,a5,.L17
 331 0006 8D47     		li	a5,3
 332 0008 6309F500 		beq	a0,a5,.L18
 333              	.L19:
 565:../src/platform/mpfs_hal/common/nwc/mss_io.c ****     {
 566:../src/platform/mpfs_hal/common/nwc/mss_io.c ****         case SD_MSSIO_CONFIGURATION:
 567:../src/platform/mpfs_hal/common/nwc/mss_io.c ****             *reg_pt = 1UL;
 568:../src/platform/mpfs_hal/common/nwc/mss_io.c ****             break;
 569:../src/platform/mpfs_hal/common/nwc/mss_io.c **** 
 570:../src/platform/mpfs_hal/common/nwc/mss_io.c ****         case EMMC_MSSIO_CONFIGURATION:
 571:../src/platform/mpfs_hal/common/nwc/mss_io.c ****             *reg_pt = 0UL;
 572:../src/platform/mpfs_hal/common/nwc/mss_io.c ****             break;
 573:../src/platform/mpfs_hal/common/nwc/mss_io.c **** 
 574:../src/platform/mpfs_hal/common/nwc/mss_io.c ****         case NO_SUPPORT_MSSIO_CONFIGURATION:
 575:../src/platform/mpfs_hal/common/nwc/mss_io.c ****             break;
 576:../src/platform/mpfs_hal/common/nwc/mss_io.c **** 
 577:../src/platform/mpfs_hal/common/nwc/mss_io.c ****         case NOT_SETUP_MSSIO_CONFIGURATION:
 578:../src/platform/mpfs_hal/common/nwc/mss_io.c ****             break;
 579:../src/platform/mpfs_hal/common/nwc/mss_io.c ****     }
 580:../src/platform/mpfs_hal/common/nwc/mss_io.c ****     result = true;
 334              		.loc 1 580 5
 335              	.LVL19:
 581:../src/platform/mpfs_hal/common/nwc/mss_io.c **** 
 582:../src/platform/mpfs_hal/common/nwc/mss_io.c ****     return result;
 336              		.loc 1 582 5
 583:../src/platform/mpfs_hal/common/nwc/mss_io.c **** }
 337              		.loc 1 583 1 is_stmt 0
 338 000c 0545     		li	a0,1
 339              	.LVL20:
 340 000e 8280     		ret
 341              	.LVL21:
 342              	.L17:
 567:../src/platform/mpfs_hal/common/nwc/mss_io.c ****             break;
 343              		.loc 1 567 13 is_stmt 1
 567:../src/platform/mpfs_hal/common/nwc/mss_io.c ****             break;
 344              		.loc 1 567 21 is_stmt 0
 345 0010 B707004F 		li	a5,1325400064
 346 0014 0547     		li	a4,1
 347 0016 98C3     		sw	a4,0(a5)
 568:../src/platform/mpfs_hal/common/nwc/mss_io.c **** 
 348              		.loc 1 568 13 is_stmt 1
 349 0018 D5BF     		j	.L19
 350              	.L18:
 571:../src/platform/mpfs_hal/common/nwc/mss_io.c ****             break;
 351              		.loc 1 571 13
 571:../src/platform/mpfs_hal/common/nwc/mss_io.c ****             break;
 352              		.loc 1 571 21 is_stmt 0
 353 001a B707004F 		li	a5,1325400064
 354 001e 23A00700 		sw	zero,0(a5)
 572:../src/platform/mpfs_hal/common/nwc/mss_io.c **** 
 355              		.loc 1 572 13 is_stmt 1
 356 0022 EDB7     		j	.L19
 357              		.cfi_endproc
 358              	.LFE31:
 360              		.section	.text.mss_set_gpio_interrupt_fab_cr,"ax",@progbits
 361              		.align	1
 362              		.weak	mss_set_gpio_interrupt_fab_cr
 364              	mss_set_gpio_interrupt_fab_cr:
 365              	.LFB32:
 584:../src/platform/mpfs_hal/common/nwc/mss_io.c **** 
 585:../src/platform/mpfs_hal/common/nwc/mss_io.c **** 
 586:../src/platform/mpfs_hal/common/nwc/mss_io.c **** /***************************************************************************//**
 587:../src/platform/mpfs_hal/common/nwc/mss_io.c ****  * See mss_io_config.h for details of how to use this function.
 588:../src/platform/mpfs_hal/common/nwc/mss_io.c ****  */
 589:../src/platform/mpfs_hal/common/nwc/mss_io.c **** __attribute__((weak)) void mss_set_gpio_interrupt_fab_cr(uint32_t reg_value)
 590:../src/platform/mpfs_hal/common/nwc/mss_io.c **** {
 366              		.loc 1 590 1
 367              		.cfi_startproc
 368              	.LVL22:
 591:../src/platform/mpfs_hal/common/nwc/mss_io.c ****     SYSREG->GPIO_INTERRUPT_FAB_CR = reg_value;
 369              		.loc 1 591 5
 370              		.loc 1 591 35 is_stmt 0
 371 0000 B7270020 		li	a5,536879104
 372 0004 E8CB     		sw	a0,84(a5)
 592:../src/platform/mpfs_hal/common/nwc/mss_io.c **** }
 373              		.loc 1 592 1
 374 0006 8280     		ret
 375              		.cfi_endproc
 376              	.LFE32:
 378              		.section	.text.mss_get_gpio_interrupt_fab_cr,"ax",@progbits
 379              		.align	1
 380              		.weak	mss_get_gpio_interrupt_fab_cr
 382              	mss_get_gpio_interrupt_fab_cr:
 383              	.LFB33:
 593:../src/platform/mpfs_hal/common/nwc/mss_io.c **** 
 594:../src/platform/mpfs_hal/common/nwc/mss_io.c **** /***************************************************************************//**
 595:../src/platform/mpfs_hal/common/nwc/mss_io.c ****  * See mss_peripherals.h for details of how to use this function.
 596:../src/platform/mpfs_hal/common/nwc/mss_io.c ****  */
 597:../src/platform/mpfs_hal/common/nwc/mss_io.c **** __attribute__((weak)) uint32_t mss_get_gpio_interrupt_fab_cr(void)
 598:../src/platform/mpfs_hal/common/nwc/mss_io.c **** {
 384              		.loc 1 598 1 is_stmt 1
 385              		.cfi_startproc
 599:../src/platform/mpfs_hal/common/nwc/mss_io.c ****     return (SYSREG->GPIO_INTERRUPT_FAB_CR);
 386              		.loc 1 599 5
 387              		.loc 1 599 19 is_stmt 0
 388 0000 B7270020 		li	a5,536879104
 389 0004 E84B     		lw	a0,84(a5)
 600:../src/platform/mpfs_hal/common/nwc/mss_io.c **** }
 390              		.loc 1 600 1
 391 0006 0125     		sext.w	a0,a0
 392 0008 8280     		ret
 393              		.cfi_endproc
 394              	.LFE33:
 396              		.globl	mssio_bank2_io_config
 397              		.globl	mssio_bank4_io_config
 398              		.globl	iomux_config_values
 399              		.section	.data.iomux_config_values,"aw"
 400              		.align	3
 401              		.set	.LANCHOR0,. + 0
 404              	iomux_config_values:
 405 0000 DD0F0000 		.word	4061
 406 0004 00000000 		.word	0
 407 0008 00000000 		.word	0
 408 000c 44444444 		.word	1145324612
 409 0010 4444CC88 		.word	-1999879100
 410 0014 333377F7 		.word	-143183053
 411 0018 1D000000 		.word	29
 412              		.section	.data.mssio_bank2_io_config,"aw"
 413              		.align	3
 414              		.set	.LANCHOR2,. + 0
 417              	mssio_bank2_io_config:
 418 0000 29082908 		.word	136906793
 419 0004 29082908 		.word	136906793
 420 0008 29082908 		.word	136906793
 421 000c 29082908 		.word	136906793
 422 0010 29082908 		.word	136906793
 423 0014 29082908 		.word	136906793
 424 0018 29082908 		.word	136906793
 425 001c 29082908 		.word	136906793
 426 0020 29082908 		.word	136906793
 427 0024 29082908 		.word	136906793
 428 0028 29082908 		.word	136906793
 429 002c 29082908 		.word	136906793
 430              		.section	.data.mssio_bank4_io_config,"aw"
 431              		.align	3
 432              		.set	.LANCHOR1,. + 0
 435              	mssio_bank4_io_config:
 436 0000 30093009 		.word	154143024
 437 0004 30093009 		.word	154143024
 438 0008 30093009 		.word	154143024
 439 000c 28092809 		.word	153618728
 440 0010 30093009 		.word	154143024
 441 0014 30093009 		.word	154143024
 442 0018 30093009 		.word	154143024
 443              		.text
 444              	.Letext0:
 445              		.file 2 "/home/vinay/Desktop/soft_console/SoftConsole-v2022.2-RISC-V-747/riscv-unknown-elf-gcc/lib
 446              		.file 3 "/home/vinay/Desktop/soft_console/SoftConsole-v2022.2-RISC-V-747/riscv-unknown-elf-gcc/ris
 447              		.file 4 "/home/vinay/Desktop/soft_console/SoftConsole-v2022.2-RISC-V-747/riscv-unknown-elf-gcc/ris
 448              		.file 5 "/home/vinay/Desktop/soft_console/SoftConsole-v2022.2-RISC-V-747/riscv-unknown-elf-gcc/ris
 449              		.file 6 "/home/vinay/Desktop/soft_console/SoftConsole-v2022.2-RISC-V-747/riscv-unknown-elf-gcc/ris
 450              		.file 7 "/home/vinay/Desktop/soft_console/SoftConsole-v2022.2-RISC-V-747/riscv-unknown-elf-gcc/ris
 451              		.file 8 "/home/vinay/Desktop/softconsole_watershed/Water-shed/src/platform/mpfs_hal/common/nwc/../
 452              		.file 9 "/home/vinay/Desktop/softconsole_watershed/Water-shed/src/platform/mpfs_hal/common/nwc/mss
 453              		.file 10 "/home/vinay/Desktop/softconsole_watershed/Water-shed/src/platform/mpfs_hal/common/nwc/ms
 454              		.file 11 "/home/vinay/Desktop/softconsole_watershed/Water-shed/src/platform/mpfs_hal/common/nwc/ms
 455              		.file 12 "/home/vinay/Desktop/softconsole_watershed/Water-shed/src/platform/mpfs_hal/common/nwc/ms
 456              		.file 13 "/home/vinay/Desktop/softconsole_watershed/Water-shed/src/platform/mpfs_hal/common/mss_mp
 457              		.file 14 "/home/vinay/Desktop/softconsole_watershed/Water-shed/src/platform/mpfs_hal/common/mss_pl
 458              		.file 15 "/home/vinay/Desktop/softconsole_watershed/Water-shed/src/platform/mpfs_hal/startup_gcc/s