   1              		.file	"mss_gpio.c"
   2              		.option nopic
   3              		.attribute arch, "rv64i2p0_m2p0_a2p0_f2p0_d2p0_c2p0"
   4              		.attribute unaligned_access, 0
   5              		.attribute stack_align, 16
   6              		.text
   7              	.Ltext0:
   8              		.cfi_sections	.debug_frame
   9              		.section	.text.PLIC_EnableIRQ,"ax",@progbits
  10              		.align	1
  12              	PLIC_EnableIRQ:
  13              	.LFB7:
  14              		.file 1 "/home/vinay/Desktop/softconsole_watershed/Water-shed/src/platform/mpfs_hal/common/mss_pli
   1:/home/vinay/Desktop/softconsole_watershed/Water-shed/src/platform/mpfs_hal/common/mss_plic.h **** /*******************************************************************************
   2:/home/vinay/Desktop/softconsole_watershed/Water-shed/src/platform/mpfs_hal/common/mss_plic.h ****  * Copyright 2019-2022 Microchip FPGA Embedded Systems Solutions.
   3:/home/vinay/Desktop/softconsole_watershed/Water-shed/src/platform/mpfs_hal/common/mss_plic.h ****  *
   4:/home/vinay/Desktop/softconsole_watershed/Water-shed/src/platform/mpfs_hal/common/mss_plic.h ****  * SPDX-License-Identifier: MIT
   5:/home/vinay/Desktop/softconsole_watershed/Water-shed/src/platform/mpfs_hal/common/mss_plic.h ****  *
   6:/home/vinay/Desktop/softconsole_watershed/Water-shed/src/platform/mpfs_hal/common/mss_plic.h ****  * MPFS HAL Embedded Software
   7:/home/vinay/Desktop/softconsole_watershed/Water-shed/src/platform/mpfs_hal/common/mss_plic.h ****  *
   8:/home/vinay/Desktop/softconsole_watershed/Water-shed/src/platform/mpfs_hal/common/mss_plic.h ****  */
   9:/home/vinay/Desktop/softconsole_watershed/Water-shed/src/platform/mpfs_hal/common/mss_plic.h **** 
  10:/home/vinay/Desktop/softconsole_watershed/Water-shed/src/platform/mpfs_hal/common/mss_plic.h **** /*******************************************************************************
  11:/home/vinay/Desktop/softconsole_watershed/Water-shed/src/platform/mpfs_hal/common/mss_plic.h ****  *
  12:/home/vinay/Desktop/softconsole_watershed/Water-shed/src/platform/mpfs_hal/common/mss_plic.h ****  * @file mss_plic.h
  13:/home/vinay/Desktop/softconsole_watershed/Water-shed/src/platform/mpfs_hal/common/mss_plic.h ****  * @author Microchip-FPGA Embedded Systems Solutions
  14:/home/vinay/Desktop/softconsole_watershed/Water-shed/src/platform/mpfs_hal/common/mss_plic.h ****  * @brief PolarFire SoC MSS PLIC and PRCI access data structures and functions.
  15:/home/vinay/Desktop/softconsole_watershed/Water-shed/src/platform/mpfs_hal/common/mss_plic.h ****  *
  16:/home/vinay/Desktop/softconsole_watershed/Water-shed/src/platform/mpfs_hal/common/mss_plic.h ****  * Definitions and functions associated with PLIC interrupts.
  17:/home/vinay/Desktop/softconsole_watershed/Water-shed/src/platform/mpfs_hal/common/mss_plic.h ****  *
  18:/home/vinay/Desktop/softconsole_watershed/Water-shed/src/platform/mpfs_hal/common/mss_plic.h ****  */
  19:/home/vinay/Desktop/softconsole_watershed/Water-shed/src/platform/mpfs_hal/common/mss_plic.h **** #ifndef MSS_PLIC_H
  20:/home/vinay/Desktop/softconsole_watershed/Water-shed/src/platform/mpfs_hal/common/mss_plic.h **** #define MSS_PLIC_H
  21:/home/vinay/Desktop/softconsole_watershed/Water-shed/src/platform/mpfs_hal/common/mss_plic.h **** 
  22:/home/vinay/Desktop/softconsole_watershed/Water-shed/src/platform/mpfs_hal/common/mss_plic.h **** #include <stdint.h>
  23:/home/vinay/Desktop/softconsole_watershed/Water-shed/src/platform/mpfs_hal/common/mss_plic.h **** #ifndef CONFIG_OPENSBI
  24:/home/vinay/Desktop/softconsole_watershed/Water-shed/src/platform/mpfs_hal/common/mss_plic.h **** #include "encoding.h"
  25:/home/vinay/Desktop/softconsole_watershed/Water-shed/src/platform/mpfs_hal/common/mss_plic.h **** #endif
  26:/home/vinay/Desktop/softconsole_watershed/Water-shed/src/platform/mpfs_hal/common/mss_plic.h **** 
  27:/home/vinay/Desktop/softconsole_watershed/Water-shed/src/platform/mpfs_hal/common/mss_plic.h **** #include "mss_legacy_defines.h"
  28:/home/vinay/Desktop/softconsole_watershed/Water-shed/src/platform/mpfs_hal/common/mss_plic.h **** #include "mss_assert.h"
  29:/home/vinay/Desktop/softconsole_watershed/Water-shed/src/platform/mpfs_hal/common/mss_plic.h **** 
  30:/home/vinay/Desktop/softconsole_watershed/Water-shed/src/platform/mpfs_hal/common/mss_plic.h **** #ifdef __cplusplus
  31:/home/vinay/Desktop/softconsole_watershed/Water-shed/src/platform/mpfs_hal/common/mss_plic.h **** extern "C" {
  32:/home/vinay/Desktop/softconsole_watershed/Water-shed/src/platform/mpfs_hal/common/mss_plic.h **** #endif
  33:/home/vinay/Desktop/softconsole_watershed/Water-shed/src/platform/mpfs_hal/common/mss_plic.h **** 
  34:/home/vinay/Desktop/softconsole_watershed/Water-shed/src/platform/mpfs_hal/common/mss_plic.h **** /*
  35:/home/vinay/Desktop/softconsole_watershed/Water-shed/src/platform/mpfs_hal/common/mss_plic.h ****  *Return value from External IRQ handler. This will be used to disable the
  36:/home/vinay/Desktop/softconsole_watershed/Water-shed/src/platform/mpfs_hal/common/mss_plic.h ****  *Return External interrupt.
  37:/home/vinay/Desktop/softconsole_watershed/Water-shed/src/platform/mpfs_hal/common/mss_plic.h ****  */
  38:/home/vinay/Desktop/softconsole_watershed/Water-shed/src/platform/mpfs_hal/common/mss_plic.h **** #define EXT_IRQ_KEEP_ENABLED                                0U
  39:/home/vinay/Desktop/softconsole_watershed/Water-shed/src/platform/mpfs_hal/common/mss_plic.h **** #define EXT_IRQ_DISABLE                                     1U
  40:/home/vinay/Desktop/softconsole_watershed/Water-shed/src/platform/mpfs_hal/common/mss_plic.h **** 
  41:/home/vinay/Desktop/softconsole_watershed/Water-shed/src/platform/mpfs_hal/common/mss_plic.h **** /*------------------------------------------------------------------------------
  42:/home/vinay/Desktop/softconsole_watershed/Water-shed/src/platform/mpfs_hal/common/mss_plic.h ****  *
  43:/home/vinay/Desktop/softconsole_watershed/Water-shed/src/platform/mpfs_hal/common/mss_plic.h ****  */
  44:/home/vinay/Desktop/softconsole_watershed/Water-shed/src/platform/mpfs_hal/common/mss_plic.h **** uint8_t  PLIC_Invalid_IRQHandler(void);
  45:/home/vinay/Desktop/softconsole_watershed/Water-shed/src/platform/mpfs_hal/common/mss_plic.h **** uint8_t  PLIC_l2_metadata_corr_IRQHandler(void);
  46:/home/vinay/Desktop/softconsole_watershed/Water-shed/src/platform/mpfs_hal/common/mss_plic.h **** uint8_t  PLIC_l2_metadata_uncorr_IRQHandler(void);
  47:/home/vinay/Desktop/softconsole_watershed/Water-shed/src/platform/mpfs_hal/common/mss_plic.h **** uint8_t  PLIC_l2_data_corr_IRQHandler(void);
  48:/home/vinay/Desktop/softconsole_watershed/Water-shed/src/platform/mpfs_hal/common/mss_plic.h **** uint8_t  PLIC_l2_data_uncorr_IRQHandler(void);
  49:/home/vinay/Desktop/softconsole_watershed/Water-shed/src/platform/mpfs_hal/common/mss_plic.h **** uint8_t  PLIC_dma_ch0_DONE_IRQHandler(void);
  50:/home/vinay/Desktop/softconsole_watershed/Water-shed/src/platform/mpfs_hal/common/mss_plic.h **** uint8_t  PLIC_dma_ch0_ERR_IRQHandler(void);
  51:/home/vinay/Desktop/softconsole_watershed/Water-shed/src/platform/mpfs_hal/common/mss_plic.h **** uint8_t  PLIC_dma_ch1_DONE_IRQHandler(void);
  52:/home/vinay/Desktop/softconsole_watershed/Water-shed/src/platform/mpfs_hal/common/mss_plic.h **** uint8_t  PLIC_dma_ch1_ERR_IRQHandler(void);
  53:/home/vinay/Desktop/softconsole_watershed/Water-shed/src/platform/mpfs_hal/common/mss_plic.h **** uint8_t  PLIC_dma_ch2_DONE_IRQHandler(void);
  54:/home/vinay/Desktop/softconsole_watershed/Water-shed/src/platform/mpfs_hal/common/mss_plic.h **** uint8_t  PLIC_dma_ch2_ERR_IRQHandler(void);
  55:/home/vinay/Desktop/softconsole_watershed/Water-shed/src/platform/mpfs_hal/common/mss_plic.h **** uint8_t  PLIC_dma_ch3_DONE_IRQHandler(void);
  56:/home/vinay/Desktop/softconsole_watershed/Water-shed/src/platform/mpfs_hal/common/mss_plic.h **** uint8_t  PLIC_dma_ch3_ERR_IRQHandler(void);
  57:/home/vinay/Desktop/softconsole_watershed/Water-shed/src/platform/mpfs_hal/common/mss_plic.h **** uint8_t  PLIC_gpio0_bit0_or_gpio2_bit13_IRQHandler(void);
  58:/home/vinay/Desktop/softconsole_watershed/Water-shed/src/platform/mpfs_hal/common/mss_plic.h **** uint8_t  PLIC_gpio0_bit1_or_gpio2_bit13_IRQHandler(void);
  59:/home/vinay/Desktop/softconsole_watershed/Water-shed/src/platform/mpfs_hal/common/mss_plic.h **** uint8_t  PLIC_gpio0_bit2_or_gpio2_bit13_IRQHandler(void);
  60:/home/vinay/Desktop/softconsole_watershed/Water-shed/src/platform/mpfs_hal/common/mss_plic.h **** uint8_t  PLIC_gpio0_bit3_or_gpio2_bit13_IRQHandler(void);
  61:/home/vinay/Desktop/softconsole_watershed/Water-shed/src/platform/mpfs_hal/common/mss_plic.h **** uint8_t  PLIC_gpio0_bit4_or_gpio2_bit13_IRQHandler(void);
  62:/home/vinay/Desktop/softconsole_watershed/Water-shed/src/platform/mpfs_hal/common/mss_plic.h **** uint8_t  PLIC_gpio0_bit5_or_gpio2_bit13_IRQHandler(void);
  63:/home/vinay/Desktop/softconsole_watershed/Water-shed/src/platform/mpfs_hal/common/mss_plic.h **** uint8_t  PLIC_gpio0_bit6_or_gpio2_bit13_IRQHandler(void);
  64:/home/vinay/Desktop/softconsole_watershed/Water-shed/src/platform/mpfs_hal/common/mss_plic.h **** uint8_t  PLIC_gpio0_bit7_or_gpio2_bit13_IRQHandler(void);
  65:/home/vinay/Desktop/softconsole_watershed/Water-shed/src/platform/mpfs_hal/common/mss_plic.h **** uint8_t  PLIC_gpio0_bit8_or_gpio2_bit13_IRQHandler(void);
  66:/home/vinay/Desktop/softconsole_watershed/Water-shed/src/platform/mpfs_hal/common/mss_plic.h **** uint8_t  PLIC_gpio0_bit9_or_gpio2_bit13_IRQHandler(void);
  67:/home/vinay/Desktop/softconsole_watershed/Water-shed/src/platform/mpfs_hal/common/mss_plic.h **** uint8_t  PLIC_gpio0_bit10_or_gpio2_bit13_IRQHandler(void);
  68:/home/vinay/Desktop/softconsole_watershed/Water-shed/src/platform/mpfs_hal/common/mss_plic.h **** uint8_t  PLIC_gpio0_bit11_or_gpio2_bit13_IRQHandler(void);
  69:/home/vinay/Desktop/softconsole_watershed/Water-shed/src/platform/mpfs_hal/common/mss_plic.h **** uint8_t  PLIC_gpio0_bit12_or_gpio2_bit13_IRQHandler(void);
  70:/home/vinay/Desktop/softconsole_watershed/Water-shed/src/platform/mpfs_hal/common/mss_plic.h **** 
  71:/home/vinay/Desktop/softconsole_watershed/Water-shed/src/platform/mpfs_hal/common/mss_plic.h **** uint8_t  PLIC_gpio0_bit13_or_gpio2_bit13_IRQHandler(void);
  72:/home/vinay/Desktop/softconsole_watershed/Water-shed/src/platform/mpfs_hal/common/mss_plic.h **** uint8_t  PLIC_gpio1_bit0_or_gpio2_bit14_IRQHandler(void);
  73:/home/vinay/Desktop/softconsole_watershed/Water-shed/src/platform/mpfs_hal/common/mss_plic.h **** uint8_t  PLIC_gpio1_bit1_or_gpio2_bit15_IRQHandler(void);
  74:/home/vinay/Desktop/softconsole_watershed/Water-shed/src/platform/mpfs_hal/common/mss_plic.h **** uint8_t  PLIC_gpio1_bit2_or_gpio2_bit16_IRQHandler(void);
  75:/home/vinay/Desktop/softconsole_watershed/Water-shed/src/platform/mpfs_hal/common/mss_plic.h **** uint8_t  PLIC_gpio1_bit3_or_gpio2_bit17_IRQHandler(void);
  76:/home/vinay/Desktop/softconsole_watershed/Water-shed/src/platform/mpfs_hal/common/mss_plic.h **** uint8_t  PLIC_gpio1_bit4_or_gpio2_bit18_IRQHandler(void);
  77:/home/vinay/Desktop/softconsole_watershed/Water-shed/src/platform/mpfs_hal/common/mss_plic.h **** uint8_t  PLIC_gpio1_bit5_or_gpio2_bit19_IRQHandler(void);
  78:/home/vinay/Desktop/softconsole_watershed/Water-shed/src/platform/mpfs_hal/common/mss_plic.h **** uint8_t  PLIC_gpio1_bit6_or_gpio2_bit20_IRQHandler(void);
  79:/home/vinay/Desktop/softconsole_watershed/Water-shed/src/platform/mpfs_hal/common/mss_plic.h **** uint8_t  PLIC_gpio1_bit7_or_gpio2_bit21_IRQHandler(void);
  80:/home/vinay/Desktop/softconsole_watershed/Water-shed/src/platform/mpfs_hal/common/mss_plic.h **** uint8_t  PLIC_gpio1_bit8_or_gpio2_bit22_IRQHandler(void);
  81:/home/vinay/Desktop/softconsole_watershed/Water-shed/src/platform/mpfs_hal/common/mss_plic.h **** uint8_t  PLIC_gpio1_bit9_or_gpio2_bit23_IRQHandler(void);
  82:/home/vinay/Desktop/softconsole_watershed/Water-shed/src/platform/mpfs_hal/common/mss_plic.h **** uint8_t  PLIC_gpio1_bit10_or_gpio2_bit24_IRQHandler(void);
  83:/home/vinay/Desktop/softconsole_watershed/Water-shed/src/platform/mpfs_hal/common/mss_plic.h **** uint8_t  PLIC_gpio1_bit11_or_gpio2_bit25_IRQHandler(void);
  84:/home/vinay/Desktop/softconsole_watershed/Water-shed/src/platform/mpfs_hal/common/mss_plic.h **** uint8_t  PLIC_gpio1_bit12_or_gpio2_bit26_IRQHandler(void);
  85:/home/vinay/Desktop/softconsole_watershed/Water-shed/src/platform/mpfs_hal/common/mss_plic.h **** uint8_t  PLIC_gpio1_bit13_or_gpio2_bit27_IRQHandler(void);
  86:/home/vinay/Desktop/softconsole_watershed/Water-shed/src/platform/mpfs_hal/common/mss_plic.h **** 
  87:/home/vinay/Desktop/softconsole_watershed/Water-shed/src/platform/mpfs_hal/common/mss_plic.h **** uint8_t  PLIC_gpio1_bit14_or_gpio2_bit28_IRQHandler(void);
  88:/home/vinay/Desktop/softconsole_watershed/Water-shed/src/platform/mpfs_hal/common/mss_plic.h **** uint8_t  PLIC_gpio1_bit15_or_gpio2_bit29_IRQHandler(void);
  89:/home/vinay/Desktop/softconsole_watershed/Water-shed/src/platform/mpfs_hal/common/mss_plic.h **** uint8_t  PLIC_gpio1_bit16_or_gpio2_bit30_IRQHandler(void);
  90:/home/vinay/Desktop/softconsole_watershed/Water-shed/src/platform/mpfs_hal/common/mss_plic.h **** uint8_t  PLIC_gpio1_bit17_or_gpio2_bit31_IRQHandler(void);
  91:/home/vinay/Desktop/softconsole_watershed/Water-shed/src/platform/mpfs_hal/common/mss_plic.h **** 
  92:/home/vinay/Desktop/softconsole_watershed/Water-shed/src/platform/mpfs_hal/common/mss_plic.h **** uint8_t  PLIC_gpio1_bit18_IRQHandler(void);
  93:/home/vinay/Desktop/softconsole_watershed/Water-shed/src/platform/mpfs_hal/common/mss_plic.h **** uint8_t  PLIC_gpio1_bit19_IRQHandler(void);
  94:/home/vinay/Desktop/softconsole_watershed/Water-shed/src/platform/mpfs_hal/common/mss_plic.h **** uint8_t  PLIC_gpio1_bit20_IRQHandler(void);
  95:/home/vinay/Desktop/softconsole_watershed/Water-shed/src/platform/mpfs_hal/common/mss_plic.h **** uint8_t  PLIC_gpio1_bit21_IRQHandler(void);
  96:/home/vinay/Desktop/softconsole_watershed/Water-shed/src/platform/mpfs_hal/common/mss_plic.h **** uint8_t  PLIC_gpio1_bit22_IRQHandler(void);
  97:/home/vinay/Desktop/softconsole_watershed/Water-shed/src/platform/mpfs_hal/common/mss_plic.h **** uint8_t  PLIC_gpio1_bit23_IRQHandler(void);
  98:/home/vinay/Desktop/softconsole_watershed/Water-shed/src/platform/mpfs_hal/common/mss_plic.h **** 
  99:/home/vinay/Desktop/softconsole_watershed/Water-shed/src/platform/mpfs_hal/common/mss_plic.h **** uint8_t  PLIC_gpio0_non_direct_IRQHandler(void);
 100:/home/vinay/Desktop/softconsole_watershed/Water-shed/src/platform/mpfs_hal/common/mss_plic.h **** uint8_t  PLIC_gpio1_non_direct_IRQHandler(void);
 101:/home/vinay/Desktop/softconsole_watershed/Water-shed/src/platform/mpfs_hal/common/mss_plic.h **** uint8_t  PLIC_gpio2_non_direct_IRQHandler(void);
 102:/home/vinay/Desktop/softconsole_watershed/Water-shed/src/platform/mpfs_hal/common/mss_plic.h **** 
 103:/home/vinay/Desktop/softconsole_watershed/Water-shed/src/platform/mpfs_hal/common/mss_plic.h **** uint8_t  PLIC_spi0_IRQHandler(void);
 104:/home/vinay/Desktop/softconsole_watershed/Water-shed/src/platform/mpfs_hal/common/mss_plic.h **** uint8_t  PLIC_spi1_IRQHandler(void);
 105:/home/vinay/Desktop/softconsole_watershed/Water-shed/src/platform/mpfs_hal/common/mss_plic.h **** uint8_t  PLIC_external_can0_IRQHandler(void);
 106:/home/vinay/Desktop/softconsole_watershed/Water-shed/src/platform/mpfs_hal/common/mss_plic.h **** uint8_t  PLIC_can1_IRQHandler(void);
 107:/home/vinay/Desktop/softconsole_watershed/Water-shed/src/platform/mpfs_hal/common/mss_plic.h **** uint8_t  PLIC_External_i2c0_main_IRQHandler(void);
 108:/home/vinay/Desktop/softconsole_watershed/Water-shed/src/platform/mpfs_hal/common/mss_plic.h **** uint8_t  PLIC_External_i2c0_alert_IRQHandler(void);
 109:/home/vinay/Desktop/softconsole_watershed/Water-shed/src/platform/mpfs_hal/common/mss_plic.h **** uint8_t  PLIC_i2c0_sus_IRQHandler(void);
 110:/home/vinay/Desktop/softconsole_watershed/Water-shed/src/platform/mpfs_hal/common/mss_plic.h **** uint8_t  PLIC_i2c1_main_IRQHandler(void);
 111:/home/vinay/Desktop/softconsole_watershed/Water-shed/src/platform/mpfs_hal/common/mss_plic.h **** uint8_t  PLIC_i2c1_alert_IRQHandler(void);
 112:/home/vinay/Desktop/softconsole_watershed/Water-shed/src/platform/mpfs_hal/common/mss_plic.h **** uint8_t  PLIC_i2c1_sus_IRQHandler(void);
 113:/home/vinay/Desktop/softconsole_watershed/Water-shed/src/platform/mpfs_hal/common/mss_plic.h **** uint8_t  PLIC_mac0_int_IRQHandler(void);
 114:/home/vinay/Desktop/softconsole_watershed/Water-shed/src/platform/mpfs_hal/common/mss_plic.h **** uint8_t  PLIC_mac0_queue1_IRQHandler(void);
 115:/home/vinay/Desktop/softconsole_watershed/Water-shed/src/platform/mpfs_hal/common/mss_plic.h **** uint8_t  PLIC_mac0_queue2_IRQHandler(void);
 116:/home/vinay/Desktop/softconsole_watershed/Water-shed/src/platform/mpfs_hal/common/mss_plic.h **** uint8_t  PLIC_mac0_queue3_IRQHandler(void);
 117:/home/vinay/Desktop/softconsole_watershed/Water-shed/src/platform/mpfs_hal/common/mss_plic.h **** uint8_t  PLIC_mac0_emac_IRQHandler(void);
 118:/home/vinay/Desktop/softconsole_watershed/Water-shed/src/platform/mpfs_hal/common/mss_plic.h **** uint8_t  PLIC_mac0_mmsl_IRQHandler(void);
 119:/home/vinay/Desktop/softconsole_watershed/Water-shed/src/platform/mpfs_hal/common/mss_plic.h **** uint8_t  PLIC_mac1_int_IRQHandler(void);
 120:/home/vinay/Desktop/softconsole_watershed/Water-shed/src/platform/mpfs_hal/common/mss_plic.h **** uint8_t  PLIC_mac1_queue1_IRQHandler(void);
 121:/home/vinay/Desktop/softconsole_watershed/Water-shed/src/platform/mpfs_hal/common/mss_plic.h **** uint8_t  PLIC_mac1_queue2_IRQHandler(void);
 122:/home/vinay/Desktop/softconsole_watershed/Water-shed/src/platform/mpfs_hal/common/mss_plic.h **** uint8_t  PLIC_mac1_queue3_IRQHandler(void);
 123:/home/vinay/Desktop/softconsole_watershed/Water-shed/src/platform/mpfs_hal/common/mss_plic.h **** uint8_t  PLIC_mac1_emac_IRQHandler(void);
 124:/home/vinay/Desktop/softconsole_watershed/Water-shed/src/platform/mpfs_hal/common/mss_plic.h **** uint8_t  PLIC_mac1_mmsl_IRQHandler(void);
 125:/home/vinay/Desktop/softconsole_watershed/Water-shed/src/platform/mpfs_hal/common/mss_plic.h **** uint8_t  PLIC_ddrc_train_IRQHandler(void);
 126:/home/vinay/Desktop/softconsole_watershed/Water-shed/src/platform/mpfs_hal/common/mss_plic.h **** uint8_t  PLIC_scb_interrupt_IRQHandler(void);
 127:/home/vinay/Desktop/softconsole_watershed/Water-shed/src/platform/mpfs_hal/common/mss_plic.h **** uint8_t  PLIC_ecc_error_IRQHandler(void);
 128:/home/vinay/Desktop/softconsole_watershed/Water-shed/src/platform/mpfs_hal/common/mss_plic.h **** uint8_t  PLIC_ecc_correct_IRQHandler(void);
 129:/home/vinay/Desktop/softconsole_watershed/Water-shed/src/platform/mpfs_hal/common/mss_plic.h **** uint8_t  PLIC_rtc_wakeup_IRQHandler(void);
 130:/home/vinay/Desktop/softconsole_watershed/Water-shed/src/platform/mpfs_hal/common/mss_plic.h **** uint8_t  PLIC_rtc_match_IRQHandler(void);
 131:/home/vinay/Desktop/softconsole_watershed/Water-shed/src/platform/mpfs_hal/common/mss_plic.h **** uint8_t  PLIC_timer1_IRQHandler(void);
 132:/home/vinay/Desktop/softconsole_watershed/Water-shed/src/platform/mpfs_hal/common/mss_plic.h **** uint8_t  PLIC_timer2_IRQHandler(void);
 133:/home/vinay/Desktop/softconsole_watershed/Water-shed/src/platform/mpfs_hal/common/mss_plic.h **** uint8_t  PLIC_envm_IRQHandler(void);
 134:/home/vinay/Desktop/softconsole_watershed/Water-shed/src/platform/mpfs_hal/common/mss_plic.h **** uint8_t  PLIC_qspi_IRQHandler(void);
 135:/home/vinay/Desktop/softconsole_watershed/Water-shed/src/platform/mpfs_hal/common/mss_plic.h **** uint8_t  PLIC_usb_dma_IRQHandler(void);
 136:/home/vinay/Desktop/softconsole_watershed/Water-shed/src/platform/mpfs_hal/common/mss_plic.h **** uint8_t  PLIC_usb_mc_IRQHandler(void);
 137:/home/vinay/Desktop/softconsole_watershed/Water-shed/src/platform/mpfs_hal/common/mss_plic.h **** uint8_t  PLIC_mmc_main_IRQHandler(void);
 138:/home/vinay/Desktop/softconsole_watershed/Water-shed/src/platform/mpfs_hal/common/mss_plic.h **** uint8_t  PLIC_mmc_wakeup_IRQHandler(void);
 139:/home/vinay/Desktop/softconsole_watershed/Water-shed/src/platform/mpfs_hal/common/mss_plic.h **** uint8_t  PLIC_mmuart0_IRQHandler(void);
 140:/home/vinay/Desktop/softconsole_watershed/Water-shed/src/platform/mpfs_hal/common/mss_plic.h **** uint8_t  PLIC_mmuart1_IRQHandler(void);
 141:/home/vinay/Desktop/softconsole_watershed/Water-shed/src/platform/mpfs_hal/common/mss_plic.h **** uint8_t  PLIC_mmuart2_IRQHandler(void);
 142:/home/vinay/Desktop/softconsole_watershed/Water-shed/src/platform/mpfs_hal/common/mss_plic.h **** uint8_t  PLIC_mmuart3_IRQHandler(void);
 143:/home/vinay/Desktop/softconsole_watershed/Water-shed/src/platform/mpfs_hal/common/mss_plic.h **** uint8_t  PLIC_mmuart4_IRQHandler(void);
 144:/home/vinay/Desktop/softconsole_watershed/Water-shed/src/platform/mpfs_hal/common/mss_plic.h **** uint8_t  PLIC_devrst_IRQHandler(void);
 145:/home/vinay/Desktop/softconsole_watershed/Water-shed/src/platform/mpfs_hal/common/mss_plic.h **** uint8_t  PLIC_g5c_message_IRQHandler(void);
 146:/home/vinay/Desktop/softconsole_watershed/Water-shed/src/platform/mpfs_hal/common/mss_plic.h **** uint8_t  PLIC_usoc_vc_interrupt_IRQHandler(void);
 147:/home/vinay/Desktop/softconsole_watershed/Water-shed/src/platform/mpfs_hal/common/mss_plic.h **** uint8_t  PLIC_usoc_smb_interrupt_IRQHandler(void);
 148:/home/vinay/Desktop/softconsole_watershed/Water-shed/src/platform/mpfs_hal/common/mss_plic.h **** uint8_t  PLIC_E51_Maintence_IRQHandler(void);
 149:/home/vinay/Desktop/softconsole_watershed/Water-shed/src/platform/mpfs_hal/common/mss_plic.h **** 
 150:/home/vinay/Desktop/softconsole_watershed/Water-shed/src/platform/mpfs_hal/common/mss_plic.h **** uint8_t  PLIC_wdog0_mvrp_IRQHandler(void);
 151:/home/vinay/Desktop/softconsole_watershed/Water-shed/src/platform/mpfs_hal/common/mss_plic.h **** uint8_t  PLIC_wdog1_mvrp_IRQHandler(void);
 152:/home/vinay/Desktop/softconsole_watershed/Water-shed/src/platform/mpfs_hal/common/mss_plic.h **** uint8_t  PLIC_wdog2_mvrp_IRQHandler(void);
 153:/home/vinay/Desktop/softconsole_watershed/Water-shed/src/platform/mpfs_hal/common/mss_plic.h **** uint8_t  PLIC_wdog3_mvrp_IRQHandler(void);
 154:/home/vinay/Desktop/softconsole_watershed/Water-shed/src/platform/mpfs_hal/common/mss_plic.h **** uint8_t  PLIC_wdog4_mvrp_IRQHandler(void);
 155:/home/vinay/Desktop/softconsole_watershed/Water-shed/src/platform/mpfs_hal/common/mss_plic.h **** uint8_t  PLIC_wdog0_tout_IRQHandler(void);
 156:/home/vinay/Desktop/softconsole_watershed/Water-shed/src/platform/mpfs_hal/common/mss_plic.h **** uint8_t  PLIC_wdog1_tout_IRQHandler(void);
 157:/home/vinay/Desktop/softconsole_watershed/Water-shed/src/platform/mpfs_hal/common/mss_plic.h **** uint8_t  PLIC_wdog2_tout_IRQHandler(void);
 158:/home/vinay/Desktop/softconsole_watershed/Water-shed/src/platform/mpfs_hal/common/mss_plic.h **** uint8_t  PLIC_wdog3_tout_IRQHandler(void);
 159:/home/vinay/Desktop/softconsole_watershed/Water-shed/src/platform/mpfs_hal/common/mss_plic.h **** uint8_t  PLIC_wdog4_tout_IRQHandler(void);
 160:/home/vinay/Desktop/softconsole_watershed/Water-shed/src/platform/mpfs_hal/common/mss_plic.h **** uint8_t  PLIC_g5c_mss_spi_IRQHandler(void);
 161:/home/vinay/Desktop/softconsole_watershed/Water-shed/src/platform/mpfs_hal/common/mss_plic.h **** uint8_t  PLIC_volt_temp_alarm_IRQHandler(void);
 162:/home/vinay/Desktop/softconsole_watershed/Water-shed/src/platform/mpfs_hal/common/mss_plic.h **** 
 163:/home/vinay/Desktop/softconsole_watershed/Water-shed/src/platform/mpfs_hal/common/mss_plic.h **** uint8_t  PLIC_athena_complete_IRQHandler(void);
 164:/home/vinay/Desktop/softconsole_watershed/Water-shed/src/platform/mpfs_hal/common/mss_plic.h **** uint8_t  PLIC_athena_alarm_IRQHandler(void);
 165:/home/vinay/Desktop/softconsole_watershed/Water-shed/src/platform/mpfs_hal/common/mss_plic.h **** uint8_t  PLIC_athena_bus_error_IRQHandler(void);
 166:/home/vinay/Desktop/softconsole_watershed/Water-shed/src/platform/mpfs_hal/common/mss_plic.h **** uint8_t  PLIC_usoc_axic_us_IRQHandler(void);
 167:/home/vinay/Desktop/softconsole_watershed/Water-shed/src/platform/mpfs_hal/common/mss_plic.h **** uint8_t  PLIC_usoc_axic_ds_IRQHandler(void);
 168:/home/vinay/Desktop/softconsole_watershed/Water-shed/src/platform/mpfs_hal/common/mss_plic.h **** 
 169:/home/vinay/Desktop/softconsole_watershed/Water-shed/src/platform/mpfs_hal/common/mss_plic.h **** uint8_t  PLIC_reserved_104_IRQHandler(void);
 170:/home/vinay/Desktop/softconsole_watershed/Water-shed/src/platform/mpfs_hal/common/mss_plic.h **** 
 171:/home/vinay/Desktop/softconsole_watershed/Water-shed/src/platform/mpfs_hal/common/mss_plic.h **** uint8_t  PLIC_f2m_0_IRQHandler(void);
 172:/home/vinay/Desktop/softconsole_watershed/Water-shed/src/platform/mpfs_hal/common/mss_plic.h **** uint8_t  PLIC_f2m_1_IRQHandler(void);
 173:/home/vinay/Desktop/softconsole_watershed/Water-shed/src/platform/mpfs_hal/common/mss_plic.h **** uint8_t  PLIC_f2m_2_IRQHandler(void);
 174:/home/vinay/Desktop/softconsole_watershed/Water-shed/src/platform/mpfs_hal/common/mss_plic.h **** uint8_t  PLIC_f2m_3_IRQHandler(void);
 175:/home/vinay/Desktop/softconsole_watershed/Water-shed/src/platform/mpfs_hal/common/mss_plic.h **** uint8_t  PLIC_f2m_4_IRQHandler(void);
 176:/home/vinay/Desktop/softconsole_watershed/Water-shed/src/platform/mpfs_hal/common/mss_plic.h **** uint8_t  PLIC_f2m_5_IRQHandler(void);
 177:/home/vinay/Desktop/softconsole_watershed/Water-shed/src/platform/mpfs_hal/common/mss_plic.h **** uint8_t  PLIC_f2m_6_IRQHandler(void);
 178:/home/vinay/Desktop/softconsole_watershed/Water-shed/src/platform/mpfs_hal/common/mss_plic.h **** uint8_t  PLIC_f2m_7_IRQHandler(void);
 179:/home/vinay/Desktop/softconsole_watershed/Water-shed/src/platform/mpfs_hal/common/mss_plic.h **** uint8_t  PLIC_f2m_8_IRQHandler(void);
 180:/home/vinay/Desktop/softconsole_watershed/Water-shed/src/platform/mpfs_hal/common/mss_plic.h **** uint8_t  PLIC_f2m_9_IRQHandler(void);
 181:/home/vinay/Desktop/softconsole_watershed/Water-shed/src/platform/mpfs_hal/common/mss_plic.h **** 
 182:/home/vinay/Desktop/softconsole_watershed/Water-shed/src/platform/mpfs_hal/common/mss_plic.h **** uint8_t  PLIC_f2m_10_IRQHandler(void);
 183:/home/vinay/Desktop/softconsole_watershed/Water-shed/src/platform/mpfs_hal/common/mss_plic.h **** uint8_t  PLIC_f2m_11_IRQHandler(void);
 184:/home/vinay/Desktop/softconsole_watershed/Water-shed/src/platform/mpfs_hal/common/mss_plic.h **** uint8_t  PLIC_f2m_12_IRQHandler(void);
 185:/home/vinay/Desktop/softconsole_watershed/Water-shed/src/platform/mpfs_hal/common/mss_plic.h **** uint8_t  PLIC_f2m_13_IRQHandler(void);
 186:/home/vinay/Desktop/softconsole_watershed/Water-shed/src/platform/mpfs_hal/common/mss_plic.h **** uint8_t  PLIC_f2m_14_IRQHandler(void);
 187:/home/vinay/Desktop/softconsole_watershed/Water-shed/src/platform/mpfs_hal/common/mss_plic.h **** uint8_t  PLIC_f2m_15_IRQHandler(void);
 188:/home/vinay/Desktop/softconsole_watershed/Water-shed/src/platform/mpfs_hal/common/mss_plic.h **** uint8_t  PLIC_f2m_16_IRQHandler(void);
 189:/home/vinay/Desktop/softconsole_watershed/Water-shed/src/platform/mpfs_hal/common/mss_plic.h **** uint8_t  PLIC_f2m_17_IRQHandler(void);
 190:/home/vinay/Desktop/softconsole_watershed/Water-shed/src/platform/mpfs_hal/common/mss_plic.h **** uint8_t  PLIC_f2m_18_IRQHandler(void);
 191:/home/vinay/Desktop/softconsole_watershed/Water-shed/src/platform/mpfs_hal/common/mss_plic.h **** uint8_t  PLIC_f2m_19_IRQHandler(void);
 192:/home/vinay/Desktop/softconsole_watershed/Water-shed/src/platform/mpfs_hal/common/mss_plic.h **** 
 193:/home/vinay/Desktop/softconsole_watershed/Water-shed/src/platform/mpfs_hal/common/mss_plic.h **** uint8_t  PLIC_f2m_20_IRQHandler(void);
 194:/home/vinay/Desktop/softconsole_watershed/Water-shed/src/platform/mpfs_hal/common/mss_plic.h **** uint8_t  PLIC_f2m_21_IRQHandler(void);
 195:/home/vinay/Desktop/softconsole_watershed/Water-shed/src/platform/mpfs_hal/common/mss_plic.h **** uint8_t  PLIC_f2m_22_IRQHandler(void);
 196:/home/vinay/Desktop/softconsole_watershed/Water-shed/src/platform/mpfs_hal/common/mss_plic.h **** uint8_t  PLIC_f2m_23_IRQHandler(void);
 197:/home/vinay/Desktop/softconsole_watershed/Water-shed/src/platform/mpfs_hal/common/mss_plic.h **** uint8_t  PLIC_f2m_24_IRQHandler(void);
 198:/home/vinay/Desktop/softconsole_watershed/Water-shed/src/platform/mpfs_hal/common/mss_plic.h **** uint8_t  PLIC_f2m_25_IRQHandler(void);
 199:/home/vinay/Desktop/softconsole_watershed/Water-shed/src/platform/mpfs_hal/common/mss_plic.h **** uint8_t  PLIC_f2m_26_IRQHandler(void);
 200:/home/vinay/Desktop/softconsole_watershed/Water-shed/src/platform/mpfs_hal/common/mss_plic.h **** uint8_t  PLIC_f2m_27_IRQHandler(void);
 201:/home/vinay/Desktop/softconsole_watershed/Water-shed/src/platform/mpfs_hal/common/mss_plic.h **** uint8_t  PLIC_f2m_28_IRQHandler(void);
 202:/home/vinay/Desktop/softconsole_watershed/Water-shed/src/platform/mpfs_hal/common/mss_plic.h **** uint8_t  PLIC_f2m_29_IRQHandler(void);
 203:/home/vinay/Desktop/softconsole_watershed/Water-shed/src/platform/mpfs_hal/common/mss_plic.h **** 
 204:/home/vinay/Desktop/softconsole_watershed/Water-shed/src/platform/mpfs_hal/common/mss_plic.h **** uint8_t  PLIC_f2m_30_IRQHandler(void);
 205:/home/vinay/Desktop/softconsole_watershed/Water-shed/src/platform/mpfs_hal/common/mss_plic.h **** uint8_t  PLIC_f2m_31_IRQHandler(void);
 206:/home/vinay/Desktop/softconsole_watershed/Water-shed/src/platform/mpfs_hal/common/mss_plic.h **** 
 207:/home/vinay/Desktop/softconsole_watershed/Water-shed/src/platform/mpfs_hal/common/mss_plic.h **** uint8_t  PLIC_f2m_32_IRQHandler(void);
 208:/home/vinay/Desktop/softconsole_watershed/Water-shed/src/platform/mpfs_hal/common/mss_plic.h **** uint8_t  PLIC_f2m_33_IRQHandler(void);
 209:/home/vinay/Desktop/softconsole_watershed/Water-shed/src/platform/mpfs_hal/common/mss_plic.h **** uint8_t  PLIC_f2m_34_IRQHandler(void);
 210:/home/vinay/Desktop/softconsole_watershed/Water-shed/src/platform/mpfs_hal/common/mss_plic.h **** uint8_t  PLIC_f2m_35_IRQHandler(void);
 211:/home/vinay/Desktop/softconsole_watershed/Water-shed/src/platform/mpfs_hal/common/mss_plic.h **** uint8_t  PLIC_f2m_36_IRQHandler(void);
 212:/home/vinay/Desktop/softconsole_watershed/Water-shed/src/platform/mpfs_hal/common/mss_plic.h **** uint8_t  PLIC_f2m_37_IRQHandler(void);
 213:/home/vinay/Desktop/softconsole_watershed/Water-shed/src/platform/mpfs_hal/common/mss_plic.h **** uint8_t  PLIC_f2m_38_IRQHandler(void);
 214:/home/vinay/Desktop/softconsole_watershed/Water-shed/src/platform/mpfs_hal/common/mss_plic.h **** uint8_t  PLIC_f2m_39_IRQHandler(void);
 215:/home/vinay/Desktop/softconsole_watershed/Water-shed/src/platform/mpfs_hal/common/mss_plic.h **** uint8_t  PLIC_f2m_40_IRQHandler(void);
 216:/home/vinay/Desktop/softconsole_watershed/Water-shed/src/platform/mpfs_hal/common/mss_plic.h **** uint8_t  PLIC_f2m_41_IRQHandler(void);
 217:/home/vinay/Desktop/softconsole_watershed/Water-shed/src/platform/mpfs_hal/common/mss_plic.h **** 
 218:/home/vinay/Desktop/softconsole_watershed/Water-shed/src/platform/mpfs_hal/common/mss_plic.h **** uint8_t PLIC_f2m_42_IRQHandler(void);
 219:/home/vinay/Desktop/softconsole_watershed/Water-shed/src/platform/mpfs_hal/common/mss_plic.h **** uint8_t PLIC_f2m_43_IRQHandler(void);
 220:/home/vinay/Desktop/softconsole_watershed/Water-shed/src/platform/mpfs_hal/common/mss_plic.h **** uint8_t PLIC_f2m_44_IRQHandler(void);
 221:/home/vinay/Desktop/softconsole_watershed/Water-shed/src/platform/mpfs_hal/common/mss_plic.h **** uint8_t PLIC_f2m_45_IRQHandler(void);
 222:/home/vinay/Desktop/softconsole_watershed/Water-shed/src/platform/mpfs_hal/common/mss_plic.h **** uint8_t PLIC_f2m_46_IRQHandler(void);
 223:/home/vinay/Desktop/softconsole_watershed/Water-shed/src/platform/mpfs_hal/common/mss_plic.h **** uint8_t PLIC_f2m_47_IRQHandler(void);
 224:/home/vinay/Desktop/softconsole_watershed/Water-shed/src/platform/mpfs_hal/common/mss_plic.h **** uint8_t PLIC_f2m_48_IRQHandler(void);
 225:/home/vinay/Desktop/softconsole_watershed/Water-shed/src/platform/mpfs_hal/common/mss_plic.h **** uint8_t PLIC_f2m_49_IRQHandler(void);
 226:/home/vinay/Desktop/softconsole_watershed/Water-shed/src/platform/mpfs_hal/common/mss_plic.h **** uint8_t PLIC_f2m_50_IRQHandler(void);
 227:/home/vinay/Desktop/softconsole_watershed/Water-shed/src/platform/mpfs_hal/common/mss_plic.h **** uint8_t PLIC_f2m_51_IRQHandler(void);
 228:/home/vinay/Desktop/softconsole_watershed/Water-shed/src/platform/mpfs_hal/common/mss_plic.h **** 
 229:/home/vinay/Desktop/softconsole_watershed/Water-shed/src/platform/mpfs_hal/common/mss_plic.h **** uint8_t PLIC_f2m_52_IRQHandler(void);
 230:/home/vinay/Desktop/softconsole_watershed/Water-shed/src/platform/mpfs_hal/common/mss_plic.h **** uint8_t PLIC_f2m_53_IRQHandler(void);
 231:/home/vinay/Desktop/softconsole_watershed/Water-shed/src/platform/mpfs_hal/common/mss_plic.h **** uint8_t PLIC_f2m_54_IRQHandler(void);
 232:/home/vinay/Desktop/softconsole_watershed/Water-shed/src/platform/mpfs_hal/common/mss_plic.h **** uint8_t PLIC_f2m_55_IRQHandler(void);
 233:/home/vinay/Desktop/softconsole_watershed/Water-shed/src/platform/mpfs_hal/common/mss_plic.h **** uint8_t PLIC_f2m_56_IRQHandler(void);
 234:/home/vinay/Desktop/softconsole_watershed/Water-shed/src/platform/mpfs_hal/common/mss_plic.h **** uint8_t PLIC_f2m_57_IRQHandler(void);
 235:/home/vinay/Desktop/softconsole_watershed/Water-shed/src/platform/mpfs_hal/common/mss_plic.h **** uint8_t PLIC_f2m_58_IRQHandler(void);
 236:/home/vinay/Desktop/softconsole_watershed/Water-shed/src/platform/mpfs_hal/common/mss_plic.h **** uint8_t PLIC_f2m_59_IRQHandler(void);
 237:/home/vinay/Desktop/softconsole_watershed/Water-shed/src/platform/mpfs_hal/common/mss_plic.h **** uint8_t PLIC_f2m_60_IRQHandler(void);
 238:/home/vinay/Desktop/softconsole_watershed/Water-shed/src/platform/mpfs_hal/common/mss_plic.h **** uint8_t PLIC_f2m_61_IRQHandler(void);
 239:/home/vinay/Desktop/softconsole_watershed/Water-shed/src/platform/mpfs_hal/common/mss_plic.h **** 
 240:/home/vinay/Desktop/softconsole_watershed/Water-shed/src/platform/mpfs_hal/common/mss_plic.h **** uint8_t PLIC_f2m_62_IRQHandler(void);
 241:/home/vinay/Desktop/softconsole_watershed/Water-shed/src/platform/mpfs_hal/common/mss_plic.h **** uint8_t PLIC_f2m_63_IRQHandler(void);
 242:/home/vinay/Desktop/softconsole_watershed/Water-shed/src/platform/mpfs_hal/common/mss_plic.h **** 
 243:/home/vinay/Desktop/softconsole_watershed/Water-shed/src/platform/mpfs_hal/common/mss_plic.h **** uint8_t PLIC_E51_bus_error_unit_IRQHandler(void);
 244:/home/vinay/Desktop/softconsole_watershed/Water-shed/src/platform/mpfs_hal/common/mss_plic.h **** uint8_t PLIC_U54_1_bus_error_unit_IRQHandler(void);
 245:/home/vinay/Desktop/softconsole_watershed/Water-shed/src/platform/mpfs_hal/common/mss_plic.h **** uint8_t PLIC_U54_2_bus_error_unit_IRQHandler(void);
 246:/home/vinay/Desktop/softconsole_watershed/Water-shed/src/platform/mpfs_hal/common/mss_plic.h **** uint8_t PLIC_U54_3_bus_error_unit_IRQHandler(void);
 247:/home/vinay/Desktop/softconsole_watershed/Water-shed/src/platform/mpfs_hal/common/mss_plic.h **** uint8_t PLIC_U54_4_bus_error_unit_IRQHandler(void);
 248:/home/vinay/Desktop/softconsole_watershed/Water-shed/src/platform/mpfs_hal/common/mss_plic.h **** 
 249:/home/vinay/Desktop/softconsole_watershed/Water-shed/src/platform/mpfs_hal/common/mss_plic.h **** /***************************************************************************//**
 250:/home/vinay/Desktop/softconsole_watershed/Water-shed/src/platform/mpfs_hal/common/mss_plic.h ****  * PLIC source Interrupt numbers:
 251:/home/vinay/Desktop/softconsole_watershed/Water-shed/src/platform/mpfs_hal/common/mss_plic.h ****  */
 252:/home/vinay/Desktop/softconsole_watershed/Water-shed/src/platform/mpfs_hal/common/mss_plic.h **** /* See section on PLIC Interrupt Sources in User Guide */
 253:/home/vinay/Desktop/softconsole_watershed/Water-shed/src/platform/mpfs_hal/common/mss_plic.h **** #define OFFSET_TO_MSS_GLOBAL_INTS 13U
 254:/home/vinay/Desktop/softconsole_watershed/Water-shed/src/platform/mpfs_hal/common/mss_plic.h **** typedef enum
 255:/home/vinay/Desktop/softconsole_watershed/Water-shed/src/platform/mpfs_hal/common/mss_plic.h **** {
 256:/home/vinay/Desktop/softconsole_watershed/Water-shed/src/platform/mpfs_hal/common/mss_plic.h ****     PLIC_INVALID_INT_OFFSET                 = 0,
 257:/home/vinay/Desktop/softconsole_watershed/Water-shed/src/platform/mpfs_hal/common/mss_plic.h ****     PLIC_L2_METADATA_CORR_INT_OFFSET        = 1,
 258:/home/vinay/Desktop/softconsole_watershed/Water-shed/src/platform/mpfs_hal/common/mss_plic.h ****     PLIC_L2_METADAT_UNCORR_INT_OFFSET       = 2,
 259:/home/vinay/Desktop/softconsole_watershed/Water-shed/src/platform/mpfs_hal/common/mss_plic.h ****     PLIC_L2_DATA_CORR_INT_OFFSET            = 3,
 260:/home/vinay/Desktop/softconsole_watershed/Water-shed/src/platform/mpfs_hal/common/mss_plic.h ****     PLIC_L2_DATA_UNCORR_INT_OFFSET          = 4,
 261:/home/vinay/Desktop/softconsole_watershed/Water-shed/src/platform/mpfs_hal/common/mss_plic.h ****     PLIC_DMA_CH0_DONE_INT_OFFSET            = 5,
 262:/home/vinay/Desktop/softconsole_watershed/Water-shed/src/platform/mpfs_hal/common/mss_plic.h ****     PLIC_DMA_CH0_ERR_INT_OFFSET             = 6,
 263:/home/vinay/Desktop/softconsole_watershed/Water-shed/src/platform/mpfs_hal/common/mss_plic.h ****     PLIC_DMA_CH1_DONE_INT_OFFSET            = 7,
 264:/home/vinay/Desktop/softconsole_watershed/Water-shed/src/platform/mpfs_hal/common/mss_plic.h ****     PLIC_DMA_CH1_ERR_INT_OFFSET             = 8,
 265:/home/vinay/Desktop/softconsole_watershed/Water-shed/src/platform/mpfs_hal/common/mss_plic.h ****     PLIC_DMA_CH2_DONE_INT_OFFSET            = 9,
 266:/home/vinay/Desktop/softconsole_watershed/Water-shed/src/platform/mpfs_hal/common/mss_plic.h ****     PLIC_DMA_CH2_ERR_INT_OFFSET             = 10,
 267:/home/vinay/Desktop/softconsole_watershed/Water-shed/src/platform/mpfs_hal/common/mss_plic.h ****     PLIC_DMA_CH3_DONE_INT_OFFSET            = 11,
 268:/home/vinay/Desktop/softconsole_watershed/Water-shed/src/platform/mpfs_hal/common/mss_plic.h ****     PLIC_DMA_CH3_ERR_INT_OFFSET             = 12,
 269:/home/vinay/Desktop/softconsole_watershed/Water-shed/src/platform/mpfs_hal/common/mss_plic.h ****     /* see PLIC_I2C Interrupt Multiplexing in the User Guide */
 270:/home/vinay/Desktop/softconsole_watershed/Water-shed/src/platform/mpfs_hal/common/mss_plic.h ****     PLIC_GPIO0_BIT0_or_GPIO2_BIT0_INT_OFFSET         = 0 + OFFSET_TO_MSS_GLOBAL_INTS,
 271:/home/vinay/Desktop/softconsole_watershed/Water-shed/src/platform/mpfs_hal/common/mss_plic.h ****     PLIC_GPIO0_BIT1_or_GPIO2_BIT1_INT_OFFSET         = 1 + OFFSET_TO_MSS_GLOBAL_INTS,
 272:/home/vinay/Desktop/softconsole_watershed/Water-shed/src/platform/mpfs_hal/common/mss_plic.h ****     PLIC_GPIO0_BIT2_or_GPIO2_BIT2_INT_OFFSET         = 2 + OFFSET_TO_MSS_GLOBAL_INTS,
 273:/home/vinay/Desktop/softconsole_watershed/Water-shed/src/platform/mpfs_hal/common/mss_plic.h ****     PLIC_GPIO0_BIT3_or_GPIO2_BIT3_INT_OFFSET         = 3 + OFFSET_TO_MSS_GLOBAL_INTS,
 274:/home/vinay/Desktop/softconsole_watershed/Water-shed/src/platform/mpfs_hal/common/mss_plic.h ****     PLIC_GPIO0_BIT4_or_GPIO2_BIT4_INT_OFFSET         = 4 + OFFSET_TO_MSS_GLOBAL_INTS,
 275:/home/vinay/Desktop/softconsole_watershed/Water-shed/src/platform/mpfs_hal/common/mss_plic.h ****     PLIC_GPIO0_BIT5_or_GPIO2_BIT5_INT_OFFSET         = 5 + OFFSET_TO_MSS_GLOBAL_INTS,
 276:/home/vinay/Desktop/softconsole_watershed/Water-shed/src/platform/mpfs_hal/common/mss_plic.h ****     PLIC_GPIO0_BIT6_or_GPIO2_BIT6_INT_OFFSET         = 6 + OFFSET_TO_MSS_GLOBAL_INTS,
 277:/home/vinay/Desktop/softconsole_watershed/Water-shed/src/platform/mpfs_hal/common/mss_plic.h ****     PLIC_GPIO0_BIT7_or_GPIO2_BIT7_INT_OFFSET         = 7 + OFFSET_TO_MSS_GLOBAL_INTS,
 278:/home/vinay/Desktop/softconsole_watershed/Water-shed/src/platform/mpfs_hal/common/mss_plic.h ****     PLIC_GPIO0_BIT8_or_GPIO2_BIT8_INT_OFFSET         = 8 + OFFSET_TO_MSS_GLOBAL_INTS,
 279:/home/vinay/Desktop/softconsole_watershed/Water-shed/src/platform/mpfs_hal/common/mss_plic.h ****     PLIC_GPIO0_BIT9_or_GPIO2_BIT9_INT_OFFSET         = 9 + OFFSET_TO_MSS_GLOBAL_INTS,
 280:/home/vinay/Desktop/softconsole_watershed/Water-shed/src/platform/mpfs_hal/common/mss_plic.h ****     PLIC_GPIO0_BIT10_or_GPIO2_BIT10_INT_OFFSET      = 10 + OFFSET_TO_MSS_GLOBAL_INTS,
 281:/home/vinay/Desktop/softconsole_watershed/Water-shed/src/platform/mpfs_hal/common/mss_plic.h ****     PLIC_GPIO0_BIT11_or_GPIO2_BIT11_INT_OFFSET      = 11 + OFFSET_TO_MSS_GLOBAL_INTS,
 282:/home/vinay/Desktop/softconsole_watershed/Water-shed/src/platform/mpfs_hal/common/mss_plic.h ****     PLIC_GPIO0_BIT12_or_GPIO2_BIT12_INT_OFFSET      = 12 + OFFSET_TO_MSS_GLOBAL_INTS,
 283:/home/vinay/Desktop/softconsole_watershed/Water-shed/src/platform/mpfs_hal/common/mss_plic.h **** 
 284:/home/vinay/Desktop/softconsole_watershed/Water-shed/src/platform/mpfs_hal/common/mss_plic.h ****     PLIC_GPIO0_BIT13_or_GPIO2_BIT13_INT_OFFSET      = 13 + OFFSET_TO_MSS_GLOBAL_INTS,
 285:/home/vinay/Desktop/softconsole_watershed/Water-shed/src/platform/mpfs_hal/common/mss_plic.h ****     PLIC_GPIO1_BIT0_or_GPIO2_BIT14_INT_OFFSET       = 14 + OFFSET_TO_MSS_GLOBAL_INTS,
 286:/home/vinay/Desktop/softconsole_watershed/Water-shed/src/platform/mpfs_hal/common/mss_plic.h ****     PLIC_GPIO1_BIT1_or_GPIO2_BIT15_INT_OFFSET       = 15 + OFFSET_TO_MSS_GLOBAL_INTS,
 287:/home/vinay/Desktop/softconsole_watershed/Water-shed/src/platform/mpfs_hal/common/mss_plic.h ****     PLIC_GPIO1_BIT2_or_GPIO2_BIT16_INT_OFFSET       = 16 + OFFSET_TO_MSS_GLOBAL_INTS,
 288:/home/vinay/Desktop/softconsole_watershed/Water-shed/src/platform/mpfs_hal/common/mss_plic.h ****     PLIC_GPIO1_BIT3_or_GPIO2_BIT17_INT_OFFSET       = 17 + OFFSET_TO_MSS_GLOBAL_INTS,
 289:/home/vinay/Desktop/softconsole_watershed/Water-shed/src/platform/mpfs_hal/common/mss_plic.h ****     PLIC_GPIO1_BIT4_or_GPIO2_BIT18_INT_OFFSET       = 18 + OFFSET_TO_MSS_GLOBAL_INTS,
 290:/home/vinay/Desktop/softconsole_watershed/Water-shed/src/platform/mpfs_hal/common/mss_plic.h ****     PLIC_GPIO1_BIT5_or_GPIO2_BIT19_INT_OFFSET       = 19 + OFFSET_TO_MSS_GLOBAL_INTS,
 291:/home/vinay/Desktop/softconsole_watershed/Water-shed/src/platform/mpfs_hal/common/mss_plic.h ****     PLIC_GPIO1_BIT6_or_GPIO2_BIT20_INT_OFFSET       = 20 + OFFSET_TO_MSS_GLOBAL_INTS,
 292:/home/vinay/Desktop/softconsole_watershed/Water-shed/src/platform/mpfs_hal/common/mss_plic.h ****     PLIC_GPIO1_BIT7_or_GPIO2_BIT21_INT_OFFSET       = 21 + OFFSET_TO_MSS_GLOBAL_INTS,
 293:/home/vinay/Desktop/softconsole_watershed/Water-shed/src/platform/mpfs_hal/common/mss_plic.h ****     PLIC_GPIO1_BIT8_or_GPIO2_BIT22_INT_OFFSET       = 22 + OFFSET_TO_MSS_GLOBAL_INTS,
 294:/home/vinay/Desktop/softconsole_watershed/Water-shed/src/platform/mpfs_hal/common/mss_plic.h ****     PLIC_GPIO1_BIT9_or_GPIO2_BIT23_INT_OFFSET       = 23 + OFFSET_TO_MSS_GLOBAL_INTS,
 295:/home/vinay/Desktop/softconsole_watershed/Water-shed/src/platform/mpfs_hal/common/mss_plic.h ****     PLIC_GPIO1_BIT10_or_GPIO2_BIT24_INT_OFFSET      = 24 + OFFSET_TO_MSS_GLOBAL_INTS,
 296:/home/vinay/Desktop/softconsole_watershed/Water-shed/src/platform/mpfs_hal/common/mss_plic.h ****     PLIC_GPIO1_BIT11_or_GPIO2_BIT25_INT_OFFSET      = 25 + OFFSET_TO_MSS_GLOBAL_INTS,
 297:/home/vinay/Desktop/softconsole_watershed/Water-shed/src/platform/mpfs_hal/common/mss_plic.h ****     PLIC_GPIO1_BIT12_or_GPIO2_BIT26_INT_OFFSET      = 26 + OFFSET_TO_MSS_GLOBAL_INTS,
 298:/home/vinay/Desktop/softconsole_watershed/Water-shed/src/platform/mpfs_hal/common/mss_plic.h ****     PLIC_GPIO1_BIT13_or_GPIO2_BIT27_INT_OFFSET      = 27 + OFFSET_TO_MSS_GLOBAL_INTS,
 299:/home/vinay/Desktop/softconsole_watershed/Water-shed/src/platform/mpfs_hal/common/mss_plic.h **** 
 300:/home/vinay/Desktop/softconsole_watershed/Water-shed/src/platform/mpfs_hal/common/mss_plic.h ****     PLIC_GPIO1_BIT14_or_GPIO2_BIT28_INT_OFFSET       = 28 + OFFSET_TO_MSS_GLOBAL_INTS,
 301:/home/vinay/Desktop/softconsole_watershed/Water-shed/src/platform/mpfs_hal/common/mss_plic.h ****     PLIC_GPIO1_BIT15_or_GPIO2_BIT29_INT_OFFSET       = 29 + OFFSET_TO_MSS_GLOBAL_INTS,
 302:/home/vinay/Desktop/softconsole_watershed/Water-shed/src/platform/mpfs_hal/common/mss_plic.h ****     PLIC_GPIO1_BIT16_or_GPIO2_BIT30_INT_OFFSET       = 30 + OFFSET_TO_MSS_GLOBAL_INTS,
 303:/home/vinay/Desktop/softconsole_watershed/Water-shed/src/platform/mpfs_hal/common/mss_plic.h ****     PLIC_GPIO1_BIT17_or_GPIO2_BIT31_INT_OFFSET       = 31 + OFFSET_TO_MSS_GLOBAL_INTS,
 304:/home/vinay/Desktop/softconsole_watershed/Water-shed/src/platform/mpfs_hal/common/mss_plic.h **** 
 305:/home/vinay/Desktop/softconsole_watershed/Water-shed/src/platform/mpfs_hal/common/mss_plic.h ****     PLIC_GPIO1_BIT18_INT_OFFSET           = 32 + OFFSET_TO_MSS_GLOBAL_INTS,
 306:/home/vinay/Desktop/softconsole_watershed/Water-shed/src/platform/mpfs_hal/common/mss_plic.h ****     PLIC_GPIO1_BIT19_INT_OFFSET           = 33 + OFFSET_TO_MSS_GLOBAL_INTS,
 307:/home/vinay/Desktop/softconsole_watershed/Water-shed/src/platform/mpfs_hal/common/mss_plic.h ****     PLIC_GPIO1_BIT20_INT_OFFSET           = 34 + OFFSET_TO_MSS_GLOBAL_INTS,
 308:/home/vinay/Desktop/softconsole_watershed/Water-shed/src/platform/mpfs_hal/common/mss_plic.h ****     PLIC_GPIO1_BIT21_INT_OFFSET           = 35 + OFFSET_TO_MSS_GLOBAL_INTS,
 309:/home/vinay/Desktop/softconsole_watershed/Water-shed/src/platform/mpfs_hal/common/mss_plic.h ****     PLIC_GPIO1_BIT22_INT_OFFSET           = 36 + OFFSET_TO_MSS_GLOBAL_INTS,
 310:/home/vinay/Desktop/softconsole_watershed/Water-shed/src/platform/mpfs_hal/common/mss_plic.h ****     PLIC_GPIO1_BIT23_INT_OFFSET           = 37 + OFFSET_TO_MSS_GLOBAL_INTS,
 311:/home/vinay/Desktop/softconsole_watershed/Water-shed/src/platform/mpfs_hal/common/mss_plic.h **** 
 312:/home/vinay/Desktop/softconsole_watershed/Water-shed/src/platform/mpfs_hal/common/mss_plic.h ****     PLIC_GPIO0_NON_DIRECT_INT_OFFSET         = 38 + OFFSET_TO_MSS_GLOBAL_INTS,
 313:/home/vinay/Desktop/softconsole_watershed/Water-shed/src/platform/mpfs_hal/common/mss_plic.h ****     PLIC_GPIO1_NON_DIRECT_INT_OFFSET         = 39 + OFFSET_TO_MSS_GLOBAL_INTS,
 314:/home/vinay/Desktop/softconsole_watershed/Water-shed/src/platform/mpfs_hal/common/mss_plic.h ****     PLIC_GPIO2_NON_DIRECT_INT_OFFSET         = 40 + OFFSET_TO_MSS_GLOBAL_INTS,
 315:/home/vinay/Desktop/softconsole_watershed/Water-shed/src/platform/mpfs_hal/common/mss_plic.h **** 
 316:/home/vinay/Desktop/softconsole_watershed/Water-shed/src/platform/mpfs_hal/common/mss_plic.h ****     PLIC_SPI0_INT_OFFSET                    = 41 + OFFSET_TO_MSS_GLOBAL_INTS,
 317:/home/vinay/Desktop/softconsole_watershed/Water-shed/src/platform/mpfs_hal/common/mss_plic.h ****     PLIC_SPI1_INT_OFFSET                    = 42 + OFFSET_TO_MSS_GLOBAL_INTS,
 318:/home/vinay/Desktop/softconsole_watershed/Water-shed/src/platform/mpfs_hal/common/mss_plic.h ****     PLIC_CAN0_INT_OFFSET                    = 43 + OFFSET_TO_MSS_GLOBAL_INTS,
 319:/home/vinay/Desktop/softconsole_watershed/Water-shed/src/platform/mpfs_hal/common/mss_plic.h ****     PLIC_CAN1_INT_OFFSET                    = 44 + OFFSET_TO_MSS_GLOBAL_INTS,
 320:/home/vinay/Desktop/softconsole_watershed/Water-shed/src/platform/mpfs_hal/common/mss_plic.h ****     PLIC_I2C0_MAIN_INT_OFFSET               = 45 + OFFSET_TO_MSS_GLOBAL_INTS,
 321:/home/vinay/Desktop/softconsole_watershed/Water-shed/src/platform/mpfs_hal/common/mss_plic.h ****     PLIC_I2C0_ALERT_INT_OFFSET              = 46 + OFFSET_TO_MSS_GLOBAL_INTS,
 322:/home/vinay/Desktop/softconsole_watershed/Water-shed/src/platform/mpfs_hal/common/mss_plic.h ****     PLIC_I2C0_SUS_INT_OFFSET                = 47 + OFFSET_TO_MSS_GLOBAL_INTS,
 323:/home/vinay/Desktop/softconsole_watershed/Water-shed/src/platform/mpfs_hal/common/mss_plic.h ****     PLIC_I2C1_MAIN_INT_OFFSET               = 48 + OFFSET_TO_MSS_GLOBAL_INTS,
 324:/home/vinay/Desktop/softconsole_watershed/Water-shed/src/platform/mpfs_hal/common/mss_plic.h ****     PLIC_I2C1_ALERT_INT_OFFSET              = 49 + OFFSET_TO_MSS_GLOBAL_INTS,
 325:/home/vinay/Desktop/softconsole_watershed/Water-shed/src/platform/mpfs_hal/common/mss_plic.h ****     PLIC_I2C1_SUS_INT_OFFSET                = 50 + OFFSET_TO_MSS_GLOBAL_INTS,
 326:/home/vinay/Desktop/softconsole_watershed/Water-shed/src/platform/mpfs_hal/common/mss_plic.h ****     PLIC_MAC0_INT_INT_OFFSET                = 51 + OFFSET_TO_MSS_GLOBAL_INTS,
 327:/home/vinay/Desktop/softconsole_watershed/Water-shed/src/platform/mpfs_hal/common/mss_plic.h ****     PLIC_MAC0_QUEUE1_INT_OFFSET             = 52 + OFFSET_TO_MSS_GLOBAL_INTS,
 328:/home/vinay/Desktop/softconsole_watershed/Water-shed/src/platform/mpfs_hal/common/mss_plic.h ****     PLIC_MAC0_QUEUE2_INT_OFFSET             = 53 + OFFSET_TO_MSS_GLOBAL_INTS,
 329:/home/vinay/Desktop/softconsole_watershed/Water-shed/src/platform/mpfs_hal/common/mss_plic.h ****     PLIC_MAC0_QUEUE3_INT_OFFSET             = 54 + OFFSET_TO_MSS_GLOBAL_INTS,
 330:/home/vinay/Desktop/softconsole_watershed/Water-shed/src/platform/mpfs_hal/common/mss_plic.h ****     PLIC_MAC0_EMAC_INT_OFFSET               = 55 + OFFSET_TO_MSS_GLOBAL_INTS,
 331:/home/vinay/Desktop/softconsole_watershed/Water-shed/src/platform/mpfs_hal/common/mss_plic.h ****     PLIC_MAC0_MMSL_INT_OFFSET               = 56 + OFFSET_TO_MSS_GLOBAL_INTS,
 332:/home/vinay/Desktop/softconsole_watershed/Water-shed/src/platform/mpfs_hal/common/mss_plic.h ****     PLIC_MAC1_INT_INT_OFFSET                = 57 + OFFSET_TO_MSS_GLOBAL_INTS,
 333:/home/vinay/Desktop/softconsole_watershed/Water-shed/src/platform/mpfs_hal/common/mss_plic.h ****     PLIC_MAC1_QUEUE1_INT_OFFSET             = 58 + OFFSET_TO_MSS_GLOBAL_INTS,
 334:/home/vinay/Desktop/softconsole_watershed/Water-shed/src/platform/mpfs_hal/common/mss_plic.h ****     PLIC_MAC1_QUEUE2_INT_OFFSET             = 59 + OFFSET_TO_MSS_GLOBAL_INTS,
 335:/home/vinay/Desktop/softconsole_watershed/Water-shed/src/platform/mpfs_hal/common/mss_plic.h ****     PLIC_MAC1_QUEUE3_INT_OFFSET             = 60 + OFFSET_TO_MSS_GLOBAL_INTS,
 336:/home/vinay/Desktop/softconsole_watershed/Water-shed/src/platform/mpfs_hal/common/mss_plic.h ****     PLIC_MAC1_EMAC_INT_OFFSET               = 61 + OFFSET_TO_MSS_GLOBAL_INTS,
 337:/home/vinay/Desktop/softconsole_watershed/Water-shed/src/platform/mpfs_hal/common/mss_plic.h ****     PLIC_MAC1_MMSL_INT_OFFSET               = 62 + OFFSET_TO_MSS_GLOBAL_INTS,
 338:/home/vinay/Desktop/softconsole_watershed/Water-shed/src/platform/mpfs_hal/common/mss_plic.h ****     PLIC_DDRC_TRAIN_INT_OFFSET              = 63 + OFFSET_TO_MSS_GLOBAL_INTS,
 339:/home/vinay/Desktop/softconsole_watershed/Water-shed/src/platform/mpfs_hal/common/mss_plic.h ****     PLIC_SCB_INTERRUPT_INT_OFFSET           = 64 + OFFSET_TO_MSS_GLOBAL_INTS,
 340:/home/vinay/Desktop/softconsole_watershed/Water-shed/src/platform/mpfs_hal/common/mss_plic.h ****     PLIC_ECC_ERROR_INT_OFFSET               = 65 + OFFSET_TO_MSS_GLOBAL_INTS,
 341:/home/vinay/Desktop/softconsole_watershed/Water-shed/src/platform/mpfs_hal/common/mss_plic.h ****     PLIC_ECC_CORRECT_INT_OFFSET             = 66 + OFFSET_TO_MSS_GLOBAL_INTS,
 342:/home/vinay/Desktop/softconsole_watershed/Water-shed/src/platform/mpfs_hal/common/mss_plic.h ****     PLIC_RTC_WAKEUP_INT_OFFSET              = 67 + OFFSET_TO_MSS_GLOBAL_INTS,
 343:/home/vinay/Desktop/softconsole_watershed/Water-shed/src/platform/mpfs_hal/common/mss_plic.h ****     PLIC_RTC_MATCH_INT_OFFSET               = 68 + OFFSET_TO_MSS_GLOBAL_INTS,
 344:/home/vinay/Desktop/softconsole_watershed/Water-shed/src/platform/mpfs_hal/common/mss_plic.h ****     PLIC_TIMER1_INT_OFFSET                  = 69 + OFFSET_TO_MSS_GLOBAL_INTS,
 345:/home/vinay/Desktop/softconsole_watershed/Water-shed/src/platform/mpfs_hal/common/mss_plic.h ****     PLIC_TIMER2_INT_OFFSET                  = 70 + OFFSET_TO_MSS_GLOBAL_INTS,
 346:/home/vinay/Desktop/softconsole_watershed/Water-shed/src/platform/mpfs_hal/common/mss_plic.h ****     PLIC_ENVM_INT_OFFSET                    = 71 + OFFSET_TO_MSS_GLOBAL_INTS,
 347:/home/vinay/Desktop/softconsole_watershed/Water-shed/src/platform/mpfs_hal/common/mss_plic.h ****     PLIC_QSPI_INT_OFFSET                    = 72 + OFFSET_TO_MSS_GLOBAL_INTS,
 348:/home/vinay/Desktop/softconsole_watershed/Water-shed/src/platform/mpfs_hal/common/mss_plic.h ****     PLIC_USB_DMA_INT_OFFSET                 = 73 + OFFSET_TO_MSS_GLOBAL_INTS,
 349:/home/vinay/Desktop/softconsole_watershed/Water-shed/src/platform/mpfs_hal/common/mss_plic.h ****     PLIC_USB_MC_INT_OFFSET                  = 74 + OFFSET_TO_MSS_GLOBAL_INTS,
 350:/home/vinay/Desktop/softconsole_watershed/Water-shed/src/platform/mpfs_hal/common/mss_plic.h ****     PLIC_MMC_main_INT_OFFSET                = 75 + OFFSET_TO_MSS_GLOBAL_INTS,
 351:/home/vinay/Desktop/softconsole_watershed/Water-shed/src/platform/mpfs_hal/common/mss_plic.h ****     PLIC_MMC_wakeup_INT_OFFSET              = 76 + OFFSET_TO_MSS_GLOBAL_INTS,
 352:/home/vinay/Desktop/softconsole_watershed/Water-shed/src/platform/mpfs_hal/common/mss_plic.h ****     PLIC_MMUART0_INT_OFFSET                 = 77 + OFFSET_TO_MSS_GLOBAL_INTS,
 353:/home/vinay/Desktop/softconsole_watershed/Water-shed/src/platform/mpfs_hal/common/mss_plic.h ****     PLIC_MMUART1_INT_OFFSET                 = 78 + OFFSET_TO_MSS_GLOBAL_INTS,
 354:/home/vinay/Desktop/softconsole_watershed/Water-shed/src/platform/mpfs_hal/common/mss_plic.h ****     PLIC_MMUART2_INT_OFFSET                 = 79 + OFFSET_TO_MSS_GLOBAL_INTS,
 355:/home/vinay/Desktop/softconsole_watershed/Water-shed/src/platform/mpfs_hal/common/mss_plic.h ****     PLIC_MMUART3_INT_OFFSET                 = 80 + OFFSET_TO_MSS_GLOBAL_INTS,
 356:/home/vinay/Desktop/softconsole_watershed/Water-shed/src/platform/mpfs_hal/common/mss_plic.h ****     PLIC_MMUART4_INT_OFFSET                 = 81 + OFFSET_TO_MSS_GLOBAL_INTS,
 357:/home/vinay/Desktop/softconsole_watershed/Water-shed/src/platform/mpfs_hal/common/mss_plic.h **** 
 358:/home/vinay/Desktop/softconsole_watershed/Water-shed/src/platform/mpfs_hal/common/mss_plic.h ****     G5C_DEVRST_INT_OFFSET              = 82 + OFFSET_TO_MSS_GLOBAL_INTS,
 359:/home/vinay/Desktop/softconsole_watershed/Water-shed/src/platform/mpfs_hal/common/mss_plic.h ****     g5c_MESSAGE_INT_OFFSET             = 83 + OFFSET_TO_MSS_GLOBAL_INTS,
 360:/home/vinay/Desktop/softconsole_watershed/Water-shed/src/platform/mpfs_hal/common/mss_plic.h ****     USOC_VC_INTERRUPT_INT_OFFSET       = 84 + OFFSET_TO_MSS_GLOBAL_INTS,
 361:/home/vinay/Desktop/softconsole_watershed/Water-shed/src/platform/mpfs_hal/common/mss_plic.h ****     USOC_SMB_INTERRUPT_INT_OFFSET      = 85 + OFFSET_TO_MSS_GLOBAL_INTS,
 362:/home/vinay/Desktop/softconsole_watershed/Water-shed/src/platform/mpfs_hal/common/mss_plic.h ****     /* contains multiple interrupts- */
 363:/home/vinay/Desktop/softconsole_watershed/Water-shed/src/platform/mpfs_hal/common/mss_plic.h ****     E51_0_MAINTENACE_INT_OFFSET        = 86 + OFFSET_TO_MSS_GLOBAL_INTS,
 364:/home/vinay/Desktop/softconsole_watershed/Water-shed/src/platform/mpfs_hal/common/mss_plic.h **** 
 365:/home/vinay/Desktop/softconsole_watershed/Water-shed/src/platform/mpfs_hal/common/mss_plic.h ****     PLIC_WDOG0_MRVP_INT_OFFSET              = 87 + OFFSET_TO_MSS_GLOBAL_INTS,
 366:/home/vinay/Desktop/softconsole_watershed/Water-shed/src/platform/mpfs_hal/common/mss_plic.h ****     PLIC_WDOG1_MRVP_INT_OFFSET              = 88 + OFFSET_TO_MSS_GLOBAL_INTS,
 367:/home/vinay/Desktop/softconsole_watershed/Water-shed/src/platform/mpfs_hal/common/mss_plic.h ****     PLIC_WDOG2_MRVP_INT_OFFSET              = 89 + OFFSET_TO_MSS_GLOBAL_INTS,
 368:/home/vinay/Desktop/softconsole_watershed/Water-shed/src/platform/mpfs_hal/common/mss_plic.h ****     PLIC_WDOG3_MRVP_INT_OFFSET              = 90 + OFFSET_TO_MSS_GLOBAL_INTS,
 369:/home/vinay/Desktop/softconsole_watershed/Water-shed/src/platform/mpfs_hal/common/mss_plic.h ****     PLIC_WDOG4_MRVP_INT_OFFSET              = 91 + OFFSET_TO_MSS_GLOBAL_INTS,
 370:/home/vinay/Desktop/softconsole_watershed/Water-shed/src/platform/mpfs_hal/common/mss_plic.h ****     PLIC_WDOG0_TOUT_INT_OFFSET              = 92 + OFFSET_TO_MSS_GLOBAL_INTS,
 371:/home/vinay/Desktop/softconsole_watershed/Water-shed/src/platform/mpfs_hal/common/mss_plic.h ****     PLIC_WDOG1_TOUT_INT_OFFSET              = 93 + OFFSET_TO_MSS_GLOBAL_INTS,
 372:/home/vinay/Desktop/softconsole_watershed/Water-shed/src/platform/mpfs_hal/common/mss_plic.h ****     PLIC_WDOG2_TOUT_INT_OFFSET              = 94 + OFFSET_TO_MSS_GLOBAL_INTS,
 373:/home/vinay/Desktop/softconsole_watershed/Water-shed/src/platform/mpfs_hal/common/mss_plic.h ****     PLIC_WDOG3_TOUT_INT_OFFSET              = 95 + OFFSET_TO_MSS_GLOBAL_INTS,
 374:/home/vinay/Desktop/softconsole_watershed/Water-shed/src/platform/mpfs_hal/common/mss_plic.h ****     PLIC_WDOG4_TOUT_INT_OFFSET              = 96 + OFFSET_TO_MSS_GLOBAL_INTS,
 375:/home/vinay/Desktop/softconsole_watershed/Water-shed/src/platform/mpfs_hal/common/mss_plic.h ****     G5C_MSS_SPI_INT_OFFSET             = 97 + OFFSET_TO_MSS_GLOBAL_INTS,
 376:/home/vinay/Desktop/softconsole_watershed/Water-shed/src/platform/mpfs_hal/common/mss_plic.h ****     VOLT_TEMP_ALARM_INT_OFFSET         = 98 + OFFSET_TO_MSS_GLOBAL_INTS,
 377:/home/vinay/Desktop/softconsole_watershed/Water-shed/src/platform/mpfs_hal/common/mss_plic.h ****     ATHENA_COMPLETE_INT_OFFSET         = 99 + OFFSET_TO_MSS_GLOBAL_INTS,
 378:/home/vinay/Desktop/softconsole_watershed/Water-shed/src/platform/mpfs_hal/common/mss_plic.h ****     ATHENA_ALARM_INT_OFFSET            = 100 + OFFSET_TO_MSS_GLOBAL_INTS,
 379:/home/vinay/Desktop/softconsole_watershed/Water-shed/src/platform/mpfs_hal/common/mss_plic.h ****     ATHENA_BUS_ERROR_INT_OFFSET        = 101 + OFFSET_TO_MSS_GLOBAL_INTS,
 380:/home/vinay/Desktop/softconsole_watershed/Water-shed/src/platform/mpfs_hal/common/mss_plic.h ****     USOC_AXIC_US_INT_OFFSET            = 102 + OFFSET_TO_MSS_GLOBAL_INTS,
 381:/home/vinay/Desktop/softconsole_watershed/Water-shed/src/platform/mpfs_hal/common/mss_plic.h ****     USOC_AXIC_DS_INT_OFFSET            = 103 + OFFSET_TO_MSS_GLOBAL_INTS,
 382:/home/vinay/Desktop/softconsole_watershed/Water-shed/src/platform/mpfs_hal/common/mss_plic.h **** 
 383:/home/vinay/Desktop/softconsole_watershed/Water-shed/src/platform/mpfs_hal/common/mss_plic.h ****     PLIC_F2M_0_INT_OFFSET            = 105 + OFFSET_TO_MSS_GLOBAL_INTS,
 384:/home/vinay/Desktop/softconsole_watershed/Water-shed/src/platform/mpfs_hal/common/mss_plic.h ****     PLIC_F2M_1_INT_OFFSET            = 106 + OFFSET_TO_MSS_GLOBAL_INTS,
 385:/home/vinay/Desktop/softconsole_watershed/Water-shed/src/platform/mpfs_hal/common/mss_plic.h ****     PLIC_F2M_2_INT_OFFSET            = 107 + OFFSET_TO_MSS_GLOBAL_INTS,
 386:/home/vinay/Desktop/softconsole_watershed/Water-shed/src/platform/mpfs_hal/common/mss_plic.h ****     PLIC_F2M_3_INT_OFFSET            = 108 + OFFSET_TO_MSS_GLOBAL_INTS,
 387:/home/vinay/Desktop/softconsole_watershed/Water-shed/src/platform/mpfs_hal/common/mss_plic.h ****     PLIC_F2M_4_INT_OFFSET            = 109 + OFFSET_TO_MSS_GLOBAL_INTS,
 388:/home/vinay/Desktop/softconsole_watershed/Water-shed/src/platform/mpfs_hal/common/mss_plic.h ****     PLIC_F2M_5_INT_OFFSET            = 110 + OFFSET_TO_MSS_GLOBAL_INTS,
 389:/home/vinay/Desktop/softconsole_watershed/Water-shed/src/platform/mpfs_hal/common/mss_plic.h ****     PLIC_F2M_6_INT_OFFSET            = 111 + OFFSET_TO_MSS_GLOBAL_INTS,
 390:/home/vinay/Desktop/softconsole_watershed/Water-shed/src/platform/mpfs_hal/common/mss_plic.h ****     PLIC_F2M_7_INT_OFFSET            = 112 + OFFSET_TO_MSS_GLOBAL_INTS,
 391:/home/vinay/Desktop/softconsole_watershed/Water-shed/src/platform/mpfs_hal/common/mss_plic.h ****     PLIC_F2M_8_INT_OFFSET            = 113 + OFFSET_TO_MSS_GLOBAL_INTS,
 392:/home/vinay/Desktop/softconsole_watershed/Water-shed/src/platform/mpfs_hal/common/mss_plic.h ****     PLIC_F2M_9_INT_OFFSET            = 114 + OFFSET_TO_MSS_GLOBAL_INTS,
 393:/home/vinay/Desktop/softconsole_watershed/Water-shed/src/platform/mpfs_hal/common/mss_plic.h **** 
 394:/home/vinay/Desktop/softconsole_watershed/Water-shed/src/platform/mpfs_hal/common/mss_plic.h ****     PLIC_F2M_10_INT_OFFSET           = 115 + OFFSET_TO_MSS_GLOBAL_INTS,
 395:/home/vinay/Desktop/softconsole_watershed/Water-shed/src/platform/mpfs_hal/common/mss_plic.h ****     PLIC_F2M_11_INT_OFFSET           = 116 + OFFSET_TO_MSS_GLOBAL_INTS,
 396:/home/vinay/Desktop/softconsole_watershed/Water-shed/src/platform/mpfs_hal/common/mss_plic.h ****     PLIC_F2M_12_INT_OFFSET           = 117 + OFFSET_TO_MSS_GLOBAL_INTS,
 397:/home/vinay/Desktop/softconsole_watershed/Water-shed/src/platform/mpfs_hal/common/mss_plic.h ****     PLIC_F2M_13_INT_OFFSET           = 118 + OFFSET_TO_MSS_GLOBAL_INTS,
 398:/home/vinay/Desktop/softconsole_watershed/Water-shed/src/platform/mpfs_hal/common/mss_plic.h ****     PLIC_F2M_14_INT_OFFSET           = 119 + OFFSET_TO_MSS_GLOBAL_INTS,
 399:/home/vinay/Desktop/softconsole_watershed/Water-shed/src/platform/mpfs_hal/common/mss_plic.h ****     PLIC_F2M_15_INT_OFFSET           = 120 + OFFSET_TO_MSS_GLOBAL_INTS,
 400:/home/vinay/Desktop/softconsole_watershed/Water-shed/src/platform/mpfs_hal/common/mss_plic.h ****     PLIC_F2M_16_INT_OFFSET           = 121 + OFFSET_TO_MSS_GLOBAL_INTS,
 401:/home/vinay/Desktop/softconsole_watershed/Water-shed/src/platform/mpfs_hal/common/mss_plic.h ****     PLIC_F2M_17_INT_OFFSET           = 122 + OFFSET_TO_MSS_GLOBAL_INTS,
 402:/home/vinay/Desktop/softconsole_watershed/Water-shed/src/platform/mpfs_hal/common/mss_plic.h ****     PLIC_F2M_18_INT_OFFSET           = 123 + OFFSET_TO_MSS_GLOBAL_INTS,
 403:/home/vinay/Desktop/softconsole_watershed/Water-shed/src/platform/mpfs_hal/common/mss_plic.h ****     PLIC_F2M_19_INT_OFFSET           = 124 + OFFSET_TO_MSS_GLOBAL_INTS,
 404:/home/vinay/Desktop/softconsole_watershed/Water-shed/src/platform/mpfs_hal/common/mss_plic.h **** 
 405:/home/vinay/Desktop/softconsole_watershed/Water-shed/src/platform/mpfs_hal/common/mss_plic.h ****     PLIC_F2M_20_INT_OFFSET           = 125 + OFFSET_TO_MSS_GLOBAL_INTS,
 406:/home/vinay/Desktop/softconsole_watershed/Water-shed/src/platform/mpfs_hal/common/mss_plic.h ****     PLIC_F2M_21_INT_OFFSET           = 126 + OFFSET_TO_MSS_GLOBAL_INTS,
 407:/home/vinay/Desktop/softconsole_watershed/Water-shed/src/platform/mpfs_hal/common/mss_plic.h ****     PLIC_F2M_22_INT_OFFSET           = 127 + OFFSET_TO_MSS_GLOBAL_INTS,
 408:/home/vinay/Desktop/softconsole_watershed/Water-shed/src/platform/mpfs_hal/common/mss_plic.h ****     PLIC_F2M_23_INT_OFFSET           = 128 + OFFSET_TO_MSS_GLOBAL_INTS,
 409:/home/vinay/Desktop/softconsole_watershed/Water-shed/src/platform/mpfs_hal/common/mss_plic.h ****     PLIC_F2M_24_INT_OFFSET           = 129 + OFFSET_TO_MSS_GLOBAL_INTS,
 410:/home/vinay/Desktop/softconsole_watershed/Water-shed/src/platform/mpfs_hal/common/mss_plic.h ****     PLIC_F2M_25_INT_OFFSET           = 130 + OFFSET_TO_MSS_GLOBAL_INTS,
 411:/home/vinay/Desktop/softconsole_watershed/Water-shed/src/platform/mpfs_hal/common/mss_plic.h ****     PLIC_F2M_26_INT_OFFSET           = 131 + OFFSET_TO_MSS_GLOBAL_INTS,
 412:/home/vinay/Desktop/softconsole_watershed/Water-shed/src/platform/mpfs_hal/common/mss_plic.h ****     PLIC_F2M_27_INT_OFFSET           = 132 + OFFSET_TO_MSS_GLOBAL_INTS,
 413:/home/vinay/Desktop/softconsole_watershed/Water-shed/src/platform/mpfs_hal/common/mss_plic.h ****     PLIC_F2M_28_INT_OFFSET           = 133 + OFFSET_TO_MSS_GLOBAL_INTS,
 414:/home/vinay/Desktop/softconsole_watershed/Water-shed/src/platform/mpfs_hal/common/mss_plic.h ****     PLIC_F2M_29_INT_OFFSET           = 134 + OFFSET_TO_MSS_GLOBAL_INTS,
 415:/home/vinay/Desktop/softconsole_watershed/Water-shed/src/platform/mpfs_hal/common/mss_plic.h **** 
 416:/home/vinay/Desktop/softconsole_watershed/Water-shed/src/platform/mpfs_hal/common/mss_plic.h ****     PLIC_F2M_30_INT_OFFSET           = 135 + OFFSET_TO_MSS_GLOBAL_INTS,
 417:/home/vinay/Desktop/softconsole_watershed/Water-shed/src/platform/mpfs_hal/common/mss_plic.h ****     PLIC_F2M_31_INT_OFFSET           = 136 + OFFSET_TO_MSS_GLOBAL_INTS,
 418:/home/vinay/Desktop/softconsole_watershed/Water-shed/src/platform/mpfs_hal/common/mss_plic.h **** 
 419:/home/vinay/Desktop/softconsole_watershed/Water-shed/src/platform/mpfs_hal/common/mss_plic.h ****     PLIC_F2M_32_INT_OFFSET           = 137 + OFFSET_TO_MSS_GLOBAL_INTS,
 420:/home/vinay/Desktop/softconsole_watershed/Water-shed/src/platform/mpfs_hal/common/mss_plic.h ****     PLIC_F2M_33_INT_OFFSET           = 138 + OFFSET_TO_MSS_GLOBAL_INTS,
 421:/home/vinay/Desktop/softconsole_watershed/Water-shed/src/platform/mpfs_hal/common/mss_plic.h ****     PLIC_F2M_34_INT_OFFSET           = 139 + OFFSET_TO_MSS_GLOBAL_INTS,
 422:/home/vinay/Desktop/softconsole_watershed/Water-shed/src/platform/mpfs_hal/common/mss_plic.h ****     PLIC_F2M_35_INT_OFFSET           = 140 + OFFSET_TO_MSS_GLOBAL_INTS,
 423:/home/vinay/Desktop/softconsole_watershed/Water-shed/src/platform/mpfs_hal/common/mss_plic.h ****     PLIC_F2M_36_INT_OFFSET           = 141 + OFFSET_TO_MSS_GLOBAL_INTS,
 424:/home/vinay/Desktop/softconsole_watershed/Water-shed/src/platform/mpfs_hal/common/mss_plic.h ****     PLIC_F2M_37_INT_OFFSET           = 142 + OFFSET_TO_MSS_GLOBAL_INTS,
 425:/home/vinay/Desktop/softconsole_watershed/Water-shed/src/platform/mpfs_hal/common/mss_plic.h ****     PLIC_F2M_38_INT_OFFSET           = 143 + OFFSET_TO_MSS_GLOBAL_INTS,
 426:/home/vinay/Desktop/softconsole_watershed/Water-shed/src/platform/mpfs_hal/common/mss_plic.h ****     PLIC_F2M_39_INT_OFFSET           = 144 + OFFSET_TO_MSS_GLOBAL_INTS,
 427:/home/vinay/Desktop/softconsole_watershed/Water-shed/src/platform/mpfs_hal/common/mss_plic.h ****     PLIC_F2M_40_INT_OFFSET           = 145 + OFFSET_TO_MSS_GLOBAL_INTS,
 428:/home/vinay/Desktop/softconsole_watershed/Water-shed/src/platform/mpfs_hal/common/mss_plic.h ****     PLIC_F2M_41_INT_OFFSET           = 146 + OFFSET_TO_MSS_GLOBAL_INTS,
 429:/home/vinay/Desktop/softconsole_watershed/Water-shed/src/platform/mpfs_hal/common/mss_plic.h **** 
 430:/home/vinay/Desktop/softconsole_watershed/Water-shed/src/platform/mpfs_hal/common/mss_plic.h ****     PLIC_F2M_42_INT_OFFSET           = 147 + OFFSET_TO_MSS_GLOBAL_INTS,
 431:/home/vinay/Desktop/softconsole_watershed/Water-shed/src/platform/mpfs_hal/common/mss_plic.h ****     PLIC_F2M_43_INT_OFFSET           = 148 + OFFSET_TO_MSS_GLOBAL_INTS,
 432:/home/vinay/Desktop/softconsole_watershed/Water-shed/src/platform/mpfs_hal/common/mss_plic.h ****     PLIC_F2M_44_INT_OFFSET           = 149 + OFFSET_TO_MSS_GLOBAL_INTS,
 433:/home/vinay/Desktop/softconsole_watershed/Water-shed/src/platform/mpfs_hal/common/mss_plic.h ****     PLIC_F2M_45_INT_OFFSET           = 150 + OFFSET_TO_MSS_GLOBAL_INTS,
 434:/home/vinay/Desktop/softconsole_watershed/Water-shed/src/platform/mpfs_hal/common/mss_plic.h ****     PLIC_F2M_46_INT_OFFSET           = 151 + OFFSET_TO_MSS_GLOBAL_INTS,
 435:/home/vinay/Desktop/softconsole_watershed/Water-shed/src/platform/mpfs_hal/common/mss_plic.h ****     PLIC_F2M_47_INT_OFFSET           = 152 + OFFSET_TO_MSS_GLOBAL_INTS,
 436:/home/vinay/Desktop/softconsole_watershed/Water-shed/src/platform/mpfs_hal/common/mss_plic.h ****     PLIC_F2M_48_INT_OFFSET           = 153 + OFFSET_TO_MSS_GLOBAL_INTS,
 437:/home/vinay/Desktop/softconsole_watershed/Water-shed/src/platform/mpfs_hal/common/mss_plic.h ****     PLIC_F2M_49_INT_OFFSET           = 154 + OFFSET_TO_MSS_GLOBAL_INTS,
 438:/home/vinay/Desktop/softconsole_watershed/Water-shed/src/platform/mpfs_hal/common/mss_plic.h ****     PLIC_F2M_50_INT_OFFSET           = 155 + OFFSET_TO_MSS_GLOBAL_INTS,
 439:/home/vinay/Desktop/softconsole_watershed/Water-shed/src/platform/mpfs_hal/common/mss_plic.h ****     PLIC_F2M_51_INT_OFFSET           = 156 + OFFSET_TO_MSS_GLOBAL_INTS,
 440:/home/vinay/Desktop/softconsole_watershed/Water-shed/src/platform/mpfs_hal/common/mss_plic.h **** 
 441:/home/vinay/Desktop/softconsole_watershed/Water-shed/src/platform/mpfs_hal/common/mss_plic.h ****     PLIC_F2M_52_INT_OFFSET           = 157 + OFFSET_TO_MSS_GLOBAL_INTS,
 442:/home/vinay/Desktop/softconsole_watershed/Water-shed/src/platform/mpfs_hal/common/mss_plic.h ****     PLIC_F2M_53_INT_OFFSET           = 158 + OFFSET_TO_MSS_GLOBAL_INTS,
 443:/home/vinay/Desktop/softconsole_watershed/Water-shed/src/platform/mpfs_hal/common/mss_plic.h ****     PLIC_F2M_54_INT_OFFSET           = 159 + OFFSET_TO_MSS_GLOBAL_INTS,
 444:/home/vinay/Desktop/softconsole_watershed/Water-shed/src/platform/mpfs_hal/common/mss_plic.h ****     PLIC_F2M_55_INT_OFFSET           = 160 + OFFSET_TO_MSS_GLOBAL_INTS,
 445:/home/vinay/Desktop/softconsole_watershed/Water-shed/src/platform/mpfs_hal/common/mss_plic.h ****     PLIC_F2M_56_INT_OFFSET           = 161 + OFFSET_TO_MSS_GLOBAL_INTS,
 446:/home/vinay/Desktop/softconsole_watershed/Water-shed/src/platform/mpfs_hal/common/mss_plic.h ****     PLIC_F2M_57_INT_OFFSET           = 162 + OFFSET_TO_MSS_GLOBAL_INTS,
 447:/home/vinay/Desktop/softconsole_watershed/Water-shed/src/platform/mpfs_hal/common/mss_plic.h ****     PLIC_F2M_58_INT_OFFSET           = 163 + OFFSET_TO_MSS_GLOBAL_INTS,
 448:/home/vinay/Desktop/softconsole_watershed/Water-shed/src/platform/mpfs_hal/common/mss_plic.h ****     PLIC_F2M_59_INT_OFFSET           = 164 + OFFSET_TO_MSS_GLOBAL_INTS,
 449:/home/vinay/Desktop/softconsole_watershed/Water-shed/src/platform/mpfs_hal/common/mss_plic.h ****     PLIC_F2M_60_INT_OFFSET           = 165 + OFFSET_TO_MSS_GLOBAL_INTS,
 450:/home/vinay/Desktop/softconsole_watershed/Water-shed/src/platform/mpfs_hal/common/mss_plic.h ****     PLIC_F2M_61_INT_OFFSET           = 166 + OFFSET_TO_MSS_GLOBAL_INTS,
 451:/home/vinay/Desktop/softconsole_watershed/Water-shed/src/platform/mpfs_hal/common/mss_plic.h **** 
 452:/home/vinay/Desktop/softconsole_watershed/Water-shed/src/platform/mpfs_hal/common/mss_plic.h ****     PLIC_F2M_62_INT_OFFSET           = 167 + OFFSET_TO_MSS_GLOBAL_INTS,
 453:/home/vinay/Desktop/softconsole_watershed/Water-shed/src/platform/mpfs_hal/common/mss_plic.h ****     PLIC_F2M_63_INT_OFFSET           = 168 + OFFSET_TO_MSS_GLOBAL_INTS,
 454:/home/vinay/Desktop/softconsole_watershed/Water-shed/src/platform/mpfs_hal/common/mss_plic.h **** 
 455:/home/vinay/Desktop/softconsole_watershed/Water-shed/src/platform/mpfs_hal/common/mss_plic.h ****     PLIC_E51_BUS_ERROR_UNIT_OFFSET        = 182,
 456:/home/vinay/Desktop/softconsole_watershed/Water-shed/src/platform/mpfs_hal/common/mss_plic.h ****     PLIC_U54_1_BUS_ERROR_UNIT_OFFSET      = 183,
 457:/home/vinay/Desktop/softconsole_watershed/Water-shed/src/platform/mpfs_hal/common/mss_plic.h ****     PLIC_U54_2_BUS_ERROR_UNIT_OFFSET      = 184,
 458:/home/vinay/Desktop/softconsole_watershed/Water-shed/src/platform/mpfs_hal/common/mss_plic.h ****     PLIC_U54_3_BUS_ERROR_UNIT_OFFSET      = 185,
 459:/home/vinay/Desktop/softconsole_watershed/Water-shed/src/platform/mpfs_hal/common/mss_plic.h ****     PLIC_U54_4_BUS_ERROR_UNIT_OFFSET      = 186
 460:/home/vinay/Desktop/softconsole_watershed/Water-shed/src/platform/mpfs_hal/common/mss_plic.h **** 
 461:/home/vinay/Desktop/softconsole_watershed/Water-shed/src/platform/mpfs_hal/common/mss_plic.h **** } PLIC_IRQn_Type;
 462:/home/vinay/Desktop/softconsole_watershed/Water-shed/src/platform/mpfs_hal/common/mss_plic.h **** 
 463:/home/vinay/Desktop/softconsole_watershed/Water-shed/src/platform/mpfs_hal/common/mss_plic.h **** #define MAX_PLIC_INT PLIC_U54_4_BUS_ERROR_UNIT_OFFSET
 464:/home/vinay/Desktop/softconsole_watershed/Water-shed/src/platform/mpfs_hal/common/mss_plic.h **** 
 465:/home/vinay/Desktop/softconsole_watershed/Water-shed/src/platform/mpfs_hal/common/mss_plic.h **** typedef struct
 466:/home/vinay/Desktop/softconsole_watershed/Water-shed/src/platform/mpfs_hal/common/mss_plic.h **** {
 467:/home/vinay/Desktop/softconsole_watershed/Water-shed/src/platform/mpfs_hal/common/mss_plic.h ****     volatile uint32_t PRIORITY_THRESHOLD;
 468:/home/vinay/Desktop/softconsole_watershed/Water-shed/src/platform/mpfs_hal/common/mss_plic.h ****     volatile uint32_t CLAIM_COMPLETE;
 469:/home/vinay/Desktop/softconsole_watershed/Water-shed/src/platform/mpfs_hal/common/mss_plic.h ****     volatile uint32_t reserved[(0x1000/4)-2];
 470:/home/vinay/Desktop/softconsole_watershed/Water-shed/src/platform/mpfs_hal/common/mss_plic.h **** } IRQ_Target_Type;
 471:/home/vinay/Desktop/softconsole_watershed/Water-shed/src/platform/mpfs_hal/common/mss_plic.h **** 
 472:/home/vinay/Desktop/softconsole_watershed/Water-shed/src/platform/mpfs_hal/common/mss_plic.h **** typedef struct
 473:/home/vinay/Desktop/softconsole_watershed/Water-shed/src/platform/mpfs_hal/common/mss_plic.h **** {
 474:/home/vinay/Desktop/softconsole_watershed/Water-shed/src/platform/mpfs_hal/common/mss_plic.h ****     volatile uint32_t ENABLES[32U];
 475:/home/vinay/Desktop/softconsole_watershed/Water-shed/src/platform/mpfs_hal/common/mss_plic.h **** } Target_Enables_Type;
 476:/home/vinay/Desktop/softconsole_watershed/Water-shed/src/platform/mpfs_hal/common/mss_plic.h **** 
 477:/home/vinay/Desktop/softconsole_watershed/Water-shed/src/platform/mpfs_hal/common/mss_plic.h **** 
 478:/home/vinay/Desktop/softconsole_watershed/Water-shed/src/platform/mpfs_hal/common/mss_plic.h **** #define PLIC_SET_UP_REGISTERS 6U
 479:/home/vinay/Desktop/softconsole_watershed/Water-shed/src/platform/mpfs_hal/common/mss_plic.h **** 
 480:/home/vinay/Desktop/softconsole_watershed/Water-shed/src/platform/mpfs_hal/common/mss_plic.h **** #define PLIC_NUM_SOURCES 187U
 481:/home/vinay/Desktop/softconsole_watershed/Water-shed/src/platform/mpfs_hal/common/mss_plic.h **** 
 482:/home/vinay/Desktop/softconsole_watershed/Water-shed/src/platform/mpfs_hal/common/mss_plic.h **** #define PLIC_NUM_PRIORITIES 7U
 483:/home/vinay/Desktop/softconsole_watershed/Water-shed/src/platform/mpfs_hal/common/mss_plic.h **** #define NUM_CLAIM_REGS      9U
 484:/home/vinay/Desktop/softconsole_watershed/Water-shed/src/platform/mpfs_hal/common/mss_plic.h **** 
 485:/home/vinay/Desktop/softconsole_watershed/Water-shed/src/platform/mpfs_hal/common/mss_plic.h **** 
 486:/home/vinay/Desktop/softconsole_watershed/Water-shed/src/platform/mpfs_hal/common/mss_plic.h **** /* The FU540-C000 has 53 interrupt sources. */
 487:/home/vinay/Desktop/softconsole_watershed/Water-shed/src/platform/mpfs_hal/common/mss_plic.h ****  typedef struct
 488:/home/vinay/Desktop/softconsole_watershed/Water-shed/src/platform/mpfs_hal/common/mss_plic.h **** {
 489:/home/vinay/Desktop/softconsole_watershed/Water-shed/src/platform/mpfs_hal/common/mss_plic.h ****     volatile uint32_t RESERVED0;
 490:/home/vinay/Desktop/softconsole_watershed/Water-shed/src/platform/mpfs_hal/common/mss_plic.h ****     /*-------------------- Source Priority --------------------*/
 491:/home/vinay/Desktop/softconsole_watershed/Water-shed/src/platform/mpfs_hal/common/mss_plic.h ****     volatile uint32_t SOURCE_PRIORITY[PLIC_NUM_SOURCES];
 492:/home/vinay/Desktop/softconsole_watershed/Water-shed/src/platform/mpfs_hal/common/mss_plic.h ****     volatile uint32_t RESERVED1[(0x1000 / 4) - (PLIC_NUM_SOURCES + 1)];
 493:/home/vinay/Desktop/softconsole_watershed/Water-shed/src/platform/mpfs_hal/common/mss_plic.h ****     /*-------------------- Pending array --------------------*/
 494:/home/vinay/Desktop/softconsole_watershed/Water-shed/src/platform/mpfs_hal/common/mss_plic.h ****     volatile const uint32_t PENDING_ARRAY[PLIC_SET_UP_REGISTERS];
 495:/home/vinay/Desktop/softconsole_watershed/Water-shed/src/platform/mpfs_hal/common/mss_plic.h ****     volatile uint32_t RESERVED2[(0x1000/4) - PLIC_SET_UP_REGISTERS];
 496:/home/vinay/Desktop/softconsole_watershed/Water-shed/src/platform/mpfs_hal/common/mss_plic.h **** 
 497:/home/vinay/Desktop/softconsole_watershed/Water-shed/src/platform/mpfs_hal/common/mss_plic.h ****     /*-----------------Hart0 Mode Enables--------------------*/
 498:/home/vinay/Desktop/softconsole_watershed/Water-shed/src/platform/mpfs_hal/common/mss_plic.h ****     volatile uint32_t HART0_MMODE_ENA[PLIC_SET_UP_REGISTERS];
 499:/home/vinay/Desktop/softconsole_watershed/Water-shed/src/platform/mpfs_hal/common/mss_plic.h ****     volatile uint32_t RESERVED3[(0x80/4) - PLIC_SET_UP_REGISTERS];
 500:/home/vinay/Desktop/softconsole_watershed/Water-shed/src/platform/mpfs_hal/common/mss_plic.h **** 
 501:/home/vinay/Desktop/softconsole_watershed/Water-shed/src/platform/mpfs_hal/common/mss_plic.h ****     /*-----------------Hart1 Mode Enables--------------------*/
 502:/home/vinay/Desktop/softconsole_watershed/Water-shed/src/platform/mpfs_hal/common/mss_plic.h ****     volatile uint32_t HART1_MMODE_ENA[PLIC_SET_UP_REGISTERS];
 503:/home/vinay/Desktop/softconsole_watershed/Water-shed/src/platform/mpfs_hal/common/mss_plic.h ****     volatile uint32_t RESERVED4a[(0x80/4) - PLIC_SET_UP_REGISTERS];
 504:/home/vinay/Desktop/softconsole_watershed/Water-shed/src/platform/mpfs_hal/common/mss_plic.h ****     volatile uint32_t HART1_SMODE_ENA[PLIC_SET_UP_REGISTERS];
 505:/home/vinay/Desktop/softconsole_watershed/Water-shed/src/platform/mpfs_hal/common/mss_plic.h ****     volatile uint32_t RESERVED4[(0x80/4) - PLIC_SET_UP_REGISTERS];
 506:/home/vinay/Desktop/softconsole_watershed/Water-shed/src/platform/mpfs_hal/common/mss_plic.h **** 
 507:/home/vinay/Desktop/softconsole_watershed/Water-shed/src/platform/mpfs_hal/common/mss_plic.h ****     /*-----------------Hart2 Mode Enables--------------------*/
 508:/home/vinay/Desktop/softconsole_watershed/Water-shed/src/platform/mpfs_hal/common/mss_plic.h ****     volatile uint32_t HART2_MMODE_ENA[PLIC_SET_UP_REGISTERS];
 509:/home/vinay/Desktop/softconsole_watershed/Water-shed/src/platform/mpfs_hal/common/mss_plic.h ****     volatile uint32_t RESERVED5a[(0x80/4) - PLIC_SET_UP_REGISTERS];
 510:/home/vinay/Desktop/softconsole_watershed/Water-shed/src/platform/mpfs_hal/common/mss_plic.h ****     volatile uint32_t HART2_SMODE_ENA[PLIC_SET_UP_REGISTERS];
 511:/home/vinay/Desktop/softconsole_watershed/Water-shed/src/platform/mpfs_hal/common/mss_plic.h ****     volatile uint32_t RESERVED5[(0x80/4) - PLIC_SET_UP_REGISTERS];
 512:/home/vinay/Desktop/softconsole_watershed/Water-shed/src/platform/mpfs_hal/common/mss_plic.h **** 
 513:/home/vinay/Desktop/softconsole_watershed/Water-shed/src/platform/mpfs_hal/common/mss_plic.h ****     /*-----------------Hart3 Mode Enables--------------------*/
 514:/home/vinay/Desktop/softconsole_watershed/Water-shed/src/platform/mpfs_hal/common/mss_plic.h ****     volatile uint32_t HART3_MMODE_ENA[PLIC_SET_UP_REGISTERS];
 515:/home/vinay/Desktop/softconsole_watershed/Water-shed/src/platform/mpfs_hal/common/mss_plic.h ****     volatile uint32_t RESERVED6a[(0x80/4) - PLIC_SET_UP_REGISTERS];
 516:/home/vinay/Desktop/softconsole_watershed/Water-shed/src/platform/mpfs_hal/common/mss_plic.h ****     volatile uint32_t HART3_SMODE_ENA[PLIC_SET_UP_REGISTERS];
 517:/home/vinay/Desktop/softconsole_watershed/Water-shed/src/platform/mpfs_hal/common/mss_plic.h ****     volatile uint32_t RESERVED6[(0x80/4) - PLIC_SET_UP_REGISTERS];
 518:/home/vinay/Desktop/softconsole_watershed/Water-shed/src/platform/mpfs_hal/common/mss_plic.h **** 
 519:/home/vinay/Desktop/softconsole_watershed/Water-shed/src/platform/mpfs_hal/common/mss_plic.h ****     /*-----------------Hart4 Mode Enables--------------------*/
 520:/home/vinay/Desktop/softconsole_watershed/Water-shed/src/platform/mpfs_hal/common/mss_plic.h ****     volatile uint32_t HART4_MMODE_ENA[PLIC_SET_UP_REGISTERS];
 521:/home/vinay/Desktop/softconsole_watershed/Water-shed/src/platform/mpfs_hal/common/mss_plic.h ****     volatile uint32_t RESERVED7a[(0x80/4) - PLIC_SET_UP_REGISTERS];
 522:/home/vinay/Desktop/softconsole_watershed/Water-shed/src/platform/mpfs_hal/common/mss_plic.h ****     volatile uint32_t HART4_SMODE_ENA[PLIC_SET_UP_REGISTERS];
 523:/home/vinay/Desktop/softconsole_watershed/Water-shed/src/platform/mpfs_hal/common/mss_plic.h ****     volatile uint32_t RESERVED7[(0x80/4) - PLIC_SET_UP_REGISTERS];
 524:/home/vinay/Desktop/softconsole_watershed/Water-shed/src/platform/mpfs_hal/common/mss_plic.h **** 
 525:/home/vinay/Desktop/softconsole_watershed/Water-shed/src/platform/mpfs_hal/common/mss_plic.h ****     volatile uint32_t RESERVED8[(0x0C200000 - 0x0C002480)/4];
 526:/home/vinay/Desktop/softconsole_watershed/Water-shed/src/platform/mpfs_hal/common/mss_plic.h **** 
 527:/home/vinay/Desktop/softconsole_watershed/Water-shed/src/platform/mpfs_hal/common/mss_plic.h ****     /*--- Target Priority threshold and claim/complete---------*/
 528:/home/vinay/Desktop/softconsole_watershed/Water-shed/src/platform/mpfs_hal/common/mss_plic.h ****     IRQ_Target_Type TARGET[NUM_CLAIM_REGS];   /* See PLIC Register Map or
 529:/home/vinay/Desktop/softconsole_watershed/Water-shed/src/platform/mpfs_hal/common/mss_plic.h ****                                                  TARGET_OFFSET defines below
 530:/home/vinay/Desktop/softconsole_watershed/Water-shed/src/platform/mpfs_hal/common/mss_plic.h ****                                                  for offset details */
 531:/home/vinay/Desktop/softconsole_watershed/Water-shed/src/platform/mpfs_hal/common/mss_plic.h **** 
 532:/home/vinay/Desktop/softconsole_watershed/Water-shed/src/platform/mpfs_hal/common/mss_plic.h **** } PLIC_Type;
 533:/home/vinay/Desktop/softconsole_watershed/Water-shed/src/platform/mpfs_hal/common/mss_plic.h **** 
 534:/home/vinay/Desktop/softconsole_watershed/Water-shed/src/platform/mpfs_hal/common/mss_plic.h **** #define TARGET_OFFSET_HART0_M 0U
 535:/home/vinay/Desktop/softconsole_watershed/Water-shed/src/platform/mpfs_hal/common/mss_plic.h **** #define TARGET_OFFSET_HART1_M 1U
 536:/home/vinay/Desktop/softconsole_watershed/Water-shed/src/platform/mpfs_hal/common/mss_plic.h **** #define TARGET_OFFSET_HART1_S 2U
 537:/home/vinay/Desktop/softconsole_watershed/Water-shed/src/platform/mpfs_hal/common/mss_plic.h **** #define TARGET_OFFSET_HART2_M 3U
 538:/home/vinay/Desktop/softconsole_watershed/Water-shed/src/platform/mpfs_hal/common/mss_plic.h **** #define TARGET_OFFSET_HART2_S 4U
 539:/home/vinay/Desktop/softconsole_watershed/Water-shed/src/platform/mpfs_hal/common/mss_plic.h **** #define TARGET_OFFSET_HART3_M 5U
 540:/home/vinay/Desktop/softconsole_watershed/Water-shed/src/platform/mpfs_hal/common/mss_plic.h **** #define TARGET_OFFSET_HART3_S 6U
 541:/home/vinay/Desktop/softconsole_watershed/Water-shed/src/platform/mpfs_hal/common/mss_plic.h **** #define TARGET_OFFSET_HART4_M 7U
 542:/home/vinay/Desktop/softconsole_watershed/Water-shed/src/platform/mpfs_hal/common/mss_plic.h **** #define TARGET_OFFSET_HART4_S 8U
 543:/home/vinay/Desktop/softconsole_watershed/Water-shed/src/platform/mpfs_hal/common/mss_plic.h **** 
 544:/home/vinay/Desktop/softconsole_watershed/Water-shed/src/platform/mpfs_hal/common/mss_plic.h **** extern const unsigned long plic_hart_lookup[5U];
 545:/home/vinay/Desktop/softconsole_watershed/Water-shed/src/platform/mpfs_hal/common/mss_plic.h **** 
 546:/home/vinay/Desktop/softconsole_watershed/Water-shed/src/platform/mpfs_hal/common/mss_plic.h **** /***************************************************************************//**
 547:/home/vinay/Desktop/softconsole_watershed/Water-shed/src/platform/mpfs_hal/common/mss_plic.h ****  * PLIC: Platform Level Interrupt Controller
 548:/home/vinay/Desktop/softconsole_watershed/Water-shed/src/platform/mpfs_hal/common/mss_plic.h ****  */
 549:/home/vinay/Desktop/softconsole_watershed/Water-shed/src/platform/mpfs_hal/common/mss_plic.h **** #define PLIC_BASE_ADDR 0x0C000000UL
 550:/home/vinay/Desktop/softconsole_watershed/Water-shed/src/platform/mpfs_hal/common/mss_plic.h **** 
 551:/home/vinay/Desktop/softconsole_watershed/Water-shed/src/platform/mpfs_hal/common/mss_plic.h **** #define PLIC    ((PLIC_Type * const)PLIC_BASE_ADDR)
 552:/home/vinay/Desktop/softconsole_watershed/Water-shed/src/platform/mpfs_hal/common/mss_plic.h **** 
 553:/home/vinay/Desktop/softconsole_watershed/Water-shed/src/platform/mpfs_hal/common/mss_plic.h **** /*-------------------------------------------------------------------------*//**
 554:/home/vinay/Desktop/softconsole_watershed/Water-shed/src/platform/mpfs_hal/common/mss_plic.h ****  * The function PLIC_init() initializes the PLIC controller and enables the
 555:/home/vinay/Desktop/softconsole_watershed/Water-shed/src/platform/mpfs_hal/common/mss_plic.h ****  * global external interrupt bit.
 556:/home/vinay/Desktop/softconsole_watershed/Water-shed/src/platform/mpfs_hal/common/mss_plic.h ****  */
 557:/home/vinay/Desktop/softconsole_watershed/Water-shed/src/platform/mpfs_hal/common/mss_plic.h **** 
 558:/home/vinay/Desktop/softconsole_watershed/Water-shed/src/platform/mpfs_hal/common/mss_plic.h **** /*-----------------Hart Mode Enables--------------------*/
 559:/home/vinay/Desktop/softconsole_watershed/Water-shed/src/platform/mpfs_hal/common/mss_plic.h **** 
 560:/home/vinay/Desktop/softconsole_watershed/Water-shed/src/platform/mpfs_hal/common/mss_plic.h **** static inline void PLIC_init(void)
 561:/home/vinay/Desktop/softconsole_watershed/Water-shed/src/platform/mpfs_hal/common/mss_plic.h **** {
 562:/home/vinay/Desktop/softconsole_watershed/Water-shed/src/platform/mpfs_hal/common/mss_plic.h ****     uint32_t inc;
 563:/home/vinay/Desktop/softconsole_watershed/Water-shed/src/platform/mpfs_hal/common/mss_plic.h ****     uint64_t hart_id  = read_csr(mhartid);
 564:/home/vinay/Desktop/softconsole_watershed/Water-shed/src/platform/mpfs_hal/common/mss_plic.h **** 
 565:/home/vinay/Desktop/softconsole_watershed/Water-shed/src/platform/mpfs_hal/common/mss_plic.h ****     /* Disable all interrupts for the current hart. */
 566:/home/vinay/Desktop/softconsole_watershed/Water-shed/src/platform/mpfs_hal/common/mss_plic.h ****     switch(hart_id)
 567:/home/vinay/Desktop/softconsole_watershed/Water-shed/src/platform/mpfs_hal/common/mss_plic.h ****     {
 568:/home/vinay/Desktop/softconsole_watershed/Water-shed/src/platform/mpfs_hal/common/mss_plic.h ****         case 0:
 569:/home/vinay/Desktop/softconsole_watershed/Water-shed/src/platform/mpfs_hal/common/mss_plic.h ****             for(inc = 0UL; inc < PLIC_SET_UP_REGISTERS; inc++)
 570:/home/vinay/Desktop/softconsole_watershed/Water-shed/src/platform/mpfs_hal/common/mss_plic.h ****             {
 571:/home/vinay/Desktop/softconsole_watershed/Water-shed/src/platform/mpfs_hal/common/mss_plic.h ****                 PLIC->HART0_MMODE_ENA[inc] = 0U;
 572:/home/vinay/Desktop/softconsole_watershed/Water-shed/src/platform/mpfs_hal/common/mss_plic.h ****             }
 573:/home/vinay/Desktop/softconsole_watershed/Water-shed/src/platform/mpfs_hal/common/mss_plic.h **** 
 574:/home/vinay/Desktop/softconsole_watershed/Water-shed/src/platform/mpfs_hal/common/mss_plic.h ****             /* Set the threshold to zero.
 575:/home/vinay/Desktop/softconsole_watershed/Water-shed/src/platform/mpfs_hal/common/mss_plic.h ****              * PLIC provides context based threshold register for the settings of a
 576:/home/vinay/Desktop/softconsole_watershed/Water-shed/src/platform/mpfs_hal/common/mss_plic.h ****              * interrupt priority threshold of each context. The threshold register
 577:/home/vinay/Desktop/softconsole_watershed/Water-shed/src/platform/mpfs_hal/common/mss_plic.h ****              * is a WARL field. The PLIC will mask all PLIC interrupts of a priority
 578:/home/vinay/Desktop/softconsole_watershed/Water-shed/src/platform/mpfs_hal/common/mss_plic.h ****              * less than or equal to threshold. For example, a threshold value of zero
 579:/home/vinay/Desktop/softconsole_watershed/Water-shed/src/platform/mpfs_hal/common/mss_plic.h ****              * permits all interrupts with non-zero priority.*/
 580:/home/vinay/Desktop/softconsole_watershed/Water-shed/src/platform/mpfs_hal/common/mss_plic.h **** 
 581:/home/vinay/Desktop/softconsole_watershed/Water-shed/src/platform/mpfs_hal/common/mss_plic.h ****             PLIC->TARGET[TARGET_OFFSET_HART0_M].PRIORITY_THRESHOLD  = 0U;
 582:/home/vinay/Desktop/softconsole_watershed/Water-shed/src/platform/mpfs_hal/common/mss_plic.h ****             break;
 583:/home/vinay/Desktop/softconsole_watershed/Water-shed/src/platform/mpfs_hal/common/mss_plic.h ****         case 1:
 584:/home/vinay/Desktop/softconsole_watershed/Water-shed/src/platform/mpfs_hal/common/mss_plic.h ****             for(inc = 0UL; inc < PLIC_SET_UP_REGISTERS; inc++)
 585:/home/vinay/Desktop/softconsole_watershed/Water-shed/src/platform/mpfs_hal/common/mss_plic.h ****             {
 586:/home/vinay/Desktop/softconsole_watershed/Water-shed/src/platform/mpfs_hal/common/mss_plic.h ****                 PLIC->HART1_MMODE_ENA[inc] = 0U;
 587:/home/vinay/Desktop/softconsole_watershed/Water-shed/src/platform/mpfs_hal/common/mss_plic.h ****                 PLIC->HART1_SMODE_ENA[inc] = 0U;
 588:/home/vinay/Desktop/softconsole_watershed/Water-shed/src/platform/mpfs_hal/common/mss_plic.h ****             }
 589:/home/vinay/Desktop/softconsole_watershed/Water-shed/src/platform/mpfs_hal/common/mss_plic.h **** 
 590:/home/vinay/Desktop/softconsole_watershed/Water-shed/src/platform/mpfs_hal/common/mss_plic.h ****             PLIC->TARGET[TARGET_OFFSET_HART1_M].PRIORITY_THRESHOLD  = 0U;
 591:/home/vinay/Desktop/softconsole_watershed/Water-shed/src/platform/mpfs_hal/common/mss_plic.h ****             /* Disable supervisor level */
 592:/home/vinay/Desktop/softconsole_watershed/Water-shed/src/platform/mpfs_hal/common/mss_plic.h ****             PLIC->TARGET[TARGET_OFFSET_HART1_S].PRIORITY_THRESHOLD  = 7U;
 593:/home/vinay/Desktop/softconsole_watershed/Water-shed/src/platform/mpfs_hal/common/mss_plic.h ****             break;
 594:/home/vinay/Desktop/softconsole_watershed/Water-shed/src/platform/mpfs_hal/common/mss_plic.h ****         case 2:
 595:/home/vinay/Desktop/softconsole_watershed/Water-shed/src/platform/mpfs_hal/common/mss_plic.h ****             for(inc = 0UL; inc < PLIC_SET_UP_REGISTERS; inc++)
 596:/home/vinay/Desktop/softconsole_watershed/Water-shed/src/platform/mpfs_hal/common/mss_plic.h ****             {
 597:/home/vinay/Desktop/softconsole_watershed/Water-shed/src/platform/mpfs_hal/common/mss_plic.h ****                 PLIC->HART2_MMODE_ENA[inc] = 0U;
 598:/home/vinay/Desktop/softconsole_watershed/Water-shed/src/platform/mpfs_hal/common/mss_plic.h ****                 PLIC->HART2_SMODE_ENA[inc] = 0U;
 599:/home/vinay/Desktop/softconsole_watershed/Water-shed/src/platform/mpfs_hal/common/mss_plic.h ****             }
 600:/home/vinay/Desktop/softconsole_watershed/Water-shed/src/platform/mpfs_hal/common/mss_plic.h **** 
 601:/home/vinay/Desktop/softconsole_watershed/Water-shed/src/platform/mpfs_hal/common/mss_plic.h ****             PLIC->TARGET[TARGET_OFFSET_HART2_M].PRIORITY_THRESHOLD  = 0U;
 602:/home/vinay/Desktop/softconsole_watershed/Water-shed/src/platform/mpfs_hal/common/mss_plic.h ****             /* Disable supervisor level */
 603:/home/vinay/Desktop/softconsole_watershed/Water-shed/src/platform/mpfs_hal/common/mss_plic.h ****             PLIC->TARGET[TARGET_OFFSET_HART2_S].PRIORITY_THRESHOLD  = 7U;
 604:/home/vinay/Desktop/softconsole_watershed/Water-shed/src/platform/mpfs_hal/common/mss_plic.h ****             break;
 605:/home/vinay/Desktop/softconsole_watershed/Water-shed/src/platform/mpfs_hal/common/mss_plic.h ****         case 3:
 606:/home/vinay/Desktop/softconsole_watershed/Water-shed/src/platform/mpfs_hal/common/mss_plic.h ****             for(inc = 0UL; inc < PLIC_SET_UP_REGISTERS; inc++)
 607:/home/vinay/Desktop/softconsole_watershed/Water-shed/src/platform/mpfs_hal/common/mss_plic.h ****             {
 608:/home/vinay/Desktop/softconsole_watershed/Water-shed/src/platform/mpfs_hal/common/mss_plic.h ****                 PLIC->HART3_MMODE_ENA[inc] = 0U;
 609:/home/vinay/Desktop/softconsole_watershed/Water-shed/src/platform/mpfs_hal/common/mss_plic.h ****                 PLIC->HART3_SMODE_ENA[inc] = 0U;
 610:/home/vinay/Desktop/softconsole_watershed/Water-shed/src/platform/mpfs_hal/common/mss_plic.h ****             }
 611:/home/vinay/Desktop/softconsole_watershed/Water-shed/src/platform/mpfs_hal/common/mss_plic.h **** 
 612:/home/vinay/Desktop/softconsole_watershed/Water-shed/src/platform/mpfs_hal/common/mss_plic.h ****             PLIC->TARGET[TARGET_OFFSET_HART3_M].PRIORITY_THRESHOLD  = 0U;
 613:/home/vinay/Desktop/softconsole_watershed/Water-shed/src/platform/mpfs_hal/common/mss_plic.h ****             /* Disable supervisor level */
 614:/home/vinay/Desktop/softconsole_watershed/Water-shed/src/platform/mpfs_hal/common/mss_plic.h ****             PLIC->TARGET[TARGET_OFFSET_HART3_S].PRIORITY_THRESHOLD  = 7U;
 615:/home/vinay/Desktop/softconsole_watershed/Water-shed/src/platform/mpfs_hal/common/mss_plic.h ****             break;
 616:/home/vinay/Desktop/softconsole_watershed/Water-shed/src/platform/mpfs_hal/common/mss_plic.h ****         case 4:
 617:/home/vinay/Desktop/softconsole_watershed/Water-shed/src/platform/mpfs_hal/common/mss_plic.h ****             for(inc = 0UL; inc < PLIC_SET_UP_REGISTERS; inc++)
 618:/home/vinay/Desktop/softconsole_watershed/Water-shed/src/platform/mpfs_hal/common/mss_plic.h ****             {
 619:/home/vinay/Desktop/softconsole_watershed/Water-shed/src/platform/mpfs_hal/common/mss_plic.h ****                 PLIC->HART4_MMODE_ENA[inc] = 0U;
 620:/home/vinay/Desktop/softconsole_watershed/Water-shed/src/platform/mpfs_hal/common/mss_plic.h ****                 PLIC->HART4_SMODE_ENA[inc] = 0U;
 621:/home/vinay/Desktop/softconsole_watershed/Water-shed/src/platform/mpfs_hal/common/mss_plic.h ****             }
 622:/home/vinay/Desktop/softconsole_watershed/Water-shed/src/platform/mpfs_hal/common/mss_plic.h **** 
 623:/home/vinay/Desktop/softconsole_watershed/Water-shed/src/platform/mpfs_hal/common/mss_plic.h ****             PLIC->TARGET[TARGET_OFFSET_HART4_M].PRIORITY_THRESHOLD  = 0U;
 624:/home/vinay/Desktop/softconsole_watershed/Water-shed/src/platform/mpfs_hal/common/mss_plic.h ****             /* Disable supervisor level */
 625:/home/vinay/Desktop/softconsole_watershed/Water-shed/src/platform/mpfs_hal/common/mss_plic.h ****             PLIC->TARGET[TARGET_OFFSET_HART4_S].PRIORITY_THRESHOLD  = 7U;
 626:/home/vinay/Desktop/softconsole_watershed/Water-shed/src/platform/mpfs_hal/common/mss_plic.h ****             break;
 627:/home/vinay/Desktop/softconsole_watershed/Water-shed/src/platform/mpfs_hal/common/mss_plic.h ****         default:
 628:/home/vinay/Desktop/softconsole_watershed/Water-shed/src/platform/mpfs_hal/common/mss_plic.h ****             break;
 629:/home/vinay/Desktop/softconsole_watershed/Water-shed/src/platform/mpfs_hal/common/mss_plic.h ****     }
 630:/home/vinay/Desktop/softconsole_watershed/Water-shed/src/platform/mpfs_hal/common/mss_plic.h **** 
 631:/home/vinay/Desktop/softconsole_watershed/Water-shed/src/platform/mpfs_hal/common/mss_plic.h ****     /* Enable  PLIC_MMUARTine external interrupts. */
 632:/home/vinay/Desktop/softconsole_watershed/Water-shed/src/platform/mpfs_hal/common/mss_plic.h ****     set_csr(mie, MIP_MEIP);
 633:/home/vinay/Desktop/softconsole_watershed/Water-shed/src/platform/mpfs_hal/common/mss_plic.h **** }
 634:/home/vinay/Desktop/softconsole_watershed/Water-shed/src/platform/mpfs_hal/common/mss_plic.h **** 
 635:/home/vinay/Desktop/softconsole_watershed/Water-shed/src/platform/mpfs_hal/common/mss_plic.h **** 
 636:/home/vinay/Desktop/softconsole_watershed/Water-shed/src/platform/mpfs_hal/common/mss_plic.h **** 
 637:/home/vinay/Desktop/softconsole_watershed/Water-shed/src/platform/mpfs_hal/common/mss_plic.h **** /***************************************************************************//**
 638:/home/vinay/Desktop/softconsole_watershed/Water-shed/src/platform/mpfs_hal/common/mss_plic.h ****  * The function PLIC_EnableIRQ() enables the external interrupt for the
 639:/home/vinay/Desktop/softconsole_watershed/Water-shed/src/platform/mpfs_hal/common/mss_plic.h ****  * interrupt number indicated by the parameter IRQn.
 640:/home/vinay/Desktop/softconsole_watershed/Water-shed/src/platform/mpfs_hal/common/mss_plic.h ****  */
 641:/home/vinay/Desktop/softconsole_watershed/Water-shed/src/platform/mpfs_hal/common/mss_plic.h **** static inline void PLIC_EnableIRQ(PLIC_IRQn_Type IRQn)
 642:/home/vinay/Desktop/softconsole_watershed/Water-shed/src/platform/mpfs_hal/common/mss_plic.h **** {
  15              		.loc 1 642 1
  16              		.cfi_startproc
  17              	.LVL0:
 643:/home/vinay/Desktop/softconsole_watershed/Water-shed/src/platform/mpfs_hal/common/mss_plic.h ****     uint32_t current;
  18              		.loc 1 643 5
 644:/home/vinay/Desktop/softconsole_watershed/Water-shed/src/platform/mpfs_hal/common/mss_plic.h ****     uint64_t hart_id  = read_csr(mhartid);
  19              		.loc 1 644 5
  20              	.LBB8:
  21              		.loc 1 644 25
  22              		.loc 1 644 25
  23              	 #APP
  24              	# 644 "/home/vinay/Desktop/softconsole_watershed/Water-shed/src/platform/mpfs_hal/common/mss_plic.h
 645              	
  25              		csrr a5, mhartid
  26              	# 0 "" 2
  27              	.LVL1:
 644:/home/vinay/Desktop/softconsole_watershed/Water-shed/src/platform/mpfs_hal/common/mss_plic.h ****     uint64_t hart_id  = read_csr(mhartid);
  28              		.loc 1 644 25
  29              	 #NO_APP
  30              	.LBE8:
 646:/home/vinay/Desktop/softconsole_watershed/Water-shed/src/platform/mpfs_hal/common/mss_plic.h ****     switch(hart_id)
  31              		.loc 1 646 5
  32 0004 1147     		li	a4,4
  33 0006 636EF708 		bgtu	a5,a4,.L1
  34 000a 97060000 		lla	a3,.L4
  34      93860600 
  35 0012 8A07     		slli	a5,a5,2
  36              	.LVL2:
  37 0014 B697     		add	a5,a5,a3
  38 0016 9843     		lw	a4,0(a5)
  39 0018 9B575500 		srliw	a5,a0,5
  40 001c 8217     		slli	a5,a5,32
  41 001e 3697     		add	a4,a4,a3
  42 0020 7D89     		andi	a0,a0,31
  43              	.LVL3:
  44 0022 F983     		srli	a5,a5,30
  45 0024 0287     		jr	a4
  46              		.section	.rodata.PLIC_EnableIRQ,"a",@progbits
  47              		.align	2
  48              		.align	2
  49              	.L4:
  50 0000 00000000 		.word	.L8-.L4
  51 0004 00000000 		.word	.L7-.L4
  52 0008 00000000 		.word	.L6-.L4
  53 000c 00000000 		.word	.L5-.L4
  54 0010 00000000 		.word	.L3-.L4
  55              		.section	.text.PLIC_EnableIRQ
  56              	.L8:
  57              	.LVL4:
  58              	.LBB9:
  59              	.LBB10:
 647:/home/vinay/Desktop/softconsole_watershed/Water-shed/src/platform/mpfs_hal/common/mss_plic.h ****     {
 648:/home/vinay/Desktop/softconsole_watershed/Water-shed/src/platform/mpfs_hal/common/mss_plic.h ****         case 0:
 649:/home/vinay/Desktop/softconsole_watershed/Water-shed/src/platform/mpfs_hal/common/mss_plic.h ****             current  = PLIC->HART0_MMODE_ENA[IRQn / 32U];
  60              		.loc 1 649 13
  61              		.loc 1 649 22 is_stmt 0
  62 0026 3727000C 		li	a4,201334784
  63 002a BA97     		add	a5,a5,a4
  64 002c 9843     		lw	a4,0(a5)
  65              	.LVL5:
 650:/home/vinay/Desktop/softconsole_watershed/Water-shed/src/platform/mpfs_hal/common/mss_plic.h ****             current |= (uint32_t)1 << (IRQn % 32U);
  66              		.loc 1 650 13 is_stmt 1
  67              		.loc 1 650 36 is_stmt 0
  68 002e 8546     		li	a3,1
  69 0030 3B95A600 		sllw	a0,a3,a0
  70              		.loc 1 650 21
  71 0034 598D     		or	a0,a4,a0
  72 0036 0125     		sext.w	a0,a0
  73              	.LVL6:
 651:/home/vinay/Desktop/softconsole_watershed/Water-shed/src/platform/mpfs_hal/common/mss_plic.h ****             PLIC->HART0_MMODE_ENA[IRQn / 32U]  = current;
  74              		.loc 1 651 13 is_stmt 1
  75              		.loc 1 651 48 is_stmt 0
  76 0038 88C3     		sw	a0,0(a5)
 652:/home/vinay/Desktop/softconsole_watershed/Water-shed/src/platform/mpfs_hal/common/mss_plic.h ****             break;
  77              		.loc 1 652 13 is_stmt 1
  78 003a 8280     		ret
  79              	.LVL7:
  80              	.L7:
  81              	.LBE10:
  82              	.LBE9:
 653:/home/vinay/Desktop/softconsole_watershed/Water-shed/src/platform/mpfs_hal/common/mss_plic.h ****         case 1:
 654:/home/vinay/Desktop/softconsole_watershed/Water-shed/src/platform/mpfs_hal/common/mss_plic.h ****             current  = PLIC->HART1_MMODE_ENA[IRQn / 32U];
  83              		.loc 1 654 13
  84              		.loc 1 654 22 is_stmt 0
  85 003c 3727000C 		li	a4,201334784
  86 0040 BA97     		add	a5,a5,a4
  87 0042 03A70708 		lw	a4,128(a5)
  88              	.LVL8:
 655:/home/vinay/Desktop/softconsole_watershed/Water-shed/src/platform/mpfs_hal/common/mss_plic.h ****             current |= (uint32_t)1 << (IRQn % 32U);
  89              		.loc 1 655 13 is_stmt 1
  90              		.loc 1 655 36 is_stmt 0
  91 0046 8546     		li	a3,1
  92 0048 3B95A600 		sllw	a0,a3,a0
  93              		.loc 1 655 21
  94 004c 598D     		or	a0,a4,a0
  95 004e 0125     		sext.w	a0,a0
  96              	.LVL9:
 656:/home/vinay/Desktop/softconsole_watershed/Water-shed/src/platform/mpfs_hal/common/mss_plic.h ****             PLIC->HART1_MMODE_ENA[IRQn / 32U]  = current;
  97              		.loc 1 656 13 is_stmt 1
  98              		.loc 1 656 48 is_stmt 0
  99 0050 23A0A708 		sw	a0,128(a5)
 657:/home/vinay/Desktop/softconsole_watershed/Water-shed/src/platform/mpfs_hal/common/mss_plic.h ****             break;
 100              		.loc 1 657 13 is_stmt 1
 101 0054 8280     		ret
 102              	.LVL10:
 103              	.L6:
 658:/home/vinay/Desktop/softconsole_watershed/Water-shed/src/platform/mpfs_hal/common/mss_plic.h ****         case 2:
 659:/home/vinay/Desktop/softconsole_watershed/Water-shed/src/platform/mpfs_hal/common/mss_plic.h ****             current  = PLIC->HART2_MMODE_ENA[IRQn / 32U];
 104              		.loc 1 659 13
 105              		.loc 1 659 22 is_stmt 0
 106 0056 3727000C 		li	a4,201334784
 107 005a BA97     		add	a5,a5,a4
 108 005c 03A70718 		lw	a4,384(a5)
 109              	.LVL11:
 660:/home/vinay/Desktop/softconsole_watershed/Water-shed/src/platform/mpfs_hal/common/mss_plic.h ****             current |= (uint32_t)1 << (IRQn % 32U);
 110              		.loc 1 660 13 is_stmt 1
 111              		.loc 1 660 36 is_stmt 0
 112 0060 8546     		li	a3,1
 113 0062 3B95A600 		sllw	a0,a3,a0
 114              		.loc 1 660 21
 115 0066 598D     		or	a0,a4,a0
 116 0068 0125     		sext.w	a0,a0
 117              	.LVL12:
 661:/home/vinay/Desktop/softconsole_watershed/Water-shed/src/platform/mpfs_hal/common/mss_plic.h ****             PLIC->HART2_MMODE_ENA[IRQn / 32U]  = current;
 118              		.loc 1 661 13 is_stmt 1
 119              		.loc 1 661 48 is_stmt 0
 120 006a 23A0A718 		sw	a0,384(a5)
 662:/home/vinay/Desktop/softconsole_watershed/Water-shed/src/platform/mpfs_hal/common/mss_plic.h ****             break;
 121              		.loc 1 662 13 is_stmt 1
 122 006e 8280     		ret
 123              	.LVL13:
 124              	.L5:
 663:/home/vinay/Desktop/softconsole_watershed/Water-shed/src/platform/mpfs_hal/common/mss_plic.h ****         case 3:
 664:/home/vinay/Desktop/softconsole_watershed/Water-shed/src/platform/mpfs_hal/common/mss_plic.h ****             current  = PLIC->HART3_MMODE_ENA[IRQn / 32U];
 125              		.loc 1 664 13
 126              		.loc 1 664 22 is_stmt 0
 127 0070 3727000C 		li	a4,201334784
 128 0074 BA97     		add	a5,a5,a4
 129 0076 03A70728 		lw	a4,640(a5)
 130              	.LVL14:
 665:/home/vinay/Desktop/softconsole_watershed/Water-shed/src/platform/mpfs_hal/common/mss_plic.h ****             current |= (uint32_t)1 << (IRQn % 32U);
 131              		.loc 1 665 13 is_stmt 1
 132              		.loc 1 665 36 is_stmt 0
 133 007a 8546     		li	a3,1
 134 007c 3B95A600 		sllw	a0,a3,a0
 135              		.loc 1 665 21
 136 0080 598D     		or	a0,a4,a0
 137 0082 0125     		sext.w	a0,a0
 138              	.LVL15:
 666:/home/vinay/Desktop/softconsole_watershed/Water-shed/src/platform/mpfs_hal/common/mss_plic.h ****             PLIC->HART3_MMODE_ENA[IRQn / 32U]  = current;
 139              		.loc 1 666 13 is_stmt 1
 140              		.loc 1 666 48 is_stmt 0
 141 0084 23A0A728 		sw	a0,640(a5)
 667:/home/vinay/Desktop/softconsole_watershed/Water-shed/src/platform/mpfs_hal/common/mss_plic.h ****             break;
 142              		.loc 1 667 13 is_stmt 1
 143 0088 8280     		ret
 144              	.LVL16:
 145              	.L3:
 668:/home/vinay/Desktop/softconsole_watershed/Water-shed/src/platform/mpfs_hal/common/mss_plic.h ****         case 4:
 669:/home/vinay/Desktop/softconsole_watershed/Water-shed/src/platform/mpfs_hal/common/mss_plic.h ****             current  = PLIC->HART4_MMODE_ENA[IRQn / 32U];
 146              		.loc 1 669 13
 147              		.loc 1 669 22 is_stmt 0
 148 008a 3727000C 		li	a4,201334784
 149 008e BA97     		add	a5,a5,a4
 150 0090 03A70738 		lw	a4,896(a5)
 151              	.LVL17:
 670:/home/vinay/Desktop/softconsole_watershed/Water-shed/src/platform/mpfs_hal/common/mss_plic.h ****             current |= (uint32_t)1 << (IRQn % 32U);
 152              		.loc 1 670 13 is_stmt 1
 153              		.loc 1 670 36 is_stmt 0
 154 0094 8546     		li	a3,1
 155 0096 3B95A600 		sllw	a0,a3,a0
 156              		.loc 1 670 21
 157 009a 598D     		or	a0,a4,a0
 158 009c 0125     		sext.w	a0,a0
 159              	.LVL18:
 671:/home/vinay/Desktop/softconsole_watershed/Water-shed/src/platform/mpfs_hal/common/mss_plic.h ****             PLIC->HART4_MMODE_ENA[IRQn / 32U]  = current;
 160              		.loc 1 671 13 is_stmt 1
 161              		.loc 1 671 48 is_stmt 0
 162 009e 23A0A738 		sw	a0,896(a5)
 672:/home/vinay/Desktop/softconsole_watershed/Water-shed/src/platform/mpfs_hal/common/mss_plic.h ****             break;
 163              		.loc 1 672 13 is_stmt 1
 164              	.LVL19:
 165              	.L1:
 673:/home/vinay/Desktop/softconsole_watershed/Water-shed/src/platform/mpfs_hal/common/mss_plic.h ****         default:
 674:/home/vinay/Desktop/softconsole_watershed/Water-shed/src/platform/mpfs_hal/common/mss_plic.h ****             break;
 675:/home/vinay/Desktop/softconsole_watershed/Water-shed/src/platform/mpfs_hal/common/mss_plic.h ****     }
 676:/home/vinay/Desktop/softconsole_watershed/Water-shed/src/platform/mpfs_hal/common/mss_plic.h **** }
 166              		.loc 1 676 1 is_stmt 0
 167 00a2 8280     		ret
 168              		.cfi_endproc
 169              	.LFE7:
 171              		.section	.text.PLIC_DisableIRQ,"ax",@progbits
 172              		.align	1
 174              	PLIC_DisableIRQ:
 175              	.LFB8:
 677:/home/vinay/Desktop/softconsole_watershed/Water-shed/src/platform/mpfs_hal/common/mss_plic.h **** 
 678:/home/vinay/Desktop/softconsole_watershed/Water-shed/src/platform/mpfs_hal/common/mss_plic.h **** /***************************************************************************//**
 679:/home/vinay/Desktop/softconsole_watershed/Water-shed/src/platform/mpfs_hal/common/mss_plic.h ****  * The function PLIC_DisableIRQ() disables the external interrupt for the
 680:/home/vinay/Desktop/softconsole_watershed/Water-shed/src/platform/mpfs_hal/common/mss_plic.h ****  * interrupt number indicated by the parameter IRQn.
 681:/home/vinay/Desktop/softconsole_watershed/Water-shed/src/platform/mpfs_hal/common/mss_plic.h **** 
 682:/home/vinay/Desktop/softconsole_watershed/Water-shed/src/platform/mpfs_hal/common/mss_plic.h ****  * NOTE:
 683:/home/vinay/Desktop/softconsole_watershed/Water-shed/src/platform/mpfs_hal/common/mss_plic.h ****  *     This function can be used to disable the external interrupt from outside
 684:/home/vinay/Desktop/softconsole_watershed/Water-shed/src/platform/mpfs_hal/common/mss_plic.h ****  *     external interrupt handler function.
 685:/home/vinay/Desktop/softconsole_watershed/Water-shed/src/platform/mpfs_hal/common/mss_plic.h ****  *     This function MUST NOT be used from within the External Interrupt
 686:/home/vinay/Desktop/softconsole_watershed/Water-shed/src/platform/mpfs_hal/common/mss_plic.h ****  *     handler.
 687:/home/vinay/Desktop/softconsole_watershed/Water-shed/src/platform/mpfs_hal/common/mss_plic.h ****  *     If you wish to disable the external interrupt while the interrupt handler
 688:/home/vinay/Desktop/softconsole_watershed/Water-shed/src/platform/mpfs_hal/common/mss_plic.h ****  *     for that external interrupt is executing then you must use the return
 689:/home/vinay/Desktop/softconsole_watershed/Water-shed/src/platform/mpfs_hal/common/mss_plic.h ****  *     value EXT_IRQ_DISABLE to return from the extern interrupt handler.
 690:/home/vinay/Desktop/softconsole_watershed/Water-shed/src/platform/mpfs_hal/common/mss_plic.h ****  */
 691:/home/vinay/Desktop/softconsole_watershed/Water-shed/src/platform/mpfs_hal/common/mss_plic.h **** static inline void PLIC_DisableIRQ(PLIC_IRQn_Type IRQn)
 692:/home/vinay/Desktop/softconsole_watershed/Water-shed/src/platform/mpfs_hal/common/mss_plic.h **** {
 176              		.loc 1 692 1 is_stmt 1
 177              		.cfi_startproc
 178              	.LVL20:
 693:/home/vinay/Desktop/softconsole_watershed/Water-shed/src/platform/mpfs_hal/common/mss_plic.h ****     uint32_t current;
 179              		.loc 1 693 5
 694:/home/vinay/Desktop/softconsole_watershed/Water-shed/src/platform/mpfs_hal/common/mss_plic.h ****     uint64_t hart_id  = read_csr(mhartid);
 180              		.loc 1 694 5
 181              	.LBB15:
 182              		.loc 1 694 25
 183              		.loc 1 694 25
 184              	 #APP
 185              	# 694 "/home/vinay/Desktop/softconsole_watershed/Water-shed/src/platform/mpfs_hal/common/mss_plic.h
 695              	
 186              		csrr a5, mhartid
 187              	# 0 "" 2
 188              	.LVL21:
 694:/home/vinay/Desktop/softconsole_watershed/Water-shed/src/platform/mpfs_hal/common/mss_plic.h ****     uint64_t hart_id  = read_csr(mhartid);
 189              		.loc 1 694 25
 190              	 #NO_APP
 191              	.LBE15:
 696:/home/vinay/Desktop/softconsole_watershed/Water-shed/src/platform/mpfs_hal/common/mss_plic.h ****     switch(hart_id)
 192              		.loc 1 696 5
 193 0004 1147     		li	a4,4
 194 0006 636CF708 		bgtu	a5,a4,.L9
 195 000a 17070000 		lla	a4,.L12
 195      13070700 
 196 0012 8A07     		slli	a5,a5,2
 197              	.LVL22:
 198 0014 BA97     		add	a5,a5,a4
 199 0016 9443     		lw	a3,0(a5)
 200 0018 9B575500 		srliw	a5,a0,5
 201 001c 8217     		slli	a5,a5,32
 202 001e BA96     		add	a3,a3,a4
 203 0020 F983     		srli	a5,a5,30
 697:/home/vinay/Desktop/softconsole_watershed/Water-shed/src/platform/mpfs_hal/common/mss_plic.h ****     {
 698:/home/vinay/Desktop/softconsole_watershed/Water-shed/src/platform/mpfs_hal/common/mss_plic.h ****         case 0:
 699:/home/vinay/Desktop/softconsole_watershed/Water-shed/src/platform/mpfs_hal/common/mss_plic.h ****             current = PLIC->HART0_MMODE_ENA[IRQn / 32U];
 700:/home/vinay/Desktop/softconsole_watershed/Water-shed/src/platform/mpfs_hal/common/mss_plic.h ****             current &= ~((uint32_t)1 << (IRQn % 32U));
 701:/home/vinay/Desktop/softconsole_watershed/Water-shed/src/platform/mpfs_hal/common/mss_plic.h ****             PLIC->HART0_MMODE_ENA[IRQn / 32U] = current;
 702:/home/vinay/Desktop/softconsole_watershed/Water-shed/src/platform/mpfs_hal/common/mss_plic.h ****             break;
 703:/home/vinay/Desktop/softconsole_watershed/Water-shed/src/platform/mpfs_hal/common/mss_plic.h ****         case 1:
 704:/home/vinay/Desktop/softconsole_watershed/Water-shed/src/platform/mpfs_hal/common/mss_plic.h ****             current = PLIC->HART1_MMODE_ENA[IRQn / 32U];
 705:/home/vinay/Desktop/softconsole_watershed/Water-shed/src/platform/mpfs_hal/common/mss_plic.h ****             current &= ~((uint32_t)1 << (IRQn % 32U));
 706:/home/vinay/Desktop/softconsole_watershed/Water-shed/src/platform/mpfs_hal/common/mss_plic.h ****             PLIC->HART1_MMODE_ENA[IRQn / 32U] = current;
 707:/home/vinay/Desktop/softconsole_watershed/Water-shed/src/platform/mpfs_hal/common/mss_plic.h ****             break;
 708:/home/vinay/Desktop/softconsole_watershed/Water-shed/src/platform/mpfs_hal/common/mss_plic.h ****         case 2:
 709:/home/vinay/Desktop/softconsole_watershed/Water-shed/src/platform/mpfs_hal/common/mss_plic.h ****             current = PLIC->HART2_MMODE_ENA[IRQn / 32U];
 710:/home/vinay/Desktop/softconsole_watershed/Water-shed/src/platform/mpfs_hal/common/mss_plic.h ****             current &= ~((uint32_t)1 << (IRQn % 32U));
 711:/home/vinay/Desktop/softconsole_watershed/Water-shed/src/platform/mpfs_hal/common/mss_plic.h ****             PLIC->HART2_MMODE_ENA[IRQn / 32U] = current;
 712:/home/vinay/Desktop/softconsole_watershed/Water-shed/src/platform/mpfs_hal/common/mss_plic.h ****             break;
 713:/home/vinay/Desktop/softconsole_watershed/Water-shed/src/platform/mpfs_hal/common/mss_plic.h ****         case 3:
 714:/home/vinay/Desktop/softconsole_watershed/Water-shed/src/platform/mpfs_hal/common/mss_plic.h ****             current = PLIC->HART3_MMODE_ENA[IRQn / 32U];
 715:/home/vinay/Desktop/softconsole_watershed/Water-shed/src/platform/mpfs_hal/common/mss_plic.h ****             current &= ~((uint32_t)1 << (IRQn % 32U));
 716:/home/vinay/Desktop/softconsole_watershed/Water-shed/src/platform/mpfs_hal/common/mss_plic.h ****             PLIC->HART3_MMODE_ENA[IRQn / 32U] = current;
 717:/home/vinay/Desktop/softconsole_watershed/Water-shed/src/platform/mpfs_hal/common/mss_plic.h ****             break;
 718:/home/vinay/Desktop/softconsole_watershed/Water-shed/src/platform/mpfs_hal/common/mss_plic.h ****         case 4:
 719:/home/vinay/Desktop/softconsole_watershed/Water-shed/src/platform/mpfs_hal/common/mss_plic.h ****             current = PLIC->HART4_MMODE_ENA[IRQn / 32U];
 204              		.loc 1 719 21 is_stmt 0
 205 0022 3727000C 		li	a4,201334784
 206 0026 7D89     		andi	a0,a0,31
 207              	.LVL23:
 208 0028 BA97     		add	a5,a5,a4
 696:/home/vinay/Desktop/softconsole_watershed/Water-shed/src/platform/mpfs_hal/common/mss_plic.h ****     switch(hart_id)
 209              		.loc 1 696 5
 210 002a 8286     		jr	a3
 211              		.section	.rodata.PLIC_DisableIRQ,"a",@progbits
 212              		.align	2
 213              		.align	2
 214              	.L12:
 215 0000 00000000 		.word	.L16-.L12
 216 0004 00000000 		.word	.L15-.L12
 217 0008 00000000 		.word	.L14-.L12
 218 000c 00000000 		.word	.L13-.L12
 219 0010 00000000 		.word	.L11-.L12
 220              		.section	.text.PLIC_DisableIRQ
 221              	.L16:
 222              	.LVL24:
 223              	.LBB16:
 224              	.LBB17:
 699:/home/vinay/Desktop/softconsole_watershed/Water-shed/src/platform/mpfs_hal/common/mss_plic.h ****             current &= ~((uint32_t)1 << (IRQn % 32U));
 225              		.loc 1 699 13 is_stmt 1
 699:/home/vinay/Desktop/softconsole_watershed/Water-shed/src/platform/mpfs_hal/common/mss_plic.h ****             current &= ~((uint32_t)1 << (IRQn % 32U));
 226              		.loc 1 699 21 is_stmt 0
 227 002c 9043     		lw	a2,0(a5)
 228              	.LVL25:
 700:/home/vinay/Desktop/softconsole_watershed/Water-shed/src/platform/mpfs_hal/common/mss_plic.h ****             PLIC->HART0_MMODE_ENA[IRQn / 32U] = current;
 229              		.loc 1 700 13 is_stmt 1
 700:/home/vinay/Desktop/softconsole_watershed/Water-shed/src/platform/mpfs_hal/common/mss_plic.h ****             PLIC->HART0_MMODE_ENA[IRQn / 32U] = current;
 230              		.loc 1 700 38 is_stmt 0
 231 002e 8546     		li	a3,1
 232 0030 3B97A600 		sllw	a4,a3,a0
 700:/home/vinay/Desktop/softconsole_watershed/Water-shed/src/platform/mpfs_hal/common/mss_plic.h ****             PLIC->HART0_MMODE_ENA[IRQn / 32U] = current;
 233              		.loc 1 700 24
 234 0034 1347F7FF 		not	a4,a4
 700:/home/vinay/Desktop/softconsole_watershed/Water-shed/src/platform/mpfs_hal/common/mss_plic.h ****             PLIC->HART0_MMODE_ENA[IRQn / 32U] = current;
 235              		.loc 1 700 21
 236 0038 718F     		and	a4,a4,a2
 237 003a 0127     		sext.w	a4,a4
 238              	.LVL26:
 701:/home/vinay/Desktop/softconsole_watershed/Water-shed/src/platform/mpfs_hal/common/mss_plic.h ****             break;
 239              		.loc 1 701 13 is_stmt 1
 701:/home/vinay/Desktop/softconsole_watershed/Water-shed/src/platform/mpfs_hal/common/mss_plic.h ****             break;
 240              		.loc 1 701 47 is_stmt 0
 241 003c 98C3     		sw	a4,0(a5)
 702:/home/vinay/Desktop/softconsole_watershed/Water-shed/src/platform/mpfs_hal/common/mss_plic.h ****         case 1:
 242              		.loc 1 702 13 is_stmt 1
 243 003e 8280     		ret
 244              	.LVL27:
 245              	.L15:
 246              	.LBE17:
 247              	.LBE16:
 704:/home/vinay/Desktop/softconsole_watershed/Water-shed/src/platform/mpfs_hal/common/mss_plic.h ****             current &= ~((uint32_t)1 << (IRQn % 32U));
 248              		.loc 1 704 13
 704:/home/vinay/Desktop/softconsole_watershed/Water-shed/src/platform/mpfs_hal/common/mss_plic.h ****             current &= ~((uint32_t)1 << (IRQn % 32U));
 249              		.loc 1 704 21 is_stmt 0
 250 0040 83A60708 		lw	a3,128(a5)
 251              	.LVL28:
 705:/home/vinay/Desktop/softconsole_watershed/Water-shed/src/platform/mpfs_hal/common/mss_plic.h ****             PLIC->HART1_MMODE_ENA[IRQn / 32U] = current;
 252              		.loc 1 705 13 is_stmt 1
 705:/home/vinay/Desktop/softconsole_watershed/Water-shed/src/platform/mpfs_hal/common/mss_plic.h ****             PLIC->HART1_MMODE_ENA[IRQn / 32U] = current;
 253              		.loc 1 705 38 is_stmt 0
 254 0044 0547     		li	a4,1
 255 0046 3B17A700 		sllw	a4,a4,a0
 705:/home/vinay/Desktop/softconsole_watershed/Water-shed/src/platform/mpfs_hal/common/mss_plic.h ****             PLIC->HART1_MMODE_ENA[IRQn / 32U] = current;
 256              		.loc 1 705 24
 257 004a 1347F7FF 		not	a4,a4
 705:/home/vinay/Desktop/softconsole_watershed/Water-shed/src/platform/mpfs_hal/common/mss_plic.h ****             PLIC->HART1_MMODE_ENA[IRQn / 32U] = current;
 258              		.loc 1 705 21
 259 004e 758F     		and	a4,a4,a3
 260 0050 0127     		sext.w	a4,a4
 261              	.LVL29:
 706:/home/vinay/Desktop/softconsole_watershed/Water-shed/src/platform/mpfs_hal/common/mss_plic.h ****             break;
 262              		.loc 1 706 13 is_stmt 1
 706:/home/vinay/Desktop/softconsole_watershed/Water-shed/src/platform/mpfs_hal/common/mss_plic.h ****             break;
 263              		.loc 1 706 47 is_stmt 0
 264 0052 23A0E708 		sw	a4,128(a5)
 707:/home/vinay/Desktop/softconsole_watershed/Water-shed/src/platform/mpfs_hal/common/mss_plic.h ****         case 2:
 265              		.loc 1 707 13 is_stmt 1
 266 0056 8280     		ret
 267              	.LVL30:
 268              	.L14:
 709:/home/vinay/Desktop/softconsole_watershed/Water-shed/src/platform/mpfs_hal/common/mss_plic.h ****             current &= ~((uint32_t)1 << (IRQn % 32U));
 269              		.loc 1 709 13
 709:/home/vinay/Desktop/softconsole_watershed/Water-shed/src/platform/mpfs_hal/common/mss_plic.h ****             current &= ~((uint32_t)1 << (IRQn % 32U));
 270              		.loc 1 709 21 is_stmt 0
 271 0058 83A60718 		lw	a3,384(a5)
 272              	.LVL31:
 710:/home/vinay/Desktop/softconsole_watershed/Water-shed/src/platform/mpfs_hal/common/mss_plic.h ****             PLIC->HART2_MMODE_ENA[IRQn / 32U] = current;
 273              		.loc 1 710 13 is_stmt 1
 710:/home/vinay/Desktop/softconsole_watershed/Water-shed/src/platform/mpfs_hal/common/mss_plic.h ****             PLIC->HART2_MMODE_ENA[IRQn / 32U] = current;
 274              		.loc 1 710 38 is_stmt 0
 275 005c 0547     		li	a4,1
 276 005e 3B17A700 		sllw	a4,a4,a0
 710:/home/vinay/Desktop/softconsole_watershed/Water-shed/src/platform/mpfs_hal/common/mss_plic.h ****             PLIC->HART2_MMODE_ENA[IRQn / 32U] = current;
 277              		.loc 1 710 24
 278 0062 1347F7FF 		not	a4,a4
 710:/home/vinay/Desktop/softconsole_watershed/Water-shed/src/platform/mpfs_hal/common/mss_plic.h ****             PLIC->HART2_MMODE_ENA[IRQn / 32U] = current;
 279              		.loc 1 710 21
 280 0066 758F     		and	a4,a4,a3
 281 0068 0127     		sext.w	a4,a4
 282              	.LVL32:
 711:/home/vinay/Desktop/softconsole_watershed/Water-shed/src/platform/mpfs_hal/common/mss_plic.h ****             break;
 283              		.loc 1 711 13 is_stmt 1
 711:/home/vinay/Desktop/softconsole_watershed/Water-shed/src/platform/mpfs_hal/common/mss_plic.h ****             break;
 284              		.loc 1 711 47 is_stmt 0
 285 006a 23A0E718 		sw	a4,384(a5)
 712:/home/vinay/Desktop/softconsole_watershed/Water-shed/src/platform/mpfs_hal/common/mss_plic.h ****         case 3:
 286              		.loc 1 712 13 is_stmt 1
 287 006e 8280     		ret
 288              	.LVL33:
 289              	.L13:
 714:/home/vinay/Desktop/softconsole_watershed/Water-shed/src/platform/mpfs_hal/common/mss_plic.h ****             current &= ~((uint32_t)1 << (IRQn % 32U));
 290              		.loc 1 714 13
 714:/home/vinay/Desktop/softconsole_watershed/Water-shed/src/platform/mpfs_hal/common/mss_plic.h ****             current &= ~((uint32_t)1 << (IRQn % 32U));
 291              		.loc 1 714 21 is_stmt 0
 292 0070 83A60728 		lw	a3,640(a5)
 293              	.LVL34:
 715:/home/vinay/Desktop/softconsole_watershed/Water-shed/src/platform/mpfs_hal/common/mss_plic.h ****             PLIC->HART3_MMODE_ENA[IRQn / 32U] = current;
 294              		.loc 1 715 13 is_stmt 1
 715:/home/vinay/Desktop/softconsole_watershed/Water-shed/src/platform/mpfs_hal/common/mss_plic.h ****             PLIC->HART3_MMODE_ENA[IRQn / 32U] = current;
 295              		.loc 1 715 38 is_stmt 0
 296 0074 0547     		li	a4,1
 297 0076 3B17A700 		sllw	a4,a4,a0
 715:/home/vinay/Desktop/softconsole_watershed/Water-shed/src/platform/mpfs_hal/common/mss_plic.h ****             PLIC->HART3_MMODE_ENA[IRQn / 32U] = current;
 298              		.loc 1 715 24
 299 007a 1347F7FF 		not	a4,a4
 715:/home/vinay/Desktop/softconsole_watershed/Water-shed/src/platform/mpfs_hal/common/mss_plic.h ****             PLIC->HART3_MMODE_ENA[IRQn / 32U] = current;
 300              		.loc 1 715 21
 301 007e 758F     		and	a4,a4,a3
 302 0080 0127     		sext.w	a4,a4
 303              	.LVL35:
 716:/home/vinay/Desktop/softconsole_watershed/Water-shed/src/platform/mpfs_hal/common/mss_plic.h ****             break;
 304              		.loc 1 716 13 is_stmt 1
 716:/home/vinay/Desktop/softconsole_watershed/Water-shed/src/platform/mpfs_hal/common/mss_plic.h ****             break;
 305              		.loc 1 716 47 is_stmt 0
 306 0082 23A0E728 		sw	a4,640(a5)
 717:/home/vinay/Desktop/softconsole_watershed/Water-shed/src/platform/mpfs_hal/common/mss_plic.h ****         case 4:
 307              		.loc 1 717 13 is_stmt 1
 308 0086 8280     		ret
 309              	.LVL36:
 310              	.L11:
 311              		.loc 1 719 13
 312              		.loc 1 719 21 is_stmt 0
 313 0088 83A60738 		lw	a3,896(a5)
 314              	.LVL37:
 720:/home/vinay/Desktop/softconsole_watershed/Water-shed/src/platform/mpfs_hal/common/mss_plic.h ****             current &= ~((uint32_t)1 << (IRQn % 32U));
 315              		.loc 1 720 13 is_stmt 1
 316              		.loc 1 720 38 is_stmt 0
 317 008c 0547     		li	a4,1
 318 008e 3B17A700 		sllw	a4,a4,a0
 319              		.loc 1 720 24
 320 0092 1347F7FF 		not	a4,a4
 321              		.loc 1 720 21
 322 0096 758F     		and	a4,a4,a3
 323 0098 0127     		sext.w	a4,a4
 324              	.LVL38:
 721:/home/vinay/Desktop/softconsole_watershed/Water-shed/src/platform/mpfs_hal/common/mss_plic.h ****             PLIC->HART4_MMODE_ENA[IRQn / 32U] = current;
 325              		.loc 1 721 13 is_stmt 1
 326              		.loc 1 721 47 is_stmt 0
 327 009a 23A0E738 		sw	a4,896(a5)
 722:/home/vinay/Desktop/softconsole_watershed/Water-shed/src/platform/mpfs_hal/common/mss_plic.h ****             break;
 328              		.loc 1 722 13 is_stmt 1
 329              	.LVL39:
 330              	.L9:
 723:/home/vinay/Desktop/softconsole_watershed/Water-shed/src/platform/mpfs_hal/common/mss_plic.h ****         default:
 724:/home/vinay/Desktop/softconsole_watershed/Water-shed/src/platform/mpfs_hal/common/mss_plic.h ****             break;
 725:/home/vinay/Desktop/softconsole_watershed/Water-shed/src/platform/mpfs_hal/common/mss_plic.h ****     }
 726:/home/vinay/Desktop/softconsole_watershed/Water-shed/src/platform/mpfs_hal/common/mss_plic.h **** }
 331              		.loc 1 726 1 is_stmt 0
 332 009e 8280     		ret
 333              		.cfi_endproc
 334              	.LFE8:
 336              		.section	.text.gpio_number_validate,"ax",@progbits
 337              		.align	1
 339              	gpio_number_validate:
 340              	.LFB34:
 341              		.file 2 "../src/platform/drivers/mss/mss_gpio/mss_gpio.c"
   1:../src/platform/drivers/mss/mss_gpio/mss_gpio.c **** /*******************************************************************************
   2:../src/platform/drivers/mss/mss_gpio/mss_gpio.c ****  * Copyright 2019-2020 Microchip FPGA Embedded Systems Solutions.
   3:../src/platform/drivers/mss/mss_gpio/mss_gpio.c ****  *
   4:../src/platform/drivers/mss/mss_gpio/mss_gpio.c ****  * SPDX-License-Identifier: MIT
   5:../src/platform/drivers/mss/mss_gpio/mss_gpio.c ****  * 
   6:../src/platform/drivers/mss/mss_gpio/mss_gpio.c ****  * PolarFire SoC microprocessor subsystem GPIO bare metal driver implementation.
   7:../src/platform/drivers/mss/mss_gpio/mss_gpio.c ****  *
   8:../src/platform/drivers/mss/mss_gpio/mss_gpio.c ****  * This driver is based on SmartFusion2 MSS GPIO driver v2.1.102
   9:../src/platform/drivers/mss/mss_gpio/mss_gpio.c ****  *
  10:../src/platform/drivers/mss/mss_gpio/mss_gpio.c ****  */
  11:../src/platform/drivers/mss/mss_gpio/mss_gpio.c **** 
  12:../src/platform/drivers/mss/mss_gpio/mss_gpio.c **** #include "mpfs_hal/mss_hal.h"
  13:../src/platform/drivers/mss/mss_gpio/mss_gpio.c **** #include "mss_gpio.h"
  14:../src/platform/drivers/mss/mss_gpio/mss_gpio.c **** 
  15:../src/platform/drivers/mss/mss_gpio/mss_gpio.c **** #ifdef __cplusplus
  16:../src/platform/drivers/mss/mss_gpio/mss_gpio.c **** extern "C" {
  17:../src/platform/drivers/mss/mss_gpio/mss_gpio.c **** #endif 
  18:../src/platform/drivers/mss/mss_gpio/mss_gpio.c **** 
  19:../src/platform/drivers/mss/mss_gpio/mss_gpio.c **** /*-------------------------------------------------------------------------*//**
  20:../src/platform/drivers/mss/mss_gpio/mss_gpio.c ****  * Defines.
  21:../src/platform/drivers/mss/mss_gpio/mss_gpio.c ****  */
  22:../src/platform/drivers/mss/mss_gpio/mss_gpio.c **** #define GPIO_INT_ENABLE_MASK                ((uint32_t)0x00000008)
  23:../src/platform/drivers/mss/mss_gpio/mss_gpio.c **** #define OUTPUT_BUFFER_ENABLE_MASK           ((uint32_t)0x00000004)
  24:../src/platform/drivers/mss/mss_gpio/mss_gpio.c **** 
  25:../src/platform/drivers/mss/mss_gpio/mss_gpio.c **** /*These constants define the number of GPIO bits available on each GPIO
  26:../src/platform/drivers/mss/mss_gpio/mss_gpio.c ****  * hardware block*/
  27:../src/platform/drivers/mss/mss_gpio/mss_gpio.c **** #define NB_OF_GPIO_GPIO0                    ((uint32_t)14)
  28:../src/platform/drivers/mss/mss_gpio/mss_gpio.c **** #define NB_OF_GPIO_GPIO1                    ((uint32_t)24)
  29:../src/platform/drivers/mss/mss_gpio/mss_gpio.c **** #define NB_OF_GPIO_GPIO2                    ((uint32_t)32)
  30:../src/platform/drivers/mss/mss_gpio/mss_gpio.c **** 
  31:../src/platform/drivers/mss/mss_gpio/mss_gpio.c **** /*This constant indicates the total number of GPIO interrupt inputs at the PLIC
  32:../src/platform/drivers/mss/mss_gpio/mss_gpio.c ****  * (includes the direct and non-direct GPIO interrupts)*/
  33:../src/platform/drivers/mss/mss_gpio/mss_gpio.c **** #define NB_OF_GPIO_INTR                     ((uint32_t)41)
  34:../src/platform/drivers/mss/mss_gpio/mss_gpio.c **** 
  35:../src/platform/drivers/mss/mss_gpio/mss_gpio.c **** /*-------------------------------------------------------------------------*//**
  36:../src/platform/drivers/mss/mss_gpio/mss_gpio.c ****  * Lookup table of GPIO interrupt number indexed on GPIO ID.
  37:../src/platform/drivers/mss/mss_gpio/mss_gpio.c ****  * The GPIO interrupts are multiplexed. Total GPIO interrupts are 41.
  38:../src/platform/drivers/mss/mss_gpio/mss_gpio.c ****  * 41 = (14 from GPIO0 + 24 from GPIO1 + 3 non direct interrupts)
  39:../src/platform/drivers/mss/mss_gpio/mss_gpio.c ****  * GPIO2 interrupts are not available by default. Setting the corresponding bit
  40:../src/platform/drivers/mss/mss_gpio/mss_gpio.c ****  * in GPIO_INTERRUPT_FAB_CR(31:0) will enable GPIO2(31:0) corresponding
  41:../src/platform/drivers/mss/mss_gpio/mss_gpio.c ****  * interrupt on PLIC.
  42:../src/platform/drivers/mss/mss_gpio/mss_gpio.c ****  *
  43:../src/platform/drivers/mss/mss_gpio/mss_gpio.c ****  * PLIC       GPIO_INTERRUPT_FAB_CR
  44:../src/platform/drivers/mss/mss_gpio/mss_gpio.c ****                 0               1
  45:../src/platform/drivers/mss/mss_gpio/mss_gpio.c ****     0       GPIO0 bit 0     GPIO2 bit 0
  46:../src/platform/drivers/mss/mss_gpio/mss_gpio.c ****     1       GPIO0 bit 1     GPIO2 bit 1
  47:../src/platform/drivers/mss/mss_gpio/mss_gpio.c ****     .
  48:../src/platform/drivers/mss/mss_gpio/mss_gpio.c ****     .
  49:../src/platform/drivers/mss/mss_gpio/mss_gpio.c ****     12      GPIO0 bit 12    GPIO2 bit 12
  50:../src/platform/drivers/mss/mss_gpio/mss_gpio.c ****     13      GPIO0 bit 13    GPIO2 bit 13
  51:../src/platform/drivers/mss/mss_gpio/mss_gpio.c ****     14      GPIO1 bit 0     GPIO2 bit 14
  52:../src/platform/drivers/mss/mss_gpio/mss_gpio.c ****     15      GPIO1 bit 1     GPIO2 bit 15
  53:../src/platform/drivers/mss/mss_gpio/mss_gpio.c ****     .
  54:../src/platform/drivers/mss/mss_gpio/mss_gpio.c ****     .
  55:../src/platform/drivers/mss/mss_gpio/mss_gpio.c ****     .
  56:../src/platform/drivers/mss/mss_gpio/mss_gpio.c ****     30      GPIO1 bit 16    GPIO2 bit 30
  57:../src/platform/drivers/mss/mss_gpio/mss_gpio.c ****     31      GPIO1 bit 17    GPIO2 bit 31
  58:../src/platform/drivers/mss/mss_gpio/mss_gpio.c ****     32          GPIO1 bit 18
  59:../src/platform/drivers/mss/mss_gpio/mss_gpio.c ****     33          GPIO1 bit 19
  60:../src/platform/drivers/mss/mss_gpio/mss_gpio.c ****     34          GPIO1 bit 20
  61:../src/platform/drivers/mss/mss_gpio/mss_gpio.c ****     35          GPIO1 bit 21
  62:../src/platform/drivers/mss/mss_gpio/mss_gpio.c ****     36          GPIO1 bit 22
  63:../src/platform/drivers/mss/mss_gpio/mss_gpio.c ****     37          GPIO1 bit 23
  64:../src/platform/drivers/mss/mss_gpio/mss_gpio.c ****     38  Or of all GPIO0 interrupts who do not have a direct connection enabled
  65:../src/platform/drivers/mss/mss_gpio/mss_gpio.c ****     39  Or of all GPIO1 interrupts who do not have a direct connection enabled
  66:../src/platform/drivers/mss/mss_gpio/mss_gpio.c ****     40  Or of all GPIO2 interrupts who do not have a direct connection enabled
  67:../src/platform/drivers/mss/mss_gpio/mss_gpio.c ****  *
  68:../src/platform/drivers/mss/mss_gpio/mss_gpio.c ****  */
  69:../src/platform/drivers/mss/mss_gpio/mss_gpio.c **** static const PLIC_IRQn_Type g_gpio_irqn_lut[NB_OF_GPIO_INTR] =
  70:../src/platform/drivers/mss/mss_gpio/mss_gpio.c **** {
  71:../src/platform/drivers/mss/mss_gpio/mss_gpio.c ****     GPIO0_BIT0_or_GPIO2_BIT0_PLIC_0,
  72:../src/platform/drivers/mss/mss_gpio/mss_gpio.c ****     GPIO0_BIT1_or_GPIO2_BIT1_PLIC_1,
  73:../src/platform/drivers/mss/mss_gpio/mss_gpio.c ****     GPIO0_BIT2_or_GPIO2_BIT2_PLIC_2,
  74:../src/platform/drivers/mss/mss_gpio/mss_gpio.c ****     GPIO0_BIT3_or_GPIO2_BIT3_PLIC_3,
  75:../src/platform/drivers/mss/mss_gpio/mss_gpio.c ****     GPIO0_BIT4_or_GPIO2_BIT4_PLIC_4,
  76:../src/platform/drivers/mss/mss_gpio/mss_gpio.c ****     GPIO0_BIT5_or_GPIO2_BIT5_PLIC_5,
  77:../src/platform/drivers/mss/mss_gpio/mss_gpio.c ****     GPIO0_BIT6_or_GPIO2_BIT6_PLIC_6,
  78:../src/platform/drivers/mss/mss_gpio/mss_gpio.c ****     GPIO0_BIT7_or_GPIO2_BIT7_PLIC_7,
  79:../src/platform/drivers/mss/mss_gpio/mss_gpio.c ****     GPIO0_BIT8_or_GPIO2_BIT8_PLIC_8,
  80:../src/platform/drivers/mss/mss_gpio/mss_gpio.c ****     GPIO0_BIT9_or_GPIO2_BIT9_PLIC_9,
  81:../src/platform/drivers/mss/mss_gpio/mss_gpio.c ****     GPIO0_BIT10_or_GPIO2_BIT10_PLIC_10,
  82:../src/platform/drivers/mss/mss_gpio/mss_gpio.c ****     GPIO0_BIT11_or_GPIO2_BIT11_PLIC_11,
  83:../src/platform/drivers/mss/mss_gpio/mss_gpio.c ****     GPIO0_BIT12_or_GPIO2_BIT12_PLIC_12,
  84:../src/platform/drivers/mss/mss_gpio/mss_gpio.c ****     GPIO0_BIT13_or_GPIO2_BIT13_PLIC_13,
  85:../src/platform/drivers/mss/mss_gpio/mss_gpio.c **** 
  86:../src/platform/drivers/mss/mss_gpio/mss_gpio.c ****     GPIO1_BIT0_or_GPIO2_BIT14_PLIC_14,
  87:../src/platform/drivers/mss/mss_gpio/mss_gpio.c ****     GPIO1_BIT1_or_GPIO2_BIT15_PLIC_15,
  88:../src/platform/drivers/mss/mss_gpio/mss_gpio.c ****     GPIO1_BIT2_or_GPIO2_BIT16_PLIC_16,
  89:../src/platform/drivers/mss/mss_gpio/mss_gpio.c ****     GPIO1_BIT3_or_GPIO2_BIT17_PLIC_17,
  90:../src/platform/drivers/mss/mss_gpio/mss_gpio.c ****     GPIO1_BIT4_or_GPIO2_BIT18_PLIC_18,
  91:../src/platform/drivers/mss/mss_gpio/mss_gpio.c ****     GPIO1_BIT5_or_GPIO2_BIT19_PLIC_19,
  92:../src/platform/drivers/mss/mss_gpio/mss_gpio.c ****     GPIO1_BIT6_or_GPIO2_BIT20_PLIC_20,
  93:../src/platform/drivers/mss/mss_gpio/mss_gpio.c ****     GPIO1_BIT7_or_GPIO2_BIT21_PLIC_21,
  94:../src/platform/drivers/mss/mss_gpio/mss_gpio.c ****     GPIO1_BIT8_or_GPIO2_BIT22_PLIC_22,
  95:../src/platform/drivers/mss/mss_gpio/mss_gpio.c ****     GPIO1_BIT9_or_GPIO2_BIT23_PLIC_23,
  96:../src/platform/drivers/mss/mss_gpio/mss_gpio.c ****     GPIO1_BIT10_or_GPIO2_BIT24_PLIC_24,
  97:../src/platform/drivers/mss/mss_gpio/mss_gpio.c ****     GPIO1_BIT11_or_GPIO2_BIT25_PLIC_25,
  98:../src/platform/drivers/mss/mss_gpio/mss_gpio.c ****     GPIO1_BIT12_or_GPIO2_BIT26_PLIC_26,
  99:../src/platform/drivers/mss/mss_gpio/mss_gpio.c ****     GPIO1_BIT13_or_GPIO2_BIT27_PLIC_27,
 100:../src/platform/drivers/mss/mss_gpio/mss_gpio.c ****     GPIO1_BIT14_or_GPIO2_BIT28_PLIC_28,
 101:../src/platform/drivers/mss/mss_gpio/mss_gpio.c ****     GPIO1_BIT15_or_GPIO2_BIT29_PLIC_29,
 102:../src/platform/drivers/mss/mss_gpio/mss_gpio.c ****     GPIO1_BIT16_or_GPIO2_BIT30_PLIC_30,
 103:../src/platform/drivers/mss/mss_gpio/mss_gpio.c ****     GPIO1_BIT17_or_GPIO2_BIT31_PLIC_31,
 104:../src/platform/drivers/mss/mss_gpio/mss_gpio.c **** 
 105:../src/platform/drivers/mss/mss_gpio/mss_gpio.c ****     GPIO1_BIT18_PLIC_32,
 106:../src/platform/drivers/mss/mss_gpio/mss_gpio.c ****     GPIO1_BIT19_PLIC_33,
 107:../src/platform/drivers/mss/mss_gpio/mss_gpio.c ****     GPIO1_BIT20_PLIC_34,
 108:../src/platform/drivers/mss/mss_gpio/mss_gpio.c ****     GPIO1_BIT21_PLIC_35,
 109:../src/platform/drivers/mss/mss_gpio/mss_gpio.c ****     GPIO1_BIT22_PLIC_36,
 110:../src/platform/drivers/mss/mss_gpio/mss_gpio.c ****     GPIO1_BIT23_PLIC_37,
 111:../src/platform/drivers/mss/mss_gpio/mss_gpio.c **** 
 112:../src/platform/drivers/mss/mss_gpio/mss_gpio.c ****     GPIO0_NON_DIRECT_PLIC,
 113:../src/platform/drivers/mss/mss_gpio/mss_gpio.c ****     GPIO1_NON_DIRECT_PLIC,
 114:../src/platform/drivers/mss/mss_gpio/mss_gpio.c ****     GPIO2_NON_DIRECT_PLIC
 115:../src/platform/drivers/mss/mss_gpio/mss_gpio.c **** };
 116:../src/platform/drivers/mss/mss_gpio/mss_gpio.c **** 
 117:../src/platform/drivers/mss/mss_gpio/mss_gpio.c **** /*-------------------------------------------------------------------------*//**
 118:../src/platform/drivers/mss/mss_gpio/mss_gpio.c ****  * Local functions
 119:../src/platform/drivers/mss/mss_gpio/mss_gpio.c ****  */
 120:../src/platform/drivers/mss/mss_gpio/mss_gpio.c **** static uint8_t gpio_number_validate(GPIO_TypeDef const * gpio, mss_gpio_id_t gpio_idx);
 121:../src/platform/drivers/mss/mss_gpio/mss_gpio.c **** 
 122:../src/platform/drivers/mss/mss_gpio/mss_gpio.c **** /*-------------------------------------------------------------------------*//**
 123:../src/platform/drivers/mss/mss_gpio/mss_gpio.c ****  * MSS_GPIO_init
 124:../src/platform/drivers/mss/mss_gpio/mss_gpio.c ****  * See "mss_gpio.h" for details of how to use this function.
 125:../src/platform/drivers/mss/mss_gpio/mss_gpio.c ****  */
 126:../src/platform/drivers/mss/mss_gpio/mss_gpio.c **** void
 127:../src/platform/drivers/mss/mss_gpio/mss_gpio.c **** MSS_GPIO_init
 128:../src/platform/drivers/mss/mss_gpio/mss_gpio.c **** (
 129:../src/platform/drivers/mss/mss_gpio/mss_gpio.c ****     GPIO_TypeDef * gpio
 130:../src/platform/drivers/mss/mss_gpio/mss_gpio.c **** )
 131:../src/platform/drivers/mss/mss_gpio/mss_gpio.c **** {
 132:../src/platform/drivers/mss/mss_gpio/mss_gpio.c ****     /* clear all pending interrupts*/
 133:../src/platform/drivers/mss/mss_gpio/mss_gpio.c ****     gpio->GPIO_IRQ = 0xFFFFFFFFU;
 134:../src/platform/drivers/mss/mss_gpio/mss_gpio.c **** }
 135:../src/platform/drivers/mss/mss_gpio/mss_gpio.c **** 
 136:../src/platform/drivers/mss/mss_gpio/mss_gpio.c **** /*-------------------------------------------------------------------------*//**
 137:../src/platform/drivers/mss/mss_gpio/mss_gpio.c ****  * MSS_GPIO_config
 138:../src/platform/drivers/mss/mss_gpio/mss_gpio.c ****  * See "mss_gpio.h" for details of how to use this function.
 139:../src/platform/drivers/mss/mss_gpio/mss_gpio.c ****  */
 140:../src/platform/drivers/mss/mss_gpio/mss_gpio.c **** void MSS_GPIO_config
 141:../src/platform/drivers/mss/mss_gpio/mss_gpio.c **** (
 142:../src/platform/drivers/mss/mss_gpio/mss_gpio.c ****     GPIO_TypeDef * gpio,
 143:../src/platform/drivers/mss/mss_gpio/mss_gpio.c ****     mss_gpio_id_t port_id,
 144:../src/platform/drivers/mss/mss_gpio/mss_gpio.c ****     uint32_t config
 145:../src/platform/drivers/mss/mss_gpio/mss_gpio.c **** )
 146:../src/platform/drivers/mss/mss_gpio/mss_gpio.c **** {
 147:../src/platform/drivers/mss/mss_gpio/mss_gpio.c ****     if (0U == gpio_number_validate(gpio, port_id))
 148:../src/platform/drivers/mss/mss_gpio/mss_gpio.c ****     {
 149:../src/platform/drivers/mss/mss_gpio/mss_gpio.c ****         gpio->GPIO_CFG[port_id] = config;
 150:../src/platform/drivers/mss/mss_gpio/mss_gpio.c ****     }
 151:../src/platform/drivers/mss/mss_gpio/mss_gpio.c ****     else
 152:../src/platform/drivers/mss/mss_gpio/mss_gpio.c ****     {
 153:../src/platform/drivers/mss/mss_gpio/mss_gpio.c ****         ASSERT(0); /*LDRA warning*/
 154:../src/platform/drivers/mss/mss_gpio/mss_gpio.c ****     }
 155:../src/platform/drivers/mss/mss_gpio/mss_gpio.c **** }
 156:../src/platform/drivers/mss/mss_gpio/mss_gpio.c **** 
 157:../src/platform/drivers/mss/mss_gpio/mss_gpio.c **** /*-------------------------------------------------------------------------*//**
 158:../src/platform/drivers/mss/mss_gpio/mss_gpio.c ****  * MSS_GPIO_config_byte
 159:../src/platform/drivers/mss/mss_gpio/mss_gpio.c ****  * See "mss_gpio.h" for details of how to use this function.
 160:../src/platform/drivers/mss/mss_gpio/mss_gpio.c ****  */
 161:../src/platform/drivers/mss/mss_gpio/mss_gpio.c **** void MSS_GPIO_config_byte
 162:../src/platform/drivers/mss/mss_gpio/mss_gpio.c **** (
 163:../src/platform/drivers/mss/mss_gpio/mss_gpio.c ****     GPIO_TypeDef * gpio,
 164:../src/platform/drivers/mss/mss_gpio/mss_gpio.c ****     mss_gpio_byte_num_t byte_num,
 165:../src/platform/drivers/mss/mss_gpio/mss_gpio.c ****     uint32_t config
 166:../src/platform/drivers/mss/mss_gpio/mss_gpio.c **** )
 167:../src/platform/drivers/mss/mss_gpio/mss_gpio.c **** {
 168:../src/platform/drivers/mss/mss_gpio/mss_gpio.c ****     if (((GPIO0_LO == gpio) || (GPIO0_HI == gpio)) &&
 169:../src/platform/drivers/mss/mss_gpio/mss_gpio.c ****                                                  (byte_num >= MSS_GPIO_BYTE_1))
 170:../src/platform/drivers/mss/mss_gpio/mss_gpio.c ****     {
 171:../src/platform/drivers/mss/mss_gpio/mss_gpio.c ****         ASSERT(0);
 172:../src/platform/drivers/mss/mss_gpio/mss_gpio.c ****     }
 173:../src/platform/drivers/mss/mss_gpio/mss_gpio.c ****     else if (((GPIO1_LO == gpio) || (GPIO1_HI == gpio)) &&
 174:../src/platform/drivers/mss/mss_gpio/mss_gpio.c ****                                                   (byte_num > MSS_GPIO_BYTE_2))
 175:../src/platform/drivers/mss/mss_gpio/mss_gpio.c ****     {
 176:../src/platform/drivers/mss/mss_gpio/mss_gpio.c ****         ASSERT(0);
 177:../src/platform/drivers/mss/mss_gpio/mss_gpio.c ****     }
 178:../src/platform/drivers/mss/mss_gpio/mss_gpio.c ****     else if (((GPIO2_LO == gpio) || (GPIO2_HI == gpio)) &&
 179:../src/platform/drivers/mss/mss_gpio/mss_gpio.c ****                                                   (byte_num > MSS_GPIO_BYTE_3))
 180:../src/platform/drivers/mss/mss_gpio/mss_gpio.c ****     {
 181:../src/platform/drivers/mss/mss_gpio/mss_gpio.c ****         ASSERT(0);
 182:../src/platform/drivers/mss/mss_gpio/mss_gpio.c ****     }
 183:../src/platform/drivers/mss/mss_gpio/mss_gpio.c ****     else
 184:../src/platform/drivers/mss/mss_gpio/mss_gpio.c ****     {
 185:../src/platform/drivers/mss/mss_gpio/mss_gpio.c ****         gpio->GPIO_CFG_BYTE[byte_num] = config;
 186:../src/platform/drivers/mss/mss_gpio/mss_gpio.c ****     }
 187:../src/platform/drivers/mss/mss_gpio/mss_gpio.c **** }
 188:../src/platform/drivers/mss/mss_gpio/mss_gpio.c **** 
 189:../src/platform/drivers/mss/mss_gpio/mss_gpio.c **** /*-------------------------------------------------------------------------*//**
 190:../src/platform/drivers/mss/mss_gpio/mss_gpio.c ****  * MSS_GPIO_config_all
 191:../src/platform/drivers/mss/mss_gpio/mss_gpio.c ****  * See "mss_gpio.h" for details of how to use this function.
 192:../src/platform/drivers/mss/mss_gpio/mss_gpio.c ****  */
 193:../src/platform/drivers/mss/mss_gpio/mss_gpio.c **** void MSS_GPIO_config_all
 194:../src/platform/drivers/mss/mss_gpio/mss_gpio.c **** (
 195:../src/platform/drivers/mss/mss_gpio/mss_gpio.c ****     GPIO_TypeDef * gpio,
 196:../src/platform/drivers/mss/mss_gpio/mss_gpio.c ****     uint32_t config
 197:../src/platform/drivers/mss/mss_gpio/mss_gpio.c **** )
 198:../src/platform/drivers/mss/mss_gpio/mss_gpio.c **** {
 199:../src/platform/drivers/mss/mss_gpio/mss_gpio.c ****     gpio->GPIO_CFG_ALL = config;
 200:../src/platform/drivers/mss/mss_gpio/mss_gpio.c **** }
 201:../src/platform/drivers/mss/mss_gpio/mss_gpio.c **** 
 202:../src/platform/drivers/mss/mss_gpio/mss_gpio.c **** /*-------------------------------------------------------------------------*//**
 203:../src/platform/drivers/mss/mss_gpio/mss_gpio.c ****  * MSS_GPIO_set_output
 204:../src/platform/drivers/mss/mss_gpio/mss_gpio.c ****  * See "mss_gpio.h" for details of how to use this function.
 205:../src/platform/drivers/mss/mss_gpio/mss_gpio.c ****  */
 206:../src/platform/drivers/mss/mss_gpio/mss_gpio.c **** void MSS_GPIO_set_output
 207:../src/platform/drivers/mss/mss_gpio/mss_gpio.c **** (
 208:../src/platform/drivers/mss/mss_gpio/mss_gpio.c ****     GPIO_TypeDef * gpio,
 209:../src/platform/drivers/mss/mss_gpio/mss_gpio.c ****     mss_gpio_id_t port_id,
 210:../src/platform/drivers/mss/mss_gpio/mss_gpio.c ****     uint8_t value
 211:../src/platform/drivers/mss/mss_gpio/mss_gpio.c **** )
 212:../src/platform/drivers/mss/mss_gpio/mss_gpio.c **** {
 213:../src/platform/drivers/mss/mss_gpio/mss_gpio.c ****     if (0U == gpio_number_validate(gpio, port_id))
 214:../src/platform/drivers/mss/mss_gpio/mss_gpio.c ****     {
 215:../src/platform/drivers/mss/mss_gpio/mss_gpio.c ****         /* Setting the bit in GPIO_SET_BITS (offset 0xA4) sets the corresponding
 216:../src/platform/drivers/mss/mss_gpio/mss_gpio.c ****          * output port.
 217:../src/platform/drivers/mss/mss_gpio/mss_gpio.c ****          * Setting the bit in GPIO_CLR_BITS (offset 0xA0) clears the
 218:../src/platform/drivers/mss/mss_gpio/mss_gpio.c ****          * corresponding output port.*/
 219:../src/platform/drivers/mss/mss_gpio/mss_gpio.c **** 
 220:../src/platform/drivers/mss/mss_gpio/mss_gpio.c ****         if (value > 0u)
 221:../src/platform/drivers/mss/mss_gpio/mss_gpio.c ****         {
 222:../src/platform/drivers/mss/mss_gpio/mss_gpio.c ****             gpio->GPIO_SET_BITS = ((uint32_t)0x01 << port_id);
 223:../src/platform/drivers/mss/mss_gpio/mss_gpio.c ****         }
 224:../src/platform/drivers/mss/mss_gpio/mss_gpio.c ****         else
 225:../src/platform/drivers/mss/mss_gpio/mss_gpio.c ****         {
 226:../src/platform/drivers/mss/mss_gpio/mss_gpio.c ****             gpio->GPIO_CLR_BITS = ((uint32_t)0x01 << port_id);
 227:../src/platform/drivers/mss/mss_gpio/mss_gpio.c ****         }
 228:../src/platform/drivers/mss/mss_gpio/mss_gpio.c ****     }
 229:../src/platform/drivers/mss/mss_gpio/mss_gpio.c ****     else
 230:../src/platform/drivers/mss/mss_gpio/mss_gpio.c ****     {
 231:../src/platform/drivers/mss/mss_gpio/mss_gpio.c ****         ASSERT(0); /*LDRA warning*/
 232:../src/platform/drivers/mss/mss_gpio/mss_gpio.c ****     }
 233:../src/platform/drivers/mss/mss_gpio/mss_gpio.c **** }
 234:../src/platform/drivers/mss/mss_gpio/mss_gpio.c **** 
 235:../src/platform/drivers/mss/mss_gpio/mss_gpio.c **** /*-------------------------------------------------------------------------*//**
 236:../src/platform/drivers/mss/mss_gpio/mss_gpio.c ****  * MSS_GPIO_drive_inout
 237:../src/platform/drivers/mss/mss_gpio/mss_gpio.c ****  * See "mss_gpio.h" for details of how to use this function.
 238:../src/platform/drivers/mss/mss_gpio/mss_gpio.c ****  */
 239:../src/platform/drivers/mss/mss_gpio/mss_gpio.c **** void MSS_GPIO_drive_inout
 240:../src/platform/drivers/mss/mss_gpio/mss_gpio.c **** (
 241:../src/platform/drivers/mss/mss_gpio/mss_gpio.c ****     GPIO_TypeDef * gpio,
 242:../src/platform/drivers/mss/mss_gpio/mss_gpio.c ****     mss_gpio_id_t port_id,
 243:../src/platform/drivers/mss/mss_gpio/mss_gpio.c ****     mss_gpio_inout_state_t inout_state
 244:../src/platform/drivers/mss/mss_gpio/mss_gpio.c **** )
 245:../src/platform/drivers/mss/mss_gpio/mss_gpio.c **** {
 246:../src/platform/drivers/mss/mss_gpio/mss_gpio.c ****     uint32_t config;
 247:../src/platform/drivers/mss/mss_gpio/mss_gpio.c ****     
 248:../src/platform/drivers/mss/mss_gpio/mss_gpio.c ****     if (0U == gpio_number_validate(gpio, port_id))
 249:../src/platform/drivers/mss/mss_gpio/mss_gpio.c ****     {
 250:../src/platform/drivers/mss/mss_gpio/mss_gpio.c ****         switch (inout_state)
 251:../src/platform/drivers/mss/mss_gpio/mss_gpio.c ****         {
 252:../src/platform/drivers/mss/mss_gpio/mss_gpio.c ****             case MSS_GPIO_DRIVE_HIGH:
 253:../src/platform/drivers/mss/mss_gpio/mss_gpio.c ****                 /* Set output high */
 254:../src/platform/drivers/mss/mss_gpio/mss_gpio.c ****                 gpio->GPIO_SET_BITS = ((uint32_t)1 << port_id);
 255:../src/platform/drivers/mss/mss_gpio/mss_gpio.c **** 
 256:../src/platform/drivers/mss/mss_gpio/mss_gpio.c ****                 /* Enable output buffer */
 257:../src/platform/drivers/mss/mss_gpio/mss_gpio.c ****                 config = gpio->GPIO_CFG[port_id];
 258:../src/platform/drivers/mss/mss_gpio/mss_gpio.c ****                 config |= OUTPUT_BUFFER_ENABLE_MASK;
 259:../src/platform/drivers/mss/mss_gpio/mss_gpio.c ****                 gpio->GPIO_CFG[port_id] = config;
 260:../src/platform/drivers/mss/mss_gpio/mss_gpio.c ****             break;
 261:../src/platform/drivers/mss/mss_gpio/mss_gpio.c **** 
 262:../src/platform/drivers/mss/mss_gpio/mss_gpio.c ****             case MSS_GPIO_DRIVE_LOW:
 263:../src/platform/drivers/mss/mss_gpio/mss_gpio.c ****                 /* Set output low */
 264:../src/platform/drivers/mss/mss_gpio/mss_gpio.c ****                 gpio->GPIO_CLR_BITS = (uint32_t)1 << port_id;
 265:../src/platform/drivers/mss/mss_gpio/mss_gpio.c ****                 /* Enable output buffer */
 266:../src/platform/drivers/mss/mss_gpio/mss_gpio.c ****                 config = gpio->GPIO_CFG[port_id];
 267:../src/platform/drivers/mss/mss_gpio/mss_gpio.c ****                 config |= OUTPUT_BUFFER_ENABLE_MASK;
 268:../src/platform/drivers/mss/mss_gpio/mss_gpio.c ****                 gpio->GPIO_CFG[port_id] = config;
 269:../src/platform/drivers/mss/mss_gpio/mss_gpio.c ****             break;
 270:../src/platform/drivers/mss/mss_gpio/mss_gpio.c **** 
 271:../src/platform/drivers/mss/mss_gpio/mss_gpio.c ****             case MSS_GPIO_HIGH_Z:
 272:../src/platform/drivers/mss/mss_gpio/mss_gpio.c ****                 /* Disable output buffer */
 273:../src/platform/drivers/mss/mss_gpio/mss_gpio.c ****                 config = gpio->GPIO_CFG[port_id];
 274:../src/platform/drivers/mss/mss_gpio/mss_gpio.c ****                 config &= ~OUTPUT_BUFFER_ENABLE_MASK;
 275:../src/platform/drivers/mss/mss_gpio/mss_gpio.c ****                 gpio->GPIO_CFG[port_id] = config;
 276:../src/platform/drivers/mss/mss_gpio/mss_gpio.c ****             break;
 277:../src/platform/drivers/mss/mss_gpio/mss_gpio.c **** 
 278:../src/platform/drivers/mss/mss_gpio/mss_gpio.c ****             default:
 279:../src/platform/drivers/mss/mss_gpio/mss_gpio.c ****                 ASSERT(0);
 280:../src/platform/drivers/mss/mss_gpio/mss_gpio.c ****             break;
 281:../src/platform/drivers/mss/mss_gpio/mss_gpio.c ****         }
 282:../src/platform/drivers/mss/mss_gpio/mss_gpio.c ****     }
 283:../src/platform/drivers/mss/mss_gpio/mss_gpio.c ****     else
 284:../src/platform/drivers/mss/mss_gpio/mss_gpio.c ****     {
 285:../src/platform/drivers/mss/mss_gpio/mss_gpio.c ****         ASSERT(0); /*LDRA warning*/
 286:../src/platform/drivers/mss/mss_gpio/mss_gpio.c ****     }
 287:../src/platform/drivers/mss/mss_gpio/mss_gpio.c **** }
 288:../src/platform/drivers/mss/mss_gpio/mss_gpio.c **** 
 289:../src/platform/drivers/mss/mss_gpio/mss_gpio.c **** /*-------------------------------------------------------------------------*//**
 290:../src/platform/drivers/mss/mss_gpio/mss_gpio.c ****  * MSS_GPIO_enable_irq
 291:../src/platform/drivers/mss/mss_gpio/mss_gpio.c ****  * See "mss_gpio.h" for details of how to use this function.
 292:../src/platform/drivers/mss/mss_gpio/mss_gpio.c ****  */
 293:../src/platform/drivers/mss/mss_gpio/mss_gpio.c **** void MSS_GPIO_enable_irq
 294:../src/platform/drivers/mss/mss_gpio/mss_gpio.c **** (
 295:../src/platform/drivers/mss/mss_gpio/mss_gpio.c ****     GPIO_TypeDef * gpio,
 296:../src/platform/drivers/mss/mss_gpio/mss_gpio.c ****     mss_gpio_id_t port_id
 297:../src/platform/drivers/mss/mss_gpio/mss_gpio.c **** )
 298:../src/platform/drivers/mss/mss_gpio/mss_gpio.c **** {
 299:../src/platform/drivers/mss/mss_gpio/mss_gpio.c ****     uint32_t cfg_value;
 300:../src/platform/drivers/mss/mss_gpio/mss_gpio.c **** 
 301:../src/platform/drivers/mss/mss_gpio/mss_gpio.c ****     if (0U == gpio_number_validate(gpio, port_id))
 302:../src/platform/drivers/mss/mss_gpio/mss_gpio.c ****     {
 303:../src/platform/drivers/mss/mss_gpio/mss_gpio.c ****         cfg_value = gpio->GPIO_CFG[(uint8_t)port_id];
 304:../src/platform/drivers/mss/mss_gpio/mss_gpio.c ****         gpio->GPIO_CFG[(uint8_t)port_id] = (cfg_value | GPIO_INT_ENABLE_MASK);
 305:../src/platform/drivers/mss/mss_gpio/mss_gpio.c **** 
 306:../src/platform/drivers/mss/mss_gpio/mss_gpio.c ****         if ((GPIO0_LO == gpio) || (GPIO0_HI == gpio))
 307:../src/platform/drivers/mss/mss_gpio/mss_gpio.c ****         {
 308:../src/platform/drivers/mss/mss_gpio/mss_gpio.c ****             PLIC_EnableIRQ(g_gpio_irqn_lut[port_id]);
 309:../src/platform/drivers/mss/mss_gpio/mss_gpio.c ****         }
 310:../src/platform/drivers/mss/mss_gpio/mss_gpio.c ****         else if ((GPIO1_LO == gpio) || (GPIO1_HI == gpio))
 311:../src/platform/drivers/mss/mss_gpio/mss_gpio.c ****         {
 312:../src/platform/drivers/mss/mss_gpio/mss_gpio.c ****             PLIC_EnableIRQ(g_gpio_irqn_lut[port_id +
 313:../src/platform/drivers/mss/mss_gpio/mss_gpio.c ****                                            GPIO1_BIT0_or_GPIO2_BIT14_PLIC_14]);
 314:../src/platform/drivers/mss/mss_gpio/mss_gpio.c ****         }
 315:../src/platform/drivers/mss/mss_gpio/mss_gpio.c ****         else if ((GPIO2_LO == gpio) || (GPIO2_HI == gpio))
 316:../src/platform/drivers/mss/mss_gpio/mss_gpio.c ****         {
 317:../src/platform/drivers/mss/mss_gpio/mss_gpio.c ****             PLIC_EnableIRQ(g_gpio_irqn_lut[port_id]);
 318:../src/platform/drivers/mss/mss_gpio/mss_gpio.c ****         }
 319:../src/platform/drivers/mss/mss_gpio/mss_gpio.c ****         else
 320:../src/platform/drivers/mss/mss_gpio/mss_gpio.c ****         {
 321:../src/platform/drivers/mss/mss_gpio/mss_gpio.c ****             ASSERT(0); /*LDRA warning*/
 322:../src/platform/drivers/mss/mss_gpio/mss_gpio.c ****         }
 323:../src/platform/drivers/mss/mss_gpio/mss_gpio.c ****     }
 324:../src/platform/drivers/mss/mss_gpio/mss_gpio.c ****     else
 325:../src/platform/drivers/mss/mss_gpio/mss_gpio.c ****     {
 326:../src/platform/drivers/mss/mss_gpio/mss_gpio.c ****         ASSERT(0); /*LDRA warning*/
 327:../src/platform/drivers/mss/mss_gpio/mss_gpio.c ****     }
 328:../src/platform/drivers/mss/mss_gpio/mss_gpio.c **** }
 329:../src/platform/drivers/mss/mss_gpio/mss_gpio.c **** 
 330:../src/platform/drivers/mss/mss_gpio/mss_gpio.c **** /*-------------------------------------------------------------------------*//**
 331:../src/platform/drivers/mss/mss_gpio/mss_gpio.c ****  * MSS_GPIO_disable_irq
 332:../src/platform/drivers/mss/mss_gpio/mss_gpio.c ****  * See "mss_gpio.h" for details of how to use this function.
 333:../src/platform/drivers/mss/mss_gpio/mss_gpio.c ****  */
 334:../src/platform/drivers/mss/mss_gpio/mss_gpio.c **** 
 335:../src/platform/drivers/mss/mss_gpio/mss_gpio.c **** void MSS_GPIO_disable_irq
 336:../src/platform/drivers/mss/mss_gpio/mss_gpio.c **** (
 337:../src/platform/drivers/mss/mss_gpio/mss_gpio.c ****     GPIO_TypeDef * gpio,
 338:../src/platform/drivers/mss/mss_gpio/mss_gpio.c ****     mss_gpio_id_t port_id
 339:../src/platform/drivers/mss/mss_gpio/mss_gpio.c **** )
 340:../src/platform/drivers/mss/mss_gpio/mss_gpio.c **** {
 341:../src/platform/drivers/mss/mss_gpio/mss_gpio.c ****     uint32_t cfg_value;
 342:../src/platform/drivers/mss/mss_gpio/mss_gpio.c **** 
 343:../src/platform/drivers/mss/mss_gpio/mss_gpio.c ****     if (0U == gpio_number_validate(gpio, port_id))
 344:../src/platform/drivers/mss/mss_gpio/mss_gpio.c ****     {
 345:../src/platform/drivers/mss/mss_gpio/mss_gpio.c ****         cfg_value = gpio->GPIO_CFG[(uint8_t)port_id];
 346:../src/platform/drivers/mss/mss_gpio/mss_gpio.c ****         gpio->GPIO_CFG[(uint8_t)port_id] = (cfg_value & (~GPIO_INT_ENABLE_MASK));
 347:../src/platform/drivers/mss/mss_gpio/mss_gpio.c **** 
 348:../src/platform/drivers/mss/mss_gpio/mss_gpio.c ****         if ((GPIO0_LO == gpio) || (GPIO0_HI == gpio))
 349:../src/platform/drivers/mss/mss_gpio/mss_gpio.c ****         {
 350:../src/platform/drivers/mss/mss_gpio/mss_gpio.c ****             PLIC_DisableIRQ(g_gpio_irqn_lut[port_id]);
 351:../src/platform/drivers/mss/mss_gpio/mss_gpio.c ****         }
 352:../src/platform/drivers/mss/mss_gpio/mss_gpio.c ****         else if ((GPIO1_LO == gpio) || (GPIO1_HI == gpio))
 353:../src/platform/drivers/mss/mss_gpio/mss_gpio.c ****         {
 354:../src/platform/drivers/mss/mss_gpio/mss_gpio.c ****             PLIC_DisableIRQ(g_gpio_irqn_lut[port_id +
 355:../src/platform/drivers/mss/mss_gpio/mss_gpio.c ****                                             GPIO1_BIT0_or_GPIO2_BIT14_PLIC_14]);
 356:../src/platform/drivers/mss/mss_gpio/mss_gpio.c ****         }
 357:../src/platform/drivers/mss/mss_gpio/mss_gpio.c ****         else if ((GPIO2_LO == gpio) || (GPIO2_HI == gpio))
 358:../src/platform/drivers/mss/mss_gpio/mss_gpio.c ****         {
 359:../src/platform/drivers/mss/mss_gpio/mss_gpio.c ****             PLIC_DisableIRQ(GPIO2_NON_DIRECT_PLIC);
 360:../src/platform/drivers/mss/mss_gpio/mss_gpio.c ****         }
 361:../src/platform/drivers/mss/mss_gpio/mss_gpio.c ****         else
 362:../src/platform/drivers/mss/mss_gpio/mss_gpio.c ****         {
 363:../src/platform/drivers/mss/mss_gpio/mss_gpio.c ****             ASSERT(0); /*LDRA warning*/
 364:../src/platform/drivers/mss/mss_gpio/mss_gpio.c ****         }
 365:../src/platform/drivers/mss/mss_gpio/mss_gpio.c ****     }
 366:../src/platform/drivers/mss/mss_gpio/mss_gpio.c ****     else
 367:../src/platform/drivers/mss/mss_gpio/mss_gpio.c ****     {
 368:../src/platform/drivers/mss/mss_gpio/mss_gpio.c ****         ASSERT(0); /*LDRA warning*/
 369:../src/platform/drivers/mss/mss_gpio/mss_gpio.c ****     }
 370:../src/platform/drivers/mss/mss_gpio/mss_gpio.c **** }
 371:../src/platform/drivers/mss/mss_gpio/mss_gpio.c **** 
 372:../src/platform/drivers/mss/mss_gpio/mss_gpio.c **** /*-------------------------------------------------------------------------*//**
 373:../src/platform/drivers/mss/mss_gpio/mss_gpio.c ****  * MSS_GPIO_enable_nondirect_irq
 374:../src/platform/drivers/mss/mss_gpio/mss_gpio.c ****  * See "mss_gpio.h" for details of how to use this function.
 375:../src/platform/drivers/mss/mss_gpio/mss_gpio.c ****  */
 376:../src/platform/drivers/mss/mss_gpio/mss_gpio.c **** void
 377:../src/platform/drivers/mss/mss_gpio/mss_gpio.c **** MSS_GPIO_enable_nondirect_irq
 378:../src/platform/drivers/mss/mss_gpio/mss_gpio.c **** (
 379:../src/platform/drivers/mss/mss_gpio/mss_gpio.c ****     GPIO_TypeDef const * gpio
 380:../src/platform/drivers/mss/mss_gpio/mss_gpio.c **** )
 381:../src/platform/drivers/mss/mss_gpio/mss_gpio.c **** {
 382:../src/platform/drivers/mss/mss_gpio/mss_gpio.c ****     if ((GPIO0_LO == gpio) || (GPIO0_HI == gpio))
 383:../src/platform/drivers/mss/mss_gpio/mss_gpio.c ****     {
 384:../src/platform/drivers/mss/mss_gpio/mss_gpio.c ****         PLIC_EnableIRQ(GPIO0_NON_DIRECT_PLIC);
 385:../src/platform/drivers/mss/mss_gpio/mss_gpio.c ****     }
 386:../src/platform/drivers/mss/mss_gpio/mss_gpio.c ****     else if ((GPIO1_LO == gpio) || (GPIO1_HI == gpio))
 387:../src/platform/drivers/mss/mss_gpio/mss_gpio.c ****     {
 388:../src/platform/drivers/mss/mss_gpio/mss_gpio.c ****         PLIC_EnableIRQ(GPIO1_NON_DIRECT_PLIC);
 389:../src/platform/drivers/mss/mss_gpio/mss_gpio.c ****     }
 390:../src/platform/drivers/mss/mss_gpio/mss_gpio.c ****     else if ((GPIO2_LO == gpio) || (GPIO2_HI == gpio))
 391:../src/platform/drivers/mss/mss_gpio/mss_gpio.c ****     {
 392:../src/platform/drivers/mss/mss_gpio/mss_gpio.c ****         PLIC_EnableIRQ(GPIO2_NON_DIRECT_PLIC);
 393:../src/platform/drivers/mss/mss_gpio/mss_gpio.c ****     }
 394:../src/platform/drivers/mss/mss_gpio/mss_gpio.c ****     else
 395:../src/platform/drivers/mss/mss_gpio/mss_gpio.c ****     {
 396:../src/platform/drivers/mss/mss_gpio/mss_gpio.c ****         ASSERT(0); /*LDRA warning*/
 397:../src/platform/drivers/mss/mss_gpio/mss_gpio.c ****     }
 398:../src/platform/drivers/mss/mss_gpio/mss_gpio.c **** }
 399:../src/platform/drivers/mss/mss_gpio/mss_gpio.c **** 
 400:../src/platform/drivers/mss/mss_gpio/mss_gpio.c **** /*-------------------------------------------------------------------------*//**
 401:../src/platform/drivers/mss/mss_gpio/mss_gpio.c ****  * MSS_GPIO_disable_nondirect_irq
 402:../src/platform/drivers/mss/mss_gpio/mss_gpio.c ****  * See "mss_gpio.h" for details of how to use this function.
 403:../src/platform/drivers/mss/mss_gpio/mss_gpio.c ****  */
 404:../src/platform/drivers/mss/mss_gpio/mss_gpio.c **** void
 405:../src/platform/drivers/mss/mss_gpio/mss_gpio.c **** MSS_GPIO_disable_nondirect_irq
 406:../src/platform/drivers/mss/mss_gpio/mss_gpio.c **** (
 407:../src/platform/drivers/mss/mss_gpio/mss_gpio.c ****     GPIO_TypeDef const * gpio
 408:../src/platform/drivers/mss/mss_gpio/mss_gpio.c **** )
 409:../src/platform/drivers/mss/mss_gpio/mss_gpio.c **** {
 410:../src/platform/drivers/mss/mss_gpio/mss_gpio.c ****     if ((GPIO0_LO == gpio) || (GPIO0_HI == gpio))
 411:../src/platform/drivers/mss/mss_gpio/mss_gpio.c ****     {
 412:../src/platform/drivers/mss/mss_gpio/mss_gpio.c ****         PLIC_DisableIRQ(GPIO0_NON_DIRECT_PLIC);
 413:../src/platform/drivers/mss/mss_gpio/mss_gpio.c ****     }
 414:../src/platform/drivers/mss/mss_gpio/mss_gpio.c ****     else if ((GPIO1_LO == gpio) || (GPIO1_HI == gpio))
 415:../src/platform/drivers/mss/mss_gpio/mss_gpio.c ****     {
 416:../src/platform/drivers/mss/mss_gpio/mss_gpio.c ****         PLIC_DisableIRQ(GPIO1_NON_DIRECT_PLIC);
 417:../src/platform/drivers/mss/mss_gpio/mss_gpio.c ****     }
 418:../src/platform/drivers/mss/mss_gpio/mss_gpio.c ****     else if ((GPIO2_LO == gpio) || (GPIO2_HI == gpio))
 419:../src/platform/drivers/mss/mss_gpio/mss_gpio.c ****     {
 420:../src/platform/drivers/mss/mss_gpio/mss_gpio.c ****         PLIC_DisableIRQ(GPIO2_NON_DIRECT_PLIC);
 421:../src/platform/drivers/mss/mss_gpio/mss_gpio.c ****     }
 422:../src/platform/drivers/mss/mss_gpio/mss_gpio.c ****     else
 423:../src/platform/drivers/mss/mss_gpio/mss_gpio.c ****     {
 424:../src/platform/drivers/mss/mss_gpio/mss_gpio.c ****         ASSERT(0); /*LDRA warning*/
 425:../src/platform/drivers/mss/mss_gpio/mss_gpio.c ****     }
 426:../src/platform/drivers/mss/mss_gpio/mss_gpio.c **** }
 427:../src/platform/drivers/mss/mss_gpio/mss_gpio.c **** 
 428:../src/platform/drivers/mss/mss_gpio/mss_gpio.c **** /*-------------------------------------------------------------------------*//**
 429:../src/platform/drivers/mss/mss_gpio/mss_gpio.c ****  * MSS_GPIO_clear_irq
 430:../src/platform/drivers/mss/mss_gpio/mss_gpio.c ****  * See "mss_gpio.h" for details of how to use this function.
 431:../src/platform/drivers/mss/mss_gpio/mss_gpio.c ****  */
 432:../src/platform/drivers/mss/mss_gpio/mss_gpio.c **** void MSS_GPIO_clear_irq
 433:../src/platform/drivers/mss/mss_gpio/mss_gpio.c **** (
 434:../src/platform/drivers/mss/mss_gpio/mss_gpio.c ****     GPIO_TypeDef * gpio,
 435:../src/platform/drivers/mss/mss_gpio/mss_gpio.c ****     mss_gpio_id_t port_id
 436:../src/platform/drivers/mss/mss_gpio/mss_gpio.c **** )
 437:../src/platform/drivers/mss/mss_gpio/mss_gpio.c **** {
 438:../src/platform/drivers/mss/mss_gpio/mss_gpio.c ****     if (0U == gpio_number_validate(gpio, port_id))
 439:../src/platform/drivers/mss/mss_gpio/mss_gpio.c ****     {
 440:../src/platform/drivers/mss/mss_gpio/mss_gpio.c ****         gpio->GPIO_IRQ = ((uint32_t)1) << port_id;
 441:../src/platform/drivers/mss/mss_gpio/mss_gpio.c ****         __asm("fence");
 442:../src/platform/drivers/mss/mss_gpio/mss_gpio.c ****     }
 443:../src/platform/drivers/mss/mss_gpio/mss_gpio.c ****     else
 444:../src/platform/drivers/mss/mss_gpio/mss_gpio.c ****     {
 445:../src/platform/drivers/mss/mss_gpio/mss_gpio.c ****         ASSERT(0); /*LDRA warning*/
 446:../src/platform/drivers/mss/mss_gpio/mss_gpio.c ****     }
 447:../src/platform/drivers/mss/mss_gpio/mss_gpio.c **** }
 448:../src/platform/drivers/mss/mss_gpio/mss_gpio.c **** 
 449:../src/platform/drivers/mss/mss_gpio/mss_gpio.c **** static uint8_t gpio_number_validate(GPIO_TypeDef const * gpio, mss_gpio_id_t gpio_idx)
 450:../src/platform/drivers/mss/mss_gpio/mss_gpio.c **** {
 342              		.loc 2 450 1 is_stmt 1
 343              		.cfi_startproc
 344              	.LVL40:
 451:../src/platform/drivers/mss/mss_gpio/mss_gpio.c ****     uint8_t ret;
 345              		.loc 2 451 5
 452:../src/platform/drivers/mss/mss_gpio/mss_gpio.c **** 
 453:../src/platform/drivers/mss/mss_gpio/mss_gpio.c ****     if (((GPIO0_LO == gpio) || (GPIO0_HI == gpio)) &&
 346              		.loc 2 453 5
 347              		.loc 2 453 8 is_stmt 0
 348 0000 B7071220 		li	a5,538050560
 349 0004 6306F500 		beq	a0,a5,.L18
 350              		.loc 2 453 29 discriminator 2
 351 0008 B7071228 		li	a5,672268288
 352 000c 6316F500 		bne	a0,a5,.L19
 353              	.L18:
 354              		.loc 2 453 52 discriminator 3
 355 0010 3547     		li	a4,13
 454:../src/platform/drivers/mss/mss_gpio/mss_gpio.c ****                                                 (gpio_idx >= NB_OF_GPIO_GPIO0))
 455:../src/platform/drivers/mss/mss_gpio/mss_gpio.c ****     {
 456:../src/platform/drivers/mss/mss_gpio/mss_gpio.c ****         ret = 1u;
 356              		.loc 2 456 13 discriminator 3
 357 0012 8547     		li	a5,1
 453:../src/platform/drivers/mss/mss_gpio/mss_gpio.c ****                                                 (gpio_idx >= NB_OF_GPIO_GPIO0))
 358              		.loc 2 453 52 discriminator 3
 359 0014 636AB702 		bgtu	a1,a4,.L20
 360              	.L19:
 457:../src/platform/drivers/mss/mss_gpio/mss_gpio.c ****     }
 458:../src/platform/drivers/mss/mss_gpio/mss_gpio.c ****     else if (((GPIO1_LO == gpio) || (GPIO1_HI == gpio)) &&
 361              		.loc 2 458 10 is_stmt 1
 362              		.loc 2 458 13 is_stmt 0
 363 0018 B7171220 		li	a5,538054656
 364 001c 6306F500 		beq	a0,a5,.L21
 365              		.loc 2 458 34 discriminator 2
 366 0020 B7171228 		li	a5,672272384
 367 0024 6316F500 		bne	a0,a5,.L22
 368              	.L21:
 369              		.loc 2 458 57 discriminator 3
 370 0028 5D47     		li	a4,23
 456:../src/platform/drivers/mss/mss_gpio/mss_gpio.c ****     }
 371              		.loc 2 456 13 discriminator 3
 372 002a 8547     		li	a5,1
 373              		.loc 2 458 57 discriminator 3
 374 002c 636EB700 		bgtu	a1,a4,.L20
 375              	.L22:
 376              	.LVL41:
 377              	.LBB20:
 378              	.LBB21:
 459:../src/platform/drivers/mss/mss_gpio/mss_gpio.c ****                                                 (gpio_idx >= NB_OF_GPIO_GPIO1))
 460:../src/platform/drivers/mss/mss_gpio/mss_gpio.c ****     {
 461:../src/platform/drivers/mss/mss_gpio/mss_gpio.c ****         ret = 1u;
 462:../src/platform/drivers/mss/mss_gpio/mss_gpio.c ****     }
 463:../src/platform/drivers/mss/mss_gpio/mss_gpio.c ****     else if (((GPIO2_LO == gpio) || (GPIO2_HI == gpio)) &&
 379              		.loc 2 463 10 is_stmt 1
 380              		.loc 2 463 13 is_stmt 0
 381 0030 B7271220 		li	a5,538058752
 382 0034 6307F500 		beq	a0,a5,.L23
 383              		.loc 2 463 34
 384 0038 37271228 		li	a4,672276480
 464:../src/platform/drivers/mss/mss_gpio/mss_gpio.c ****                                                 (gpio_idx >= NB_OF_GPIO_GPIO2))
 465:../src/platform/drivers/mss/mss_gpio/mss_gpio.c ****     {
 466:../src/platform/drivers/mss/mss_gpio/mss_gpio.c ****         ret = 1u;
 467:../src/platform/drivers/mss/mss_gpio/mss_gpio.c ****     }
 468:../src/platform/drivers/mss/mss_gpio/mss_gpio.c ****     else
 469:../src/platform/drivers/mss/mss_gpio/mss_gpio.c ****     {
 470:../src/platform/drivers/mss/mss_gpio/mss_gpio.c ****         ret = 0u;
 385              		.loc 2 470 13
 386 003c 8147     		li	a5,0
 463:../src/platform/drivers/mss/mss_gpio/mss_gpio.c ****                                                 (gpio_idx >= NB_OF_GPIO_GPIO2))
 387              		.loc 2 463 34
 388 003e 6315E500 		bne	a0,a4,.L20
 389              	.L23:
 390              		.loc 2 470 13
 391 0042 FD47     		li	a5,31
 392 0044 B3B7B700 		sgtu	a5,a1,a5
 393              	.LVL42:
 394              	.L20:
 395              	.LBE21:
 396              	.LBE20:
 471:../src/platform/drivers/mss/mss_gpio/mss_gpio.c ****     }
 472:../src/platform/drivers/mss/mss_gpio/mss_gpio.c **** 
 473:../src/platform/drivers/mss/mss_gpio/mss_gpio.c ****     return ret;
 397              		.loc 2 473 5 is_stmt 1
 474:../src/platform/drivers/mss/mss_gpio/mss_gpio.c **** }
 398              		.loc 2 474 1 is_stmt 0
 399 0048 3E85     		mv	a0,a5
 400              	.LVL43:
 401 004a 8280     		ret
 402              		.cfi_endproc
 403              	.LFE34:
 405              		.section	.text.MSS_GPIO_init,"ax",@progbits
 406              		.align	1
 407              		.globl	MSS_GPIO_init
 409              	MSS_GPIO_init:
 410              	.LFB23:
 131:../src/platform/drivers/mss/mss_gpio/mss_gpio.c ****     /* clear all pending interrupts*/
 411              		.loc 2 131 1 is_stmt 1
 412              		.cfi_startproc
 413              	.LVL44:
 133:../src/platform/drivers/mss/mss_gpio/mss_gpio.c **** }
 414              		.loc 2 133 5
 133:../src/platform/drivers/mss/mss_gpio/mss_gpio.c **** }
 415              		.loc 2 133 20 is_stmt 0
 416 0000 FD57     		li	a5,-1
 417 0002 2320F508 		sw	a5,128(a0)
 134:../src/platform/drivers/mss/mss_gpio/mss_gpio.c **** 
 418              		.loc 2 134 1
 419 0006 8280     		ret
 420              		.cfi_endproc
 421              	.LFE23:
 423              		.section	.text.MSS_GPIO_config,"ax",@progbits
 424              		.align	1
 425              		.globl	MSS_GPIO_config
 427              	MSS_GPIO_config:
 428              	.LFB24:
 146:../src/platform/drivers/mss/mss_gpio/mss_gpio.c ****     if (0U == gpio_number_validate(gpio, port_id))
 429              		.loc 2 146 1 is_stmt 1
 430              		.cfi_startproc
 431              	.LVL45:
 147:../src/platform/drivers/mss/mss_gpio/mss_gpio.c ****     {
 432              		.loc 2 147 5
 146:../src/platform/drivers/mss/mss_gpio/mss_gpio.c ****     if (0U == gpio_number_validate(gpio, port_id))
 433              		.loc 2 146 1 is_stmt 0
 434 0000 7971     		addi	sp,sp,-48
 435              		.cfi_def_cfa_offset 48
 436 0002 22F0     		sd	s0,32(sp)
 437 0004 26EC     		sd	s1,24(sp)
 438 0006 06F4     		sd	ra,40(sp)
 439              		.cfi_offset 8, -16
 440              		.cfi_offset 9, -24
 441              		.cfi_offset 1, -8
 146:../src/platform/drivers/mss/mss_gpio/mss_gpio.c ****     if (0U == gpio_number_validate(gpio, port_id))
 442              		.loc 2 146 1
 443 0008 AA84     		mv	s1,a0
 444 000a 2E84     		mv	s0,a1
 445 000c 32E4     		sd	a2,8(sp)
 147:../src/platform/drivers/mss/mss_gpio/mss_gpio.c ****     {
 446              		.loc 2 147 15
 447 000e 97000000 		call	gpio_number_validate
 447      E7800000 
 448              	.LVL46:
 147:../src/platform/drivers/mss/mss_gpio/mss_gpio.c ****     {
 449              		.loc 2 147 8
 450 0016 19E9     		bne	a0,zero,.L29
 149:../src/platform/drivers/mss/mss_gpio/mss_gpio.c ****     }
 451              		.loc 2 149 9 is_stmt 1
 149:../src/platform/drivers/mss/mss_gpio/mss_gpio.c ****     }
 452              		.loc 2 149 33 is_stmt 0
 453 0018 0214     		slli	s0,s0,32
 454 001a 2266     		ld	a2,8(sp)
 455 001c 7980     		srli	s0,s0,30
 456 001e 2694     		add	s0,s1,s0
 457 0020 10C0     		sw	a2,0(s0)
 458              	.L28:
 155:../src/platform/drivers/mss/mss_gpio/mss_gpio.c **** 
 459              		.loc 2 155 1
 460 0022 A270     		ld	ra,40(sp)
 461              		.cfi_remember_state
 462              		.cfi_restore 1
 463 0024 0274     		ld	s0,32(sp)
 464              		.cfi_restore 8
 465 0026 E264     		ld	s1,24(sp)
 466              		.cfi_restore 9
 467              	.LVL47:
 468 0028 4561     		addi	sp,sp,48
 469              		.cfi_def_cfa_offset 0
 470 002a 8280     		jr	ra
 471              	.LVL48:
 472              	.L29:
 473              		.cfi_restore_state
 153:../src/platform/drivers/mss/mss_gpio/mss_gpio.c ****     }
 474              		.loc 2 153 9 is_stmt 1 discriminator 1
 153:../src/platform/drivers/mss/mss_gpio/mss_gpio.c ****     }
 475              		.loc 2 153 9 discriminator 1
 153:../src/platform/drivers/mss/mss_gpio/mss_gpio.c ****     }
 476              		.loc 2 153 9 discriminator 1
 477              	 #APP
 478              	# 153 "../src/platform/drivers/mss/mss_gpio/mss_gpio.c" 1
 153:../src/platform/drivers/mss/mss_gpio/mss_gpio.c ****     }
 479              		ebreak
 480              	# 0 "" 2
 481              		.loc 2 153 18 discriminator 1
 155:../src/platform/drivers/mss/mss_gpio/mss_gpio.c **** 
 482              		.loc 2 155 1 is_stmt 0 discriminator 1
 483              	 #NO_APP
 484 002e D5BF     		j	.L28
 485              		.cfi_endproc
 486              	.LFE24:
 488              		.section	.text.MSS_GPIO_config_byte,"ax",@progbits
 489              		.align	1
 490              		.globl	MSS_GPIO_config_byte
 492              	MSS_GPIO_config_byte:
 493              	.LFB25:
 167:../src/platform/drivers/mss/mss_gpio/mss_gpio.c ****     if (((GPIO0_LO == gpio) || (GPIO0_HI == gpio)) &&
 494              		.loc 2 167 1 is_stmt 1
 495              		.cfi_startproc
 496              	.LVL49:
 168:../src/platform/drivers/mss/mss_gpio/mss_gpio.c ****                                                  (byte_num >= MSS_GPIO_BYTE_1))
 497              		.loc 2 168 5
 168:../src/platform/drivers/mss/mss_gpio/mss_gpio.c ****                                                  (byte_num >= MSS_GPIO_BYTE_1))
 498              		.loc 2 168 8 is_stmt 0
 499 0000 B7071220 		li	a5,538050560
 500 0004 6306F500 		beq	a0,a5,.L33
 168:../src/platform/drivers/mss/mss_gpio/mss_gpio.c ****                                                  (byte_num >= MSS_GPIO_BYTE_1))
 501              		.loc 2 168 29 discriminator 2
 502 0008 B7071228 		li	a5,672268288
 503 000c 6315F500 		bne	a0,a5,.L34
 504              	.L33:
 168:../src/platform/drivers/mss/mss_gpio/mss_gpio.c ****                                                  (byte_num >= MSS_GPIO_BYTE_1))
 505              		.loc 2 168 52 discriminator 3
 506 0010 A1C1     		beq	a1,zero,.L35
 507              	.L44:
 181:../src/platform/drivers/mss/mss_gpio/mss_gpio.c ****     }
 508              		.loc 2 181 9 is_stmt 1 discriminator 1
 181:../src/platform/drivers/mss/mss_gpio/mss_gpio.c ****     }
 509              		.loc 2 181 9 discriminator 1
 181:../src/platform/drivers/mss/mss_gpio/mss_gpio.c ****     }
 510              		.loc 2 181 9 discriminator 1
 511              	 #APP
 512              	# 181 "../src/platform/drivers/mss/mss_gpio/mss_gpio.c" 1
 181:../src/platform/drivers/mss/mss_gpio/mss_gpio.c ****     }
 513              		ebreak
 514              	# 0 "" 2
 515              		.loc 2 181 18 discriminator 1
 181:../src/platform/drivers/mss/mss_gpio/mss_gpio.c ****     }
 516              		.loc 2 181 9 is_stmt 0 discriminator 1
 517              	 #NO_APP
 518 0014 8280     		ret
 519              	.L34:
 173:../src/platform/drivers/mss/mss_gpio/mss_gpio.c ****                                                   (byte_num > MSS_GPIO_BYTE_2))
 520              		.loc 2 173 10 is_stmt 1
 173:../src/platform/drivers/mss/mss_gpio/mss_gpio.c ****                                                   (byte_num > MSS_GPIO_BYTE_2))
 521              		.loc 2 173 13 is_stmt 0
 522 0016 B7171220 		li	a5,538054656
 523 001a 6306F500 		beq	a0,a5,.L37
 524              	.L42:
 173:../src/platform/drivers/mss/mss_gpio/mss_gpio.c ****                                                   (byte_num > MSS_GPIO_BYTE_2))
 525              		.loc 2 173 34 discriminator 2
 526 001e B7171228 		li	a5,672272384
 527 0022 6314F500 		bne	a0,a5,.L43
 528              	.L37:
 173:../src/platform/drivers/mss/mss_gpio/mss_gpio.c ****                                                   (byte_num > MSS_GPIO_BYTE_2))
 529              		.loc 2 173 57
 530 0026 8947     		li	a5,2
 531 0028 11A8     		j	.L45
 532              	.L43:
 178:../src/platform/drivers/mss/mss_gpio/mss_gpio.c ****                                                   (byte_num > MSS_GPIO_BYTE_3))
 533              		.loc 2 178 10 is_stmt 1
 178:../src/platform/drivers/mss/mss_gpio/mss_gpio.c ****                                                   (byte_num > MSS_GPIO_BYTE_3))
 534              		.loc 2 178 13 is_stmt 0
 535 002a B7271220 		li	a5,538058752
 536 002e 6306F500 		beq	a0,a5,.L39
 178:../src/platform/drivers/mss/mss_gpio/mss_gpio.c ****                                                   (byte_num > MSS_GPIO_BYTE_3))
 537              		.loc 2 178 34 discriminator 2
 538 0032 B7271228 		li	a5,672276480
 539 0036 6315F500 		bne	a0,a5,.L40
 540              	.L39:
 178:../src/platform/drivers/mss/mss_gpio/mss_gpio.c ****                                                   (byte_num > MSS_GPIO_BYTE_3))
 541              		.loc 2 178 57 discriminator 3
 542 003a 8D47     		li	a5,3
 543              	.L45:
 544 003c E3EBB7FC 		bgtu	a1,a5,.L44
 545              	.L40:
 185:../src/platform/drivers/mss/mss_gpio/mss_gpio.c ****     }
 546              		.loc 2 185 9 is_stmt 1
 185:../src/platform/drivers/mss/mss_gpio/mss_gpio.c ****     }
 547              		.loc 2 185 39 is_stmt 0
 548 0040 8215     		slli	a1,a1,32
 549              	.LVL50:
 550 0042 8191     		srli	a1,a1,32
 551 0044 93854502 		addi	a1,a1,36
 552 0048 8A05     		slli	a1,a1,2
 553 004a 2E95     		add	a0,a0,a1
 554              	.LVL51:
 555 004c 10C1     		sw	a2,0(a0)
 187:../src/platform/drivers/mss/mss_gpio/mss_gpio.c **** 
 556              		.loc 2 187 1
 557 004e 8280     		ret
 558              	.LVL52:
 559              	.L35:
 173:../src/platform/drivers/mss/mss_gpio/mss_gpio.c ****                                                   (byte_num > MSS_GPIO_BYTE_2))
 560              		.loc 2 173 10 is_stmt 1
 173:../src/platform/drivers/mss/mss_gpio/mss_gpio.c ****                                                   (byte_num > MSS_GPIO_BYTE_2))
 561              		.loc 2 173 13 is_stmt 0
 562 0050 B7171220 		li	a5,538054656
 563 0054 E315F5FC 		bne	a0,a5,.L42
 564 0058 E5B7     		j	.L40
 565              		.cfi_endproc
 566              	.LFE25:
 568              		.section	.text.MSS_GPIO_config_all,"ax",@progbits
 569              		.align	1
 570              		.globl	MSS_GPIO_config_all
 572              	MSS_GPIO_config_all:
 573              	.LFB26:
 198:../src/platform/drivers/mss/mss_gpio/mss_gpio.c ****     gpio->GPIO_CFG_ALL = config;
 574              		.loc 2 198 1 is_stmt 1
 575              		.cfi_startproc
 576              	.LVL53:
 199:../src/platform/drivers/mss/mss_gpio/mss_gpio.c **** }
 577              		.loc 2 199 5
 199:../src/platform/drivers/mss/mss_gpio/mss_gpio.c **** }
 578              		.loc 2 199 24 is_stmt 0
 579 0000 2326B508 		sw	a1,140(a0)
 200:../src/platform/drivers/mss/mss_gpio/mss_gpio.c **** 
 580              		.loc 2 200 1
 581 0004 8280     		ret
 582              		.cfi_endproc
 583              	.LFE26:
 585              		.section	.text.MSS_GPIO_set_output,"ax",@progbits
 586              		.align	1
 587              		.globl	MSS_GPIO_set_output
 589              	MSS_GPIO_set_output:
 590              	.LFB27:
 212:../src/platform/drivers/mss/mss_gpio/mss_gpio.c ****     if (0U == gpio_number_validate(gpio, port_id))
 591              		.loc 2 212 1 is_stmt 1
 592              		.cfi_startproc
 593              	.LVL54:
 213:../src/platform/drivers/mss/mss_gpio/mss_gpio.c ****     {
 594              		.loc 2 213 5
 212:../src/platform/drivers/mss/mss_gpio/mss_gpio.c ****     if (0U == gpio_number_validate(gpio, port_id))
 595              		.loc 2 212 1 is_stmt 0
 596 0000 7971     		addi	sp,sp,-48
 597              		.cfi_def_cfa_offset 48
 598 0002 22F0     		sd	s0,32(sp)
 599 0004 26EC     		sd	s1,24(sp)
 600 0006 06F4     		sd	ra,40(sp)
 601              		.cfi_offset 8, -16
 602              		.cfi_offset 9, -24
 603              		.cfi_offset 1, -8
 212:../src/platform/drivers/mss/mss_gpio/mss_gpio.c ****     if (0U == gpio_number_validate(gpio, port_id))
 604              		.loc 2 212 1
 605 0008 2A84     		mv	s0,a0
 606 000a AE84     		mv	s1,a1
 607 000c 32E4     		sd	a2,8(sp)
 213:../src/platform/drivers/mss/mss_gpio/mss_gpio.c ****     {
 608              		.loc 2 213 15
 609 000e 97000000 		call	gpio_number_validate
 609      E7800000 
 610              	.LVL55:
 213:../src/platform/drivers/mss/mss_gpio/mss_gpio.c ****     {
 611              		.loc 2 213 8
 612 0016 05E1     		bne	a0,zero,.L48
 220:../src/platform/drivers/mss/mss_gpio/mss_gpio.c ****         {
 613              		.loc 2 220 9 is_stmt 1
 220:../src/platform/drivers/mss/mss_gpio/mss_gpio.c ****         {
 614              		.loc 2 220 12 is_stmt 0
 615 0018 2266     		ld	a2,8(sp)
 616 001a 8545     		li	a1,1
 617 001c BB959500 		sllw	a1,a1,s1
 618 0020 01CA     		beq	a2,zero,.L49
 222:../src/platform/drivers/mss/mss_gpio/mss_gpio.c ****         }
 619              		.loc 2 222 13 is_stmt 1
 222:../src/platform/drivers/mss/mss_gpio/mss_gpio.c ****         }
 620              		.loc 2 222 33 is_stmt 0
 621 0022 2322B40A 		sw	a1,164(s0)
 622              	.L47:
 233:../src/platform/drivers/mss/mss_gpio/mss_gpio.c **** 
 623              		.loc 2 233 1
 624 0026 A270     		ld	ra,40(sp)
 625              		.cfi_remember_state
 626              		.cfi_restore 1
 627 0028 0274     		ld	s0,32(sp)
 628              		.cfi_restore 8
 629              	.LVL56:
 630 002a E264     		ld	s1,24(sp)
 631              		.cfi_restore 9
 632 002c 4561     		addi	sp,sp,48
 633              		.cfi_def_cfa_offset 0
 634 002e 8280     		jr	ra
 635              	.LVL57:
 636              	.L49:
 637              		.cfi_restore_state
 226:../src/platform/drivers/mss/mss_gpio/mss_gpio.c ****         }
 638              		.loc 2 226 13 is_stmt 1
 226:../src/platform/drivers/mss/mss_gpio/mss_gpio.c ****         }
 639              		.loc 2 226 33 is_stmt 0
 640 0030 2320B40A 		sw	a1,160(s0)
 641 0034 CDBF     		j	.L47
 642              	.L48:
 231:../src/platform/drivers/mss/mss_gpio/mss_gpio.c ****     }
 643              		.loc 2 231 9 is_stmt 1 discriminator 1
 231:../src/platform/drivers/mss/mss_gpio/mss_gpio.c ****     }
 644              		.loc 2 231 9 discriminator 1
 231:../src/platform/drivers/mss/mss_gpio/mss_gpio.c ****     }
 645              		.loc 2 231 9 discriminator 1
 646              	 #APP
 647              	# 231 "../src/platform/drivers/mss/mss_gpio/mss_gpio.c" 1
 231:../src/platform/drivers/mss/mss_gpio/mss_gpio.c ****     }
 648              		ebreak
 649              	# 0 "" 2
 650              		.loc 2 231 18 discriminator 1
 233:../src/platform/drivers/mss/mss_gpio/mss_gpio.c **** 
 651              		.loc 2 233 1 is_stmt 0 discriminator 1
 652              	 #NO_APP
 653 0038 FDB7     		j	.L47
 654              		.cfi_endproc
 655              	.LFE27:
 657              		.section	.text.MSS_GPIO_drive_inout,"ax",@progbits
 658              		.align	1
 659              		.globl	MSS_GPIO_drive_inout
 661              	MSS_GPIO_drive_inout:
 662              	.LFB28:
 245:../src/platform/drivers/mss/mss_gpio/mss_gpio.c ****     uint32_t config;
 663              		.loc 2 245 1 is_stmt 1
 664              		.cfi_startproc
 665              	.LVL58:
 246:../src/platform/drivers/mss/mss_gpio/mss_gpio.c ****     
 666              		.loc 2 246 5
 248:../src/platform/drivers/mss/mss_gpio/mss_gpio.c ****     {
 667              		.loc 2 248 5
 245:../src/platform/drivers/mss/mss_gpio/mss_gpio.c ****     uint32_t config;
 668              		.loc 2 245 1 is_stmt 0
 669 0000 7971     		addi	sp,sp,-48
 670              		.cfi_def_cfa_offset 48
 671 0002 22F0     		sd	s0,32(sp)
 672 0004 26EC     		sd	s1,24(sp)
 673 0006 06F4     		sd	ra,40(sp)
 674              		.cfi_offset 8, -16
 675              		.cfi_offset 9, -24
 676              		.cfi_offset 1, -8
 245:../src/platform/drivers/mss/mss_gpio/mss_gpio.c ****     uint32_t config;
 677              		.loc 2 245 1
 678 0008 AA84     		mv	s1,a0
 679 000a 2E84     		mv	s0,a1
 680 000c 32E4     		sd	a2,8(sp)
 248:../src/platform/drivers/mss/mss_gpio/mss_gpio.c ****     {
 681              		.loc 2 248 15
 682 000e 97000000 		call	gpio_number_validate
 682      E7800000 
 683              	.LVL59:
 248:../src/platform/drivers/mss/mss_gpio/mss_gpio.c ****     {
 684              		.loc 2 248 8
 685 0016 09E9     		bne	a0,zero,.L53
 250:../src/platform/drivers/mss/mss_gpio/mss_gpio.c ****         {
 686              		.loc 2 250 9 is_stmt 1
 687 0018 2266     		ld	a2,8(sp)
 688 001a 8547     		li	a5,1
 689 001c 6308F600 		beq	a2,a5,.L54
 690 0020 0DCA     		beq	a2,zero,.L55
 691 0022 8947     		li	a5,2
 692 0024 6306F604 		beq	a2,a5,.L56
 693              	.L53:
 285:../src/platform/drivers/mss/mss_gpio/mss_gpio.c ****     }
 694              		.loc 2 285 9 discriminator 1
 285:../src/platform/drivers/mss/mss_gpio/mss_gpio.c ****     }
 695              		.loc 2 285 9 discriminator 1
 285:../src/platform/drivers/mss/mss_gpio/mss_gpio.c ****     }
 696              		.loc 2 285 9 discriminator 1
 697              	 #APP
 698              	# 285 "../src/platform/drivers/mss/mss_gpio/mss_gpio.c" 1
 285:../src/platform/drivers/mss/mss_gpio/mss_gpio.c ****     }
 699              		ebreak
 700              	# 0 "" 2
 701              		.loc 2 285 18 discriminator 1
 287:../src/platform/drivers/mss/mss_gpio/mss_gpio.c **** 
 702              		.loc 2 287 1 is_stmt 0 discriminator 1
 703              	 #NO_APP
 704 002a 39A8     		j	.L52
 705              	.L54:
 254:../src/platform/drivers/mss/mss_gpio/mss_gpio.c **** 
 706              		.loc 2 254 17 is_stmt 1
 254:../src/platform/drivers/mss/mss_gpio/mss_gpio.c **** 
 707              		.loc 2 254 52 is_stmt 0
 708 002c 8547     		li	a5,1
 709 002e BB978700 		sllw	a5,a5,s0
 710 0032 0214     		slli	s0,s0,32
 711 0034 1357E401 		srli	a4,s0,30
 254:../src/platform/drivers/mss/mss_gpio/mss_gpio.c **** 
 712              		.loc 2 254 37
 713 0038 23A2F40A 		sw	a5,164(s1)
 257:../src/platform/drivers/mss/mss_gpio/mss_gpio.c ****                 config |= OUTPUT_BUFFER_ENABLE_MASK;
 714              		.loc 2 257 17 is_stmt 1
 715 003c 2697     		add	a4,s1,a4
 257:../src/platform/drivers/mss/mss_gpio/mss_gpio.c ****                 config |= OUTPUT_BUFFER_ENABLE_MASK;
 716              		.loc 2 257 24 is_stmt 0
 717 003e 1C43     		lw	a5,0(a4)
 718 0040 8127     		sext.w	a5,a5
 719              	.LVL60:
 258:../src/platform/drivers/mss/mss_gpio/mss_gpio.c ****                 gpio->GPIO_CFG[port_id] = config;
 720              		.loc 2 258 17 is_stmt 1
 258:../src/platform/drivers/mss/mss_gpio/mss_gpio.c ****                 gpio->GPIO_CFG[port_id] = config;
 721              		.loc 2 258 24 is_stmt 0
 722 0042 93E74700 		ori	a5,a5,4
 723              	.LVL61:
 259:../src/platform/drivers/mss/mss_gpio/mss_gpio.c ****             break;
 724              		.loc 2 259 17 is_stmt 1
 259:../src/platform/drivers/mss/mss_gpio/mss_gpio.c ****             break;
 725              		.loc 2 259 41 is_stmt 0
 726 0046 1CC3     		sw	a5,0(a4)
 260:../src/platform/drivers/mss/mss_gpio/mss_gpio.c **** 
 727              		.loc 2 260 13 is_stmt 1
 728              	.LVL62:
 729              	.L52:
 287:../src/platform/drivers/mss/mss_gpio/mss_gpio.c **** 
 730              		.loc 2 287 1 is_stmt 0
 731 0048 A270     		ld	ra,40(sp)
 732              		.cfi_remember_state
 733              		.cfi_restore 1
 734 004a 0274     		ld	s0,32(sp)
 735              		.cfi_restore 8
 736 004c E264     		ld	s1,24(sp)
 737              		.cfi_restore 9
 738              	.LVL63:
 739 004e 4561     		addi	sp,sp,48
 740              		.cfi_def_cfa_offset 0
 741 0050 8280     		jr	ra
 742              	.LVL64:
 743              	.L55:
 744              		.cfi_restore_state
 264:../src/platform/drivers/mss/mss_gpio/mss_gpio.c ****                 /* Enable output buffer */
 745              		.loc 2 264 17 is_stmt 1
 264:../src/platform/drivers/mss/mss_gpio/mss_gpio.c ****                 /* Enable output buffer */
 746              		.loc 2 264 51 is_stmt 0
 747 0052 8547     		li	a5,1
 748 0054 BB978700 		sllw	a5,a5,s0
 749 0058 0214     		slli	s0,s0,32
 264:../src/platform/drivers/mss/mss_gpio/mss_gpio.c ****                 /* Enable output buffer */
 750              		.loc 2 264 37
 751 005a 23A0F40A 		sw	a5,160(s1)
 266:../src/platform/drivers/mss/mss_gpio/mss_gpio.c ****                 config |= OUTPUT_BUFFER_ENABLE_MASK;
 752              		.loc 2 266 17 is_stmt 1
 753 005e 9357E401 		srli	a5,s0,30
 754 0062 A697     		add	a5,s1,a5
 266:../src/platform/drivers/mss/mss_gpio/mss_gpio.c ****                 config |= OUTPUT_BUFFER_ENABLE_MASK;
 755              		.loc 2 266 24 is_stmt 0
 756 0064 9843     		lw	a4,0(a5)
 757 0066 0127     		sext.w	a4,a4
 758              	.LVL65:
 267:../src/platform/drivers/mss/mss_gpio/mss_gpio.c ****                 gpio->GPIO_CFG[port_id] = config;
 759              		.loc 2 267 17 is_stmt 1
 267:../src/platform/drivers/mss/mss_gpio/mss_gpio.c ****                 gpio->GPIO_CFG[port_id] = config;
 760              		.loc 2 267 24 is_stmt 0
 761 0068 13674700 		ori	a4,a4,4
 762              	.LVL66:
 268:../src/platform/drivers/mss/mss_gpio/mss_gpio.c ****             break;
 763              		.loc 2 268 17 is_stmt 1
 268:../src/platform/drivers/mss/mss_gpio/mss_gpio.c ****             break;
 764              		.loc 2 268 41 is_stmt 0
 765 006c 98C3     		sw	a4,0(a5)
 269:../src/platform/drivers/mss/mss_gpio/mss_gpio.c **** 
 766              		.loc 2 269 13 is_stmt 1
 767 006e E9BF     		j	.L52
 768              	.LVL67:
 769              	.L56:
 273:../src/platform/drivers/mss/mss_gpio/mss_gpio.c ****                 config &= ~OUTPUT_BUFFER_ENABLE_MASK;
 770              		.loc 2 273 17
 771 0070 0214     		slli	s0,s0,32
 772 0072 7980     		srli	s0,s0,30
 773 0074 2694     		add	s0,s1,s0
 273:../src/platform/drivers/mss/mss_gpio/mss_gpio.c ****                 config &= ~OUTPUT_BUFFER_ENABLE_MASK;
 774              		.loc 2 273 24 is_stmt 0
 775 0076 1C40     		lw	a5,0(s0)
 776 0078 8127     		sext.w	a5,a5
 777              	.LVL68:
 274:../src/platform/drivers/mss/mss_gpio/mss_gpio.c ****                 gpio->GPIO_CFG[port_id] = config;
 778              		.loc 2 274 17 is_stmt 1
 274:../src/platform/drivers/mss/mss_gpio/mss_gpio.c ****                 gpio->GPIO_CFG[port_id] = config;
 779              		.loc 2 274 24 is_stmt 0
 780 007a ED9B     		andi	a5,a5,-5
 781              	.LVL69:
 275:../src/platform/drivers/mss/mss_gpio/mss_gpio.c ****             break;
 782              		.loc 2 275 17 is_stmt 1
 275:../src/platform/drivers/mss/mss_gpio/mss_gpio.c ****             break;
 783              		.loc 2 275 41 is_stmt 0
 784 007c 1CC0     		sw	a5,0(s0)
 276:../src/platform/drivers/mss/mss_gpio/mss_gpio.c **** 
 785              		.loc 2 276 13 is_stmt 1
 786 007e E9B7     		j	.L52
 787              		.cfi_endproc
 788              	.LFE28:
 790              		.section	.text.MSS_GPIO_enable_irq,"ax",@progbits
 791              		.align	1
 792              		.globl	MSS_GPIO_enable_irq
 794              	MSS_GPIO_enable_irq:
 795              	.LFB29:
 298:../src/platform/drivers/mss/mss_gpio/mss_gpio.c ****     uint32_t cfg_value;
 796              		.loc 2 298 1
 797              		.cfi_startproc
 798              	.LVL70:
 299:../src/platform/drivers/mss/mss_gpio/mss_gpio.c **** 
 799              		.loc 2 299 5
 301:../src/platform/drivers/mss/mss_gpio/mss_gpio.c ****     {
 800              		.loc 2 301 5
 298:../src/platform/drivers/mss/mss_gpio/mss_gpio.c ****     uint32_t cfg_value;
 801              		.loc 2 298 1 is_stmt 0
 802 0000 0111     		addi	sp,sp,-32
 803              		.cfi_def_cfa_offset 32
 804 0002 22E8     		sd	s0,16(sp)
 805 0004 26E4     		sd	s1,8(sp)
 806 0006 06EC     		sd	ra,24(sp)
 807              		.cfi_offset 8, -16
 808              		.cfi_offset 9, -24
 809              		.cfi_offset 1, -8
 298:../src/platform/drivers/mss/mss_gpio/mss_gpio.c ****     uint32_t cfg_value;
 810              		.loc 2 298 1
 811 0008 AA84     		mv	s1,a0
 812 000a 2E84     		mv	s0,a1
 301:../src/platform/drivers/mss/mss_gpio/mss_gpio.c ****     {
 813              		.loc 2 301 15
 814 000c 97000000 		call	gpio_number_validate
 814      E7800000 
 815              	.LVL71:
 301:../src/platform/drivers/mss/mss_gpio/mss_gpio.c ****     {
 816              		.loc 2 301 8
 817 0014 25E5     		bne	a0,zero,.L62
 303:../src/platform/drivers/mss/mss_gpio/mss_gpio.c ****         gpio->GPIO_CFG[(uint8_t)port_id] = (cfg_value | GPIO_INT_ENABLE_MASK);
 818              		.loc 2 303 9 is_stmt 1
 819 0016 9377F40F 		andi	a5,s0,0xff
 820 001a 8A07     		slli	a5,a5,2
 821 001c A697     		add	a5,s1,a5
 303:../src/platform/drivers/mss/mss_gpio/mss_gpio.c ****         gpio->GPIO_CFG[(uint8_t)port_id] = (cfg_value | GPIO_INT_ENABLE_MASK);
 822              		.loc 2 303 19 is_stmt 0
 823 001e 9843     		lw	a4,0(a5)
 824 0020 0127     		sext.w	a4,a4
 825              	.LVL72:
 304:../src/platform/drivers/mss/mss_gpio/mss_gpio.c **** 
 826              		.loc 2 304 9 is_stmt 1
 304:../src/platform/drivers/mss/mss_gpio/mss_gpio.c **** 
 827              		.loc 2 304 55 is_stmt 0
 828 0022 13678700 		ori	a4,a4,8
 829              	.LVL73:
 304:../src/platform/drivers/mss/mss_gpio/mss_gpio.c **** 
 830              		.loc 2 304 42
 831 0026 98C3     		sw	a4,0(a5)
 306:../src/platform/drivers/mss/mss_gpio/mss_gpio.c ****         {
 832              		.loc 2 306 9 is_stmt 1
 306:../src/platform/drivers/mss/mss_gpio/mss_gpio.c ****         {
 833              		.loc 2 306 12 is_stmt 0
 834 0028 B7071220 		li	a5,538050560
 835 002c 6386F400 		beq	s1,a5,.L69
 306:../src/platform/drivers/mss/mss_gpio/mss_gpio.c ****         {
 836              		.loc 2 306 32 discriminator 1
 837 0030 B7071228 		li	a5,672268288
 838 0034 6392F402 		bne	s1,a5,.L64
 839              	.L69:
 312:../src/platform/drivers/mss/mss_gpio/mss_gpio.c ****                                            GPIO1_BIT0_or_GPIO2_BIT14_PLIC_14]);
 840              		.loc 2 312 13
 841 0038 0214     		slli	s0,s0,32
 842 003a 7980     		srli	s0,s0,30
 843 003c 97070000 		lla	a5,.LANCHOR0
 843      93870700 
 844 0044 3E94     		add	s0,a5,s0
 845 0046 0840     		lw	a0,0(s0)
 328:../src/platform/drivers/mss/mss_gpio/mss_gpio.c **** 
 846              		.loc 2 328 1
 847 0048 4264     		ld	s0,16(sp)
 848              		.cfi_remember_state
 849              		.cfi_restore 8
 850 004a E260     		ld	ra,24(sp)
 851              		.cfi_restore 1
 852 004c A264     		ld	s1,8(sp)
 853              		.cfi_restore 9
 854              	.LVL74:
 855 004e 0561     		addi	sp,sp,32
 856              		.cfi_def_cfa_offset 0
 312:../src/platform/drivers/mss/mss_gpio/mss_gpio.c ****                                            GPIO1_BIT0_or_GPIO2_BIT14_PLIC_14]);
 857              		.loc 2 312 13
 858 0050 17030000 		tail	PLIC_EnableIRQ
 858      67000300 
 859              	.LVL75:
 860              	.L64:
 861              		.cfi_restore_state
 310:../src/platform/drivers/mss/mss_gpio/mss_gpio.c ****         {
 862              		.loc 2 310 14 is_stmt 1
 310:../src/platform/drivers/mss/mss_gpio/mss_gpio.c ****         {
 863              		.loc 2 310 17 is_stmt 0
 864 0058 B7171220 		li	a5,538054656
 865 005c 6386F400 		beq	s1,a5,.L65
 310:../src/platform/drivers/mss/mss_gpio/mss_gpio.c ****         {
 866              		.loc 2 310 37 discriminator 1
 867 0060 B7171228 		li	a5,672272384
 868 0064 6394F400 		bne	s1,a5,.L66
 869              	.L65:
 312:../src/platform/drivers/mss/mss_gpio/mss_gpio.c ****                                            GPIO1_BIT0_or_GPIO2_BIT14_PLIC_14]);
 870              		.loc 2 312 13 is_stmt 1
 312:../src/platform/drivers/mss/mss_gpio/mss_gpio.c ****                                            GPIO1_BIT0_or_GPIO2_BIT14_PLIC_14]);
 871              		.loc 2 312 52 is_stmt 0
 872 0068 6D24     		addiw	s0,s0,27
 873 006a F9B7     		j	.L69
 874              	.L66:
 315:../src/platform/drivers/mss/mss_gpio/mss_gpio.c ****         {
 875              		.loc 2 315 14 is_stmt 1
 315:../src/platform/drivers/mss/mss_gpio/mss_gpio.c ****         {
 876              		.loc 2 315 17 is_stmt 0
 877 006c B7271220 		li	a5,538058752
 878 0070 E384F4FC 		beq	s1,a5,.L69
 315:../src/platform/drivers/mss/mss_gpio/mss_gpio.c ****         {
 879              		.loc 2 315 37 discriminator 1
 880 0074 B7271228 		li	a5,672276480
 881 0078 E380F4FC 		beq	s1,a5,.L69
 882              	.L62:
 326:../src/platform/drivers/mss/mss_gpio/mss_gpio.c ****     }
 883              		.loc 2 326 9 is_stmt 1 discriminator 1
 326:../src/platform/drivers/mss/mss_gpio/mss_gpio.c ****     }
 884              		.loc 2 326 9 discriminator 1
 326:../src/platform/drivers/mss/mss_gpio/mss_gpio.c ****     }
 885              		.loc 2 326 9 discriminator 1
 886              	 #APP
 887              	# 326 "../src/platform/drivers/mss/mss_gpio/mss_gpio.c" 1
 326:../src/platform/drivers/mss/mss_gpio/mss_gpio.c ****     }
 888              		ebreak
 889              	# 0 "" 2
 890              		.loc 2 326 18 discriminator 1
 328:../src/platform/drivers/mss/mss_gpio/mss_gpio.c **** 
 891              		.loc 2 328 1 is_stmt 0 discriminator 1
 892              	 #NO_APP
 893 007e E260     		ld	ra,24(sp)
 894              		.cfi_restore 1
 895 0080 4264     		ld	s0,16(sp)
 896              		.cfi_restore 8
 897 0082 A264     		ld	s1,8(sp)
 898              		.cfi_restore 9
 899              	.LVL76:
 900 0084 0561     		addi	sp,sp,32
 901              		.cfi_def_cfa_offset 0
 902 0086 8280     		jr	ra
 903              		.cfi_endproc
 904              	.LFE29:
 906              		.section	.text.MSS_GPIO_disable_irq,"ax",@progbits
 907              		.align	1
 908              		.globl	MSS_GPIO_disable_irq
 910              	MSS_GPIO_disable_irq:
 911              	.LFB30:
 340:../src/platform/drivers/mss/mss_gpio/mss_gpio.c ****     uint32_t cfg_value;
 912              		.loc 2 340 1 is_stmt 1
 913              		.cfi_startproc
 914              	.LVL77:
 341:../src/platform/drivers/mss/mss_gpio/mss_gpio.c **** 
 915              		.loc 2 341 5
 343:../src/platform/drivers/mss/mss_gpio/mss_gpio.c ****     {
 916              		.loc 2 343 5
 340:../src/platform/drivers/mss/mss_gpio/mss_gpio.c ****     uint32_t cfg_value;
 917              		.loc 2 340 1 is_stmt 0
 918 0000 0111     		addi	sp,sp,-32
 919              		.cfi_def_cfa_offset 32
 920 0002 22E8     		sd	s0,16(sp)
 921 0004 26E4     		sd	s1,8(sp)
 922 0006 06EC     		sd	ra,24(sp)
 923              		.cfi_offset 8, -16
 924              		.cfi_offset 9, -24
 925              		.cfi_offset 1, -8
 340:../src/platform/drivers/mss/mss_gpio/mss_gpio.c ****     uint32_t cfg_value;
 926              		.loc 2 340 1
 927 0008 AA84     		mv	s1,a0
 928 000a 2E84     		mv	s0,a1
 343:../src/platform/drivers/mss/mss_gpio/mss_gpio.c ****     {
 929              		.loc 2 343 15
 930 000c 97000000 		call	gpio_number_validate
 930      E7800000 
 931              	.LVL78:
 343:../src/platform/drivers/mss/mss_gpio/mss_gpio.c ****     {
 932              		.loc 2 343 8
 933 0014 35E5     		bne	a0,zero,.L71
 345:../src/platform/drivers/mss/mss_gpio/mss_gpio.c ****         gpio->GPIO_CFG[(uint8_t)port_id] = (cfg_value & (~GPIO_INT_ENABLE_MASK));
 934              		.loc 2 345 9 is_stmt 1
 935 0016 9377F40F 		andi	a5,s0,0xff
 936 001a 8A07     		slli	a5,a5,2
 937 001c A697     		add	a5,s1,a5
 345:../src/platform/drivers/mss/mss_gpio/mss_gpio.c ****         gpio->GPIO_CFG[(uint8_t)port_id] = (cfg_value & (~GPIO_INT_ENABLE_MASK));
 938              		.loc 2 345 19 is_stmt 0
 939 001e 9843     		lw	a4,0(a5)
 940 0020 0127     		sext.w	a4,a4
 941              	.LVL79:
 346:../src/platform/drivers/mss/mss_gpio/mss_gpio.c **** 
 942              		.loc 2 346 9 is_stmt 1
 346:../src/platform/drivers/mss/mss_gpio/mss_gpio.c **** 
 943              		.loc 2 346 55 is_stmt 0
 944 0022 5D9B     		andi	a4,a4,-9
 945              	.LVL80:
 346:../src/platform/drivers/mss/mss_gpio/mss_gpio.c **** 
 946              		.loc 2 346 42
 947 0024 98C3     		sw	a4,0(a5)
 348:../src/platform/drivers/mss/mss_gpio/mss_gpio.c ****         {
 948              		.loc 2 348 9 is_stmt 1
 348:../src/platform/drivers/mss/mss_gpio/mss_gpio.c ****         {
 949              		.loc 2 348 12 is_stmt 0
 950 0026 B7071220 		li	a5,538050560
 951 002a 6386F400 		beq	s1,a5,.L81
 348:../src/platform/drivers/mss/mss_gpio/mss_gpio.c ****         {
 952              		.loc 2 348 32 discriminator 1
 953 002e B7071228 		li	a5,672268288
 954 0032 6392F402 		bne	s1,a5,.L73
 955              	.L81:
 354:../src/platform/drivers/mss/mss_gpio/mss_gpio.c ****                                             GPIO1_BIT0_or_GPIO2_BIT14_PLIC_14]);
 956              		.loc 2 354 13
 957 0036 0214     		slli	s0,s0,32
 958 0038 7980     		srli	s0,s0,30
 959 003a 97070000 		lla	a5,.LANCHOR0
 959      93870700 
 960 0042 3E94     		add	s0,a5,s0
 961 0044 0840     		lw	a0,0(s0)
 962              	.L80:
 370:../src/platform/drivers/mss/mss_gpio/mss_gpio.c **** 
 963              		.loc 2 370 1
 964 0046 4264     		ld	s0,16(sp)
 965              		.cfi_remember_state
 966              		.cfi_restore 8
 967 0048 E260     		ld	ra,24(sp)
 968              		.cfi_restore 1
 969 004a A264     		ld	s1,8(sp)
 970              		.cfi_restore 9
 971              	.LVL81:
 972 004c 0561     		addi	sp,sp,32
 973              		.cfi_def_cfa_offset 0
 359:../src/platform/drivers/mss/mss_gpio/mss_gpio.c ****         }
 974              		.loc 2 359 13
 975 004e 17030000 		tail	PLIC_DisableIRQ
 975      67000300 
 976              	.LVL82:
 977              	.L73:
 978              		.cfi_restore_state
 352:../src/platform/drivers/mss/mss_gpio/mss_gpio.c ****         {
 979              		.loc 2 352 14 is_stmt 1
 352:../src/platform/drivers/mss/mss_gpio/mss_gpio.c ****         {
 980              		.loc 2 352 17 is_stmt 0
 981 0056 B7171220 		li	a5,538054656
 982 005a 6386F400 		beq	s1,a5,.L74
 352:../src/platform/drivers/mss/mss_gpio/mss_gpio.c ****         {
 983              		.loc 2 352 37 discriminator 1
 984 005e B7171228 		li	a5,672272384
 985 0062 6394F400 		bne	s1,a5,.L75
 986              	.L74:
 354:../src/platform/drivers/mss/mss_gpio/mss_gpio.c ****                                             GPIO1_BIT0_or_GPIO2_BIT14_PLIC_14]);
 987              		.loc 2 354 13 is_stmt 1
 354:../src/platform/drivers/mss/mss_gpio/mss_gpio.c ****                                             GPIO1_BIT0_or_GPIO2_BIT14_PLIC_14]);
 988              		.loc 2 354 53 is_stmt 0
 989 0066 6D24     		addiw	s0,s0,27
 990 0068 F9B7     		j	.L81
 991              	.L75:
 357:../src/platform/drivers/mss/mss_gpio/mss_gpio.c ****         {
 992              		.loc 2 357 14 is_stmt 1
 357:../src/platform/drivers/mss/mss_gpio/mss_gpio.c ****         {
 993              		.loc 2 357 17 is_stmt 0
 994 006a B7271220 		li	a5,538058752
 995 006e 6386F400 		beq	s1,a5,.L76
 357:../src/platform/drivers/mss/mss_gpio/mss_gpio.c ****         {
 996              		.loc 2 357 37 discriminator 1
 997 0072 B7271228 		li	a5,672276480
 998 0076 6395F400 		bne	s1,a5,.L71
 999              	.L76:
 359:../src/platform/drivers/mss/mss_gpio/mss_gpio.c ****         }
 1000              		.loc 2 359 13 is_stmt 1
 1001 007a 13055003 		li	a0,53
 1002 007e E1B7     		j	.L80
 1003              	.L71:
 368:../src/platform/drivers/mss/mss_gpio/mss_gpio.c ****     }
 1004              		.loc 2 368 9 discriminator 1
 368:../src/platform/drivers/mss/mss_gpio/mss_gpio.c ****     }
 1005              		.loc 2 368 9 discriminator 1
 368:../src/platform/drivers/mss/mss_gpio/mss_gpio.c ****     }
 1006              		.loc 2 368 9 discriminator 1
 1007              	 #APP
 1008              	# 368 "../src/platform/drivers/mss/mss_gpio/mss_gpio.c" 1
 368:../src/platform/drivers/mss/mss_gpio/mss_gpio.c ****     }
 1009              		ebreak
 1010              	# 0 "" 2
 1011              		.loc 2 368 18 discriminator 1
 370:../src/platform/drivers/mss/mss_gpio/mss_gpio.c **** 
 1012              		.loc 2 370 1 is_stmt 0 discriminator 1
 1013              	 #NO_APP
 1014 0082 E260     		ld	ra,24(sp)
 1015              		.cfi_restore 1
 1016 0084 4264     		ld	s0,16(sp)
 1017              		.cfi_restore 8
 1018 0086 A264     		ld	s1,8(sp)
 1019              		.cfi_restore 9
 1020              	.LVL83:
 1021 0088 0561     		addi	sp,sp,32
 1022              		.cfi_def_cfa_offset 0
 1023 008a 8280     		jr	ra
 1024              		.cfi_endproc
 1025              	.LFE30:
 1027              		.section	.text.MSS_GPIO_enable_nondirect_irq,"ax",@progbits
 1028              		.align	1
 1029              		.globl	MSS_GPIO_enable_nondirect_irq
 1031              	MSS_GPIO_enable_nondirect_irq:
 1032              	.LFB31:
 381:../src/platform/drivers/mss/mss_gpio/mss_gpio.c ****     if ((GPIO0_LO == gpio) || (GPIO0_HI == gpio))
 1033              		.loc 2 381 1 is_stmt 1
 1034              		.cfi_startproc
 1035              	.LVL84:
 382:../src/platform/drivers/mss/mss_gpio/mss_gpio.c ****     {
 1036              		.loc 2 382 5
 382:../src/platform/drivers/mss/mss_gpio/mss_gpio.c ****     {
 1037              		.loc 2 382 8 is_stmt 0
 1038 0000 B7071220 		li	a5,538050560
 1039 0004 6306F500 		beq	a0,a5,.L83
 382:../src/platform/drivers/mss/mss_gpio/mss_gpio.c ****     {
 1040              		.loc 2 382 28 discriminator 1
 1041 0008 B7071228 		li	a5,672268288
 1042 000c 6318F500 		bne	a0,a5,.L84
 1043              	.L83:
 384:../src/platform/drivers/mss/mss_gpio/mss_gpio.c ****     }
 1044              		.loc 2 384 9 is_stmt 1
 1045 0010 13053003 		li	a0,51
 1046              	.LVL85:
 1047              	.L89:
 392:../src/platform/drivers/mss/mss_gpio/mss_gpio.c ****     }
 1048              		.loc 2 392 9 is_stmt 0
 1049 0014 17030000 		tail	PLIC_EnableIRQ
 1049      67000300 
 1050              	.LVL86:
 1051              	.L84:
 386:../src/platform/drivers/mss/mss_gpio/mss_gpio.c ****     {
 1052              		.loc 2 386 10 is_stmt 1
 386:../src/platform/drivers/mss/mss_gpio/mss_gpio.c ****     {
 1053              		.loc 2 386 13 is_stmt 0
 1054 001c B7171220 		li	a5,538054656
 1055 0020 6306F500 		beq	a0,a5,.L85
 386:../src/platform/drivers/mss/mss_gpio/mss_gpio.c ****     {
 1056              		.loc 2 386 33 discriminator 1
 1057 0024 B7171228 		li	a5,672272384
 1058 0028 6315F500 		bne	a0,a5,.L86
 1059              	.L85:
 388:../src/platform/drivers/mss/mss_gpio/mss_gpio.c ****     }
 1060              		.loc 2 388 9 is_stmt 1
 1061 002c 13054003 		li	a0,52
 1062              	.LVL87:
 1063 0030 D5B7     		j	.L89
 1064              	.LVL88:
 1065              	.L86:
 390:../src/platform/drivers/mss/mss_gpio/mss_gpio.c ****     {
 1066              		.loc 2 390 10
 390:../src/platform/drivers/mss/mss_gpio/mss_gpio.c ****     {
 1067              		.loc 2 390 13 is_stmt 0
 1068 0032 B7271220 		li	a5,538058752
 1069 0036 6306F500 		beq	a0,a5,.L87
 390:../src/platform/drivers/mss/mss_gpio/mss_gpio.c ****     {
 1070              		.loc 2 390 33 discriminator 1
 1071 003a B7271228 		li	a5,672276480
 1072 003e 6315F500 		bne	a0,a5,.L88
 1073              	.L87:
 392:../src/platform/drivers/mss/mss_gpio/mss_gpio.c ****     }
 1074              		.loc 2 392 9 is_stmt 1
 1075 0042 13055003 		li	a0,53
 1076              	.LVL89:
 1077 0046 F9B7     		j	.L89
 1078              	.LVL90:
 1079              	.L88:
 396:../src/platform/drivers/mss/mss_gpio/mss_gpio.c ****     }
 1080              		.loc 2 396 9 discriminator 1
 396:../src/platform/drivers/mss/mss_gpio/mss_gpio.c ****     }
 1081              		.loc 2 396 9 discriminator 1
 396:../src/platform/drivers/mss/mss_gpio/mss_gpio.c ****     }
 1082              		.loc 2 396 9 discriminator 1
 1083              	 #APP
 1084              	# 396 "../src/platform/drivers/mss/mss_gpio/mss_gpio.c" 1
 396:../src/platform/drivers/mss/mss_gpio/mss_gpio.c ****     }
 1085              		ebreak
 1086              	# 0 "" 2
 1087              		.loc 2 396 18 discriminator 1
 398:../src/platform/drivers/mss/mss_gpio/mss_gpio.c **** 
 1088              		.loc 2 398 1 is_stmt 0 discriminator 1
 1089              	 #NO_APP
 1090 004a 8280     		ret
 1091              		.cfi_endproc
 1092              	.LFE31:
 1094              		.section	.text.MSS_GPIO_disable_nondirect_irq,"ax",@progbits
 1095              		.align	1
 1096              		.globl	MSS_GPIO_disable_nondirect_irq
 1098              	MSS_GPIO_disable_nondirect_irq:
 1099              	.LFB32:
 409:../src/platform/drivers/mss/mss_gpio/mss_gpio.c ****     if ((GPIO0_LO == gpio) || (GPIO0_HI == gpio))
 1100              		.loc 2 409 1 is_stmt 1
 1101              		.cfi_startproc
 1102              	.LVL91:
 410:../src/platform/drivers/mss/mss_gpio/mss_gpio.c ****     {
 1103              		.loc 2 410 5
 410:../src/platform/drivers/mss/mss_gpio/mss_gpio.c ****     {
 1104              		.loc 2 410 8 is_stmt 0
 1105 0000 B7071220 		li	a5,538050560
 1106 0004 6306F500 		beq	a0,a5,.L91
 410:../src/platform/drivers/mss/mss_gpio/mss_gpio.c ****     {
 1107              		.loc 2 410 28 discriminator 1
 1108 0008 B7071228 		li	a5,672268288
 1109 000c 6318F500 		bne	a0,a5,.L92
 1110              	.L91:
 412:../src/platform/drivers/mss/mss_gpio/mss_gpio.c ****     }
 1111              		.loc 2 412 9 is_stmt 1
 1112 0010 13053003 		li	a0,51
 1113              	.LVL92:
 1114              	.L97:
 420:../src/platform/drivers/mss/mss_gpio/mss_gpio.c ****     }
 1115              		.loc 2 420 9 is_stmt 0
 1116 0014 17030000 		tail	PLIC_DisableIRQ
 1116      67000300 
 1117              	.LVL93:
 1118              	.L92:
 414:../src/platform/drivers/mss/mss_gpio/mss_gpio.c ****     {
 1119              		.loc 2 414 10 is_stmt 1
 414:../src/platform/drivers/mss/mss_gpio/mss_gpio.c ****     {
 1120              		.loc 2 414 13 is_stmt 0
 1121 001c B7171220 		li	a5,538054656
 1122 0020 6306F500 		beq	a0,a5,.L93
 414:../src/platform/drivers/mss/mss_gpio/mss_gpio.c ****     {
 1123              		.loc 2 414 33 discriminator 1
 1124 0024 B7171228 		li	a5,672272384
 1125 0028 6315F500 		bne	a0,a5,.L94
 1126              	.L93:
 416:../src/platform/drivers/mss/mss_gpio/mss_gpio.c ****     }
 1127              		.loc 2 416 9 is_stmt 1
 1128 002c 13054003 		li	a0,52
 1129              	.LVL94:
 1130 0030 D5B7     		j	.L97
 1131              	.LVL95:
 1132              	.L94:
 418:../src/platform/drivers/mss/mss_gpio/mss_gpio.c ****     {
 1133              		.loc 2 418 10
 418:../src/platform/drivers/mss/mss_gpio/mss_gpio.c ****     {
 1134              		.loc 2 418 13 is_stmt 0
 1135 0032 B7271220 		li	a5,538058752
 1136 0036 6306F500 		beq	a0,a5,.L95
 418:../src/platform/drivers/mss/mss_gpio/mss_gpio.c ****     {
 1137              		.loc 2 418 33 discriminator 1
 1138 003a B7271228 		li	a5,672276480
 1139 003e 6315F500 		bne	a0,a5,.L96
 1140              	.L95:
 420:../src/platform/drivers/mss/mss_gpio/mss_gpio.c ****     }
 1141              		.loc 2 420 9 is_stmt 1
 1142 0042 13055003 		li	a0,53
 1143              	.LVL96:
 1144 0046 F9B7     		j	.L97
 1145              	.LVL97:
 1146              	.L96:
 424:../src/platform/drivers/mss/mss_gpio/mss_gpio.c ****     }
 1147              		.loc 2 424 9 discriminator 1
 424:../src/platform/drivers/mss/mss_gpio/mss_gpio.c ****     }
 1148              		.loc 2 424 9 discriminator 1
 424:../src/platform/drivers/mss/mss_gpio/mss_gpio.c ****     }
 1149              		.loc 2 424 9 discriminator 1
 1150              	 #APP
 1151              	# 424 "../src/platform/drivers/mss/mss_gpio/mss_gpio.c" 1
 424:../src/platform/drivers/mss/mss_gpio/mss_gpio.c ****     }
 1152              		ebreak
 1153              	# 0 "" 2
 1154              		.loc 2 424 18 discriminator 1
 426:../src/platform/drivers/mss/mss_gpio/mss_gpio.c **** 
 1155              		.loc 2 426 1 is_stmt 0 discriminator 1
 1156              	 #NO_APP
 1157 004a 8280     		ret
 1158              		.cfi_endproc
 1159              	.LFE32:
 1161              		.section	.text.MSS_GPIO_clear_irq,"ax",@progbits
 1162              		.align	1
 1163              		.globl	MSS_GPIO_clear_irq
 1165              	MSS_GPIO_clear_irq:
 1166              	.LFB33:
 437:../src/platform/drivers/mss/mss_gpio/mss_gpio.c ****     if (0U == gpio_number_validate(gpio, port_id))
 1167              		.loc 2 437 1 is_stmt 1
 1168              		.cfi_startproc
 1169              	.LVL98:
 438:../src/platform/drivers/mss/mss_gpio/mss_gpio.c ****     {
 1170              		.loc 2 438 5
 437:../src/platform/drivers/mss/mss_gpio/mss_gpio.c ****     if (0U == gpio_number_validate(gpio, port_id))
 1171              		.loc 2 437 1 is_stmt 0
 1172 0000 0111     		addi	sp,sp,-32
 1173              		.cfi_def_cfa_offset 32
 1174 0002 22E8     		sd	s0,16(sp)
 1175 0004 26E4     		sd	s1,8(sp)
 1176 0006 06EC     		sd	ra,24(sp)
 1177              		.cfi_offset 8, -16
 1178              		.cfi_offset 9, -24
 1179              		.cfi_offset 1, -8
 437:../src/platform/drivers/mss/mss_gpio/mss_gpio.c ****     if (0U == gpio_number_validate(gpio, port_id))
 1180              		.loc 2 437 1
 1181 0008 2A84     		mv	s0,a0
 1182 000a AE84     		mv	s1,a1
 438:../src/platform/drivers/mss/mss_gpio/mss_gpio.c ****     {
 1183              		.loc 2 438 15
 1184 000c 97000000 		call	gpio_number_validate
 1184      E7800000 
 1185              	.LVL99:
 438:../src/platform/drivers/mss/mss_gpio/mss_gpio.c ****     {
 1186              		.loc 2 438 8
 1187 0014 09ED     		bne	a0,zero,.L99
 440:../src/platform/drivers/mss/mss_gpio/mss_gpio.c ****         __asm("fence");
 1188              		.loc 2 440 9 is_stmt 1
 440:../src/platform/drivers/mss/mss_gpio/mss_gpio.c ****         __asm("fence");
 1189              		.loc 2 440 40 is_stmt 0
 1190 0016 8545     		li	a1,1
 1191 0018 BB959500 		sllw	a1,a1,s1
 440:../src/platform/drivers/mss/mss_gpio/mss_gpio.c ****         __asm("fence");
 1192              		.loc 2 440 24
 1193 001c 2320B408 		sw	a1,128(s0)
 441:../src/platform/drivers/mss/mss_gpio/mss_gpio.c ****     }
 1194              		.loc 2 441 9 is_stmt 1
 1195              	 #APP
 1196              	# 441 "../src/platform/drivers/mss/mss_gpio/mss_gpio.c" 1
 1197              		fence
 1198              	# 0 "" 2
 1199              	 #NO_APP
 1200              	.L98:
 447:../src/platform/drivers/mss/mss_gpio/mss_gpio.c **** 
 1201              		.loc 2 447 1 is_stmt 0
 1202 0024 E260     		ld	ra,24(sp)
 1203              		.cfi_remember_state
 1204              		.cfi_restore 1
 1205 0026 4264     		ld	s0,16(sp)
 1206              		.cfi_restore 8
 1207              	.LVL100:
 1208 0028 A264     		ld	s1,8(sp)
 1209              		.cfi_restore 9
 1210 002a 0561     		addi	sp,sp,32
 1211              		.cfi_def_cfa_offset 0
 1212 002c 8280     		jr	ra
 1213              	.LVL101:
 1214              	.L99:
 1215              		.cfi_restore_state
 445:../src/platform/drivers/mss/mss_gpio/mss_gpio.c ****     }
 1216              		.loc 2 445 9 is_stmt 1 discriminator 1
 445:../src/platform/drivers/mss/mss_gpio/mss_gpio.c ****     }
 1217              		.loc 2 445 9 discriminator 1
 445:../src/platform/drivers/mss/mss_gpio/mss_gpio.c ****     }
 1218              		.loc 2 445 9 discriminator 1
 1219              	 #APP
 1220              	# 445 "../src/platform/drivers/mss/mss_gpio/mss_gpio.c" 1
 445:../src/platform/drivers/mss/mss_gpio/mss_gpio.c ****     }
 1221              		ebreak
 1222              	# 0 "" 2
 1223              		.loc 2 445 18 discriminator 1
 447:../src/platform/drivers/mss/mss_gpio/mss_gpio.c **** 
 1224              		.loc 2 447 1 is_stmt 0 discriminator 1
 1225              	 #NO_APP
 1226 0030 D5BF     		j	.L98
 1227              		.cfi_endproc
 1228              	.LFE33:
 1230              		.section	.rodata.g_gpio_irqn_lut,"a"
 1231              		.align	3
 1232              		.set	.LANCHOR0,. + 0
 1235              	g_gpio_irqn_lut:
 1236 0000 0D000000 		.word	13
 1237 0004 0E000000 		.word	14
 1238 0008 0F000000 		.word	15
 1239 000c 10000000 		.word	16
 1240 0010 11000000 		.word	17
 1241 0014 12000000 		.word	18
 1242 0018 13000000 		.word	19
 1243 001c 14000000 		.word	20
 1244 0020 15000000 		.word	21
 1245 0024 16000000 		.word	22
 1246 0028 17000000 		.word	23
 1247 002c 18000000 		.word	24
 1248 0030 19000000 		.word	25
 1249 0034 1A000000 		.word	26
 1250 0038 1B000000 		.word	27
 1251 003c 1C000000 		.word	28
 1252 0040 1D000000 		.word	29
 1253 0044 1E000000 		.word	30
 1254 0048 1F000000 		.word	31
 1255 004c 20000000 		.word	32
 1256 0050 21000000 		.word	33
 1257 0054 22000000 		.word	34
 1258 0058 23000000 		.word	35
 1259 005c 24000000 		.word	36
 1260 0060 25000000 		.word	37
 1261 0064 26000000 		.word	38
 1262 0068 27000000 		.word	39
 1263 006c 28000000 		.word	40
 1264 0070 29000000 		.word	41
 1265 0074 2A000000 		.word	42
 1266 0078 2B000000 		.word	43
 1267 007c 2C000000 		.word	44
 1268 0080 2D000000 		.word	45
 1269 0084 2E000000 		.word	46
 1270 0088 2F000000 		.word	47
 1271 008c 30000000 		.word	48
 1272 0090 31000000 		.word	49
 1273 0094 32000000 		.word	50
 1274 0098 33000000 		.word	51
 1275 009c 34000000 		.word	52
 1276 00a0 35000000 		.word	53
 1277              		.text
 1278              	.Letext0:
 1279              		.file 3 "/home/vinay/Desktop/soft_console/SoftConsole-v2022.2-RISC-V-747/riscv-unknown-elf-gcc/ris
 1280              		.file 4 "/home/vinay/Desktop/soft_console/SoftConsole-v2022.2-RISC-V-747/riscv-unknown-elf-gcc/ris
 1281              		.file 5 "/home/vinay/Desktop/softconsole_watershed/Water-shed/src/platform/mpfs_hal/common/nwc/mss
 1282              		.file 6 "/home/vinay/Desktop/softconsole_watershed/Water-shed/src/platform/mpfs_hal/common/nwc/mss
 1283              		.file 7 "/home/vinay/Desktop/softconsole_watershed/Water-shed/src/platform/mpfs_hal/common/nwc/mss
 1284              		.file 8 "/home/vinay/Desktop/softconsole_watershed/Water-shed/src/platform/mpfs_hal/common/mss_mpu
 1285              		.file 9 "/home/vinay/Desktop/softconsole_watershed/Water-shed/src/platform/mpfs_hal/startup_gcc/sy
 1286              		.file 10 "../src/platform/drivers/mss/mss_gpio/mss_gpio.h"
DEFINED SYMBOLS
                            *ABS*:0000000000000000 mss_gpio.c
     /tmp/cc8IgIp2.s:12     .text.PLIC_EnableIRQ:0000000000000000 PLIC_EnableIRQ
     /tmp/cc8IgIp2.s:16     .text.PLIC_EnableIRQ:0000000000000000 .L0 
     /tmp/cc8IgIp2.s:18     .text.PLIC_EnableIRQ:0000000000000000 .L0 
     /tmp/cc8IgIp2.s:19     .text.PLIC_EnableIRQ:0000000000000000 .L0 
     /tmp/cc8IgIp2.s:21     .text.PLIC_EnableIRQ:0000000000000000 .L0 
     /tmp/cc8IgIp2.s:22     .text.PLIC_EnableIRQ:0000000000000000 .L0 
/home/vinay/Desktop/softconsole_watershed/Water-shed/src/platform/mpfs_hal/common/mss_plic.h:644    .text.PLIC_EnableIRQ:0000000000000000 .L0 
     /tmp/cc8IgIp2.s:31     .text.PLIC_EnableIRQ:0000000000000004 .L0 
     /tmp/cc8IgIp2.s:32     .text.PLIC_EnableIRQ:0000000000000004 .L0 
     /tmp/cc8IgIp2.s:61     .text.PLIC_EnableIRQ:0000000000000026 .L0 
     /tmp/cc8IgIp2.s:62     .text.PLIC_EnableIRQ:0000000000000026 .L0 
     /tmp/cc8IgIp2.s:67     .text.PLIC_EnableIRQ:000000000000002e .L0 
     /tmp/cc8IgIp2.s:68     .text.PLIC_EnableIRQ:000000000000002e .L0 
     /tmp/cc8IgIp2.s:71     .text.PLIC_EnableIRQ:0000000000000034 .L0 
     /tmp/cc8IgIp2.s:75     .text.PLIC_EnableIRQ:0000000000000038 .L0 
     /tmp/cc8IgIp2.s:76     .text.PLIC_EnableIRQ:0000000000000038 .L0 
     /tmp/cc8IgIp2.s:78     .text.PLIC_EnableIRQ:000000000000003a .L0 
     /tmp/cc8IgIp2.s:84     .text.PLIC_EnableIRQ:000000000000003c .L0 
     /tmp/cc8IgIp2.s:85     .text.PLIC_EnableIRQ:000000000000003c .L0 
     /tmp/cc8IgIp2.s:90     .text.PLIC_EnableIRQ:0000000000000046 .L0 
     /tmp/cc8IgIp2.s:91     .text.PLIC_EnableIRQ:0000000000000046 .L0 
     /tmp/cc8IgIp2.s:94     .text.PLIC_EnableIRQ:000000000000004c .L0 
     /tmp/cc8IgIp2.s:98     .text.PLIC_EnableIRQ:0000000000000050 .L0 
     /tmp/cc8IgIp2.s:99     .text.PLIC_EnableIRQ:0000000000000050 .L0 
     /tmp/cc8IgIp2.s:101    .text.PLIC_EnableIRQ:0000000000000054 .L0 
     /tmp/cc8IgIp2.s:105    .text.PLIC_EnableIRQ:0000000000000056 .L0 
     /tmp/cc8IgIp2.s:106    .text.PLIC_EnableIRQ:0000000000000056 .L0 
     /tmp/cc8IgIp2.s:111    .text.PLIC_EnableIRQ:0000000000000060 .L0 
     /tmp/cc8IgIp2.s:112    .text.PLIC_EnableIRQ:0000000000000060 .L0 
     /tmp/cc8IgIp2.s:115    .text.PLIC_EnableIRQ:0000000000000066 .L0 
     /tmp/cc8IgIp2.s:119    .text.PLIC_EnableIRQ:000000000000006a .L0 
     /tmp/cc8IgIp2.s:120    .text.PLIC_EnableIRQ:000000000000006a .L0 
     /tmp/cc8IgIp2.s:122    .text.PLIC_EnableIRQ:000000000000006e .L0 
     /tmp/cc8IgIp2.s:126    .text.PLIC_EnableIRQ:0000000000000070 .L0 
     /tmp/cc8IgIp2.s:127    .text.PLIC_EnableIRQ:0000000000000070 .L0 
     /tmp/cc8IgIp2.s:132    .text.PLIC_EnableIRQ:000000000000007a .L0 
     /tmp/cc8IgIp2.s:133    .text.PLIC_EnableIRQ:000000000000007a .L0 
     /tmp/cc8IgIp2.s:136    .text.PLIC_EnableIRQ:0000000000000080 .L0 
     /tmp/cc8IgIp2.s:140    .text.PLIC_EnableIRQ:0000000000000084 .L0 
     /tmp/cc8IgIp2.s:141    .text.PLIC_EnableIRQ:0000000000000084 .L0 
     /tmp/cc8IgIp2.s:143    .text.PLIC_EnableIRQ:0000000000000088 .L0 
     /tmp/cc8IgIp2.s:147    .text.PLIC_EnableIRQ:000000000000008a .L0 
     /tmp/cc8IgIp2.s:148    .text.PLIC_EnableIRQ:000000000000008a .L0 
     /tmp/cc8IgIp2.s:153    .text.PLIC_EnableIRQ:0000000000000094 .L0 
     /tmp/cc8IgIp2.s:154    .text.PLIC_EnableIRQ:0000000000000094 .L0 
     /tmp/cc8IgIp2.s:157    .text.PLIC_EnableIRQ:000000000000009a .L0 
     /tmp/cc8IgIp2.s:161    .text.PLIC_EnableIRQ:000000000000009e .L0 
     /tmp/cc8IgIp2.s:162    .text.PLIC_EnableIRQ:000000000000009e .L0 
     /tmp/cc8IgIp2.s:166    .text.PLIC_EnableIRQ:00000000000000a2 .L0 
     /tmp/cc8IgIp2.s:167    .text.PLIC_EnableIRQ:00000000000000a2 .L0 
     /tmp/cc8IgIp2.s:168    .text.PLIC_EnableIRQ:00000000000000a4 .L0 
     /tmp/cc8IgIp2.s:174    .text.PLIC_DisableIRQ:0000000000000000 PLIC_DisableIRQ
     /tmp/cc8IgIp2.s:177    .text.PLIC_DisableIRQ:0000000000000000 .L0 
     /tmp/cc8IgIp2.s:179    .text.PLIC_DisableIRQ:0000000000000000 .L0 
     /tmp/cc8IgIp2.s:180    .text.PLIC_DisableIRQ:0000000000000000 .L0 
     /tmp/cc8IgIp2.s:182    .text.PLIC_DisableIRQ:0000000000000000 .L0 
     /tmp/cc8IgIp2.s:183    .text.PLIC_DisableIRQ:0000000000000000 .L0 
/home/vinay/Desktop/softconsole_watershed/Water-shed/src/platform/mpfs_hal/common/mss_plic.h:694    .text.PLIC_DisableIRQ:0000000000000000 .L0 
     /tmp/cc8IgIp2.s:192    .text.PLIC_DisableIRQ:0000000000000004 .L0 
     /tmp/cc8IgIp2.s:193    .text.PLIC_DisableIRQ:0000000000000004 .L0 
     /tmp/cc8IgIp2.s:205    .text.PLIC_DisableIRQ:0000000000000022 .L0 
     /tmp/cc8IgIp2.s:210    .text.PLIC_DisableIRQ:000000000000002a .L0 
     /tmp/cc8IgIp2.s:226    .text.PLIC_DisableIRQ:000000000000002c .L0 
     /tmp/cc8IgIp2.s:227    .text.PLIC_DisableIRQ:000000000000002c .L0 
     /tmp/cc8IgIp2.s:230    .text.PLIC_DisableIRQ:000000000000002e .L0 
     /tmp/cc8IgIp2.s:231    .text.PLIC_DisableIRQ:000000000000002e .L0 
     /tmp/cc8IgIp2.s:234    .text.PLIC_DisableIRQ:0000000000000034 .L0 
     /tmp/cc8IgIp2.s:236    .text.PLIC_DisableIRQ:0000000000000038 .L0 
     /tmp/cc8IgIp2.s:240    .text.PLIC_DisableIRQ:000000000000003c .L0 
     /tmp/cc8IgIp2.s:241    .text.PLIC_DisableIRQ:000000000000003c .L0 
     /tmp/cc8IgIp2.s:243    .text.PLIC_DisableIRQ:000000000000003e .L0 
     /tmp/cc8IgIp2.s:249    .text.PLIC_DisableIRQ:0000000000000040 .L0 
     /tmp/cc8IgIp2.s:250    .text.PLIC_DisableIRQ:0000000000000040 .L0 
     /tmp/cc8IgIp2.s:253    .text.PLIC_DisableIRQ:0000000000000044 .L0 
     /tmp/cc8IgIp2.s:254    .text.PLIC_DisableIRQ:0000000000000044 .L0 
     /tmp/cc8IgIp2.s:257    .text.PLIC_DisableIRQ:000000000000004a .L0 
     /tmp/cc8IgIp2.s:259    .text.PLIC_DisableIRQ:000000000000004e .L0 
     /tmp/cc8IgIp2.s:263    .text.PLIC_DisableIRQ:0000000000000052 .L0 
     /tmp/cc8IgIp2.s:264    .text.PLIC_DisableIRQ:0000000000000052 .L0 
     /tmp/cc8IgIp2.s:266    .text.PLIC_DisableIRQ:0000000000000056 .L0 
     /tmp/cc8IgIp2.s:270    .text.PLIC_DisableIRQ:0000000000000058 .L0 
     /tmp/cc8IgIp2.s:271    .text.PLIC_DisableIRQ:0000000000000058 .L0 
     /tmp/cc8IgIp2.s:274    .text.PLIC_DisableIRQ:000000000000005c .L0 
     /tmp/cc8IgIp2.s:275    .text.PLIC_DisableIRQ:000000000000005c .L0 
     /tmp/cc8IgIp2.s:278    .text.PLIC_DisableIRQ:0000000000000062 .L0 
     /tmp/cc8IgIp2.s:280    .text.PLIC_DisableIRQ:0000000000000066 .L0 
     /tmp/cc8IgIp2.s:284    .text.PLIC_DisableIRQ:000000000000006a .L0 
     /tmp/cc8IgIp2.s:285    .text.PLIC_DisableIRQ:000000000000006a .L0 
     /tmp/cc8IgIp2.s:287    .text.PLIC_DisableIRQ:000000000000006e .L0 
     /tmp/cc8IgIp2.s:291    .text.PLIC_DisableIRQ:0000000000000070 .L0 
     /tmp/cc8IgIp2.s:292    .text.PLIC_DisableIRQ:0000000000000070 .L0 
     /tmp/cc8IgIp2.s:295    .text.PLIC_DisableIRQ:0000000000000074 .L0 
     /tmp/cc8IgIp2.s:296    .text.PLIC_DisableIRQ:0000000000000074 .L0 
     /tmp/cc8IgIp2.s:299    .text.PLIC_DisableIRQ:000000000000007a .L0 
     /tmp/cc8IgIp2.s:301    .text.PLIC_DisableIRQ:000000000000007e .L0 
     /tmp/cc8IgIp2.s:305    .text.PLIC_DisableIRQ:0000000000000082 .L0 
     /tmp/cc8IgIp2.s:306    .text.PLIC_DisableIRQ:0000000000000082 .L0 
     /tmp/cc8IgIp2.s:308    .text.PLIC_DisableIRQ:0000000000000086 .L0 
     /tmp/cc8IgIp2.s:312    .text.PLIC_DisableIRQ:0000000000000088 .L0 
     /tmp/cc8IgIp2.s:313    .text.PLIC_DisableIRQ:0000000000000088 .L0 
     /tmp/cc8IgIp2.s:316    .text.PLIC_DisableIRQ:000000000000008c .L0 
     /tmp/cc8IgIp2.s:317    .text.PLIC_DisableIRQ:000000000000008c .L0 
     /tmp/cc8IgIp2.s:320    .text.PLIC_DisableIRQ:0000000000000092 .L0 
     /tmp/cc8IgIp2.s:322    .text.PLIC_DisableIRQ:0000000000000096 .L0 
     /tmp/cc8IgIp2.s:326    .text.PLIC_DisableIRQ:000000000000009a .L0 
     /tmp/cc8IgIp2.s:327    .text.PLIC_DisableIRQ:000000000000009a .L0 
     /tmp/cc8IgIp2.s:331    .text.PLIC_DisableIRQ:000000000000009e .L0 
     /tmp/cc8IgIp2.s:332    .text.PLIC_DisableIRQ:000000000000009e .L0 
     /tmp/cc8IgIp2.s:333    .text.PLIC_DisableIRQ:00000000000000a0 .L0 
     /tmp/cc8IgIp2.s:339    .text.gpio_number_validate:0000000000000000 gpio_number_validate
     /tmp/cc8IgIp2.s:343    .text.gpio_number_validate:0000000000000000 .L0 
     /tmp/cc8IgIp2.s:345    .text.gpio_number_validate:0000000000000000 .L0 
     /tmp/cc8IgIp2.s:346    .text.gpio_number_validate:0000000000000000 .L0 
     /tmp/cc8IgIp2.s:347    .text.gpio_number_validate:0000000000000000 .L0 
     /tmp/cc8IgIp2.s:348    .text.gpio_number_validate:0000000000000000 .L0 
     /tmp/cc8IgIp2.s:351    .text.gpio_number_validate:0000000000000008 .L0 
     /tmp/cc8IgIp2.s:355    .text.gpio_number_validate:0000000000000010 .L0 
     /tmp/cc8IgIp2.s:357    .text.gpio_number_validate:0000000000000012 .L0 
     /tmp/cc8IgIp2.s:359    .text.gpio_number_validate:0000000000000014 .L0 
     /tmp/cc8IgIp2.s:362    .text.gpio_number_validate:0000000000000018 .L0 
     /tmp/cc8IgIp2.s:363    .text.gpio_number_validate:0000000000000018 .L0 
     /tmp/cc8IgIp2.s:366    .text.gpio_number_validate:0000000000000020 .L0 
     /tmp/cc8IgIp2.s:370    .text.gpio_number_validate:0000000000000028 .L0 
     /tmp/cc8IgIp2.s:372    .text.gpio_number_validate:000000000000002a .L0 
     /tmp/cc8IgIp2.s:374    .text.gpio_number_validate:000000000000002c .L0 
     /tmp/cc8IgIp2.s:380    .text.gpio_number_validate:0000000000000030 .L0 
     /tmp/cc8IgIp2.s:381    .text.gpio_number_validate:0000000000000030 .L0 
     /tmp/cc8IgIp2.s:384    .text.gpio_number_validate:0000000000000038 .L0 
     /tmp/cc8IgIp2.s:386    .text.gpio_number_validate:000000000000003c .L0 
     /tmp/cc8IgIp2.s:388    .text.gpio_number_validate:000000000000003e .L0 
     /tmp/cc8IgIp2.s:391    .text.gpio_number_validate:0000000000000042 .L0 
     /tmp/cc8IgIp2.s:398    .text.gpio_number_validate:0000000000000048 .L0 
     /tmp/cc8IgIp2.s:399    .text.gpio_number_validate:0000000000000048 .L0 
     /tmp/cc8IgIp2.s:402    .text.gpio_number_validate:000000000000004c .L0 
     /tmp/cc8IgIp2.s:409    .text.MSS_GPIO_init:0000000000000000 MSS_GPIO_init
     /tmp/cc8IgIp2.s:412    .text.MSS_GPIO_init:0000000000000000 .L0 
     /tmp/cc8IgIp2.s:414    .text.MSS_GPIO_init:0000000000000000 .L0 
     /tmp/cc8IgIp2.s:415    .text.MSS_GPIO_init:0000000000000000 .L0 
     /tmp/cc8IgIp2.s:416    .text.MSS_GPIO_init:0000000000000000 .L0 
     /tmp/cc8IgIp2.s:419    .text.MSS_GPIO_init:0000000000000006 .L0 
     /tmp/cc8IgIp2.s:420    .text.MSS_GPIO_init:0000000000000008 .L0 
     /tmp/cc8IgIp2.s:427    .text.MSS_GPIO_config:0000000000000000 MSS_GPIO_config
     /tmp/cc8IgIp2.s:430    .text.MSS_GPIO_config:0000000000000000 .L0 
     /tmp/cc8IgIp2.s:432    .text.MSS_GPIO_config:0000000000000000 .L0 
     /tmp/cc8IgIp2.s:433    .text.MSS_GPIO_config:0000000000000000 .L0 
     /tmp/cc8IgIp2.s:434    .text.MSS_GPIO_config:0000000000000000 .L0 
     /tmp/cc8IgIp2.s:435    .text.MSS_GPIO_config:0000000000000002 .L0 
     /tmp/cc8IgIp2.s:439    .text.MSS_GPIO_config:0000000000000008 .L0 
     /tmp/cc8IgIp2.s:440    .text.MSS_GPIO_config:0000000000000008 .L0 
     /tmp/cc8IgIp2.s:441    .text.MSS_GPIO_config:0000000000000008 .L0 
     /tmp/cc8IgIp2.s:443    .text.MSS_GPIO_config:0000000000000008 .L0 
     /tmp/cc8IgIp2.s:447    .text.MSS_GPIO_config:000000000000000e .L0 
     /tmp/cc8IgIp2.s:450    .text.MSS_GPIO_config:0000000000000016 .L0 
     /tmp/cc8IgIp2.s:452    .text.MSS_GPIO_config:0000000000000018 .L0 
     /tmp/cc8IgIp2.s:453    .text.MSS_GPIO_config:0000000000000018 .L0 
     /tmp/cc8IgIp2.s:460    .text.MSS_GPIO_config:0000000000000022 .L0 
     /tmp/cc8IgIp2.s:461    .text.MSS_GPIO_config:0000000000000024 .L0 
     /tmp/cc8IgIp2.s:462    .text.MSS_GPIO_config:0000000000000024 .L0 
     /tmp/cc8IgIp2.s:464    .text.MSS_GPIO_config:0000000000000026 .L0 
     /tmp/cc8IgIp2.s:466    .text.MSS_GPIO_config:0000000000000028 .L0 
     /tmp/cc8IgIp2.s:469    .text.MSS_GPIO_config:000000000000002a .L0 
     /tmp/cc8IgIp2.s:473    .text.MSS_GPIO_config:000000000000002c .L0 
     /tmp/cc8IgIp2.s:475    .text.MSS_GPIO_config:000000000000002c .L0 
     /tmp/cc8IgIp2.s:476    .text.MSS_GPIO_config:000000000000002c .L0 
../src/platform/drivers/mss/mss_gpio/mss_gpio.c:153    .text.MSS_GPIO_config:000000000000002c .L0 
     /tmp/cc8IgIp2.s:482    .text.MSS_GPIO_config:000000000000002e .L0 
     /tmp/cc8IgIp2.s:484    .text.MSS_GPIO_config:000000000000002e .L0 
     /tmp/cc8IgIp2.s:485    .text.MSS_GPIO_config:0000000000000030 .L0 
     /tmp/cc8IgIp2.s:492    .text.MSS_GPIO_config_byte:0000000000000000 MSS_GPIO_config_byte
     /tmp/cc8IgIp2.s:495    .text.MSS_GPIO_config_byte:0000000000000000 .L0 
     /tmp/cc8IgIp2.s:497    .text.MSS_GPIO_config_byte:0000000000000000 .L0 
     /tmp/cc8IgIp2.s:498    .text.MSS_GPIO_config_byte:0000000000000000 .L0 
     /tmp/cc8IgIp2.s:499    .text.MSS_GPIO_config_byte:0000000000000000 .L0 
     /tmp/cc8IgIp2.s:502    .text.MSS_GPIO_config_byte:0000000000000008 .L0 
     /tmp/cc8IgIp2.s:506    .text.MSS_GPIO_config_byte:0000000000000010 .L0 
     /tmp/cc8IgIp2.s:509    .text.MSS_GPIO_config_byte:0000000000000012 .L0 
     /tmp/cc8IgIp2.s:510    .text.MSS_GPIO_config_byte:0000000000000012 .L0 
../src/platform/drivers/mss/mss_gpio/mss_gpio.c:181    .text.MSS_GPIO_config_byte:0000000000000012 .L0 
     /tmp/cc8IgIp2.s:516    .text.MSS_GPIO_config_byte:0000000000000014 .L0 
     /tmp/cc8IgIp2.s:518    .text.MSS_GPIO_config_byte:0000000000000014 .L0 
     /tmp/cc8IgIp2.s:521    .text.MSS_GPIO_config_byte:0000000000000016 .L0 
     /tmp/cc8IgIp2.s:522    .text.MSS_GPIO_config_byte:0000000000000016 .L0 
     /tmp/cc8IgIp2.s:526    .text.MSS_GPIO_config_byte:000000000000001e .L0 
     /tmp/cc8IgIp2.s:530    .text.MSS_GPIO_config_byte:0000000000000026 .L0 
     /tmp/cc8IgIp2.s:534    .text.MSS_GPIO_config_byte:000000000000002a .L0 
     /tmp/cc8IgIp2.s:535    .text.MSS_GPIO_config_byte:000000000000002a .L0 
     /tmp/cc8IgIp2.s:538    .text.MSS_GPIO_config_byte:0000000000000032 .L0 
     /tmp/cc8IgIp2.s:542    .text.MSS_GPIO_config_byte:000000000000003a .L0 
     /tmp/cc8IgIp2.s:547    .text.MSS_GPIO_config_byte:0000000000000040 .L0 
     /tmp/cc8IgIp2.s:548    .text.MSS_GPIO_config_byte:0000000000000040 .L0 
     /tmp/cc8IgIp2.s:557    .text.MSS_GPIO_config_byte:000000000000004e .L0 
     /tmp/cc8IgIp2.s:561    .text.MSS_GPIO_config_byte:0000000000000050 .L0 
     /tmp/cc8IgIp2.s:562    .text.MSS_GPIO_config_byte:0000000000000050 .L0 
     /tmp/cc8IgIp2.s:565    .text.MSS_GPIO_config_byte:000000000000005a .L0 
     /tmp/cc8IgIp2.s:572    .text.MSS_GPIO_config_all:0000000000000000 MSS_GPIO_config_all
     /tmp/cc8IgIp2.s:575    .text.MSS_GPIO_config_all:0000000000000000 .L0 
     /tmp/cc8IgIp2.s:577    .text.MSS_GPIO_config_all:0000000000000000 .L0 
     /tmp/cc8IgIp2.s:578    .text.MSS_GPIO_config_all:0000000000000000 .L0 
     /tmp/cc8IgIp2.s:579    .text.MSS_GPIO_config_all:0000000000000000 .L0 
     /tmp/cc8IgIp2.s:581    .text.MSS_GPIO_config_all:0000000000000004 .L0 
     /tmp/cc8IgIp2.s:582    .text.MSS_GPIO_config_all:0000000000000006 .L0 
     /tmp/cc8IgIp2.s:589    .text.MSS_GPIO_set_output:0000000000000000 MSS_GPIO_set_output
     /tmp/cc8IgIp2.s:592    .text.MSS_GPIO_set_output:0000000000000000 .L0 
     /tmp/cc8IgIp2.s:594    .text.MSS_GPIO_set_output:0000000000000000 .L0 
     /tmp/cc8IgIp2.s:595    .text.MSS_GPIO_set_output:0000000000000000 .L0 
     /tmp/cc8IgIp2.s:596    .text.MSS_GPIO_set_output:0000000000000000 .L0 
     /tmp/cc8IgIp2.s:597    .text.MSS_GPIO_set_output:0000000000000002 .L0 
     /tmp/cc8IgIp2.s:601    .text.MSS_GPIO_set_output:0000000000000008 .L0 
     /tmp/cc8IgIp2.s:602    .text.MSS_GPIO_set_output:0000000000000008 .L0 
     /tmp/cc8IgIp2.s:603    .text.MSS_GPIO_set_output:0000000000000008 .L0 
     /tmp/cc8IgIp2.s:605    .text.MSS_GPIO_set_output:0000000000000008 .L0 
     /tmp/cc8IgIp2.s:609    .text.MSS_GPIO_set_output:000000000000000e .L0 
     /tmp/cc8IgIp2.s:612    .text.MSS_GPIO_set_output:0000000000000016 .L0 
     /tmp/cc8IgIp2.s:614    .text.MSS_GPIO_set_output:0000000000000018 .L0 
     /tmp/cc8IgIp2.s:615    .text.MSS_GPIO_set_output:0000000000000018 .L0 
     /tmp/cc8IgIp2.s:620    .text.MSS_GPIO_set_output:0000000000000022 .L0 
     /tmp/cc8IgIp2.s:621    .text.MSS_GPIO_set_output:0000000000000022 .L0 
     /tmp/cc8IgIp2.s:624    .text.MSS_GPIO_set_output:0000000000000026 .L0 
     /tmp/cc8IgIp2.s:625    .text.MSS_GPIO_set_output:0000000000000028 .L0 
     /tmp/cc8IgIp2.s:626    .text.MSS_GPIO_set_output:0000000000000028 .L0 
     /tmp/cc8IgIp2.s:628    .text.MSS_GPIO_set_output:000000000000002a .L0 
     /tmp/cc8IgIp2.s:631    .text.MSS_GPIO_set_output:000000000000002c .L0 
     /tmp/cc8IgIp2.s:633    .text.MSS_GPIO_set_output:000000000000002e .L0 
     /tmp/cc8IgIp2.s:637    .text.MSS_GPIO_set_output:0000000000000030 .L0 
     /tmp/cc8IgIp2.s:639    .text.MSS_GPIO_set_output:0000000000000030 .L0 
     /tmp/cc8IgIp2.s:640    .text.MSS_GPIO_set_output:0000000000000030 .L0 
     /tmp/cc8IgIp2.s:644    .text.MSS_GPIO_set_output:0000000000000036 .L0 
     /tmp/cc8IgIp2.s:645    .text.MSS_GPIO_set_output:0000000000000036 .L0 
../src/platform/drivers/mss/mss_gpio/mss_gpio.c:231    .text.MSS_GPIO_set_output:0000000000000036 .L0 
     /tmp/cc8IgIp2.s:651    .text.MSS_GPIO_set_output:0000000000000038 .L0 
     /tmp/cc8IgIp2.s:653    .text.MSS_GPIO_set_output:0000000000000038 .L0 
     /tmp/cc8IgIp2.s:654    .text.MSS_GPIO_set_output:000000000000003a .L0 
     /tmp/cc8IgIp2.s:661    .text.MSS_GPIO_drive_inout:0000000000000000 MSS_GPIO_drive_inout
     /tmp/cc8IgIp2.s:664    .text.MSS_GPIO_drive_inout:0000000000000000 .L0 
     /tmp/cc8IgIp2.s:666    .text.MSS_GPIO_drive_inout:0000000000000000 .L0 
     /tmp/cc8IgIp2.s:667    .text.MSS_GPIO_drive_inout:0000000000000000 .L0 
     /tmp/cc8IgIp2.s:668    .text.MSS_GPIO_drive_inout:0000000000000000 .L0 
     /tmp/cc8IgIp2.s:669    .text.MSS_GPIO_drive_inout:0000000000000000 .L0 
     /tmp/cc8IgIp2.s:670    .text.MSS_GPIO_drive_inout:0000000000000002 .L0 
     /tmp/cc8IgIp2.s:674    .text.MSS_GPIO_drive_inout:0000000000000008 .L0 
     /tmp/cc8IgIp2.s:675    .text.MSS_GPIO_drive_inout:0000000000000008 .L0 
     /tmp/cc8IgIp2.s:676    .text.MSS_GPIO_drive_inout:0000000000000008 .L0 
     /tmp/cc8IgIp2.s:678    .text.MSS_GPIO_drive_inout:0000000000000008 .L0 
     /tmp/cc8IgIp2.s:682    .text.MSS_GPIO_drive_inout:000000000000000e .L0 
     /tmp/cc8IgIp2.s:685    .text.MSS_GPIO_drive_inout:0000000000000016 .L0 
     /tmp/cc8IgIp2.s:687    .text.MSS_GPIO_drive_inout:0000000000000018 .L0 
     /tmp/cc8IgIp2.s:695    .text.MSS_GPIO_drive_inout:0000000000000028 .L0 
     /tmp/cc8IgIp2.s:696    .text.MSS_GPIO_drive_inout:0000000000000028 .L0 
../src/platform/drivers/mss/mss_gpio/mss_gpio.c:285    .text.MSS_GPIO_drive_inout:0000000000000028 .L0 
     /tmp/cc8IgIp2.s:702    .text.MSS_GPIO_drive_inout:000000000000002a .L0 
     /tmp/cc8IgIp2.s:704    .text.MSS_GPIO_drive_inout:000000000000002a .L0 
     /tmp/cc8IgIp2.s:707    .text.MSS_GPIO_drive_inout:000000000000002c .L0 
     /tmp/cc8IgIp2.s:708    .text.MSS_GPIO_drive_inout:000000000000002c .L0 
     /tmp/cc8IgIp2.s:713    .text.MSS_GPIO_drive_inout:0000000000000038 .L0 
     /tmp/cc8IgIp2.s:715    .text.MSS_GPIO_drive_inout:000000000000003c .L0 
     /tmp/cc8IgIp2.s:717    .text.MSS_GPIO_drive_inout:000000000000003e .L0 
     /tmp/cc8IgIp2.s:721    .text.MSS_GPIO_drive_inout:0000000000000042 .L0 
     /tmp/cc8IgIp2.s:722    .text.MSS_GPIO_drive_inout:0000000000000042 .L0 
     /tmp/cc8IgIp2.s:725    .text.MSS_GPIO_drive_inout:0000000000000046 .L0 
     /tmp/cc8IgIp2.s:726    .text.MSS_GPIO_drive_inout:0000000000000046 .L0 
     /tmp/cc8IgIp2.s:730    .text.MSS_GPIO_drive_inout:0000000000000048 .L0 
     /tmp/cc8IgIp2.s:731    .text.MSS_GPIO_drive_inout:0000000000000048 .L0 
     /tmp/cc8IgIp2.s:732    .text.MSS_GPIO_drive_inout:000000000000004a .L0 
     /tmp/cc8IgIp2.s:733    .text.MSS_GPIO_drive_inout:000000000000004a .L0 
     /tmp/cc8IgIp2.s:735    .text.MSS_GPIO_drive_inout:000000000000004c .L0 
     /tmp/cc8IgIp2.s:737    .text.MSS_GPIO_drive_inout:000000000000004e .L0 
     /tmp/cc8IgIp2.s:740    .text.MSS_GPIO_drive_inout:0000000000000050 .L0 
     /tmp/cc8IgIp2.s:744    .text.MSS_GPIO_drive_inout:0000000000000052 .L0 
     /tmp/cc8IgIp2.s:746    .text.MSS_GPIO_drive_inout:0000000000000052 .L0 
     /tmp/cc8IgIp2.s:747    .text.MSS_GPIO_drive_inout:0000000000000052 .L0 
     /tmp/cc8IgIp2.s:751    .text.MSS_GPIO_drive_inout:000000000000005a .L0 
     /tmp/cc8IgIp2.s:753    .text.MSS_GPIO_drive_inout:000000000000005e .L0 
     /tmp/cc8IgIp2.s:756    .text.MSS_GPIO_drive_inout:0000000000000064 .L0 
     /tmp/cc8IgIp2.s:760    .text.MSS_GPIO_drive_inout:0000000000000068 .L0 
     /tmp/cc8IgIp2.s:761    .text.MSS_GPIO_drive_inout:0000000000000068 .L0 
     /tmp/cc8IgIp2.s:764    .text.MSS_GPIO_drive_inout:000000000000006c .L0 
     /tmp/cc8IgIp2.s:765    .text.MSS_GPIO_drive_inout:000000000000006c .L0 
     /tmp/cc8IgIp2.s:767    .text.MSS_GPIO_drive_inout:000000000000006e .L0 
     /tmp/cc8IgIp2.s:771    .text.MSS_GPIO_drive_inout:0000000000000070 .L0 
     /tmp/cc8IgIp2.s:775    .text.MSS_GPIO_drive_inout:0000000000000076 .L0 
     /tmp/cc8IgIp2.s:779    .text.MSS_GPIO_drive_inout:000000000000007a .L0 
     /tmp/cc8IgIp2.s:780    .text.MSS_GPIO_drive_inout:000000000000007a .L0 
     /tmp/cc8IgIp2.s:783    .text.MSS_GPIO_drive_inout:000000000000007c .L0 
     /tmp/cc8IgIp2.s:784    .text.MSS_GPIO_drive_inout:000000000000007c .L0 
     /tmp/cc8IgIp2.s:786    .text.MSS_GPIO_drive_inout:000000000000007e .L0 
     /tmp/cc8IgIp2.s:787    .text.MSS_GPIO_drive_inout:0000000000000080 .L0 
     /tmp/cc8IgIp2.s:794    .text.MSS_GPIO_enable_irq:0000000000000000 MSS_GPIO_enable_irq
     /tmp/cc8IgIp2.s:797    .text.MSS_GPIO_enable_irq:0000000000000000 .L0 
     /tmp/cc8IgIp2.s:799    .text.MSS_GPIO_enable_irq:0000000000000000 .L0 
     /tmp/cc8IgIp2.s:800    .text.MSS_GPIO_enable_irq:0000000000000000 .L0 
     /tmp/cc8IgIp2.s:801    .text.MSS_GPIO_enable_irq:0000000000000000 .L0 
     /tmp/cc8IgIp2.s:802    .text.MSS_GPIO_enable_irq:0000000000000000 .L0 
     /tmp/cc8IgIp2.s:803    .text.MSS_GPIO_enable_irq:0000000000000002 .L0 
     /tmp/cc8IgIp2.s:807    .text.MSS_GPIO_enable_irq:0000000000000008 .L0 
     /tmp/cc8IgIp2.s:808    .text.MSS_GPIO_enable_irq:0000000000000008 .L0 
     /tmp/cc8IgIp2.s:809    .text.MSS_GPIO_enable_irq:0000000000000008 .L0 
     /tmp/cc8IgIp2.s:811    .text.MSS_GPIO_enable_irq:0000000000000008 .L0 
     /tmp/cc8IgIp2.s:814    .text.MSS_GPIO_enable_irq:000000000000000c .L0 
     /tmp/cc8IgIp2.s:817    .text.MSS_GPIO_enable_irq:0000000000000014 .L0 
     /tmp/cc8IgIp2.s:819    .text.MSS_GPIO_enable_irq:0000000000000016 .L0 
     /tmp/cc8IgIp2.s:823    .text.MSS_GPIO_enable_irq:000000000000001e .L0 
     /tmp/cc8IgIp2.s:827    .text.MSS_GPIO_enable_irq:0000000000000022 .L0 
     /tmp/cc8IgIp2.s:828    .text.MSS_GPIO_enable_irq:0000000000000022 .L0 
     /tmp/cc8IgIp2.s:831    .text.MSS_GPIO_enable_irq:0000000000000026 .L0 
     /tmp/cc8IgIp2.s:833    .text.MSS_GPIO_enable_irq:0000000000000028 .L0 
     /tmp/cc8IgIp2.s:834    .text.MSS_GPIO_enable_irq:0000000000000028 .L0 
     /tmp/cc8IgIp2.s:837    .text.MSS_GPIO_enable_irq:0000000000000030 .L0 
     /tmp/cc8IgIp2.s:841    .text.MSS_GPIO_enable_irq:0000000000000038 .L0 
     /tmp/cc8IgIp2.s:847    .text.MSS_GPIO_enable_irq:0000000000000048 .L0 
     /tmp/cc8IgIp2.s:848    .text.MSS_GPIO_enable_irq:000000000000004a .L0 
     /tmp/cc8IgIp2.s:849    .text.MSS_GPIO_enable_irq:000000000000004a .L0 
     /tmp/cc8IgIp2.s:851    .text.MSS_GPIO_enable_irq:000000000000004c .L0 
     /tmp/cc8IgIp2.s:853    .text.MSS_GPIO_enable_irq:000000000000004e .L0 
     /tmp/cc8IgIp2.s:856    .text.MSS_GPIO_enable_irq:0000000000000050 .L0 
     /tmp/cc8IgIp2.s:858    .text.MSS_GPIO_enable_irq:0000000000000050 .L0 
     /tmp/cc8IgIp2.s:861    .text.MSS_GPIO_enable_irq:0000000000000058 .L0 
     /tmp/cc8IgIp2.s:863    .text.MSS_GPIO_enable_irq:0000000000000058 .L0 
     /tmp/cc8IgIp2.s:864    .text.MSS_GPIO_enable_irq:0000000000000058 .L0 
     /tmp/cc8IgIp2.s:867    .text.MSS_GPIO_enable_irq:0000000000000060 .L0 
     /tmp/cc8IgIp2.s:871    .text.MSS_GPIO_enable_irq:0000000000000068 .L0 
     /tmp/cc8IgIp2.s:872    .text.MSS_GPIO_enable_irq:0000000000000068 .L0 
     /tmp/cc8IgIp2.s:876    .text.MSS_GPIO_enable_irq:000000000000006c .L0 
     /tmp/cc8IgIp2.s:877    .text.MSS_GPIO_enable_irq:000000000000006c .L0 
     /tmp/cc8IgIp2.s:880    .text.MSS_GPIO_enable_irq:0000000000000074 .L0 
     /tmp/cc8IgIp2.s:884    .text.MSS_GPIO_enable_irq:000000000000007c .L0 
     /tmp/cc8IgIp2.s:885    .text.MSS_GPIO_enable_irq:000000000000007c .L0 
../src/platform/drivers/mss/mss_gpio/mss_gpio.c:326    .text.MSS_GPIO_enable_irq:000000000000007c .L0 
     /tmp/cc8IgIp2.s:891    .text.MSS_GPIO_enable_irq:000000000000007e .L0 
     /tmp/cc8IgIp2.s:893    .text.MSS_GPIO_enable_irq:000000000000007e .L0 
     /tmp/cc8IgIp2.s:894    .text.MSS_GPIO_enable_irq:0000000000000080 .L0 
     /tmp/cc8IgIp2.s:896    .text.MSS_GPIO_enable_irq:0000000000000082 .L0 
     /tmp/cc8IgIp2.s:898    .text.MSS_GPIO_enable_irq:0000000000000084 .L0 
     /tmp/cc8IgIp2.s:901    .text.MSS_GPIO_enable_irq:0000000000000086 .L0 
     /tmp/cc8IgIp2.s:903    .text.MSS_GPIO_enable_irq:0000000000000088 .L0 
     /tmp/cc8IgIp2.s:910    .text.MSS_GPIO_disable_irq:0000000000000000 MSS_GPIO_disable_irq
     /tmp/cc8IgIp2.s:913    .text.MSS_GPIO_disable_irq:0000000000000000 .L0 
     /tmp/cc8IgIp2.s:915    .text.MSS_GPIO_disable_irq:0000000000000000 .L0 
     /tmp/cc8IgIp2.s:916    .text.MSS_GPIO_disable_irq:0000000000000000 .L0 
     /tmp/cc8IgIp2.s:917    .text.MSS_GPIO_disable_irq:0000000000000000 .L0 
     /tmp/cc8IgIp2.s:918    .text.MSS_GPIO_disable_irq:0000000000000000 .L0 
     /tmp/cc8IgIp2.s:919    .text.MSS_GPIO_disable_irq:0000000000000002 .L0 
     /tmp/cc8IgIp2.s:923    .text.MSS_GPIO_disable_irq:0000000000000008 .L0 
     /tmp/cc8IgIp2.s:924    .text.MSS_GPIO_disable_irq:0000000000000008 .L0 
     /tmp/cc8IgIp2.s:925    .text.MSS_GPIO_disable_irq:0000000000000008 .L0 
     /tmp/cc8IgIp2.s:927    .text.MSS_GPIO_disable_irq:0000000000000008 .L0 
     /tmp/cc8IgIp2.s:930    .text.MSS_GPIO_disable_irq:000000000000000c .L0 
     /tmp/cc8IgIp2.s:933    .text.MSS_GPIO_disable_irq:0000000000000014 .L0 
     /tmp/cc8IgIp2.s:935    .text.MSS_GPIO_disable_irq:0000000000000016 .L0 
     /tmp/cc8IgIp2.s:939    .text.MSS_GPIO_disable_irq:000000000000001e .L0 
     /tmp/cc8IgIp2.s:943    .text.MSS_GPIO_disable_irq:0000000000000022 .L0 
     /tmp/cc8IgIp2.s:944    .text.MSS_GPIO_disable_irq:0000000000000022 .L0 
     /tmp/cc8IgIp2.s:947    .text.MSS_GPIO_disable_irq:0000000000000024 .L0 
     /tmp/cc8IgIp2.s:949    .text.MSS_GPIO_disable_irq:0000000000000026 .L0 
     /tmp/cc8IgIp2.s:950    .text.MSS_GPIO_disable_irq:0000000000000026 .L0 
     /tmp/cc8IgIp2.s:953    .text.MSS_GPIO_disable_irq:000000000000002e .L0 
     /tmp/cc8IgIp2.s:957    .text.MSS_GPIO_disable_irq:0000000000000036 .L0 
     /tmp/cc8IgIp2.s:964    .text.MSS_GPIO_disable_irq:0000000000000046 .L0 
     /tmp/cc8IgIp2.s:965    .text.MSS_GPIO_disable_irq:0000000000000048 .L0 
     /tmp/cc8IgIp2.s:966    .text.MSS_GPIO_disable_irq:0000000000000048 .L0 
     /tmp/cc8IgIp2.s:968    .text.MSS_GPIO_disable_irq:000000000000004a .L0 
     /tmp/cc8IgIp2.s:970    .text.MSS_GPIO_disable_irq:000000000000004c .L0 
     /tmp/cc8IgIp2.s:973    .text.MSS_GPIO_disable_irq:000000000000004e .L0 
     /tmp/cc8IgIp2.s:975    .text.MSS_GPIO_disable_irq:000000000000004e .L0 
     /tmp/cc8IgIp2.s:978    .text.MSS_GPIO_disable_irq:0000000000000056 .L0 
     /tmp/cc8IgIp2.s:980    .text.MSS_GPIO_disable_irq:0000000000000056 .L0 
     /tmp/cc8IgIp2.s:981    .text.MSS_GPIO_disable_irq:0000000000000056 .L0 
     /tmp/cc8IgIp2.s:984    .text.MSS_GPIO_disable_irq:000000000000005e .L0 
     /tmp/cc8IgIp2.s:988    .text.MSS_GPIO_disable_irq:0000000000000066 .L0 
     /tmp/cc8IgIp2.s:989    .text.MSS_GPIO_disable_irq:0000000000000066 .L0 
     /tmp/cc8IgIp2.s:993    .text.MSS_GPIO_disable_irq:000000000000006a .L0 
     /tmp/cc8IgIp2.s:994    .text.MSS_GPIO_disable_irq:000000000000006a .L0 
     /tmp/cc8IgIp2.s:997    .text.MSS_GPIO_disable_irq:0000000000000072 .L0 
     /tmp/cc8IgIp2.s:1001   .text.MSS_GPIO_disable_irq:000000000000007a .L0 
     /tmp/cc8IgIp2.s:1005   .text.MSS_GPIO_disable_irq:0000000000000080 .L0 
     /tmp/cc8IgIp2.s:1006   .text.MSS_GPIO_disable_irq:0000000000000080 .L0 
../src/platform/drivers/mss/mss_gpio/mss_gpio.c:368    .text.MSS_GPIO_disable_irq:0000000000000080 .L0 
     /tmp/cc8IgIp2.s:1012   .text.MSS_GPIO_disable_irq:0000000000000082 .L0 
     /tmp/cc8IgIp2.s:1014   .text.MSS_GPIO_disable_irq:0000000000000082 .L0 
     /tmp/cc8IgIp2.s:1015   .text.MSS_GPIO_disable_irq:0000000000000084 .L0 
     /tmp/cc8IgIp2.s:1017   .text.MSS_GPIO_disable_irq:0000000000000086 .L0 
     /tmp/cc8IgIp2.s:1019   .text.MSS_GPIO_disable_irq:0000000000000088 .L0 
     /tmp/cc8IgIp2.s:1022   .text.MSS_GPIO_disable_irq:000000000000008a .L0 
     /tmp/cc8IgIp2.s:1024   .text.MSS_GPIO_disable_irq:000000000000008c .L0 
     /tmp/cc8IgIp2.s:1031   .text.MSS_GPIO_enable_nondirect_irq:0000000000000000 MSS_GPIO_enable_nondirect_irq
     /tmp/cc8IgIp2.s:1034   .text.MSS_GPIO_enable_nondirect_irq:0000000000000000 .L0 
     /tmp/cc8IgIp2.s:1036   .text.MSS_GPIO_enable_nondirect_irq:0000000000000000 .L0 
     /tmp/cc8IgIp2.s:1037   .text.MSS_GPIO_enable_nondirect_irq:0000000000000000 .L0 
     /tmp/cc8IgIp2.s:1038   .text.MSS_GPIO_enable_nondirect_irq:0000000000000000 .L0 
     /tmp/cc8IgIp2.s:1041   .text.MSS_GPIO_enable_nondirect_irq:0000000000000008 .L0 
     /tmp/cc8IgIp2.s:1045   .text.MSS_GPIO_enable_nondirect_irq:0000000000000010 .L0 
     /tmp/cc8IgIp2.s:1049   .text.MSS_GPIO_enable_nondirect_irq:0000000000000014 .L0 
     /tmp/cc8IgIp2.s:1053   .text.MSS_GPIO_enable_nondirect_irq:000000000000001c .L0 
     /tmp/cc8IgIp2.s:1054   .text.MSS_GPIO_enable_nondirect_irq:000000000000001c .L0 
     /tmp/cc8IgIp2.s:1057   .text.MSS_GPIO_enable_nondirect_irq:0000000000000024 .L0 
     /tmp/cc8IgIp2.s:1061   .text.MSS_GPIO_enable_nondirect_irq:000000000000002c .L0 
     /tmp/cc8IgIp2.s:1067   .text.MSS_GPIO_enable_nondirect_irq:0000000000000032 .L0 
     /tmp/cc8IgIp2.s:1068   .text.MSS_GPIO_enable_nondirect_irq:0000000000000032 .L0 
     /tmp/cc8IgIp2.s:1071   .text.MSS_GPIO_enable_nondirect_irq:000000000000003a .L0 
     /tmp/cc8IgIp2.s:1075   .text.MSS_GPIO_enable_nondirect_irq:0000000000000042 .L0 
     /tmp/cc8IgIp2.s:1081   .text.MSS_GPIO_enable_nondirect_irq:0000000000000048 .L0 
     /tmp/cc8IgIp2.s:1082   .text.MSS_GPIO_enable_nondirect_irq:0000000000000048 .L0 
../src/platform/drivers/mss/mss_gpio/mss_gpio.c:396    .text.MSS_GPIO_enable_nondirect_irq:0000000000000048 .L0 
     /tmp/cc8IgIp2.s:1088   .text.MSS_GPIO_enable_nondirect_irq:000000000000004a .L0 
     /tmp/cc8IgIp2.s:1090   .text.MSS_GPIO_enable_nondirect_irq:000000000000004a .L0 
     /tmp/cc8IgIp2.s:1091   .text.MSS_GPIO_enable_nondirect_irq:000000000000004c .L0 
     /tmp/cc8IgIp2.s:1098   .text.MSS_GPIO_disable_nondirect_irq:0000000000000000 MSS_GPIO_disable_nondirect_irq
     /tmp/cc8IgIp2.s:1101   .text.MSS_GPIO_disable_nondirect_irq:0000000000000000 .L0 
     /tmp/cc8IgIp2.s:1103   .text.MSS_GPIO_disable_nondirect_irq:0000000000000000 .L0 
     /tmp/cc8IgIp2.s:1104   .text.MSS_GPIO_disable_nondirect_irq:0000000000000000 .L0 
     /tmp/cc8IgIp2.s:1105   .text.MSS_GPIO_disable_nondirect_irq:0000000000000000 .L0 
     /tmp/cc8IgIp2.s:1108   .text.MSS_GPIO_disable_nondirect_irq:0000000000000008 .L0 
     /tmp/cc8IgIp2.s:1112   .text.MSS_GPIO_disable_nondirect_irq:0000000000000010 .L0 
     /tmp/cc8IgIp2.s:1116   .text.MSS_GPIO_disable_nondirect_irq:0000000000000014 .L0 
     /tmp/cc8IgIp2.s:1120   .text.MSS_GPIO_disable_nondirect_irq:000000000000001c .L0 
     /tmp/cc8IgIp2.s:1121   .text.MSS_GPIO_disable_nondirect_irq:000000000000001c .L0 
     /tmp/cc8IgIp2.s:1124   .text.MSS_GPIO_disable_nondirect_irq:0000000000000024 .L0 
     /tmp/cc8IgIp2.s:1128   .text.MSS_GPIO_disable_nondirect_irq:000000000000002c .L0 
     /tmp/cc8IgIp2.s:1134   .text.MSS_GPIO_disable_nondirect_irq:0000000000000032 .L0 
     /tmp/cc8IgIp2.s:1135   .text.MSS_GPIO_disable_nondirect_irq:0000000000000032 .L0 
     /tmp/cc8IgIp2.s:1138   .text.MSS_GPIO_disable_nondirect_irq:000000000000003a .L0 
     /tmp/cc8IgIp2.s:1142   .text.MSS_GPIO_disable_nondirect_irq:0000000000000042 .L0 
     /tmp/cc8IgIp2.s:1148   .text.MSS_GPIO_disable_nondirect_irq:0000000000000048 .L0 
     /tmp/cc8IgIp2.s:1149   .text.MSS_GPIO_disable_nondirect_irq:0000000000000048 .L0 
../src/platform/drivers/mss/mss_gpio/mss_gpio.c:424    .text.MSS_GPIO_disable_nondirect_irq:0000000000000048 .L0 
     /tmp/cc8IgIp2.s:1155   .text.MSS_GPIO_disable_nondirect_irq:000000000000004a .L0 
     /tmp/cc8IgIp2.s:1157   .text.MSS_GPIO_disable_nondirect_irq:000000000000004a .L0 
     /tmp/cc8IgIp2.s:1158   .text.MSS_GPIO_disable_nondirect_irq:000000000000004c .L0 
     /tmp/cc8IgIp2.s:1165   .text.MSS_GPIO_clear_irq:0000000000000000 MSS_GPIO_clear_irq
     /tmp/cc8IgIp2.s:1168   .text.MSS_GPIO_clear_irq:0000000000000000 .L0 
     /tmp/cc8IgIp2.s:1170   .text.MSS_GPIO_clear_irq:0000000000000000 .L0 
     /tmp/cc8IgIp2.s:1171   .text.MSS_GPIO_clear_irq:0000000000000000 .L0 
     /tmp/cc8IgIp2.s:1172   .text.MSS_GPIO_clear_irq:0000000000000000 .L0 
     /tmp/cc8IgIp2.s:1173   .text.MSS_GPIO_clear_irq:0000000000000002 .L0 
     /tmp/cc8IgIp2.s:1177   .text.MSS_GPIO_clear_irq:0000000000000008 .L0 
     /tmp/cc8IgIp2.s:1178   .text.MSS_GPIO_clear_irq:0000000000000008 .L0 
     /tmp/cc8IgIp2.s:1179   .text.MSS_GPIO_clear_irq:0000000000000008 .L0 
     /tmp/cc8IgIp2.s:1181   .text.MSS_GPIO_clear_irq:0000000000000008 .L0 
     /tmp/cc8IgIp2.s:1184   .text.MSS_GPIO_clear_irq:000000000000000c .L0 
     /tmp/cc8IgIp2.s:1187   .text.MSS_GPIO_clear_irq:0000000000000014 .L0 
     /tmp/cc8IgIp2.s:1189   .text.MSS_GPIO_clear_irq:0000000000000016 .L0 
     /tmp/cc8IgIp2.s:1190   .text.MSS_GPIO_clear_irq:0000000000000016 .L0 
     /tmp/cc8IgIp2.s:1193   .text.MSS_GPIO_clear_irq:000000000000001c .L0 
../src/platform/drivers/mss/mss_gpio/mss_gpio.c:441    .text.MSS_GPIO_clear_irq:0000000000000020 .L0 
     /tmp/cc8IgIp2.s:1202   .text.MSS_GPIO_clear_irq:0000000000000024 .L0 
     /tmp/cc8IgIp2.s:1203   .text.MSS_GPIO_clear_irq:0000000000000026 .L0 
     /tmp/cc8IgIp2.s:1204   .text.MSS_GPIO_clear_irq:0000000000000026 .L0 
     /tmp/cc8IgIp2.s:1206   .text.MSS_GPIO_clear_irq:0000000000000028 .L0 
     /tmp/cc8IgIp2.s:1209   .text.MSS_GPIO_clear_irq:000000000000002a .L0 
     /tmp/cc8IgIp2.s:1211   .text.MSS_GPIO_clear_irq:000000000000002c .L0 
     /tmp/cc8IgIp2.s:1215   .text.MSS_GPIO_clear_irq:000000000000002e .L0 
     /tmp/cc8IgIp2.s:1217   .text.MSS_GPIO_clear_irq:000000000000002e .L0 
     /tmp/cc8IgIp2.s:1218   .text.MSS_GPIO_clear_irq:000000000000002e .L0 
../src/platform/drivers/mss/mss_gpio/mss_gpio.c:445    .text.MSS_GPIO_clear_irq:000000000000002e .L0 
     /tmp/cc8IgIp2.s:1224   .text.MSS_GPIO_clear_irq:0000000000000030 .L0 
     /tmp/cc8IgIp2.s:1226   .text.MSS_GPIO_clear_irq:0000000000000030 .L0 
     /tmp/cc8IgIp2.s:1227   .text.MSS_GPIO_clear_irq:0000000000000032 .L0 
     /tmp/cc8IgIp2.s:1232   .rodata.g_gpio_irqn_lut:0000000000000000 .LANCHOR0
     /tmp/cc8IgIp2.s:1235   .rodata.g_gpio_irqn_lut:0000000000000000 g_gpio_irqn_lut
     /tmp/cc8IgIp2.s:171    .text.PLIC_EnableIRQ:00000000000000a4 .L0 
     /tmp/cc8IgIp2.s:336    .text.PLIC_DisableIRQ:00000000000000a0 .L0 
     /tmp/cc8IgIp2.s:405    .text.gpio_number_validate:000000000000004c .L0 
     /tmp/cc8IgIp2.s:423    .text.MSS_GPIO_init:0000000000000008 .L0 
     /tmp/cc8IgIp2.s:488    .text.MSS_GPIO_config:0000000000000030 .L0 
     /tmp/cc8IgIp2.s:568    .text.MSS_GPIO_config_byte:000000000000005a .L0 
     /tmp/cc8IgIp2.s:585    .text.MSS_GPIO_config_all:0000000000000006 .L0 
     /tmp/cc8IgIp2.s:657    .text.MSS_GPIO_set_output:000000000000003a .L0 
     /tmp/cc8IgIp2.s:790    .text.MSS_GPIO_drive_inout:0000000000000080 .L0 
     /tmp/cc8IgIp2.s:906    .text.MSS_GPIO_enable_irq:0000000000000088 .L0 
     /tmp/cc8IgIp2.s:1027   .text.MSS_GPIO_disable_irq:000000000000008c .L0 
     /tmp/cc8IgIp2.s:1094   .text.MSS_GPIO_enable_nondirect_irq:000000000000004c .L0 
     /tmp/cc8IgIp2.s:1161   .text.MSS_GPIO_disable_nondirect_irq:000000000000004c .L0 
     /tmp/cc8IgIp2.s:1230   .text.MSS_GPIO_clear_irq:0000000000000032 .L0 
                     .debug_frame:0000000000000000 .L0 
     /tmp/cc8IgIp2.s:49     .rodata.PLIC_EnableIRQ:0000000000000000 .L4
     /tmp/cc8IgIp2.s:34     .text.PLIC_EnableIRQ:000000000000000a .L0 
     /tmp/cc8IgIp2.s:165    .text.PLIC_EnableIRQ:00000000000000a2 .L1
     /tmp/cc8IgIp2.s:56     .text.PLIC_EnableIRQ:0000000000000026 .L8
     /tmp/cc8IgIp2.s:80     .text.PLIC_EnableIRQ:000000000000003c .L7
     /tmp/cc8IgIp2.s:103    .text.PLIC_EnableIRQ:0000000000000056 .L6
     /tmp/cc8IgIp2.s:124    .text.PLIC_EnableIRQ:0000000000000070 .L5
     /tmp/cc8IgIp2.s:145    .text.PLIC_EnableIRQ:000000000000008a .L3
     /tmp/cc8IgIp2.s:214    .rodata.PLIC_DisableIRQ:0000000000000000 .L12
     /tmp/cc8IgIp2.s:195    .text.PLIC_DisableIRQ:000000000000000a .L0 
     /tmp/cc8IgIp2.s:330    .text.PLIC_DisableIRQ:000000000000009e .L9
     /tmp/cc8IgIp2.s:221    .text.PLIC_DisableIRQ:000000000000002c .L16
     /tmp/cc8IgIp2.s:245    .text.PLIC_DisableIRQ:0000000000000040 .L15
     /tmp/cc8IgIp2.s:268    .text.PLIC_DisableIRQ:0000000000000058 .L14
     /tmp/cc8IgIp2.s:289    .text.PLIC_DisableIRQ:0000000000000070 .L13
     /tmp/cc8IgIp2.s:310    .text.PLIC_DisableIRQ:0000000000000088 .L11
     /tmp/cc8IgIp2.s:353    .text.gpio_number_validate:0000000000000010 .L18
     /tmp/cc8IgIp2.s:360    .text.gpio_number_validate:0000000000000018 .L19
     /tmp/cc8IgIp2.s:394    .text.gpio_number_validate:0000000000000048 .L20
     /tmp/cc8IgIp2.s:368    .text.gpio_number_validate:0000000000000028 .L21
     /tmp/cc8IgIp2.s:375    .text.gpio_number_validate:0000000000000030 .L22
     /tmp/cc8IgIp2.s:389    .text.gpio_number_validate:0000000000000042 .L23
     /tmp/cc8IgIp2.s:472    .text.MSS_GPIO_config:000000000000002c .L29
     /tmp/cc8IgIp2.s:458    .text.MSS_GPIO_config:0000000000000022 .L28
     /tmp/cc8IgIp2.s:504    .text.MSS_GPIO_config_byte:0000000000000010 .L33
     /tmp/cc8IgIp2.s:519    .text.MSS_GPIO_config_byte:0000000000000016 .L34
     /tmp/cc8IgIp2.s:559    .text.MSS_GPIO_config_byte:0000000000000050 .L35
     /tmp/cc8IgIp2.s:528    .text.MSS_GPIO_config_byte:0000000000000026 .L37
     /tmp/cc8IgIp2.s:532    .text.MSS_GPIO_config_byte:000000000000002a .L43
     /tmp/cc8IgIp2.s:543    .text.MSS_GPIO_config_byte:000000000000003c .L45
     /tmp/cc8IgIp2.s:540    .text.MSS_GPIO_config_byte:000000000000003a .L39
     /tmp/cc8IgIp2.s:545    .text.MSS_GPIO_config_byte:0000000000000040 .L40
     /tmp/cc8IgIp2.s:507    .text.MSS_GPIO_config_byte:0000000000000012 .L44
     /tmp/cc8IgIp2.s:524    .text.MSS_GPIO_config_byte:000000000000001e .L42
     /tmp/cc8IgIp2.s:642    .text.MSS_GPIO_set_output:0000000000000036 .L48
     /tmp/cc8IgIp2.s:636    .text.MSS_GPIO_set_output:0000000000000030 .L49
     /tmp/cc8IgIp2.s:622    .text.MSS_GPIO_set_output:0000000000000026 .L47
     /tmp/cc8IgIp2.s:693    .text.MSS_GPIO_drive_inout:0000000000000028 .L53
     /tmp/cc8IgIp2.s:705    .text.MSS_GPIO_drive_inout:000000000000002c .L54
     /tmp/cc8IgIp2.s:743    .text.MSS_GPIO_drive_inout:0000000000000052 .L55
     /tmp/cc8IgIp2.s:769    .text.MSS_GPIO_drive_inout:0000000000000070 .L56
     /tmp/cc8IgIp2.s:729    .text.MSS_GPIO_drive_inout:0000000000000048 .L52
     /tmp/cc8IgIp2.s:843    .text.MSS_GPIO_enable_irq:000000000000003c .L0 
     /tmp/cc8IgIp2.s:882    .text.MSS_GPIO_enable_irq:000000000000007c .L62
     /tmp/cc8IgIp2.s:839    .text.MSS_GPIO_enable_irq:0000000000000038 .L69
     /tmp/cc8IgIp2.s:860    .text.MSS_GPIO_enable_irq:0000000000000058 .L64
     /tmp/cc8IgIp2.s:869    .text.MSS_GPIO_enable_irq:0000000000000068 .L65
     /tmp/cc8IgIp2.s:874    .text.MSS_GPIO_enable_irq:000000000000006c .L66
     /tmp/cc8IgIp2.s:959    .text.MSS_GPIO_disable_irq:000000000000003a .L0 
     /tmp/cc8IgIp2.s:1003   .text.MSS_GPIO_disable_irq:0000000000000080 .L71
     /tmp/cc8IgIp2.s:955    .text.MSS_GPIO_disable_irq:0000000000000036 .L81
     /tmp/cc8IgIp2.s:977    .text.MSS_GPIO_disable_irq:0000000000000056 .L73
     /tmp/cc8IgIp2.s:986    .text.MSS_GPIO_disable_irq:0000000000000066 .L74
     /tmp/cc8IgIp2.s:991    .text.MSS_GPIO_disable_irq:000000000000006a .L75
     /tmp/cc8IgIp2.s:999    .text.MSS_GPIO_disable_irq:000000000000007a .L76
     /tmp/cc8IgIp2.s:962    .text.MSS_GPIO_disable_irq:0000000000000046 .L80
     /tmp/cc8IgIp2.s:1043   .text.MSS_GPIO_enable_nondirect_irq:0000000000000010 .L83
     /tmp/cc8IgIp2.s:1051   .text.MSS_GPIO_enable_nondirect_irq:000000000000001c .L84
     /tmp/cc8IgIp2.s:1059   .text.MSS_GPIO_enable_nondirect_irq:000000000000002c .L85
     /tmp/cc8IgIp2.s:1065   .text.MSS_GPIO_enable_nondirect_irq:0000000000000032 .L86
     /tmp/cc8IgIp2.s:1047   .text.MSS_GPIO_enable_nondirect_irq:0000000000000014 .L89
     /tmp/cc8IgIp2.s:1073   .text.MSS_GPIO_enable_nondirect_irq:0000000000000042 .L87
     /tmp/cc8IgIp2.s:1079   .text.MSS_GPIO_enable_nondirect_irq:0000000000000048 .L88
     /tmp/cc8IgIp2.s:1110   .text.MSS_GPIO_disable_nondirect_irq:0000000000000010 .L91
     /tmp/cc8IgIp2.s:1118   .text.MSS_GPIO_disable_nondirect_irq:000000000000001c .L92
     /tmp/cc8IgIp2.s:1126   .text.MSS_GPIO_disable_nondirect_irq:000000000000002c .L93
     /tmp/cc8IgIp2.s:1132   .text.MSS_GPIO_disable_nondirect_irq:0000000000000032 .L94
     /tmp/cc8IgIp2.s:1114   .text.MSS_GPIO_disable_nondirect_irq:0000000000000014 .L97
     /tmp/cc8IgIp2.s:1140   .text.MSS_GPIO_disable_nondirect_irq:0000000000000042 .L95
     /tmp/cc8IgIp2.s:1146   .text.MSS_GPIO_disable_nondirect_irq:0000000000000048 .L96
     /tmp/cc8IgIp2.s:1214   .text.MSS_GPIO_clear_irq:000000000000002e .L99
     /tmp/cc8IgIp2.s:1200   .text.MSS_GPIO_clear_irq:0000000000000024 .L98
     /tmp/cc8IgIp2.s:69104  .debug_abbrev:0000000000000000 .Ldebug_abbrev0
     /tmp/cc8IgIp2.s:73699  .debug_str:0000000000007ff4 .LASF3775
     /tmp/cc8IgIp2.s:71115  .debug_str:0000000000001022 .LASF3776
     /tmp/cc8IgIp2.s:74359  .debug_str:0000000000009cf8 .LASF3777
     /tmp/cc8IgIp2.s:70683  .debug_ranges:0000000000000000 .Ldebug_ranges0
     /tmp/cc8IgIp2.s:70715  .debug_line:0000000000000000 .Ldebug_line0
     /tmp/cc8IgIp2.s:76103  .debug_str:000000000000e748 .LASF0
     /tmp/cc8IgIp2.s:70801  .debug_str:0000000000000429 .LASF1
     /tmp/cc8IgIp2.s:70725  .debug_str:000000000000006d .LASF2
     /tmp/cc8IgIp2.s:71407  .debug_str:0000000000001c7c .LASF3
     /tmp/cc8IgIp2.s:76775  .debug_str:00000000000104e6 .LASF4
     /tmp/cc8IgIp2.s:72187  .debug_str:0000000000003f68 .LASF8
     /tmp/cc8IgIp2.s:74593  .debug_str:000000000000a654 .LASF5
     /tmp/cc8IgIp2.s:75817  .debug_str:000000000000da3e .LASF6
     /tmp/cc8IgIp2.s:74207  .debug_str:00000000000095d9 .LASF7
     /tmp/cc8IgIp2.s:75123  .debug_str:000000000000b9de .LASF9
     /tmp/cc8IgIp2.s:78245  .debug_str:0000000000014375 .LASF10
     /tmp/cc8IgIp2.s:76907  .debug_str:0000000000010a5c .LASF11
     /tmp/cc8IgIp2.s:74411  .debug_str:0000000000009ee3 .LASF12
     /tmp/cc8IgIp2.s:71323  .debug_str:000000000000188e .LASF13
     /tmp/cc8IgIp2.s:73247  .debug_str:0000000000006b6b .LASF14
     /tmp/cc8IgIp2.s:73793  .debug_str:000000000000847e .LASF15
     /tmp/cc8IgIp2.s:74611  .debug_str:000000000000a715 .LASF16
     /tmp/cc8IgIp2.s:76269  .debug_str:000000000000ee49 .LASF17
     /tmp/cc8IgIp2.s:77175  .debug_str:000000000001159b .LASF18
     /tmp/cc8IgIp2.s:70721  .debug_str:0000000000000034 .LASF19
     /tmp/cc8IgIp2.s:72157  .debug_str:0000000000003dc5 .LASF20
     /tmp/cc8IgIp2.s:73739  .debug_str:0000000000008228 .LASF21
     /tmp/cc8IgIp2.s:70763  .debug_str:0000000000000233 .LASF22
     /tmp/cc8IgIp2.s:73065  .debug_str:00000000000062ed .LASF23
     /tmp/cc8IgIp2.s:72637  .debug_str:0000000000005331 .LASF24
     /tmp/cc8IgIp2.s:76107  .debug_str:000000000000e76d .LASF25
     /tmp/cc8IgIp2.s:78137  .debug_str:0000000000013ef0 .LASF26
     /tmp/cc8IgIp2.s:73249  .debug_str:0000000000006b74 .LASF27
     /tmp/cc8IgIp2.s:72541  .debug_str:0000000000004f5a .LASF28
     /tmp/cc8IgIp2.s:74853  .debug_str:000000000000b001 .LASF29
     /tmp/cc8IgIp2.s:72067  .debug_str:0000000000003a0f .LASF30
     /tmp/cc8IgIp2.s:74913  .debug_str:000000000000b228 .LASF31
     /tmp/cc8IgIp2.s:73597  .debug_str:0000000000007b21 .LASF32
     /tmp/cc8IgIp2.s:73733  .debug_str:00000000000081e3 .LASF33
     /tmp/cc8IgIp2.s:77957  .debug_str:00000000000136bf .LASF34
     /tmp/cc8IgIp2.s:70747  .debug_str:0000000000000179 .LASF35
     /tmp/cc8IgIp2.s:72453  .debug_str:0000000000004bb5 .LASF36
     /tmp/cc8IgIp2.s:75695  .debug_str:000000000000d459 .LASF37
     /tmp/cc8IgIp2.s:76713  .debug_str:00000000000101bf .LASF38
     /tmp/cc8IgIp2.s:72791  .debug_str:000000000000586e .LASF39
     /tmp/cc8IgIp2.s:73355  .debug_str:000000000000705e .LASF40
     /tmp/cc8IgIp2.s:74009  .debug_str:0000000000008de5 .LASF41
     /tmp/cc8IgIp2.s:76659  .debug_str:000000000000ff3d .LASF42
     /tmp/cc8IgIp2.s:73621  .debug_str:0000000000007c71 .LASF43
     /tmp/cc8IgIp2.s:74807  .debug_str:000000000000ae86 .LASF44
     /tmp/cc8IgIp2.s:75187  .debug_str:000000000000bc90 .LASF45
     /tmp/cc8IgIp2.s:77503  .debug_str:00000000000122e0 .LASF46
     /tmp/cc8IgIp2.s:73521  .debug_str:0000000000007776 .LASF47
     /tmp/cc8IgIp2.s:74799  .debug_str:000000000000ae2c .LASF48
     /tmp/cc8IgIp2.s:75799  .debug_str:000000000000d994 .LASF49
     /tmp/cc8IgIp2.s:73145  .debug_str:00000000000066c7 .LASF50
     /tmp/cc8IgIp2.s:72395  .debug_str:000000000000490d .LASF51
     /tmp/cc8IgIp2.s:73105  .debug_str:00000000000064ee .LASF52
     /tmp/cc8IgIp2.s:77971  .debug_str:0000000000013793 .LASF53
     /tmp/cc8IgIp2.s:72719  .debug_str:00000000000055ec .LASF54
     /tmp/cc8IgIp2.s:73857  .debug_str:0000000000008786 .LASF55
     /tmp/cc8IgIp2.s:75473  .debug_str:000000000000c97e .LASF56
     /tmp/cc8IgIp2.s:78057  .debug_str:0000000000013bd1 .LASF57
     /tmp/cc8IgIp2.s:71087  .debug_str:0000000000000f4c .LASF58
     /tmp/cc8IgIp2.s:73447  .debug_str:00000000000073e6 .LASF59
     /tmp/cc8IgIp2.s:74179  .debug_str:00000000000094cb .LASF60
     /tmp/cc8IgIp2.s:77743  .debug_str:0000000000012d9c .LASF61
     /tmp/cc8IgIp2.s:76771  .debug_str:00000000000104b3 .LASF62
     /tmp/cc8IgIp2.s:77901  .debug_str:000000000001341b .LASF63
     /tmp/cc8IgIp2.s:73311  .debug_str:0000000000006e23 .LASF64
     /tmp/cc8IgIp2.s:73331  .debug_str:0000000000006f39 .LASF65
     /tmp/cc8IgIp2.s:77955  .debug_str:00000000000136a5 .LASF66
     /tmp/cc8IgIp2.s:74667  .debug_str:000000000000a96d .LASF67
     /tmp/cc8IgIp2.s:76783  .debug_str:0000000000010543 .LASF68
     /tmp/cc8IgIp2.s:76127  .debug_str:000000000000e894 .LASF69
     /tmp/cc8IgIp2.s:76547  .debug_str:000000000000fa67 .LASF70
     /tmp/cc8IgIp2.s:76661  .debug_str:000000000000ff7c .LASF71
     /tmp/cc8IgIp2.s:73569  .debug_str:00000000000079c3 .LASF72
     /tmp/cc8IgIp2.s:72841  .debug_str:0000000000005a30 .LASF73
     /tmp/cc8IgIp2.s:71707  .debug_str:0000000000002a09 .LASF74
     /tmp/cc8IgIp2.s:71671  .debug_str:00000000000027e6 .LASF75
     /tmp/cc8IgIp2.s:71539  .debug_str:00000000000021d6 .LASF76
     /tmp/cc8IgIp2.s:77915  .debug_str:00000000000134ad .LASF77
     /tmp/cc8IgIp2.s:75299  .debug_str:000000000000c16e .LASF78
     /tmp/cc8IgIp2.s:77001  .debug_str:0000000000010f3e .LASF79
     /tmp/cc8IgIp2.s:70865  .debug_str:00000000000006ba .LASF80
     /tmp/cc8IgIp2.s:72853  .debug_str:0000000000005a8b .LASF81
     /tmp/cc8IgIp2.s:74999  .debug_str:000000000000b5b4 .LASF82
     /tmp/cc8IgIp2.s:78193  .debug_str:00000000000140d7 .LASF83
     /tmp/cc8IgIp2.s:77853  .debug_str:0000000000013212 .LASF84
     /tmp/cc8IgIp2.s:73059  .debug_str:00000000000062ad .LASF85
     /tmp/cc8IgIp2.s:77237  .debug_str:000000000001183e .LASF86
     /tmp/cc8IgIp2.s:75707  .debug_str:000000000000d4d6 .LASF87
     /tmp/cc8IgIp2.s:76455  .debug_str:000000000000f6f0 .LASF88
     /tmp/cc8IgIp2.s:75621  .debug_str:000000000000d0d8 .LASF89
     /tmp/cc8IgIp2.s:75501  .debug_str:000000000000cae9 .LASF90
     /tmp/cc8IgIp2.s:75725  .debug_str:000000000000d5d2 .LASF91
     /tmp/cc8IgIp2.s:77295  .debug_str:0000000000011a32 .LASF92
     /tmp/cc8IgIp2.s:77011  .debug_str:0000000000010fa5 .LASF93
     /tmp/cc8IgIp2.s:75941  .debug_str:000000000000dfd6 .LASF94
     /tmp/cc8IgIp2.s:76353  .debug_str:000000000000f223 .LASF95
     /tmp/cc8IgIp2.s:77109  .debug_str:0000000000011316 .LASF96
     /tmp/cc8IgIp2.s:75513  .debug_str:000000000000cb77 .LASF97
     /tmp/cc8IgIp2.s:73623  .debug_str:0000000000007c99 .LASF98
     /tmp/cc8IgIp2.s:74711  .debug_str:000000000000aaf3 .LASF99
     /tmp/cc8IgIp2.s:77995  .debug_str:00000000000138be .LASF100
     /tmp/cc8IgIp2.s:71021  .debug_str:0000000000000cb5 .LASF101
     /tmp/cc8IgIp2.s:71701  .debug_str:000000000000299e .LASF102
     /tmp/cc8IgIp2.s:74927  .debug_str:000000000000b307 .LASF103
     /tmp/cc8IgIp2.s:78047  .debug_str:0000000000013b59 .LASF104
     /tmp/cc8IgIp2.s:75295  .debug_str:000000000000c114 .LASF105
     /tmp/cc8IgIp2.s:75171  .debug_str:000000000000bbdc .LASF106
     /tmp/cc8IgIp2.s:73005  .debug_str:00000000000060bc .LASF107
     /tmp/cc8IgIp2.s:76721  .debug_str:0000000000010235 .LASF108
     /tmp/cc8IgIp2.s:77803  .debug_str:0000000000012fe6 .LASF109
     /tmp/cc8IgIp2.s:75935  .debug_str:000000000000df90 .LASF110
     /tmp/cc8IgIp2.s:73603  .debug_str:0000000000007b80 .LASF111
     /tmp/cc8IgIp2.s:75405  .debug_str:000000000000c688 .LASF112
     /tmp/cc8IgIp2.s:76077  .debug_str:000000000000e5ea .LASF113
     /tmp/cc8IgIp2.s:72989  .debug_str:0000000000005fbf .LASF114
     /tmp/cc8IgIp2.s:71061  .debug_str:0000000000000e8c .LASF115
     /tmp/cc8IgIp2.s:72201  .debug_str:0000000000004024 .LASF116
     /tmp/cc8IgIp2.s:74491  .debug_str:000000000000a259 .LASF117
     /tmp/cc8IgIp2.s:75363  .debug_str:000000000000c483 .LASF118
     /tmp/cc8IgIp2.s:72247  .debug_str:0000000000004225 .LASF119
     /tmp/cc8IgIp2.s:74691  .debug_str:000000000000aa72 .LASF120
     /tmp/cc8IgIp2.s:75737  .debug_str:000000000000d6a4 .LASF121
     /tmp/cc8IgIp2.s:75755  .debug_str:000000000000d793 .LASF122
     /tmp/cc8IgIp2.s:72607  .debug_str:00000000000051d8 .LASF123
     /tmp/cc8IgIp2.s:73941  .debug_str:0000000000008b1e .LASF124
     /tmp/cc8IgIp2.s:72609  .debug_str:00000000000051e4 .LASF125
     /tmp/cc8IgIp2.s:77299  .debug_str:0000000000011a62 .LASF126
     /tmp/cc8IgIp2.s:75139  .debug_str:000000000000ba85 .LASF127
     /tmp/cc8IgIp2.s:74163  .debug_str:0000000000009447 .LASF128
     /tmp/cc8IgIp2.s:75759  .debug_str:000000000000d7ce .LASF129
     /tmp/cc8IgIp2.s:71855  .debug_str:00000000000030a7 .LASF130
     /tmp/cc8IgIp2.s:72487  .debug_str:0000000000004d4c .LASF131
     /tmp/cc8IgIp2.s:74353  .debug_str:0000000000009cc3 .LASF132
     /tmp/cc8IgIp2.s:71725  .debug_str:0000000000002b24 .LASF133
     /tmp/cc8IgIp2.s:72223  .debug_str:000000000000410e .LASF134
     /tmp/cc8IgIp2.s:76759  .debug_str:0000000000010441 .LASF135
     /tmp/cc8IgIp2.s:76525  .debug_str:000000000000f9d7 .LASF136
     /tmp/cc8IgIp2.s:72731  .debug_str:0000000000005693 .LASF137
     /tmp/cc8IgIp2.s:71703  .debug_str:00000000000029e1 .LASF138
     /tmp/cc8IgIp2.s:76873  .debug_str:00000000000108f2 .LASF139
     /tmp/cc8IgIp2.s:70807  .debug_str:0000000000000449 .LASF140
     /tmp/cc8IgIp2.s:74621  .debug_str:000000000000a7aa .LASF141
     /tmp/cc8IgIp2.s:77751  .debug_str:0000000000012e16 .LASF142
     /tmp/cc8IgIp2.s:74239  .debug_str:000000000000978b .LASF143
     /tmp/cc8IgIp2.s:75709  .debug_str:000000000000d503 .LASF144
     /tmp/cc8IgIp2.s:77289  .debug_str:00000000000119fb .LASF145
     /tmp/cc8IgIp2.s:71623  .debug_str:00000000000025d2 .LASF146
     /tmp/cc8IgIp2.s:71947  .debug_str:00000000000034cd .LASF147
     /tmp/cc8IgIp2.s:75047  .debug_str:000000000000b705 .LASF148
     /tmp/cc8IgIp2.s:73683  .debug_str:0000000000007f6f .LASF149
     /tmp/cc8IgIp2.s:74323  .debug_str:0000000000009b14 .LASF150
     /tmp/cc8IgIp2.s:71221  .debug_str:00000000000014c3 .LASF151
     /tmp/cc8IgIp2.s:74175  .debug_str:00000000000094b0 .LASF152
     /tmp/cc8IgIp2.s:71427  .debug_str:0000000000001d34 .LASF153
     /tmp/cc8IgIp2.s:71429  .debug_str:0000000000001d43 .LASF154
     /tmp/cc8IgIp2.s:78027  .debug_str:0000000000013a6e .LASF155
     /tmp/cc8IgIp2.s:71779  .debug_str:0000000000002d5b .LASF156
     /tmp/cc8IgIp2.s:78023  .debug_str:0000000000013a49 .LASF157
     /tmp/cc8IgIp2.s:72667  .debug_str:00000000000053b8 .LASF158
     /tmp/cc8IgIp2.s:70939  .debug_str:00000000000009f5 .LASF159
     /tmp/cc8IgIp2.s:70941  .debug_str:0000000000000a04 .LASF160
     /tmp/cc8IgIp2.s:75111  .debug_str:000000000000b95b .LASF161
     /tmp/cc8IgIp2.s:71405  .debug_str:0000000000001c69 .LASF162
     /tmp/cc8IgIp2.s:77631  .debug_str:0000000000012858 .LASF163
     /tmp/cc8IgIp2.s:76889  .debug_str:00000000000109a3 .LASF164
     /tmp/cc8IgIp2.s:72669  .debug_str:00000000000053c2 .LASF165
     /tmp/cc8IgIp2.s:76309  .debug_str:000000000000f002 .LASF166
     /tmp/cc8IgIp2.s:71979  .debug_str:0000000000003614 .LASF167
     /tmp/cc8IgIp2.s:74723  .debug_str:000000000000ab4d .LASF168
     /tmp/cc8IgIp2.s:76529  .debug_str:000000000000f9ef .LASF169
     /tmp/cc8IgIp2.s:78189  .debug_str:00000000000140b9 .LASF170
     /tmp/cc8IgIp2.s:75819  .debug_str:000000000000da48 .LASF171
     /tmp/cc8IgIp2.s:75879  .debug_str:000000000000dcdf .LASF172
     /tmp/cc8IgIp2.s:75273  .debug_str:000000000000c033 .LASF173
     /tmp/cc8IgIp2.s:73277  .debug_str:0000000000006cc0 .LASF174
     /tmp/cc8IgIp2.s:73183  .debug_str:00000000000068a1 .LASF175
     /tmp/cc8IgIp2.s:76487  .debug_str:000000000000f848 .LASF176
     /tmp/cc8IgIp2.s:76657  .debug_str:000000000000ff30 .LASF177
     /tmp/cc8IgIp2.s:72169  .debug_str:0000000000003e78 .LASF178
     /tmp/cc8IgIp2.s:77659  .debug_str:000000000001296d .LASF179
     /tmp/cc8IgIp2.s:70811  .debug_str:0000000000000461 .LASF180
     /tmp/cc8IgIp2.s:73415  .debug_str:000000000000730d .LASF181
     /tmp/cc8IgIp2.s:71759  .debug_str:0000000000002c96 .LASF182
     /tmp/cc8IgIp2.s:71233  .debug_str:000000000000155c .LASF183
     /tmp/cc8IgIp2.s:77121  .debug_str:00000000000113b3 .LASF184
     /tmp/cc8IgIp2.s:72479  .debug_str:0000000000004d1d .LASF185
     /tmp/cc8IgIp2.s:72871  .debug_str:0000000000005b4e .LASF186
     /tmp/cc8IgIp2.s:74181  .debug_str:00000000000094e4 .LASF187
     /tmp/cc8IgIp2.s:73811  .debug_str:0000000000008576 .LASF188
     /tmp/cc8IgIp2.s:72469  .debug_str:0000000000004cb3 .LASF189
     /tmp/cc8IgIp2.s:77851  .debug_str:0000000000013204 .LASF190
     /tmp/cc8IgIp2.s:73735  .debug_str:00000000000081fe .LASF191
     /tmp/cc8IgIp2.s:71217  .debug_str:00000000000014a6 .LASF192
     /tmp/cc8IgIp2.s:77123  .debug_str:00000000000113bd .LASF193
     /tmp/cc8IgIp2.s:72047  .debug_str:000000000000393c .LASF194
     /tmp/cc8IgIp2.s:73379  .debug_str:000000000000719a .LASF195
     /tmp/cc8IgIp2.s:75337  .debug_str:000000000000c31c .LASF196
     /tmp/cc8IgIp2.s:75113  .debug_str:000000000000b969 .LASF197
     /tmp/cc8IgIp2.s:72633  .debug_str:0000000000005307 .LASF198
     /tmp/cc8IgIp2.s:75831  .debug_str:000000000000dadf .LASF199
     /tmp/cc8IgIp2.s:77125  .debug_str:00000000000113c7 .LASF200
     /tmp/cc8IgIp2.s:73333  .debug_str:0000000000006f5f .LASF201
     /tmp/cc8IgIp2.s:77127  .debug_str:00000000000113d1 .LASF202
     /tmp/cc8IgIp2.s:77129  .debug_str:00000000000113db .LASF203
     /tmp/cc8IgIp2.s:77131  .debug_str:00000000000113e5 .LASF204
     /tmp/cc8IgIp2.s:76883  .debug_str:000000000001096d .LASF205
     /tmp/cc8IgIp2.s:71985  .debug_str:0000000000003688 .LASF206
     /tmp/cc8IgIp2.s:73749  .debug_str:00000000000082a0 .LASF207
     /tmp/cc8IgIp2.s:76067  .debug_str:000000000000e589 .LASF208
     /tmp/cc8IgIp2.s:77133  .debug_str:00000000000113ef .LASF209
     /tmp/cc8IgIp2.s:77135  .debug_str:00000000000113f9 .LASF210
     /tmp/cc8IgIp2.s:74291  .debug_str:00000000000099b6 .LASF211
     /tmp/cc8IgIp2.s:77887  .debug_str:0000000000013384 .LASF212
     /tmp/cc8IgIp2.s:73419  .debug_str:0000000000007327 .LASF213
     /tmp/cc8IgIp2.s:72511  .debug_str:0000000000004df8 .LASF214
     /tmp/cc8IgIp2.s:77137  .debug_str:0000000000011403 .LASF215
     /tmp/cc8IgIp2.s:73073  .debug_str:000000000000636a .LASF216
     /tmp/cc8IgIp2.s:77139  .debug_str:000000000001140d .LASF217
     /tmp/cc8IgIp2.s:72737  .debug_str:00000000000056c9 .LASF218
     /tmp/cc8IgIp2.s:71877  .debug_str:00000000000031cc .LASF219
     /tmp/cc8IgIp2.s:77191  .debug_str:000000000001165c .LASF220
     /tmp/cc8IgIp2.s:70873  .debug_str:000000000000073f .LASF221
     /tmp/cc8IgIp2.s:77193  .debug_str:0000000000011666 .LASF222
     /tmp/cc8IgIp2.s:74547  .debug_str:000000000000a4e7 .LASF223
     /tmp/cc8IgIp2.s:74563  .debug_str:000000000000a532 .LASF224
     /tmp/cc8IgIp2.s:72045  .debug_str:0000000000003931 .LASF225
     /tmp/cc8IgIp2.s:71307  .debug_str:000000000000180b .LASF226
     /tmp/cc8IgIp2.s:77195  .debug_str:0000000000011670 .LASF227
     /tmp/cc8IgIp2.s:76385  .debug_str:000000000000f38e .LASF228
     /tmp/cc8IgIp2.s:77197  .debug_str:000000000001167a .LASF229
     /tmp/cc8IgIp2.s:71453  .debug_str:0000000000001e5c .LASF230
     /tmp/cc8IgIp2.s:78139  .debug_str:0000000000013f16 .LASF231
     /tmp/cc8IgIp2.s:77199  .debug_str:0000000000011684 .LASF232
     /tmp/cc8IgIp2.s:74305  .debug_str:0000000000009a4f .LASF233
     /tmp/cc8IgIp2.s:73395  .debug_str:0000000000007243 .LASF234
     /tmp/cc8IgIp2.s:75827  .debug_str:000000000000dabc .LASF235
     /tmp/cc8IgIp2.s:76287  .debug_str:000000000000eefd .LASF236
     /tmp/cc8IgIp2.s:77119  .debug_str:00000000000113ab .LASF237
     /tmp/cc8IgIp2.s:76621  .debug_str:000000000000fdd7 .LASF238
     /tmp/cc8IgIp2.s:77201  .debug_str:000000000001168e .LASF239
     /tmp/cc8IgIp2.s:75821  .debug_str:000000000000da59 .LASF240
     /tmp/cc8IgIp2.s:77203  .debug_str:0000000000011698 .LASF241
     /tmp/cc8IgIp2.s:77367  .debug_str:0000000000011d1c .LASF242
     /tmp/cc8IgIp2.s:75905  .debug_str:000000000000de3b .LASF243
     /tmp/cc8IgIp2.s:77205  .debug_str:00000000000116a2 .LASF244
     /tmp/cc8IgIp2.s:75205  .debug_str:000000000000bd8b .LASF245
     /tmp/cc8IgIp2.s:72947  .debug_str:0000000000005e57 .LASF246
     /tmp/cc8IgIp2.s:73253  .debug_str:0000000000006b9b .LASF247
     /tmp/cc8IgIp2.s:75409  .debug_str:000000000000c6bd .LASF248
     /tmp/cc8IgIp2.s:77351  .debug_str:0000000000011c83 .LASF249
     /tmp/cc8IgIp2.s:77207  .debug_str:00000000000116ac .LASF250
     /tmp/cc8IgIp2.s:77057  .debug_str:000000000001117c .LASF251
     /tmp/cc8IgIp2.s:77209  .debug_str:00000000000116b6 .LASF252
     /tmp/cc8IgIp2.s:78005  .debug_str:0000000000013978 .LASF253
     /tmp/cc8IgIp2.s:77249  .debug_str:00000000000118f3 .LASF254
     /tmp/cc8IgIp2.s:78249  .debug_str:0000000000014393 .LASF255
     /tmp/cc8IgIp2.s:75529  .debug_str:000000000000cc84 .LASF256
     /tmp/cc8IgIp2.s:75541  .debug_str:000000000000cd3c .LASF257
     /tmp/cc8IgIp2.s:72427  .debug_str:0000000000004aaf .LASF258
     /tmp/cc8IgIp2.s:76687  .debug_str:000000000001008d .LASF259
     /tmp/cc8IgIp2.s:72115  .debug_str:0000000000003bd8 .LASF260
     /tmp/cc8IgIp2.s:75389  .debug_str:000000000000c5f4 .LASF261
     /tmp/cc8IgIp2.s:70727  .debug_str:000000000000007b .LASF262
     /tmp/cc8IgIp2.s:71941  .debug_str:00000000000034a9 .LASF263
     /tmp/cc8IgIp2.s:77251  .debug_str:00000000000118fd .LASF264
     /tmp/cc8IgIp2.s:77817  .debug_str:0000000000013089 .LASF265
     /tmp/cc8IgIp2.s:72765  .debug_str:000000000000576b .LASF266
     /tmp/cc8IgIp2.s:72213  .debug_str:000000000000409a .LASF267
     /tmp/cc8IgIp2.s:76599  .debug_str:000000000000fcd3 .LASF268
     /tmp/cc8IgIp2.s:77061  .debug_str:000000000001119a .LASF269
     /tmp/cc8IgIp2.s:75637  .debug_str:000000000000d1b6 .LASF270
     /tmp/cc8IgIp2.s:72393  .debug_str:00000000000048e3 .LASF271
     /tmp/cc8IgIp2.s:76791  .debug_str:000000000001057d .LASF272
     /tmp/cc8IgIp2.s:76137  .debug_str:000000000000e91e .LASF273
     /tmp/cc8IgIp2.s:71579  .debug_str:00000000000023d2 .LASF274
     /tmp/cc8IgIp2.s:77063  .debug_str:00000000000111a4 .LASF275
     /tmp/cc8IgIp2.s:77925  .debug_str:000000000001354d .LASF276
     /tmp/cc8IgIp2.s:73339  .debug_str:0000000000006fbf .LASF277
     /tmp/cc8IgIp2.s:74367  .debug_str:0000000000009d6d .LASF278
     /tmp/cc8IgIp2.s:72825  .debug_str:00000000000059b2 .LASF279
     /tmp/cc8IgIp2.s:77065  .debug_str:00000000000111ae .LASF280
     /tmp/cc8IgIp2.s:72659  .debug_str:0000000000005384 .LASF281
     /tmp/cc8IgIp2.s:74229  .debug_str:00000000000096f3 .LASF282
     /tmp/cc8IgIp2.s:75131  .debug_str:000000000000ba26 .LASF283
     /tmp/cc8IgIp2.s:73459  .debug_str:000000000000748e .LASF284
     /tmp/cc8IgIp2.s:72363  .debug_str:0000000000004764 .LASF285
     /tmp/cc8IgIp2.s:75279  .debug_str:000000000000c09b .LASF286
     /tmp/cc8IgIp2.s:77943  .debug_str:0000000000013614 .LASF287
     /tmp/cc8IgIp2.s:77247  .debug_str:00000000000118e8 .LASF288
     /tmp/cc8IgIp2.s:77067  .debug_str:00000000000111b8 .LASF289
     /tmp/cc8IgIp2.s:77069  .debug_str:00000000000111c2 .LASF290
     /tmp/cc8IgIp2.s:75207  .debug_str:000000000000bd9a .LASF291
     /tmp/cc8IgIp2.s:75159  .debug_str:000000000000bb27 .LASF292
     /tmp/cc8IgIp2.s:71393  .debug_str:0000000000001bef .LASF293
     /tmp/cc8IgIp2.s:71273  .debug_str:0000000000001666 .LASF294
     /tmp/cc8IgIp2.s:71345  .debug_str:000000000000197d .LASF295
     /tmp/cc8IgIp2.s:75883  .debug_str:000000000000dcfe .LASF296
     /tmp/cc8IgIp2.s:73093  .debug_str:000000000000645c .LASF297
     /tmp/cc8IgIp2.s:71569  .debug_str:000000000000233d .LASF298
     /tmp/cc8IgIp2.s:77255  .debug_str:000000000001191f .LASF299
     /tmp/cc8IgIp2.s:78091  .debug_str:0000000000013d44 .LASF300
     /tmp/cc8IgIp2.s:72003  .debug_str:000000000000378d .LASF301
     /tmp/cc8IgIp2.s:74477  .debug_str:000000000000a220 .LASF302
     /tmp/cc8IgIp2.s:75411  .debug_str:000000000000c6c9 .LASF303
     /tmp/cc8IgIp2.s:78205  .debug_str:0000000000014196 .LASF304
     /tmp/cc8IgIp2.s:76143  .debug_str:000000000000e93e .LASF305
     /tmp/cc8IgIp2.s:73579  .debug_str:0000000000007a35 .LASF306
     /tmp/cc8IgIp2.s:75313  .debug_str:000000000000c211 .LASF307
     /tmp/cc8IgIp2.s:73487  .debug_str:00000000000075a2 .LASF308
     /tmp/cc8IgIp2.s:71451  .debug_str:0000000000001e30 .LASF309
     /tmp/cc8IgIp2.s:70731  .debug_str:00000000000000b7 .LASF310
     /tmp/cc8IgIp2.s:77927  .debug_str:000000000001355d .LASF311
     /tmp/cc8IgIp2.s:76927  .debug_str:0000000000010b6a .LASF312
     /tmp/cc8IgIp2.s:75893  .debug_str:000000000000dd73 .LASF313
     /tmp/cc8IgIp2.s:74037  .debug_str:0000000000008f19 .LASF314
     /tmp/cc8IgIp2.s:73483  .debug_str:000000000000755d .LASF315
     /tmp/cc8IgIp2.s:72059  .debug_str:00000000000039a5 .LASF316
     /tmp/cc8IgIp2.s:77917  .debug_str:00000000000134c3 .LASF317
     /tmp/cc8IgIp2.s:72057  .debug_str:0000000000003994 .LASF318
     /tmp/cc8IgIp2.s:72403  .debug_str:000000000000498b .LASF319
     /tmp/cc8IgIp2.s:71459  .debug_str:0000000000001e95 .LASF320
     /tmp/cc8IgIp2.s:77531  .debug_str:0000000000012420 .LASF321
     /tmp/cc8IgIp2.s:70779  .debug_str:0000000000000313 .LASF322
     /tmp/cc8IgIp2.s:75063  .debug_str:000000000000b7dd .LASF323
     /tmp/cc8IgIp2.s:77757  .debug_str:0000000000012e46 .LASF324
     /tmp/cc8IgIp2.s:72367  .debug_str:0000000000004791 .LASF325
     /tmp/cc8IgIp2.s:72875  .debug_str:0000000000005b6c .LASF326
     /tmp/cc8IgIp2.s:72561  .debug_str:000000000000503b .LASF327
     /tmp/cc8IgIp2.s:73633  .debug_str:0000000000007d17 .LASF328
     /tmp/cc8IgIp2.s:74421  .debug_str:0000000000009f30 .LASF329
     /tmp/cc8IgIp2.s:71607  .debug_str:000000000000254c .LASF330
     /tmp/cc8IgIp2.s:77669  .debug_str:00000000000129de .LASF331
     /tmp/cc8IgIp2.s:75873  .debug_str:000000000000dca3 .LASF332
     /tmp/cc8IgIp2.s:76733  .debug_str:00000000000102fb .LASF333
     /tmp/cc8IgIp2.s:71327  .debug_str:00000000000018af .LASF334
     /tmp/cc8IgIp2.s:77637  .debug_str:000000000001288d .LASF335
     /tmp/cc8IgIp2.s:78259  .debug_str:00000000000143ff .LASF336
     /tmp/cc8IgIp2.s:78109  .debug_str:0000000000013e17 .LASF337
     /tmp/cc8IgIp2.s:75365  .debug_str:000000000000c4a9 .LASF338
     /tmp/cc8IgIp2.s:78269  .debug_str:0000000000014481 .LASF339
     /tmp/cc8IgIp2.s:72569  .debug_str:000000000000505d .LASF340
     /tmp/cc8IgIp2.s:75377  .debug_str:000000000000c56c .LASF341
     /tmp/cc8IgIp2.s:73681  .debug_str:0000000000007f66 .LASF342
     /tmp/cc8IgIp2.s:76515  .debug_str:000000000000f96e .LASF343
     /tmp/cc8IgIp2.s:76649  .debug_str:000000000000fef3 .LASF344
     /tmp/cc8IgIp2.s:77691  .debug_str:0000000000012af6 .LASF345
     /tmp/cc8IgIp2.s:71499  .debug_str:0000000000002026 .LASF346
     /tmp/cc8IgIp2.s:74077  .debug_str:00000000000090a6 .LASF347
     /tmp/cc8IgIp2.s:73963  .debug_str:0000000000008c07 .LASF348
     /tmp/cc8IgIp2.s:74445  .debug_str:000000000000a06b .LASF349
     /tmp/cc8IgIp2.s:74815  .debug_str:000000000000af13 .LASF350
     /tmp/cc8IgIp2.s:74625  .debug_str:000000000000a7bc .LASF351
     /tmp/cc8IgIp2.s:75425  .debug_str:000000000000c7a5 .LASF352
     /tmp/cc8IgIp2.s:73535  .debug_str:0000000000007855 .LASF353
     /tmp/cc8IgIp2.s:76893  .debug_str:00000000000109c8 .LASF354
     /tmp/cc8IgIp2.s:74699  .debug_str:000000000000aabd .LASF355
     /tmp/cc8IgIp2.s:74341  .debug_str:0000000000009c19 .LASF356
     /tmp/cc8IgIp2.s:77777  .debug_str:0000000000012f0b .LASF357
     /tmp/cc8IgIp2.s:75557  .debug_str:000000000000cdf7 .LASF358
     /tmp/cc8IgIp2.s:76445  .debug_str:000000000000f66a .LASF359
     /tmp/cc8IgIp2.s:71475  .debug_str:0000000000001f31 .LASF360
     /tmp/cc8IgIp2.s:73085  .debug_str:00000000000063f4 .LASF361
     /tmp/cc8IgIp2.s:72973  .debug_str:0000000000005f09 .LASF362
     /tmp/cc8IgIp2.s:75917  .debug_str:000000000000dea3 .LASF363
     /tmp/cc8IgIp2.s:76691  .debug_str:00000000000100cb .LASF364
     /tmp/cc8IgIp2.s:74387  .debug_str:0000000000009dfa .LASF365
     /tmp/cc8IgIp2.s:71065  .debug_str:0000000000000ec4 .LASF366
     /tmp/cc8IgIp2.s:72281  .debug_str:0000000000004413 .LASF367
     /tmp/cc8IgIp2.s:77861  .debug_str:0000000000013284 .LASF368
     /tmp/cc8IgIp2.s:77859  .debug_str:0000000000013274 .LASF369
     /tmp/cc8IgIp2.s:74301  .debug_str:0000000000009a1e .LASF370
     /tmp/cc8IgIp2.s:77809  .debug_str:0000000000013049 .LASF371
     /tmp/cc8IgIp2.s:73771  .debug_str:00000000000083b0 .LASF372
     /tmp/cc8IgIp2.s:73747  .debug_str:0000000000008293 .LASF373
     /tmp/cc8IgIp2.s:75497  .debug_str:000000000000cab0 .LASF374
     /tmp/cc8IgIp2.s:74011  .debug_str:0000000000008e00 .LASF375
     /tmp/cc8IgIp2.s:71067  .debug_str:0000000000000ecd .LASF376
     /tmp/cc8IgIp2.s:75539  .debug_str:000000000000cd19 .LASF377
     /tmp/cc8IgIp2.s:72377  .debug_str:0000000000004828 .LASF378
     /tmp/cc8IgIp2.s:77677  .debug_str:0000000000012a69 .LASF379
     /tmp/cc8IgIp2.s:72189  .debug_str:0000000000003f72 .LASF380
     /tmp/cc8IgIp2.s:76773  .debug_str:00000000000104d8 .LASF381
     /tmp/cc8IgIp2.s:75025  .debug_str:000000000000b666 .LASF382
     /tmp/cc8IgIp2.s:71069  .debug_str:0000000000000ed6 .LASF383
     /tmp/cc8IgIp2.s:70887  .debug_str:00000000000007c5 .LASF384
     /tmp/cc8IgIp2.s:72599  .debug_str:00000000000051af .LASF385
     /tmp/cc8IgIp2.s:75231  .debug_str:000000000000be62 .LASF386
     /tmp/cc8IgIp2.s:73965  .debug_str:0000000000008c23 .LASF387
     /tmp/cc8IgIp2.s:78013  .debug_str:00000000000139c1 .LASF388
     /tmp/cc8IgIp2.s:73703  .debug_str:00000000000080d4 .LASF389
     /tmp/cc8IgIp2.s:73687  .debug_str:0000000000007f91 .LASF390
     /tmp/cc8IgIp2.s:72107  .debug_str:0000000000003b9e .LASF391
     /tmp/cc8IgIp2.s:74595  .debug_str:000000000000a662 .LASF392
     /tmp/cc8IgIp2.s:77071  .debug_str:00000000000111cc .LASF393
     /tmp/cc8IgIp2.s:71071  .debug_str:0000000000000edf .LASF394
     /tmp/cc8IgIp2.s:74089  .debug_str:000000000000914e .LASF395
     /tmp/cc8IgIp2.s:74831  .debug_str:000000000000afa1 .LASF396
     /tmp/cc8IgIp2.s:75053  .debug_str:000000000000b750 .LASF397
     /tmp/cc8IgIp2.s:74917  .debug_str:000000000000b27d .LASF398
     /tmp/cc8IgIp2.s:74901  .debug_str:000000000000b1fb .LASF399
     /tmp/cc8IgIp2.s:73307  .debug_str:0000000000006e09 .LASF400
     /tmp/cc8IgIp2.s:77301  .debug_str:0000000000011a72 .LASF401
     /tmp/cc8IgIp2.s:74455  .debug_str:000000000000a0cc .LASF402
     /tmp/cc8IgIp2.s:70743  .debug_str:000000000000014c .LASF403
     /tmp/cc8IgIp2.s:74959  .debug_str:000000000000b43b .LASF404
     /tmp/cc8IgIp2.s:73181  .debug_str:000000000000688f .LASF405
     /tmp/cc8IgIp2.s:73157  .debug_str:000000000000679b .LASF406
     /tmp/cc8IgIp2.s:77073  .debug_str:00000000000111d6 .LASF407
     /tmp/cc8IgIp2.s:71073  .debug_str:0000000000000ee8 .LASF408
     /tmp/cc8IgIp2.s:73337  .debug_str:0000000000006f9c .LASF409
     /tmp/cc8IgIp2.s:76157  .debug_str:000000000000e9ca .LASF410
     /tmp/cc8IgIp2.s:76141  .debug_str:000000000000e930 .LASF411
     /tmp/cc8IgIp2.s:77051  .debug_str:000000000001114b .LASF412
     /tmp/cc8IgIp2.s:77039  .debug_str:00000000000110d7 .LASF413
     /tmp/cc8IgIp2.s:77075  .debug_str:00000000000111e0 .LASF414
     /tmp/cc8IgIp2.s:71075  .debug_str:0000000000000ef1 .LASF415
     /tmp/cc8IgIp2.s:72559  .debug_str:0000000000005018 .LASF416
     /tmp/cc8IgIp2.s:77723  .debug_str:0000000000012cbf .LASF417
     /tmp/cc8IgIp2.s:74615  .debug_str:000000000000a74f .LASF418
     /tmp/cc8IgIp2.s:77077  .debug_str:00000000000111ea .LASF419
     /tmp/cc8IgIp2.s:71077  .debug_str:0000000000000efa .LASF420
     /tmp/cc8IgIp2.s:75761  .debug_str:000000000000d7fb .LASF421
     /tmp/cc8IgIp2.s:71501  .debug_str:0000000000002032 .LASF422
     /tmp/cc8IgIp2.s:76807  .debug_str:0000000000010613 .LASF423
     /tmp/cc8IgIp2.s:76075  .debug_str:000000000000e5be .LASF424
     /tmp/cc8IgIp2.s:73365  .debug_str:00000000000070fa .LASF425
     /tmp/cc8IgIp2.s:71259  .debug_str:00000000000015d8 .LASF426
     /tmp/cc8IgIp2.s:72593  .debug_str:000000000000514c .LASF427
     /tmp/cc8IgIp2.s:76427  .debug_str:000000000000f588 .LASF428
     /tmp/cc8IgIp2.s:74501  .debug_str:000000000000a2c8 .LASF429
     /tmp/cc8IgIp2.s:75213  .debug_str:000000000000bdc3 .LASF430
     /tmp/cc8IgIp2.s:73481  .debug_str:0000000000007552 .LASF431
     /tmp/cc8IgIp2.s:76325  .debug_str:000000000000f0f3 .LASF432
     /tmp/cc8IgIp2.s:75291  .debug_str:000000000000c0fa .LASF433
     /tmp/cc8IgIp2.s:71467  .debug_str:0000000000001ee0 .LASF434
     /tmp/cc8IgIp2.s:75803  .debug_str:000000000000d9bd .LASF435
     /tmp/cc8IgIp2.s:76929  .debug_str:0000000000010b7a .LASF436
     /tmp/cc8IgIp2.s:78063  .debug_str:0000000000013c10 .LASF437
     /tmp/cc8IgIp2.s:71655  .debug_str:0000000000002740 .LASF438
     /tmp/cc8IgIp2.s:72849  .debug_str:0000000000005a73 .LASF439
     /tmp/cc8IgIp2.s:74073  .debug_str:000000000000908f .LASF440
     /tmp/cc8IgIp2.s:74125  .debug_str:0000000000009311 .LASF441
     /tmp/cc8IgIp2.s:76043  .debug_str:000000000000e44c .LASF442
     /tmp/cc8IgIp2.s:75745  .debug_str:000000000000d71f .LASF443
     /tmp/cc8IgIp2.s:77909  .debug_str:000000000001346a .LASF444
     /tmp/cc8IgIp2.s:76435  .debug_str:000000000000f5ed .LASF445
     /tmp/cc8IgIp2.s:73537  .debug_str:0000000000007864 .LASF446
     /tmp/cc8IgIp2.s:76993  .debug_str:0000000000010ee7 .LASF447
     /tmp/cc8IgIp2.s:78129  .debug_str:0000000000013ea8 .LASF448
     /tmp/cc8IgIp2.s:74565  .debug_str:000000000000a55d .LASF449
     /tmp/cc8IgIp2.s:74127  .debug_str:000000000000931a .LASF450
     /tmp/cc8IgIp2.s:75335  .debug_str:000000000000c312 .LASF451
     /tmp/cc8IgIp2.s:71691  .debug_str:00000000000028ef .LASF452
     /tmp/cc8IgIp2.s:75629  .debug_str:000000000000d170 .LASF453
     /tmp/cc8IgIp2.s:75583  .debug_str:000000000000cf12 .LASF454
     /tmp/cc8IgIp2.s:71653  .debug_str:0000000000002730 .LASF455
     /tmp/cc8IgIp2.s:74129  .debug_str:0000000000009323 .LASF456
     /tmp/cc8IgIp2.s:73349  .debug_str:0000000000007036 .LASF457
     /tmp/cc8IgIp2.s:70963  .debug_str:0000000000000a78 .LASF458
     /tmp/cc8IgIp2.s:73945  .debug_str:0000000000008b3f .LASF459
     /tmp/cc8IgIp2.s:76133  .debug_str:000000000000e8ed .LASF460
     /tmp/cc8IgIp2.s:74929  .debug_str:000000000000b32f .LASF461
     /tmp/cc8IgIp2.s:75973  .debug_str:000000000000e14c .LASF462
     /tmp/cc8IgIp2.s:72855  .debug_str:0000000000005ab7 .LASF463
     /tmp/cc8IgIp2.s:74131  .debug_str:000000000000932c .LASF464
     /tmp/cc8IgIp2.s:72997  .debug_str:0000000000006044 .LASF465
     /tmp/cc8IgIp2.s:78187  .debug_str:0000000000014093 .LASF466
     /tmp/cc8IgIp2.s:77695  .debug_str:0000000000012b34 .LASF467
     /tmp/cc8IgIp2.s:75343  .debug_str:000000000000c382 .LASF468
     /tmp/cc8IgIp2.s:74133  .debug_str:0000000000009335 .LASF469
     /tmp/cc8IgIp2.s:72723  .debug_str:0000000000005643 .LASF470
     /tmp/cc8IgIp2.s:74105  .debug_str:000000000000920f .LASF471
     /tmp/cc8IgIp2.s:74135  .debug_str:000000000000933e .LASF472
     /tmp/cc8IgIp2.s:71335  .debug_str:0000000000001934 .LASF473
     /tmp/cc8IgIp2.s:73799  .debug_str:00000000000084cb .LASF474
     /tmp/cc8IgIp2.s:71543  .debug_str:0000000000002227 .LASF475
     /tmp/cc8IgIp2.s:74453  .debug_str:000000000000a0c2 .LASF476
     /tmp/cc8IgIp2.s:77811  .debug_str:000000000001305a .LASF477
     /tmp/cc8IgIp2.s:76129  .debug_str:000000000000e8c9 .LASF478
     /tmp/cc8IgIp2.s:74137  .debug_str:0000000000009347 .LASF479
     /tmp/cc8IgIp2.s:75633  .debug_str:000000000000d18b .LASF480
     /tmp/cc8IgIp2.s:73407  .debug_str:00000000000072b2 .LASF481
     /tmp/cc8IgIp2.s:71511  .debug_str:0000000000002087 .LASF482
     /tmp/cc8IgIp2.s:73323  .debug_str:0000000000006ede .LASF483
     /tmp/cc8IgIp2.s:71869  .debug_str:0000000000003174 .LASF484
     /tmp/cc8IgIp2.s:73469  .debug_str:00000000000074dc .LASF485
     /tmp/cc8IgIp2.s:72755  .debug_str:0000000000005704 .LASF486
     /tmp/cc8IgIp2.s:75119  .debug_str:000000000000b99e .LASF487
     /tmp/cc8IgIp2.s:77213  .debug_str:00000000000116df .LASF488
     /tmp/cc8IgIp2.s:74199  .debug_str:0000000000009592 .LASF489
     /tmp/cc8IgIp2.s:77325  .debug_str:0000000000011b10 .LASF490
     /tmp/cc8IgIp2.s:74879  .debug_str:000000000000b136 .LASF491
     /tmp/cc8IgIp2.s:72933  .debug_str:0000000000005da5 .LASF492
     /tmp/cc8IgIp2.s:74733  .debug_str:000000000000abbf .LASF493
     /tmp/cc8IgIp2.s:74987  .debug_str:000000000000b542 .LASF494
     /tmp/cc8IgIp2.s:74155  .debug_str:000000000000940c .LASF495
     /tmp/cc8IgIp2.s:78265  .debug_str:0000000000014432 .LASF496
     /tmp/cc8IgIp2.s:76285  .debug_str:000000000000eef6 .LASF497
     /tmp/cc8IgIp2.s:75391  .debug_str:000000000000c605 .LASF498
     /tmp/cc8IgIp2.s:76703  .debug_str:0000000000010154 .LASF499
     /tmp/cc8IgIp2.s:71749  .debug_str:0000000000002c29 .LASF500
     /tmp/cc8IgIp2.s:76431  .debug_str:000000000000f5d3 .LASF501
     /tmp/cc8IgIp2.s:77719  .debug_str:0000000000012c88 .LASF502
     /tmp/cc8IgIp2.s:70995  .debug_str:0000000000000c05 .LASF503
     /tmp/cc8IgIp2.s:71959  .debug_str:0000000000003527 .LASF504
     /tmp/cc8IgIp2.s:76991  .debug_str:0000000000010ed4 .LASF505
     /tmp/cc8IgIp2.s:70885  .debug_str:00000000000007b1 .LASF506
     /tmp/cc8IgIp2.s:75537  .debug_str:000000000000cd02 .LASF507
     /tmp/cc8IgIp2.s:71731  .debug_str:0000000000002b4e .LASF508
     /tmp/cc8IgIp2.s:74205  .debug_str:00000000000095ce .LASF509
     /tmp/cc8IgIp2.s:72203  .debug_str:000000000000403d .LASF510
     /tmp/cc8IgIp2.s:71127  .debug_str:00000000000010b8 .LASF511
     /tmp/cc8IgIp2.s:77785  .debug_str:0000000000012f5b .LASF512
     /tmp/cc8IgIp2.s:73463  .debug_str:00000000000074b4 .LASF513
     /tmp/cc8IgIp2.s:72079  .debug_str:0000000000003a8d .LASF514
     /tmp/cc8IgIp2.s:75145  .debug_str:000000000000baba .LASF515
     /tmp/cc8IgIp2.s:74695  .debug_str:000000000000aaad .LASF516
     /tmp/cc8IgIp2.s:73209  .debug_str:0000000000006998 .LASF517
     /tmp/cc8IgIp2.s:74789  .debug_str:000000000000adb2 .LASF518
     /tmp/cc8IgIp2.s:75809  .debug_str:000000000000d9ed .LASF519
     /tmp/cc8IgIp2.s:74247  .debug_str:00000000000097da .LASF520
     /tmp/cc8IgIp2.s:73087  .debug_str:0000000000006403 .LASF521
     /tmp/cc8IgIp2.s:76933  .debug_str:0000000000010ba4 .LASF522
     /tmp/cc8IgIp2.s:75371  .debug_str:000000000000c4f9 .LASF523
     /tmp/cc8IgIp2.s:76015  .debug_str:000000000000e309 .LASF524
     /tmp/cc8IgIp2.s:78071  .debug_str:0000000000013c72 .LASF525
     /tmp/cc8IgIp2.s:76323  .debug_str:000000000000f0d0 .LASF526
     /tmp/cc8IgIp2.s:75811  .debug_str:000000000000d9f6 .LASF527
     /tmp/cc8IgIp2.s:71665  .debug_str:00000000000027ab .LASF528
     /tmp/cc8IgIp2.s:77291  .debug_str:0000000000011a07 .LASF529
     /tmp/cc8IgIp2.s:70859  .debug_str:0000000000000677 .LASF530
     /tmp/cc8IgIp2.s:72861  .debug_str:0000000000005add .LASF531
     /tmp/cc8IgIp2.s:70719  .debug_str:0000000000000011 .LASF532
     /tmp/cc8IgIp2.s:70861  .debug_str:0000000000000687 .LASF533
     /tmp/cc8IgIp2.s:74079  .debug_str:00000000000090cc .LASF534
     /tmp/cc8IgIp2.s:71773  .debug_str:0000000000002d1e .LASF535
     /tmp/cc8IgIp2.s:71957  .debug_str:0000000000003519 .LASF536
     /tmp/cc8IgIp2.s:73877  .debug_str:0000000000008866 .LASF537
     /tmp/cc8IgIp2.s:70933  .debug_str:000000000000099d .LASF538
     /tmp/cc8IgIp2.s:76367  .debug_str:000000000000f2e9 .LASF539
     /tmp/cc8IgIp2.s:75149  .debug_str:000000000000bad5 .LASF540
     /tmp/cc8IgIp2.s:77657  .debug_str:0000000000012949 .LASF541
     /tmp/cc8IgIp2.s:73405  .debug_str:00000000000072a0 .LASF542
     /tmp/cc8IgIp2.s:71353  .debug_str:00000000000019f6 .LASF543
     /tmp/cc8IgIp2.s:73375  .debug_str:0000000000007168 .LASF544
     /tmp/cc8IgIp2.s:77959  .debug_str:00000000000136fd .LASF545
     /tmp/cc8IgIp2.s:75931  .debug_str:000000000000df68 .LASF546
     /tmp/cc8IgIp2.s:74087  .debug_str:000000000000911e .LASF547
     /tmp/cc8IgIp2.s:73223  .debug_str:0000000000006a33 .LASF548
     /tmp/cc8IgIp2.s:77257  .debug_str:0000000000011931 .LASF549
     /tmp/cc8IgIp2.s:71593  .debug_str:0000000000002458 .LASF550
     /tmp/cc8IgIp2.s:73225  .debug_str:0000000000006a3f .LASF551
     /tmp/cc8IgIp2.s:77259  .debug_str:0000000000011937 .LASF552
     /tmp/cc8IgIp2.s:74791  .debug_str:000000000000adba .LASF553
     /tmp/cc8IgIp2.s:73227  .debug_str:0000000000006a4b .LASF554
     /tmp/cc8IgIp2.s:77261  .debug_str:000000000001193d .LASF555
     /tmp/cc8IgIp2.s:77767  .debug_str:0000000000012ebd .LASF556
     /tmp/cc8IgIp2.s:77877  .debug_str:000000000001334a .LASF557
     /tmp/cc8IgIp2.s:77263  .debug_str:0000000000011943 .LASF558
     /tmp/cc8IgIp2.s:73305  .debug_str:0000000000006de9 .LASF559
     /tmp/cc8IgIp2.s:77879  .debug_str:0000000000013354 .LASF560
     /tmp/cc8IgIp2.s:77265  .debug_str:0000000000011949 .LASF561
     /tmp/cc8IgIp2.s:76381  .debug_str:000000000000f35a .LASF562
     /tmp/cc8IgIp2.s:77881  .debug_str:000000000001335e .LASF563
     /tmp/cc8IgIp2.s:77267  .debug_str:000000000001194f .LASF564
     /tmp/cc8IgIp2.s:71829  .debug_str:0000000000002f7d .LASF565
     /tmp/cc8IgIp2.s:77883  .debug_str:0000000000013368 .LASF566
     /tmp/cc8IgIp2.s:77269  .debug_str:0000000000011955 .LASF567
     /tmp/cc8IgIp2.s:75077  .debug_str:000000000000b882 .LASF568
     /tmp/cc8IgIp2.s:75179  .debug_str:000000000000bc2a .LASF569
     /tmp/cc8IgIp2.s:77271  .debug_str:000000000001195b .LASF570
     /tmp/cc8IgIp2.s:78029  .debug_str:0000000000013a7c .LASF571
     /tmp/cc8IgIp2.s:73197  .debug_str:0000000000006925 .LASF572
     /tmp/cc8IgIp2.s:77273  .debug_str:0000000000011961 .LASF573
     /tmp/cc8IgIp2.s:73581  .debug_str:0000000000007a45 .LASF574
     /tmp/cc8IgIp2.s:73199  .debug_str:0000000000006930 .LASF575
     /tmp/cc8IgIp2.s:78145  .debug_str:0000000000013f49 .LASF576
     /tmp/cc8IgIp2.s:76039  .debug_str:000000000000e41b .LASF577
     /tmp/cc8IgIp2.s:73201  .debug_str:000000000000693b .LASF578
     /tmp/cc8IgIp2.s:78147  .debug_str:0000000000013f50 .LASF579
     /tmp/cc8IgIp2.s:71495  .debug_str:0000000000001ff2 .LASF580
     /tmp/cc8IgIp2.s:73433  .debug_str:000000000000737d .LASF581
     /tmp/cc8IgIp2.s:78149  .debug_str:0000000000013f57 .LASF582
     /tmp/cc8IgIp2.s:74689  .debug_str:000000000000aa51 .LASF583
     /tmp/cc8IgIp2.s:73435  .debug_str:0000000000007386 .LASF584
     /tmp/cc8IgIp2.s:78151  .debug_str:0000000000013f5e .LASF585
     /tmp/cc8IgIp2.s:77667  .debug_str:00000000000129bd .LASF586
     /tmp/cc8IgIp2.s:73437  .debug_str:000000000000738f .LASF587
     /tmp/cc8IgIp2.s:78153  .debug_str:0000000000013f65 .LASF588
     /tmp/cc8IgIp2.s:73207  .debug_str:0000000000006977 .LASF589
     /tmp/cc8IgIp2.s:73439  .debug_str:0000000000007398 .LASF590
     /tmp/cc8IgIp2.s:78155  .debug_str:0000000000013f6c .LASF591
     /tmp/cc8IgIp2.s:76311  .debug_str:000000000000f011 .LASF592
     /tmp/cc8IgIp2.s:71949  .debug_str:00000000000034dc .LASF593
     /tmp/cc8IgIp2.s:78157  .debug_str:0000000000013f73 .LASF594
     /tmp/cc8IgIp2.s:71755  .debug_str:0000000000002c62 .LASF595
     /tmp/cc8IgIp2.s:73743  .debug_str:0000000000008265 .LASF596
     /tmp/cc8IgIp2.s:72435  .debug_str:0000000000004b23 .LASF597
     /tmp/cc8IgIp2.s:73505  .debug_str:0000000000007680 .LASF598
     /tmp/cc8IgIp2.s:73387  .debug_str:00000000000071df .LASF599
     /tmp/cc8IgIp2.s:72437  .debug_str:0000000000004b29 .LASF600
     /tmp/cc8IgIp2.s:76591  .debug_str:000000000000fc4e .LASF601
     /tmp/cc8IgIp2.s:71899  .debug_str:00000000000032b0 .LASF602
     /tmp/cc8IgIp2.s:72439  .debug_str:0000000000004b2f .LASF603
     /tmp/cc8IgIp2.s:72005  .debug_str:00000000000037bc .LASF604
     /tmp/cc8IgIp2.s:71903  .debug_str:00000000000032cd .LASF605
     /tmp/cc8IgIp2.s:72483  .debug_str:0000000000004d40 .LASF606
     /tmp/cc8IgIp2.s:76797  .debug_str:00000000000105b9 .LASF607
     /tmp/cc8IgIp2.s:77731  .debug_str:0000000000012d1b .LASF608
     /tmp/cc8IgIp2.s:72485  .debug_str:0000000000004d46 .LASF609
     /tmp/cc8IgIp2.s:72231  .debug_str:0000000000004160 .LASF610
     /tmp/cc8IgIp2.s:73947  .debug_str:0000000000008b46 .LASF611
     /tmp/cc8IgIp2.s:71291  .debug_str:0000000000001734 .LASF612
     /tmp/cc8IgIp2.s:75503  .debug_str:000000000000cb03 .LASF613
     /tmp/cc8IgIp2.s:75965  .debug_str:000000000000e0e9 .LASF614
     /tmp/cc8IgIp2.s:72489  .debug_str:0000000000004d56 .LASF615
     /tmp/cc8IgIp2.s:70835  .debug_str:000000000000058b .LASF616
     /tmp/cc8IgIp2.s:75967  .debug_str:000000000000e0f7 .LASF617
     /tmp/cc8IgIp2.s:72491  .debug_str:0000000000004d5c .LASF618
     /tmp/cc8IgIp2.s:74021  .debug_str:0000000000008e60 .LASF619
     /tmp/cc8IgIp2.s:74883  .debug_str:000000000000b167 .LASF620
     /tmp/cc8IgIp2.s:72493  .debug_str:0000000000004d62 .LASF621
     /tmp/cc8IgIp2.s:77079  .debug_str:00000000000111f4 .LASF622
     /tmp/cc8IgIp2.s:77081  .debug_str:0000000000011214 .LASF623
     /tmp/cc8IgIp2.s:72495  .debug_str:0000000000004d68 .LASF624
     /tmp/cc8IgIp2.s:72503  .debug_str:0000000000004d80 .LASF625
     /tmp/cc8IgIp2.s:72981  .debug_str:0000000000005f66 .LASF626
     /tmp/cc8IgIp2.s:72497  .debug_str:0000000000004d6e .LASF627
     /tmp/cc8IgIp2.s:75721  .debug_str:000000000000d5a1 .LASF628
     /tmp/cc8IgIp2.s:73101  .debug_str:00000000000064c7 .LASF629
     /tmp/cc8IgIp2.s:72499  .debug_str:0000000000004d74 .LASF630
     /tmp/cc8IgIp2.s:71151  .debug_str:00000000000011f9 .LASF631
     /tmp/cc8IgIp2.s:78043  .debug_str:0000000000013b30 .LASF632
     /tmp/cc8IgIp2.s:72501  .debug_str:0000000000004d7a .LASF633
     /tmp/cc8IgIp2.s:74313  .debug_str:0000000000009a9f .LASF634
     /tmp/cc8IgIp2.s:75507  .debug_str:000000000000cb3b .LASF635
     /tmp/cc8IgIp2.s:72555  .debug_str:000000000000500c .LASF636
     /tmp/cc8IgIp2.s:71391  .debug_str:0000000000001bcf .LASF637
     /tmp/cc8IgIp2.s:72455  .debug_str:0000000000004bf6 .LASF638
     /tmp/cc8IgIp2.s:72557  .debug_str:0000000000005012 .LASF639
     /tmp/cc8IgIp2.s:74541  .debug_str:000000000000a49d .LASF640
     /tmp/cc8IgIp2.s:76169  .debug_str:000000000000ea3a .LASF641
     /tmp/cc8IgIp2.s:71397  .debug_str:0000000000001c2b .LASF642
     /tmp/cc8IgIp2.s:77563  .debug_str:0000000000012553 .LASF643
     /tmp/cc8IgIp2.s:71881  .debug_str:00000000000031e4 .LASF644
     /tmp/cc8IgIp2.s:71401  .debug_str:0000000000001c3c .LASF645
     /tmp/cc8IgIp2.s:73077  .debug_str:000000000000638d .LASF646
     /tmp/cc8IgIp2.s:71883  .debug_str:00000000000031ee .LASF647
     /tmp/cc8IgIp2.s:72563  .debug_str:000000000000504b .LASF648
     /tmp/cc8IgIp2.s:76199  .debug_str:000000000000eb65 .LASF649
     /tmp/cc8IgIp2.s:72795  .debug_str:00000000000058be .LASF650
     /tmp/cc8IgIp2.s:72565  .debug_str:0000000000005051 .LASF651
     /tmp/cc8IgIp2.s:71639  .debug_str:0000000000002682 .LASF652
     /tmp/cc8IgIp2.s:75947  .debug_str:000000000000e052 .LASF653
     /tmp/cc8IgIp2.s:72567  .debug_str:0000000000005057 .LASF654
     /tmp/cc8IgIp2.s:74855  .debug_str:000000000000b027 .LASF655
     /tmp/cc8IgIp2.s:75951  .debug_str:000000000000e083 .LASF656
     /tmp/cc8IgIp2.s:71409  .debug_str:0000000000001c88 .LASF657
     /tmp/cc8IgIp2.s:77819  .debug_str:0000000000013098 .LASF658
     /tmp/cc8IgIp2.s:75829  .debug_str:000000000000dacd .LASF659
     /tmp/cc8IgIp2.s:72571  .debug_str:000000000000506c .LASF660
     /tmp/cc8IgIp2.s:73369  .debug_str:0000000000007119 .LASF661
     /tmp/cc8IgIp2.s:71463  .debug_str:0000000000001eaf .LASF662
     /tmp/cc8IgIp2.s:72573  .debug_str:0000000000005072 .LASF663
     /tmp/cc8IgIp2.s:76437  .debug_str:000000000000f5fd .LASF664
     /tmp/cc8IgIp2.s:77321  .debug_str:0000000000011af6 .LASF665
     /tmp/cc8IgIp2.s:72639  .debug_str:0000000000005348 .LASF666
     /tmp/cc8IgIp2.s:73587  .debug_str:0000000000007a8b .LASF667
     /tmp/cc8IgIp2.s:76937  .debug_str:0000000000010bd0 .LASF668
     /tmp/cc8IgIp2.s:72641  .debug_str:000000000000534e .LASF669
     /tmp/cc8IgIp2.s:76685  .debug_str:000000000001006d .LASF670
     /tmp/cc8IgIp2.s:76329  .debug_str:000000000000f116 .LASF671
     /tmp/cc8IgIp2.s:72643  .debug_str:0000000000005354 .LASF672
     /tmp/cc8IgIp2.s:72105  .debug_str:0000000000003b7e .LASF673
     /tmp/cc8IgIp2.s:74941  .debug_str:000000000000b3d1 .LASF674
     /tmp/cc8IgIp2.s:72645  .debug_str:000000000000535a .LASF675
     /tmp/cc8IgIp2.s:75381  .debug_str:000000000000c581 .LASF676
     /tmp/cc8IgIp2.s:74945  .debug_str:000000000000b3ef .LASF677
     /tmp/cc8IgIp2.s:72647  .debug_str:0000000000005360 .LASF678
     /tmp/cc8IgIp2.s:70723  .debug_str:000000000000004d .LASF679
     /tmp/cc8IgIp2.s:71503  .debug_str:000000000000204c .LASF680
     /tmp/cc8IgIp2.s:72649  .debug_str:0000000000005366 .LASF681
     /tmp/cc8IgIp2.s:73867  .debug_str:000000000000880e .LASF682
     /tmp/cc8IgIp2.s:72145  .debug_str:0000000000003d41 .LASF683
     /tmp/cc8IgIp2.s:72651  .debug_str:000000000000536c .LASF684
     /tmp/cc8IgIp2.s:76931  .debug_str:0000000000010b84 .LASF685
     /tmp/cc8IgIp2.s:71235  .debug_str:000000000000156c .LASF686
     /tmp/cc8IgIp2.s:72653  .debug_str:0000000000005372 .LASF687
     /tmp/cc8IgIp2.s:72369  .debug_str:00000000000047bc .LASF688
     /tmp/cc8IgIp2.s:73015  .debug_str:0000000000006140 .LASF689
     /tmp/cc8IgIp2.s:72655  .debug_str:0000000000005378 .LASF690
     /tmp/cc8IgIp2.s:75607  .debug_str:000000000000d020 .LASF691
     /tmp/cc8IgIp2.s:73825  .debug_str:00000000000085ea .LASF692
     /tmp/cc8IgIp2.s:72657  .debug_str:000000000000537e .LASF693
     /tmp/cc8IgIp2.s:70981  .debug_str:0000000000000b5d .LASF694
     /tmp/cc8IgIp2.s:77749  .debug_str:0000000000012e0b .LASF695
     /tmp/cc8IgIp2.s:72735  .debug_str:00000000000056c3 .LASF696
     /tmp/cc8IgIp2.s:75785  .debug_str:000000000000d92b .LASF697
     /tmp/cc8IgIp2.s:74977  .debug_str:000000000000b4eb .LASF698
     /tmp/cc8IgIp2.s:78077  .debug_str:0000000000013caa .LASF699
     /tmp/cc8IgIp2.s:71263  .debug_str:00000000000015f8 .LASF700
     /tmp/cc8IgIp2.s:74063  .debug_str:0000000000009031 .LASF701
     /tmp/cc8IgIp2.s:72739  .debug_str:00000000000056d4 .LASF702
     /tmp/cc8IgIp2.s:74397  .debug_str:0000000000009e44 .LASF703
     /tmp/cc8IgIp2.s:76195  .debug_str:000000000000eb49 .LASF704
     /tmp/cc8IgIp2.s:72741  .debug_str:00000000000056da .LASF705
     /tmp/cc8IgIp2.s:77441  .debug_str:0000000000011ffd .LASF706
     /tmp/cc8IgIp2.s:75663  .debug_str:000000000000d2f3 .LASF707
     /tmp/cc8IgIp2.s:72743  .debug_str:00000000000056e0 .LASF708
     /tmp/cc8IgIp2.s:72951  .debug_str:0000000000005e86 .LASF709
     /tmp/cc8IgIp2.s:75665  .debug_str:000000000000d300 .LASF710
     /tmp/cc8IgIp2.s:72745  .debug_str:00000000000056e6 .LASF711
     /tmp/cc8IgIp2.s:76061  .debug_str:000000000000e546 .LASF712
     /tmp/cc8IgIp2.s:76909  .debug_str:0000000000010a67 .LASF713
     /tmp/cc8IgIp2.s:72747  .debug_str:00000000000056ec .LASF714
     /tmp/cc8IgIp2.s:71517  .debug_str:00000000000020b9 .LASF715
     /tmp/cc8IgIp2.s:71929  .debug_str:000000000000342d .LASF716
     /tmp/cc8IgIp2.s:72749  .debug_str:00000000000056f2 .LASF717
     /tmp/cc8IgIp2.s:74721  .debug_str:000000000000ab2d .LASF718
     /tmp/cc8IgIp2.s:71933  .debug_str:0000000000003469 .LASF719
     /tmp/cc8IgIp2.s:72751  .debug_str:00000000000056f8 .LASF720
     /tmp/cc8IgIp2.s:77687  .debug_str:0000000000012ac5 .LASF721
     /tmp/cc8IgIp2.s:70869  .debug_str:0000000000000713 .LASF722
     /tmp/cc8IgIp2.s:72753  .debug_str:00000000000056fe .LASF723
     /tmp/cc8IgIp2.s:73235  .debug_str:0000000000006ac1 .LASF724
     /tmp/cc8IgIp2.s:76839  .debug_str:0000000000010755 .LASF725
     /tmp/cc8IgIp2.s:72811  .debug_str:0000000000005988 .LASF726
     /tmp/cc8IgIp2.s:77961  .debug_str:0000000000013710 .LASF727
     /tmp/cc8IgIp2.s:76841  .debug_str:0000000000010763 .LASF728
     /tmp/cc8IgIp2.s:72813  .debug_str:000000000000598e .LASF729
     /tmp/cc8IgIp2.s:73523  .debug_str:00000000000077b7 .LASF730
     /tmp/cc8IgIp2.s:70899  .debug_str:0000000000000858 .LASF731
     /tmp/cc8IgIp2.s:72815  .debug_str:0000000000005994 .LASF732
     /tmp/cc8IgIp2.s:76605  .debug_str:000000000000fcfd .LASF733
     /tmp/cc8IgIp2.s:73255  .debug_str:0000000000006ba7 .LASF734
     /tmp/cc8IgIp2.s:72817  .debug_str:000000000000599a .LASF735
     /tmp/cc8IgIp2.s:72017  .debug_str:0000000000003835 .LASF736
     /tmp/cc8IgIp2.s:73257  .debug_str:0000000000006bb5 .LASF737
     /tmp/cc8IgIp2.s:72819  .debug_str:00000000000059a0 .LASF738
     /tmp/cc8IgIp2.s:75301  .debug_str:000000000000c1a2 .LASF739
     /tmp/cc8IgIp2.s:77489  .debug_str:000000000001222c .LASF740
     /tmp/cc8IgIp2.s:72821  .debug_str:00000000000059a6 .LASF741
     /tmp/cc8IgIp2.s:78215  .debug_str:000000000001421d .LASF742
     /tmp/cc8IgIp2.s:77597  .debug_str:0000000000012737 .LASF743
     /tmp/cc8IgIp2.s:72823  .debug_str:00000000000059ac .LASF744
     /tmp/cc8IgIp2.s:73795  .debug_str:00000000000084a3 .LASF745
     /tmp/cc8IgIp2.s:77599  .debug_str:0000000000012749 .LASF746
     /tmp/cc8IgIp2.s:71751  .debug_str:0000000000002c31 .LASF747
     /tmp/cc8IgIp2.s:76857  .debug_str:0000000000010842 .LASF748
     /tmp/cc8IgIp2.s:73011  .debug_str:000000000000611a .LASF749
     /tmp/cc8IgIp2.s:72827  .debug_str:00000000000059b9 .LASF750
     /tmp/cc8IgIp2.s:72295  .debug_str:00000000000044dc .LASF751
     /tmp/cc8IgIp2.s:74057  .debug_str:0000000000009002 .LASF752
     /tmp/cc8IgIp2.s:72829  .debug_str:00000000000059bf .LASF753
     /tmp/cc8IgIp2.s:75553  .debug_str:000000000000cdb8 .LASF754
     /tmp/cc8IgIp2.s:74059  .debug_str:0000000000009014 .LASF755
     /tmp/cc8IgIp2.s:72877  .debug_str:0000000000005b84 .LASF756
     /tmp/cc8IgIp2.s:72515  .debug_str:0000000000004e10 .LASF757
     /tmp/cc8IgIp2.s:72081  .debug_str:0000000000003ab0 .LASF758
     /tmp/cc8IgIp2.s:72879  .debug_str:0000000000005b8a .LASF759
     /tmp/cc8IgIp2.s:75731  .debug_str:000000000000d63c .LASF760
     /tmp/cc8IgIp2.s:72619  .debug_str:0000000000005254 .LASF761
     /tmp/cc8IgIp2.s:72881  .debug_str:0000000000005b90 .LASF762
     /tmp/cc8IgIp2.s:71163  .debug_str:00000000000012a6 .LASF763
     /tmp/cc8IgIp2.s:72621  .debug_str:0000000000005260 .LASF764
     /tmp/cc8IgIp2.s:72883  .debug_str:0000000000005b96 .LASF765
     /tmp/cc8IgIp2.s:74327  .debug_str:0000000000009b37 .LASF766
     /tmp/cc8IgIp2.s:76417  .debug_str:000000000000f529 .LASF767
     /tmp/cc8IgIp2.s:72885  .debug_str:0000000000005b9c .LASF768
     /tmp/cc8IgIp2.s:77369  .debug_str:0000000000011d25 .LASF769
     /tmp/cc8IgIp2.s:76667  .debug_str:000000000000ffbd .LASF770
     /tmp/cc8IgIp2.s:72887  .debug_str:0000000000005ba2 .LASF771
     /tmp/cc8IgIp2.s:72865  .debug_str:0000000000005af9 .LASF772
     /tmp/cc8IgIp2.s:76671  .debug_str:000000000000ffd5 .LASF773
     /tmp/cc8IgIp2.s:72889  .debug_str:0000000000005ba8 .LASF774
     /tmp/cc8IgIp2.s:75979  .debug_str:000000000000e184 .LASF775
     /tmp/cc8IgIp2.s:77323  .debug_str:0000000000011b01 .LASF776
     /tmp/cc8IgIp2.s:72891  .debug_str:0000000000005bae .LASF777
     /tmp/cc8IgIp2.s:71445  .debug_str:0000000000001dea .LASF778
     /tmp/cc8IgIp2.s:75787  .debug_str:000000000000d94b .LASF779
     /tmp/cc8IgIp2.s:72893  .debug_str:0000000000005bb4 .LASF780
     /tmp/cc8IgIp2.s:74619  .debug_str:000000000000a78a .LASF781
     /tmp/cc8IgIp2.s:75789  .debug_str:000000000000d958 .LASF782
     /tmp/cc8IgIp2.s:72895  .debug_str:0000000000005bba .LASF783
     /tmp/cc8IgIp2.s:77623  .debug_str:00000000000127dc .LASF784
     /tmp/cc8IgIp2.s:73901  .debug_str:0000000000008934 .LASF785
     /tmp/cc8IgIp2.s:72949  .debug_str:0000000000005e80 .LASF786
     /tmp/cc8IgIp2.s:74865  .debug_str:000000000000b095 .LASF787
     /tmp/cc8IgIp2.s:72083  .debug_str:0000000000003abe .LASF788
     /tmp/cc8IgIp2.s:71965  .debug_str:0000000000003586 .LASF789
     /tmp/cc8IgIp2.s:77827  .debug_str:000000000001310b .LASF790
     /tmp/cc8IgIp2.s:72085  .debug_str:0000000000003acb .LASF791
     /tmp/cc8IgIp2.s:72953  .debug_str:0000000000005ea6 .LASF792
     /tmp/cc8IgIp2.s:73377  .debug_str:000000000000717a .LASF793
     /tmp/cc8IgIp2.s:72847  .debug_str:0000000000005a65 .LASF794
     /tmp/cc8IgIp2.s:72955  .debug_str:0000000000005eac .LASF795
     /tmp/cc8IgIp2.s:76453  .debug_str:000000000000f6d0 .LASF796
     /tmp/cc8IgIp2.s:73835  .debug_str:0000000000008645 .LASF797
     /tmp/cc8IgIp2.s:72957  .debug_str:0000000000005eb2 .LASF798
     /tmp/cc8IgIp2.s:71893  .debug_str:0000000000003264 .LASF799
     /tmp/cc8IgIp2.s:73837  .debug_str:0000000000008651 .LASF800
     /tmp/cc8IgIp2.s:72959  .debug_str:0000000000005eb8 .LASF801
     /tmp/cc8IgIp2.s:77703  .debug_str:0000000000012b81 .LASF802
     /tmp/cc8IgIp2.s:78075  .debug_str:0000000000013ca0 .LASF803
     /tmp/cc8IgIp2.s:72961  .debug_str:0000000000005ebe .LASF804
     /tmp/cc8IgIp2.s:78087  .debug_str:0000000000013d0b .LASF805
     /tmp/cc8IgIp2.s:74511  .debug_str:000000000000a32e .LASF806
     /tmp/cc8IgIp2.s:72963  .debug_str:0000000000005ec4 .LASF807
     /tmp/cc8IgIp2.s:73649  .debug_str:0000000000007dfe .LASF808
     /tmp/cc8IgIp2.s:77781  .debug_str:0000000000012f34 .LASF809
     /tmp/cc8IgIp2.s:72965  .debug_str:0000000000005eca .LASF810
     /tmp/cc8IgIp2.s:76743  .debug_str:000000000001036f .LASF811
     /tmp/cc8IgIp2.s:77465  .debug_str:000000000001211e .LASF812
     /tmp/cc8IgIp2.s:72967  .debug_str:0000000000005ed0 .LASF813
     /tmp/cc8IgIp2.s:72175  .debug_str:0000000000003eb3 .LASF814
     /tmp/cc8IgIp2.s:71423  .debug_str:0000000000001d06 .LASF815
     /tmp/cc8IgIp2.s:72077  .debug_str:0000000000003a87 .LASF816
     /tmp/cc8IgIp2.s:76941  .debug_str:0000000000010bfa .LASF817
     /tmp/cc8IgIp2.s:71529  .debug_str:000000000000216d .LASF818
     /tmp/cc8IgIp2.s:73017  .debug_str:000000000000614c .LASF819
     /tmp/cc8IgIp2.s:72379  .debug_str:0000000000004832 .LASF820
     /tmp/cc8IgIp2.s:74171  .debug_str:000000000000948e .LASF821
     /tmp/cc8IgIp2.s:73019  .debug_str:0000000000006152 .LASF822
     /tmp/cc8IgIp2.s:75619  .debug_str:000000000000d0b8 .LASF823
     /tmp/cc8IgIp2.s:77507  .debug_str:000000000001230f .LASF824
     /tmp/cc8IgIp2.s:73021  .debug_str:0000000000006158 .LASF825
     /tmp/cc8IgIp2.s:71003  .debug_str:0000000000000c35 .LASF826
     /tmp/cc8IgIp2.s:72857  .debug_str:0000000000005abc .LASF827
     /tmp/cc8IgIp2.s:73023  .debug_str:000000000000615e .LASF828
     /tmp/cc8IgIp2.s:74189  .debug_str:0000000000009524 .LASF829
     /tmp/cc8IgIp2.s:71199  .debug_str:00000000000013de .LASF830
     /tmp/cc8IgIp2.s:73025  .debug_str:0000000000006164 .LASF831
     /tmp/cc8IgIp2.s:77229  .debug_str:00000000000117bb .LASF832
     /tmp/cc8IgIp2.s:76283  .debug_str:000000000000eeeb .LASF833
     /tmp/cc8IgIp2.s:73027  .debug_str:000000000000616a .LASF834
     /tmp/cc8IgIp2.s:72703  .debug_str:000000000000551d .LASF835
     /tmp/cc8IgIp2.s:77737  .debug_str:0000000000012d68 .LASF836
     /tmp/cc8IgIp2.s:73029  .debug_str:0000000000006170 .LASF837
     /tmp/cc8IgIp2.s:75855  .debug_str:000000000000dc08 .LASF838
     /tmp/cc8IgIp2.s:73141  .debug_str:00000000000066ac .LASF839
     /tmp/cc8IgIp2.s:73031  .debug_str:0000000000006176 .LASF840
     /tmp/cc8IgIp2.s:71329  .debug_str:00000000000018de .LASF841
     /tmp/cc8IgIp2.s:78255  .debug_str:00000000000143d4 .LASF842
     /tmp/cc8IgIp2.s:73033  .debug_str:000000000000617c .LASF843
     /tmp/cc8IgIp2.s:74467  .debug_str:000000000000a179 .LASF844
     /tmp/cc8IgIp2.s:74861  .debug_str:000000000000b06f .LASF845
     /tmp/cc8IgIp2.s:74479  .debug_str:000000000000a22f .LASF846
     /tmp/cc8IgIp2.s:71535  .debug_str:00000000000021ac .LASF847
     /tmp/cc8IgIp2.s:76233  .debug_str:000000000000ecba .LASF848
     /tmp/cc8IgIp2.s:74481  .debug_str:000000000000a236 .LASF849
     /tmp/cc8IgIp2.s:74731  .debug_str:000000000000ab9e .LASF850
     /tmp/cc8IgIp2.s:73293  .debug_str:0000000000006d6b .LASF851
     /tmp/cc8IgIp2.s:74483  .debug_str:000000000000a23d .LASF852
     /tmp/cc8IgIp2.s:77705  .debug_str:0000000000012ba1 .LASF853
     /tmp/cc8IgIp2.s:71137  .debug_str:0000000000001151 .LASF854
     /tmp/cc8IgIp2.s:74485  .debug_str:000000000000a244 .LASF855
     /tmp/cc8IgIp2.s:74233  .debug_str:0000000000009743 .LASF856
     /tmp/cc8IgIp2.s:71141  .debug_str:0000000000001172 .LASF857
     /tmp/cc8IgIp2.s:74487  .debug_str:000000000000a24b .LASF858
     /tmp/cc8IgIp2.s:76333  .debug_str:000000000000f13a .LASF859
     /tmp/cc8IgIp2.s:75429  .debug_str:000000000000c7ca .LASF860
     /tmp/cc8IgIp2.s:74489  .debug_str:000000000000a252 .LASF861
     /tmp/cc8IgIp2.s:71783  .debug_str:0000000000002d8f .LASF862
     /tmp/cc8IgIp2.s:71943  .debug_str:00000000000034b7 .LASF863
     /tmp/cc8IgIp2.s:74543  .debug_str:000000000000a4bd .LASF864
     /tmp/cc8IgIp2.s:75003  .debug_str:000000000000b5e0 .LASF865
     /tmp/cc8IgIp2.s:76625  .debug_str:000000000000fe0a .LASF866
     /tmp/cc8IgIp2.s:74493  .debug_str:000000000000a28c .LASF867
     /tmp/cc8IgIp2.s:71207  .debug_str:000000000000143b .LASF868
     /tmp/cc8IgIp2.s:70979  .debug_str:0000000000000b4c .LASF869
     /tmp/cc8IgIp2.s:74495  .debug_str:000000000000a293 .LASF870
     /tmp/cc8IgIp2.s:73527  .debug_str:00000000000077ef .LASF871
     /tmp/cc8IgIp2.s:70983  .debug_str:0000000000000b7d .LASF872
     /tmp/cc8IgIp2.s:74497  .debug_str:000000000000a29a .LASF873
     /tmp/cc8IgIp2.s:76615  .debug_str:000000000000fd8a .LASF874
     /tmp/cc8IgIp2.s:75703  .debug_str:000000000000d4c0 .LASF875
     /tmp/cc8IgIp2.s:74551  .debug_str:000000000000a508 .LASF876
     /tmp/cc8IgIp2.s:72173  .debug_str:0000000000003e92 .LASF877
     /tmp/cc8IgIp2.s:75141  .debug_str:000000000000ba98 .LASF878
     /tmp/cc8IgIp2.s:74553  .debug_str:000000000000a50f .LASF879
     /tmp/cc8IgIp2.s:76813  .debug_str:000000000001066a .LASF880
     /tmp/cc8IgIp2.s:75143  .debug_str:000000000000baa9 .LASF881
     /tmp/cc8IgIp2.s:74555  .debug_str:000000000000a516 .LASF882
     /tmp/cc8IgIp2.s:72245  .debug_str:0000000000004204 .LASF883
     /tmp/cc8IgIp2.s:71733  .debug_str:0000000000002b7f .LASF884
     /tmp/cc8IgIp2.s:74557  .debug_str:000000000000a51d .LASF885
     /tmp/cc8IgIp2.s:75519  .debug_str:000000000000cbf2 .LASF886
     /tmp/cc8IgIp2.s:77313  .debug_str:0000000000011ac0 .LASF887
     /tmp/cc8IgIp2.s:74559  .debug_str:000000000000a524 .LASF888
     /tmp/cc8IgIp2.s:70853  .debug_str:0000000000000638 .LASF889
     /tmp/cc8IgIp2.s:77317  .debug_str:0000000000011ad8 .LASF890
     /tmp/cc8IgIp2.s:74561  .debug_str:000000000000a52b .LASF891
     /tmp/cc8IgIp2.s:74051  .debug_str:0000000000008fb9 .LASF892
     /tmp/cc8IgIp2.s:72789  .debug_str:0000000000005862 .LASF893
     /tmp/cc8IgIp2.s:74693  .debug_str:000000000000aaa6 .LASF894
     /tmp/cc8IgIp2.s:77097  .debug_str:00000000000112aa .LASF895
     /tmp/cc8IgIp2.s:73721  .debug_str:000000000000816b .LASF896
     /tmp/cc8IgIp2.s:74697  .debug_str:000000000000aab6 .LASF897
     /tmp/cc8IgIp2.s:72521  .debug_str:0000000000004e55 .LASF898
     /tmp/cc8IgIp2.s:73725  .debug_str:000000000000818d .LASF899
     /tmp/cc8IgIp2.s:74567  .debug_str:000000000000a56a .LASF900
     /tmp/cc8IgIp2.s:75735  .debug_str:000000000000d683 .LASF901
     /tmp/cc8IgIp2.s:77305  .debug_str:0000000000011a8a .LASF902
     /tmp/cc8IgIp2.s:74569  .debug_str:000000000000a571 .LASF903
     /tmp/cc8IgIp2.s:71181  .debug_str:00000000000012fe .LASF904
     /tmp/cc8IgIp2.s:77875  .debug_str:000000000001333b .LASF905
     /tmp/cc8IgIp2.s:74623  .debug_str:000000000000a7b5 .LASF906
     /tmp/cc8IgIp2.s:73243  .debug_str:0000000000006b31 .LASF907
     /tmp/cc8IgIp2.s:71505  .debug_str:0000000000002056 .LASF908
     /tmp/cc8IgIp2.s:74819  .debug_str:000000000000af51 .LASF909
     /tmp/cc8IgIp2.s:71415  .debug_str:0000000000001ca7 .LASF910
     /tmp/cc8IgIp2.s:75175  .debug_str:000000000000bc14 .LASF911
     /tmp/cc8IgIp2.s:74627  .debug_str:000000000000a7cb .LASF912
     /tmp/cc8IgIp2.s:74577  .debug_str:000000000000a5cd .LASF913
     /tmp/cc8IgIp2.s:74351  .debug_str:0000000000009cb4 .LASF914
     /tmp/cc8IgIp2.s:74629  .debug_str:000000000000a7d2 .LASF915
     /tmp/cc8IgIp2.s:77579  .debug_str:0000000000012634 .LASF916
     /tmp/cc8IgIp2.s:74355  .debug_str:0000000000009ccb .LASF917
     /tmp/cc8IgIp2.s:74631  .debug_str:000000000000a7d9 .LASF918
     /tmp/cc8IgIp2.s:73089  .debug_str:0000000000006416 .LASF919
     /tmp/cc8IgIp2.s:72125  .debug_str:0000000000003c5b .LASF920
     /tmp/cc8IgIp2.s:74633  .debug_str:000000000000a7e0 .LASF921
     /tmp/cc8IgIp2.s:76217  .debug_str:000000000000ec19 .LASF922
     /tmp/cc8IgIp2.s:72663  .debug_str:00000000000053a2 .LASF923
     /tmp/cc8IgIp2.s:74635  .debug_str:000000000000a7e7 .LASF924
     /tmp/cc8IgIp2.s:71659  .debug_str:0000000000002752 .LASF925
     /tmp/cc8IgIp2.s:72665  .debug_str:00000000000053ad .LASF926
     /tmp/cc8IgIp2.s:74637  .debug_str:000000000000a7ee .LASF927
     /tmp/cc8IgIp2.s:74875  .debug_str:000000000000b0fe .LASF928
     /tmp/cc8IgIp2.s:71461  .debug_str:0000000000001ea6 .LASF929
     /tmp/cc8IgIp2.s:74639  .debug_str:000000000000a7f5 .LASF930
     /tmp/cc8IgIp2.s:77837  .debug_str:0000000000013163 .LASF931
     /tmp/cc8IgIp2.s:76699  .debug_str:000000000001013e .LASF932
     /tmp/cc8IgIp2.s:74641  .debug_str:000000000000a7fc .LASF933
     /tmp/cc8IgIp2.s:73389  .debug_str:00000000000071ef .LASF934
     /tmp/cc8IgIp2.s:76701  .debug_str:0000000000010149 .LASF935
     /tmp/cc8IgIp2.s:74701  .debug_str:000000000000aad0 .LASF936
     /tmp/cc8IgIp2.s:78049  .debug_str:0000000000013b75 .LASF937
     /tmp/cc8IgIp2.s:72053  .debug_str:0000000000003975 .LASF938
     /tmp/cc8IgIp2.s:74703  .debug_str:000000000000aad7 .LASF939
     /tmp/cc8IgIp2.s:73605  .debug_str:0000000000007bc2 .LASF940
     /tmp/cc8IgIp2.s:72523  .debug_str:0000000000004e76 .LASF941
     /tmp/cc8IgIp2.s:74705  .debug_str:000000000000aade .LASF942
     /tmp/cc8IgIp2.s:77569  .debug_str:00000000000125b5 .LASF943
     /tmp/cc8IgIp2.s:74443  .debug_str:000000000000a060 .LASF944
     /tmp/cc8IgIp2.s:74707  .debug_str:000000000000aae5 .LASF945
     /tmp/cc8IgIp2.s:72135  .debug_str:0000000000003cba .LASF946
     /tmp/cc8IgIp2.s:75177  .debug_str:000000000000bc21 .LASF947
     /tmp/cc8IgIp2.s:74709  .debug_str:000000000000aaec .LASF948
     /tmp/cc8IgIp2.s:75403  .debug_str:000000000000c667 .LASF949
     /tmp/cc8IgIp2.s:74117  .debug_str:00000000000092cc .LASF950
     /tmp/cc8IgIp2.s:75209  .debug_str:000000000000bdaa .LASF951
     /tmp/cc8IgIp2.s:70741  .debug_str:000000000000012b .LASF952
     /tmp/cc8IgIp2.s:73653  .debug_str:0000000000007e31 .LASF953
     /tmp/cc8IgIp2.s:74713  .debug_str:000000000000ab11 .LASF954
     /tmp/cc8IgIp2.s:73887  .debug_str:00000000000088c7 .LASF955
     /tmp/cc8IgIp2.s:73657  .debug_str:0000000000007e54 .LASF956
     /tmp/cc8IgIp2.s:74715  .debug_str:000000000000ab18 .LASF957
     /tmp/cc8IgIp2.s:76949  .debug_str:0000000000010c7f .LASF958
     /tmp/cc8IgIp2.s:76825  .debug_str:00000000000106dd .LASF959
     /tmp/cc8IgIp2.s:74717  .debug_str:000000000000ab1f .LASF960
     /tmp/cc8IgIp2.s:72387  .debug_str:0000000000004885 .LASF961
     /tmp/cc8IgIp2.s:77601  .debug_str:000000000001275b .LASF962
     /tmp/cc8IgIp2.s:74719  .debug_str:000000000000ab26 .LASF963
     /tmp/cc8IgIp2.s:75623  .debug_str:000000000000d122 .LASF964
     /tmp/cc8IgIp2.s:77603  .debug_str:0000000000012767 .LASF965
     /tmp/cc8IgIp2.s:74765  .debug_str:000000000000ad2e .LASF966
     /tmp/cc8IgIp2.s:72635  .debug_str:0000000000005310 .LASF967
     /tmp/cc8IgIp2.s:75199  .debug_str:000000000000bd5a .LASF968
     /tmp/cc8IgIp2.s:74767  .debug_str:000000000000ad35 .LASF969
     /tmp/cc8IgIp2.s:77911  .debug_str:0000000000013479 .LASF970
     /tmp/cc8IgIp2.s:77825  .debug_str:0000000000013100 .LASF971
     /tmp/cc8IgIp2.s:74769  .debug_str:000000000000ad3c .LASF972
     /tmp/cc8IgIp2.s:71293  .debug_str:000000000000173a .LASF973
     /tmp/cc8IgIp2.s:72055  .debug_str:0000000000003985 .LASF974
     /tmp/cc8IgIp2.s:74771  .debug_str:000000000000ad43 .LASF975
     /tmp/cc8IgIp2.s:74419  .debug_str:0000000000009f0f .LASF976
     /tmp/cc8IgIp2.s:74843  .debug_str:000000000000afd0 .LASF977
     /tmp/cc8IgIp2.s:74773  .debug_str:000000000000ad4a .LASF978
     /tmp/cc8IgIp2.s:77451  .debug_str:0000000000012098 .LASF979
     /tmp/cc8IgIp2.s:75953  .debug_str:000000000000e08d .LASF980
     /tmp/cc8IgIp2.s:74775  .debug_str:000000000000ad51 .LASF981
     /tmp/cc8IgIp2.s:72975  .debug_str:0000000000005f18 .LASF982
     /tmp/cc8IgIp2.s:77385  .debug_str:0000000000011dc7 .LASF983
     /tmp/cc8IgIp2.s:74777  .debug_str:000000000000ad58 .LASF984
     /tmp/cc8IgIp2.s:76091  .debug_str:000000000000e690 .LASF985
     /tmp/cc8IgIp2.s:77387  .debug_str:0000000000011dd2 .LASF986
     /tmp/cc8IgIp2.s:74779  .debug_str:000000000000ad5f .LASF987
     /tmp/cc8IgIp2.s:77285  .debug_str:00000000000119ce .LASF988
     /tmp/cc8IgIp2.s:71651  .debug_str:000000000000271f .LASF989
     /tmp/cc8IgIp2.s:74781  .debug_str:000000000000ad66 .LASF990
     /tmp/cc8IgIp2.s:74739  .debug_str:000000000000ac02 .LASF991
     /tmp/cc8IgIp2.s:71439  .debug_str:0000000000001db0 .LASF992
     /tmp/cc8IgIp2.s:74783  .debug_str:000000000000ad6d .LASF993
     /tmp/cc8IgIp2.s:77713  .debug_str:0000000000012c26 .LASF994
     /tmp/cc8IgIp2.s:75613  .debug_str:000000000000d072 .LASF995
     /tmp/cc8IgIp2.s:74827  .debug_str:000000000000af93 .LASF996
     /tmp/cc8IgIp2.s:74963  .debug_str:000000000000b454 .LASF997
     /tmp/cc8IgIp2.s:73791  .debug_str:0000000000008473 .LASF998
     /tmp/cc8IgIp2.s:74829  .debug_str:000000000000af9a .LASF999
     /tmp/cc8IgIp2.s:77923  .debug_str:000000000001352c .LASF1000
     /tmp/cc8IgIp2.s:76723  .debug_str:0000000000010276 .LASF1001
     /tmp/cc8IgIp2.s:75219  .debug_str:000000000000be01 .LASF1002
     /tmp/cc8IgIp2.s:73479  .debug_str:0000000000007531 .LASF1003
     /tmp/cc8IgIp2.s:76003  .debug_str:000000000000e27f .LASF1004
     /tmp/cc8IgIp2.s:74833  .debug_str:000000000000afad .LASF1005
     /tmp/cc8IgIp2.s:76555  .debug_str:000000000000fab9 .LASF1006
     /tmp/cc8IgIp2.s:74933  .debug_str:000000000000b381 .LASF1007
     /tmp/cc8IgIp2.s:74835  .debug_str:000000000000afb4 .LASF1008
     /tmp/cc8IgIp2.s:71981  .debug_str:000000000000363d .LASF1009
     /tmp/cc8IgIp2.s:73467  .debug_str:00000000000074c8 .LASF1010
     /tmp/cc8IgIp2.s:74837  .debug_str:000000000000afbb .LASF1011
     /tmp/cc8IgIp2.s:75259  .debug_str:000000000000bf93 .LASF1012
     /tmp/cc8IgIp2.s:74737  .debug_str:000000000000abf0 .LASF1013
     /tmp/cc8IgIp2.s:74839  .debug_str:000000000000afc2 .LASF1014
     /tmp/cc8IgIp2.s:77629  .debug_str:0000000000012837 .LASF1015
     /tmp/cc8IgIp2.s:74873  .debug_str:000000000000b0ec .LASF1016
     /tmp/cc8IgIp2.s:74841  .debug_str:000000000000afc9 .LASF1017
     /tmp/cc8IgIp2.s:73753  .debug_str:00000000000082d8 .LASF1018
     /tmp/cc8IgIp2.s:77535  .debug_str:0000000000012452 .LASF1019
     /tmp/cc8IgIp2.s:75229  .debug_str:000000000000be5b .LASF1020
     /tmp/cc8IgIp2.s:76827  .debug_str:00000000000106e7 .LASF1021
     /tmp/cc8IgIp2.s:77539  .debug_str:000000000001247f .LASF1022
     /tmp/cc8IgIp2.s:74845  .debug_str:000000000000afdd .LASF1023
     /tmp/cc8IgIp2.s:72253  .debug_str:0000000000004281 .LASF1024
     /tmp/cc8IgIp2.s:73541  .debug_str:000000000000787a .LASF1025
     /tmp/cc8IgIp2.s:74893  .debug_str:000000000000b1df .LASF1026
     /tmp/cc8IgIp2.s:77113  .debug_str:000000000001135a .LASF1027
     /tmp/cc8IgIp2.s:73953  .debug_str:0000000000008b83 .LASF1028
     /tmp/cc8IgIp2.s:74895  .debug_str:000000000000b1e6 .LASF1029
     /tmp/cc8IgIp2.s:72527  .debug_str:0000000000004e9b .LASF1030
     /tmp/cc8IgIp2.s:73957  .debug_str:0000000000008bc0 .LASF1031
     /tmp/cc8IgIp2.s:74897  .debug_str:000000000000b1ed .LASF1032
     /tmp/cc8IgIp2.s:75743  .debug_str:000000000000d6fe .LASF1033
     /tmp/cc8IgIp2.s:73999  .debug_str:0000000000008d82 .LASF1034
     /tmp/cc8IgIp2.s:74899  .debug_str:000000000000b1f4 .LASF1035
     /tmp/cc8IgIp2.s:71197  .debug_str:00000000000013bd .LASF1036
     /tmp/cc8IgIp2.s:71663  .debug_str:000000000000279b .LASF1037
     /tmp/cc8IgIp2.s:75705  .debug_str:000000000000d4cf .LASF1038
     /tmp/cc8IgIp2.s:74339  .debug_str:0000000000009bf8 .LASF1039
     /tmp/cc8IgIp2.s:74415  .debug_str:0000000000009ef6 .LASF1040
     /tmp/cc8IgIp2.s:74903  .debug_str:000000000000b205 .LASF1041
     /tmp/cc8IgIp2.s:77391  .debug_str:0000000000011ded .LASF1042
     /tmp/cc8IgIp2.s:71215  .debug_str:000000000000149b .LASF1043
     /tmp/cc8IgIp2.s:74905  .debug_str:000000000000b20c .LASF1044
     /tmp/cc8IgIp2.s:72897  .debug_str:0000000000005bc0 .LASF1045
     /tmp/cc8IgIp2.s:77423  .debug_str:0000000000011f4a .LASF1046
     /tmp/cc8IgIp2.s:74907  .debug_str:000000000000b213 .LASF1047
     /tmp/cc8IgIp2.s:76007  .debug_str:000000000000e2a5 .LASF1048
     /tmp/cc8IgIp2.s:72019  .debug_str:0000000000003855 .LASF1049
     /tmp/cc8IgIp2.s:74909  .debug_str:000000000000b21a .LASF1050
     /tmp/cc8IgIp2.s:71465  .debug_str:0000000000001ebf .LASF1051
     /tmp/cc8IgIp2.s:72027  .debug_str:000000000000388a .LASF1052
     /tmp/cc8IgIp2.s:74911  .debug_str:000000000000b221 .LASF1053
     /tmp/cc8IgIp2.s:74653  .debug_str:000000000000a89f .LASF1054
     /tmp/cc8IgIp2.s:71739  .debug_str:0000000000002bc8 .LASF1055
     /tmp/cc8IgIp2.s:74949  .debug_str:000000000000b418 .LASF1056
     /tmp/cc8IgIp2.s:71679  .debug_str:0000000000002865 .LASF1057
     /tmp/cc8IgIp2.s:73663  .debug_str:0000000000007e93 .LASF1058
     /tmp/cc8IgIp2.s:74951  .debug_str:000000000000b41f .LASF1059
     /tmp/cc8IgIp2.s:74885  .debug_str:000000000000b175 .LASF1060
     /tmp/cc8IgIp2.s:73667  .debug_str:0000000000007eb9 .LASF1061
     /tmp/cc8IgIp2.s:74953  .debug_str:000000000000b426 .LASF1062
     /tmp/cc8IgIp2.s:77847  .debug_str:00000000000131c9 .LASF1063
     /tmp/cc8IgIp2.s:78041  .debug_str:0000000000013b20 .LASF1064
     /tmp/cc8IgIp2.s:74955  .debug_str:000000000000b42d .LASF1065
     /tmp/cc8IgIp2.s:73401  .debug_str:0000000000007271 .LASF1066
     /tmp/cc8IgIp2.s:76879  .debug_str:0000000000010951 .LASF1067
     /tmp/cc8IgIp2.s:74957  .debug_str:000000000000b434 .LASF1068
     /tmp/cc8IgIp2.s:76473  .debug_str:000000000000f7a2 .LASF1069
     /tmp/cc8IgIp2.s:74315  .debug_str:0000000000009abf .LASF1070
     /tmp/cc8IgIp2.s:75469  .debug_str:000000000000c970 .LASF1071
     /tmp/cc8IgIp2.s:71923  .debug_str:00000000000033e0 .LASF1072
     /tmp/cc8IgIp2.s:77277  .debug_str:000000000001197f .LASF1073
     /tmp/cc8IgIp2.s:74961  .debug_str:000000000000b44d .LASF1074
     /tmp/cc8IgIp2.s:75189  .debug_str:000000000000bcd0 .LASF1075
     /tmp/cc8IgIp2.s:78191  .debug_str:00000000000140c9 .LASF1076
     /tmp/cc8IgIp2.s:75471  .debug_str:000000000000c977 .LASF1077
     /tmp/cc8IgIp2.s:78107  .debug_str:0000000000013df6 .LASF1078
     /tmp/cc8IgIp2.s:78195  .debug_str:0000000000014121 .LASF1079
     /tmp/cc8IgIp2.s:74965  .debug_str:000000000000b475 .LASF1080
     /tmp/cc8IgIp2.s:73675  .debug_str:0000000000007f1f .LASF1081
     /tmp/cc8IgIp2.s:72343  .debug_str:000000000000469f .LASF1082
     /tmp/cc8IgIp2.s:74967  .debug_str:000000000000b47c .LASF1083
     /tmp/cc8IgIp2.s:76761  .debug_str:000000000001044f .LASF1084
     /tmp/cc8IgIp2.s:73409  .debug_str:00000000000072d6 .LASF1085
     /tmp/cc8IgIp2.s:75013  .debug_str:000000000000b63c .LASF1086
     /tmp/cc8IgIp2.s:71995  .debug_str:0000000000003719 .LASF1087
     /tmp/cc8IgIp2.s:73413  .debug_str:00000000000072fe .LASF1088
     /tmp/cc8IgIp2.s:75015  .debug_str:000000000000b643 .LASF1089
     /tmp/cc8IgIp2.s:76959  .debug_str:0000000000010d26 .LASF1090
     /tmp/cc8IgIp2.s:73659  .debug_str:0000000000007e60 .LASF1091
     /tmp/cc8IgIp2.s:75017  .debug_str:000000000000b64a .LASF1092
     /tmp/cc8IgIp2.s:72401  .debug_str:000000000000496a .LASF1093
     /tmp/cc8IgIp2.s:77377  .debug_str:0000000000011d8a .LASF1094
     /tmp/cc8IgIp2.s:75019  .debug_str:000000000000b651 .LASF1095
     /tmp/cc8IgIp2.s:75635  .debug_str:000000000000d195 .LASF1096
     /tmp/cc8IgIp2.s:77379  .debug_str:0000000000011d99 .LASF1097
     /tmp/cc8IgIp2.s:75021  .debug_str:000000000000b658 .LASF1098
     /tmp/cc8IgIp2.s:71033  .debug_str:0000000000000cf1 .LASF1099
     /tmp/cc8IgIp2.s:72779  .debug_str:000000000000581f .LASF1100
     /tmp/cc8IgIp2.s:75023  .debug_str:000000000000b65f .LASF1101
     /tmp/cc8IgIp2.s:74213  .debug_str:00000000000095ff .LASF1102
     /tmp/cc8IgIp2.s:77355  .debug_str:0000000000011c9f .LASF1103
     /tmp/cc8IgIp2.s:75573  .debug_str:000000000000ceb0 .LASF1104
     /tmp/cc8IgIp2.s:77245  .debug_str:00000000000118c7 .LASF1105
     /tmp/cc8IgIp2.s:77359  .debug_str:0000000000011cc8 .LASF1106
     /tmp/cc8IgIp2.s:75027  .debug_str:000000000000b673 .LASF1107
     /tmp/cc8IgIp2.s:72733  .debug_str:00000000000056a2 .LASF1108
     /tmp/cc8IgIp2.s:76655  .debug_str:000000000000ff24 .LASF1109
     /tmp/cc8IgIp2.s:75029  .debug_str:000000000000b67a .LASF1110
     /tmp/cc8IgIp2.s:75877  .debug_str:000000000000dcbe .LASF1111
     /tmp/cc8IgIp2.s:73759  .debug_str:000000000000832a .LASF1112
     /tmp/cc8IgIp2.s:75031  .debug_str:000000000000b681 .LASF1113
     /tmp/cc8IgIp2.s:71349  .debug_str:00000000000019c0 .LASF1114
     /tmp/cc8IgIp2.s:73761  .debug_str:0000000000008338 .LASF1115
     /tmp/cc8IgIp2.s:75091  .debug_str:000000000000b915 .LASF1116
     /tmp/cc8IgIp2.s:76109  .debug_str:000000000000e7ac .LASF1117
     /tmp/cc8IgIp2.s:77055  .debug_str:000000000001116b .LASF1118
     /tmp/cc8IgIp2.s:75093  .debug_str:000000000000b91c .LASF1119
     /tmp/cc8IgIp2.s:71553  .debug_str:000000000000227a .LASF1120
     /tmp/cc8IgIp2.s:75639  .debug_str:000000000000d1c6 .LASF1121
     /tmp/cc8IgIp2.s:75095  .debug_str:000000000000b923 .LASF1122
     /tmp/cc8IgIp2.s:74749  .debug_str:000000000000ac65 .LASF1123
     /tmp/cc8IgIp2.s:75643  .debug_str:000000000000d1f2 .LASF1124
     /tmp/cc8IgIp2.s:75097  .debug_str:000000000000b92a .LASF1125
     /tmp/cc8IgIp2.s:77729  .debug_str:0000000000012cfa .LASF1126
     /tmp/cc8IgIp2.s:75777  .debug_str:000000000000d8de .LASF1127
     /tmp/cc8IgIp2.s:75099  .debug_str:000000000000b931 .LASF1128
     /tmp/cc8IgIp2.s:73269  .debug_str:0000000000006c2c .LASF1129
     /tmp/cc8IgIp2.s:71901  .debug_str:00000000000032be .LASF1130
     /tmp/cc8IgIp2.s:75101  .debug_str:000000000000b938 .LASF1131
     /tmp/cc8IgIp2.s:76345  .debug_str:000000000000f1c6 .LASF1132
     /tmp/cc8IgIp2.s:71905  .debug_str:00000000000032db .LASF1133
     /tmp/cc8IgIp2.s:75103  .debug_str:000000000000b93f .LASF1134
     /tmp/cc8IgIp2.s:71797  .debug_str:0000000000002e32 .LASF1135
     /tmp/cc8IgIp2.s:71037  .debug_str:0000000000000d29 .LASF1136
     /tmp/cc8IgIp2.s:75105  .debug_str:000000000000b946 .LASF1137
     /tmp/cc8IgIp2.s:75035  .debug_str:000000000000b695 .LASF1138
     /tmp/cc8IgIp2.s:78021  .debug_str:0000000000013a39 .LASF1139
     /tmp/cc8IgIp2.s:75107  .debug_str:000000000000b94d .LASF1140
     /tmp/cc8IgIp2.s:77989  .debug_str:000000000001384f .LASF1141
     /tmp/cc8IgIp2.s:77833  .debug_str:0000000000013146 .LASF1142
     /tmp/cc8IgIp2.s:75109  .debug_str:000000000000b954 .LASF1143
     /tmp/cc8IgIp2.s:73543  .debug_str:0000000000007888 .LASF1144
     /tmp/cc8IgIp2.s:70847  .debug_str:0000000000000604 .LASF1145
     /tmp/cc8IgIp2.s:75323  .debug_str:000000000000c2b9 .LASF1146
     /tmp/cc8IgIp2.s:73923  .debug_str:0000000000008a3b .LASF1147
     /tmp/cc8IgIp2.s:70851  .debug_str:0000000000000629 .LASF1148
     /tmp/cc8IgIp2.s:70943  .debug_str:0000000000000a13 .LASF1149
     /tmp/cc8IgIp2.s:76983  .debug_str:0000000000010e4b .LASF1150
     /tmp/cc8IgIp2.s:78271  .debug_str:000000000001448d .LASF1151
     /tmp/cc8IgIp2.s:70945  .debug_str:0000000000000a1a .LASF1152
     /tmp/cc8IgIp2.s:72413  .debug_str:0000000000004a0b .LASF1153
     /tmp/cc8IgIp2.s:74985  .debug_str:000000000000b533 .LASF1154
     /tmp/cc8IgIp2.s:70947  .debug_str:0000000000000a21 .LASF1155
     /tmp/cc8IgIp2.s:75649  .debug_str:000000000000d222 .LASF1156
     /tmp/cc8IgIp2.s:74989  .debug_str:000000000000b54a .LASF1157
     /tmp/cc8IgIp2.s:70949  .debug_str:0000000000000a28 .LASF1158
     /tmp/cc8IgIp2.s:71053  .debug_str:0000000000000e05 .LASF1159
     /tmp/cc8IgIp2.s:76801  .debug_str:00000000000105e5 .LASF1160
     /tmp/cc8IgIp2.s:70951  .debug_str:0000000000000a2f .LASF1161
     /tmp/cc8IgIp2.s:74227  .debug_str:00000000000096d2 .LASF1162
     /tmp/cc8IgIp2.s:76805  .debug_str:0000000000010602 .LASF1163
     /tmp/cc8IgIp2.s:75333  .debug_str:000000000000c30b .LASF1164
     /tmp/cc8IgIp2.s:76681  .debug_str:0000000000010040 .LASF1165
     /tmp/cc8IgIp2.s:71159  .debug_str:000000000000128d .LASF1166
     /tmp/cc8IgIp2.s:70953  .debug_str:0000000000000a36 .LASF1167
     /tmp/cc8IgIp2.s:72767  .debug_str:0000000000005794 .LASF1168
     /tmp/cc8IgIp2.s:70973  .debug_str:0000000000000b15 .LASF1169
     /tmp/cc8IgIp2.s:70955  .debug_str:0000000000000a3d .LASF1170
     /tmp/cc8IgIp2.s:75897  .debug_str:000000000000ddb6 .LASF1171
     /tmp/cc8IgIp2.s:74391  .debug_str:0000000000009e23 .LASF1172
     /tmp/cc8IgIp2.s:70957  .debug_str:0000000000000a44 .LASF1173
     /tmp/cc8IgIp2.s:71369  .debug_str:0000000000001aba .LASF1174
     /tmp/cc8IgIp2.s:74605  .debug_str:000000000000a6ca .LASF1175
     /tmp/cc8IgIp2.s:71013  .debug_str:0000000000000c99 .LASF1176
     /tmp/cc8IgIp2.s:76121  .debug_str:000000000000e833 .LASF1177
     /tmp/cc8IgIp2.s:74609  .debug_str:000000000000a706 .LASF1178
     /tmp/cc8IgIp2.s:71015  .debug_str:0000000000000ca0 .LASF1179
     /tmp/cc8IgIp2.s:71573  .debug_str:0000000000002372 .LASF1180
     /tmp/cc8IgIp2.s:70925  .debug_str:0000000000000955 .LASF1181
     /tmp/cc8IgIp2.s:71017  .debug_str:0000000000000ca7 .LASF1182
     /tmp/cc8IgIp2.s:72365  .debug_str:0000000000004770 .LASF1183
     /tmp/cc8IgIp2.s:70855  .debug_str:0000000000000659 .LASF1184
     /tmp/cc8IgIp2.s:71019  .debug_str:0000000000000cae .LASF1185
     /tmp/cc8IgIp2.s:77747  .debug_str:0000000000012dea .LASF1186
     /tmp/cc8IgIp2.s:70857  .debug_str:0000000000000668 .LASF1187
     /tmp/cc8IgIp2.s:75445  .debug_str:000000000000c86c .LASF1188
     /tmp/cc8IgIp2.s:73283  .debug_str:0000000000006cff .LASF1189
     /tmp/cc8IgIp2.s:77611  .debug_str:0000000000012796 .LASF1190
     /tmp/cc8IgIp2.s:71023  .debug_str:0000000000000cce .LASF1191
     /tmp/cc8IgIp2.s:76357  .debug_str:000000000000f25f .LASF1192
     /tmp/cc8IgIp2.s:71687  .debug_str:00000000000028bf .LASF1193
     /tmp/cc8IgIp2.s:71025  .debug_str:0000000000000cd5 .LASF1194
     /tmp/cc8IgIp2.s:71811  .debug_str:0000000000002ebc .LASF1195
     /tmp/cc8IgIp2.s:74209  .debug_str:00000000000095ec .LASF1196
     /tmp/cc8IgIp2.s:71027  .debug_str:0000000000000cdc .LASF1197
     /tmp/cc8IgIp2.s:75057  .debug_str:000000000000b782 .LASF1198
     /tmp/cc8IgIp2.s:71761  .debug_str:0000000000002ca0 .LASF1199
     /tmp/cc8IgIp2.s:71029  .debug_str:0000000000000ce3 .LASF1200
     /tmp/cc8IgIp2.s:77999  .debug_str:000000000001392f .LASF1201
     /tmp/cc8IgIp2.s:73177  .debug_str:000000000000686b .LASF1202
     /tmp/cc8IgIp2.s:71031  .debug_str:0000000000000cea .LASF1203
     /tmp/cc8IgIp2.s:73559  .debug_str:0000000000007938 .LASF1204
     /tmp/cc8IgIp2.s:72071  .debug_str:0000000000003a38 .LASF1205
     /tmp/cc8IgIp2.s:71097  .debug_str:0000000000000fe3 .LASF1206
     /tmp/cc8IgIp2.s:78209  .debug_str:00000000000141b8 .LASF1207
     /tmp/cc8IgIp2.s:78083  .debug_str:0000000000013cf5 .LASF1208
     /tmp/cc8IgIp2.s:71099  .debug_str:0000000000000fea .LASF1209
     /tmp/cc8IgIp2.s:73789  .debug_str:0000000000008452 .LASF1210
     /tmp/cc8IgIp2.s:78085  .debug_str:0000000000013d00 .LASF1211
     /tmp/cc8IgIp2.s:71101  .debug_str:0000000000000ff1 .LASF1212
     /tmp/cc8IgIp2.s:76849  .debug_str:00000000000107d2 .LASF1213
     /tmp/cc8IgIp2.s:70817  .debug_str:00000000000004a7 .LASF1214
     /tmp/cc8IgIp2.s:71103  .debug_str:0000000000000ff8 .LASF1215
     /tmp/cc8IgIp2.s:72287  .debug_str:0000000000004474 .LASF1216
     /tmp/cc8IgIp2.s:76881  .debug_str:000000000001095f .LASF1217
     /tmp/cc8IgIp2.s:71105  .debug_str:0000000000000fff .LASF1218
     /tmp/cc8IgIp2.s:75543  .debug_str:000000000000cd52 .LASF1219
     /tmp/cc8IgIp2.s:76875  .debug_str:0000000000010910 .LASF1220
     /tmp/cc8IgIp2.s:71107  .debug_str:0000000000001006 .LASF1221
     /tmp/cc8IgIp2.s:70891  .debug_str:00000000000007f2 .LASF1222
     /tmp/cc8IgIp2.s:72333  .debug_str:0000000000004642 .LASF1223
     /tmp/cc8IgIp2.s:71109  .debug_str:000000000000100d .LASF1224
     /tmp/cc8IgIp2.s:74095  .debug_str:0000000000009191 .LASF1225
     /tmp/cc8IgIp2.s:77951  .debug_str:000000000001366d .LASF1226
     /tmp/cc8IgIp2.s:71111  .debug_str:0000000000001014 .LASF1227
     /tmp/cc8IgIp2.s:77049  .debug_str:000000000001112a .LASF1228
     /tmp/cc8IgIp2.s:74031  .debug_str:0000000000008ee9 .LASF1229
     /tmp/cc8IgIp2.s:71113  .debug_str:000000000000101b .LASF1230
     /tmp/cc8IgIp2.s:74471  .debug_str:000000000000a1a7 .LASF1231
     /tmp/cc8IgIp2.s:71515  .debug_str:00000000000020ac .LASF1232
     /tmp/cc8IgIp2.s:75563  .debug_str:000000000000ce41 .LASF1233
     /tmp/cc8IgIp2.s:75767  .debug_str:000000000000d84a .LASF1234
     /tmp/cc8IgIp2.s:75247  .debug_str:000000000000bf0e .LASF1235
     /tmp/cc8IgIp2.s:71165  .debug_str:00000000000012c6 .LASF1236
     /tmp/cc8IgIp2.s:78039  .debug_str:0000000000013aff .LASF1237
     /tmp/cc8IgIp2.s:74091  .debug_str:0000000000009171 .LASF1238
     /tmp/cc8IgIp2.s:71167  .debug_str:00000000000012cd .LASF1239
     /tmp/cc8IgIp2.s:75971  .debug_str:000000000000e12b .LASF1240
     /tmp/cc8IgIp2.s:75929  .debug_str:000000000000df5f .LASF1241
     /tmp/cc8IgIp2.s:71169  .debug_str:00000000000012d4 .LASF1242
     /tmp/cc8IgIp2.s:71435  .debug_str:0000000000001d77 .LASF1243
     /tmp/cc8IgIp2.s:77983  .debug_str:000000000001382e .LASF1244
     /tmp/cc8IgIp2.s:71171  .debug_str:00000000000012db .LASF1245
     /tmp/cc8IgIp2.s:74613  .debug_str:000000000000a72e .LASF1246
     /tmp/cc8IgIp2.s:77985  .debug_str:0000000000013839 .LASF1247
     /tmp/cc8IgIp2.s:71173  .debug_str:00000000000012e2 .LASF1248
     /tmp/cc8IgIp2.s:72509  .debug_str:0000000000004dd7 .LASF1249
     /tmp/cc8IgIp2.s:77839  .debug_str:0000000000013184 .LASF1250
     /tmp/cc8IgIp2.s:71175  .debug_str:00000000000012e9 .LASF1251
     /tmp/cc8IgIp2.s:73137  .debug_str:000000000000666c .LASF1252
     /tmp/cc8IgIp2.s:72725  .debug_str:0000000000005650 .LASF1253
     /tmp/cc8IgIp2.s:71177  .debug_str:00000000000012f0 .LASF1254
     /tmp/cc8IgIp2.s:76251  .debug_str:000000000000ed89 .LASF1255
     /tmp/cc8IgIp2.s:72727  .debug_str:000000000000565c .LASF1256
     /tmp/cc8IgIp2.s:71179  .debug_str:00000000000012f7 .LASF1257
     /tmp/cc8IgIp2.s:71693  .debug_str:0000000000002913 .LASF1258
     /tmp/cc8IgIp2.s:75857  .debug_str:000000000000dc28 .LASF1259
     /tmp/cc8IgIp2.s:75657  .debug_str:000000000000d2a3 .LASF1260
     /tmp/cc8IgIp2.s:74921  .debug_str:000000000000b298 .LASF1261
     /tmp/cc8IgIp2.s:75859  .debug_str:000000000000dc32 .LASF1262
     /tmp/cc8IgIp2.s:71183  .debug_str:000000000000131f .LASF1263
     /tmp/cc8IgIp2.s:77865  .debug_str:00000000000132ab .LASF1264
     /tmp/cc8IgIp2.s:75861  .debug_str:000000000000dc3c .LASF1265
     /tmp/cc8IgIp2.s:71237  .debug_str:0000000000001578 .LASF1266
     /tmp/cc8IgIp2.s:75161  .debug_str:000000000000bb51 .LASF1267
     /tmp/cc8IgIp2.s:75863  .debug_str:000000000000dc46 .LASF1268
     /tmp/cc8IgIp2.s:71239  .debug_str:000000000000157f .LASF1269
     /tmp/cc8IgIp2.s:78079  .debug_str:0000000000013cb0 .LASF1270
     /tmp/cc8IgIp2.s:75045  .debug_str:000000000000b6fd .LASF1271
     /tmp/cc8IgIp2.s:71241  .debug_str:0000000000001586 .LASF1272
     /tmp/cc8IgIp2.s:73639  .debug_str:0000000000007d87 .LASF1273
     /tmp/cc8IgIp2.s:72109  .debug_str:0000000000003bb4 .LASF1274
     /tmp/cc8IgIp2.s:71243  .debug_str:000000000000158d .LASF1275
     /tmp/cc8IgIp2.s:75569  .debug_str:000000000000ce68 .LASF1276
     /tmp/cc8IgIp2.s:72111  .debug_str:0000000000003bc0 .LASF1277
     /tmp/cc8IgIp2.s:71245  .debug_str:0000000000001594 .LASF1278
     /tmp/cc8IgIp2.s:72167  .debug_str:0000000000003e57 .LASF1279
     /tmp/cc8IgIp2.s:72113  .debug_str:0000000000003bcc .LASF1280
     /tmp/cc8IgIp2.s:71247  .debug_str:000000000000159b .LASF1281
     /tmp/cc8IgIp2.s:77763  .debug_str:0000000000012e7d .LASF1282
     /tmp/cc8IgIp2.s:72311  .debug_str:0000000000004599 .LASF1283
     /tmp/cc8IgIp2.s:71249  .debug_str:00000000000015a2 .LASF1284
     /tmp/cc8IgIp2.s:70769  .debug_str:0000000000000281 .LASF1285
     /tmp/cc8IgIp2.s:72313  .debug_str:00000000000045a3 .LASF1286
     /tmp/cc8IgIp2.s:71251  .debug_str:00000000000015a9 .LASF1287
     /tmp/cc8IgIp2.s:73935  .debug_str:0000000000008ac4 .LASF1288
     /tmp/cc8IgIp2.s:72315  .debug_str:00000000000045ad .LASF1289
     /tmp/cc8IgIp2.s:71253  .debug_str:00000000000015b0 .LASF1290
     /tmp/cc8IgIp2.s:76989  .debug_str:0000000000010eb3 .LASF1291
     /tmp/cc8IgIp2.s:72317  .debug_str:00000000000045b7 .LASF1292
     /tmp/cc8IgIp2.s:71255  .debug_str:00000000000015b7 .LASF1293
     /tmp/cc8IgIp2.s:72421  .debug_str:0000000000004a62 .LASF1294
     /tmp/cc8IgIp2.s:75009  .debug_str:000000000000b622 .LASF1295
     /tmp/cc8IgIp2.s:71315  .debug_str:000000000000183d .LASF1296
     /tmp/cc8IgIp2.s:77221  .debug_str:0000000000011725 .LASF1297
     /tmp/cc8IgIp2.s:76799  .debug_str:00000000000105d9 .LASF1298
     /tmp/cc8IgIp2.s:77033  .debug_str:00000000000110bf .LASF1299
     /tmp/cc8IgIp2.s:78183  .debug_str:0000000000014065 .LASF1300
     /tmp/cc8IgIp2.s:75303  .debug_str:000000000000c1c2 .LASF1301
     /tmp/cc8IgIp2.s:77035  .debug_str:00000000000110c7 .LASF1302
     /tmp/cc8IgIp2.s:73745  .debug_str:0000000000008271 .LASF1303
     /tmp/cc8IgIp2.s:76803  .debug_str:00000000000105f6 .LASF1304
     /tmp/cc8IgIp2.s:77037  .debug_str:00000000000110cf .LASF1305
     /tmp/cc8IgIp2.s:76815  .debug_str:000000000001068b .LASF1306
     /tmp/cc8IgIp2.s:77015  .debug_str:0000000000010fdc .LASF1307
     /tmp/cc8IgIp2.s:77661  .debug_str:000000000001297a .LASF1308
     /tmp/cc8IgIp2.s:76097  .debug_str:000000000000e6f7 .LASF1309
     /tmp/cc8IgIp2.s:71313  .debug_str:0000000000001831 .LASF1310
     /tmp/cc8IgIp2.s:78011  .debug_str:00000000000139b2 .LASF1311
     /tmp/cc8IgIp2.s:73903  .debug_str:000000000000893f .LASF1312
     /tmp/cc8IgIp2.s:77287  .debug_str:00000000000119ef .LASF1313
     /tmp/cc8IgIp2.s:75835  .debug_str:000000000000db17 .LASF1314
     /tmp/cc8IgIp2.s:75545  .debug_str:000000000000cd73 .LASF1315
     /tmp/cc8IgIp2.s:73571  .debug_str:00000000000079f7 .LASF1316
     /tmp/cc8IgIp2.s:72049  .debug_str:0000000000003943 .LASF1317
     /tmp/cc8IgIp2.s:76997  .debug_str:0000000000010f1d .LASF1318
     /tmp/cc8IgIp2.s:77219  .debug_str:0000000000011719 .LASF1319
     /tmp/cc8IgIp2.s:73385  .debug_str:00000000000071d4 .LASF1320
     /tmp/cc8IgIp2.s:72807  .debug_str:0000000000005956 .LASF1321
     /tmp/cc8IgIp2.s:71747  .debug_str:0000000000002c19 .LASF1322
     /tmp/cc8IgIp2.s:73107  .debug_str:0000000000006509 .LASF1323
     /tmp/cc8IgIp2.s:72431  .debug_str:0000000000004aef .LASF1324
     /tmp/cc8IgIp2.s:77371  .debug_str:0000000000011d45 .LASF1325
     /tmp/cc8IgIp2.s:76253  .debug_str:000000000000edaa .LASF1326
     /tmp/cc8IgIp2.s:75181  .debug_str:000000000000bc32 .LASF1327
     /tmp/cc8IgIp2.s:75157  .debug_str:000000000000bb21 .LASF1328
     /tmp/cc8IgIp2.s:72121  .debug_str:0000000000003c31 .LASF1329
     /tmp/cc8IgIp2.s:72073  .debug_str:0000000000003a41 .LASF1330
     /tmp/cc8IgIp2.s:72785  .debug_str:0000000000005852 .LASF1331
     /tmp/cc8IgIp2.s:75577  .debug_str:000000000000cec3 .LASF1332
     /tmp/cc8IgIp2.s:73231  .debug_str:0000000000006a6d .LASF1333
     /tmp/cc8IgIp2.s:74851  .debug_str:000000000000affb .LASF1334
     /tmp/cc8IgIp2.s:70783  .debug_str:0000000000000336 .LASF1335
     /tmp/cc8IgIp2.s:75617  .debug_str:000000000000d08f .LASF1336
     /tmp/cc8IgIp2.s:76859  .debug_str:0000000000010862 .LASF1337
     /tmp/cc8IgIp2.s:74033  .debug_str:0000000000008ef9 .LASF1338
     /tmp/cc8IgIp2.s:72237  .debug_str:000000000000419d .LASF1339
     /tmp/cc8IgIp2.s:75451  .debug_str:000000000000c89a .LASF1340
     /tmp/cc8IgIp2.s:71975  .debug_str:00000000000035f4 .LASF1341
     /tmp/cc8IgIp2.s:77931  .debug_str:0000000000013596 .LASF1342
     /tmp/cc8IgIp2.s:73371  .debug_str:0000000000007139 .LASF1343
     /tmp/cc8IgIp2.s:72591  .debug_str:000000000000513f .LASF1344
     /tmp/cc8IgIp2.s:73807  .debug_str:000000000000853c .LASF1345
     /tmp/cc8IgIp2.s:71519  .debug_str:00000000000020d9 .LASF1346
     /tmp/cc8IgIp2.s:76165  .debug_str:000000000000ea10 .LASF1347
     /tmp/cc8IgIp2.s:72375  .debug_str:0000000000004805 .LASF1348
     /tmp/cc8IgIp2.s:74369  .debug_str:0000000000009d73 .LASF1349
     /tmp/cc8IgIp2.s:76663  .debug_str:000000000000ff91 .LASF1350
     /tmp/cc8IgIp2.s:76301  .debug_str:000000000000ef79 .LASF1351
     /tmp/cc8IgIp2.s:73787  .debug_str:0000000000008443 .LASF1352
     /tmp/cc8IgIp2.s:71481  .debug_str:0000000000001f70 .LASF1353
     /tmp/cc8IgIp2.s:77333  .debug_str:0000000000011b87 .LASF1354
     /tmp/cc8IgIp2.s:74389  .debug_str:0000000000009e0f .LASF1355
     /tmp/cc8IgIp2.s:74149  .debug_str:00000000000093e0 .LASF1356
     /tmp/cc8IgIp2.s:73091  .debug_str:0000000000006437 .LASF1357
     /tmp/cc8IgIp2.s:74257  .debug_str:000000000000984c .LASF1358
     /tmp/cc8IgIp2.s:77425  .debug_str:0000000000011f57 .LASF1359
     /tmp/cc8IgIp2.s:71835  .debug_str:0000000000002fc9 .LASF1360
     /tmp/cc8IgIp2.s:73911  .debug_str:00000000000089ae .LASF1361
     /tmp/cc8IgIp2.s:71483  .debug_str:0000000000001f79 .LASF1362
     /tmp/cc8IgIp2.s:76181  .debug_str:000000000000eab8 .LASF1363
     /tmp/cc8IgIp2.s:73509  .debug_str:00000000000076bc .LASF1364
     /tmp/cc8IgIp2.s:71823  .debug_str:0000000000002f3e .LASF1365
     /tmp/cc8IgIp2.s:75659  .debug_str:000000000000d2aa .LASF1366
     /tmp/cc8IgIp2.s:73661  .debug_str:0000000000007e6d .LASF1367
     /tmp/cc8IgIp2.s:74597  .debug_str:000000000000a678 .LASF1368
     /tmp/cc8IgIp2.s:73891  .debug_str:00000000000088f2 .LASF1369
     /tmp/cc8IgIp2.s:73251  .debug_str:0000000000006b8e .LASF1370
     /tmp/cc8IgIp2.s:72513  .debug_str:0000000000004e03 .LASF1371
     /tmp/cc8IgIp2.s:70803  .debug_str:000000000000043b .LASF1372
     /tmp/cc8IgIp2.s:72757  .debug_str:0000000000005719 .LASF1373
     /tmp/cc8IgIp2.s:71879  .debug_str:00000000000031d7 .LASF1374
     /tmp/cc8IgIp2.s:71309  .debug_str:0000000000001816 .LASF1375
     /tmp/cc8IgIp2.s:78141  .debug_str:0000000000013f21 .LASF1376
     /tmp/cc8IgIp2.s:77519  .debug_str:00000000000123a4 .LASF1377
     /tmp/cc8IgIp2.s:70805  .debug_str:0000000000000442 .LASF1378
     /tmp/cc8IgIp2.s:75891  .debug_str:000000000000dd52 .LASF1379
     /tmp/cc8IgIp2.s:71229  .debug_str:000000000000152a .LASF1380
     /tmp/cc8IgIp2.s:76531  .debug_str:000000000000f9fe .LASF1381
     /tmp/cc8IgIp2.s:73629  .debug_str:0000000000007cea .LASF1382
     /tmp/cc8IgIp2.s:77699  .debug_str:0000000000012b56 .LASF1383
     /tmp/cc8IgIp2.s:76533  .debug_str:000000000000fa0c .LASF1384
     /tmp/cc8IgIp2.s:76725  .debug_str:0000000000010281 .LASF1385
     /tmp/cc8IgIp2.s:76053  .debug_str:000000000000e4ca .LASF1386
     /tmp/cc8IgIp2.s:76535  .debug_str:000000000000fa1a .LASF1387
     /tmp/cc8IgIp2.s:72161  .debug_str:0000000000003e11 .LASF1388
     /tmp/cc8IgIp2.s:71843  .debug_str:0000000000003039 .LASF1389
     /tmp/cc8IgIp2.s:76537  .debug_str:000000000000fa28 .LASF1390
     /tmp/cc8IgIp2.s:75415  .debug_str:000000000000c716 .LASF1391
     /tmp/cc8IgIp2.s:72123  .debug_str:0000000000003c40 .LASF1392
     /tmp/cc8IgIp2.s:76539  .debug_str:000000000000fa36 .LASF1393
     /tmp/cc8IgIp2.s:70757  .debug_str:00000000000001f4 .LASF1394
     /tmp/cc8IgIp2.s:73267  .debug_str:0000000000006c11 .LASF1395
     /tmp/cc8IgIp2.s:76541  .debug_str:000000000000fa44 .LASF1396
     /tmp/cc8IgIp2.s:73915  .debug_str:00000000000089ca .LASF1397
     /tmp/cc8IgIp2.s:78143  .debug_str:0000000000013f2e .LASF1398
     /tmp/cc8IgIp2.s:76543  .debug_str:000000000000fa52 .LASF1399
     /tmp/cc8IgIp2.s:76975  .debug_str:0000000000010ded .LASF1400
     /tmp/cc8IgIp2.s:72041  .debug_str:00000000000038ee .LASF1401
     /tmp/cc8IgIp2.s:76557  .debug_str:000000000000fada .LASF1402
     /tmp/cc8IgIp2.s:76559  .debug_str:000000000000faec .LASF1403
     /tmp/cc8IgIp2.s:76561  .debug_str:000000000000fafe .LASF1404
     /tmp/cc8IgIp2.s:73643  .debug_str:0000000000007dcc .LASF1405
     /tmp/cc8IgIp2.s:71859  .debug_str:00000000000030db .LASF1406
     /tmp/cc8IgIp2.s:76563  .debug_str:000000000000fb10 .LASF1407
     /tmp/cc8IgIp2.s:76565  .debug_str:000000000000fb22 .LASF1408
     /tmp/cc8IgIp2.s:76567  .debug_str:000000000000fb34 .LASF1409
     /tmp/cc8IgIp2.s:76569  .debug_str:000000000000fb46 .LASF1410
     /tmp/cc8IgIp2.s:73645  .debug_str:0000000000007ddb .LASF1411
     /tmp/cc8IgIp2.s:75137  .debug_str:000000000000ba5c .LASF1412
     /tmp/cc8IgIp2.s:71153  .debug_str:0000000000001219 .LASF1413
     /tmp/cc8IgIp2.s:73191  .debug_str:00000000000068f5 .LASF1414
     /tmp/cc8IgIp2.s:77143  .debug_str:0000000000011426 .LASF1415
     /tmp/cc8IgIp2.s:71799  .debug_str:0000000000002e53 .LASF1416
     /tmp/cc8IgIp2.s:75923  .debug_str:000000000000df0f .LASF1417
     /tmp/cc8IgIp2.s:72589  .debug_str:0000000000005115 .LASF1418
     /tmp/cc8IgIp2.s:72999  .debug_str:0000000000006050 .LASF1419
     /tmp/cc8IgIp2.s:75289  .debug_str:000000000000c0e5 .LASF1420
     /tmp/cc8IgIp2.s:74475  .debug_str:000000000000a1f1 .LASF1421
     /tmp/cc8IgIp2.s:78167  .debug_str:0000000000013fc7 .LASF1422
     /tmp/cc8IgIp2.s:78165  .debug_str:0000000000013fb5 .LASF1423
     /tmp/cc8IgIp2.s:73765  .debug_str:0000000000008377 .LASF1424
     /tmp/cc8IgIp2.s:70819  .debug_str:00000000000004b7 .LASF1425
     /tmp/cc8IgIp2.s:71485  .debug_str:0000000000001f89 .LASF1426
     /tmp/cc8IgIp2.s:74601  .debug_str:000000000000a690 .LASF1427
     /tmp/cc8IgIp2.s:78059  .debug_str:0000000000013be7 .LASF1428
     /tmp/cc8IgIp2.s:74523  .debug_str:000000000000a3e5 .LASF1429
     /tmp/cc8IgIp2.s:71433  .debug_str:0000000000001d5f .LASF1430
     /tmp/cc8IgIp2.s:74741  .debug_str:000000000000ac23 .LASF1431
     /tmp/cc8IgIp2.s:71437  .debug_str:0000000000001d98 .LASF1432
     /tmp/cc8IgIp2.s:73061  .debug_str:00000000000062cd .LASF1433
     /tmp/cc8IgIp2.s:74141  .debug_str:0000000000009360 .LASF1434
     /tmp/cc8IgIp2.s:75711  .debug_str:000000000000d50c .LASF1435
     /tmp/cc8IgIp2.s:71441  .debug_str:0000000000001dbf .LASF1436
     /tmp/cc8IgIp2.s:72701  .debug_str:00000000000054ff .LASF1437
     /tmp/cc8IgIp2.s:71303  .debug_str:00000000000017c3 .LASF1438
     /tmp/cc8IgIp2.s:72705  .debug_str:000000000000553d .LASF1439
     /tmp/cc8IgIp2.s:72707  .debug_str:000000000000555b .LASF1440
     /tmp/cc8IgIp2.s:72709  .debug_str:0000000000005579 .LASF1441
     /tmp/cc8IgIp2.s:72945  .debug_str:0000000000005e3a .LASF1442
     /tmp/cc8IgIp2.s:75275  .debug_str:000000000000c061 .LASF1443
     /tmp/cc8IgIp2.s:75277  .debug_str:000000000000c07e .LASF1444
     /tmp/cc8IgIp2.s:77403  .debug_str:0000000000011e6c .LASF1445
     /tmp/cc8IgIp2.s:75283  .debug_str:000000000000c0ac .LASF1446
     /tmp/cc8IgIp2.s:70929  .debug_str:0000000000000969 .LASF1447
     /tmp/cc8IgIp2.s:70931  .debug_str:0000000000000983 .LASF1448
     /tmp/cc8IgIp2.s:77469  .debug_str:0000000000012154 .LASF1449
     /tmp/cc8IgIp2.s:70935  .debug_str:00000000000009c1 .LASF1450
     /tmp/cc8IgIp2.s:70937  .debug_str:00000000000009db .LASF1451
     /tmp/cc8IgIp2.s:78061  .debug_str:0000000000013bf6 .LASF1452
     /tmp/cc8IgIp2.s:75427  .debug_str:000000000000c7b3 .LASF1453
     /tmp/cc8IgIp2.s:74143  .debug_str:0000000000009378 .LASF1454
     /tmp/cc8IgIp2.s:71135  .debug_str:000000000000111f .LASF1455
     /tmp/cc8IgIp2.s:76571  .debug_str:000000000000fb58 .LASF1456
     /tmp/cc8IgIp2.s:78217  .debug_str:000000000001423d .LASF1457
     /tmp/cc8IgIp2.s:78219  .debug_str:000000000001425a .LASF1458
     /tmp/cc8IgIp2.s:78221  .debug_str:0000000000014277 .LASF1459
     /tmp/cc8IgIp2.s:73697  .debug_str:0000000000007fd7 .LASF1460
     /tmp/cc8IgIp2.s:73335  .debug_str:0000000000006f65 .LASF1461
     /tmp/cc8IgIp2.s:78223  .debug_str:0000000000014294 .LASF1462
     /tmp/cc8IgIp2.s:72261  .debug_str:00000000000042eb .LASF1463
     /tmp/cc8IgIp2.s:72263  .debug_str:000000000000430e .LASF1464
     /tmp/cc8IgIp2.s:72265  .debug_str:0000000000004331 .LASF1465
     /tmp/cc8IgIp2.s:72267  .debug_str:0000000000004354 .LASF1466
     /tmp/cc8IgIp2.s:72269  .debug_str:0000000000004377 .LASF1467
     /tmp/cc8IgIp2.s:71913  .debug_str:0000000000003336 .LASF1468
     /tmp/cc8IgIp2.s:71915  .debug_str:0000000000003358 .LASF1469
     /tmp/cc8IgIp2.s:71917  .debug_str:000000000000337a .LASF1470
     /tmp/cc8IgIp2.s:71919  .debug_str:000000000000339c .LASF1471
     /tmp/cc8IgIp2.s:71921  .debug_str:00000000000033be .LASF1472
     /tmp/cc8IgIp2.s:74457  .debug_str:000000000000a0de .LASF1473
     /tmp/cc8IgIp2.s:74459  .debug_str:000000000000a0fd .LASF1474
     /tmp/cc8IgIp2.s:74461  .debug_str:000000000000a11c .LASF1475
     /tmp/cc8IgIp2.s:74463  .debug_str:000000000000a13b .LASF1476
     /tmp/cc8IgIp2.s:74465  .debug_str:000000000000a15a .LASF1477
     /tmp/cc8IgIp2.s:72535  .debug_str:0000000000004ee3 .LASF1478
     /tmp/cc8IgIp2.s:78019  .debug_str:0000000000013a1d .LASF1479
     /tmp/cc8IgIp2.s:74039  .debug_str:0000000000008f27 .LASF1480
     /tmp/cc8IgIp2.s:76407  .debug_str:000000000000f47b .LASF1481
     /tmp/cc8IgIp2.s:73477  .debug_str:0000000000007519 .LASF1482
     /tmp/cc8IgIp2.s:73967  .debug_str:0000000000008c35 .LASF1483
     /tmp/cc8IgIp2.s:73969  .debug_str:0000000000008c4d .LASF1484
     /tmp/cc8IgIp2.s:73971  .debug_str:0000000000008c65 .LASF1485
     /tmp/cc8IgIp2.s:76341  .debug_str:000000000000f196 .LASF1486
     /tmp/cc8IgIp2.s:76953  .debug_str:0000000000010cb9 .LASF1487
     /tmp/cc8IgIp2.s:73973  .debug_str:0000000000008c7d .LASF1488
     /tmp/cc8IgIp2.s:75347  .debug_str:000000000000c3a5 .LASF1489
     /tmp/cc8IgIp2.s:75349  .debug_str:000000000000c3c3 .LASF1490
     /tmp/cc8IgIp2.s:75351  .debug_str:000000000000c3e1 .LASF1491
     /tmp/cc8IgIp2.s:75353  .debug_str:000000000000c3ff .LASF1492
     /tmp/cc8IgIp2.s:75355  .debug_str:000000000000c41d .LASF1493
     /tmp/cc8IgIp2.s:75527  .debug_str:000000000000cc67 .LASF1494
     /tmp/cc8IgIp2.s:75641  .debug_str:000000000000d1d5 .LASF1495
     /tmp/cc8IgIp2.s:75531  .debug_str:000000000000ccab .LASF1496
     /tmp/cc8IgIp2.s:75533  .debug_str:000000000000ccc8 .LASF1497
     /tmp/cc8IgIp2.s:75535  .debug_str:000000000000cce5 .LASF1498
     /tmp/cc8IgIp2.s:77849  .debug_str:00000000000131ea .LASF1499
     /tmp/cc8IgIp2.s:73511  .debug_str:00000000000076e3 .LASF1500
     /tmp/cc8IgIp2.s:73513  .debug_str:00000000000076fd .LASF1501
     /tmp/cc8IgIp2.s:73515  .debug_str:0000000000007717 .LASF1502
     /tmp/cc8IgIp2.s:73517  .debug_str:0000000000007731 .LASF1503
     /tmp/cc8IgIp2.s:74101  .debug_str:00000000000091d1 .LASF1504
     /tmp/cc8IgIp2.s:77243  .debug_str:00000000000118b0 .LASF1505
     /tmp/cc8IgIp2.s:76343  .debug_str:000000000000f1ae .LASF1506
     /tmp/cc8IgIp2.s:72903  .debug_str:0000000000005c24 .LASF1507
     /tmp/cc8IgIp2.s:77635  .debug_str:0000000000012876 .LASF1508
     /tmp/cc8IgIp2.s:77893  .debug_str:00000000000133df .LASF1509
     /tmp/cc8IgIp2.s:77639  .debug_str:0000000000012894 .LASF1510
     /tmp/cc8IgIp2.s:77641  .debug_str:00000000000128ab .LASF1511
     /tmp/cc8IgIp2.s:77899  .debug_str:0000000000013404 .LASF1512
     /tmp/cc8IgIp2.s:77231  .debug_str:00000000000117db .LASF1513
     /tmp/cc8IgIp2.s:77643  .debug_str:00000000000128c2 .LASF1514
     /tmp/cc8IgIp2.s:71357  .debug_str:0000000000001a11 .LASF1515
     /tmp/cc8IgIp2.s:71359  .debug_str:0000000000001a2e .LASF1516
     /tmp/cc8IgIp2.s:71361  .debug_str:0000000000001a4b .LASF1517
     /tmp/cc8IgIp2.s:71363  .debug_str:0000000000001a68 .LASF1518
     /tmp/cc8IgIp2.s:71365  .debug_str:0000000000001a85 .LASF1519
     /tmp/cc8IgIp2.s:77337  .debug_str:0000000000011bcf .LASF1520
     /tmp/cc8IgIp2.s:77339  .debug_str:0000000000011beb .LASF1521
     /tmp/cc8IgIp2.s:77341  .debug_str:0000000000011c07 .LASF1522
     /tmp/cc8IgIp2.s:77343  .debug_str:0000000000011c23 .LASF1523
     /tmp/cc8IgIp2.s:77345  .debug_str:0000000000011c3f .LASF1524
     /tmp/cc8IgIp2.s:75481  .debug_str:000000000000c9f5 .LASF1525
     /tmp/cc8IgIp2.s:75483  .debug_str:000000000000ca0e .LASF1526
     /tmp/cc8IgIp2.s:75485  .debug_str:000000000000ca27 .LASF1527
     /tmp/cc8IgIp2.s:75487  .debug_str:000000000000ca40 .LASF1528
     /tmp/cc8IgIp2.s:75489  .debug_str:000000000000ca59 .LASF1529
     /tmp/cc8IgIp2.s:77979  .debug_str:000000000001380f .LASF1530
     /tmp/cc8IgIp2.s:75885  .debug_str:000000000000dd0f .LASF1531
     /tmp/cc8IgIp2.s:72243  .debug_str:00000000000041ed .LASF1532
     /tmp/cc8IgIp2.s:75681  .debug_str:000000000000d39d .LASF1533
     /tmp/cc8IgIp2.s:76093  .debug_str:000000000000e6b1 .LASF1534
     /tmp/cc8IgIp2.s:76095  .debug_str:000000000000e6d4 .LASF1535
     /tmp/cc8IgIp2.s:76261  .debug_str:000000000000ede7 .LASF1536
     /tmp/cc8IgIp2.s:76099  .debug_str:000000000000e702 .LASF1537
     /tmp/cc8IgIp2.s:76101  .debug_str:000000000000e725 .LASF1538
     /tmp/cc8IgIp2.s:75679  .debug_str:000000000000d381 .LASF1539
     /tmp/cc8IgIp2.s:75315  .debug_str:000000000000c23b .LASF1540
     /tmp/cc8IgIp2.s:75163  .debug_str:000000000000bb72 .LASF1541
     /tmp/cc8IgIp2.s:74425  .debug_str:0000000000009f4d .LASF1542
     /tmp/cc8IgIp2.s:74427  .debug_str:0000000000009f71 .LASF1543
     /tmp/cc8IgIp2.s:74429  .debug_str:0000000000009f95 .LASF1544
     /tmp/cc8IgIp2.s:74431  .debug_str:0000000000009fb9 .LASF1545
     /tmp/cc8IgIp2.s:74433  .debug_str:0000000000009fdd .LASF1546
     /tmp/cc8IgIp2.s:72163  .debug_str:0000000000003e39 .LASF1547
     /tmp/cc8IgIp2.s:71907  .debug_str:00000000000032ea .LASF1548
     /tmp/cc8IgIp2.s:72007  .debug_str:00000000000037dc .LASF1549
     /tmp/cc8IgIp2.s:76719  .debug_str:000000000001021c .LASF1550
     /tmp/cc8IgIp2.s:73855  .debug_str:000000000000876d .LASF1551
     /tmp/cc8IgIp2.s:71095  .debug_str:0000000000000fce .LASF1552
     /tmp/cc8IgIp2.s:73067  .debug_str:0000000000006329 .LASF1553
     /tmp/cc8IgIp2.s:75085  .debug_str:000000000000b8c3 .LASF1554
     /tmp/cc8IgIp2.s:71681  .debug_str:0000000000002886 .LASF1555
     /tmp/cc8IgIp2.s:72325  .debug_str:00000000000045e9 .LASF1556
     /tmp/cc8IgIp2.s:71417  .debug_str:0000000000001cc8 .LASF1557
     /tmp/cc8IgIp2.s:75549  .debug_str:000000000000cd82 .LASF1558
     /tmp/cc8IgIp2.s:76987  .debug_str:0000000000010e82 .LASF1559
     /tmp/cc8IgIp2.s:75285  .debug_str:000000000000c0c9 .LASF1560
     /tmp/cc8IgIp2.s:77023  .debug_str:0000000000011049 .LASF1561
     /tmp/cc8IgIp2.s:73109  .debug_str:0000000000006520 .LASF1562
     /tmp/cc8IgIp2.s:76583  .debug_str:000000000000fbee .LASF1563
     /tmp/cc8IgIp2.s:75919  .debug_str:000000000000deb7 .LASF1564
     /tmp/cc8IgIp2.s:77239  .debug_str:0000000000011887 .LASF1565
     /tmp/cc8IgIp2.s:77431  .debug_str:0000000000011f9b .LASF1566
     /tmp/cc8IgIp2.s:73461  .debug_str:000000000000749a .LASF1567
     /tmp/cc8IgIp2.s:73003  .debug_str:0000000000006088 .LASF1568
     /tmp/cc8IgIp2.s:75551  .debug_str:000000000000cd99 .LASF1569
     /tmp/cc8IgIp2.s:75555  .debug_str:000000000000cdd8 .LASF1570
     /tmp/cc8IgIp2.s:76611  .debug_str:000000000000fd50 .LASF1571
     /tmp/cc8IgIp2.s:75559  .debug_str:000000000000ce01 .LASF1572
     /tmp/cc8IgIp2.s:76317  .debug_str:000000000000f06b .LASF1573
     /tmp/cc8IgIp2.s:77185  .debug_str:000000000001160d .LASF1574
     /tmp/cc8IgIp2.s:71079  .debug_str:0000000000000f03 .LASF1575
     /tmp/cc8IgIp2.s:76319  .debug_str:000000000000f087 .LASF1576
     /tmp/cc8IgIp2.s:72631  .debug_str:00000000000052d1 .LASF1577
     /tmp/cc8IgIp2.s:72627  .debug_str:0000000000005299 .LASF1578
     /tmp/cc8IgIp2.s:73313  .debug_str:0000000000006e5e .LASF1579
     /tmp/cc8IgIp2.s:73315  .debug_str:0000000000006e7b .LASF1580
     /tmp/cc8IgIp2.s:73317  .debug_str:0000000000006e98 .LASF1581
     /tmp/cc8IgIp2.s:73319  .debug_str:0000000000006eb5 .LASF1582
     /tmp/cc8IgIp2.s:72069  .debug_str:0000000000003a29 .LASF1583
     /tmp/cc8IgIp2.s:76305  .debug_str:000000000000efc7 .LASF1584
     /tmp/cc8IgIp2.s:74309  .debug_str:0000000000009a75 .LASF1585
     /tmp/cc8IgIp2.s:73617  .debug_str:0000000000007c55 .LASF1586
     /tmp/cc8IgIp2.s:78177  .debug_str:0000000000014037 .LASF1587
     /tmp/cc8IgIp2.s:75033  .debug_str:000000000000b688 .LASF1588
     /tmp/cc8IgIp2.s:76717  .debug_str:00000000000101f5 .LASF1589
     /tmp/cc8IgIp2.s:74263  .debug_str:000000000000987e .LASF1590
     /tmp/cc8IgIp2.s:74265  .debug_str:000000000000989a .LASF1591
     /tmp/cc8IgIp2.s:74267  .debug_str:00000000000098b6 .LASF1592
     /tmp/cc8IgIp2.s:74269  .debug_str:00000000000098d2 .LASF1593
     /tmp/cc8IgIp2.s:71383  .debug_str:0000000000001b55 .LASF1594
     /tmp/cc8IgIp2.s:72931  .debug_str:0000000000005d75 .LASF1595
     /tmp/cc8IgIp2.s:74271  .debug_str:00000000000098ee .LASF1596
     /tmp/cc8IgIp2.s:73985  .debug_str:0000000000008d1a .LASF1597
     /tmp/cc8IgIp2.s:71585  .debug_str:00000000000023f1 .LASF1598
     /tmp/cc8IgIp2.s:72275  .debug_str:00000000000043d4 .LASF1599
     /tmp/cc8IgIp2.s:75985  .debug_str:000000000000e1d7 .LASF1600
     /tmp/cc8IgIp2.s:72761  .debug_str:000000000000574e .LASF1601
     /tmp/cc8IgIp2.s:78211  .debug_str:00000000000141d9 .LASF1602
     /tmp/cc8IgIp2.s:72899  .debug_str:0000000000005be1 .LASF1603
     /tmp/cc8IgIp2.s:77551  .debug_str:00000000000124cf .LASF1604
     /tmp/cc8IgIp2.s:75661  .debug_str:000000000000d2b6 .LASF1605
     /tmp/cc8IgIp2.s:77761  .debug_str:0000000000012e6f .LASF1606
     /tmp/cc8IgIp2.s:76041  .debug_str:000000000000e43c .LASF1607
     /tmp/cc8IgIp2.s:71769  .debug_str:0000000000002cf0 .LASF1608
     /tmp/cc8IgIp2.s:70753  .debug_str:00000000000001cd .LASF1609
     /tmp/cc8IgIp2.s:74121  .debug_str:00000000000092e8 .LASF1610
     /tmp/cc8IgIp2.s:74847  .debug_str:000000000000afe4 .LASF1611
     /tmp/cc8IgIp2.s:76957  .debug_str:0000000000010cfd .LASF1612
     /tmp/cc8IgIp2.s:76507  .debug_str:000000000000f90a .LASF1613
     /tmp/cc8IgIp2.s:73347  .debug_str:000000000000702c .LASF1614
     /tmp/cc8IgIp2.s:74393  .debug_str:0000000000009e34 .LASF1615
     /tmp/cc8IgIp2.s:76409  .debug_str:000000000000f4b2 .LASF1616
     /tmp/cc8IgIp2.s:76187  .debug_str:000000000000eaf2 .LASF1617
     /tmp/cc8IgIp2.s:72763  .debug_str:0000000000005760 .LASF1618
     /tmp/cc8IgIp2.s:72273  .debug_str:00000000000043c7 .LASF1619
     /tmp/cc8IgIp2.s:72713  .debug_str:00000000000055b3 .LASF1620
     /tmp/cc8IgIp2.s:75901  .debug_str:000000000000ddfd .LASF1621
     /tmp/cc8IgIp2.s:73591  .debug_str:0000000000007ac6 .LASF1622
     /tmp/cc8IgIp2.s:77791  .debug_str:0000000000012f75 .LASF1623
     /tmp/cc8IgIp2.s:76379  .debug_str:000000000000f34d .LASF1624
     /tmp/cc8IgIp2.s:72423  .debug_str:0000000000004a83 .LASF1625
     /tmp/cc8IgIp2.s:76895  .debug_str:00000000000109d8 .LASF1626
     /tmp/cc8IgIp2.s:72249  .debug_str:000000000000423f .LASF1627
     /tmp/cc8IgIp2.s:75067  .debug_str:000000000000b81f .LASF1628
     /tmp/cc8IgIp2.s:76899  .debug_str:0000000000010a11 .LASF1629
     /tmp/cc8IgIp2.s:77161  .debug_str:0000000000011501 .LASF1630
     /tmp/cc8IgIp2.s:71547  .debug_str:0000000000002249 .LASF1631
     /tmp/cc8IgIp2.s:74871  .debug_str:000000000000b0e1 .LASF1632
     /tmp/cc8IgIp2.s:77633  .debug_str:000000000001286b .LASF1633
     /tmp/cc8IgIp2.s:72575  .debug_str:0000000000005078 .LASF1634
     /tmp/cc8IgIp2.s:75591  .debug_str:000000000000cf81 .LASF1635
     /tmp/cc8IgIp2.s:71839  .debug_str:0000000000002ffe .LASF1636
     /tmp/cc8IgIp2.s:71819  .debug_str:0000000000002f13 .LASF1637
     /tmp/cc8IgIp2.s:72579  .debug_str:00000000000050a0 .LASF1638
     /tmp/cc8IgIp2.s:73647  .debug_str:0000000000007dea .LASF1639
     /tmp/cc8IgIp2.s:73329  .debug_str:0000000000006f2c .LASF1640
     /tmp/cc8IgIp2.s:71601  .debug_str:00000000000024d8 .LASF1641
     /tmp/cc8IgIp2.s:72199  .debug_str:0000000000004010 .LASF1642
     /tmp/cc8IgIp2.s:71853  .debug_str:000000000000309d .LASF1643
     /tmp/cc8IgIp2.s:76243  .debug_str:000000000000ed27 .LASF1644
     /tmp/cc8IgIp2.s:72063  .debug_str:00000000000039ce .LASF1645
     /tmp/cc8IgIp2.s:76239  .debug_str:000000000000ecf5 .LASF1646
     /tmp/cc8IgIp2.s:72061  .debug_str:00000000000039b5 .LASF1647
     /tmp/cc8IgIp2.s:75677  .debug_str:000000000000d376 .LASF1648
     /tmp/cc8IgIp2.s:74283  .debug_str:0000000000009946 .LASF1649
     /tmp/cc8IgIp2.s:77475  .debug_str:00000000000121ba .LASF1650
     /tmp/cc8IgIp2.s:71337  .debug_str:0000000000001941 .LASF1651
     /tmp/cc8IgIp2.s:75397  .debug_str:000000000000c631 .LASF1652
     /tmp/cc8IgIp2.s:75593  .debug_str:000000000000cf8c .LASF1653
     /tmp/cc8IgIp2.s:73079  .debug_str:00000000000063ad .LASF1654
     /tmp/cc8IgIp2.s:74099  .debug_str:00000000000091c3 .LASF1655
     /tmp/cc8IgIp2.s:74451  .debug_str:000000000000a0b6 .LASF1656
     /tmp/cc8IgIp2.s:74675  .debug_str:000000000000a9de .LASF1657
     /tmp/cc8IgIp2.s:72977  .debug_str:0000000000005f39 .LASF1658
     /tmp/cc8IgIp2.s:74241  .debug_str:00000000000097a0 .LASF1659
     /tmp/cc8IgIp2.s:77115  .debug_str:000000000001137b .LASF1660
     /tmp/cc8IgIp2.s:74803  .debug_str:000000000000ae63 .LASF1661
     /tmp/cc8IgIp2.s:75235  .debug_str:000000000000be89 .LASF1662
     /tmp/cc8IgIp2.s:77559  .debug_str:0000000000012533 .LASF1663
     /tmp/cc8IgIp2.s:77421  .debug_str:0000000000011f3c .LASF1664
     /tmp/cc8IgIp2.s:72543  .debug_str:0000000000004f98 .LASF1665
     /tmp/cc8IgIp2.s:73961  .debug_str:0000000000008bf6 .LASF1666
     /tmp/cc8IgIp2.s:70867  .debug_str:0000000000000705 .LASF1667
     /tmp/cc8IgIp2.s:76155  .debug_str:000000000000e9bc .LASF1668
     /tmp/cc8IgIp2.s:71767  .debug_str:0000000000002cdf .LASF1669
     /tmp/cc8IgIp2.s:72241  .debug_str:00000000000041da .LASF1670
     /tmp/cc8IgIp2.s:75221  .debug_str:000000000000be08 .LASF1671
     /tmp/cc8IgIp2.s:77401  .debug_str:0000000000011e57 .LASF1672
     /tmp/cc8IgIp2.s:74285  .debug_str:000000000000996b .LASF1673
     /tmp/cc8IgIp2.s:71321  .debug_str:000000000000186b .LASF1674
     /tmp/cc8IgIp2.s:76471  .debug_str:000000000000f794 .LASF1675
     /tmp/cc8IgIp2.s:74115  .debug_str:00000000000092be .LASF1676
     /tmp/cc8IgIp2.s:77215  .debug_str:00000000000116f6 .LASF1677
     /tmp/cc8IgIp2.s:76913  .debug_str:0000000000010a95 .LASF1678
     /tmp/cc8IgIp2.s:73417  .debug_str:0000000000007319 .LASF1679
     /tmp/cc8IgIp2.s:73551  .debug_str:00000000000078ef .LASF1680
     /tmp/cc8IgIp2.s:76163  .debug_str:000000000000e9ff .LASF1681
     /tmp/cc8IgIp2.s:77841  .debug_str:0000000000013190 .LASF1682
     /tmp/cc8IgIp2.s:75567  .debug_str:000000000000ce5a .LASF1683
     /tmp/cc8IgIp2.s:74097  .debug_str:00000000000091b2 .LASF1684
     /tmp/cc8IgIp2.s:71447  .debug_str:0000000000001e0a .LASF1685
     /tmp/cc8IgIp2.s:72851  .debug_str:0000000000005a7d .LASF1686
     /tmp/cc8IgIp2.s:73451  .debug_str:000000000000742f .LASF1687
     /tmp/cc8IgIp2.s:75669  .debug_str:000000000000d31b .LASF1688
     /tmp/cc8IgIp2.s:75239  .debug_str:000000000000bebe .LASF1689
     /tmp/cc8IgIp2.s:71977  .debug_str:00000000000035ff .LASF1690
     /tmp/cc8IgIp2.s:73931  .debug_str:0000000000008a80 .LASF1691
     /tmp/cc8IgIp2.s:73781  .debug_str:00000000000083f5 .LASF1692
     /tmp/cc8IgIp2.s:73693  .debug_str:0000000000007fbf .LASF1693
     /tmp/cc8IgIp2.s:73039  .debug_str:00000000000061b6 .LASF1694
     /tmp/cc8IgIp2.s:74535  .debug_str:000000000000a474 .LASF1695
     /tmp/cc8IgIp2.s:73839  .debug_str:000000000000865d .LASF1696
     /tmp/cc8IgIp2.s:73175  .debug_str:000000000000685d .LASF1697
     /tmp/cc8IgIp2.s:76147  .debug_str:000000000000e97e .LASF1698
     /tmp/cc8IgIp2.s:75059  .debug_str:000000000000b7a3 .LASF1699
     /tmp/cc8IgIp2.s:71927  .debug_str:000000000000341d .LASF1700
     /tmp/cc8IgIp2.s:77929  .debug_str:0000000000013589 .LASF1701
     /tmp/cc8IgIp2.s:74083  .debug_str:00000000000090f0 .LASF1702
     /tmp/cc8IgIp2.s:73677  .debug_str:0000000000007f40 .LASF1703
     /tmp/cc8IgIp2.s:76891  .debug_str:00000000000109bd .LASF1704
     /tmp/cc8IgIp2.s:75671  .debug_str:000000000000d324 .LASF1705
     /tmp/cc8IgIp2.s:70993  .debug_str:0000000000000bf0 .LASF1706
     /tmp/cc8IgIp2.s:75475  .debug_str:000000000000c9be .LASF1707
     /tmp/cc8IgIp2.s:70989  .debug_str:0000000000000bc8 .LASF1708
     /tmp/cc8IgIp2.s:77541  .debug_str:000000000001248f .LASF1709
     /tmp/cc8IgIp2.s:73049  .debug_str:0000000000006235 .LASF1710
     /tmp/cc8IgIp2.s:75147  .debug_str:000000000000bac1 .LASF1711
     /tmp/cc8IgIp2.s:70961  .debug_str:0000000000000a5d .LASF1712
     /tmp/cc8IgIp2.s:72129  .debug_str:0000000000003c81 .LASF1713
     /tmp/cc8IgIp2.s:75011  .debug_str:000000000000b62a .LASF1714
     /tmp/cc8IgIp2.s:73873  .debug_str:0000000000008853 .LASF1715
     /tmp/cc8IgIp2.s:76911  .debug_str:0000000000010a72 .LASF1716
     /tmp/cc8IgIp2.s:74969  .debug_str:000000000000b483 .LASF1717
     /tmp/cc8IgIp2.s:73281  .debug_str:0000000000006cf1 .LASF1718
     /tmp/cc8IgIp2.s:75449  .debug_str:000000000000c88c .LASF1719
     /tmp/cc8IgIp2.s:72011  .debug_str:00000000000037fc .LASF1720
     /tmp/cc8IgIp2.s:73769  .debug_str:000000000000839f .LASF1721
     /tmp/cc8IgIp2.s:71889  .debug_str:0000000000003247 .LASF1722
     /tmp/cc8IgIp2.s:71317  .debug_str:0000000000001844 .LASF1723
     /tmp/cc8IgIp2.s:72291  .debug_str:00000000000044a7 .LASF1724
     /tmp/cc8IgIp2.s:71587  .debug_str:0000000000002422 .LASF1725
     /tmp/cc8IgIp2.s:77281  .debug_str:00000000000119a3 .LASF1726
     /tmp/cc8IgIp2.s:75957  .debug_str:000000000000e0a2 .LASF1727
     /tmp/cc8IgIp2.s:73611  .debug_str:0000000000007c18 .LASF1728
     /tmp/cc8IgIp2.s:75073  .debug_str:000000000000b84a .LASF1729
     /tmp/cc8IgIp2.s:70871  .debug_str:0000000000000723 .LASF1730
     /tmp/cc8IgIp2.s:74811  .debug_str:000000000000aece .LASF1731
     /tmp/cc8IgIp2.s:71621  .debug_str:00000000000025c1 .LASF1732
     /tmp/cc8IgIp2.s:76089  .debug_str:000000000000e67c .LASF1733
     /tmp/cc8IgIp2.s:75511  .debug_str:000000000000cb63 .LASF1734
     /tmp/cc8IgIp2.s:74859  .debug_str:000000000000b05b .LASF1735
     /tmp/cc8IgIp2.s:74173  .debug_str:000000000000949c .LASF1736
     /tmp/cc8IgIp2.s:72193  .debug_str:0000000000003fac .LASF1737
     /tmp/cc8IgIp2.s:78095  .debug_str:0000000000013d64 .LASF1738
     /tmp/cc8IgIp2.s:71231  .debug_str:0000000000001539 .LASF1739
     /tmp/cc8IgIp2.s:75727  .debug_str:000000000000d617 .LASF1740
     /tmp/cc8IgIp2.s:78033  .debug_str:0000000000013aaf .LASF1741
     /tmp/cc8IgIp2.s:77307  .debug_str:0000000000011a9b .LASF1742
     /tmp/cc8IgIp2.s:73353  .debug_str:0000000000007050 .LASF1743
     /tmp/cc8IgIp2.s:73705  .debug_str:00000000000080e9 .LASF1744
     /tmp/cc8IgIp2.s:75201  .debug_str:000000000000bd67 .LASF1745
     /tmp/cc8IgIp2.s:77509  .debug_str:0000000000012322 .LASF1746
     /tmp/cc8IgIp2.s:77283  .debug_str:00000000000119bd .LASF1747
     /tmp/cc8IgIp2.s:72583  .debug_str:00000000000050de .LASF1748
     /tmp/cc8IgIp2.s:75309  .debug_str:000000000000c200 .LASF1749
     /tmp/cc8IgIp2.s:73585  .debug_str:0000000000007a7c .LASF1750
     /tmp/cc8IgIp2.s:74817  .debug_str:000000000000af41 .LASF1751
     /tmp/cc8IgIp2.s:75185  .debug_str:000000000000bc87 .LASF1752
     /tmp/cc8IgIp2.s:74545  .debug_str:000000000000a4c4 .LASF1753
     /tmp/cc8IgIp2.s:72009  .debug_str:00000000000037f2 .LASF1754
     /tmp/cc8IgIp2.s:72867  .debug_str:0000000000005b19 .LASF1755
     /tmp/cc8IgIp2.s:76085  .debug_str:000000000000e649 .LASF1756
     /tmp/cc8IgIp2.s:74373  .debug_str:0000000000009da5 .LASF1757
     /tmp/cc8IgIp2.s:70843  .debug_str:00000000000005d4 .LASF1758
     /tmp/cc8IgIp2.s:71845  .debug_str:0000000000003054 .LASF1759
     /tmp/cc8IgIp2.s:75037  .debug_str:000000000000b6b6 .LASF1760
     /tmp/cc8IgIp2.s:72021  .debug_str:0000000000003860 .LASF1761
     /tmp/cc8IgIp2.s:72023  .debug_str:000000000000386e .LASF1762
     /tmp/cc8IgIp2.s:72025  .debug_str:000000000000387c .LASF1763
     /tmp/cc8IgIp2.s:77311  .debug_str:0000000000011ab2 .LASF1764
     /tmp/cc8IgIp2.s:72029  .debug_str:0000000000003895 .LASF1765
     /tmp/cc8IgIp2.s:72031  .debug_str:00000000000038a3 .LASF1766
     /tmp/cc8IgIp2.s:72033  .debug_str:00000000000038b1 .LASF1767
     /tmp/cc8IgIp2.s:72035  .debug_str:00000000000038bf .LASF1768
     /tmp/cc8IgIp2.s:72037  .debug_str:00000000000038cd .LASF1769
     /tmp/cc8IgIp2.s:77493  .debug_str:0000000000012259 .LASF1770
     /tmp/cc8IgIp2.s:76851  .debug_str:00000000000107f3 .LASF1771
     /tmp/cc8IgIp2.s:73397  .debug_str:000000000000724f .LASF1772
     /tmp/cc8IgIp2.s:76081  .debug_str:000000000000e616 .LASF1773
     /tmp/cc8IgIp2.s:74823  .debug_str:000000000000af72 .LASF1774
     /tmp/cc8IgIp2.s:78009  .debug_str:00000000000139a1 .LASF1775
     /tmp/cc8IgIp2.s:78073  .debug_str:0000000000013c7b .LASF1776
     /tmp/cc8IgIp2.s:75911  .debug_str:000000000000de71 .LASF1777
     /tmp/cc8IgIp2.s:74869  .debug_str:000000000000b0d1 .LASF1778
     /tmp/cc8IgIp2.s:72617  .debug_str:0000000000005230 .LASF1779
     /tmp/cc8IgIp2.s:78173  .debug_str:0000000000014001 .LASF1780
     /tmp/cc8IgIp2.s:77211  .debug_str:00000000000116c0 .LASF1781
     /tmp/cc8IgIp2.s:76923  .debug_str:0000000000010b1a .LASF1782
     /tmp/cc8IgIp2.s:74113  .debug_str:000000000000929e .LASF1783
     /tmp/cc8IgIp2.s:73491  .debug_str:00000000000075cd .LASF1784
     /tmp/cc8IgIp2.s:74665  .debug_str:000000000000a939 .LASF1785
     /tmp/cc8IgIp2.s:75227  .debug_str:000000000000be48 .LASF1786
     /tmp/cc8IgIp2.s:71699  .debug_str:000000000000298b .LASF1787
     /tmp/cc8IgIp2.s:71385  .debug_str:0000000000001b6b .LASF1788
     /tmp/cc8IgIp2.s:75267  .debug_str:000000000000bff0 .LASF1789
     /tmp/cc8IgIp2.s:76271  .debug_str:000000000000ee85 .LASF1790
     /tmp/cc8IgIp2.s:74533  .debug_str:000000000000a44d .LASF1791
     /tmp/cc8IgIp2.s:76973  .debug_str:0000000000010ddb .LASF1792
     /tmp/cc8IgIp2.s:76389  .debug_str:000000000000f3a5 .LASF1793
     /tmp/cc8IgIp2.s:75465  .debug_str:000000000000c93a .LASF1794
     /tmp/cc8IgIp2.s:77395  .debug_str:0000000000011e25 .LASF1795
     /tmp/cc8IgIp2.s:73613  .debug_str:0000000000007c31 .LASF1796
     /tmp/cc8IgIp2.s:70799  .debug_str:0000000000000403 .LASF1797
     /tmp/cc8IgIp2.s:76977  .debug_str:0000000000010e15 .LASF1798
     /tmp/cc8IgIp2.s:73615  .debug_str:0000000000007c43 .LASF1799
     /tmp/cc8IgIp2.s:73959  .debug_str:0000000000008bd0 .LASF1800
     /tmp/cc8IgIp2.s:76979  .debug_str:0000000000010e27 .LASF1801
     /tmp/cc8IgIp2.s:76395  .debug_str:000000000000f3da .LASF1802
     /tmp/cc8IgIp2.s:77019  .debug_str:0000000000010fff .LASF1803
     /tmp/cc8IgIp2.s:71219  .debug_str:00000000000014b1 .LASF1804
     /tmp/cc8IgIp2.s:77799  .debug_str:0000000000012fc7 .LASF1805
     /tmp/cc8IgIp2.s:75237  .debug_str:000000000000be98 .LASF1806
     /tmp/cc8IgIp2.s:73801  .debug_str:00000000000084f2 .LASF1807
     /tmp/cc8IgIp2.s:77945  .debug_str:0000000000013622 .LASF1808
     /tmp/cc8IgIp2.s:76045  .debug_str:000000000000e454 .LASF1809
     /tmp/cc8IgIp2.s:73803  .debug_str:0000000000008504 .LASF1810
     /tmp/cc8IgIp2.s:77947  .debug_str:0000000000013634 .LASF1811
     /tmp/cc8IgIp2.s:73391  .debug_str:0000000000007210 .LASF1812
     /tmp/cc8IgIp2.s:78103  .debug_str:0000000000013dbb .LASF1813
     /tmp/cc8IgIp2.s:77353  .debug_str:0000000000011c8f .LASF1814
     /tmp/cc8IgIp2.s:72979  .debug_str:0000000000005f42 .LASF1815
     /tmp/cc8IgIp2.s:74919  .debug_str:000000000000b287 .LASF1816
     /tmp/cc8IgIp2.s:76551  .debug_str:000000000000fa90 .LASF1817
     /tmp/cc8IgIp2.s:73845  .debug_str:00000000000086b9 .LASF1818
     /tmp/cc8IgIp2.s:75419  .debug_str:000000000000c75c .LASF1819
     /tmp/cc8IgIp2.s:75775  .debug_str:000000000000d8c8 .LASF1820
     /tmp/cc8IgIp2.s:75813  .debug_str:000000000000da08 .LASF1821
     /tmp/cc8IgIp2.s:74509  .debug_str:000000000000a31b .LASF1822
     /tmp/cc8IgIp2.s:71063  .debug_str:0000000000000eb1 .LASF1823
     /tmp/cc8IgIp2.s:74499  .debug_str:000000000000a2a1 .LASF1824
     /tmp/cc8IgIp2.s:73983  .debug_str:0000000000008d0e .LASF1825
     /tmp/cc8IgIp2.s:73321  .debug_str:0000000000006ed2 .LASF1826
     /tmp/cc8IgIp2.s:71599  .debug_str:00000000000024b8 .LASF1827
     /tmp/cc8IgIp2.s:74417  .debug_str:0000000000009f03 .LASF1828
     /tmp/cc8IgIp2.s:77845  .debug_str:00000000000131bd .LASF1829
     /tmp/cc8IgIp2.s:74761  .debug_str:000000000000ace9 .LASF1830
     /tmp/cc8IgIp2.s:74423  .debug_str:0000000000009f41 .LASF1831
     /tmp/cc8IgIp2.s:77835  .debug_str:0000000000013157 .LASF1832
     /tmp/cc8IgIp2.s:76647  .debug_str:000000000000fed3 .LASF1833
     /tmp/cc8IgIp2.s:76485  .debug_str:000000000000f83c .LASF1834
     /tmp/cc8IgIp2.s:72321  .debug_str:00000000000045cf .LASF1835
     /tmp/cc8IgIp2.s:73327  .debug_str:0000000000006f0c .LASF1836
     /tmp/cc8IgIp2.s:74503  .debug_str:000000000000a2d3 .LASF1837
     /tmp/cc8IgIp2.s:76981  .debug_str:0000000000010e39 .LASF1838
     /tmp/cc8IgIp2.s:74145  .debug_str:0000000000009390 .LASF1839
     /tmp/cc8IgIp2.s:74195  .debug_str:0000000000009564 .LASF1840
     /tmp/cc8IgIp2.s:74647  .debug_str:000000000000a83c .LASF1841
     /tmp/cc8IgIp2.s:73043  .debug_str:00000000000061d7 .LASF1842
     /tmp/cc8IgIp2.s:72101  .debug_str:0000000000003b5d .LASF1843
     /tmp/cc8IgIp2.s:77987  .debug_str:0000000000013844 .LASF1844
     /tmp/cc8IgIp2.s:76709  .debug_str:0000000000010199 .LASF1845
     /tmp/cc8IgIp2.s:71935  .debug_str:0000000000003476 .LASF1846
     /tmp/cc8IgIp2.s:72873  .debug_str:0000000000005b5d .LASF1847
     /tmp/cc8IgIp2.s:73001  .debug_str:0000000000006065 .LASF1848
     /tmp/cc8IgIp2.s:76161  .debug_str:000000000000e9e7 .LASF1849
     /tmp/cc8IgIp2.s:73035  .debug_str:0000000000006182 .LASF1850
     /tmp/cc8IgIp2.s:76247  .debug_str:000000000000ed4c .LASF1851
     /tmp/cc8IgIp2.s:78055  .debug_str:0000000000013bc3 .LASF1852
     /tmp/cc8IgIp2.s:73161  .debug_str:00000000000067b9 .LASF1853
     /tmp/cc8IgIp2.s:74729  .debug_str:000000000000ab7c .LASF1854
     /tmp/cc8IgIp2.s:74325  .debug_str:0000000000009b23 .LASF1855
     /tmp/cc8IgIp2.s:72927  .debug_str:0000000000005d3b .LASF1856
     /tmp/cc8IgIp2.s:76483  .debug_str:000000000000f814 .LASF1857
     /tmp/cc8IgIp2.s:77083  .debug_str:0000000000011220 .LASF1858
     /tmp/cc8IgIp2.s:71549  .debug_str:0000000000002259 .LASF1859
     /tmp/cc8IgIp2.s:72581  .debug_str:00000000000050b4 .LASF1860
     /tmp/cc8IgIp2.s:76193  .debug_str:000000000000eb32 .LASF1861
     /tmp/cc8IgIp2.s:77707  .debug_str:0000000000012bc2 .LASF1862
     /tmp/cc8IgIp2.s:72729  .debug_str:0000000000005668 .LASF1863
     /tmp/cc8IgIp2.s:71367  .debug_str:0000000000001aa2 .LASF1864
     /tmp/cc8IgIp2.s:73153  .debug_str:000000000000676e .LASF1865
     /tmp/cc8IgIp2.s:72191  .debug_str:0000000000003f80 .LASF1866
     /tmp/cc8IgIp2.s:72397  .debug_str:0000000000004934 .LASF1867
     /tmp/cc8IgIp2.s:78261  .debug_str:000000000001440b .LASF1868
     /tmp/cc8IgIp2.s:72935  .debug_str:0000000000005dae .LASF1869
     /tmp/cc8IgIp2.s:76753  .debug_str:00000000000103e5 .LASF1870
     /tmp/cc8IgIp2.s:76741  .debug_str:000000000001035d .LASF1871
     /tmp/cc8IgIp2.s:71743  .debug_str:0000000000002bdf .LASF1872
     /tmp/cc8IgIp2.s:71715  .debug_str:0000000000002aa2 .LASF1873
     /tmp/cc8IgIp2.s:70841  .debug_str:00000000000005c4 .LASF1874
     /tmp/cc8IgIp2.s:77593  .debug_str:00000000000126f3 .LASF1875
     /tmp/cc8IgIp2.s:75069  .debug_str:000000000000b82a .LASF1876
     /tmp/cc8IgIp2.s:76861  .debug_str:0000000000010873 .LASF1877
     /tmp/cc8IgIp2.s:76967  .debug_str:0000000000010d8a .LASF1878
     /tmp/cc8IgIp2.s:77567  .debug_str:000000000001259e .LASF1879
     /tmp/cc8IgIp2.s:73625  .debug_str:0000000000007cc3 .LASF1880
     /tmp/cc8IgIp2.s:73519  .debug_str:000000000000774b .LASF1881
     /tmp/cc8IgIp2.s:73259  .debug_str:0000000000006bc3 .LASF1882
     /tmp/cc8IgIp2.s:77605  .debug_str:0000000000012773 .LASF1883
     /tmp/cc8IgIp2.s:77969  .debug_str:0000000000013772 .LASF1884
     /tmp/cc8IgIp2.s:76607  .debug_str:000000000000fd1d .LASF1885
     /tmp/cc8IgIp2.s:75401  .debug_str:000000000000c64d .LASF1886
     /tmp/cc8IgIp2.s:77591  .debug_str:00000000000126c5 .LASF1887
     /tmp/cc8IgIp2.s:74201  .debug_str:00000000000095ac .LASF1888
     /tmp/cc8IgIp2.s:77689  .debug_str:0000000000012ae5 .LASF1889
     /tmp/cc8IgIp2.s:75999  .debug_str:000000000000e252 .LASF1890
     /tmp/cc8IgIp2.s:72525  .debug_str:0000000000004e84 .LASF1891
     /tmp/cc8IgIp2.s:74287  .debug_str:0000000000009974 .LASF1892
     /tmp/cc8IgIp2.s:71719  .debug_str:0000000000002adc .LASF1893
     /tmp/cc8IgIp2.s:75271  .debug_str:000000000000c01b .LASF1894
     /tmp/cc8IgIp2.s:77253  .debug_str:0000000000011907 .LASF1895
     /tmp/cc8IgIp2.s:72805  .debug_str:000000000000592a .LASF1896
     /tmp/cc8IgIp2.s:72307  .debug_str:000000000000456b .LASF1897
     /tmp/cc8IgIp2.s:73679  .debug_str:0000000000007f50 .LASF1898
     /tmp/cc8IgIp2.s:77177  .debug_str:00000000000115c0 .LASF1899
     /tmp/cc8IgIp2.s:77801  .debug_str:0000000000012fd9 .LASF1900
     /tmp/cc8IgIp2.s:74183  .debug_str:00000000000094f5 .LASF1901
     /tmp/cc8IgIp2.s:71685  .debug_str:000000000000289e .LASF1902
     /tmp/cc8IgIp2.s:73689  .debug_str:0000000000007fa6 .LASF1903
     /tmp/cc8IgIp2.s:76337  .debug_str:000000000000f172 .LASF1904
     /tmp/cc8IgIp2.s:75779  .debug_str:000000000000d8eb .LASF1905
     /tmp/cc8IgIp2.s:76401  .debug_str:000000000000f41c .LASF1906
     /tmp/cc8IgIp2.s:76087  .debug_str:000000000000e66e .LASF1907
     /tmp/cc8IgIp2.s:78169  .debug_str:0000000000013fd9 .LASF1908
     /tmp/cc8IgIp2.s:71821  .debug_str:0000000000002f24 .LASF1909
     /tmp/cc8IgIp2.s:76131  .debug_str:000000000000e8d3 .LASF1910
     /tmp/cc8IgIp2.s:78035  .debug_str:0000000000013abc .LASF1911
     /tmp/cc8IgIp2.s:74753  .debug_str:000000000000ac91 .LASF1912
     /tmp/cc8IgIp2.s:77977  .debug_str:0000000000013802 .LASF1913
     /tmp/cc8IgIp2.s:72389  .debug_str:00000000000048a6 .LASF1914
     /tmp/cc8IgIp2.s:75005  .debug_str:000000000000b601 .LASF1915
     /tmp/cc8IgIp2.s:71875  .debug_str:00000000000031b9 .LASF1916
     /tmp/cc8IgIp2.s:72139  .debug_str:0000000000003ceb .LASF1917
     /tmp/cc8IgIp2.s:73071  .debug_str:0000000000006351 .LASF1918
     /tmp/cc8IgIp2.s:77869  .debug_str:00000000000132df .LASF1919
     /tmp/cc8IgIp2.s:71223  .debug_str:00000000000014d0 .LASF1920
     /tmp/cc8IgIp2.s:73443  .debug_str:00000000000073ab .LASF1921
     /tmp/cc8IgIp2.s:77555  .debug_str:0000000000012509 .LASF1922
     /tmp/cc8IgIp2.s:71093  .debug_str:0000000000000fa6 .LASF1923
     /tmp/cc8IgIp2.s:77501  .debug_str:00000000000122ca .LASF1924
     /tmp/cc8IgIp2.s:74363  .debug_str:0000000000009d45 .LASF1925
     /tmp/cc8IgIp2.s:73727  .debug_str:000000000000819b .LASF1926
     /tmp/cc8IgIp2.s:70889  .debug_str:00000000000007e8 .LASF1927
     /tmp/cc8IgIp2.s:74375  .debug_str:0000000000009daf .LASF1928
     /tmp/cc8IgIp2.s:74223  .debug_str:000000000000968b .LASF1929
     /tmp/cc8IgIp2.s:70881  .debug_str:0000000000000796 .LASF1930
     /tmp/cc8IgIp2.s:75385  .debug_str:000000000000c5d2 .LASF1931
     /tmp/cc8IgIp2.s:75417  .debug_str:000000000000c73e .LASF1932
     /tmp/cc8IgIp2.s:70849  .debug_str:0000000000000613 .LASF1933
     /tmp/cc8IgIp2.s:77145  .debug_str:000000000001144e .LASF1934
     /tmp/cc8IgIp2.s:71305  .debug_str:00000000000017e1 .LASF1935
     /tmp/cc8IgIp2.s:70967  .debug_str:0000000000000ac5 .LASF1936
     /tmp/cc8IgIp2.s:75195  .debug_str:000000000000bd16 .LASF1937
     /tmp/cc8IgIp2.s:74473  .debug_str:000000000000a1c8 .LASF1938
     /tmp/cc8IgIp2.s:75865  .debug_str:000000000000dc50 .LASF1939
     /tmp/cc8IgIp2.s:78133  .debug_str:0000000000013ecf .LASF1940
     /tmp/cc8IgIp2.s:74225  .debug_str:00000000000096a9 .LASF1941
     /tmp/cc8IgIp2.s:71611  .debug_str:0000000000002566 .LASF1942
     /tmp/cc8IgIp2.s:75135  .debug_str:000000000000ba52 .LASF1943
     /tmp/cc8IgIp2.s:76057  .debug_str:000000000000e506 .LASF1944
     /tmp/cc8IgIp2.s:71609  .debug_str:000000000000255c .LASF1945
     /tmp/cc8IgIp2.s:77027  .debug_str:0000000000011068 .LASF1946
     /tmp/cc8IgIp2.s:77163  .debug_str:000000000001150c .LASF1947
     /tmp/cc8IgIp2.s:77331  .debug_str:0000000000011b7d .LASF1948
     /tmp/cc8IgIp2.s:74157  .debug_str:0000000000009415 .LASF1949
     /tmp/cc8IgIp2.s:77681  .debug_str:0000000000012a8b .LASF1950
     /tmp/cc8IgIp2.s:78241  .debug_str:000000000001435a .LASF1951
     /tmp/cc8IgIp2.s:74151  .debug_str:00000000000093eb .LASF1952
     /tmp/cc8IgIp2.s:75521  .debug_str:000000000000cc13 .LASF1953
     /tmp/cc8IgIp2.s:74203  .debug_str:00000000000095bd .LASF1954
     /tmp/cc8IgIp2.s:76257  .debug_str:000000000000edc3 .LASF1955
     /tmp/cc8IgIp2.s:75927  .debug_str:000000000000df3a .LASF1956
     /tmp/cc8IgIp2.s:73215  .debug_str:00000000000069ff .LASF1957
     /tmp/cc8IgIp2.s:76277  .debug_str:000000000000eec8 .LASF1958
     /tmp/cc8IgIp2.s:71825  .debug_str:0000000000002f50 .LASF1959
     /tmp/cc8IgIp2.s:71413  .debug_str:0000000000001c99 .LASF1960
     /tmp/cc8IgIp2.s:70791  .debug_str:0000000000000394 .LASF1961
     /tmp/cc8IgIp2.s:73937  .debug_str:0000000000008ae5 .LASF1962
     /tmp/cc8IgIp2.s:76627  .debug_str:000000000000fe1d .LASF1963
     /tmp/cc8IgIp2.s:77787  .debug_str:0000000000012f63 .LASF1964
     /tmp/cc8IgIp2.s:78001  .debug_str:0000000000013950 .LASF1965
     /tmp/cc8IgIp2.s:76629  .debug_str:000000000000fe26 .LASF1966
     /tmp/cc8IgIp2.s:77789  .debug_str:0000000000012f6c .LASF1967
     /tmp/cc8IgIp2.s:73561  .debug_str:0000000000007959 .LASF1968
     /tmp/cc8IgIp2.s:76633  .debug_str:000000000000fe3c .LASF1969
     /tmp/cc8IgIp2.s:71523  .debug_str:000000000000210c .LASF1970
     /tmp/cc8IgIp2.s:72075  .debug_str:0000000000003a6a .LASF1971
     /tmp/cc8IgIp2.s:77739  .debug_str:0000000000012d72 .LASF1972
     /tmp/cc8IgIp2.s:73297  .debug_str:0000000000006d8f .LASF1973
     /tmp/cc8IgIp2.s:74005  .debug_str:0000000000008dac .LASF1974
     /tmp/cc8IgIp2.s:73813  .debug_str:000000000000857b .LASF1975
     /tmp/cc8IgIp2.s:76273  .debug_str:000000000000ee98 .LASF1976
     /tmp/cc8IgIp2.s:74809  .debug_str:000000000000aea2 .LASF1977
     /tmp/cc8IgIp2.s:75215  .debug_str:000000000000bdcd .LASF1978
     /tmp/cc8IgIp2.s:76275  .debug_str:000000000000eeb0 .LASF1979
     /tmp/cc8IgIp2.s:77157  .debug_str:00000000000114bb .LASF1980
     /tmp/cc8IgIp2.s:71635  .debug_str:0000000000002652 .LASF1981
     /tmp/cc8IgIp2.s:77755  .debug_str:0000000000012e2e .LASF1982
     /tmp/cc8IgIp2.s:76415  .debug_str:000000000000f4fd .LASF1983
     /tmp/cc8IgIp2.s:71637  .debug_str:000000000000266a .LASF1984
     /tmp/cc8IgIp2.s:77759  .debug_str:0000000000012e57 .LASF1985
     /tmp/cc8IgIp2.s:71857  .debug_str:00000000000030af .LASF1986
     /tmp/cc8IgIp2.s:75853  .debug_str:000000000000dbf0 .LASF1987
     /tmp/cc8IgIp2.s:76961  .debug_str:0000000000010d47 .LASF1988
     /tmp/cc8IgIp2.s:75683  .debug_str:000000000000d3ce .LASF1989
     /tmp/cc8IgIp2.s:75387  .debug_str:000000000000c5dc .LASF1990
     /tmp/cc8IgIp2.s:76963  .debug_str:0000000000010d5f .LASF1991
     /tmp/cc8IgIp2.s:71709  .debug_str:0000000000002a1e .LASF1992
     /tmp/cc8IgIp2.s:76019  .debug_str:000000000000e332 .LASF1993
     /tmp/cc8IgIp2.s:73563  .debug_str:0000000000007976 .LASF1994
     /tmp/cc8IgIp2.s:73495  .debug_str:00000000000075ff .LASF1995
     /tmp/cc8IgIp2.s:72309  .debug_str:0000000000004581 .LASF1996
     /tmp/cc8IgIp2.s:73565  .debug_str:000000000000798e .LASF1997
     /tmp/cc8IgIp2.s:76581  .debug_str:000000000000fbc2 .LASF1998
     /tmp/cc8IgIp2.s:76553  .debug_str:000000000000faa1 .LASF1999
     /tmp/cc8IgIp2.s:77679  .debug_str:0000000000012a73 .LASF2000
     /tmp/cc8IgIp2.s:76847  .debug_str:00000000000107a6 .LASF2001
     /tmp/cc8IgIp2.s:76731  .debug_str:00000000000102e3 .LASF2002
     /tmp/cc8IgIp2.s:72301  .debug_str:0000000000004519 .LASF2003
     /tmp/cc8IgIp2.s:71333  .debug_str:0000000000001908 .LASF2004
     /tmp/cc8IgIp2.s:73113  .debug_str:000000000000654a .LASF2005
     /tmp/cc8IgIp2.s:74329  .debug_str:0000000000009b57 .LASF2006
     /tmp/cc8IgIp2.s:73599  .debug_str:0000000000007b48 .LASF2007
     /tmp/cc8IgIp2.s:73115  .debug_str:0000000000006562 .LASF2008
     /tmp/cc8IgIp2.s:74331  .debug_str:0000000000009b6f .LASF2009
     /tmp/cc8IgIp2.s:73635  .debug_str:0000000000007d41 .LASF2010
     /tmp/cc8IgIp2.s:77275  .debug_str:0000000000011967 .LASF2011
     /tmp/cc8IgIp2.s:73851  .debug_str:0000000000008721 .LASF2012
     /tmp/cc8IgIp2.s:71041  .debug_str:0000000000000d47 .LASF2013
     /tmp/cc8IgIp2.s:71479  .debug_str:0000000000001f58 .LASF2014
     /tmp/cc8IgIp2.s:70793  .debug_str:00000000000003a2 .LASF2015
     /tmp/cc8IgIp2.s:76055  .debug_str:000000000000e4da .LASF2016
     /tmp/cc8IgIp2.s:71325  .debug_str:0000000000001897 .LASF2017
     /tmp/cc8IgIp2.s:75125  .debug_str:000000000000b9e9 .LASF2018
     /tmp/cc8IgIp2.s:75367  .debug_str:000000000000c4b7 .LASF2019
     /tmp/cc8IgIp2.s:73869  .debug_str:000000000000882e .LASF2020
     /tmp/cc8IgIp2.s:75127  .debug_str:000000000000ba01 .LASF2021
     /tmp/cc8IgIp2.s:78267  .debug_str:0000000000014455 .LASF2022
     /tmp/cc8IgIp2.s:77973  .debug_str:00000000000137d2 .LASF2023
     /tmp/cc8IgIp2.s:71561  .debug_str:00000000000022d6 .LASF2024
     /tmp/cc8IgIp2.s:77513  .debug_str:0000000000012353 .LASF2025
     /tmp/cc8IgIp2.s:77975  .debug_str:00000000000137ea .LASF2026
     /tmp/cc8IgIp2.s:71563  .debug_str:00000000000022ee .LASF2027
     /tmp/cc8IgIp2.s:73051  .debug_str:0000000000006251 .LASF2028
     /tmp/cc8IgIp2.s:74663  .debug_str:000000000000a921 .LASF2029
     /tmp/cc8IgIp2.s:75771  .debug_str:000000000000d898 .LASF2030
     /tmp/cc8IgIp2.s:72229  .debug_str:0000000000004134 .LASF2031
     /tmp/cc8IgIp2.s:72781  .debug_str:000000000000582f .LASF2032
     /tmp/cc8IgIp2.s:75773  .debug_str:000000000000d8b0 .LASF2033
     /tmp/cc8IgIp2.s:75499  .debug_str:000000000000cabd .LASF2034
     /tmp/cc8IgIp2.s:75223  .debug_str:000000000000be16 .LASF2035
     /tmp/cc8IgIp2.s:73499  .debug_str:0000000000007643 .LASF2036
     /tmp/cc8IgIp2.s:76689  .debug_str:000000000001009e .LASF2037
     /tmp/cc8IgIp2.s:75225  .debug_str:000000000000be2f .LASF2038
     /tmp/cc8IgIp2.s:73501  .debug_str:000000000000765c .LASF2039
     /tmp/cc8IgIp2.s:72117  .debug_str:0000000000003be9 .LASF2040
     /tmp/cc8IgIp2.s:71643  .debug_str:00000000000026cc .LASF2041
     /tmp/cc8IgIp2.s:77621  .debug_str:00000000000127c3 .LASF2042
     /tmp/cc8IgIp2.s:75769  .debug_str:000000000000d86b .LASF2043
     /tmp/cc8IgIp2.s:71645  .debug_str:00000000000026e5 .LASF2044
     /tmp/cc8IgIp2.s:72613  .debug_str:00000000000051fc .LASF2045
     /tmp/cc8IgIp2.s:74607  .debug_str:000000000000a6d9 .LASF2046
     /tmp/cc8IgIp2.s:75867  .debug_str:000000000000dc65 .LASF2047
     /tmp/cc8IgIp2.s:71729  .debug_str:0000000000002b35 .LASF2048
     /tmp/cc8IgIp2.s:73809  .debug_str:0000000000008549 .LASF2049
     /tmp/cc8IgIp2.s:75869  .debug_str:000000000000dc7e .LASF2050
     /tmp/cc8IgIp2.s:73411  .debug_str:00000000000072e5 .LASF2051
     /tmp/cc8IgIp2.s:76877  .debug_str:0000000000010924 .LASF2052
     /tmp/cc8IgIp2.s:72329  .debug_str:0000000000004610 .LASF2053
     /tmp/cc8IgIp2.s:70739  .debug_str:0000000000000112 .LASF2054
     /tmp/cc8IgIp2.s:76123  .debug_str:000000000000e854 .LASF2055
     /tmp/cc8IgIp2.s:72331  .debug_str:0000000000004629 .LASF2056
     /tmp/cc8IgIp2.s:77461  .debug_str:00000000000120fa .LASF2057
     /tmp/cc8IgIp2.s:71577  .debug_str:00000000000023a5 .LASF2058
     /tmp/cc8IgIp2.s:76575  .debug_str:000000000000fb89 .LASF2059
     /tmp/cc8IgIp2.s:75041  .debug_str:000000000000b6cb .LASF2060
     /tmp/cc8IgIp2.s:70797  .debug_str:00000000000003d6 .LASF2061
     /tmp/cc8IgIp2.s:76577  .debug_str:000000000000fba2 .LASF2062
     /tmp/cc8IgIp2.s:75043  .debug_str:000000000000b6e4 .LASF2063
     /tmp/cc8IgIp2.s:73955  .debug_str:0000000000008b93 .LASF2064
     /tmp/cc8IgIp2.s:73135  .debug_str:0000000000006653 .LASF2065
     /tmp/cc8IgIp2.s:71491  .debug_str:0000000000001fc0 .LASF2066
     /tmp/cc8IgIp2.s:73213  .debug_str:00000000000069d2 .LASF2067
     /tmp/cc8IgIp2.s:76509  .debug_str:000000000000f918 .LASF2068
     /tmp/cc8IgIp2.s:71493  .debug_str:0000000000001fd9 .LASF2069
     /tmp/cc8IgIp2.s:76321  .debug_str:000000000000f0a3 .LASF2070
     /tmp/cc8IgIp2.s:70915  .debug_str:00000000000008ff .LASF2071
     /tmp/cc8IgIp2.s:74357  .debug_str:0000000000009cda .LASF2072
     /tmp/cc8IgIp2.s:71157  .debug_str:000000000000125b .LASF2073
     /tmp/cc8IgIp2.s:76817  .debug_str:00000000000106ad .LASF2074
     /tmp/cc8IgIp2.s:72529  .debug_str:0000000000004ebc .LASF2075
     /tmp/cc8IgIp2.s:73909  .debug_str:000000000000898d .LASF2076
     /tmp/cc8IgIp2.s:76819  .debug_str:00000000000106ba .LASF2077
     /tmp/cc8IgIp2.s:72531  .debug_str:0000000000004ec9 .LASF2078
     /tmp/cc8IgIp2.s:76969  .debug_str:0000000000010dae .LASF2079
     /tmp/cc8IgIp2.s:76823  .debug_str:00000000000106d0 .LASF2080
     /tmp/cc8IgIp2.s:72533  .debug_str:0000000000004ed6 .LASF2081
     /tmp/cc8IgIp2.s:71675  .debug_str:0000000000002830 .LASF2082
     /tmp/cc8IgIp2.s:73473  .debug_str:00000000000074fc .LASF2083
     /tmp/cc8IgIp2.s:75001  .debug_str:000000000000b5d4 .LASF2084
     /tmp/cc8IgIp2.s:70907  .debug_str:000000000000089d .LASF2085
     /tmp/cc8IgIp2.s:72277  .debug_str:00000000000043eb .LASF2086
     /tmp/cc8IgIp2.s:72151  .debug_str:0000000000003d7f .LASF2087
     /tmp/cc8IgIp2.s:77595  .debug_str:0000000000012717 .LASF2088
     /tmp/cc8IgIp2.s:72119  .debug_str:0000000000003c16 .LASF2089
     /tmp/cc8IgIp2.s:73881  .debug_str:0000000000008876 .LASF2090
     /tmp/cc8IgIp2.s:77693  .debug_str:0000000000012b05 .LASF2091
     /tmp/cc8IgIp2.s:76517  .debug_str:000000000000f991 .LASF2092
     /tmp/cc8IgIp2.s:72285  .debug_str:0000000000004461 .LASF2093
     /tmp/cc8IgIp2.s:77891  .debug_str:00000000000133b8 .LASF2094
     /tmp/cc8IgIp2.s:72623  .debug_str:000000000000526c .LASF2095
     /tmp/cc8IgIp2.s:77561  .debug_str:0000000000012541 .LASF2096
     /tmp/cc8IgIp2.s:71145  .debug_str:000000000000119a .LASF2097
     /tmp/cc8IgIp2.s:70959  .debug_str:0000000000000a4b .LASF2098
     /tmp/cc8IgIp2.s:73345  .debug_str:000000000000701a .LASF2099
     /tmp/cc8IgIp2.s:74975  .debug_str:000000000000b4c5 .LASF2100
     /tmp/cc8IgIp2.s:74727  .debug_str:000000000000ab66 .LASF2101
     /tmp/cc8IgIp2.s:71125  .debug_str:00000000000010a2 .LASF2102
     /tmp/cc8IgIp2.s:77439  .debug_str:0000000000011fd3 .LASF2103
     /tmp/cc8IgIp2.s:72921  .debug_str:0000000000005d00 .LASF2104
     /tmp/cc8IgIp2.s:75915  .debug_str:000000000000de92 .LASF2105
     /tmp/cc8IgIp2.s:70845  .debug_str:00000000000005df .LASF2106
     /tmp/cc8IgIp2.s:77805  .debug_str:000000000001300f .LASF2107
     /tmp/cc8IgIp2.s:72219  .debug_str:00000000000040de .LASF2108
     /tmp/cc8IgIp2.s:74995  .debug_str:000000000000b567 .LASF2109
     /tmp/cc8IgIp2.s:76439  .debug_str:000000000000f61d .LASF2110
     /tmp/cc8IgIp2.s:75165  .debug_str:000000000000bb97 .LASF2111
     /tmp/cc8IgIp2.s:74521  .debug_str:000000000000a3c0 .LASF2112
     /tmp/cc8IgIp2.s:76073  .debug_str:000000000000e5b6 .LASF2113
     /tmp/cc8IgIp2.s:72601  .debug_str:00000000000051c1 .LASF2114
     /tmp/cc8IgIp2.s:70745  .debug_str:000000000000015d .LASF2115
     /tmp/cc8IgIp2.s:71757  .debug_str:0000000000002c83 .LASF2116
     /tmp/cc8IgIp2.s:76867  .debug_str:00000000000108b0 .LASF2117
     /tmp/cc8IgIp2.s:70985  .debug_str:0000000000000b8e .LASF2118
     /tmp/cc8IgIp2.s:76631  .debug_str:000000000000fe2f .LASF2119
     /tmp/cc8IgIp2.s:72297  .debug_str:00000000000044fc .LASF2120
     /tmp/cc8IgIp2.s:76595  .debug_str:000000000000fc95 .LASF2121
     /tmp/cc8IgIp2.s:71867  .debug_str:0000000000003164 .LASF2122
     /tmp/cc8IgIp2.s:70733  .debug_str:00000000000000c9 .LASF2123
     /tmp/cc8IgIp2.s:76915  .debug_str:0000000000010aa3 .LASF2124
     /tmp/cc8IgIp2.s:72233  .debug_str:0000000000004180 .LASF2125
     /tmp/cc8IgIp2.s:74067  .debug_str:000000000000906e .LASF2126
     /tmp/cc8IgIp2.s:71267  .debug_str:0000000000001623 .LASF2127
     /tmp/cc8IgIp2.s:75039  .debug_str:000000000000b6c4 .LASF2128
     /tmp/cc8IgIp2.s:75311  .debug_str:000000000000c20a .LASF2129
     /tmp/cc8IgIp2.s:74081  .debug_str:00000000000090d5 .LASF2130
     /tmp/cc8IgIp2.s:78093  .debug_str:0000000000013d59 .LASF2131
     /tmp/cc8IgIp2.s:77365  .debug_str:0000000000011d11 .LASF2132
     /tmp/cc8IgIp2.s:75975  .debug_str:000000000000e153 .LASF2133
     /tmp/cc8IgIp2.s:74939  .debug_str:000000000000b3c1 .LASF2134
     /tmp/cc8IgIp2.s:77523  .debug_str:00000000000123cc .LASF2135
     /tmp/cc8IgIp2.s:73271  .debug_str:0000000000006c4d .LASF2136
     /tmp/cc8IgIp2.s:71287  .debug_str:00000000000016fd .LASF2137
     /tmp/cc8IgIp2.s:76297  .debug_str:000000000000ef58 .LASF2138
     /tmp/cc8IgIp2.s:74403  .debug_str:0000000000009e9e .LASF2139
     /tmp/cc8IgIp2.s:74685  .debug_str:000000000000aa38 .LASF2140
     /tmp/cc8IgIp2.s:76279  .debug_str:000000000000eed9 .LASF2141
     /tmp/cc8IgIp2.s:70795  .debug_str:00000000000003ba .LASF2142
     /tmp/cc8IgIp2.s:76267  .debug_str:000000000000ee41 .LASF2143
     /tmp/cc8IgIp2.s:76359  .debug_str:000000000000f280 .LASF2144
     /tmp/cc8IgIp2.s:74435  .debug_str:000000000000a001 .LASF2145
     /tmp/cc8IgIp2.s:77179  .debug_str:00000000000115ea .LASF2146
     /tmp/cc8IgIp2.s:77293  .debug_str:0000000000011a2a .LASF2147
     /tmp/cc8IgIp2.s:76809  .debug_str:0000000000010625 .LASF2148
     /tmp/cc8IgIp2.s:77549  .debug_str:00000000000124c8 .LASF2149
     /tmp/cc8IgIp2.s:76221  .debug_str:000000000000ec45 .LASF2150
     /tmp/cc8IgIp2.s:75925  .debug_str:000000000000df1f .LASF2151
     /tmp/cc8IgIp2.s:77533  .debug_str:000000000001244b .LASF2152
     /tmp/cc8IgIp2.s:76207  .debug_str:000000000000ebcf .LASF2153
     /tmp/cc8IgIp2.s:73665  .debug_str:0000000000007e9e .LASF2154
     /tmp/cc8IgIp2.s:71727  .debug_str:0000000000002b2d .LASF2155
     /tmp/cc8IgIp2.s:71827  .debug_str:0000000000002f75 .LASF2156
     /tmp/cc8IgIp2.s:77873  .debug_str:000000000001331f .LASF2157
     /tmp/cc8IgIp2.s:76423  .debug_str:000000000000f56a .LASF2158
     /tmp/cc8IgIp2.s:76549  .debug_str:000000000000fa88 .LASF2159
     /tmp/cc8IgIp2.s:77813  .debug_str:0000000000013063 .LASF2160
     /tmp/cc8IgIp2.s:77303  .debug_str:0000000000011a82 .LASF2161
     /tmp/cc8IgIp2.s:77433  .debug_str:0000000000011fb3 .LASF2162
     /tmp/cc8IgIp2.s:72711  .debug_str:0000000000005597 .LASF2163
     /tmp/cc8IgIp2.s:77545  .debug_str:00000000000124ba .LASF2164
     /tmp/cc8IgIp2.s:76495  .debug_str:000000000000f883 .LASF2165
     /tmp/cc8IgIp2.s:77783  .debug_str:0000000000012f40 .LASF2166
     /tmp/cc8IgIp2.s:75453  .debug_str:000000000000c8ae .LASF2167
     /tmp/cc8IgIp2.s:75955  .debug_str:000000000000e09a .LASF2168
     /tmp/cc8IgIp2.s:73531  .debug_str:0000000000007819 .LASF2169
     /tmp/cc8IgIp2.s:76821  .debug_str:00000000000106c7 .LASF2170
     /tmp/cc8IgIp2.s:77477  .debug_str:00000000000121ca .LASF2171
     /tmp/cc8IgIp2.s:72577  .debug_str:0000000000005083 .LASF2172
     /tmp/cc8IgIp2.s:77895  .debug_str:00000000000133f6 .LASF2173
     /tmp/cc8IgIp2.s:74251  .debug_str:000000000000980a .LASF2174
     /tmp/cc8IgIp2.s:73819  .debug_str:00000000000085ad .LASF2175
     /tmp/cc8IgIp2.s:71801  .debug_str:0000000000002e64 .LASF2176
     /tmp/cc8IgIp2.s:76527  .debug_str:000000000000f9e7 .LASF2177
     /tmp/cc8IgIp2.s:75625  .debug_str:000000000000d143 .LASF2178
     /tmp/cc8IgIp2.s:76639  .debug_str:000000000000fe6b .LASF2179
     /tmp/cc8IgIp2.s:75379  .debug_str:000000000000c57a .LASF2180
     /tmp/cc8IgIp2.s:76241  .debug_str:000000000000ed0c .LASF2181
     /tmp/cc8IgIp2.s:74531  .debug_str:000000000000a43b .LASF2182
     /tmp/cc8IgIp2.s:76955  .debug_str:0000000000010ceb .LASF2183
     /tmp/cc8IgIp2.s:77857  .debug_str:000000000001324e .LASF2184
     /tmp/cc8IgIp2.s:77241  .debug_str:000000000001189d .LASF2185
     /tmp/cc8IgIp2.s:72039  .debug_str:00000000000038db .LASF2186
     /tmp/cc8IgIp2.s:71147  .debug_str:00000000000011c0 .LASF2187
     /tmp/cc8IgIp2.s:74439  .debug_str:000000000000a02b .LASF2188
     /tmp/cc8IgIp2.s:75627  .debug_str:000000000000d15f .LASF2189
     /tmp/cc8IgIp2.s:74763  .debug_str:000000000000ad09 .LASF2190
     /tmp/cc8IgIp2.s:74007  .debug_str:0000000000008dd3 .LASF2191
     /tmp/cc8IgIp2.s:74193  .debug_str:0000000000009552 .LASF2192
     /tmp/cc8IgIp2.s:73805  .debug_str:0000000000008516 .LASF2193
     /tmp/cc8IgIp2.s:76505  .debug_str:000000000000f8f4 .LASF2194
     /tmp/cc8IgIp2.s:72687  .debug_str:000000000000545b .LASF2195
     /tmp/cc8IgIp2.s:74617  .debug_str:000000000000a760 .LASF2196
     /tmp/cc8IgIp2.s:72359  .debug_str:0000000000004744 .LASF2197
     /tmp/cc8IgIp2.s:75713  .debug_str:000000000000d53e .LASF2198
     /tmp/cc8IgIp2.s:76919  .debug_str:0000000000010adb .LASF2199
     /tmp/cc8IgIp2.s:77397  .debug_str:0000000000011e37 .LASF2200
     /tmp/cc8IgIp2.s:75843  .debug_str:000000000000db84 .LASF2201
     /tmp/cc8IgIp2.s:74447  .debug_str:000000000000a07f .LASF2202
     /tmp/cc8IgIp2.s:77053  .debug_str:0000000000011155 .LASF2203
     /tmp/cc8IgIp2.s:77405  .debug_str:0000000000011e89 .LASF2204
     /tmp/cc8IgIp2.s:74147  .debug_str:00000000000093b6 .LASF2205
     /tmp/cc8IgIp2.s:72409  .debug_str:00000000000049d3 .LASF2206
     /tmp/cc8IgIp2.s:75977  .debug_str:000000000000e172 .LASF2207
     /tmp/cc8IgIp2.s:70897  .debug_str:0000000000000832 .LASF2208
     /tmp/cc8IgIp2.s:74581  .debug_str:000000000000a5f8 .LASF2209
     /tmp/cc8IgIp2.s:75961  .debug_str:000000000000e0c4 .LASF2210
     /tmp/cc8IgIp2.s:74371  .debug_str:0000000000009d89 .LASF2211
     /tmp/cc8IgIp2.s:76587  .debug_str:000000000000fc20 .LASF2212
     /tmp/cc8IgIp2.s:75321  .debug_str:000000000000c2b2 .LASF2213
     /tmp/cc8IgIp2.s:76025  .debug_str:000000000000e37a .LASF2214
     /tmp/cc8IgIp2.s:76711  .debug_str:00000000000101b8 .LASF2215
     /tmp/cc8IgIp2.s:75439  .debug_str:000000000000c839 .LASF2216
     /tmp/cc8IgIp2.s:73299  .debug_str:0000000000006da2 .LASF2217
     /tmp/cc8IgIp2.s:70829  .debug_str:000000000000052f .LASF2218
     /tmp/cc8IgIp2.s:76887  .debug_str:000000000001099a .LASF2219
     /tmp/cc8IgIp2.s:74937  .debug_str:000000000000b3a4 .LASF2220
     /tmp/cc8IgIp2.s:77309  .debug_str:0000000000011aaa .LASF2221
     /tmp/cc8IgIp2.s:77435  .debug_str:0000000000011fbb .LASF2222
     /tmp/cc8IgIp2.s:77499  .debug_str:00000000000122ae .LASF2223
     /tmp/cc8IgIp2.s:76619  .debug_str:000000000000fdc7 .LASF2224
     /tmp/cc8IgIp2.s:70759  .debug_str:000000000000021c .LASF2225
     /tmp/cc8IgIp2.s:77709  .debug_str:0000000000012bd9 .LASF2226
     /tmp/cc8IgIp2.s:73823  .debug_str:00000000000085de .LASF2227
     /tmp/cc8IgIp2.s:73159  .debug_str:00000000000067ad .LASF2228
     /tmp/cc8IgIp2.s:74571  .debug_str:000000000000a578 .LASF2229
     /tmp/cc8IgIp2.s:75783  .debug_str:000000000000d919 .LASF2230
     /tmp/cc8IgIp2.s:71683  .debug_str:000000000000288c .LASF2231
     /tmp/cc8IgIp2.s:77585  .debug_str:000000000001267d .LASF2232
     /tmp/cc8IgIp2.s:71011  .debug_str:0000000000000c89 .LASF2233
     /tmp/cc8IgIp2.s:71375  .debug_str:0000000000001b08 .LASF2234
     /tmp/cc8IgIp2.s:74103  .debug_str:00000000000091eb .LASF2235
     /tmp/cc8IgIp2.s:77181  .debug_str:00000000000115f2 .LASF2236
     /tmp/cc8IgIp2.s:74549  .debug_str:000000000000a4f8 .LASF2237
     /tmp/cc8IgIp2.s:76227  .debug_str:000000000000ec7b .LASF2238
     /tmp/cc8IgIp2.s:70717  .debug_str:0000000000000000 .LASF2239
     /tmp/cc8IgIp2.s:71737  .debug_str:0000000000002bb7 .LASF2240
     /tmp/cc8IgIp2.s:74321  .debug_str:0000000000009aef .LASF2241
     /tmp/cc8IgIp2.s:70895  .debug_str:000000000000081f .LASF2242
     /tmp/cc8IgIp2.s:70977  .debug_str:0000000000000b39 .LASF2243
     /tmp/cc8IgIp2.s:73147  .debug_str:0000000000006707 .LASF2244
     /tmp/cc8IgIp2.s:71487  .debug_str:0000000000001f9a .LASF2245
     /tmp/cc8IgIp2.s:78229  .debug_str:00000000000142e8 .LASF2246
     /tmp/cc8IgIp2.s:76265  .debug_str:000000000000ee1a .LASF2247
     /tmp/cc8IgIp2.s:71489  .debug_str:0000000000001fad .LASF2248
     /tmp/cc8IgIp2.s:78233  .debug_str:000000000001430e .LASF2249
     /tmp/cc8IgIp2.s:71711  .debug_str:0000000000002a4a .LASF2250
     /tmp/cc8IgIp2.s:70901  .debug_str:0000000000000864 .LASF2251
     /tmp/cc8IgIp2.s:78235  .debug_str:0000000000014321 .LASF2252
     /tmp/cc8IgIp2.s:74925  .debug_str:000000000000b2e0 .LASF2253
     /tmp/cc8IgIp2.s:70903  .debug_str:0000000000000877 .LASF2254
     /tmp/cc8IgIp2.s:78237  .debug_str:0000000000014334 .LASF2255
     /tmp/cc8IgIp2.s:75845  .debug_str:000000000000db99 .LASF2256
     /tmp/cc8IgIp2.s:70905  .debug_str:000000000000088a .LASF2257
     /tmp/cc8IgIp2.s:70987  .debug_str:0000000000000bb5 .LASF2258
     /tmp/cc8IgIp2.s:73445  .debug_str:00000000000073bf .LASF2259
     /tmp/cc8IgIp2.s:71497  .debug_str:0000000000002013 .LASF2260
     /tmp/cc8IgIp2.s:78239  .debug_str:0000000000014347 .LASF2261
     /tmp/cc8IgIp2.s:76503  .debug_str:000000000000f8cd .LASF2262
     /tmp/cc8IgIp2.s:70909  .debug_str:00000000000008bd .LASF2263
     /tmp/cc8IgIp2.s:70991  .debug_str:0000000000000bdd .LASF2264
     /tmp/cc8IgIp2.s:71961  .debug_str:0000000000003539 .LASF2265
     /tmp/cc8IgIp2.s:76347  .debug_str:000000000000f1e7 .LASF2266
     /tmp/cc8IgIp2.s:76125  .debug_str:000000000000e881 .LASF2267
     /tmp/cc8IgIp2.s:77467  .debug_str:000000000001212d .LASF2268
     /tmp/cc8IgIp2.s:76349  .debug_str:000000000000f1fa .LASF2269
     /tmp/cc8IgIp2.s:72087  .debug_str:0000000000003ad8 .LASF2270
     /tmp/cc8IgIp2.s:72991  .debug_str:0000000000005ff3 .LASF2271
     /tmp/cc8IgIp2.s:72545  .debug_str:0000000000004fad .LASF2272
     /tmp/cc8IgIp2.s:72089  .debug_str:0000000000003aeb .LASF2273
     /tmp/cc8IgIp2.s:76111  .debug_str:000000000000e7cd .LASF2274
     /tmp/cc8IgIp2.s:72547  .debug_str:0000000000004fc0 .LASF2275
     /tmp/cc8IgIp2.s:72091  .debug_str:0000000000003afe .LASF2276
     /tmp/cc8IgIp2.s:71555  .debug_str:000000000000229b .LASF2277
     /tmp/cc8IgIp2.s:72549  .debug_str:0000000000004fd3 .LASF2278
     /tmp/cc8IgIp2.s:72093  .debug_str:0000000000003b11 .LASF2279
     /tmp/cc8IgIp2.s:78197  .debug_str:000000000001412f .LASF2280
     /tmp/cc8IgIp2.s:72551  .debug_str:0000000000004fe6 .LASF2281
     /tmp/cc8IgIp2.s:72095  .debug_str:0000000000003b24 .LASF2282
     /tmp/cc8IgIp2.s:77733  .debug_str:0000000000012d29 .LASF2283
     /tmp/cc8IgIp2.s:72553  .debug_str:0000000000004ff9 .LASF2284
     /tmp/cc8IgIp2.s:72097  .debug_str:0000000000003b37 .LASF2285
     /tmp/cc8IgIp2.s:73273  .debug_str:0000000000006c71 .LASF2286
     /tmp/cc8IgIp2.s:76355  .debug_str:000000000000f24c .LASF2287
     /tmp/cc8IgIp2.s:72099  .debug_str:0000000000003b4a .LASF2288
     /tmp/cc8IgIp2.s:77871  .debug_str:00000000000132f8 .LASF2289
     /tmp/cc8IgIp2.s:72863  .debug_str:0000000000005ae6 .LASF2290
     /tmp/cc8IgIp2.s:71449  .debug_str:0000000000001e1d .LASF2291
     /tmp/cc8IgIp2.s:76593  .debug_str:000000000000fc6e .LASF2292
     /tmp/cc8IgIp2.s:76521  .debug_str:000000000000f9b8 .LASF2293
     /tmp/cc8IgIp2.s:72447  .debug_str:0000000000004b75 .LASF2294
     /tmp/cc8IgIp2.s:73357  .debug_str:0000000000007085 .LASF2295
     /tmp/cc8IgIp2.s:75443  .debug_str:000000000000c858 .LASF2296
     /tmp/cc8IgIp2.s:76573  .debug_str:000000000000fb75 .LASF2297
     /tmp/cc8IgIp2.s:73275  .debug_str:0000000000006c98 .LASF2298
     /tmp/cc8IgIp2.s:72001  .debug_str:0000000000003779 .LASF2299
     /tmp/cc8IgIp2.s:73361  .debug_str:00000000000070d5 .LASF2300
     /tmp/cc8IgIp2.s:72293  .debug_str:00000000000044b4 .LASF2301
     /tmp/cc8IgIp2.s:73711  .debug_str:000000000000811c .LASF2302
     /tmp/cc8IgIp2.s:74991  .debug_str:000000000000b559 .LASF2303
     /tmp/cc8IgIp2.s:72839  .debug_str:0000000000005a13 .LASF2304
     /tmp/cc8IgIp2.s:75601  .debug_str:000000000000cfe7 .LASF2305
     /tmp/cc8IgIp2.s:74537  .debug_str:000000000000a487 .LASF2306
     /tmp/cc8IgIp2.s:77045  .debug_str:0000000000011102 .LASF2307
     /tmp/cc8IgIp2.s:74583  .debug_str:000000000000a600 .LASF2308
     /tmp/cc8IgIp2.s:72759  .debug_str:000000000000573a .LASF2309
     /tmp/cc8IgIp2.s:71997  .debug_str:000000000000373a .LASF2310
     /tmp/cc8IgIp2.s:75479  .debug_str:000000000000c9e9 .LASF2311
     /tmp/cc8IgIp2.s:72993  .debug_str:000000000000601a .LASF2312
     /tmp/cc8IgIp2.s:71969  .debug_str:00000000000035a3 .LASF2313
     /tmp/cc8IgIp2.s:72603  .debug_str:00000000000051c9 .LASF2314
     /tmp/cc8IgIp2.s:71473  .debug_str:0000000000001f29 .LASF2315
     /tmp/cc8IgIp2.s:73757  .debug_str:000000000000830e .LASF2316
     /tmp/cc8IgIp2.s:77897  .debug_str:00000000000133fd .LASF2317
     /tmp/cc8IgIp2.s:76579  .debug_str:000000000000fbbb .LASF2318
     /tmp/cc8IgIp2.s:72615  .debug_str:0000000000005215 .LASF2319
     /tmp/cc8IgIp2.s:72165  .debug_str:0000000000003e4d .LASF2320
     /tmp/cc8IgIp2.s:71089  .debug_str:0000000000000f89 .LASF2321
     /tmp/cc8IgIp2.s:76843  .debug_str:0000000000010771 .LASF2322
     /tmp/cc8IgIp2.s:71631  .debug_str:0000000000002638 .LASF2323
     /tmp/cc8IgIp2.s:76191  .debug_str:000000000000eb2a .LASF2324
     /tmp/cc8IgIp2.s:76617  .debug_str:000000000000fdab .LASF2325
     /tmp/cc8IgIp2.s:74349  .debug_str:0000000000009ca8 .LASF2326
     /tmp/cc8IgIp2.s:73099  .debug_str:00000000000064bb .LASF2327
     /tmp/cc8IgIp2.s:74303  .debug_str:0000000000009a2f .LASF2328
     /tmp/cc8IgIp2.s:75849  .debug_str:000000000000dbd8 .LASF2329
     /tmp/cc8IgIp2.s:75959  .debug_str:000000000000e0bc .LASF2330
     /tmp/cc8IgIp2.s:77447  .debug_str:0000000000012052 .LASF2331
     /tmp/cc8IgIp2.s:73671  .debug_str:0000000000007ef1 .LASF2332
     /tmp/cc8IgIp2.s:72383  .debug_str:000000000000486d .LASF2333
     /tmp/cc8IgIp2.s:73325  .debug_str:0000000000006eec .LASF2334
     /tmp/cc8IgIp2.s:72467  .debug_str:0000000000004caa .LASF2335
     /tmp/cc8IgIp2.s:73729  .debug_str:00000000000081c5 .LASF2336
     /tmp/cc8IgIp2.s:74307  .debug_str:0000000000009a58 .LASF2337
     /tmp/cc8IgIp2.s:73457  .debug_str:0000000000007483 .LASF2338
     /tmp/cc8IgIp2.s:71993  .debug_str:000000000000370e .LASF2339
     /tmp/cc8IgIp2.s:76665  .debug_str:000000000000ff9e .LASF2340
     /tmp/cc8IgIp2.s:77399  .debug_str:0000000000011e4c .LASF2341
     /tmp/cc8IgIp2.s:78199  .debug_str:0000000000014156 .LASF2342
     /tmp/cc8IgIp2.s:77725  .debug_str:0000000000012ccf .LASF2343
     /tmp/cc8IgIp2.s:73057  .debug_str:00000000000062a1 .LASF2344
     /tmp/cc8IgIp2.s:76477  .debug_str:000000000000f7df .LASF2345
     /tmp/cc8IgIp2.s:76499  .debug_str:000000000000f896 .LASF2346
     /tmp/cc8IgIp2.s:73775  .debug_str:00000000000083d0 .LASF2347
     /tmp/cc8IgIp2.s:73893  .debug_str:00000000000088ff .LASF2348
     /tmp/cc8IgIp2.s:75589  .debug_str:000000000000cf65 .LASF2349
     /tmp/cc8IgIp2.s:75753  .debug_str:000000000000d783 .LASF2350
     /tmp/cc8IgIp2.s:76653  .debug_str:000000000000ff14 .LASF2351
     /tmp/cc8IgIp2.s:73449  .debug_str:000000000000740b .LASF2352
     /tmp/cc8IgIp2.s:72137  .debug_str:0000000000003cdb .LASF2353
     /tmp/cc8IgIp2.s:76031  .debug_str:000000000000e3b6 .LASF2354
     /tmp/cc8IgIp2.s:74401  .debug_str:0000000000009e7a .LASF2355
     /tmp/cc8IgIp2.s:76289  .debug_str:000000000000ef28 .LASF2356
     /tmp/cc8IgIp2.s:77043  .debug_str:00000000000110f3 .LASF2357
     /tmp/cc8IgIp2.s:76947  .debug_str:0000000000010c5c .LASF2358
     /tmp/cc8IgIp2.s:76259  .debug_str:000000000000edd4 .LASF2359
     /tmp/cc8IgIp2.s:71091  .debug_str:0000000000000f93 .LASF2360
     /tmp/cc8IgIp2.s:75733  .debug_str:000000000000d65c .LASF2361
     /tmp/cc8IgIp2.s:73351  .debug_str:0000000000007040 .LASF2362
     /tmp/cc8IgIp2.s:70765  .debug_str:000000000000024d .LASF2363
     /tmp/cc8IgIp2.s:71667  .debug_str:00000000000027b4 .LASF2364
     /tmp/cc8IgIp2.s:72013  .debug_str:0000000000003809 .LASF2365
     /tmp/cc8IgIp2.s:76383  .debug_str:000000000000f37a .LASF2366
     /tmp/cc8IgIp2.s:71735  .debug_str:0000000000002b8f .LASF2367
     /tmp/cc8IgIp2.s:75685  .debug_str:000000000000d3fa .LASF2368
     /tmp/cc8IgIp2.s:78159  .debug_str:0000000000013f7a .LASF2369
     /tmp/cc8IgIp2.s:73303  .debug_str:0000000000006dc7 .LASF2370
     /tmp/cc8IgIp2.s:72323  .debug_str:00000000000045db .LASF2371
     /tmp/cc8IgIp2.s:77685  .debug_str:0000000000012ab7 .LASF2372
     /tmp/cc8IgIp2.s:73373  .debug_str:0000000000007146 .LASF2373
     /tmp/cc8IgIp2.s:73151  .debug_str:0000000000006753 .LASF2374
     /tmp/cc8IgIp2.s:73847  .debug_str:00000000000086de .LASF2375
     /tmp/cc8IgIp2.s:71045  .debug_str:0000000000000d85 .LASF2376
     /tmp/cc8IgIp2.s:73897  .debug_str:0000000000008911 .LASF2377
     /tmp/cc8IgIp2.s:72381  .debug_str:0000000000004852 .LASF2378
     /tmp/cc8IgIp2.s:71541  .debug_str:00000000000021f8 .LASF2379
     /tmp/cc8IgIp2.s:71311  .debug_str:0000000000001823 .LASF2380
     /tmp/cc8IgIp2.s:74591  .debug_str:000000000000a646 .LASF2381
     /tmp/cc8IgIp2.s:72461  .debug_str:0000000000004c4a .LASF2382
     /tmp/cc8IgIp2.s:76397  .debug_str:000000000000f3ec .LASF2383
     /tmp/cc8IgIp2.s:76421  .debug_str:000000000000f55d .LASF2384
     /tmp/cc8IgIp2.s:71425  .debug_str:0000000000001d13 .LASF2385
     /tmp/cc8IgIp2.s:74029  .debug_str:0000000000008edb .LASF2386
     /tmp/cc8IgIp2.s:74735  .debug_str:000000000000abe2 .LASF2387
     /tmp/cc8IgIp2.s:77665  .debug_str:000000000001299b .LASF2388
     /tmp/cc8IgIp2.s:76651  .debug_str:000000000000ff06 .LASF2389
     /tmp/cc8IgIp2.s:74469  .debug_str:000000000000a199 .LASF2390
     /tmp/cc8IgIp2.s:74297  .debug_str:00000000000099e3 .LASF2391
     /tmp/cc8IgIp2.s:71891  .debug_str:0000000000003257 .LASF2392
     /tmp/cc8IgIp2.s:74529  .debug_str:000000000000a42e .LASF2393
     /tmp/cc8IgIp2.s:73381  .debug_str:00000000000071a8 .LASF2394
     /tmp/cc8IgIp2.s:75407  .debug_str:000000000000c6ad .LASF2395
     /tmp/cc8IgIp2.s:71381  .debug_str:0000000000001b45 .LASF2396
     /tmp/cc8IgIp2.s:71571  .debug_str:000000000000234e .LASF2397
     /tmp/cc8IgIp2.s:72793  .debug_str:00000000000058ae .LASF2398
     /tmp/cc8IgIp2.s:71051  .debug_str:0000000000000df5 .LASF2399
     /tmp/cc8IgIp2.s:73975  .debug_str:0000000000008c95 .LASF2400
     /tmp/cc8IgIp2.s:74045  .debug_str:0000000000008f6d .LASF2401
     /tmp/cc8IgIp2.s:75281  .debug_str:000000000000c0a3 .LASF2402
     /tmp/cc8IgIp2.s:73567  .debug_str:00000000000079a6 .LASF2403
     /tmp/cc8IgIp2.s:77577  .debug_str:0000000000012622 .LASF2404
     /tmp/cc8IgIp2.s:72443  .debug_str:0000000000004b48 .LASF2405
     /tmp/cc8IgIp2.s:75525  .debug_str:000000000000cc41 .LASF2406
     /tmp/cc8IgIp2.s:77279  .debug_str:000000000001198b .LASF2407
     /tmp/cc8IgIp2.s:77017  .debug_str:0000000000010fe7 .LASF2408
     /tmp/cc8IgIp2.s:77487  .debug_str:0000000000012200 .LASF2409
     /tmp/cc8IgIp2.s:76223  .debug_str:000000000000ec4c .LASF2410
     /tmp/cc8IgIp2.s:71955  .debug_str:0000000000003503 .LASF2411
     /tmp/cc8IgIp2.s:71841  .debug_str:000000000000300f .LASF2412
     /tmp/cc8IgIp2.s:76985  .debug_str:0000000000010e6c .LASF2413
     /tmp/cc8IgIp2.s:72103  .debug_str:0000000000003b68 .LASF2414
     /tmp/cc8IgIp2.s:73595  .debug_str:0000000000007af7 .LASF2415
     /tmp/cc8IgIp2.s:73767  .debug_str:0000000000008389 .LASF2416
     /tmp/cc8IgIp2.s:77557  .debug_str:000000000001251d .LASF2417
     /tmp/cc8IgIp2.s:75121  .debug_str:000000000000b9b4 .LASF2418
     /tmp/cc8IgIp2.s:73063  .debug_str:00000000000062e5 .LASF2419
     /tmp/cc8IgIp2.s:71657  .debug_str:000000000000274a .LASF2420
     /tmp/cc8IgIp2.s:78045  .debug_str:0000000000013b3d .LASF2421
     /tmp/cc8IgIp2.s:71557  .debug_str:00000000000022c2 .LASF2422
     /tmp/cc8IgIp2.s:76001  .debug_str:000000000000e277 .LASF2423
     /tmp/cc8IgIp2.s:76751  .debug_str:00000000000103c9 .LASF2424
     /tmp/cc8IgIp2.s:71469  .debug_str:0000000000001f09 .LASF2425
     /tmp/cc8IgIp2.s:75933  .debug_str:000000000000df7e .LASF2426
     /tmp/cc8IgIp2.s:72433  .debug_str:0000000000004afd .LASF2427
     /tmp/cc8IgIp2.s:77829  .debug_str:000000000001312b .LASF2428
     /tmp/cc8IgIp2.s:76489  .debug_str:000000000000f855 .LASF2429
     /tmp/cc8IgIp2.s:74507  .debug_str:000000000000a300 .LASF2430
     /tmp/cc8IgIp2.s:77547  .debug_str:00000000000124c1 .LASF2431
     /tmp/cc8IgIp2.s:76215  .debug_str:000000000000ec12 .LASF2432
     /tmp/cc8IgIp2.s:74505  .debug_str:000000000000a2e5 .LASF2433
     /tmp/cc8IgIp2.s:76769  .debug_str:000000000001049f .LASF2434
     /tmp/cc8IgIp2.s:71745  .debug_str:0000000000002c05 .LASF2435
     /tmp/cc8IgIp2.s:71155  .debug_str:0000000000001233 .LASF2436
     /tmp/cc8IgIp2.s:71201  .debug_str:00000000000013ec .LASF2437
     /tmp/cc8IgIp2.s:75211  .debug_str:000000000000bdb1 .LASF2438
     /tmp/cc8IgIp2.s:73455  .debug_str:000000000000745d .LASF2439
     /tmp/cc8IgIp2.s:72775  .debug_str:0000000000005805 .LASF2440
     /tmp/cc8IgIp2.s:71149  .debug_str:00000000000011e7 .LASF2441
     /tmp/cc8IgIp2.s:72915  .debug_str:0000000000005cb6 .LASF2442
     /tmp/cc8IgIp2.s:72127  .debug_str:0000000000003c68 .LASF2443
     /tmp/cc8IgIp2.s:76951  .debug_str:0000000000010ca0 .LASF2444
     /tmp/cc8IgIp2.s:72539  .debug_str:0000000000004f2d .LASF2445
     /tmp/cc8IgIp2.s:72919  .debug_str:0000000000005cf0 .LASF2446
     /tmp/cc8IgIp2.s:72715  .debug_str:00000000000055cf .LASF2447
     /tmp/cc8IgIp2.s:77021  .debug_str:0000000000011025 .LASF2448
     /tmp/cc8IgIp2.s:77505  .debug_str:00000000000122f8 .LASF2449
     /tmp/cc8IgIp2.s:76063  .debug_str:000000000000e566 .LASF2450
     /tmp/cc8IgIp2.s:72197  .debug_str:0000000000003fe5 .LASF2451
     /tmp/cc8IgIp2.s:76151  .debug_str:000000000000e9a1 .LASF2452
     /tmp/cc8IgIp2.s:74053  .debug_str:0000000000008fda .LASF2453
     /tmp/cc8IgIp2.s:76945  .debug_str:0000000000010c37 .LASF2454
     /tmp/cc8IgIp2.s:70839  .debug_str:00000000000005b0 .LASF2455
     /tmp/cc8IgIp2.s:75603  .debug_str:000000000000cff1 .LASF2456
     /tmp/cc8IgIp2.s:74517  .debug_str:000000000000a367 .LASF2457
     /tmp/cc8IgIp2.s:71673  .debug_str:0000000000002819 .LASF2458
     /tmp/cc8IgIp2.s:74017  .debug_str:0000000000008e42 .LASF2459
     /tmp/cc8IgIp2.s:70729  .debug_str:000000000000008c .LASF2460
     /tmp/cc8IgIp2.s:74971  .debug_str:000000000000b491 .LASF2461
     /tmp/cc8IgIp2.s:75781  .debug_str:000000000000d90d .LASF2462
     /tmp/cc8IgIp2.s:73533  .debug_str:0000000000007835 .LASF2463
     /tmp/cc8IgIp2.s:78053  .debug_str:0000000000013bb2 .LASF2464
     /tmp/cc8IgIp2.s:76793  .debug_str:0000000000010588 .LASF2465
     /tmp/cc8IgIp2.s:77571  .debug_str:00000000000125d6 .LASF2466
     /tmp/cc8IgIp2.s:75477  .debug_str:000000000000c9d5 .LASF2467
     /tmp/cc8IgIp2.s:75937  .debug_str:000000000000dfad .LASF2468
     /tmp/cc8IgIp2.s:70751  .debug_str:00000000000001a5 .LASF2469
     /tmp/cc8IgIp2.s:77775  .debug_str:0000000000012efd .LASF2470
     /tmp/cc8IgIp2.s:74191  .debug_str:0000000000009544 .LASF2471
     /tmp/cc8IgIp2.s:76235  .debug_str:000000000000ecc9 .LASF2472
     /tmp/cc8IgIp2.s:77575  .debug_str:000000000001260b .LASF2473
     /tmp/cc8IgIp2.s:71597  .debug_str:00000000000024a1 .LASF2474
     /tmp/cc8IgIp2.s:72347  .debug_str:00000000000046ba .LASF2475
     /tmp/cc8IgIp2.s:71583  .debug_str:00000000000023e6 .LASF2476
     /tmp/cc8IgIp2.s:73399  .debug_str:0000000000007266 .LASF2477
     /tmp/cc8IgIp2.s:73139  .debug_str:000000000000668d .LASF2478
     /tmp/cc8IgIp2.s:77741  .debug_str:0000000000012d85 .LASF2479
     /tmp/cc8IgIp2.s:77701  .debug_str:0000000000012b6a .LASF2480
     /tmp/cc8IgIp2.s:72537  .debug_str:0000000000004f02 .LASF2481
     /tmp/cc8IgIp2.s:74805  .debug_str:000000000000ae71 .LASF2482
     /tmp/cc8IgIp2.s:74935  .debug_str:000000000000b38f .LASF2483
     /tmp/cc8IgIp2.s:73979  .debug_str:0000000000008cbf .LASF2484
     /tmp/cc8IgIp2.s:75993  .debug_str:000000000000e220 .LASF2485
     /tmp/cc8IgIp2.s:73363  .debug_str:00000000000070e9 .LASF2486
     /tmp/cc8IgIp2.s:73149  .debug_str:000000000000672e .LASF2487
     /tmp/cc8IgIp2.s:77153  .debug_str:00000000000114a3 .LASF2488
     /tmp/cc8IgIp2.s:71343  .debug_str:0000000000001972 .LASF2489
     /tmp/cc8IgIp2.s:71059  .debug_str:0000000000000e6d .LASF2490
     /tmp/cc8IgIp2.s:71399  .debug_str:0000000000001c31 .LASF2491
     /tmp/cc8IgIp2.s:73193  .debug_str:0000000000006903 .LASF2492
     /tmp/cc8IgIp2.s:77843  .debug_str:000000000001319e .LASF2493
     /tmp/cc8IgIp2.s:71083  .debug_str:0000000000000f31 .LASF2494
     /tmp/cc8IgIp2.s:76255  .debug_str:000000000000edb8 .LASF2495
     /tmp/cc8IgIp2.s:75741  .debug_str:000000000000d6df .LASF2496
     /tmp/cc8IgIp2.s:77655  .debug_str:0000000000012934 .LASF2497
     /tmp/cc8IgIp2.s:73265  .debug_str:0000000000006bfc .LASF2498
     /tmp/cc8IgIp2.s:73097  .debug_str:0000000000006492 .LASF2499
     /tmp/cc8IgIp2.s:75851  .debug_str:000000000000dbe0 .LASF2500
     /tmp/cc8IgIp2.s:73627  .debug_str:0000000000007cda .LASF2501
     /tmp/cc8IgIp2.s:75921  .debug_str:000000000000deeb .LASF2502
     /tmp/cc8IgIp2.s:78247  .debug_str:0000000000014382 .LASF2503
     /tmp/cc8IgIp2.s:74687  .debug_str:000000000000aa40 .LASF2504
     /tmp/cc8IgIp2.s:70737  .debug_str:00000000000000ed .LASF2505
     /tmp/cc8IgIp2.s:74681  .debug_str:000000000000aa1d .LASF2506
     /tmp/cc8IgIp2.s:76307  .debug_str:000000000000eff0 .LASF2507
     /tmp/cc8IgIp2.s:71521  .debug_str:00000000000020e6 .LASF2508
     /tmp/cc8IgIp2.s:75805  .debug_str:000000000000d9c7 .LASF2509
     /tmp/cc8IgIp2.s:76299  .debug_str:000000000000ef68 .LASF2510
     /tmp/cc8IgIp2.s:76459  .debug_str:000000000000f71f .LASF2511
     /tmp/cc8IgIp2.s:75909  .debug_str:000000000000de58 .LASF2512
     /tmp/cc8IgIp2.s:71545  .debug_str:0000000000002230 .LASF2513
     /tmp/cc8IgIp2.s:75757  .debug_str:000000000000d7a1 .LASF2514
     /tmp/cc8IgIp2.s:75645  .debug_str:000000000000d201 .LASF2515
     /tmp/cc8IgIp2.s:70893  .debug_str:0000000000000813 .LASF2516
     /tmp/cc8IgIp2.s:72449  .debug_str:0000000000004b88 .LASF2517
     /tmp/cc8IgIp2.s:71669  .debug_str:00000000000027d8 .LASF2518
     /tmp/cc8IgIp2.s:72661  .debug_str:0000000000005394 .LASF2519
     /tmp/cc8IgIp2.s:72937  .debug_str:0000000000005dd7 .LASF2520
     /tmp/cc8IgIp2.s:75193  .debug_str:000000000000bd04 .LASF2521
     /tmp/cc8IgIp2.s:73685  .debug_str:0000000000007f7f .LASF2522
     /tmp/cc8IgIp2.s:75055  .debug_str:000000000000b75c .LASF2523
     /tmp/cc8IgIp2.s:75723  .debug_str:000000000000d5c1 .LASF2524
     /tmp/cc8IgIp2.s:75203  .debug_str:000000000000bd7a .LASF2525
     /tmp/cc8IgIp2.s:71689  .debug_str:00000000000028ca .LASF2526
     /tmp/cc8IgIp2.s:71633  .debug_str:0000000000002640 .LASF2527
     /tmp/cc8IgIp2.s:77745  .debug_str:0000000000012dd8 .LASF2528
     /tmp/cc8IgIp2.s:71615  .debug_str:0000000000002575 .LASF2529
     /tmp/cc8IgIp2.s:71193  .debug_str:0000000000001384 .LASF2530
     /tmp/cc8IgIp2.s:76249  .debug_str:000000000000ed78 .LASF2531
     /tmp/cc8IgIp2.s:77921  .debug_str:0000000000013507 .LASF2532
     /tmp/cc8IgIp2.s:75699  .debug_str:000000000000d494 .LASF2533
     /tmp/cc8IgIp2.s:74197  .debug_str:0000000000009580 .LASF2534
     /tmp/cc8IgIp2.s:74881  .debug_str:000000000000b141 .LASF2535
     /tmp/cc8IgIp2.s:77515  .debug_str:000000000001237f .LASF2536
     /tmp/cc8IgIp2.s:72289  .debug_str:0000000000004495 .LASF2537
     /tmp/cc8IgIp2.s:72411  .debug_str:00000000000049e5 .LASF2538
     /tmp/cc8IgIp2.s:75579  .debug_str:000000000000ced3 .LASF2539
     /tmp/cc8IgIp2.s:78203  .debug_str:0000000000014185 .LASF2540
     /tmp/cc8IgIp2.s:76033  .debug_str:000000000000e3c6 .LASF2541
     /tmp/cc8IgIp2.s:71795  .debug_str:0000000000002e1a .LASF2542
     /tmp/cc8IgIp2.s:73525  .debug_str:00000000000077d7 .LASF2543
     /tmp/cc8IgIp2.s:72901  .debug_str:0000000000005bf8 .LASF2544
     /tmp/cc8IgIp2.s:73821  .debug_str:00000000000085c8 .LASF2545
     /tmp/cc8IgIp2.s:71347  .debug_str:00000000000019aa .LASF2546
     /tmp/cc8IgIp2.s:73203  .debug_str:0000000000006946 .LASF2547
     /tmp/cc8IgIp2.s:74185  .debug_str:0000000000009502 .LASF2548
     /tmp/cc8IgIp2.s:76965  .debug_str:0000000000010d77 .LASF2549
     /tmp/cc8IgIp2.s:75691  .debug_str:000000000000d41e .LASF2550
     /tmp/cc8IgIp2.s:73707  .debug_str:00000000000080fa .LASF2551
     /tmp/cc8IgIp2.s:73179  .debug_str:000000000000687a .LASF2552
     /tmp/cc8IgIp2.s:74343  .debug_str:0000000000009c46 .LASF2553
     /tmp/cc8IgIp2.s:74085  .debug_str:0000000000009100 .LASF2554
     /tmp/cc8IgIp2.s:72183  .debug_str:0000000000003f33 .LASF2555
     /tmp/cc8IgIp2.s:78213  .debug_str:00000000000141eb .LASF2556
     /tmp/cc8IgIp2.s:76935  .debug_str:0000000000010bad .LASF2557
     /tmp/cc8IgIp2.s:77625  .debug_str:00000000000127fc .LASF2558
     /tmp/cc8IgIp2.s:74333  .debug_str:0000000000009b87 .LASF2559
     /tmp/cc8IgIp2.s:77765  .debug_str:0000000000012e9e .LASF2560
     /tmp/cc8IgIp2.s:76749  .debug_str:00000000000103aa .LASF2561
     /tmp/cc8IgIp2.s:75823  .debug_str:000000000000da61 .LASF2562
     /tmp/cc8IgIp2.s:72773  .debug_str:00000000000057ee .LASF2563
     /tmp/cc8IgIp2.s:73655  .debug_str:0000000000007e3d .LASF2564
     /tmp/cc8IgIp2.s:71753  .debug_str:0000000000002c37 .LASF2565
     /tmp/cc8IgIp2.s:73229  .debug_str:0000000000006a57 .LASF2566
     /tmp/cc8IgIp2.s:75491  .debug_str:000000000000ca72 .LASF2567
     /tmp/cc8IgIp2.s:76037  .debug_str:000000000000e3f1 .LASF2568
     /tmp/cc8IgIp2.s:77407  .debug_str:0000000000011e9f .LASF2569
     /tmp/cc8IgIp2.s:75007  .debug_str:000000000000b614 .LASF2570
     /tmp/cc8IgIp2.s:77993  .debug_str:000000000001389c .LASF2571
     /tmp/cc8IgIp2.s:71677  .debug_str:0000000000002851 .LASF2572
     /tmp/cc8IgIp2.s:74035  .debug_str:0000000000008f05 .LASF2573
     /tmp/cc8IgIp2.s:70813  .debug_str:000000000000046f .LASF2574
     /tmp/cc8IgIp2.s:77459  .debug_str:00000000000120f1 .LASF2575
     /tmp/cc8IgIp2.s:70997  .debug_str:0000000000000c18 .LASF2576
     /tmp/cc8IgIp2.s:75963  .debug_str:000000000000e0cc .LASF2577
     /tmp/cc8IgIp2.s:78181  .debug_str:0000000000014053 .LASF2578
     /tmp/cc8IgIp2.s:75051  .debug_str:000000000000b73e .LASF2579
     /tmp/cc8IgIp2.s:72215  .debug_str:00000000000040a1 .LASF2580
     /tmp/cc8IgIp2.s:74385  .debug_str:0000000000009de6 .LASF2581
     /tmp/cc8IgIp2.s:77831  .debug_str:0000000000013132 .LASF2582
     /tmp/cc8IgIp2.s:76413  .debug_str:000000000000f4d5 .LASF2583
     /tmp/cc8IgIp2.s:71007  .debug_str:0000000000000c6e .LASF2584
     /tmp/cc8IgIp2.s:72517  .debug_str:0000000000004e30 .LASF2585
     /tmp/cc8IgIp2.s:72147  .debug_str:0000000000003d4d .LASF2586
     /tmp/cc8IgIp2.s:71389  .debug_str:0000000000001bb8 .LASF2587
     /tmp/cc8IgIp2.s:72257  .debug_str:00000000000042cd .LASF2588
     /tmp/cc8IgIp2.s:78105  .debug_str:0000000000013dcb .LASF2589
     /tmp/cc8IgIp2.s:71043  .debug_str:0000000000000d73 .LASF2590
     /tmp/cc8IgIp2.s:71139  .debug_str:0000000000001160 .LASF2591
     /tmp/cc8IgIp2.s:74891  .debug_str:000000000000b1b9 .LASF2592
     /tmp/cc8IgIp2.s:75117  .debug_str:000000000000b987 .LASF2593
     /tmp/cc8IgIp2.s:74023  .debug_str:0000000000008e80 .LASF2594
     /tmp/cc8IgIp2.s:77411  .debug_str:0000000000011ed7 .LASF2595
     /tmp/cc8IgIp2.s:75463  .debug_str:000000000000c915 .LASF2596
     /tmp/cc8IgIp2.s:74109  .debug_str:0000000000009264 .LASF2597
     /tmp/cc8IgIp2.s:71605  .debug_str:0000000000002513 .LASF2598
     /tmp/cc8IgIp2.s:71833  .debug_str:0000000000002fbf .LASF2599
     /tmp/cc8IgIp2.s:73301  .debug_str:0000000000006dbd .LASF2600
     /tmp/cc8IgIp2.s:72339  .debug_str:0000000000004667 .LASF2601
     /tmp/cc8IgIp2.s:71847  .debug_str:0000000000003079 .LASF2602
     /tmp/cc8IgIp2.s:73309  .debug_str:0000000000006e19 .LASF2603
     /tmp/cc8IgIp2.s:73111  .debug_str:000000000000652c .LASF2604
     /tmp/cc8IgIp2.s:73815  .debug_str:0000000000008593 .LASF2605
     /tmp/cc8IgIp2.s:77151  .debug_str:0000000000011496 .LASF2606
     /tmp/cc8IgIp2.s:72399  .debug_str:0000000000004949 .LASF2607
     /tmp/cc8IgIp2.s:75989  .debug_str:000000000000e1fa .LASF2608
     /tmp/cc8IgIp2.s:78037  .debug_str:0000000000013aea .LASF2609
     /tmp/cc8IgIp2.s:73359  .debug_str:00000000000070ac .LASF2610
     /tmp/cc8IgIp2.s:77159  .debug_str:00000000000114e7 .LASF2611
     /tmp/cc8IgIp2.s:73045  .debug_str:0000000000006207 .LASF2612
     /tmp/cc8IgIp2.s:71991  .debug_str:00000000000036e0 .LASF2613
     /tmp/cc8IgIp2.s:71629  .debug_str:000000000000261a .LASF2614
     /tmp/cc8IgIp2.s:77361  .debug_str:0000000000011cd6 .LASF2615
     /tmp/cc8IgIp2.s:74793  .debug_str:000000000000adda .LASF2616
     /tmp/cc8IgIp2.s:73549  .debug_str:00000000000078d3 .LASF2617
     /tmp/cc8IgIp2.s:75345  .debug_str:000000000000c389 .LASF2618
     /tmp/cc8IgIp2.s:70969  .debug_str:0000000000000ada .LASF2619
     /tmp/cc8IgIp2.s:76645  .debug_str:000000000000feb6 .LASF2620
     /tmp/cc8IgIp2.s:76885  .debug_str:000000000001097d .LASF2621
     /tmp/cc8IgIp2.s:77717  .debug_str:0000000000012c57 .LASF2622
     /tmp/cc8IgIp2.s:77581  .debug_str:0000000000012655 .LASF2623
     /tmp/cc8IgIp2.s:78031  .debug_str:0000000000013a9c .LASF2624
     /tmp/cc8IgIp2.s:77223  .debug_str:0000000000011746 .LASF2625
     /tmp/cc8IgIp2.s:73165  .debug_str:00000000000067e0 .LASF2626
     /tmp/cc8IgIp2.s:70777  .debug_str:0000000000000301 .LASF2627
     /tmp/cc8IgIp2.s:73949  .debug_str:0000000000008b52 .LASF2628
     /tmp/cc8IgIp2.s:73607  .debug_str:0000000000007be3 .LASF2629
     /tmp/cc8IgIp2.s:71805  .debug_str:0000000000002e92 .LASF2630
     /tmp/cc8IgIp2.s:73853  .debug_str:0000000000008739 .LASF2631
     /tmp/cc8IgIp2.s:75307  .debug_str:000000000000c1fa .LASF2632
     /tmp/cc8IgIp2.s:77981  .debug_str:0000000000013828 .LASF2633
     /tmp/cc8IgIp2.s:71771  .debug_str:0000000000002d04 .LASF2634
     /tmp/cc8IgIp2.s:77415  .debug_str:0000000000011f23 .LASF2635
     /tmp/cc8IgIp2.s:76735  .debug_str:0000000000010310 .LASF2636
     /tmp/cc8IgIp2.s:72985  .debug_str:0000000000005f8d .LASF2637
     /tmp/cc8IgIp2.s:72987  .debug_str:0000000000005fae .LASF2638
     /tmp/cc8IgIp2.s:71211  .debug_str:0000000000001471 .LASF2639
     /tmp/cc8IgIp2.s:76905  .debug_str:0000000000010a37 .LASF2640
     /tmp/cc8IgIp2.s:71421  .debug_str:0000000000001cfb .LASF2641
     /tmp/cc8IgIp2.s:77009  .debug_str:0000000000010f9a .LASF2642
     /tmp/cc8IgIp2.s:77965  .debug_str:0000000000013740 .LASF2643
     /tmp/cc8IgIp2.s:78097  .debug_str:0000000000013d6d .LASF2644
     /tmp/cc8IgIp2.s:73465  .debug_str:00000000000074bd .LASF2645
     /tmp/cc8IgIp2.s:77429  .debug_str:0000000000011f7c .LASF2646
     /tmp/cc8IgIp2.s:77437  .debug_str:0000000000011fc3 .LASF2647
     /tmp/cc8IgIp2.s:77319  .debug_str:0000000000011ae6 .LASF2648
     /tmp/cc8IgIp2.s:78201  .debug_str:0000000000014161 .LASF2649
     /tmp/cc8IgIp2.s:72833  .debug_str:00000000000059e9 .LASF2650
     /tmp/cc8IgIp2.s:72835  .debug_str:00000000000059f9 .LASF2651
     /tmp/cc8IgIp2.s:76047  .debug_str:000000000000e47a .LASF2652
     /tmp/cc8IgIp2.s:71117  .debug_str:0000000000001052 .LASF2653
     /tmp/cc8IgIp2.s:73573  .debug_str:0000000000007a03 .LASF2654
     /tmp/cc8IgIp2.s:76399  .debug_str:000000000000f3f9 .LASF2655
     /tmp/cc8IgIp2.s:76139  .debug_str:000000000000e923 .LASF2656
     /tmp/cc8IgIp2.s:72371  .debug_str:00000000000047dc .LASF2657
     /tmp/cc8IgIp2.s:73737  .debug_str:0000000000008207 .LASF2658
     /tmp/cc8IgIp2.s:73055  .debug_str:0000000000006294 .LASF2659
     /tmp/cc8IgIp2.s:75129  .debug_str:000000000000ba19 .LASF2660
     /tmp/cc8IgIp2.s:75253  .debug_str:000000000000bf4e .LASF2661
     /tmp/cc8IgIp2.s:75243  .debug_str:000000000000bef8 .LASF2662
     /tmp/cc8IgIp2.s:76119  .debug_str:000000000000e827 .LASF2663
     /tmp/cc8IgIp2.s:76795  .debug_str:0000000000010599 .LASF2664
     /tmp/cc8IgIp2.s:75455  .debug_str:000000000000c8b6 .LASF2665
     /tmp/cc8IgIp2.s:76069  .debug_str:000000000000e596 .LASF2666
     /tmp/cc8IgIp2.s:74441  .debug_str:000000000000a03c .LASF2667
     /tmp/cc8IgIp2.s:75457  .debug_str:000000000000c8c6 .LASF2668
     /tmp/cc8IgIp2.s:76071  .debug_str:000000000000e5a6 .LASF2669
     /tmp/cc8IgIp2.s:75413  .debug_str:000000000000c6f2 .LASF2670
     /tmp/cc8IgIp2.s:76461  .debug_str:000000000000f744 .LASF2671
     /tmp/cc8IgIp2.s:76375  .debug_str:000000000000f32b .LASF2672
     /tmp/cc8IgIp2.s:76447  .debug_str:000000000000f679 .LASF2673
     /tmp/cc8IgIp2.s:76463  .debug_str:000000000000f754 .LASF2674
     /tmp/cc8IgIp2.s:77165  .debug_str:000000000001152a .LASF2675
     /tmp/cc8IgIp2.s:71887  .debug_str:0000000000003223 .LASF2676
     /tmp/cc8IgIp2.s:76465  .debug_str:000000000000f764 .LASF2677
     /tmp/cc8IgIp2.s:77167  .debug_str:000000000001153a .LASF2678
     /tmp/cc8IgIp2.s:75167  .debug_str:000000000000bba8 .LASF2679
     /tmp/cc8IgIp2.s:76467  .debug_str:000000000000f774 .LASF2680
     /tmp/cc8IgIp2.s:77169  .debug_str:000000000001154a .LASF2681
     /tmp/cc8IgIp2.s:78081  .debug_str:0000000000013cd1 .LASF2682
     /tmp/cc8IgIp2.s:76469  .debug_str:000000000000f784 .LASF2683
     /tmp/cc8IgIp2.s:77171  .debug_str:000000000001155a .LASF2684
     /tmp/cc8IgIp2.s:73641  .debug_str:0000000000007da8 .LASF2685
     /tmp/cc8IgIp2.s:75807  .debug_str:000000000000d9d8 .LASF2686
     /tmp/cc8IgIp2.s:71209  .debug_str:000000000000145c .LASF2687
     /tmp/cc8IgIp2.s:72685  .debug_str:0000000000005432 .LASF2688
     /tmp/cc8IgIp2.s:77963  .debug_str:0000000000013730 .LASF2689
     /tmp/cc8IgIp2.s:75071  .debug_str:000000000000b83a .LASF2690
     /tmp/cc8IgIp2.s:70767  .debug_str:000000000000025d .LASF2691
     /tmp/cc8IgIp2.s:76863  .debug_str:0000000000010883 .LASF2692
     /tmp/cc8IgIp2.s:71271  .debug_str:0000000000001650 .LASF2693
     /tmp/cc8IgIp2.s:75751  .debug_str:000000000000d759 .LASF2694
     /tmp/cc8IgIp2.s:73117  .debug_str:000000000000657a .LASF2695
     /tmp/cc8IgIp2.s:71861  .debug_str:0000000000003104 .LASF2696
     /tmp/cc8IgIp2.s:71205  .debug_str:0000000000001411 .LASF2697
     /tmp/cc8IgIp2.s:73119  .debug_str:0000000000006590 .LASF2698
     /tmp/cc8IgIp2.s:71275  .debug_str:0000000000001679 .LASF2699
     /tmp/cc8IgIp2.s:74347  .debug_str:0000000000009c7e .LASF2700
     /tmp/cc8IgIp2.s:73121  .debug_str:00000000000065a6 .LASF2701
     /tmp/cc8IgIp2.s:71277  .debug_str:000000000000168f .LASF2702
     /tmp/cc8IgIp2.s:77409  .debug_str:0000000000011ead .LASF2703
     /tmp/cc8IgIp2.s:73123  .debug_str:00000000000065bc .LASF2704
     /tmp/cc8IgIp2.s:71279  .debug_str:00000000000016a5 .LASF2705
     /tmp/cc8IgIp2.s:72971  .debug_str:0000000000005edf .LASF2706
     /tmp/cc8IgIp2.s:73125  .debug_str:00000000000065d2 .LASF2707
     /tmp/cc8IgIp2.s:71281  .debug_str:00000000000016bb .LASF2708
     /tmp/cc8IgIp2.s:72683  .debug_str:0000000000005408 .LASF2709
     /tmp/cc8IgIp2.s:73127  .debug_str:00000000000065e8 .LASF2710
     /tmp/cc8IgIp2.s:71283  .debug_str:00000000000016d1 .LASF2711
     /tmp/cc8IgIp2.s:77645  .debug_str:00000000000128d9 .LASF2712
     /tmp/cc8IgIp2.s:73129  .debug_str:00000000000065fe .LASF2713
     /tmp/cc8IgIp2.s:71285  .debug_str:00000000000016e7 .LASF2714
     /tmp/cc8IgIp2.s:75151  .debug_str:000000000000badf .LASF2715
     /tmp/cc8IgIp2.s:77189  .debug_str:000000000001164d .LASF2716
     /tmp/cc8IgIp2.s:76189  .debug_str:000000000000eb1b .LASF2717
     /tmp/cc8IgIp2.s:70863  .debug_str:0000000000000697 .LASF2718
     /tmp/cc8IgIp2.s:71873  .debug_str:00000000000031a4 .LASF2719
     /tmp/cc8IgIp2.s:74111  .debug_str:0000000000009289 .LASF2720
     /tmp/cc8IgIp2.s:70831  .debug_str:0000000000000538 .LASF2721
     /tmp/cc8IgIp2.s:76225  .debug_str:000000000000ec62 .LASF2722
     /tmp/cc8IgIp2.s:72177  .debug_str:0000000000003ed3 .LASF2723
     /tmp/cc8IgIp2.s:71865  .debug_str:0000000000003137 .LASF2724
     /tmp/cc8IgIp2.s:76865  .debug_str:0000000000010899 .LASF2725
     /tmp/cc8IgIp2.s:76029  .debug_str:000000000000e39f .LASF2726
     /tmp/cc8IgIp2.s:71791  .debug_str:0000000000002dd8 .LASF2727
     /tmp/cc8IgIp2.s:72299  .debug_str:0000000000004509 .LASF2728
     /tmp/cc8IgIp2.s:72909  .debug_str:0000000000005c7a .LASF2729
     /tmp/cc8IgIp2.s:73593  .debug_str:0000000000007ad3 .LASF2730
     /tmp/cc8IgIp2.s:76115  .debug_str:000000000000e7fa .LASF2731
     /tmp/cc8IgIp2.s:74821  .debug_str:000000000000af58 .LASF2732
     /tmp/cc8IgIp2.s:74107  .debug_str:0000000000009236 .LASF2733
     /tmp/cc8IgIp2.s:71617  .debug_str:000000000000259b .LASF2734
     /tmp/cc8IgIp2.s:74169  .debug_str:000000000000947a .LASF2735
     /tmp/cc8IgIp2.s:76897  .debug_str:00000000000109e9 .LASF2736
     /tmp/cc8IgIp2.s:76729  .debug_str:00000000000102d0 .LASF2737
     /tmp/cc8IgIp2.s:72769  .debug_str:00000000000057b5 .LASF2738
     /tmp/cc8IgIp2.s:76727  .debug_str:00000000000102a9 .LASF2739
     /tmp/cc8IgIp2.s:77453  .debug_str:00000000000120b9 .LASF2740
     /tmp/cc8IgIp2.s:73777  .debug_str:00000000000083d8 .LASF2741
     /tmp/cc8IgIp2.s:74661  .debug_str:000000000000a903 .LASF2742
     /tmp/cc8IgIp2.s:73217  .debug_str:0000000000006a10 .LASF2743
     /tmp/cc8IgIp2.s:75293  .debug_str:000000000000c109 .LASF2744
     /tmp/cc8IgIp2.s:77227  .debug_str:000000000001179c .LASF2745
     /tmp/cc8IgIp2.s:76339  .debug_str:000000000000f180 .LASF2746
     /tmp/cc8IgIp2.s:76425  .debug_str:000000000000f572 .LASF2747
     /tmp/cc8IgIp2.s:78125  .debug_str:0000000000013e73 .LASF2748
     /tmp/cc8IgIp2.s:77141  .debug_str:0000000000011417 .LASF2749
     /tmp/cc8IgIp2.s:73907  .debug_str:000000000000897e .LASF2750
     /tmp/cc8IgIp2.s:74167  .debug_str:0000000000009457 .LASF2751
     /tmp/cc8IgIp2.s:76049  .debug_str:000000000000e49e .LASF2752
     /tmp/cc8IgIp2.s:75943  .debug_str:000000000000e01a .LASF2753
     /tmp/cc8IgIp2.s:77821  .debug_str:00000000000130b8 .LASF2754
     /tmp/cc8IgIp2.s:75561  .debug_str:000000000000ce20 .LASF2755
     /tmp/cc8IgIp2.s:70785  .debug_str:0000000000000345 .LASF2756
     /tmp/cc8IgIp2.s:74217  .debug_str:000000000000962b .LASF2757
     /tmp/cc8IgIp2.s:75115  .debug_str:000000000000b96f .LASF2758
     /tmp/cc8IgIp2.s:75433  .debug_str:000000000000c7e8 .LASF2759
     /tmp/cc8IgIp2.s:75305  .debug_str:000000000000c1ce .LASF2760
     /tmp/cc8IgIp2.s:71213  .debug_str:0000000000001482 .LASF2761
     /tmp/cc8IgIp2.s:77003  .debug_str:0000000000010f5b .LASF2762
     /tmp/cc8IgIp2.s:72271  .debug_str:000000000000439a .LASF2763
     /tmp/cc8IgIp2.s:74253  .debug_str:0000000000009811 .LASF2764
     /tmp/cc8IgIp2.s:74295  .debug_str:00000000000099cc .LASF2765
     /tmp/cc8IgIp2.s:77671  .debug_str:00000000000129ef .LASF2766
     /tmp/cc8IgIp2.s:75447  .debug_str:000000000000c873 .LASF2767
     /tmp/cc8IgIp2.s:76609  .debug_str:000000000000fd37 .LASF2768
     /tmp/cc8IgIp2.s:71527  .debug_str:0000000000002140 .LASF2769
     /tmp/cc8IgIp2.s:73163  .debug_str:00000000000067c7 .LASF2770
     /tmp/cc8IgIp2.s:72797  .debug_str:00000000000058c6 .LASF2771
     /tmp/cc8IgIp2.s:75183  .debug_str:000000000000bc5a .LASF2772
     /tmp/cc8IgIp2.s:74299  .debug_str:0000000000009a05 .LASF2773
     /tmp/cc8IgIp2.s:72799  .debug_str:00000000000058df .LASF2774
     /tmp/cc8IgIp2.s:78101  .debug_str:0000000000013d8e .LASF2775
     /tmp/cc8IgIp2.s:73167  .debug_str:00000000000067f2 .LASF2776
     /tmp/cc8IgIp2.s:72801  .debug_str:00000000000058f8 .LASF2777
     /tmp/cc8IgIp2.s:73669  .debug_str:0000000000007ec4 .LASF2778
     /tmp/cc8IgIp2.s:73169  .debug_str:000000000000680b .LASF2779
     /tmp/cc8IgIp2.s:72803  .debug_str:0000000000005911 .LASF2780
     /tmp/cc8IgIp2.s:76757  .debug_str:0000000000010414 .LASF2781
     /tmp/cc8IgIp2.s:77543  .debug_str:00000000000124a6 .LASF2782
     /tmp/cc8IgIp2.s:70879  .debug_str:0000000000000782 .LASF2783
     /tmp/cc8IgIp2.s:74973  .debug_str:000000000000b49d .LASF2784
     /tmp/cc8IgIp2.s:71789  .debug_str:0000000000002dcb .LASF2785
     /tmp/cc8IgIp2.s:72717  .debug_str:00000000000055df .LASF2786
     /tmp/cc8IgIp2.s:76939  .debug_str:0000000000010bd9 .LASF2787
     /tmp/cc8IgIp2.s:72943  .debug_str:0000000000005e2c .LASF2788
     /tmp/cc8IgIp2.s:71777  .debug_str:0000000000002d4d .LASF2789
     /tmp/cc8IgIp2.s:76059  .debug_str:000000000000e524 .LASF2790
     /tmp/cc8IgIp2.s:72441  .debug_str:0000000000004b35 .LASF2791
     /tmp/cc8IgIp2.s:75907  .debug_str:000000000000de45 .LASF2792
     /tmp/cc8IgIp2.s:73843  .debug_str:0000000000008692 .LASF2793
     /tmp/cc8IgIp2.s:75801  .debug_str:000000000000d9af .LASF2794
     /tmp/cc8IgIp2.s:76457  .debug_str:000000000000f711 .LASF2795
     /tmp/cc8IgIp2.s:71831  .debug_str:0000000000002f9d .LASF2796
     /tmp/cc8IgIp2.s:72205  .debug_str:0000000000004046 .LASF2797
     /tmp/cc8IgIp2.s:71039  .debug_str:0000000000000d3b .LASF2798
     /tmp/cc8IgIp2.s:76835  .debug_str:0000000000010721 .LASF2799
     /tmp/cc8IgIp2.s:73817  .debug_str:00000000000085a0 .LASF2800
     /tmp/cc8IgIp2.s:77155  .debug_str:00000000000114ae .LASF2801
     /tmp/cc8IgIp2.s:77907  .debug_str:0000000000013449 .LASF2802
     /tmp/cc8IgIp2.s:71191  .debug_str:0000000000001370 .LASF2803
     /tmp/cc8IgIp2.s:74857  .debug_str:000000000000b047 .LASF2804
     /tmp/cc8IgIp2.s:71661  .debug_str:0000000000002773 .LASF2805
     /tmp/cc8IgIp2.s:72235  .debug_str:0000000000004189 .LASF2806
     /tmp/cc8IgIp2.s:76175  .debug_str:000000000000ea79 .LASF2807
     /tmp/cc8IgIp2.s:73849  .debug_str:00000000000086f9 .LASF2808
     /tmp/cc8IgIp2.s:72923  .debug_str:0000000000005d11 .LASF2809
     /tmp/cc8IgIp2.s:72207  .debug_str:0000000000004052 .LASF2810
     /tmp/cc8IgIp2.s:77449  .debug_str:000000000001206e .LASF2811
     /tmp/cc8IgIp2.s:75087  .debug_str:000000000000b8eb .LASF2812
     /tmp/cc8IgIp2.s:76331  .debug_str:000000000000f124 .LASF2813
     /tmp/cc8IgIp2.s:76403  .debug_str:000000000000f42a .LASF2814
     /tmp/cc8IgIp2.s:73083  .debug_str:00000000000063ec .LASF2815
     /tmp/cc8IgIp2.s:73219  .debug_str:0000000000006a1b .LASF2816
     /tmp/cc8IgIp2.s:76785  .debug_str:0000000000010555 .LASF2817
     /tmp/cc8IgIp2.s:72585  .debug_str:00000000000050ef .LASF2818
     /tmp/cc8IgIp2.s:76635  .debug_str:000000000000fe45 .LASF2819
     /tmp/cc8IgIp2.s:74065  .debug_str:0000000000009047 .LASF2820
     /tmp/cc8IgIp2.s:72587  .debug_str:0000000000005102 .LASF2821
     /tmp/cc8IgIp2.s:76637  .debug_str:000000000000fe58 .LASF2822
     /tmp/cc8IgIp2.s:77111  .debug_str:0000000000011333 .LASF2823
     /tmp/cc8IgIp2.s:73723  .debug_str:0000000000008179 .LASF2824
     /tmp/cc8IgIp2.s:76917  .debug_str:0000000000010ac7 .LASF2825
     /tmp/cc8IgIp2.s:76641  .debug_str:000000000000fe72 .LASF2826
     /tmp/cc8IgIp2.s:75261  .debug_str:000000000000bfb4 .LASF2827
     /tmp/cc8IgIp2.s:76921  .debug_str:0000000000010b06 .LASF2828
     /tmp/cc8IgIp2.s:72065  .debug_str:00000000000039e7 .LASF2829
     /tmp/cc8IgIp2.s:75263  .debug_str:000000000000bfc8 .LASF2830
     /tmp/cc8IgIp2.s:76519  .debug_str:000000000000f9a4 .LASF2831
     /tmp/cc8IgIp2.s:75341  .debug_str:000000000000c35a .LASF2832
     /tmp/cc8IgIp2.s:75265  .debug_str:000000000000bfdc .LASF2833
     /tmp/cc8IgIp2.s:77347  .debug_str:0000000000011c5b .LASF2834
     /tmp/cc8IgIp2.s:78251  .debug_str:00000000000143a0 .LASF2835
     /tmp/cc8IgIp2.s:76737  .debug_str:000000000001031d .LASF2836
     /tmp/cc8IgIp2.s:77349  .debug_str:0000000000011c6f .LASF2837
     /tmp/cc8IgIp2.s:73829  .debug_str:000000000000860e .LASF2838
     /tmp/cc8IgIp2.s:78263  .debug_str:0000000000014420 .LASF2839
     /tmp/cc8IgIp2.s:77479  .debug_str:00000000000121d3 .LASF2840
     /tmp/cc8IgIp2.s:76995  .debug_str:0000000000010ef7 .LASF2841
     /tmp/cc8IgIp2.s:71575  .debug_str:0000000000002393 .LASF2842
     /tmp/cc8IgIp2.s:71937  .debug_str:0000000000003485 .LASF2843
     /tmp/cc8IgIp2.s:72429  .debug_str:0000000000004ac9 .LASF2844
     /tmp/cc8IgIp2.s:75287  .debug_str:000000000000c0d3 .LASF2845
     /tmp/cc8IgIp2.s:71939  .debug_str:0000000000003497 .LASF2846
     /tmp/cc8IgIp2.s:72929  .debug_str:0000000000005d4f .LASF2847
     /tmp/cc8IgIp2.s:72415  .debug_str:0000000000004a2c .LASF2848
     /tmp/cc8IgIp2.s:72905  .debug_str:0000000000005c56 .LASF2849
     /tmp/cc8IgIp2.s:77953  .debug_str:000000000001367f .LASF2850
     /tmp/cc8IgIp2.s:72417  .debug_str:0000000000004a3e .LASF2851
     /tmp/cc8IgIp2.s:72907  .debug_str:0000000000005c68 .LASF2852
     /tmp/cc8IgIp2.s:70827  .debug_str:0000000000000509 .LASF2853
     /tmp/cc8IgIp2.s:72419  .debug_str:0000000000004a50 .LASF2854
     /tmp/cc8IgIp2.s:74671  .debug_str:000000000000a9c4 .LASF2855
     /tmp/cc8IgIp2.s:72809  .debug_str:0000000000005962 .LASF2856
     /tmp/cc8IgIp2.s:71909  .debug_str:0000000000003318 .LASF2857
     /tmp/cc8IgIp2.s:73917  .debug_str:00000000000089f2 .LASF2858
     /tmp/cc8IgIp2.s:75133  .debug_str:000000000000ba2c .LASF2859
     /tmp/cc8IgIp2.s:71455  .debug_str:0000000000001e67 .LASF2860
     /tmp/cc8IgIp2.s:77327  .debug_str:0000000000011b44 .LASF2861
     /tmp/cc8IgIp2.s:71803  .debug_str:0000000000002e6c .LASF2862
     /tmp/cc8IgIp2.s:71763  .debug_str:0000000000002cb1 .LASF2863
     /tmp/cc8IgIp2.s:76705  .debug_str:0000000000010177 .LASF2864
     /tmp/cc8IgIp2.s:72597  .debug_str:0000000000005184 .LASF2865
     /tmp/cc8IgIp2.s:75895  .debug_str:000000000000dd9d .LASF2866
     /tmp/cc8IgIp2.s:73489  .debug_str:00000000000075b4 .LASF2867
     /tmp/cc8IgIp2.s:73007  .debug_str:00000000000060d8 .LASF2868
     /tmp/cc8IgIp2.s:76021  .debug_str:000000000000e34a .LASF2869
     /tmp/cc8IgIp2.s:72171  .debug_str:0000000000003e85 .LASF2870
     /tmp/cc8IgIp2.s:76167  .debug_str:000000000000ea19 .LASF2871
     /tmp/cc8IgIp2.s:74365  .debug_str:0000000000009d5b .LASF2872
     /tmp/cc8IgIp2.s:76481  .debug_str:000000000000f802 .LASF2873
     /tmp/cc8IgIp2.s:73343  .debug_str:0000000000006ff4 .LASF2874
     /tmp/cc8IgIp2.s:77025  .debug_str:0000000000011053 .LASF2875
     /tmp/cc8IgIp2.s:77935  .debug_str:00000000000135c5 .LASF2876
     /tmp/cc8IgIp2.s:72939  .debug_str:0000000000005df9 .LASF2877
     /tmp/cc8IgIp2.s:73241  .debug_str:0000000000006b14 .LASF2878
     /tmp/cc8IgIp2.s:77363  .debug_str:0000000000011cf4 .LASF2879
     /tmp/cc8IgIp2.s:77173  .debug_str:000000000001156a .LASF2880
     /tmp/cc8IgIp2.s:71973  .debug_str:00000000000035d7 .LASF2881
     /tmp/cc8IgIp2.s:75061  .debug_str:000000000000b7c0 .LASF2882
     /tmp/cc8IgIp2.s:72475  .debug_str:0000000000004cd5 .LASF2883
     /tmp/cc8IgIp2.s:78225  .debug_str:00000000000142b1 .LASF2884
     /tmp/cc8IgIp2.s:75421  .debug_str:000000000000c772 .LASF2885
     /tmp/cc8IgIp2.s:75383  .debug_str:000000000000c5a1 .LASF2886
     /tmp/cc8IgIp2.s:77217  .debug_str:0000000000011705 .LASF2887
     /tmp/cc8IgIp2.s:71971  .debug_str:00000000000035c3 .LASF2888
     /tmp/cc8IgIp2.s:74655  .debug_str:000000000000a8c0 .LASF2889
     /tmp/cc8IgIp2.s:75693  .debug_str:000000000000d445 .LASF2890
     /tmp/cc8IgIp2.s:74041  .debug_str:0000000000008f44 .LASF2891
     /tmp/cc8IgIp2.s:73719  .debug_str:0000000000008143 .LASF2892
     /tmp/cc8IgIp2.s:74527  .debug_str:000000000000a41a .LASF2893
     /tmp/cc8IgIp2.s:72691  .debug_str:0000000000005482 .LASF2894
     /tmp/cc8IgIp2.s:75825  .debug_str:000000000000da94 .LASF2895
     /tmp/cc8IgIp2.s:71619  .debug_str:00000000000025af .LASF2896
     /tmp/cc8IgIp2.s:77885  .debug_str:0000000000013372 .LASF2897
     /tmp/cc8IgIp2.s:78069  .debug_str:0000000000013c4c .LASF2898
     /tmp/cc8IgIp2.s:76145  .debug_str:000000000000e969 .LASF2899
     /tmp/cc8IgIp2.s:71351  .debug_str:00000000000019e1 .LASF2900
     /tmp/cc8IgIp2.s:71603  .debug_str:00000000000024ea .LASF2901
     /tmp/cc8IgIp2.s:77373  .debug_str:0000000000011d4b .LASF2902
     /tmp/cc8IgIp2.s:73609  .debug_str:0000000000007c03 .LASF2903
     /tmp/cc8IgIp2.s:76511  .debug_str:000000000000f931 .LASF2904
     /tmp/cc8IgIp2.s:72505  .debug_str:0000000000004da0 .LASF2905
     /tmp/cc8IgIp2.s:76263  .debug_str:000000000000ee0a .LASF2906
     /tmp/cc8IgIp2.s:72831  .debug_str:00000000000059c5 .LASF2907
     /tmp/cc8IgIp2.s:76999  .debug_str:0000000000010f2b .LASF2908
     /tmp/cc8IgIp2.s:72357  .debug_str:0000000000004731 .LASF2909
     /tmp/cc8IgIp2.s:71987  .debug_str:00000000000036b2 .LASF2910
     /tmp/cc8IgIp2.s:73637  .debug_str:0000000000007d6d .LASF2911
     /tmp/cc8IgIp2.s:73075  .debug_str:0000000000006373 .LASF2912
     /tmp/cc8IgIp2.s:75581  .debug_str:000000000000cee4 .LASF2913
     /tmp/cc8IgIp2.s:77627  .debug_str:000000000001281f .LASF2914
     /tmp/cc8IgIp2.s:75441  .debug_str:000000000000c840 .LASF2915
     /tmp/cc8IgIp2.s:76739  .debug_str:0000000000010331 .LASF2916
     /tmp/cc8IgIp2.s:76159  .debug_str:000000000000e9d8 .LASF2917
     /tmp/cc8IgIp2.s:74187  .debug_str:0000000000009515 .LASF2918
     /tmp/cc8IgIp2.s:76023  .debug_str:000000000000e357 .LASF2919
     /tmp/cc8IgIp2.s:76411  .debug_str:000000000000f4c1 .LASF2920
     /tmp/cc8IgIp2.s:71817  .debug_str:0000000000002eff .LASF2921
     /tmp/cc8IgIp2.s:72211  .debug_str:0000000000004072 .LASF2922
     /tmp/cc8IgIp2.s:73701  .debug_str:00000000000080ba .LASF2923
     /tmp/cc8IgIp2.s:78227  .debug_str:00000000000142ce .LASF2924
     /tmp/cc8IgIp2.s:72595  .debug_str:0000000000005156 .LASF2925
     /tmp/cc8IgIp2.s:75715  .debug_str:000000000000d555 .LASF2926
     /tmp/cc8IgIp2.s:70787  .debug_str:0000000000000366 .LASF2927
     /tmp/cc8IgIp2.s:77565  .debug_str:0000000000012573 .LASF2928
     /tmp/cc8IgIp2.s:78015  .debug_str:00000000000139d7 .LASF2929
     /tmp/cc8IgIp2.s:74757  .debug_str:000000000000aca6 .LASF2930
     /tmp/cc8IgIp2.s:71049  .debug_str:0000000000000dc6 .LASF2931
     /tmp/cc8IgIp2.s:77855  .debug_str:000000000001323e .LASF2932
     /tmp/cc8IgIp2.s:75319  .debug_str:000000000000c2a2 .LASF2933
     /tmp/cc8IgIp2.s:73187  .debug_str:00000000000068bb .LASF2934
     /tmp/cc8IgIp2.s:73547  .debug_str:00000000000078be .LASF2935
     /tmp/cc8IgIp2.s:72457  .debug_str:0000000000004c04 .LASF2936
     /tmp/cc8IgIp2.s:76855  .debug_str:0000000000010819 .LASF2937
     /tmp/cc8IgIp2.s:70749  .debug_str:0000000000000191 .LASF2938
     /tmp/cc8IgIp2.s:75249  .debug_str:000000000000bf19 .LASF2939
     /tmp/cc8IgIp2.s:74759  .debug_str:000000000000acc1 .LASF2940
     /tmp/cc8IgIp2.s:76079  .debug_str:000000000000e603 .LASF2941
     /tmp/cc8IgIp2.s:77059  .debug_str:0000000000011187 .LASF2942
     /tmp/cc8IgIp2.s:77329  .debug_str:0000000000011b56 .LASF2943
     /tmp/cc8IgIp2.s:72153  .debug_str:0000000000003d8b .LASF2944
     /tmp/cc8IgIp2.s:71185  .debug_str:0000000000001326 .LASF2945
     /tmp/cc8IgIp2.s:72043  .debug_str:0000000000003900 .LASF2946
     /tmp/cc8IgIp2.s:72155  .debug_str:0000000000003da8 .LASF2947
     /tmp/cc8IgIp2.s:71189  .debug_str:0000000000001353 .LASF2948
     /tmp/cc8IgIp2.s:75317  .debug_str:000000000000c271 .LASF2949
     /tmp/cc8IgIp2.s:76361  .debug_str:000000000000f288 .LASF2950
     /tmp/cc8IgIp2.s:71863  .debug_str:000000000000311a .LASF2951
     /tmp/cc8IgIp2.s:74519  .debug_str:000000000000a38f .LASF2952
     /tmp/cc8IgIp2.s:76363  .debug_str:000000000000f2a5 .LASF2953
     /tmp/cc8IgIp2.s:76943  .debug_str:0000000000010c1a .LASF2954
     /tmp/cc8IgIp2.s:73763  .debug_str:0000000000008346 .LASF2955
     /tmp/cc8IgIp2.s:76493  .debug_str:000000000000f868 .LASF2956
     /tmp/cc8IgIp2.s:74013  .debug_str:0000000000008e0c .LASF2957
     /tmp/cc8IgIp2.s:72721  .debug_str:0000000000005614 .LASF2958
     /tmp/cc8IgIp2.s:77589  .debug_str:00000000000126aa .LASF2959
     /tmp/cc8IgIp2.s:74015  .debug_str:0000000000008e27 .LASF2960
     /tmp/cc8IgIp2.s:73751  .debug_str:00000000000082a9 .LASF2961
     /tmp/cc8IgIp2.s:72445  .debug_str:0000000000004b5a .LASF2962
     /tmp/cc8IgIp2.s:76777  .debug_str:00000000000104f2 .LASF2963
     /tmp/cc8IgIp2.s:71931  .debug_str:000000000000343a .LASF2964
     /tmp/cc8IgIp2.s:77233  .debug_str:000000000001180c .LASF2965
     /tmp/cc8IgIp2.s:76779  .debug_str:000000000001050d .LASF2966
     /tmp/cc8IgIp2.s:75197  .debug_str:000000000000bd2b .LASF2967
     /tmp/cc8IgIp2.s:70875  .debug_str:0000000000000748 .LASF2968
     /tmp/cc8IgIp2.s:76373  .debug_str:000000000000f30e .LASF2969
     /tmp/cc8IgIp2.s:73933  .debug_str:0000000000008a93 .LASF2970
     /tmp/cc8IgIp2.s:70877  .debug_str:0000000000000765 .LASF2971
     /tmp/cc8IgIp2.s:77697  .debug_str:0000000000012b39 .LASF2972
     /tmp/cc8IgIp2.s:72459  .debug_str:0000000000004c19 .LASF2973
     /tmp/cc8IgIp2.s:73783  .debug_str:0000000000008409 .LASF2974
     /tmp/cc8IgIp2.s:74335  .debug_str:0000000000009bbe .LASF2975
     /tmp/cc8IgIp2.s:71713  .debug_str:0000000000002a71 .LASF2976
     /tmp/cc8IgIp2.s:73785  .debug_str:0000000000008426 .LASF2977
     /tmp/cc8IgIp2.s:74337  .debug_str:0000000000009bdb .LASF2978
     /tmp/cc8IgIp2.s:74931  .debug_str:000000000000b350 .LASF2979
     /tmp/cc8IgIp2.s:76209  .debug_str:000000000000ebd6 .LASF2980
     /tmp/cc8IgIp2.s:73453  .debug_str:0000000000007444 .LASF2981
     /tmp/cc8IgIp2.s:75049  .debug_str:000000000000b711 .LASF2982
     /tmp/cc8IgIp2.s:76213  .debug_str:000000000000ebf9 .LASF2983
     /tmp/cc8IgIp2.s:78089  .debug_str:0000000000013d2b .LASF2984
     /tmp/cc8IgIp2.s:77997  .debug_str:0000000000013902 .LASF2985
     /tmp/cc8IgIp2.s:70921  .debug_str:000000000000093d .LASF2986
     /tmp/cc8IgIp2.s:75765  .debug_str:000000000000d839 .LASF2987
     /tmp/cc8IgIp2.s:77335  .debug_str:0000000000011baa .LASF2988
     /tmp/cc8IgIp2.s:78025  .debug_str:0000000000013a5c .LASF2989
     /tmp/cc8IgIp2.s:71121  .debug_str:0000000000001085 .LASF2990
     /tmp/cc8IgIp2.s:78161  .debug_str:0000000000013f88 .LASF2991
     /tmp/cc8IgIp2.s:73577  .debug_str:0000000000007a29 .LASF2992
     /tmp/cc8IgIp2.s:78185  .debug_str:0000000000014087 .LASF2993
     /tmp/cc8IgIp2.s:70911  .debug_str:00000000000008d0 .LASF2994
     /tmp/cc8IgIp2.s:77867  .debug_str:00000000000132cc .LASF2995
     /tmp/cc8IgIp2.s:75191  .debug_str:000000000000bcf1 .LASF2996
     /tmp/cc8IgIp2.s:75837  .debug_str:000000000000db3d .LASF2997
     /tmp/cc8IgIp2.s:74177  .debug_str:00000000000094b9 .LASF2998
     /tmp/cc8IgIp2.s:74943  .debug_str:000000000000b3dd .LASF2999
     /tmp/cc8IgIp2.s:74603  .debug_str:000000000000a6a4 .LASF3000
     /tmp/cc8IgIp2.s:73295  .debug_str:0000000000006d78 .LASF3001
     /tmp/cc8IgIp2.s:72239  .debug_str:00000000000041c3 .LASF3002
     /tmp/cc8IgIp2.s:71525  .debug_str:0000000000002115 .LASF3003
     /tmp/cc8IgIp2.s:75839  .debug_str:000000000000db64 .LASF3004
     /tmp/cc8IgIp2.s:73475  .debug_str:0000000000007508 .LASF3005
     /tmp/cc8IgIp2.s:77673  .debug_str:0000000000012a1a .LASF3006
     /tmp/cc8IgIp2.s:70975  .debug_str:0000000000000b23 .LASF3007
     /tmp/cc8IgIp2.s:76005  .debug_str:000000000000e28f .LASF3008
     /tmp/cc8IgIp2.s:72869  .debug_str:0000000000005b24 .LASF3009
     /tmp/cc8IgIp2.s:73013  .debug_str:000000000000612a .LASF3010
     /tmp/cc8IgIp2.s:75369  .debug_str:000000000000c4e3 .LASF3011
     /tmp/cc8IgIp2.s:76135  .debug_str:000000000000e8f4 .LASF3012
     /tmp/cc8IgIp2.s:71129  .debug_str:00000000000010db .LASF3013
     /tmp/cc8IgIp2.s:76747  .debug_str:0000000000010395 .LASF3014
     /tmp/cc8IgIp2.s:76871  .debug_str:00000000000108c9 .LASF3015
     /tmp/cc8IgIp2.s:75697  .debug_str:000000000000d480 .LASF3016
     /tmp/cc8IgIp2.s:72143  .debug_str:0000000000003d2d .LASF3017
     /tmp/cc8IgIp2.s:70773  .debug_str:00000000000002be .LASF3018
     /tmp/cc8IgIp2.s:74383  .debug_str:0000000000009dda .LASF3019
     /tmp/cc8IgIp2.s:75871  .debug_str:000000000000dc97 .LASF3020
     /tmp/cc8IgIp2.s:72327  .debug_str:00000000000045f0 .LASF3021
     /tmp/cc8IgIp2.s:74139  .debug_str:0000000000009350 .LASF3022
     /tmp/cc8IgIp2.s:72913  .debug_str:0000000000005ca6 .LASF3023
     /tmp/cc8IgIp2.s:71119  .debug_str:0000000000001061 .LASF3024
     /tmp/cc8IgIp2.s:77529  .debug_str:0000000000012407 .LASF3025
     /tmp/cc8IgIp2.s:71005  .debug_str:0000000000000c55 .LASF3026
     /tmp/cc8IgIp2.s:71697  .debug_str:000000000000295e .LASF3027
     /tmp/cc8IgIp2.s:76677  .debug_str:0000000000010021 .LASF3028
     /tmp/cc8IgIp2.s:71225  .debug_str:00000000000014fd .LASF3029
     /tmp/cc8IgIp2.s:76201  .debug_str:000000000000eb85 .LASF3030
     /tmp/cc8IgIp2.s:73155  .debug_str:0000000000006786 .LASF3031
     /tmp/cc8IgIp2.s:77653  .debug_str:000000000001291f .LASF3032
     /tmp/cc8IgIp2.s:76811  .debug_str:0000000000010641 .LASF3033
     /tmp/cc8IgIp2.s:74043  .debug_str:0000000000008f58 .LASF3034
     /tmp/cc8IgIp2.s:74981  .debug_str:000000000000b519 .LASF3035
     /tmp/cc8IgIp2.s:77029  .debug_str:0000000000011072 .LASF3036
     /tmp/cc8IgIp2.s:70821  .debug_str:00000000000004ca .LASF3037
     /tmp/cc8IgIp2.s:73047  .debug_str:0000000000006221 .LASF3038
     /tmp/cc8IgIp2.s:74997  .debug_str:000000000000b58c .LASF3039
     /tmp/cc8IgIp2.s:76585  .debug_str:000000000000fc08 .LASF3040
     /tmp/cc8IgIp2.s:75717  .debug_str:000000000000d56c .LASF3041
     /tmp/cc8IgIp2.s:77991  .debug_str:0000000000013870 .LASF3042
     /tmp/cc8IgIp2.s:74159  .debug_str:000000000000941f .LASF3043
     /tmp/cc8IgIp2.s:76597  .debug_str:000000000000fcb6 .LASF3044
     /tmp/cc8IgIp2.s:78007  .debug_str:0000000000013984 .LASF3045
     /tmp/cc8IgIp2.s:77099  .debug_str:00000000000112cb .LASF3046
     /tmp/cc8IgIp2.s:77101  .debug_str:00000000000112da .LASF3047
     /tmp/cc8IgIp2.s:77103  .debug_str:00000000000112e9 .LASF3048
     /tmp/cc8IgIp2.s:73485  .debug_str:0000000000007585 .LASF3049
     /tmp/cc8IgIp2.s:76925  .debug_str:0000000000010b4d .LASF3050
     /tmp/cc8IgIp2.s:71143  .debug_str:0000000000001181 .LASF3051
     /tmp/cc8IgIp2.s:73863  .debug_str:00000000000087c7 .LASF3052
     /tmp/cc8IgIp2.s:75505  .debug_str:000000000000cb23 .LASF3053
     /tmp/cc8IgIp2.s:75297  .debug_str:000000000000c156 .LASF3054
     /tmp/cc8IgIp2.s:72995  .debug_str:0000000000006026 .LASF3055
     /tmp/cc8IgIp2.s:71705  .debug_str:00000000000029f1 .LASF3056
     /tmp/cc8IgIp2.s:77117  .debug_str:0000000000011389 .LASF3057
     /tmp/cc8IgIp2.s:77779  .debug_str:0000000000012f15 .LASF3058
     /tmp/cc8IgIp2.s:75269  .debug_str:000000000000c003 .LASF3059
     /tmp/cc8IgIp2.s:74235  .debug_str:0000000000009764 .LASF3060
     /tmp/cc8IgIp2.s:75257  .debug_str:000000000000bf74 .LASF3061
     /tmp/cc8IgIp2.s:76679  .debug_str:0000000000010037 .LASF3062
     /tmp/cc8IgIp2.s:77485  .debug_str:00000000000121f7 .LASF3063
     /tmp/cc8IgIp2.s:77481  .debug_str:00000000000121e5 .LASF3064
     /tmp/cc8IgIp2.s:77483  .debug_str:00000000000121ee .LASF3065
     /tmp/cc8IgIp2.s:75793  .debug_str:000000000000d96e .LASF3066
     /tmp/cc8IgIp2.s:71627  .debug_str:0000000000002615 .LASF3067
     /tmp/cc8IgIp2.s:73619  .debug_str:0000000000007c69 .LASF3068
     /tmp/cc8IgIp2.s:77815  .debug_str:000000000001307f .LASF3069
     /tmp/cc8IgIp2.s:74449  .debug_str:000000000000a0a8 .LASF3070
     /tmp/cc8IgIp2.s:77773  .debug_str:0000000000012ef2 .LASF3071
     /tmp/cc8IgIp2.s:77105  .debug_str:00000000000112f8 .LASF3072
     /tmp/cc8IgIp2.s:76545  .debug_str:000000000000fa60 .LASF3073
     /tmp/cc8IgIp2.s:77107  .debug_str:0000000000011307 .LASF3074
     /tmp/cc8IgIp2.s:74215  .debug_str:0000000000009620 .LASF3075
     /tmp/cc8IgIp2.s:76177  .debug_str:000000000000ea8d .LASF3076
     /tmp/cc8IgIp2.s:76013  .debug_str:000000000000e2ff .LASF3077
     /tmp/cc8IgIp2.s:76497  .debug_str:000000000000f88a .LASF3078
     /tmp/cc8IgIp2.s:72407  .debug_str:00000000000049c5 .LASF3079
     /tmp/cc8IgIp2.s:73871  .debug_str:0000000000008846 .LASF3080
     /tmp/cc8IgIp2.s:74525  .debug_str:000000000000a40e .LASF3081
     /tmp/cc8IgIp2.s:76149  .debug_str:000000000000e997 .LASF3082
     /tmp/cc8IgIp2.s:76451  .debug_str:000000000000f6c4 .LASF3083
     /tmp/cc8IgIp2.s:76153  .debug_str:000000000000e9b2 .LASF3084
     /tmp/cc8IgIp2.s:72471  .debug_str:0000000000004cbf .LASF3085
     /tmp/cc8IgIp2.s:72911  .debug_str:0000000000005c8a .LASF3086
     /tmp/cc8IgIp2.s:71471  .debug_str:0000000000001f1b .LASF3087
     /tmp/cc8IgIp2.s:75245  .debug_str:000000000000bf04 .LASF3088
     /tmp/cc8IgIp2.s:74755  .debug_str:000000000000ac9e .LASF3089
     /tmp/cc8IgIp2.s:73341  .debug_str:0000000000006fe9 .LASF3090
     /tmp/cc8IgIp2.s:71989  .debug_str:00000000000036d9 .LASF3091
     /tmp/cc8IgIp2.s:73497  .debug_str:000000000000762b .LASF3092
     /tmp/cc8IgIp2.s:76229  .debug_str:000000000000ec9f .LASF3093
     /tmp/cc8IgIp2.s:76113  .debug_str:000000000000e7f4 .LASF3094
     /tmp/cc8IgIp2.s:73827  .debug_str:00000000000085f7 .LASF3095
     /tmp/cc8IgIp2.s:70883  .debug_str:00000000000007a0 .LASF3096
     /tmp/cc8IgIp2.s:77297  .debug_str:0000000000011a5b .LASF3097
     /tmp/cc8IgIp2.s:76745  .debug_str:000000000001038f .LASF3098
     /tmp/cc8IgIp2.s:74245  .debug_str:00000000000097d3 .LASF3099
     /tmp/cc8IgIp2.s:75903  .debug_str:000000000000de33 .LASF3100
     /tmp/cc8IgIp2.s:73503  .debug_str:0000000000007675 .LASF3101
     /tmp/cc8IgIp2.s:74787  .debug_str:000000000000ad8b .LASF3102
     /tmp/cc8IgIp2.s:75255  .debug_str:000000000000bf6f .LASF3103
     /tmp/cc8IgIp2.s:73879  .debug_str:0000000000008870 .LASF3104
     /tmp/cc8IgIp2.s:70923  .debug_str:000000000000094e .LASF3105
     /tmp/cc8IgIp2.s:74219  .debug_str:0000000000009660 .LASF3106
     /tmp/cc8IgIp2.s:77417  .debug_str:0000000000011f30 .LASF3107
     /tmp/cc8IgIp2.s:70837  .debug_str:00000000000005ab .LASF3108
     /tmp/cc8IgIp2.s:74515  .debug_str:000000000000a360 .LASF3109
     /tmp/cc8IgIp2.s:74599  .debug_str:000000000000a685 .LASF3110
     /tmp/cc8IgIp2.s:76623  .debug_str:000000000000fde3 .LASF3111
     /tmp/cc8IgIp2.s:73875  .debug_str:000000000000885c .LASF3112
     /tmp/cc8IgIp2.s:74221  .debug_str:0000000000009665 .LASF3113
     /tmp/cc8IgIp2.s:71613  .debug_str:0000000000002570 .LASF3114
     /tmp/cc8IgIp2.s:74579  .debug_str:000000000000a5ee .LASF3115
     /tmp/cc8IgIp2.s:75611  .debug_str:000000000000d04c .LASF3116
     /tmp/cc8IgIp2.s:71813  .debug_str:0000000000002edd .LASF3117
     /tmp/cc8IgIp2.s:76449  .debug_str:000000000000f69d .LASF3118
     /tmp/cc8IgIp2.s:77315  .debug_str:0000000000011ace .LASF3119
     /tmp/cc8IgIp2.s:75969  .debug_str:000000000000e105 .LASF3120
     /tmp/cc8IgIp2.s:76281  .debug_str:000000000000eee1 .LASF3121
     /tmp/cc8IgIp2.s:77939  .debug_str:00000000000135e4 .LASF3122
     /tmp/cc8IgIp2.s:75881  .debug_str:000000000000dcf3 .LASF3123
     /tmp/cc8IgIp2.s:72209  .debug_str:0000000000004068 .LASF3124
     /tmp/cc8IgIp2.s:75609  .debug_str:000000000000d040 .LASF3125
     /tmp/cc8IgIp2.s:72473  .debug_str:0000000000004cca .LASF3126
     /tmp/cc8IgIp2.s:76833  .debug_str:0000000000010715 .LASF3127
     /tmp/cc8IgIp2.s:70971  .debug_str:0000000000000b0a .LASF3128
     /tmp/cc8IgIp2.s:74887  .debug_str:000000000000b196 .LASF3129
     /tmp/cc8IgIp2.s:75995  .debug_str:000000000000e231 .LASF3130
     /tmp/cc8IgIp2.s:75155  .debug_str:000000000000bb12 .LASF3131
     /tmp/cc8IgIp2.s:75667  .debug_str:000000000000d30d .LASF3132
     /tmp/cc8IgIp2.s:77187  .debug_str:0000000000011643 .LASF3133
     /tmp/cc8IgIp2.s:72481  .debug_str:0000000000004d2b .LASF3134
     /tmp/cc8IgIp2.s:75339  .debug_str:000000000000c344 .LASF3135
     /tmp/cc8IgIp2.s:78243  .debug_str:0000000000014364 .LASF3136
     /tmp/cc8IgIp2.s:75913  .debug_str:000000000000de81 .LASF3137
     /tmp/cc8IgIp2.s:71591  .debug_str:0000000000002446 .LASF3138
     /tmp/cc8IgIp2.s:71411  .debug_str:0000000000001c8e .LASF3139
     /tmp/cc8IgIp2.s:76589  .debug_str:000000000000fc27 .LASF3140
     /tmp/cc8IgIp2.s:76035  .debug_str:000000000000e3eb .LASF3141
     /tmp/cc8IgIp2.s:78253  .debug_str:00000000000143c8 .LASF3142
     /tmp/cc8IgIp2.s:75331  .debug_str:000000000000c2ff .LASF3143
     /tmp/cc8IgIp2.s:72611  .debug_str:00000000000051f0 .LASF3144
     /tmp/cc8IgIp2.s:75493  .debug_str:000000000000ca88 .LASF3145
     /tmp/cc8IgIp2.s:75515  .debug_str:000000000000cbba .LASF3146
     /tmp/cc8IgIp2.s:76869  .debug_str:00000000000108c3 .LASF3147
     /tmp/cc8IgIp2.s:75987  .debug_str:000000000000e1f2 .LASF3148
     /tmp/cc8IgIp2.s:76083  .debug_str:000000000000e641 .LASF3149
     /tmp/cc8IgIp2.s:72783  .debug_str:0000000000005847 .LASF3150
     /tmp/cc8IgIp2.s:76303  .debug_str:000000000000efa0 .LASF3151
     /tmp/cc8IgIp2.s:72777  .debug_str:0000000000005817 .LASF3152
     /tmp/cc8IgIp2.s:70927  .debug_str:0000000000000962 .LASF3153
     /tmp/cc8IgIp2.s:74361  .debug_str:0000000000009d39 .LASF3154
     /tmp/cc8IgIp2.s:72605  .debug_str:00000000000051d1 .LASF3155
     /tmp/cc8IgIp2.s:74019  .debug_str:0000000000008e59 .LASF3156
     /tmp/cc8IgIp2.s:73601  .debug_str:0000000000007b74 .LASF3157
     /tmp/cc8IgIp2.s:74047  .debug_str:0000000000008f76 .LASF3158
     /tmp/cc8IgIp2.s:76237  .debug_str:000000000000eceb .LASF3159
     /tmp/cc8IgIp2.s:73081  .debug_str:00000000000063c6 .LASF3160
     /tmp/cc8IgIp2.s:70761  .debug_str:000000000000022c .LASF3161
     /tmp/cc8IgIp2.s:73833  .debug_str:000000000000863d .LASF3162
     /tmp/cc8IgIp2.s:73539  .debug_str:0000000000007874 .LASF3163
     /tmp/cc8IgIp2.s:76829  .debug_str:0000000000010708 .LASF3164
     /tmp/cc8IgIp2.s:78163  .debug_str:0000000000013fae .LASF3165
     /tmp/cc8IgIp2.s:72351  .debug_str:00000000000046f2 .LASF3166
     /tmp/cc8IgIp2.s:75587  .debug_str:000000000000cf3c .LASF3167
     /tmp/cc8IgIp2.s:77649  .debug_str:0000000000012909 .LASF3168
     /tmp/cc8IgIp2.s:71513  .debug_str:000000000000209d .LASF3169
     /tmp/cc8IgIp2.s:71785  .debug_str:0000000000002db0 .LASF3170
     /tmp/cc8IgIp2.s:74293  .debug_str:00000000000099c5 .LASF3171
     /tmp/cc8IgIp2.s:76197  .debug_str:000000000000eb58 .LASF3172
     /tmp/cc8IgIp2.s:71595  .debug_str:0000000000002478 .LASF3173
     /tmp/cc8IgIp2.s:75575  .debug_str:000000000000ceb7 .LASF3174
     /tmp/cc8IgIp2.s:72149  .debug_str:0000000000003d76 .LASF3175
     /tmp/cc8IgIp2.s:71431  .debug_str:0000000000001d52 .LASF3176
     /tmp/cc8IgIp2.s:77933  .debug_str:00000000000135bb .LASF3177
     /tmp/cc8IgIp2.s:73285  .debug_str:0000000000006d20 .LASF3178
     /tmp/cc8IgIp2.s:77937  .debug_str:00000000000135da .LASF3179
     /tmp/cc8IgIp2.s:73289  .debug_str:0000000000006d3a .LASF3180
     /tmp/cc8IgIp2.s:77941  .debug_str:000000000001360a .LASF3181
     /tmp/cc8IgIp2.s:73709  .debug_str:000000000000810f .LASF3182
     /tmp/cc8IgIp2.s:71085  .debug_str:0000000000000f3c .LASF3183
     /tmp/cc8IgIp2.s:76051  .debug_str:000000000000e4bf .LASF3184
     /tmp/cc8IgIp2.s:71403  .debug_str:0000000000001c42 .LASF3185
     /tmp/cc8IgIp2.s:74395  .debug_str:0000000000009e3c .LASF3186
     /tmp/cc8IgIp2.s:74405  .debug_str:0000000000009ec2 .LASF3187
     /tmp/cc8IgIp2.s:72463  .debug_str:0000000000004c6c .LASF3188
     /tmp/cc8IgIp2.s:74407  .debug_str:0000000000009ecd .LASF3189
     /tmp/cc8IgIp2.s:76675  .debug_str:000000000000fffa .LASF3190
     /tmp/cc8IgIp2.s:74409  .debug_str:0000000000009ed8 .LASF3191
     /tmp/cc8IgIp2.s:77949  .debug_str:0000000000013646 .LASF3192
     /tmp/cc8IgIp2.s:71339  .debug_str:000000000000194f .LASF3193
     /tmp/cc8IgIp2.s:75373  .debug_str:000000000000c51c .LASF3194
     /tmp/cc8IgIp2.s:74413  .debug_str:0000000000009eeb .LASF3195
     /tmp/cc8IgIp2.s:78273  .debug_str:000000000001449a .LASF3196
     /tmp/cc8IgIp2.s:73423  .debug_str:0000000000007348 .LASF3197
     /tmp/cc8IgIp2.s:75655  .debug_str:000000000000d27d .LASF3198
     /tmp/cc8IgIp2.s:73425  .debug_str:0000000000007352 .LASF3199
     /tmp/cc8IgIp2.s:71057  .debug_str:0000000000000e47 .LASF3200
     /tmp/cc8IgIp2.s:73427  .debug_str:000000000000735c .LASF3201
     /tmp/cc8IgIp2.s:74231  .debug_str:000000000000971d .LASF3202
     /tmp/cc8IgIp2.s:73429  .debug_str:0000000000007366 .LASF3203
     /tmp/cc8IgIp2.s:71531  .debug_str:000000000000217d .LASF3204
     /tmp/cc8IgIp2.s:73713  .debug_str:0000000000008125 .LASF3205
     /tmp/cc8IgIp2.s:72771  .debug_str:00000000000057c8 .LASF3206
     /tmp/cc8IgIp2.s:73715  .debug_str:000000000000812f .LASF3207
     /tmp/cc8IgIp2.s:75899  .debug_str:000000000000ddd7 .LASF3208
     /tmp/cc8IgIp2.s:73717  .debug_str:0000000000008139 .LASF3209
     /tmp/cc8IgIp2.s:71373  .debug_str:0000000000001ae2 .LASF3210
     /tmp/cc8IgIp2.s:73441  .debug_str:00000000000073a1 .LASF3211
     /tmp/cc8IgIp2.s:74513  .debug_str:000000000000a33a .LASF3212
     /tmp/cc8IgIp2.s:78135  .debug_str:0000000000013ee4 .LASF3213
     /tmp/cc8IgIp2.s:73185  .debug_str:00000000000068ae .LASF3214
     /tmp/cc8IgIp2.s:74649  .debug_str:000000000000a858 .LASF3215
     /tmp/cc8IgIp2.s:72843  .debug_str:0000000000005a51 .LASF3216
     /tmp/cc8IgIp2.s:77419  .debug_str:0000000000011f36 .LASF3217
     /tmp/cc8IgIp2.s:73673  .debug_str:0000000000007efd .LASF3218
     /tmp/cc8IgIp2.s:74679  .debug_str:000000000000aa13 .LASF3219
     /tmp/cc8IgIp2.s:75675  .debug_str:000000000000d350 .LASF3220
     /tmp/cc8IgIp2.s:77457  .debug_str:00000000000120ea .LASF3221
     /tmp/cc8IgIp2.s:77383  .debug_str:0000000000011dbb .LASF3222
     /tmp/cc8IgIp2.s:71195  .debug_str:0000000000001395 .LASF3223
     /tmp/cc8IgIp2.s:74743  .debug_str:000000000000ac3b .LASF3224
     /tmp/cc8IgIp2.s:74255  .debug_str:0000000000009828 .LASF3225
     /tmp/cc8IgIp2.s:73553  .debug_str:0000000000007904 .LASF3226
     /tmp/cc8IgIp2.s:77443  .debug_str:000000000001201d .LASF3227
     /tmp/cc8IgIp2.s:76419  .debug_str:000000000000f533 .LASF3228
     /tmp/cc8IgIp2.s:74119  .debug_str:00000000000092da .LASF3229
     /tmp/cc8IgIp2.s:71695  .debug_str:0000000000002934 .LASF3230
     /tmp/cc8IgIp2.s:77041  .debug_str:00000000000110e1 .LASF3231
     /tmp/cc8IgIp2.s:75875  .debug_str:000000000000dcb5 .LASF3232
     /tmp/cc8IgIp2.s:74345  .debug_str:0000000000009c6f .LASF3233
     /tmp/cc8IgIp2.s:75599  .debug_str:000000000000cfdb .LASF3234
     /tmp/cc8IgIp2.s:72051  .debug_str:0000000000003969 .LASF3235
     /tmp/cc8IgIp2.s:75815  .debug_str:000000000000da32 .LASF3236
     /tmp/cc8IgIp2.s:71849  .debug_str:0000000000003083 .LASF3237
     /tmp/cc8IgIp2.s:77905  .debug_str:000000000001343d .LASF3238
     /tmp/cc8IgIp2.s:74659  .debug_str:000000000000a8f2 .LASF3239
     /tmp/cc8IgIp2.s:76441  .debug_str:000000000000f62e .LASF3240
     /tmp/cc8IgIp2.s:74683  .debug_str:000000000000aa2f .LASF3241
     /tmp/cc8IgIp2.s:77683  .debug_str:0000000000012aa9 .LASF3242
     /tmp/cc8IgIp2.s:71647  .debug_str:00000000000026fe .LASF3243
     /tmp/cc8IgIp2.s:71963  .debug_str:0000000000003560 .LASF3244
     /tmp/cc8IgIp2.s:75651  .debug_str:000000000000d243 .LASF3245
     /tmp/cc8IgIp2.s:72159  .debug_str:0000000000003e00 .LASF3246
     /tmp/cc8IgIp2.s:70913  .debug_str:00000000000008f0 .LASF3247
     /tmp/cc8IgIp2.s:73555  .debug_str:000000000000790f .LASF3248
     /tmp/cc8IgIp2.s:77903  .debug_str:0000000000013434 .LASF3249
     /tmp/cc8IgIp2.s:76433  .debug_str:000000000000f5dc .LASF3250
     /tmp/cc8IgIp2.s:73977  .debug_str:0000000000008cb9 .LASF3251
     /tmp/cc8IgIp2.s:74589  .debug_str:000000000000a63e .LASF3252
     /tmp/cc8IgIp2.s:77031  .debug_str:000000000001109b .LASF3253
     /tmp/cc8IgIp2.s:71009  .debug_str:0000000000000c83 .LASF3254
     /tmp/cc8IgIp2.s:75791  .debug_str:000000000000d965 .LASF3255
     /tmp/cc8IgIp2.s:76245  .debug_str:000000000000ed3e .LASF3256
     /tmp/cc8IgIp2.s:74027  .debug_str:0000000000008eb1 .LASF3257
     /tmp/cc8IgIp2.s:71807  .debug_str:0000000000002eb2 .LASF3258
     /tmp/cc8IgIp2.s:71809  .debug_str:0000000000002eb7 .LASF3259
     /tmp/cc8IgIp2.s:73631  .debug_str:0000000000007d12 .LASF3260
     /tmp/cc8IgIp2.s:72225  .debug_str:0000000000004118 .LASF3261
     /tmp/cc8IgIp2.s:73831  .debug_str:0000000000008636 .LASF3262
     /tmp/cc8IgIp2.s:74993  .debug_str:000000000000b562 .LASF3263
     /tmp/cc8IgIp2.s:77615  .debug_str:00000000000127b1 .LASF3264
     /tmp/cc8IgIp2.s:77617  .debug_str:00000000000127b7 .LASF3265
     /tmp/cc8IgIp2.s:77619  .debug_str:00000000000127bd .LASF3266
     /tmp/cc8IgIp2.s:75889  .debug_str:000000000000dd4c .LASF3267
     /tmp/cc8IgIp2.s:74243  .debug_str:00000000000097c3 .LASF3268
     /tmp/cc8IgIp2.s:75739  .debug_str:000000000000d6b3 .LASF3269
     /tmp/cc8IgIp2.s:76231  .debug_str:000000000000ecac .LASF3270
     /tmp/cc8IgIp2.s:72699  .debug_str:00000000000054d5 .LASF3271
     /tmp/cc8IgIp2.s:71047  .debug_str:0000000000000db4 .LASF3272
     /tmp/cc8IgIp2.s:75423  .debug_str:000000000000c78f .LASF3273
     /tmp/cc8IgIp2.s:71787  .debug_str:0000000000002db6 .LASF3274
     /tmp/cc8IgIp2.s:77715  .debug_str:0000000000012c47 .LASF3275
     /tmp/cc8IgIp2.s:70809  .debug_str:0000000000000458 .LASF3276
     /tmp/cc8IgIp2.s:74575  .debug_str:000000000000a5a8 .LASF3277
     /tmp/cc8IgIp2.s:76369  .debug_str:000000000000f2f8 .LASF3278
     /tmp/cc8IgIp2.s:77573  .debug_str:00000000000125fb .LASF3279
     /tmp/cc8IgIp2.s:71187  .debug_str:0000000000001343 .LASF3280
     /tmp/cc8IgIp2.s:75327  .debug_str:000000000000c2d1 .LASF3281
     /tmp/cc8IgIp2.s:78067  .debug_str:0000000000013c38 .LASF3282
     /tmp/cc8IgIp2.s:70781  .debug_str:0000000000000324 .LASF3283
     /tmp/cc8IgIp2.s:73195  .debug_str:000000000000690e .LASF3284
     /tmp/cc8IgIp2.s:75393  .debug_str:000000000000c60e .LASF3285
     /tmp/cc8IgIp2.s:73899  .debug_str:000000000000892c .LASF3286
     /tmp/cc8IgIp2.s:74539  .debug_str:000000000000a491 .LASF3287
     /tmp/cc8IgIp2.s:75523  .debug_str:000000000000cc31 .LASF3288
     /tmp/cc8IgIp2.s:74657  .debug_str:000000000000a8e8 .LASF3289
     /tmp/cc8IgIp2.s:74281  .debug_str:0000000000009937 .LASF3290
     /tmp/cc8IgIp2.s:73171  .debug_str:0000000000006824 .LASF3291
     /tmp/cc8IgIp2.s:75795  .debug_str:000000000000d977 .LASF3292
     /tmp/cc8IgIp2.s:75653  .debug_str:000000000000d250 .LASF3293
     /tmp/cc8IgIp2.s:75997  .debug_str:000000000000e23f .LASF3294
     /tmp/cc8IgIp2.s:73041  .debug_str:00000000000061c4 .LASF3295
     /tmp/cc8IgIp2.s:77753  .debug_str:0000000000012e1b .LASF3296
     /tmp/cc8IgIp2.s:72689  .debug_str:0000000000005471 .LASF3297
     /tmp/cc8IgIp2.s:77823  .debug_str:00000000000130ed .LASF3298
     /tmp/cc8IgIp2.s:77225  .debug_str:000000000001176d .LASF3299
     /tmp/cc8IgIp2.s:76391  .debug_str:000000000000f3b7 .LASF3300
     /tmp/cc8IgIp2.s:74319  .debug_str:0000000000009ae4 .LASF3301
     /tmp/cc8IgIp2.s:73779  .debug_str:00000000000083e2 .LASF3302
     /tmp/cc8IgIp2.s:73133  .debug_str:0000000000006624 .LASF3303
     /tmp/cc8IgIp2.s:77913  .debug_str:000000000001349a .LASF3304
     /tmp/cc8IgIp2.s:77471  .debug_str:000000000001216e .LASF3305
     /tmp/cc8IgIp2.s:74849  .debug_str:000000000000aff3 .LASF3306
     /tmp/cc8IgIp2.s:73797  .debug_str:00000000000084c3 .LASF3307
     /tmp/cc8IgIp2.s:76787  .debug_str:0000000000010571 .LASF3308
     /tmp/cc8IgIp2.s:76789  .debug_str:0000000000010577 .LASF3309
     /tmp/cc8IgIp2.s:71945  .debug_str:00000000000034c5 .LASF3310
     /tmp/cc8IgIp2.s:73205  .debug_str:0000000000006970 .LASF3311
     /tmp/cc8IgIp2.s:74211  .debug_str:00000000000095f7 .LASF3312
     /tmp/cc8IgIp2.s:72131  .debug_str:0000000000003c9c .LASF3313
     /tmp/cc8IgIp2.s:77771  .debug_str:0000000000012ee9 .LASF3314
     /tmp/cc8IgIp2.s:71851  .debug_str:0000000000003094 .LASF3315
     /tmp/cc8IgIp2.s:70999  .debug_str:0000000000000c21 .LASF3316
     /tmp/cc8IgIp2.s:71533  .debug_str:00000000000021a3 .LASF3317
     /tmp/cc8IgIp2.s:74747  .debug_str:000000000000ac5a .LASF3318
     /tmp/cc8IgIp2.s:75949  .debug_str:000000000000e05c .LASF3319
     /tmp/cc8IgIp2.s:76831  .debug_str:000000000001070d .LASF3320
     /tmp/cc8IgIp2.s:76767  .debug_str:0000000000010496 .LASF3321
     /tmp/cc8IgIp2.s:75673  .debug_str:000000000000d349 .LASF3322
     /tmp/cc8IgIp2.s:72941  .debug_str:0000000000005e22 .LASF3323
     /tmp/cc8IgIp2.s:72837  .debug_str:0000000000005a09 .LASF3324
     /tmp/cc8IgIp2.s:71911  .debug_str:000000000000332a .LASF3325
     /tmp/cc8IgIp2.s:77463  .debug_str:0000000000012113 .LASF3326
     /tmp/cc8IgIp2.s:71419  .debug_str:0000000000001cd4 .LASF3327
     /tmp/cc8IgIp2.s:71371  .debug_str:0000000000001adb .LASF3328
     /tmp/cc8IgIp2.s:72671  .debug_str:00000000000053cc .LASF3329
     /tmp/cc8IgIp2.s:72673  .debug_str:00000000000053d6 .LASF3330
     /tmp/cc8IgIp2.s:72675  .debug_str:00000000000053e0 .LASF3331
     /tmp/cc8IgIp2.s:72677  .debug_str:00000000000053ea .LASF3332
     /tmp/cc8IgIp2.s:72679  .debug_str:00000000000053f4 .LASF3333
     /tmp/cc8IgIp2.s:76853  .debug_str:000000000001080a .LASF3334
     /tmp/cc8IgIp2.s:72681  .debug_str:00000000000053fe .LASF3335
     /tmp/cc8IgIp2.s:76707  .debug_str:000000000001018e .LASF3336
     /tmp/cc8IgIp2.s:71551  .debug_str:000000000000226f .LASF3337
     /tmp/cc8IgIp2.s:77889  .debug_str:00000000000133ad .LASF3338
     /tmp/cc8IgIp2.s:76291  .debug_str:000000000000ef37 .LASF3339
     /tmp/cc8IgIp2.s:77797  .debug_str:0000000000012fa0 .LASF3340
     /tmp/cc8IgIp2.s:71537  .debug_str:00000000000021cd .LASF3341
     /tmp/cc8IgIp2.s:77727  .debug_str:0000000000012cee .LASF3342
     /tmp/cc8IgIp2.s:76293  .debug_str:000000000000ef42 .LASF3343
     /tmp/cc8IgIp2.s:77095  .debug_str:0000000000011283 .LASF3344
     /tmp/cc8IgIp2.s:72787  .debug_str:0000000000005859 .LASF3345
     /tmp/cc8IgIp2.s:76295  .debug_str:000000000000ef4d .LASF3346
     /tmp/cc8IgIp2.s:76405  .debug_str:000000000000f454 .LASF3347
     /tmp/cc8IgIp2.s:78003  .debug_str:000000000001396d .LASF3348
     /tmp/cc8IgIp2.s:73951  .debug_str:0000000000008b78 .LASF3349
     /tmp/cc8IgIp2.s:73883  .debug_str:0000000000008891 .LASF3350
     /tmp/cc8IgIp2.s:71589  .debug_str:000000000000243c .LASF3351
     /tmp/cc8IgIp2.s:71387  .debug_str:0000000000001b92 .LASF3352
     /tmp/cc8IgIp2.s:76901  .debug_str:0000000000010a1c .LASF3353
     /tmp/cc8IgIp2.s:71289  .debug_str:000000000000170d .LASF3354
     /tmp/cc8IgIp2.s:74061  .debug_str:0000000000009026 .LASF3355
     /tmp/cc8IgIp2.s:76429  .debug_str:000000000000f5ac .LASF3356
     /tmp/cc8IgIp2.s:75687  .debug_str:000000000000d408 .LASF3357
     /tmp/cc8IgIp2.s:75357  .debug_str:000000000000c43b .LASF3358
     /tmp/cc8IgIp2.s:75689  .debug_str:000000000000d413 .LASF3359
     /tmp/cc8IgIp2.s:72507  .debug_str:0000000000004db0 .LASF3360
     /tmp/cc8IgIp2.s:77183  .debug_str:0000000000011602 .LASF3361
     /tmp/cc8IgIp2.s:77511  .debug_str:000000000001232c .LASF3362
     /tmp/cc8IgIp2.s:76211  .debug_str:000000000000ebef .LASF3363
     /tmp/cc8IgIp2.s:72179  .debug_str:0000000000003eec .LASF3364
     /tmp/cc8IgIp2.s:74751  .debug_str:000000000000ac86 .LASF3365
     /tmp/cc8IgIp2.s:77455  .debug_str:00000000000120c3 .LASF3366
     /tmp/cc8IgIp2.s:73383  .debug_str:00000000000071c9 .LASF3367
     /tmp/cc8IgIp2.s:74923  .debug_str:000000000000b2b9 .LASF3368
     /tmp/cc8IgIp2.s:75079  .debug_str:000000000000b8a2 .LASF3369
     /tmp/cc8IgIp2.s:73841  .debug_str:000000000000866b .LASF3370
     /tmp/cc8IgIp2.s:75081  .debug_str:000000000000b8ad .LASF3371
     /tmp/cc8IgIp2.s:75833  .debug_str:000000000000daf0 .LASF3372
     /tmp/cc8IgIp2.s:75083  .debug_str:000000000000b8b8 .LASF3373
     /tmp/cc8IgIp2.s:76171  .debug_str:000000000000ea46 .LASF3374
     /tmp/cc8IgIp2.s:70919  .debug_str:0000000000000933 .LASF3375
     /tmp/cc8IgIp2.s:73095  .debug_str:000000000000646c .LASF3376
     /tmp/cc8IgIp2.s:72693  .debug_str:0000000000005496 .LASF3377
     /tmp/cc8IgIp2.s:75571  .debug_str:000000000000ce89 .LASF3378
     /tmp/cc8IgIp2.s:72695  .debug_str:00000000000054a1 .LASF3379
     /tmp/cc8IgIp2.s:75887  .debug_str:000000000000dd25 .LASF3380
     /tmp/cc8IgIp2.s:74377  .debug_str:0000000000009db9 .LASF3381
     /tmp/cc8IgIp2.s:72355  .debug_str:000000000000470a .LASF3382
     /tmp/cc8IgIp2.s:74379  .debug_str:0000000000009dc4 .LASF3383
     /tmp/cc8IgIp2.s:73291  .debug_str:0000000000006d44 .LASF3384
     /tmp/cc8IgIp2.s:74381  .debug_str:0000000000009dcf .LASF3385
     /tmp/cc8IgIp2.s:76365  .debug_str:000000000000f2c2 .LASF3386
     /tmp/cc8IgIp2.s:76027  .debug_str:000000000000e395 .LASF3387
     /tmp/cc8IgIp2.s:73981  .debug_str:0000000000008ce8 .LASF3388
     /tmp/cc8IgIp2.s:72917  .debug_str:0000000000005cdc .LASF3389
     /tmp/cc8IgIp2.s:77721  .debug_str:0000000000012cab .LASF3390
     /tmp/cc8IgIp2.s:72925  .debug_str:0000000000005d27 .LASF3391
     /tmp/cc8IgIp2.s:77087  .debug_str:000000000001123f .LASF3392
     /tmp/cc8IgIp2.s:77089  .debug_str:0000000000011250 .LASF3393
     /tmp/cc8IgIp2.s:77091  .debug_str:0000000000011261 .LASF3394
     /tmp/cc8IgIp2.s:77093  .debug_str:0000000000011272 .LASF3395
     /tmp/cc8IgIp2.s:78207  .debug_str:00000000000141a7 .LASF3396
     /tmp/cc8IgIp2.s:73493  .debug_str:00000000000075ed .LASF3397
     /tmp/cc8IgIp2.s:73545  .debug_str:00000000000078a9 .LASF3398
     /tmp/cc8IgIp2.s:75435  .debug_str:000000000000c800 .LASF3399
     /tmp/cc8IgIp2.s:76443  .debug_str:000000000000f65b .LASF3400
     /tmp/cc8IgIp2.s:73943  .debug_str:0000000000008b2d .LASF3401
     /tmp/cc8IgIp2.s:73861  .debug_str:00000000000087ae .LASF3402
     /tmp/cc8IgIp2.s:73239  .debug_str:0000000000006afc .LASF3403
     /tmp/cc8IgIp2.s:75431  .debug_str:000000000000c7da .LASF3404
     /tmp/cc8IgIp2.s:73233  .debug_str:0000000000006a97 .LASF3405
     /tmp/cc8IgIp2.s:77445  .debug_str:0000000000012044 .LASF3406
     /tmp/cc8IgIp2.s:75437  .debug_str:000000000000c80f .LASF3407
     /tmp/cc8IgIp2.s:74867  .debug_str:000000000000b0b5 .LASF3408
     /tmp/cc8IgIp2.s:71377  .debug_str:0000000000001b18 .LASF3409
     /tmp/cc8IgIp2.s:74165  .debug_str:0000000000009450 .LASF3410
     /tmp/cc8IgIp2.s:77795  .debug_str:0000000000012f94 .LASF3411
     /tmp/cc8IgIp2.s:74725  .debug_str:000000000000ab5d .LASF3412
     /tmp/cc8IgIp2.s:75153  .debug_str:000000000000bb09 .LASF3413
     /tmp/cc8IgIp2.s:72353  .debug_str:00000000000046ff .LASF3414
     /tmp/cc8IgIp2.s:73471  .debug_str:00000000000074f2 .LASF3415
     /tmp/cc8IgIp2.s:75797  .debug_str:000000000000d988 .LASF3416
     /tmp/cc8IgIp2.s:76491  .debug_str:000000000000f85c .LASF3417
     /tmp/cc8IgIp2.s:71355  .debug_str:0000000000001a07 .LASF3418
     /tmp/cc8IgIp2.s:72335  .debug_str:0000000000004654 .LASF3419
     /tmp/cc8IgIp2.s:77527  .debug_str:00000000000123fd .LASF3420
     /tmp/cc8IgIp2.s:73691  .debug_str:0000000000007fb4 .LASF3421
     /tmp/cc8IgIp2.s:77607  .debug_str:0000000000012780 .LASF3422
     /tmp/cc8IgIp2.s:77609  .debug_str:000000000001278b .LASF3423
     /tmp/cc8IgIp2.s:71265  .debug_str:0000000000001618 .LASF3424
     /tmp/cc8IgIp2.s:72385  .debug_str:0000000000004879 .LASF3425
     /tmp/cc8IgIp2.s:77007  .debug_str:0000000000010f8c .LASF3426
     /tmp/cc8IgIp2.s:75749  .debug_str:000000000000d751 .LASF3427
     /tmp/cc8IgIp2.s:72349  .debug_str:00000000000046e5 .LASF3428
     /tmp/cc8IgIp2.s:77085  .debug_str:0000000000011236 .LASF3429
     /tmp/cc8IgIp2.s:75517  .debug_str:000000000000cbe2 .LASF3430
     /tmp/cc8IgIp2.s:78099  .debug_str:0000000000013d78 .LASF3431
     /tmp/cc8IgIp2.s:76205  .debug_str:000000000000ebbf .LASF3432
     /tmp/cc8IgIp2.s:75747  .debug_str:000000000000d741 .LASF3433
     /tmp/cc8IgIp2.s:76377  .debug_str:000000000000f33b .LASF3434
     /tmp/cc8IgIp2.s:70823  .debug_str:00000000000004de .LASF3435
     /tmp/cc8IgIp2.s:74889  .debug_str:000000000000b1a3 .LASF3436
     /tmp/cc8IgIp2.s:73009  .debug_str:0000000000006105 .LASF3437
     /tmp/cc8IgIp2.s:77381  .debug_str:0000000000011da8 .LASF3438
     /tmp/cc8IgIp2.s:76065  .debug_str:000000000000e57d .LASF3439
     /tmp/cc8IgIp2.s:76393  .debug_str:000000000000f3c2 .LASF3440
     /tmp/cc8IgIp2.s:72181  .debug_str:0000000000003f12 .LASF3441
     /tmp/cc8IgIp2.s:76011  .debug_str:000000000000e2dd .LASF3442
     /tmp/cc8IgIp2.s:77537  .debug_str:0000000000012462 .LASF3443
     /tmp/cc8IgIp2.s:77497  .debug_str:000000000001228f .LASF3444
     /tmp/cc8IgIp2.s:76755  .debug_str:00000000000103f7 .LASF3445
     /tmp/cc8IgIp2.s:76183  .debug_str:000000000000eac5 .LASF3446
     /tmp/cc8IgIp2.s:71625  .debug_str:00000000000025f8 .LASF3447
     /tmp/cc8IgIp2.s:72279  .debug_str:00000000000043f7 .LASF3448
     /tmp/cc8IgIp2.s:77473  .debug_str:000000000001219d .LASF3449
     /tmp/cc8IgIp2.s:75585  .debug_str:000000000000cf20 .LASF3450
     /tmp/cc8IgIp2.s:75719  .debug_str:000000000000d584 .LASF3451
     /tmp/cc8IgIp2.s:72391  .debug_str:00000000000048c7 .LASF3452
     /tmp/cc8IgIp2.s:74677  .debug_str:000000000000a9ea .LASF3453
     /tmp/cc8IgIp2.s:70965  .debug_str:0000000000000a9c .LASF3454
     /tmp/cc8IgIp2.s:77711  .debug_str:0000000000012bfd .LASF3455
     /tmp/cc8IgIp2.s:72697  .debug_str:00000000000054ac .LASF3456
     /tmp/cc8IgIp2.s:75375  .debug_str:000000000000c543 .LASF3457
     /tmp/cc8IgIp2.s:77807  .debug_str:0000000000013020 .LASF3458
     /tmp/cc8IgIp2.s:74813  .debug_str:000000000000aeea .LASF3459
     /tmp/cc8IgIp2.s:75459  .debug_str:000000000000c8d6 .LASF3460
     /tmp/cc8IgIp2.s:74645  .debug_str:000000000000a813 .LASF3461
     /tmp/cc8IgIp2.s:75597  .debug_str:000000000000cfb2 .LASF3462
     /tmp/cc8IgIp2.s:76313  .debug_str:000000000000f032 .LASF3463
     /tmp/cc8IgIp2.s:76693  .debug_str:00000000000100e0 .LASF3464
     /tmp/cc8IgIp2.s:73921  .debug_str:0000000000008a10 .LASF3465
     /tmp/cc8IgIp2.s:72195  .debug_str:0000000000003fba .LASF3466
     /tmp/cc8IgIp2.s:77375  .debug_str:0000000000011d60 .LASF3467
     /tmp/cc8IgIp2.s:77675  .debug_str:0000000000012a3f .LASF3468
     /tmp/cc8IgIp2.s:77147  .debug_str:0000000000011464 .LASF3469
     /tmp/cc8IgIp2.s:70833  .debug_str:0000000000000561 .LASF3470
     /tmp/cc8IgIp2.s:71295  .debug_str:000000000000175b .LASF3471
     /tmp/cc8IgIp2.s:71641  .debug_str:00000000000026a2 .LASF3472
     /tmp/cc8IgIp2.s:71983  .debug_str:000000000000365e .LASF3473
     /tmp/cc8IgIp2.s:72303  .debug_str:0000000000004531 .LASF3474
     /tmp/cc8IgIp2.s:71717  .debug_str:0000000000002ab2 .LASF3475
     /tmp/cc8IgIp2.s:73173  .debug_str:0000000000006833 .LASF3476
     /tmp/cc8IgIp2.s:71565  .debug_str:0000000000002306 .LASF3477
     /tmp/cc8IgIp2.s:72255  .debug_str:00000000000042a2 .LASF3478
     /tmp/cc8IgIp2.s:72283  .debug_str:0000000000004436 .LASF3479
     /tmp/cc8IgIp2.s:71885  .debug_str:00000000000031f8 .LASF3480
     /tmp/cc8IgIp2.s:73885  .debug_str:000000000000889c .LASF3481
     /tmp/cc8IgIp2.s:78017  .debug_str:00000000000139f2 .LASF3482
     /tmp/cc8IgIp2.s:73865  .debug_str:00000000000087e3 .LASF3483
     /tmp/cc8IgIp2.s:74289  .debug_str:000000000000998b .LASF3484
     /tmp/cc8IgIp2.s:71925  .debug_str:0000000000003401 .LASF3485
     /tmp/cc8IgIp2.s:76643  .debug_str:000000000000fe9a .LASF3486
     /tmp/cc8IgIp2.s:76475  .debug_str:000000000000f7c3 .LASF3487
     /tmp/cc8IgIp2.s:76105  .debug_str:000000000000e751 .LASF3488
     /tmp/cc8IgIp2.s:75495  .debug_str:000000000000ca94 .LASF3489
     /tmp/cc8IgIp2.s:72373  .debug_str:00000000000047e9 .LASF3490
     /tmp/cc8IgIp2.s:71395  .debug_str:0000000000001c0a .LASF3491
     /tmp/cc8IgIp2.s:73279  .debug_str:0000000000006cd0 .LASF3492
     /tmp/cc8IgIp2.s:75251  .debug_str:000000000000bf2d .LASF3493
     /tmp/cc8IgIp2.s:73367  .debug_str:0000000000007104 .LASF3494
     /tmp/cc8IgIp2.s:71895  .debug_str:0000000000003284 .LASF3495
     /tmp/cc8IgIp2.s:75939  .debug_str:000000000000dfc1 .LASF3496
     /tmp/cc8IgIp2.s:73987  .debug_str:0000000000008d31 .LASF3497
     /tmp/cc8IgIp2.s:71257  .debug_str:00000000000015be .LASF3498
     /tmp/cc8IgIp2.s:71379  .debug_str:0000000000001b2a .LASF3499
     /tmp/cc8IgIp2.s:76673  .debug_str:000000000000ffe1 .LASF3500
     /tmp/cc8IgIp2.s:77013  .debug_str:0000000000010fc2 .LASF3501
     /tmp/cc8IgIp2.s:76715  .debug_str:00000000000101da .LASF3502
     /tmp/cc8IgIp2.s:77491  .debug_str:0000000000012240 .LASF3503
     /tmp/cc8IgIp2.s:75329  .debug_str:000000000000c2e6 .LASF3504
     /tmp/cc8IgIp2.s:71457  .debug_str:0000000000001e79 .LASF3505
     /tmp/cc8IgIp2.s:75217  .debug_str:000000000000bde5 .LASF3506
     /tmp/cc8IgIp2.s:76695  .debug_str:000000000001010b .LASF3507
     /tmp/cc8IgIp2.s:77919  .debug_str:00000000000134ed .LASF3508
     /tmp/cc8IgIp2.s:74025  .debug_str:0000000000008e97 .LASF3509
     /tmp/cc8IgIp2.s:73245  .debug_str:0000000000006b52 .LASF3510
     /tmp/cc8IgIp2.s:75983  .debug_str:000000000000e1bb .LASF3511
     /tmp/cc8IgIp2.s:73037  .debug_str:000000000000619a .LASF3512
     /tmp/cc8IgIp2.s:73507  .debug_str:00000000000076a0 .LASF3513
     /tmp/cc8IgIp2.s:72341  .debug_str:0000000000004685 .LASF3514
     /tmp/cc8IgIp2.s:78257  .debug_str:00000000000143e5 .LASF3515
     /tmp/cc8IgIp2.s:72625  .debug_str:000000000000527e .LASF3516
     /tmp/cc8IgIp2.s:74651  .debug_str:000000000000a881 .LASF3517
     /tmp/cc8IgIp2.s:75701  .debug_str:000000000000d4a6 .LASF3518
     /tmp/cc8IgIp2.s:70771  .debug_str:00000000000002a2 .LASF3519
     /tmp/cc8IgIp2.s:73589  .debug_str:0000000000007aab .LASF3520
     /tmp/cc8IgIp2.s:73069  .debug_str:0000000000006337 .LASF3521
     /tmp/cc8IgIp2.s:71227  .debug_str:0000000000001513 .LASF3522
     /tmp/cc8IgIp2.s:71509  .debug_str:0000000000002070 .LASF3523
     /tmp/cc8IgIp2.s:73731  .debug_str:00000000000081ce .LASF3524
     /tmp/cc8IgIp2.s:73755  .debug_str:00000000000082f9 .LASF3525
     /tmp/cc8IgIp2.s:71133  .debug_str:0000000000001107 .LASF3526
     /tmp/cc8IgIp2.s:71299  .debug_str:0000000000001795 .LASF3527
     /tmp/cc8IgIp2.s:72983  .debug_str:0000000000005f74 .LASF3528
     /tmp/cc8IgIp2.s:70775  .debug_str:00000000000002e6 .LASF3529
     /tmp/cc8IgIp2.s:71341  .debug_str:000000000000195a .LASF3530
     /tmp/cc8IgIp2.s:76017  .debug_str:000000000000e31a .LASF3531
     /tmp/cc8IgIp2.s:73103  .debug_str:00000000000064d6 .LASF3532
     /tmp/cc8IgIp2.s:77735  .debug_str:0000000000012d50 .LASF3533
     /tmp/cc8IgIp2.s:74915  .debug_str:000000000000b265 .LASF3534
     /tmp/cc8IgIp2.s:70917  .debug_str:000000000000091d .LASF3535
     /tmp/cc8IgIp2.s:70825  .debug_str:00000000000004f2 .LASF3536
     /tmp/cc8IgIp2.s:74947  .debug_str:000000000000b3fb .LASF3537
     /tmp/cc8IgIp2.s:78065  .debug_str:0000000000013c1a .LASF3538
     /tmp/cc8IgIp2.s:77495  .debug_str:0000000000012273 .LASF3539
     /tmp/cc8IgIp2.s:74669  .debug_str:000000000000a9a9 .LASF3540
     /tmp/cc8IgIp2.s:75605  .debug_str:000000000000d005 .LASF3541
     /tmp/cc8IgIp2.s:74049  .debug_str:0000000000008f9e .LASF3542
     /tmp/cc8IgIp2.s:76781  .debug_str:0000000000010528 .LASF3543
     /tmp/cc8IgIp2.s:75075  .debug_str:000000000000b867 .LASF3544
     /tmp/cc8IgIp2.s:73237  .debug_str:0000000000006ae1 .LASF3545
     /tmp/cc8IgIp2.s:77521  .debug_str:00000000000123b1 .LASF3546
     /tmp/cc8IgIp2.s:75763  .debug_str:000000000000d81e .LASF3547
     /tmp/cc8IgIp2.s:77357  .debug_str:0000000000011cad .LASF3548
     /tmp/cc8IgIp2.s:76613  .debug_str:000000000000fd6f .LASF3549
     /tmp/cc8IgIp2.s:77235  .debug_str:0000000000011827 .LASF3550
     /tmp/cc8IgIp2.s:72629  .debug_str:00000000000052b6 .LASF3551
     /tmp/cc8IgIp2.s:72141  .debug_str:0000000000003d12 .LASF3552
     /tmp/cc8IgIp2.s:72015  .debug_str:000000000000381d .LASF3553
     /tmp/cc8IgIp2.s:78051  .debug_str:0000000000013b96 .LASF3554
     /tmp/cc8IgIp2.s:75509  .debug_str:000000000000cb4b .LASF3555
     /tmp/cc8IgIp2.s:77005  .debug_str:0000000000010f74 .LASF3556
     /tmp/cc8IgIp2.s:73421  .debug_str:0000000000007332 .LASF3557
     /tmp/cc8IgIp2.s:76351  .debug_str:000000000000f20d .LASF3558
     /tmp/cc8IgIp2.s:73905  .debug_str:0000000000008968 .LASF3559
     /tmp/cc8IgIp2.s:74399  .debug_str:0000000000009e64 .LASF3560
     /tmp/cc8IgIp2.s:75461  .debug_str:000000000000c8ff .LASF3561
     /tmp/cc8IgIp2.s:75361  .debug_str:000000000000c46d .LASF3562
     /tmp/cc8IgIp2.s:73189  .debug_str:00000000000068df .LASF3563
     /tmp/cc8IgIp2.s:74123  .debug_str:00000000000092fb .LASF3564
     /tmp/cc8IgIp2.s:74979  .debug_str:000000000000b503 .LASF3565
     /tmp/cc8IgIp2.s:71951  .debug_str:00000000000034e3 .LASF3566
     /tmp/cc8IgIp2.s:75945  .debug_str:000000000000e03b .LASF3567
     /tmp/cc8IgIp2.s:76009  .debug_str:000000000000e2c6 .LASF3568
     /tmp/cc8IgIp2.s:73053  .debug_str:000000000000627d .LASF3569
     /tmp/cc8IgIp2.s:77663  .debug_str:0000000000012984 .LASF3570
     /tmp/cc8IgIp2.s:76327  .debug_str:000000000000f0ff .LASF3571
     /tmp/cc8IgIp2.s:71815  .debug_str:0000000000002ee8 .LASF3572
     /tmp/cc8IgIp2.s:76501  .debug_str:000000000000f8b6 .LASF3573
     /tmp/cc8IgIp2.s:73583  .debug_str:0000000000007a65 .LASF3574
     /tmp/cc8IgIp2.s:78175  .debug_str:0000000000014020 .LASF3575
     /tmp/cc8IgIp2.s:71261  .debug_str:00000000000015e1 .LASF3576
     /tmp/cc8IgIp2.s:72251  .debug_str:000000000000426a .LASF3577
     /tmp/cc8IgIp2.s:74785  .debug_str:000000000000ad74 .LASF3578
     /tmp/cc8IgIp2.s:74153  .debug_str:00000000000093f5 .LASF3579
     /tmp/cc8IgIp2.s:71131  .debug_str:00000000000010f0 .LASF3580
     /tmp/cc8IgIp2.s:72477  .debug_str:0000000000004d06 .LASF3581
     /tmp/cc8IgIp2.s:71999  .debug_str:0000000000003762 .LASF3582
     /tmp/cc8IgIp2.s:77553  .debug_str:00000000000124f2 .LASF3583
     /tmp/cc8IgIp2.s:74317  .debug_str:0000000000009acd .LASF3584
     /tmp/cc8IgIp2.s:71649  .debug_str:0000000000002708 .LASF3585
     /tmp/cc8IgIp2.s:76335  .debug_str:000000000000f15b .LASF3586
     /tmp/cc8IgIp2.s:72185  .debug_str:0000000000003f51 .LASF3587
     /tmp/cc8IgIp2.s:72227  .debug_str:000000000000411d .LASF3588
     /tmp/cc8IgIp2.s:72217  .debug_str:00000000000040c7 .LASF3589
     /tmp/cc8IgIp2.s:73261  .debug_str:0000000000006bd0 .LASF3590
     /tmp/cc8IgIp2.s:76845  .debug_str:000000000001078f .LASF3591
     /tmp/cc8IgIp2.s:73939  .debug_str:0000000000008b07 .LASF3592
     /tmp/cc8IgIp2.s:78131  .debug_str:0000000000013eb8 .LASF3593
     /tmp/cc8IgIp2.s:75729  .debug_str:000000000000d625 .LASF3594
     /tmp/cc8IgIp2.s:73575  .debug_str:0000000000007a12 .LASF3595
     /tmp/cc8IgIp2.s:74745  .debug_str:000000000000ac43 .LASF3596
     /tmp/cc8IgIp2.s:71897  .debug_str:0000000000003299 .LASF3597
     /tmp/cc8IgIp2.s:71477  .debug_str:0000000000001f41 .LASF3598
     /tmp/cc8IgIp2.s:76179  .debug_str:000000000000eaa1 .LASF3599
     /tmp/cc8IgIp2.s:73211  .debug_str:00000000000069bb .LASF3600
     /tmp/cc8IgIp2.s:77863  .debug_str:0000000000013294 .LASF3601
     /tmp/cc8IgIp2.s:75065  .debug_str:000000000000b808 .LASF3602
     /tmp/cc8IgIp2.s:71967  .debug_str:000000000000358c .LASF3603
     /tmp/cc8IgIp2.s:71035  .debug_str:0000000000000d12 .LASF3604
     /tmp/cc8IgIp2.s:73741  .debug_str:000000000000824e .LASF3605
     /tmp/cc8IgIp2.s:70789  .debug_str:000000000000037d .LASF3606
     /tmp/cc8IgIp2.s:71301  .debug_str:00000000000017ac .LASF3607
     /tmp/cc8IgIp2.s:72465  .debug_str:0000000000004c93 .LASF3608
     /tmp/cc8IgIp2.s:77393  .debug_str:0000000000011e0e .LASF3609
     /tmp/cc8IgIp2.s:75241  .debug_str:000000000000bee1 .LASF3610
     /tmp/cc8IgIp2.s:71319  .debug_str:0000000000001854 .LASF3611
     /tmp/cc8IgIp2.s:75981  .debug_str:000000000000e1a4 .LASF3612
     /tmp/cc8IgIp2.s:74863  .debug_str:000000000000b07e .LASF3613
     /tmp/cc8IgIp2.s:74055  .debug_str:0000000000008feb .LASF3614
     /tmp/cc8IgIp2.s:74877  .debug_str:000000000000b11f .LASF3615
     /tmp/cc8IgIp2.s:71793  .debug_str:0000000000002e03 .LASF3616
     /tmp/cc8IgIp2.s:76479  .debug_str:000000000000f7eb .LASF3617
     /tmp/cc8IgIp2.s:74311  .debug_str:0000000000009a88 .LASF3618
     /tmp/cc8IgIp2.s:71765  .debug_str:0000000000002cc8 .LASF3619
     /tmp/cc8IgIp2.s:76697  .debug_str:0000000000010127 .LASF3620
     /tmp/cc8IgIp2.s:73557  .debug_str:0000000000007919 .LASF3621
     /tmp/cc8IgIp2.s:77413  .debug_str:0000000000011f02 .LASF3622
     /tmp/cc8IgIp2.s:77525  .debug_str:00000000000123dc .LASF3623
     /tmp/cc8IgIp2.s:71781  .debug_str:0000000000002d6e .LASF3624
     /tmp/cc8IgIp2.s:71055  .debug_str:0000000000000e26 .LASF3625
     /tmp/cc8IgIp2.s:71081  .debug_str:0000000000000f22 .LASF3626
     /tmp/cc8IgIp2.s:71203  .debug_str:00000000000013fe .LASF3627
     /tmp/cc8IgIp2.s:72405  .debug_str:00000000000049b6 .LASF3628
     /tmp/cc8IgIp2.s:76203  .debug_str:000000000000ebaf .LASF3629
     /tmp/cc8IgIp2.s:74259  .debug_str:000000000000986a .LASF3630
     /tmp/cc8IgIp2.s:75467  .debug_str:000000000000c960 .LASF3631
     /tmp/cc8IgIp2.s:74261  .debug_str:0000000000009874 .LASF3632
     /tmp/cc8IgIp2.s:75399  .debug_str:000000000000c63f .LASF3633
     /tmp/cc8IgIp2.s:75547  .debug_str:000000000000cd78 .LASF3634
     /tmp/cc8IgIp2.s:76903  .debug_str:0000000000010a27 .LASF3635
     /tmp/cc8IgIp2.s:73889  .debug_str:00000000000088e8 .LASF3636
     /tmp/cc8IgIp2.s:76763  .debug_str:0000000000010470 .LASF3637
     /tmp/cc8IgIp2.s:75359  .debug_str:000000000000c462 .LASF3638
     /tmp/cc8IgIp2.s:70815  .debug_str:0000000000000497 .LASF3639
     /tmp/cc8IgIp2.s:73895  .debug_str:0000000000008907 .LASF3640
     /tmp/cc8IgIp2.s:77389  .debug_str:0000000000011ddd .LASF3641
     /tmp/cc8IgIp2.s:71507  .debug_str:0000000000002065 .LASF3642
     /tmp/cc8IgIp2.s:74825  .debug_str:000000000000af83 .LASF3643
     /tmp/cc8IgIp2.s:71001  .debug_str:0000000000000c2b .LASF3644
     /tmp/cc8IgIp2.s:74643  .debug_str:000000000000a803 .LASF3645
     /tmp/cc8IgIp2.s:75395  .debug_str:000000000000c626 .LASF3646
     /tmp/cc8IgIp2.s:75595  .debug_str:000000000000cfa2 .LASF3647
     /tmp/cc8IgIp2.s:77047  .debug_str:0000000000011120 .LASF3648
     /tmp/cc8IgIp2.s:74573  .debug_str:000000000000a598 .LASF3649
     /tmp/cc8IgIp2.s:71837  .debug_str:0000000000002ff3 .LASF3650
     /tmp/cc8IgIp2.s:73143  .debug_str:00000000000066b7 .LASF3651
     /tmp/cc8IgIp2.s:74273  .debug_str:000000000000990a .LASF3652
     /tmp/cc8IgIp2.s:74275  .debug_str:0000000000009914 .LASF3653
     /tmp/cc8IgIp2.s:77587  .debug_str:00000000000126a3 .LASF3654
     /tmp/cc8IgIp2.s:72345  .debug_str:00000000000046b0 .LASF3655
     /tmp/cc8IgIp2.s:71721  .debug_str:0000000000002b07 .LASF3656
     /tmp/cc8IgIp2.s:72305  .debug_str:000000000000455b .LASF3657
     /tmp/cc8IgIp2.s:77793  .debug_str:0000000000012f81 .LASF3658
     /tmp/cc8IgIp2.s:72859  .debug_str:0000000000005acd .LASF3659
     /tmp/cc8IgIp2.s:76117  .debug_str:000000000000e814 .LASF3660
     /tmp/cc8IgIp2.s:73221  .debug_str:0000000000006a23 .LASF3661
     /tmp/cc8IgIp2.s:73773  .debug_str:00000000000083bd .LASF3662
     /tmp/cc8IgIp2.s:73287  .debug_str:0000000000006d2a .LASF3663
     /tmp/cc8IgIp2.s:77967  .debug_str:000000000001375f .LASF3664
     /tmp/cc8IgIp2.s:73131  .debug_str:0000000000006614 .LASF3665
     /tmp/cc8IgIp2.s:77517  .debug_str:0000000000012391 .LASF3666
     /tmp/cc8IgIp2.s:75847  .debug_str:000000000000dbc0 .LASF3667
     /tmp/cc8IgIp2.s:72133  .debug_str:0000000000003ca4 .LASF3668
     /tmp/cc8IgIp2.s:73859  .debug_str:00000000000087a2 .LASF3669
     /tmp/cc8IgIp2.s:74075  .debug_str:0000000000009099 .LASF3670
     /tmp/cc8IgIp2.s:72337  .debug_str:000000000000465c .LASF3671
     /tmp/cc8IgIp2.s:73393  .debug_str:0000000000007236 .LASF3672
     /tmp/cc8IgIp2.s:71123  .debug_str:0000000000001097 .LASF3673
     /tmp/cc8IgIp2.s:75631  .debug_str:000000000000d17f .LASF3674
     /tmp/cc8IgIp2.s:71953  .debug_str:00000000000034f9 .LASF3675
     /tmp/cc8IgIp2.s:74249  .debug_str:00000000000097fd .LASF3676
     /tmp/cc8IgIp2.s:71741  .debug_str:0000000000002bd1 .LASF3677
     /tmp/cc8IgIp2.s:76971  .debug_str:0000000000010dcf .LASF3678
     /tmp/cc8IgIp2.s:71775  .debug_str:0000000000002d41 .LASF3679
     /tmp/cc8IgIp2.s:73431  .debug_str:0000000000007370 .LASF3680
     /tmp/cc8IgIp2.s:74161  .debug_str:000000000000943c .LASF3681
     /tmp/cc8IgIp2.s:74437  .debug_str:000000000000a01d .LASF3682
     /tmp/cc8IgIp2.s:76173  .debug_str:000000000000ea6d .LASF3683
     /tmp/cc8IgIp2.s:75169  .debug_str:000000000000bbcc .LASF3684
     /tmp/cc8IgIp2.s:73403  .debug_str:0000000000007292 .LASF3685
     /tmp/cc8IgIp2.s:74587  .debug_str:000000000000a62b .LASF3686
     /tmp/cc8IgIp2.s:75233  .debug_str:000000000000be78 .LASF3687
     /tmp/cc8IgIp2.s:76601  .debug_str:000000000000fcda .LASF3688
     /tmp/cc8IgIp2.s:75991  .debug_str:000000000000e20f .LASF3689
     /tmp/cc8IgIp2.s:73651  .debug_str:0000000000007e1e .LASF3690
     /tmp/cc8IgIp2.s:76185  .debug_str:000000000000eae1 .LASF3691
     /tmp/cc8IgIp2.s:78231  .debug_str:00000000000142fb .LASF3692
     /tmp/cc8IgIp2.s:75325  .debug_str:000000000000c2c0 .LASF3693
     /tmp/cc8IgIp2.s:77769  .debug_str:0000000000012edd .LASF3727
     /tmp/cc8IgIp2.s:78111  .debug_str:0000000000013e26 .LASF3694
     /tmp/cc8IgIp2.s:78113  .debug_str:0000000000013e31 .LASF3695
     /tmp/cc8IgIp2.s:78115  .debug_str:0000000000013e3c .LASF3696
     /tmp/cc8IgIp2.s:78117  .debug_str:0000000000013e47 .LASF3697
     /tmp/cc8IgIp2.s:78119  .debug_str:0000000000013e52 .LASF3698
     /tmp/cc8IgIp2.s:78121  .debug_str:0000000000013e5d .LASF3699
     /tmp/cc8IgIp2.s:78123  .debug_str:0000000000013e68 .LASF3700
     /tmp/cc8IgIp2.s:77651  .debug_str:0000000000012914 .LASF3701
     /tmp/cc8IgIp2.s:78127  .debug_str:0000000000013e9d .LASF3702
     /tmp/cc8IgIp2.s:76219  .debug_str:000000000000ec3a .LASF3703
     /tmp/cc8IgIp2.s:73913  .debug_str:00000000000089be .LASF3704
     /tmp/cc8IgIp2.s:76523  .debug_str:000000000000f9cb .LASF3705
     /tmp/cc8IgIp2.s:71559  .debug_str:00000000000022ca .LASF3706
     /tmp/cc8IgIp2.s:73919  .debug_str:0000000000008a04 .LASF3707
     /tmp/cc8IgIp2.s:71567  .debug_str:0000000000002331 .LASF3708
     /tmp/cc8IgIp2.s:74277  .debug_str:000000000000991e .LASF3709
     /tmp/cc8IgIp2.s:73925  .debug_str:0000000000008a5c .LASF3710
     /tmp/cc8IgIp2.s:73927  .debug_str:0000000000008a68 .LASF3711
     /tmp/cc8IgIp2.s:73929  .debug_str:0000000000008a74 .LASF3712
     /tmp/cc8IgIp2.s:71581  .debug_str:00000000000023da .LASF3713
     /tmp/cc8IgIp2.s:76669  .debug_str:000000000000ffc9 .LASF3714
     /tmp/cc8IgIp2.s:71723  .debug_str:0000000000002b18 .LASF3715
     /tmp/cc8IgIp2.s:73989  .debug_str:0000000000008d46 .LASF3716
     /tmp/cc8IgIp2.s:73991  .debug_str:0000000000008d52 .LASF3717
     /tmp/cc8IgIp2.s:73993  .debug_str:0000000000008d5e .LASF3718
     /tmp/cc8IgIp2.s:73995  .debug_str:0000000000008d6a .LASF3719
     /tmp/cc8IgIp2.s:73997  .debug_str:0000000000008d76 .LASF3720
     /tmp/cc8IgIp2.s:76683  .debug_str:0000000000010061 .LASF3721
     /tmp/cc8IgIp2.s:74001  .debug_str:0000000000008d94 .LASF3722
     /tmp/cc8IgIp2.s:74003  .debug_str:0000000000008da0 .LASF3723
     /tmp/cc8IgIp2.s:74069  .debug_str:0000000000009077 .LASF3724
     /tmp/cc8IgIp2.s:74071  .debug_str:0000000000009083 .LASF3725
     /tmp/cc8IgIp2.s:72319  .debug_str:00000000000045c1 .LASF3726
     /tmp/cc8IgIp2.s:77427  .debug_str:0000000000011f67 .LASF3728
     /tmp/cc8IgIp2.s:71443  .debug_str:0000000000001dd7 .LASF3729
     /tmp/cc8IgIp2.s:75089  .debug_str:000000000000b901 .LASF3730
     /tmp/cc8IgIp2.s:72519  .debug_str:0000000000004e45 .LASF3731
     /tmp/cc8IgIp2.s:74585  .debug_str:000000000000a614 .LASF3732
     /tmp/cc8IgIp2.s:75565  .debug_str:000000000000ce48 .LASF3733
     /tmp/cc8IgIp2.s:74795  .debug_str:000000000000ae0c .LASF3734
     /tmp/cc8IgIp2.s:74797  .debug_str:000000000000ae1c .LASF3735
     /tmp/cc8IgIp2.s:71297  .debug_str:0000000000001785 .LASF3736
     /tmp/cc8IgIp2.s:74801  .debug_str:000000000000ae53 .LASF3737
     /tmp/cc8IgIp2.s:76765  .debug_str:0000000000010480 .LASF3738
     /tmp/cc8IgIp2.s:75615  .debug_str:000000000000d07b .LASF3739
     /tmp/cc8IgIp2.s:71161  .debug_str:000000000000129d .LASF3740
     /tmp/cc8IgIp2.s:72361  .debug_str:000000000000475b .LASF3741
     /tmp/cc8IgIp2.s:74673  .debug_str:000000000000a9d6 .LASF3742
     /tmp/cc8IgIp2.s:73529  .debug_str:0000000000007810 .LASF3743
     /tmp/cc8IgIp2.s:72451  .debug_str:0000000000004ba8 .LASF3744
     /tmp/cc8IgIp2.s:76387  .debug_str:000000000000f397 .LASF3745
     /tmp/cc8IgIp2.s:76315  .debug_str:000000000000f05d .LASF3746
     /tmp/cc8IgIp2.s:77613  .debug_str:00000000000127a3 .LASF3747
     /tmp/cc8IgIp2.s:74279  .debug_str:000000000000992a .LASF3748
     /tmp/cc8IgIp2.s:75173  .debug_str:000000000000bc04 .LASF3756
     /tmp/cc8IgIp2.s:74093  .debug_str:000000000000917c .LASF3778
     /tmp/cc8IgIp2.s:73695  .debug_str:0000000000007fd2 .LASF3749
     /tmp/cc8IgIp2.s:72969  .debug_str:0000000000005ed6 .LASF3750
     /tmp/cc8IgIp2.s:70755  .debug_str:00000000000001e1 .LASF3752
     /tmp/cc8IgIp2.s:1166   .text.MSS_GPIO_clear_irq:0000000000000000 .LFB33
     /tmp/cc8IgIp2.s:1228   .text.MSS_GPIO_clear_irq:0000000000000032 .LFE33
     /tmp/cc8IgIp2.s:70065  .debug_loc:0000000000000000 .LLST33
     /tmp/cc8IgIp2.s:78179  .debug_str:000000000001404b .LASF3751
     /tmp/cc8IgIp2.s:70087  .debug_loc:000000000000005f .LLST34
     /tmp/cc8IgIp2.s:1185   .text.MSS_GPIO_clear_irq:0000000000000014 .LVL99
     /tmp/cc8IgIp2.s:72221  .debug_str:00000000000040ef .LASF3753
     /tmp/cc8IgIp2.s:1099   .text.MSS_GPIO_disable_nondirect_irq:0000000000000000 .LFB32
     /tmp/cc8IgIp2.s:1159   .text.MSS_GPIO_disable_nondirect_irq:000000000000004c .LFE32
     /tmp/cc8IgIp2.s:70101  .debug_loc:0000000000000098 .LLST32
     /tmp/cc8IgIp2.s:1117   .text.MSS_GPIO_disable_nondirect_irq:000000000000001c .LVL93
     /tmp/cc8IgIp2.s:72425  .debug_str:0000000000004a91 .LASF3754
     /tmp/cc8IgIp2.s:1032   .text.MSS_GPIO_enable_nondirect_irq:0000000000000000 .LFB31
     /tmp/cc8IgIp2.s:1092   .text.MSS_GPIO_enable_nondirect_irq:000000000000004c .LFE31
     /tmp/cc8IgIp2.s:70141  .debug_loc:0000000000000136 .LLST31
     /tmp/cc8IgIp2.s:1050   .text.MSS_GPIO_enable_nondirect_irq:000000000000001c .LVL86
     /tmp/cc8IgIp2.s:75647  .debug_str:000000000000d20d .LASF3755
     /tmp/cc8IgIp2.s:911    .text.MSS_GPIO_disable_irq:0000000000000000 .LFB30
     /tmp/cc8IgIp2.s:1025   .text.MSS_GPIO_disable_irq:000000000000008c .LFE30
     /tmp/cc8IgIp2.s:70181  .debug_loc:00000000000001d4 .LLST28
     /tmp/cc8IgIp2.s:70210  .debug_loc:0000000000000249 .LLST29
     /tmp/cc8IgIp2.s:71331  .debug_str:00000000000018fe .LASF3757
     /tmp/cc8IgIp2.s:70224  .debug_loc:0000000000000282 .LLST30
     /tmp/cc8IgIp2.s:931    .text.MSS_GPIO_disable_irq:0000000000000014 .LVL78
     /tmp/cc8IgIp2.s:976    .text.MSS_GPIO_disable_irq:0000000000000056 .LVL82
     /tmp/cc8IgIp2.s:76837  .debug_str:0000000000010741 .LASF3758
     /tmp/cc8IgIp2.s:795    .text.MSS_GPIO_enable_irq:0000000000000000 .LFB29
     /tmp/cc8IgIp2.s:904    .text.MSS_GPIO_enable_irq:0000000000000088 .LFE29
     /tmp/cc8IgIp2.s:70231  .debug_loc:00000000000002a5 .LLST25
     /tmp/cc8IgIp2.s:70260  .debug_loc:000000000000031a .LLST26
     /tmp/cc8IgIp2.s:70274  .debug_loc:0000000000000353 .LLST27
     /tmp/cc8IgIp2.s:815    .text.MSS_GPIO_enable_irq:0000000000000014 .LVL71
     /tmp/cc8IgIp2.s:859    .text.MSS_GPIO_enable_irq:0000000000000058 .LVL75
     /tmp/cc8IgIp2.s:73263  .debug_str:0000000000006be7 .LASF3759
     /tmp/cc8IgIp2.s:662    .text.MSS_GPIO_drive_inout:0000000000000000 .LFB28
     /tmp/cc8IgIp2.s:788    .text.MSS_GPIO_drive_inout:0000000000000080 .LFE28
     /tmp/cc8IgIp2.s:70281  .debug_loc:0000000000000376 .LLST21
     /tmp/cc8IgIp2.s:70303  .debug_loc:00000000000003d5 .LLST22
     /tmp/cc8IgIp2.s:74237  .debug_str:000000000000977f .LASF3760
     /tmp/cc8IgIp2.s:70317  .debug_loc:000000000000040e .LLST23
     /tmp/cc8IgIp2.s:72259  .debug_str:00000000000042e4 .LASF3761
     /tmp/cc8IgIp2.s:70331  .debug_loc:0000000000000447 .LLST24
     /tmp/cc8IgIp2.s:683    .text.MSS_GPIO_drive_inout:0000000000000016 .LVL59
     /tmp/cc8IgIp2.s:76513  .debug_str:000000000000f95a .LASF3762
     /tmp/cc8IgIp2.s:590    .text.MSS_GPIO_set_output:0000000000000000 .LFB27
     /tmp/cc8IgIp2.s:655    .text.MSS_GPIO_set_output:000000000000003a .LFE27
     /tmp/cc8IgIp2.s:70346  .debug_loc:0000000000000490 .LLST18
     /tmp/cc8IgIp2.s:70368  .debug_loc:00000000000004ef .LLST19
     /tmp/cc8IgIp2.s:78171  .debug_str:0000000000013ffb .LASF3763
     /tmp/cc8IgIp2.s:70382  .debug_loc:0000000000000528 .LLST20
     /tmp/cc8IgIp2.s:610    .text.MSS_GPIO_set_output:0000000000000016 .LVL55
     /tmp/cc8IgIp2.s:70735  .debug_str:00000000000000d9 .LASF3764
     /tmp/cc8IgIp2.s:573    .text.MSS_GPIO_config_all:0000000000000000 .LFB26
     /tmp/cc8IgIp2.s:583    .text.MSS_GPIO_config_all:0000000000000006 .LFE26
     /tmp/cc8IgIp2.s:77583  .debug_str:0000000000012668 .LASF3765
     /tmp/cc8IgIp2.s:493    .text.MSS_GPIO_config_byte:0000000000000000 .LFB25
     /tmp/cc8IgIp2.s:566    .text.MSS_GPIO_config_byte:000000000000005a .LFE25
     /tmp/cc8IgIp2.s:70396  .debug_loc:0000000000000561 .LLST16
     /tmp/cc8IgIp2.s:76371  .debug_str:000000000000f305 .LASF3766
     /tmp/cc8IgIp2.s:70414  .debug_loc:00000000000005ad .LLST17
     /tmp/cc8IgIp2.s:76603  .debug_str:000000000000fced .LASF3767
     /tmp/cc8IgIp2.s:428    .text.MSS_GPIO_config:0000000000000000 .LFB24
     /tmp/cc8IgIp2.s:486    .text.MSS_GPIO_config:0000000000000030 .LFE24
     /tmp/cc8IgIp2.s:70432  .debug_loc:00000000000005f9 .LLST13
     /tmp/cc8IgIp2.s:70454  .debug_loc:0000000000000658 .LLST14
     /tmp/cc8IgIp2.s:70468  .debug_loc:0000000000000691 .LLST15
     /tmp/cc8IgIp2.s:448    .text.MSS_GPIO_config:0000000000000016 .LVL46
     /tmp/cc8IgIp2.s:72845  .debug_str:0000000000005a57 .LASF3768
     /tmp/cc8IgIp2.s:410    .text.MSS_GPIO_init:0000000000000000 .LFB23
     /tmp/cc8IgIp2.s:421    .text.MSS_GPIO_init:0000000000000008 .LFE23
     /tmp/cc8IgIp2.s:71269  .debug_str:0000000000001640 .LASF3773
     /tmp/cc8IgIp2.s:74983  .debug_str:000000000000b52e .LASF3769
     /tmp/cc8IgIp2.s:77149  .debug_str:000000000001148e .LASF3770
     /tmp/cc8IgIp2.s:71871  .debug_str:000000000000319c .LASF3771
     /tmp/cc8IgIp2.s:77647  .debug_str:0000000000012903 .LASF3772
     /tmp/cc8IgIp2.s:75841  .debug_str:000000000000db75 .LASF3774
     /tmp/cc8IgIp2.s:13     .text.PLIC_EnableIRQ:0000000000000000 .LFB7
     /tmp/cc8IgIp2.s:169    .text.PLIC_EnableIRQ:00000000000000a4 .LFE7
     /tmp/cc8IgIp2.s:70482  .debug_loc:00000000000006ca .LLST0
     /tmp/cc8IgIp2.s:70496  .debug_loc:0000000000000703 .LLST1
     /tmp/cc8IgIp2.s:70531  .debug_loc:00000000000007ab .LLST2
     /tmp/cc8IgIp2.s:20     .text.PLIC_EnableIRQ:0000000000000000 .LBB8
     /tmp/cc8IgIp2.s:30     .text.PLIC_EnableIRQ:0000000000000004 .LBE8
     /tmp/cc8IgIp2.s:58     .text.PLIC_EnableIRQ:0000000000000026 .LBB9
     /tmp/cc8IgIp2.s:82     .text.PLIC_EnableIRQ:000000000000003c .LBE9
     /tmp/cc8IgIp2.s:59     .text.PLIC_EnableIRQ:0000000000000026 .LBB10
     /tmp/cc8IgIp2.s:81     .text.PLIC_EnableIRQ:000000000000003c .LBE10
     /tmp/cc8IgIp2.s:70538  .debug_loc:00000000000007ce .LLST4
     /tmp/cc8IgIp2.s:175    .text.PLIC_DisableIRQ:0000000000000000 .LFB8
     /tmp/cc8IgIp2.s:334    .text.PLIC_DisableIRQ:00000000000000a0 .LFE8
     /tmp/cc8IgIp2.s:70549  .debug_loc:0000000000000804 .LLST5
     /tmp/cc8IgIp2.s:70563  .debug_loc:000000000000083d .LLST6
     /tmp/cc8IgIp2.s:70598  .debug_loc:00000000000008e5 .LLST7
     /tmp/cc8IgIp2.s:181    .text.PLIC_DisableIRQ:0000000000000000 .LBB15
     /tmp/cc8IgIp2.s:191    .text.PLIC_DisableIRQ:0000000000000004 .LBE15
     /tmp/cc8IgIp2.s:223    .text.PLIC_DisableIRQ:000000000000002c .LBB16
     /tmp/cc8IgIp2.s:247    .text.PLIC_DisableIRQ:0000000000000040 .LBE16
     /tmp/cc8IgIp2.s:224    .text.PLIC_DisableIRQ:000000000000002c .LBB17
     /tmp/cc8IgIp2.s:246    .text.PLIC_DisableIRQ:0000000000000040 .LBE17
     /tmp/cc8IgIp2.s:70605  .debug_loc:0000000000000908 .LLST9
     /tmp/cc8IgIp2.s:340    .text.gpio_number_validate:0000000000000000 .LFB34
     /tmp/cc8IgIp2.s:403    .text.gpio_number_validate:000000000000004c .LFE34
     /tmp/cc8IgIp2.s:70616  .debug_loc:000000000000093e .LLST10
     /tmp/cc8IgIp2.s:377    .text.gpio_number_validate:0000000000000030 .LBB20
     /tmp/cc8IgIp2.s:396    .text.gpio_number_validate:0000000000000048 .LBE20
     /tmp/cc8IgIp2.s:70630  .debug_loc:0000000000000977 .LLST11
     /tmp/cc8IgIp2.s:70637  .debug_loc:000000000000099a .LLST12
     /tmp/cc8IgIp2.s:378    .text.gpio_number_validate:0000000000000030 .LBB21
     /tmp/cc8IgIp2.s:395    .text.gpio_number_validate:0000000000000048 .LBE21
     /tmp/cc8IgIp2.s:1169   .text.MSS_GPIO_clear_irq:0000000000000000 .LVL98
     /tmp/cc8IgIp2.s:1207   .text.MSS_GPIO_clear_irq:0000000000000028 .LVL100
     /tmp/cc8IgIp2.s:1213   .text.MSS_GPIO_clear_irq:000000000000002e .LVL101
     /tmp/cc8IgIp2.s:1102   .text.MSS_GPIO_disable_nondirect_irq:0000000000000000 .LVL91
     /tmp/cc8IgIp2.s:1113   .text.MSS_GPIO_disable_nondirect_irq:0000000000000014 .LVL92
     /tmp/cc8IgIp2.s:1129   .text.MSS_GPIO_disable_nondirect_irq:0000000000000030 .LVL94
     /tmp/cc8IgIp2.s:1131   .text.MSS_GPIO_disable_nondirect_irq:0000000000000032 .LVL95
     /tmp/cc8IgIp2.s:1143   .text.MSS_GPIO_disable_nondirect_irq:0000000000000046 .LVL96
     /tmp/cc8IgIp2.s:1145   .text.MSS_GPIO_disable_nondirect_irq:0000000000000048 .LVL97
     /tmp/cc8IgIp2.s:1035   .text.MSS_GPIO_enable_nondirect_irq:0000000000000000 .LVL84
     /tmp/cc8IgIp2.s:1046   .text.MSS_GPIO_enable_nondirect_irq:0000000000000014 .LVL85
     /tmp/cc8IgIp2.s:1062   .text.MSS_GPIO_enable_nondirect_irq:0000000000000030 .LVL87
     /tmp/cc8IgIp2.s:1064   .text.MSS_GPIO_enable_nondirect_irq:0000000000000032 .LVL88
     /tmp/cc8IgIp2.s:1076   .text.MSS_GPIO_enable_nondirect_irq:0000000000000046 .LVL89
     /tmp/cc8IgIp2.s:1078   .text.MSS_GPIO_enable_nondirect_irq:0000000000000048 .LVL90
     /tmp/cc8IgIp2.s:914    .text.MSS_GPIO_disable_irq:0000000000000000 .LVL77
     /tmp/cc8IgIp2.s:971    .text.MSS_GPIO_disable_irq:000000000000004c .LVL81
     /tmp/cc8IgIp2.s:1020   .text.MSS_GPIO_disable_irq:0000000000000088 .LVL83
     /tmp/cc8IgIp2.s:941    .text.MSS_GPIO_disable_irq:0000000000000022 .LVL79
     /tmp/cc8IgIp2.s:945    .text.MSS_GPIO_disable_irq:0000000000000024 .LVL80
     /tmp/cc8IgIp2.s:798    .text.MSS_GPIO_enable_irq:0000000000000000 .LVL70
     /tmp/cc8IgIp2.s:854    .text.MSS_GPIO_enable_irq:000000000000004e .LVL74
     /tmp/cc8IgIp2.s:899    .text.MSS_GPIO_enable_irq:0000000000000084 .LVL76
     /tmp/cc8IgIp2.s:825    .text.MSS_GPIO_enable_irq:0000000000000022 .LVL72
     /tmp/cc8IgIp2.s:829    .text.MSS_GPIO_enable_irq:0000000000000026 .LVL73
     /tmp/cc8IgIp2.s:665    .text.MSS_GPIO_drive_inout:0000000000000000 .LVL58
     /tmp/cc8IgIp2.s:738    .text.MSS_GPIO_drive_inout:000000000000004e .LVL63
     /tmp/cc8IgIp2.s:742    .text.MSS_GPIO_drive_inout:0000000000000052 .LVL64
     /tmp/cc8IgIp2.s:719    .text.MSS_GPIO_drive_inout:0000000000000042 .LVL60
     /tmp/cc8IgIp2.s:728    .text.MSS_GPIO_drive_inout:0000000000000048 .LVL62
     /tmp/cc8IgIp2.s:758    .text.MSS_GPIO_drive_inout:0000000000000068 .LVL65
     /tmp/cc8IgIp2.s:768    .text.MSS_GPIO_drive_inout:0000000000000070 .LVL67
     /tmp/cc8IgIp2.s:777    .text.MSS_GPIO_drive_inout:000000000000007a .LVL68
     /tmp/cc8IgIp2.s:593    .text.MSS_GPIO_set_output:0000000000000000 .LVL54
     /tmp/cc8IgIp2.s:629    .text.MSS_GPIO_set_output:000000000000002a .LVL56
     /tmp/cc8IgIp2.s:635    .text.MSS_GPIO_set_output:0000000000000030 .LVL57
     /tmp/cc8IgIp2.s:496    .text.MSS_GPIO_config_byte:0000000000000000 .LVL49
     /tmp/cc8IgIp2.s:554    .text.MSS_GPIO_config_byte:000000000000004c .LVL51
     /tmp/cc8IgIp2.s:558    .text.MSS_GPIO_config_byte:0000000000000050 .LVL52
     /tmp/cc8IgIp2.s:549    .text.MSS_GPIO_config_byte:0000000000000042 .LVL50
     /tmp/cc8IgIp2.s:431    .text.MSS_GPIO_config:0000000000000000 .LVL45
     /tmp/cc8IgIp2.s:467    .text.MSS_GPIO_config:0000000000000028 .LVL47
     /tmp/cc8IgIp2.s:471    .text.MSS_GPIO_config:000000000000002c .LVL48
     /tmp/cc8IgIp2.s:17     .text.PLIC_EnableIRQ:0000000000000000 .LVL0
     /tmp/cc8IgIp2.s:43     .text.PLIC_EnableIRQ:0000000000000022 .LVL3
     /tmp/cc8IgIp2.s:88     .text.PLIC_EnableIRQ:0000000000000046 .LVL8
     /tmp/cc8IgIp2.s:96     .text.PLIC_EnableIRQ:0000000000000050 .LVL9
     /tmp/cc8IgIp2.s:102    .text.PLIC_EnableIRQ:0000000000000056 .LVL10
     /tmp/cc8IgIp2.s:109    .text.PLIC_EnableIRQ:0000000000000060 .LVL11
     /tmp/cc8IgIp2.s:117    .text.PLIC_EnableIRQ:000000000000006a .LVL12
     /tmp/cc8IgIp2.s:123    .text.PLIC_EnableIRQ:0000000000000070 .LVL13
     /tmp/cc8IgIp2.s:130    .text.PLIC_EnableIRQ:000000000000007a .LVL14
     /tmp/cc8IgIp2.s:138    .text.PLIC_EnableIRQ:0000000000000084 .LVL15
     /tmp/cc8IgIp2.s:144    .text.PLIC_EnableIRQ:000000000000008a .LVL16
     /tmp/cc8IgIp2.s:151    .text.PLIC_EnableIRQ:0000000000000094 .LVL17
     /tmp/cc8IgIp2.s:159    .text.PLIC_EnableIRQ:000000000000009e .LVL18
     /tmp/cc8IgIp2.s:164    .text.PLIC_EnableIRQ:00000000000000a2 .LVL19
     /tmp/cc8IgIp2.s:27     .text.PLIC_EnableIRQ:0000000000000004 .LVL1
     /tmp/cc8IgIp2.s:36     .text.PLIC_EnableIRQ:0000000000000014 .LVL2
     /tmp/cc8IgIp2.s:65     .text.PLIC_EnableIRQ:000000000000002e .LVL5
     /tmp/cc8IgIp2.s:73     .text.PLIC_EnableIRQ:0000000000000038 .LVL6
     /tmp/cc8IgIp2.s:79     .text.PLIC_EnableIRQ:000000000000003c .LVL7
     /tmp/cc8IgIp2.s:178    .text.PLIC_DisableIRQ:0000000000000000 .LVL20
     /tmp/cc8IgIp2.s:207    .text.PLIC_DisableIRQ:0000000000000028 .LVL23
     /tmp/cc8IgIp2.s:251    .text.PLIC_DisableIRQ:0000000000000044 .LVL28
     /tmp/cc8IgIp2.s:261    .text.PLIC_DisableIRQ:0000000000000052 .LVL29
     /tmp/cc8IgIp2.s:267    .text.PLIC_DisableIRQ:0000000000000058 .LVL30
     /tmp/cc8IgIp2.s:272    .text.PLIC_DisableIRQ:000000000000005c .LVL31
     /tmp/cc8IgIp2.s:282    .text.PLIC_DisableIRQ:000000000000006a .LVL32
     /tmp/cc8IgIp2.s:288    .text.PLIC_DisableIRQ:0000000000000070 .LVL33
     /tmp/cc8IgIp2.s:293    .text.PLIC_DisableIRQ:0000000000000074 .LVL34
     /tmp/cc8IgIp2.s:303    .text.PLIC_DisableIRQ:0000000000000082 .LVL35
     /tmp/cc8IgIp2.s:309    .text.PLIC_DisableIRQ:0000000000000088 .LVL36
     /tmp/cc8IgIp2.s:314    .text.PLIC_DisableIRQ:000000000000008c .LVL37
     /tmp/cc8IgIp2.s:324    .text.PLIC_DisableIRQ:000000000000009a .LVL38
     /tmp/cc8IgIp2.s:329    .text.PLIC_DisableIRQ:000000000000009e .LVL39
     /tmp/cc8IgIp2.s:188    .text.PLIC_DisableIRQ:0000000000000004 .LVL21
     /tmp/cc8IgIp2.s:197    .text.PLIC_DisableIRQ:0000000000000014 .LVL22
     /tmp/cc8IgIp2.s:228    .text.PLIC_DisableIRQ:000000000000002e .LVL25
     /tmp/cc8IgIp2.s:238    .text.PLIC_DisableIRQ:000000000000003c .LVL26
     /tmp/cc8IgIp2.s:244    .text.PLIC_DisableIRQ:0000000000000040 .LVL27
     /tmp/cc8IgIp2.s:344    .text.gpio_number_validate:0000000000000000 .LVL40
     /tmp/cc8IgIp2.s:400    .text.gpio_number_validate:000000000000004a .LVL43
     /tmp/cc8IgIp2.s:376    .text.gpio_number_validate:0000000000000030 .LVL41
     /tmp/cc8IgIp2.s:393    .text.gpio_number_validate:0000000000000048 .LVL42
     /tmp/cc8IgIp2.s:1288   .debug_info:0000000000000000 .Ldebug_info0

NO UNDEFINED SYMBOLS
