   1              		.file	"mss_gpio.c"
   2              		.option nopic
   3              		.attribute arch, "rv64i2p0_m2p0_a2p0_f2p0_d2p0_c2p0"
   4              		.attribute unaligned_access, 0
   5              		.attribute stack_align, 16
   6              		.text
   7              	.Ltext0:
   8              		.cfi_sections	.debug_frame
   9              		.section	.text.PLIC_EnableIRQ,"ax",@progbits
  10              		.align	1
  12              	PLIC_EnableIRQ:
  13              	.LFB7:
  14              		.file 1 "/home/vinay/Desktop/softconsole_watershed/Water-shed/src/platform/mpfs_hal/common/mss_pli
   1:/home/vinay/Desktop/softconsole_watershed/Water-shed/src/platform/mpfs_hal/common/mss_plic.h **** /*******************************************************************************
   2:/home/vinay/Desktop/softconsole_watershed/Water-shed/src/platform/mpfs_hal/common/mss_plic.h ****  * Copyright 2019-2022 Microchip FPGA Embedded Systems Solutions.
   3:/home/vinay/Desktop/softconsole_watershed/Water-shed/src/platform/mpfs_hal/common/mss_plic.h ****  *
   4:/home/vinay/Desktop/softconsole_watershed/Water-shed/src/platform/mpfs_hal/common/mss_plic.h ****  * SPDX-License-Identifier: MIT
   5:/home/vinay/Desktop/softconsole_watershed/Water-shed/src/platform/mpfs_hal/common/mss_plic.h ****  *
   6:/home/vinay/Desktop/softconsole_watershed/Water-shed/src/platform/mpfs_hal/common/mss_plic.h ****  * MPFS HAL Embedded Software
   7:/home/vinay/Desktop/softconsole_watershed/Water-shed/src/platform/mpfs_hal/common/mss_plic.h ****  *
   8:/home/vinay/Desktop/softconsole_watershed/Water-shed/src/platform/mpfs_hal/common/mss_plic.h ****  */
   9:/home/vinay/Desktop/softconsole_watershed/Water-shed/src/platform/mpfs_hal/common/mss_plic.h **** 
  10:/home/vinay/Desktop/softconsole_watershed/Water-shed/src/platform/mpfs_hal/common/mss_plic.h **** /*******************************************************************************
  11:/home/vinay/Desktop/softconsole_watershed/Water-shed/src/platform/mpfs_hal/common/mss_plic.h ****  *
  12:/home/vinay/Desktop/softconsole_watershed/Water-shed/src/platform/mpfs_hal/common/mss_plic.h ****  * @file mss_plic.h
  13:/home/vinay/Desktop/softconsole_watershed/Water-shed/src/platform/mpfs_hal/common/mss_plic.h ****  * @author Microchip-FPGA Embedded Systems Solutions
  14:/home/vinay/Desktop/softconsole_watershed/Water-shed/src/platform/mpfs_hal/common/mss_plic.h ****  * @brief PolarFire SoC MSS PLIC and PRCI access data structures and functions.
  15:/home/vinay/Desktop/softconsole_watershed/Water-shed/src/platform/mpfs_hal/common/mss_plic.h ****  *
  16:/home/vinay/Desktop/softconsole_watershed/Water-shed/src/platform/mpfs_hal/common/mss_plic.h ****  * Definitions and functions associated with PLIC interrupts.
  17:/home/vinay/Desktop/softconsole_watershed/Water-shed/src/platform/mpfs_hal/common/mss_plic.h ****  *
  18:/home/vinay/Desktop/softconsole_watershed/Water-shed/src/platform/mpfs_hal/common/mss_plic.h ****  */
  19:/home/vinay/Desktop/softconsole_watershed/Water-shed/src/platform/mpfs_hal/common/mss_plic.h **** #ifndef MSS_PLIC_H
  20:/home/vinay/Desktop/softconsole_watershed/Water-shed/src/platform/mpfs_hal/common/mss_plic.h **** #define MSS_PLIC_H
  21:/home/vinay/Desktop/softconsole_watershed/Water-shed/src/platform/mpfs_hal/common/mss_plic.h **** 
  22:/home/vinay/Desktop/softconsole_watershed/Water-shed/src/platform/mpfs_hal/common/mss_plic.h **** #include <stdint.h>
  23:/home/vinay/Desktop/softconsole_watershed/Water-shed/src/platform/mpfs_hal/common/mss_plic.h **** #ifndef CONFIG_OPENSBI
  24:/home/vinay/Desktop/softconsole_watershed/Water-shed/src/platform/mpfs_hal/common/mss_plic.h **** #include "encoding.h"
  25:/home/vinay/Desktop/softconsole_watershed/Water-shed/src/platform/mpfs_hal/common/mss_plic.h **** #endif
  26:/home/vinay/Desktop/softconsole_watershed/Water-shed/src/platform/mpfs_hal/common/mss_plic.h **** 
  27:/home/vinay/Desktop/softconsole_watershed/Water-shed/src/platform/mpfs_hal/common/mss_plic.h **** #include "mss_legacy_defines.h"
  28:/home/vinay/Desktop/softconsole_watershed/Water-shed/src/platform/mpfs_hal/common/mss_plic.h **** #include "mss_assert.h"
  29:/home/vinay/Desktop/softconsole_watershed/Water-shed/src/platform/mpfs_hal/common/mss_plic.h **** 
  30:/home/vinay/Desktop/softconsole_watershed/Water-shed/src/platform/mpfs_hal/common/mss_plic.h **** #ifdef __cplusplus
  31:/home/vinay/Desktop/softconsole_watershed/Water-shed/src/platform/mpfs_hal/common/mss_plic.h **** extern "C" {
  32:/home/vinay/Desktop/softconsole_watershed/Water-shed/src/platform/mpfs_hal/common/mss_plic.h **** #endif
  33:/home/vinay/Desktop/softconsole_watershed/Water-shed/src/platform/mpfs_hal/common/mss_plic.h **** 
  34:/home/vinay/Desktop/softconsole_watershed/Water-shed/src/platform/mpfs_hal/common/mss_plic.h **** /*
  35:/home/vinay/Desktop/softconsole_watershed/Water-shed/src/platform/mpfs_hal/common/mss_plic.h ****  *Return value from External IRQ handler. This will be used to disable the
  36:/home/vinay/Desktop/softconsole_watershed/Water-shed/src/platform/mpfs_hal/common/mss_plic.h ****  *Return External interrupt.
  37:/home/vinay/Desktop/softconsole_watershed/Water-shed/src/platform/mpfs_hal/common/mss_plic.h ****  */
  38:/home/vinay/Desktop/softconsole_watershed/Water-shed/src/platform/mpfs_hal/common/mss_plic.h **** #define EXT_IRQ_KEEP_ENABLED                                0U
  39:/home/vinay/Desktop/softconsole_watershed/Water-shed/src/platform/mpfs_hal/common/mss_plic.h **** #define EXT_IRQ_DISABLE                                     1U
  40:/home/vinay/Desktop/softconsole_watershed/Water-shed/src/platform/mpfs_hal/common/mss_plic.h **** 
  41:/home/vinay/Desktop/softconsole_watershed/Water-shed/src/platform/mpfs_hal/common/mss_plic.h **** /*------------------------------------------------------------------------------
  42:/home/vinay/Desktop/softconsole_watershed/Water-shed/src/platform/mpfs_hal/common/mss_plic.h ****  *
  43:/home/vinay/Desktop/softconsole_watershed/Water-shed/src/platform/mpfs_hal/common/mss_plic.h ****  */
  44:/home/vinay/Desktop/softconsole_watershed/Water-shed/src/platform/mpfs_hal/common/mss_plic.h **** uint8_t  PLIC_Invalid_IRQHandler(void);
  45:/home/vinay/Desktop/softconsole_watershed/Water-shed/src/platform/mpfs_hal/common/mss_plic.h **** uint8_t  PLIC_l2_metadata_corr_IRQHandler(void);
  46:/home/vinay/Desktop/softconsole_watershed/Water-shed/src/platform/mpfs_hal/common/mss_plic.h **** uint8_t  PLIC_l2_metadata_uncorr_IRQHandler(void);
  47:/home/vinay/Desktop/softconsole_watershed/Water-shed/src/platform/mpfs_hal/common/mss_plic.h **** uint8_t  PLIC_l2_data_corr_IRQHandler(void);
  48:/home/vinay/Desktop/softconsole_watershed/Water-shed/src/platform/mpfs_hal/common/mss_plic.h **** uint8_t  PLIC_l2_data_uncorr_IRQHandler(void);
  49:/home/vinay/Desktop/softconsole_watershed/Water-shed/src/platform/mpfs_hal/common/mss_plic.h **** uint8_t  PLIC_dma_ch0_DONE_IRQHandler(void);
  50:/home/vinay/Desktop/softconsole_watershed/Water-shed/src/platform/mpfs_hal/common/mss_plic.h **** uint8_t  PLIC_dma_ch0_ERR_IRQHandler(void);
  51:/home/vinay/Desktop/softconsole_watershed/Water-shed/src/platform/mpfs_hal/common/mss_plic.h **** uint8_t  PLIC_dma_ch1_DONE_IRQHandler(void);
  52:/home/vinay/Desktop/softconsole_watershed/Water-shed/src/platform/mpfs_hal/common/mss_plic.h **** uint8_t  PLIC_dma_ch1_ERR_IRQHandler(void);
  53:/home/vinay/Desktop/softconsole_watershed/Water-shed/src/platform/mpfs_hal/common/mss_plic.h **** uint8_t  PLIC_dma_ch2_DONE_IRQHandler(void);
  54:/home/vinay/Desktop/softconsole_watershed/Water-shed/src/platform/mpfs_hal/common/mss_plic.h **** uint8_t  PLIC_dma_ch2_ERR_IRQHandler(void);
  55:/home/vinay/Desktop/softconsole_watershed/Water-shed/src/platform/mpfs_hal/common/mss_plic.h **** uint8_t  PLIC_dma_ch3_DONE_IRQHandler(void);
  56:/home/vinay/Desktop/softconsole_watershed/Water-shed/src/platform/mpfs_hal/common/mss_plic.h **** uint8_t  PLIC_dma_ch3_ERR_IRQHandler(void);
  57:/home/vinay/Desktop/softconsole_watershed/Water-shed/src/platform/mpfs_hal/common/mss_plic.h **** uint8_t  PLIC_gpio0_bit0_or_gpio2_bit13_IRQHandler(void);
  58:/home/vinay/Desktop/softconsole_watershed/Water-shed/src/platform/mpfs_hal/common/mss_plic.h **** uint8_t  PLIC_gpio0_bit1_or_gpio2_bit13_IRQHandler(void);
  59:/home/vinay/Desktop/softconsole_watershed/Water-shed/src/platform/mpfs_hal/common/mss_plic.h **** uint8_t  PLIC_gpio0_bit2_or_gpio2_bit13_IRQHandler(void);
  60:/home/vinay/Desktop/softconsole_watershed/Water-shed/src/platform/mpfs_hal/common/mss_plic.h **** uint8_t  PLIC_gpio0_bit3_or_gpio2_bit13_IRQHandler(void);
  61:/home/vinay/Desktop/softconsole_watershed/Water-shed/src/platform/mpfs_hal/common/mss_plic.h **** uint8_t  PLIC_gpio0_bit4_or_gpio2_bit13_IRQHandler(void);
  62:/home/vinay/Desktop/softconsole_watershed/Water-shed/src/platform/mpfs_hal/common/mss_plic.h **** uint8_t  PLIC_gpio0_bit5_or_gpio2_bit13_IRQHandler(void);
  63:/home/vinay/Desktop/softconsole_watershed/Water-shed/src/platform/mpfs_hal/common/mss_plic.h **** uint8_t  PLIC_gpio0_bit6_or_gpio2_bit13_IRQHandler(void);
  64:/home/vinay/Desktop/softconsole_watershed/Water-shed/src/platform/mpfs_hal/common/mss_plic.h **** uint8_t  PLIC_gpio0_bit7_or_gpio2_bit13_IRQHandler(void);
  65:/home/vinay/Desktop/softconsole_watershed/Water-shed/src/platform/mpfs_hal/common/mss_plic.h **** uint8_t  PLIC_gpio0_bit8_or_gpio2_bit13_IRQHandler(void);
  66:/home/vinay/Desktop/softconsole_watershed/Water-shed/src/platform/mpfs_hal/common/mss_plic.h **** uint8_t  PLIC_gpio0_bit9_or_gpio2_bit13_IRQHandler(void);
  67:/home/vinay/Desktop/softconsole_watershed/Water-shed/src/platform/mpfs_hal/common/mss_plic.h **** uint8_t  PLIC_gpio0_bit10_or_gpio2_bit13_IRQHandler(void);
  68:/home/vinay/Desktop/softconsole_watershed/Water-shed/src/platform/mpfs_hal/common/mss_plic.h **** uint8_t  PLIC_gpio0_bit11_or_gpio2_bit13_IRQHandler(void);
  69:/home/vinay/Desktop/softconsole_watershed/Water-shed/src/platform/mpfs_hal/common/mss_plic.h **** uint8_t  PLIC_gpio0_bit12_or_gpio2_bit13_IRQHandler(void);
  70:/home/vinay/Desktop/softconsole_watershed/Water-shed/src/platform/mpfs_hal/common/mss_plic.h **** 
  71:/home/vinay/Desktop/softconsole_watershed/Water-shed/src/platform/mpfs_hal/common/mss_plic.h **** uint8_t  PLIC_gpio0_bit13_or_gpio2_bit13_IRQHandler(void);
  72:/home/vinay/Desktop/softconsole_watershed/Water-shed/src/platform/mpfs_hal/common/mss_plic.h **** uint8_t  PLIC_gpio1_bit0_or_gpio2_bit14_IRQHandler(void);
  73:/home/vinay/Desktop/softconsole_watershed/Water-shed/src/platform/mpfs_hal/common/mss_plic.h **** uint8_t  PLIC_gpio1_bit1_or_gpio2_bit15_IRQHandler(void);
  74:/home/vinay/Desktop/softconsole_watershed/Water-shed/src/platform/mpfs_hal/common/mss_plic.h **** uint8_t  PLIC_gpio1_bit2_or_gpio2_bit16_IRQHandler(void);
  75:/home/vinay/Desktop/softconsole_watershed/Water-shed/src/platform/mpfs_hal/common/mss_plic.h **** uint8_t  PLIC_gpio1_bit3_or_gpio2_bit17_IRQHandler(void);
  76:/home/vinay/Desktop/softconsole_watershed/Water-shed/src/platform/mpfs_hal/common/mss_plic.h **** uint8_t  PLIC_gpio1_bit4_or_gpio2_bit18_IRQHandler(void);
  77:/home/vinay/Desktop/softconsole_watershed/Water-shed/src/platform/mpfs_hal/common/mss_plic.h **** uint8_t  PLIC_gpio1_bit5_or_gpio2_bit19_IRQHandler(void);
  78:/home/vinay/Desktop/softconsole_watershed/Water-shed/src/platform/mpfs_hal/common/mss_plic.h **** uint8_t  PLIC_gpio1_bit6_or_gpio2_bit20_IRQHandler(void);
  79:/home/vinay/Desktop/softconsole_watershed/Water-shed/src/platform/mpfs_hal/common/mss_plic.h **** uint8_t  PLIC_gpio1_bit7_or_gpio2_bit21_IRQHandler(void);
  80:/home/vinay/Desktop/softconsole_watershed/Water-shed/src/platform/mpfs_hal/common/mss_plic.h **** uint8_t  PLIC_gpio1_bit8_or_gpio2_bit22_IRQHandler(void);
  81:/home/vinay/Desktop/softconsole_watershed/Water-shed/src/platform/mpfs_hal/common/mss_plic.h **** uint8_t  PLIC_gpio1_bit9_or_gpio2_bit23_IRQHandler(void);
  82:/home/vinay/Desktop/softconsole_watershed/Water-shed/src/platform/mpfs_hal/common/mss_plic.h **** uint8_t  PLIC_gpio1_bit10_or_gpio2_bit24_IRQHandler(void);
  83:/home/vinay/Desktop/softconsole_watershed/Water-shed/src/platform/mpfs_hal/common/mss_plic.h **** uint8_t  PLIC_gpio1_bit11_or_gpio2_bit25_IRQHandler(void);
  84:/home/vinay/Desktop/softconsole_watershed/Water-shed/src/platform/mpfs_hal/common/mss_plic.h **** uint8_t  PLIC_gpio1_bit12_or_gpio2_bit26_IRQHandler(void);
  85:/home/vinay/Desktop/softconsole_watershed/Water-shed/src/platform/mpfs_hal/common/mss_plic.h **** uint8_t  PLIC_gpio1_bit13_or_gpio2_bit27_IRQHandler(void);
  86:/home/vinay/Desktop/softconsole_watershed/Water-shed/src/platform/mpfs_hal/common/mss_plic.h **** 
  87:/home/vinay/Desktop/softconsole_watershed/Water-shed/src/platform/mpfs_hal/common/mss_plic.h **** uint8_t  PLIC_gpio1_bit14_or_gpio2_bit28_IRQHandler(void);
  88:/home/vinay/Desktop/softconsole_watershed/Water-shed/src/platform/mpfs_hal/common/mss_plic.h **** uint8_t  PLIC_gpio1_bit15_or_gpio2_bit29_IRQHandler(void);
  89:/home/vinay/Desktop/softconsole_watershed/Water-shed/src/platform/mpfs_hal/common/mss_plic.h **** uint8_t  PLIC_gpio1_bit16_or_gpio2_bit30_IRQHandler(void);
  90:/home/vinay/Desktop/softconsole_watershed/Water-shed/src/platform/mpfs_hal/common/mss_plic.h **** uint8_t  PLIC_gpio1_bit17_or_gpio2_bit31_IRQHandler(void);
  91:/home/vinay/Desktop/softconsole_watershed/Water-shed/src/platform/mpfs_hal/common/mss_plic.h **** 
  92:/home/vinay/Desktop/softconsole_watershed/Water-shed/src/platform/mpfs_hal/common/mss_plic.h **** uint8_t  PLIC_gpio1_bit18_IRQHandler(void);
  93:/home/vinay/Desktop/softconsole_watershed/Water-shed/src/platform/mpfs_hal/common/mss_plic.h **** uint8_t  PLIC_gpio1_bit19_IRQHandler(void);
  94:/home/vinay/Desktop/softconsole_watershed/Water-shed/src/platform/mpfs_hal/common/mss_plic.h **** uint8_t  PLIC_gpio1_bit20_IRQHandler(void);
  95:/home/vinay/Desktop/softconsole_watershed/Water-shed/src/platform/mpfs_hal/common/mss_plic.h **** uint8_t  PLIC_gpio1_bit21_IRQHandler(void);
  96:/home/vinay/Desktop/softconsole_watershed/Water-shed/src/platform/mpfs_hal/common/mss_plic.h **** uint8_t  PLIC_gpio1_bit22_IRQHandler(void);
  97:/home/vinay/Desktop/softconsole_watershed/Water-shed/src/platform/mpfs_hal/common/mss_plic.h **** uint8_t  PLIC_gpio1_bit23_IRQHandler(void);
  98:/home/vinay/Desktop/softconsole_watershed/Water-shed/src/platform/mpfs_hal/common/mss_plic.h **** 
  99:/home/vinay/Desktop/softconsole_watershed/Water-shed/src/platform/mpfs_hal/common/mss_plic.h **** uint8_t  PLIC_gpio0_non_direct_IRQHandler(void);
 100:/home/vinay/Desktop/softconsole_watershed/Water-shed/src/platform/mpfs_hal/common/mss_plic.h **** uint8_t  PLIC_gpio1_non_direct_IRQHandler(void);
 101:/home/vinay/Desktop/softconsole_watershed/Water-shed/src/platform/mpfs_hal/common/mss_plic.h **** uint8_t  PLIC_gpio2_non_direct_IRQHandler(void);
 102:/home/vinay/Desktop/softconsole_watershed/Water-shed/src/platform/mpfs_hal/common/mss_plic.h **** 
 103:/home/vinay/Desktop/softconsole_watershed/Water-shed/src/platform/mpfs_hal/common/mss_plic.h **** uint8_t  PLIC_spi0_IRQHandler(void);
 104:/home/vinay/Desktop/softconsole_watershed/Water-shed/src/platform/mpfs_hal/common/mss_plic.h **** uint8_t  PLIC_spi1_IRQHandler(void);
 105:/home/vinay/Desktop/softconsole_watershed/Water-shed/src/platform/mpfs_hal/common/mss_plic.h **** uint8_t  PLIC_external_can0_IRQHandler(void);
 106:/home/vinay/Desktop/softconsole_watershed/Water-shed/src/platform/mpfs_hal/common/mss_plic.h **** uint8_t  PLIC_can1_IRQHandler(void);
 107:/home/vinay/Desktop/softconsole_watershed/Water-shed/src/platform/mpfs_hal/common/mss_plic.h **** uint8_t  PLIC_External_i2c0_main_IRQHandler(void);
 108:/home/vinay/Desktop/softconsole_watershed/Water-shed/src/platform/mpfs_hal/common/mss_plic.h **** uint8_t  PLIC_External_i2c0_alert_IRQHandler(void);
 109:/home/vinay/Desktop/softconsole_watershed/Water-shed/src/platform/mpfs_hal/common/mss_plic.h **** uint8_t  PLIC_i2c0_sus_IRQHandler(void);
 110:/home/vinay/Desktop/softconsole_watershed/Water-shed/src/platform/mpfs_hal/common/mss_plic.h **** uint8_t  PLIC_i2c1_main_IRQHandler(void);
 111:/home/vinay/Desktop/softconsole_watershed/Water-shed/src/platform/mpfs_hal/common/mss_plic.h **** uint8_t  PLIC_i2c1_alert_IRQHandler(void);
 112:/home/vinay/Desktop/softconsole_watershed/Water-shed/src/platform/mpfs_hal/common/mss_plic.h **** uint8_t  PLIC_i2c1_sus_IRQHandler(void);
 113:/home/vinay/Desktop/softconsole_watershed/Water-shed/src/platform/mpfs_hal/common/mss_plic.h **** uint8_t  PLIC_mac0_int_IRQHandler(void);
 114:/home/vinay/Desktop/softconsole_watershed/Water-shed/src/platform/mpfs_hal/common/mss_plic.h **** uint8_t  PLIC_mac0_queue1_IRQHandler(void);
 115:/home/vinay/Desktop/softconsole_watershed/Water-shed/src/platform/mpfs_hal/common/mss_plic.h **** uint8_t  PLIC_mac0_queue2_IRQHandler(void);
 116:/home/vinay/Desktop/softconsole_watershed/Water-shed/src/platform/mpfs_hal/common/mss_plic.h **** uint8_t  PLIC_mac0_queue3_IRQHandler(void);
 117:/home/vinay/Desktop/softconsole_watershed/Water-shed/src/platform/mpfs_hal/common/mss_plic.h **** uint8_t  PLIC_mac0_emac_IRQHandler(void);
 118:/home/vinay/Desktop/softconsole_watershed/Water-shed/src/platform/mpfs_hal/common/mss_plic.h **** uint8_t  PLIC_mac0_mmsl_IRQHandler(void);
 119:/home/vinay/Desktop/softconsole_watershed/Water-shed/src/platform/mpfs_hal/common/mss_plic.h **** uint8_t  PLIC_mac1_int_IRQHandler(void);
 120:/home/vinay/Desktop/softconsole_watershed/Water-shed/src/platform/mpfs_hal/common/mss_plic.h **** uint8_t  PLIC_mac1_queue1_IRQHandler(void);
 121:/home/vinay/Desktop/softconsole_watershed/Water-shed/src/platform/mpfs_hal/common/mss_plic.h **** uint8_t  PLIC_mac1_queue2_IRQHandler(void);
 122:/home/vinay/Desktop/softconsole_watershed/Water-shed/src/platform/mpfs_hal/common/mss_plic.h **** uint8_t  PLIC_mac1_queue3_IRQHandler(void);
 123:/home/vinay/Desktop/softconsole_watershed/Water-shed/src/platform/mpfs_hal/common/mss_plic.h **** uint8_t  PLIC_mac1_emac_IRQHandler(void);
 124:/home/vinay/Desktop/softconsole_watershed/Water-shed/src/platform/mpfs_hal/common/mss_plic.h **** uint8_t  PLIC_mac1_mmsl_IRQHandler(void);
 125:/home/vinay/Desktop/softconsole_watershed/Water-shed/src/platform/mpfs_hal/common/mss_plic.h **** uint8_t  PLIC_ddrc_train_IRQHandler(void);
 126:/home/vinay/Desktop/softconsole_watershed/Water-shed/src/platform/mpfs_hal/common/mss_plic.h **** uint8_t  PLIC_scb_interrupt_IRQHandler(void);
 127:/home/vinay/Desktop/softconsole_watershed/Water-shed/src/platform/mpfs_hal/common/mss_plic.h **** uint8_t  PLIC_ecc_error_IRQHandler(void);
 128:/home/vinay/Desktop/softconsole_watershed/Water-shed/src/platform/mpfs_hal/common/mss_plic.h **** uint8_t  PLIC_ecc_correct_IRQHandler(void);
 129:/home/vinay/Desktop/softconsole_watershed/Water-shed/src/platform/mpfs_hal/common/mss_plic.h **** uint8_t  PLIC_rtc_wakeup_IRQHandler(void);
 130:/home/vinay/Desktop/softconsole_watershed/Water-shed/src/platform/mpfs_hal/common/mss_plic.h **** uint8_t  PLIC_rtc_match_IRQHandler(void);
 131:/home/vinay/Desktop/softconsole_watershed/Water-shed/src/platform/mpfs_hal/common/mss_plic.h **** uint8_t  PLIC_timer1_IRQHandler(void);
 132:/home/vinay/Desktop/softconsole_watershed/Water-shed/src/platform/mpfs_hal/common/mss_plic.h **** uint8_t  PLIC_timer2_IRQHandler(void);
 133:/home/vinay/Desktop/softconsole_watershed/Water-shed/src/platform/mpfs_hal/common/mss_plic.h **** uint8_t  PLIC_envm_IRQHandler(void);
 134:/home/vinay/Desktop/softconsole_watershed/Water-shed/src/platform/mpfs_hal/common/mss_plic.h **** uint8_t  PLIC_qspi_IRQHandler(void);
 135:/home/vinay/Desktop/softconsole_watershed/Water-shed/src/platform/mpfs_hal/common/mss_plic.h **** uint8_t  PLIC_usb_dma_IRQHandler(void);
 136:/home/vinay/Desktop/softconsole_watershed/Water-shed/src/platform/mpfs_hal/common/mss_plic.h **** uint8_t  PLIC_usb_mc_IRQHandler(void);
 137:/home/vinay/Desktop/softconsole_watershed/Water-shed/src/platform/mpfs_hal/common/mss_plic.h **** uint8_t  PLIC_mmc_main_IRQHandler(void);
 138:/home/vinay/Desktop/softconsole_watershed/Water-shed/src/platform/mpfs_hal/common/mss_plic.h **** uint8_t  PLIC_mmc_wakeup_IRQHandler(void);
 139:/home/vinay/Desktop/softconsole_watershed/Water-shed/src/platform/mpfs_hal/common/mss_plic.h **** uint8_t  PLIC_mmuart0_IRQHandler(void);
 140:/home/vinay/Desktop/softconsole_watershed/Water-shed/src/platform/mpfs_hal/common/mss_plic.h **** uint8_t  PLIC_mmuart1_IRQHandler(void);
 141:/home/vinay/Desktop/softconsole_watershed/Water-shed/src/platform/mpfs_hal/common/mss_plic.h **** uint8_t  PLIC_mmuart2_IRQHandler(void);
 142:/home/vinay/Desktop/softconsole_watershed/Water-shed/src/platform/mpfs_hal/common/mss_plic.h **** uint8_t  PLIC_mmuart3_IRQHandler(void);
 143:/home/vinay/Desktop/softconsole_watershed/Water-shed/src/platform/mpfs_hal/common/mss_plic.h **** uint8_t  PLIC_mmuart4_IRQHandler(void);
 144:/home/vinay/Desktop/softconsole_watershed/Water-shed/src/platform/mpfs_hal/common/mss_plic.h **** uint8_t  PLIC_devrst_IRQHandler(void);
 145:/home/vinay/Desktop/softconsole_watershed/Water-shed/src/platform/mpfs_hal/common/mss_plic.h **** uint8_t  PLIC_g5c_message_IRQHandler(void);
 146:/home/vinay/Desktop/softconsole_watershed/Water-shed/src/platform/mpfs_hal/common/mss_plic.h **** uint8_t  PLIC_usoc_vc_interrupt_IRQHandler(void);
 147:/home/vinay/Desktop/softconsole_watershed/Water-shed/src/platform/mpfs_hal/common/mss_plic.h **** uint8_t  PLIC_usoc_smb_interrupt_IRQHandler(void);
 148:/home/vinay/Desktop/softconsole_watershed/Water-shed/src/platform/mpfs_hal/common/mss_plic.h **** uint8_t  PLIC_E51_Maintence_IRQHandler(void);
 149:/home/vinay/Desktop/softconsole_watershed/Water-shed/src/platform/mpfs_hal/common/mss_plic.h **** 
 150:/home/vinay/Desktop/softconsole_watershed/Water-shed/src/platform/mpfs_hal/common/mss_plic.h **** uint8_t  PLIC_wdog0_mvrp_IRQHandler(void);
 151:/home/vinay/Desktop/softconsole_watershed/Water-shed/src/platform/mpfs_hal/common/mss_plic.h **** uint8_t  PLIC_wdog1_mvrp_IRQHandler(void);
 152:/home/vinay/Desktop/softconsole_watershed/Water-shed/src/platform/mpfs_hal/common/mss_plic.h **** uint8_t  PLIC_wdog2_mvrp_IRQHandler(void);
 153:/home/vinay/Desktop/softconsole_watershed/Water-shed/src/platform/mpfs_hal/common/mss_plic.h **** uint8_t  PLIC_wdog3_mvrp_IRQHandler(void);
 154:/home/vinay/Desktop/softconsole_watershed/Water-shed/src/platform/mpfs_hal/common/mss_plic.h **** uint8_t  PLIC_wdog4_mvrp_IRQHandler(void);
 155:/home/vinay/Desktop/softconsole_watershed/Water-shed/src/platform/mpfs_hal/common/mss_plic.h **** uint8_t  PLIC_wdog0_tout_IRQHandler(void);
 156:/home/vinay/Desktop/softconsole_watershed/Water-shed/src/platform/mpfs_hal/common/mss_plic.h **** uint8_t  PLIC_wdog1_tout_IRQHandler(void);
 157:/home/vinay/Desktop/softconsole_watershed/Water-shed/src/platform/mpfs_hal/common/mss_plic.h **** uint8_t  PLIC_wdog2_tout_IRQHandler(void);
 158:/home/vinay/Desktop/softconsole_watershed/Water-shed/src/platform/mpfs_hal/common/mss_plic.h **** uint8_t  PLIC_wdog3_tout_IRQHandler(void);
 159:/home/vinay/Desktop/softconsole_watershed/Water-shed/src/platform/mpfs_hal/common/mss_plic.h **** uint8_t  PLIC_wdog4_tout_IRQHandler(void);
 160:/home/vinay/Desktop/softconsole_watershed/Water-shed/src/platform/mpfs_hal/common/mss_plic.h **** uint8_t  PLIC_g5c_mss_spi_IRQHandler(void);
 161:/home/vinay/Desktop/softconsole_watershed/Water-shed/src/platform/mpfs_hal/common/mss_plic.h **** uint8_t  PLIC_volt_temp_alarm_IRQHandler(void);
 162:/home/vinay/Desktop/softconsole_watershed/Water-shed/src/platform/mpfs_hal/common/mss_plic.h **** 
 163:/home/vinay/Desktop/softconsole_watershed/Water-shed/src/platform/mpfs_hal/common/mss_plic.h **** uint8_t  PLIC_athena_complete_IRQHandler(void);
 164:/home/vinay/Desktop/softconsole_watershed/Water-shed/src/platform/mpfs_hal/common/mss_plic.h **** uint8_t  PLIC_athena_alarm_IRQHandler(void);
 165:/home/vinay/Desktop/softconsole_watershed/Water-shed/src/platform/mpfs_hal/common/mss_plic.h **** uint8_t  PLIC_athena_bus_error_IRQHandler(void);
 166:/home/vinay/Desktop/softconsole_watershed/Water-shed/src/platform/mpfs_hal/common/mss_plic.h **** uint8_t  PLIC_usoc_axic_us_IRQHandler(void);
 167:/home/vinay/Desktop/softconsole_watershed/Water-shed/src/platform/mpfs_hal/common/mss_plic.h **** uint8_t  PLIC_usoc_axic_ds_IRQHandler(void);
 168:/home/vinay/Desktop/softconsole_watershed/Water-shed/src/platform/mpfs_hal/common/mss_plic.h **** 
 169:/home/vinay/Desktop/softconsole_watershed/Water-shed/src/platform/mpfs_hal/common/mss_plic.h **** uint8_t  PLIC_reserved_104_IRQHandler(void);
 170:/home/vinay/Desktop/softconsole_watershed/Water-shed/src/platform/mpfs_hal/common/mss_plic.h **** 
 171:/home/vinay/Desktop/softconsole_watershed/Water-shed/src/platform/mpfs_hal/common/mss_plic.h **** uint8_t  PLIC_f2m_0_IRQHandler(void);
 172:/home/vinay/Desktop/softconsole_watershed/Water-shed/src/platform/mpfs_hal/common/mss_plic.h **** uint8_t  PLIC_f2m_1_IRQHandler(void);
 173:/home/vinay/Desktop/softconsole_watershed/Water-shed/src/platform/mpfs_hal/common/mss_plic.h **** uint8_t  PLIC_f2m_2_IRQHandler(void);
 174:/home/vinay/Desktop/softconsole_watershed/Water-shed/src/platform/mpfs_hal/common/mss_plic.h **** uint8_t  PLIC_f2m_3_IRQHandler(void);
 175:/home/vinay/Desktop/softconsole_watershed/Water-shed/src/platform/mpfs_hal/common/mss_plic.h **** uint8_t  PLIC_f2m_4_IRQHandler(void);
 176:/home/vinay/Desktop/softconsole_watershed/Water-shed/src/platform/mpfs_hal/common/mss_plic.h **** uint8_t  PLIC_f2m_5_IRQHandler(void);
 177:/home/vinay/Desktop/softconsole_watershed/Water-shed/src/platform/mpfs_hal/common/mss_plic.h **** uint8_t  PLIC_f2m_6_IRQHandler(void);
 178:/home/vinay/Desktop/softconsole_watershed/Water-shed/src/platform/mpfs_hal/common/mss_plic.h **** uint8_t  PLIC_f2m_7_IRQHandler(void);
 179:/home/vinay/Desktop/softconsole_watershed/Water-shed/src/platform/mpfs_hal/common/mss_plic.h **** uint8_t  PLIC_f2m_8_IRQHandler(void);
 180:/home/vinay/Desktop/softconsole_watershed/Water-shed/src/platform/mpfs_hal/common/mss_plic.h **** uint8_t  PLIC_f2m_9_IRQHandler(void);
 181:/home/vinay/Desktop/softconsole_watershed/Water-shed/src/platform/mpfs_hal/common/mss_plic.h **** 
 182:/home/vinay/Desktop/softconsole_watershed/Water-shed/src/platform/mpfs_hal/common/mss_plic.h **** uint8_t  PLIC_f2m_10_IRQHandler(void);
 183:/home/vinay/Desktop/softconsole_watershed/Water-shed/src/platform/mpfs_hal/common/mss_plic.h **** uint8_t  PLIC_f2m_11_IRQHandler(void);
 184:/home/vinay/Desktop/softconsole_watershed/Water-shed/src/platform/mpfs_hal/common/mss_plic.h **** uint8_t  PLIC_f2m_12_IRQHandler(void);
 185:/home/vinay/Desktop/softconsole_watershed/Water-shed/src/platform/mpfs_hal/common/mss_plic.h **** uint8_t  PLIC_f2m_13_IRQHandler(void);
 186:/home/vinay/Desktop/softconsole_watershed/Water-shed/src/platform/mpfs_hal/common/mss_plic.h **** uint8_t  PLIC_f2m_14_IRQHandler(void);
 187:/home/vinay/Desktop/softconsole_watershed/Water-shed/src/platform/mpfs_hal/common/mss_plic.h **** uint8_t  PLIC_f2m_15_IRQHandler(void);
 188:/home/vinay/Desktop/softconsole_watershed/Water-shed/src/platform/mpfs_hal/common/mss_plic.h **** uint8_t  PLIC_f2m_16_IRQHandler(void);
 189:/home/vinay/Desktop/softconsole_watershed/Water-shed/src/platform/mpfs_hal/common/mss_plic.h **** uint8_t  PLIC_f2m_17_IRQHandler(void);
 190:/home/vinay/Desktop/softconsole_watershed/Water-shed/src/platform/mpfs_hal/common/mss_plic.h **** uint8_t  PLIC_f2m_18_IRQHandler(void);
 191:/home/vinay/Desktop/softconsole_watershed/Water-shed/src/platform/mpfs_hal/common/mss_plic.h **** uint8_t  PLIC_f2m_19_IRQHandler(void);
 192:/home/vinay/Desktop/softconsole_watershed/Water-shed/src/platform/mpfs_hal/common/mss_plic.h **** 
 193:/home/vinay/Desktop/softconsole_watershed/Water-shed/src/platform/mpfs_hal/common/mss_plic.h **** uint8_t  PLIC_f2m_20_IRQHandler(void);
 194:/home/vinay/Desktop/softconsole_watershed/Water-shed/src/platform/mpfs_hal/common/mss_plic.h **** uint8_t  PLIC_f2m_21_IRQHandler(void);
 195:/home/vinay/Desktop/softconsole_watershed/Water-shed/src/platform/mpfs_hal/common/mss_plic.h **** uint8_t  PLIC_f2m_22_IRQHandler(void);
 196:/home/vinay/Desktop/softconsole_watershed/Water-shed/src/platform/mpfs_hal/common/mss_plic.h **** uint8_t  PLIC_f2m_23_IRQHandler(void);
 197:/home/vinay/Desktop/softconsole_watershed/Water-shed/src/platform/mpfs_hal/common/mss_plic.h **** uint8_t  PLIC_f2m_24_IRQHandler(void);
 198:/home/vinay/Desktop/softconsole_watershed/Water-shed/src/platform/mpfs_hal/common/mss_plic.h **** uint8_t  PLIC_f2m_25_IRQHandler(void);
 199:/home/vinay/Desktop/softconsole_watershed/Water-shed/src/platform/mpfs_hal/common/mss_plic.h **** uint8_t  PLIC_f2m_26_IRQHandler(void);
 200:/home/vinay/Desktop/softconsole_watershed/Water-shed/src/platform/mpfs_hal/common/mss_plic.h **** uint8_t  PLIC_f2m_27_IRQHandler(void);
 201:/home/vinay/Desktop/softconsole_watershed/Water-shed/src/platform/mpfs_hal/common/mss_plic.h **** uint8_t  PLIC_f2m_28_IRQHandler(void);
 202:/home/vinay/Desktop/softconsole_watershed/Water-shed/src/platform/mpfs_hal/common/mss_plic.h **** uint8_t  PLIC_f2m_29_IRQHandler(void);
 203:/home/vinay/Desktop/softconsole_watershed/Water-shed/src/platform/mpfs_hal/common/mss_plic.h **** 
 204:/home/vinay/Desktop/softconsole_watershed/Water-shed/src/platform/mpfs_hal/common/mss_plic.h **** uint8_t  PLIC_f2m_30_IRQHandler(void);
 205:/home/vinay/Desktop/softconsole_watershed/Water-shed/src/platform/mpfs_hal/common/mss_plic.h **** uint8_t  PLIC_f2m_31_IRQHandler(void);
 206:/home/vinay/Desktop/softconsole_watershed/Water-shed/src/platform/mpfs_hal/common/mss_plic.h **** 
 207:/home/vinay/Desktop/softconsole_watershed/Water-shed/src/platform/mpfs_hal/common/mss_plic.h **** uint8_t  PLIC_f2m_32_IRQHandler(void);
 208:/home/vinay/Desktop/softconsole_watershed/Water-shed/src/platform/mpfs_hal/common/mss_plic.h **** uint8_t  PLIC_f2m_33_IRQHandler(void);
 209:/home/vinay/Desktop/softconsole_watershed/Water-shed/src/platform/mpfs_hal/common/mss_plic.h **** uint8_t  PLIC_f2m_34_IRQHandler(void);
 210:/home/vinay/Desktop/softconsole_watershed/Water-shed/src/platform/mpfs_hal/common/mss_plic.h **** uint8_t  PLIC_f2m_35_IRQHandler(void);
 211:/home/vinay/Desktop/softconsole_watershed/Water-shed/src/platform/mpfs_hal/common/mss_plic.h **** uint8_t  PLIC_f2m_36_IRQHandler(void);
 212:/home/vinay/Desktop/softconsole_watershed/Water-shed/src/platform/mpfs_hal/common/mss_plic.h **** uint8_t  PLIC_f2m_37_IRQHandler(void);
 213:/home/vinay/Desktop/softconsole_watershed/Water-shed/src/platform/mpfs_hal/common/mss_plic.h **** uint8_t  PLIC_f2m_38_IRQHandler(void);
 214:/home/vinay/Desktop/softconsole_watershed/Water-shed/src/platform/mpfs_hal/common/mss_plic.h **** uint8_t  PLIC_f2m_39_IRQHandler(void);
 215:/home/vinay/Desktop/softconsole_watershed/Water-shed/src/platform/mpfs_hal/common/mss_plic.h **** uint8_t  PLIC_f2m_40_IRQHandler(void);
 216:/home/vinay/Desktop/softconsole_watershed/Water-shed/src/platform/mpfs_hal/common/mss_plic.h **** uint8_t  PLIC_f2m_41_IRQHandler(void);
 217:/home/vinay/Desktop/softconsole_watershed/Water-shed/src/platform/mpfs_hal/common/mss_plic.h **** 
 218:/home/vinay/Desktop/softconsole_watershed/Water-shed/src/platform/mpfs_hal/common/mss_plic.h **** uint8_t PLIC_f2m_42_IRQHandler(void);
 219:/home/vinay/Desktop/softconsole_watershed/Water-shed/src/platform/mpfs_hal/common/mss_plic.h **** uint8_t PLIC_f2m_43_IRQHandler(void);
 220:/home/vinay/Desktop/softconsole_watershed/Water-shed/src/platform/mpfs_hal/common/mss_plic.h **** uint8_t PLIC_f2m_44_IRQHandler(void);
 221:/home/vinay/Desktop/softconsole_watershed/Water-shed/src/platform/mpfs_hal/common/mss_plic.h **** uint8_t PLIC_f2m_45_IRQHandler(void);
 222:/home/vinay/Desktop/softconsole_watershed/Water-shed/src/platform/mpfs_hal/common/mss_plic.h **** uint8_t PLIC_f2m_46_IRQHandler(void);
 223:/home/vinay/Desktop/softconsole_watershed/Water-shed/src/platform/mpfs_hal/common/mss_plic.h **** uint8_t PLIC_f2m_47_IRQHandler(void);
 224:/home/vinay/Desktop/softconsole_watershed/Water-shed/src/platform/mpfs_hal/common/mss_plic.h **** uint8_t PLIC_f2m_48_IRQHandler(void);
 225:/home/vinay/Desktop/softconsole_watershed/Water-shed/src/platform/mpfs_hal/common/mss_plic.h **** uint8_t PLIC_f2m_49_IRQHandler(void);
 226:/home/vinay/Desktop/softconsole_watershed/Water-shed/src/platform/mpfs_hal/common/mss_plic.h **** uint8_t PLIC_f2m_50_IRQHandler(void);
 227:/home/vinay/Desktop/softconsole_watershed/Water-shed/src/platform/mpfs_hal/common/mss_plic.h **** uint8_t PLIC_f2m_51_IRQHandler(void);
 228:/home/vinay/Desktop/softconsole_watershed/Water-shed/src/platform/mpfs_hal/common/mss_plic.h **** 
 229:/home/vinay/Desktop/softconsole_watershed/Water-shed/src/platform/mpfs_hal/common/mss_plic.h **** uint8_t PLIC_f2m_52_IRQHandler(void);
 230:/home/vinay/Desktop/softconsole_watershed/Water-shed/src/platform/mpfs_hal/common/mss_plic.h **** uint8_t PLIC_f2m_53_IRQHandler(void);
 231:/home/vinay/Desktop/softconsole_watershed/Water-shed/src/platform/mpfs_hal/common/mss_plic.h **** uint8_t PLIC_f2m_54_IRQHandler(void);
 232:/home/vinay/Desktop/softconsole_watershed/Water-shed/src/platform/mpfs_hal/common/mss_plic.h **** uint8_t PLIC_f2m_55_IRQHandler(void);
 233:/home/vinay/Desktop/softconsole_watershed/Water-shed/src/platform/mpfs_hal/common/mss_plic.h **** uint8_t PLIC_f2m_56_IRQHandler(void);
 234:/home/vinay/Desktop/softconsole_watershed/Water-shed/src/platform/mpfs_hal/common/mss_plic.h **** uint8_t PLIC_f2m_57_IRQHandler(void);
 235:/home/vinay/Desktop/softconsole_watershed/Water-shed/src/platform/mpfs_hal/common/mss_plic.h **** uint8_t PLIC_f2m_58_IRQHandler(void);
 236:/home/vinay/Desktop/softconsole_watershed/Water-shed/src/platform/mpfs_hal/common/mss_plic.h **** uint8_t PLIC_f2m_59_IRQHandler(void);
 237:/home/vinay/Desktop/softconsole_watershed/Water-shed/src/platform/mpfs_hal/common/mss_plic.h **** uint8_t PLIC_f2m_60_IRQHandler(void);
 238:/home/vinay/Desktop/softconsole_watershed/Water-shed/src/platform/mpfs_hal/common/mss_plic.h **** uint8_t PLIC_f2m_61_IRQHandler(void);
 239:/home/vinay/Desktop/softconsole_watershed/Water-shed/src/platform/mpfs_hal/common/mss_plic.h **** 
 240:/home/vinay/Desktop/softconsole_watershed/Water-shed/src/platform/mpfs_hal/common/mss_plic.h **** uint8_t PLIC_f2m_62_IRQHandler(void);
 241:/home/vinay/Desktop/softconsole_watershed/Water-shed/src/platform/mpfs_hal/common/mss_plic.h **** uint8_t PLIC_f2m_63_IRQHandler(void);
 242:/home/vinay/Desktop/softconsole_watershed/Water-shed/src/platform/mpfs_hal/common/mss_plic.h **** 
 243:/home/vinay/Desktop/softconsole_watershed/Water-shed/src/platform/mpfs_hal/common/mss_plic.h **** uint8_t PLIC_E51_bus_error_unit_IRQHandler(void);
 244:/home/vinay/Desktop/softconsole_watershed/Water-shed/src/platform/mpfs_hal/common/mss_plic.h **** uint8_t PLIC_U54_1_bus_error_unit_IRQHandler(void);
 245:/home/vinay/Desktop/softconsole_watershed/Water-shed/src/platform/mpfs_hal/common/mss_plic.h **** uint8_t PLIC_U54_2_bus_error_unit_IRQHandler(void);
 246:/home/vinay/Desktop/softconsole_watershed/Water-shed/src/platform/mpfs_hal/common/mss_plic.h **** uint8_t PLIC_U54_3_bus_error_unit_IRQHandler(void);
 247:/home/vinay/Desktop/softconsole_watershed/Water-shed/src/platform/mpfs_hal/common/mss_plic.h **** uint8_t PLIC_U54_4_bus_error_unit_IRQHandler(void);
 248:/home/vinay/Desktop/softconsole_watershed/Water-shed/src/platform/mpfs_hal/common/mss_plic.h **** 
 249:/home/vinay/Desktop/softconsole_watershed/Water-shed/src/platform/mpfs_hal/common/mss_plic.h **** /***************************************************************************//**
 250:/home/vinay/Desktop/softconsole_watershed/Water-shed/src/platform/mpfs_hal/common/mss_plic.h ****  * PLIC source Interrupt numbers:
 251:/home/vinay/Desktop/softconsole_watershed/Water-shed/src/platform/mpfs_hal/common/mss_plic.h ****  */
 252:/home/vinay/Desktop/softconsole_watershed/Water-shed/src/platform/mpfs_hal/common/mss_plic.h **** /* See section on PLIC Interrupt Sources in User Guide */
 253:/home/vinay/Desktop/softconsole_watershed/Water-shed/src/platform/mpfs_hal/common/mss_plic.h **** #define OFFSET_TO_MSS_GLOBAL_INTS 13U
 254:/home/vinay/Desktop/softconsole_watershed/Water-shed/src/platform/mpfs_hal/common/mss_plic.h **** typedef enum
 255:/home/vinay/Desktop/softconsole_watershed/Water-shed/src/platform/mpfs_hal/common/mss_plic.h **** {
 256:/home/vinay/Desktop/softconsole_watershed/Water-shed/src/platform/mpfs_hal/common/mss_plic.h ****     PLIC_INVALID_INT_OFFSET                 = 0,
 257:/home/vinay/Desktop/softconsole_watershed/Water-shed/src/platform/mpfs_hal/common/mss_plic.h ****     PLIC_L2_METADATA_CORR_INT_OFFSET        = 1,
 258:/home/vinay/Desktop/softconsole_watershed/Water-shed/src/platform/mpfs_hal/common/mss_plic.h ****     PLIC_L2_METADAT_UNCORR_INT_OFFSET       = 2,
 259:/home/vinay/Desktop/softconsole_watershed/Water-shed/src/platform/mpfs_hal/common/mss_plic.h ****     PLIC_L2_DATA_CORR_INT_OFFSET            = 3,
 260:/home/vinay/Desktop/softconsole_watershed/Water-shed/src/platform/mpfs_hal/common/mss_plic.h ****     PLIC_L2_DATA_UNCORR_INT_OFFSET          = 4,
 261:/home/vinay/Desktop/softconsole_watershed/Water-shed/src/platform/mpfs_hal/common/mss_plic.h ****     PLIC_DMA_CH0_DONE_INT_OFFSET            = 5,
 262:/home/vinay/Desktop/softconsole_watershed/Water-shed/src/platform/mpfs_hal/common/mss_plic.h ****     PLIC_DMA_CH0_ERR_INT_OFFSET             = 6,
 263:/home/vinay/Desktop/softconsole_watershed/Water-shed/src/platform/mpfs_hal/common/mss_plic.h ****     PLIC_DMA_CH1_DONE_INT_OFFSET            = 7,
 264:/home/vinay/Desktop/softconsole_watershed/Water-shed/src/platform/mpfs_hal/common/mss_plic.h ****     PLIC_DMA_CH1_ERR_INT_OFFSET             = 8,
 265:/home/vinay/Desktop/softconsole_watershed/Water-shed/src/platform/mpfs_hal/common/mss_plic.h ****     PLIC_DMA_CH2_DONE_INT_OFFSET            = 9,
 266:/home/vinay/Desktop/softconsole_watershed/Water-shed/src/platform/mpfs_hal/common/mss_plic.h ****     PLIC_DMA_CH2_ERR_INT_OFFSET             = 10,
 267:/home/vinay/Desktop/softconsole_watershed/Water-shed/src/platform/mpfs_hal/common/mss_plic.h ****     PLIC_DMA_CH3_DONE_INT_OFFSET            = 11,
 268:/home/vinay/Desktop/softconsole_watershed/Water-shed/src/platform/mpfs_hal/common/mss_plic.h ****     PLIC_DMA_CH3_ERR_INT_OFFSET             = 12,
 269:/home/vinay/Desktop/softconsole_watershed/Water-shed/src/platform/mpfs_hal/common/mss_plic.h ****     /* see PLIC_I2C Interrupt Multiplexing in the User Guide */
 270:/home/vinay/Desktop/softconsole_watershed/Water-shed/src/platform/mpfs_hal/common/mss_plic.h ****     PLIC_GPIO0_BIT0_or_GPIO2_BIT0_INT_OFFSET         = 0 + OFFSET_TO_MSS_GLOBAL_INTS,
 271:/home/vinay/Desktop/softconsole_watershed/Water-shed/src/platform/mpfs_hal/common/mss_plic.h ****     PLIC_GPIO0_BIT1_or_GPIO2_BIT1_INT_OFFSET         = 1 + OFFSET_TO_MSS_GLOBAL_INTS,
 272:/home/vinay/Desktop/softconsole_watershed/Water-shed/src/platform/mpfs_hal/common/mss_plic.h ****     PLIC_GPIO0_BIT2_or_GPIO2_BIT2_INT_OFFSET         = 2 + OFFSET_TO_MSS_GLOBAL_INTS,
 273:/home/vinay/Desktop/softconsole_watershed/Water-shed/src/platform/mpfs_hal/common/mss_plic.h ****     PLIC_GPIO0_BIT3_or_GPIO2_BIT3_INT_OFFSET         = 3 + OFFSET_TO_MSS_GLOBAL_INTS,
 274:/home/vinay/Desktop/softconsole_watershed/Water-shed/src/platform/mpfs_hal/common/mss_plic.h ****     PLIC_GPIO0_BIT4_or_GPIO2_BIT4_INT_OFFSET         = 4 + OFFSET_TO_MSS_GLOBAL_INTS,
 275:/home/vinay/Desktop/softconsole_watershed/Water-shed/src/platform/mpfs_hal/common/mss_plic.h ****     PLIC_GPIO0_BIT5_or_GPIO2_BIT5_INT_OFFSET         = 5 + OFFSET_TO_MSS_GLOBAL_INTS,
 276:/home/vinay/Desktop/softconsole_watershed/Water-shed/src/platform/mpfs_hal/common/mss_plic.h ****     PLIC_GPIO0_BIT6_or_GPIO2_BIT6_INT_OFFSET         = 6 + OFFSET_TO_MSS_GLOBAL_INTS,
 277:/home/vinay/Desktop/softconsole_watershed/Water-shed/src/platform/mpfs_hal/common/mss_plic.h ****     PLIC_GPIO0_BIT7_or_GPIO2_BIT7_INT_OFFSET         = 7 + OFFSET_TO_MSS_GLOBAL_INTS,
 278:/home/vinay/Desktop/softconsole_watershed/Water-shed/src/platform/mpfs_hal/common/mss_plic.h ****     PLIC_GPIO0_BIT8_or_GPIO2_BIT8_INT_OFFSET         = 8 + OFFSET_TO_MSS_GLOBAL_INTS,
 279:/home/vinay/Desktop/softconsole_watershed/Water-shed/src/platform/mpfs_hal/common/mss_plic.h ****     PLIC_GPIO0_BIT9_or_GPIO2_BIT9_INT_OFFSET         = 9 + OFFSET_TO_MSS_GLOBAL_INTS,
 280:/home/vinay/Desktop/softconsole_watershed/Water-shed/src/platform/mpfs_hal/common/mss_plic.h ****     PLIC_GPIO0_BIT10_or_GPIO2_BIT10_INT_OFFSET      = 10 + OFFSET_TO_MSS_GLOBAL_INTS,
 281:/home/vinay/Desktop/softconsole_watershed/Water-shed/src/platform/mpfs_hal/common/mss_plic.h ****     PLIC_GPIO0_BIT11_or_GPIO2_BIT11_INT_OFFSET      = 11 + OFFSET_TO_MSS_GLOBAL_INTS,
 282:/home/vinay/Desktop/softconsole_watershed/Water-shed/src/platform/mpfs_hal/common/mss_plic.h ****     PLIC_GPIO0_BIT12_or_GPIO2_BIT12_INT_OFFSET      = 12 + OFFSET_TO_MSS_GLOBAL_INTS,
 283:/home/vinay/Desktop/softconsole_watershed/Water-shed/src/platform/mpfs_hal/common/mss_plic.h **** 
 284:/home/vinay/Desktop/softconsole_watershed/Water-shed/src/platform/mpfs_hal/common/mss_plic.h ****     PLIC_GPIO0_BIT13_or_GPIO2_BIT13_INT_OFFSET      = 13 + OFFSET_TO_MSS_GLOBAL_INTS,
 285:/home/vinay/Desktop/softconsole_watershed/Water-shed/src/platform/mpfs_hal/common/mss_plic.h ****     PLIC_GPIO1_BIT0_or_GPIO2_BIT14_INT_OFFSET       = 14 + OFFSET_TO_MSS_GLOBAL_INTS,
 286:/home/vinay/Desktop/softconsole_watershed/Water-shed/src/platform/mpfs_hal/common/mss_plic.h ****     PLIC_GPIO1_BIT1_or_GPIO2_BIT15_INT_OFFSET       = 15 + OFFSET_TO_MSS_GLOBAL_INTS,
 287:/home/vinay/Desktop/softconsole_watershed/Water-shed/src/platform/mpfs_hal/common/mss_plic.h ****     PLIC_GPIO1_BIT2_or_GPIO2_BIT16_INT_OFFSET       = 16 + OFFSET_TO_MSS_GLOBAL_INTS,
 288:/home/vinay/Desktop/softconsole_watershed/Water-shed/src/platform/mpfs_hal/common/mss_plic.h ****     PLIC_GPIO1_BIT3_or_GPIO2_BIT17_INT_OFFSET       = 17 + OFFSET_TO_MSS_GLOBAL_INTS,
 289:/home/vinay/Desktop/softconsole_watershed/Water-shed/src/platform/mpfs_hal/common/mss_plic.h ****     PLIC_GPIO1_BIT4_or_GPIO2_BIT18_INT_OFFSET       = 18 + OFFSET_TO_MSS_GLOBAL_INTS,
 290:/home/vinay/Desktop/softconsole_watershed/Water-shed/src/platform/mpfs_hal/common/mss_plic.h ****     PLIC_GPIO1_BIT5_or_GPIO2_BIT19_INT_OFFSET       = 19 + OFFSET_TO_MSS_GLOBAL_INTS,
 291:/home/vinay/Desktop/softconsole_watershed/Water-shed/src/platform/mpfs_hal/common/mss_plic.h ****     PLIC_GPIO1_BIT6_or_GPIO2_BIT20_INT_OFFSET       = 20 + OFFSET_TO_MSS_GLOBAL_INTS,
 292:/home/vinay/Desktop/softconsole_watershed/Water-shed/src/platform/mpfs_hal/common/mss_plic.h ****     PLIC_GPIO1_BIT7_or_GPIO2_BIT21_INT_OFFSET       = 21 + OFFSET_TO_MSS_GLOBAL_INTS,
 293:/home/vinay/Desktop/softconsole_watershed/Water-shed/src/platform/mpfs_hal/common/mss_plic.h ****     PLIC_GPIO1_BIT8_or_GPIO2_BIT22_INT_OFFSET       = 22 + OFFSET_TO_MSS_GLOBAL_INTS,
 294:/home/vinay/Desktop/softconsole_watershed/Water-shed/src/platform/mpfs_hal/common/mss_plic.h ****     PLIC_GPIO1_BIT9_or_GPIO2_BIT23_INT_OFFSET       = 23 + OFFSET_TO_MSS_GLOBAL_INTS,
 295:/home/vinay/Desktop/softconsole_watershed/Water-shed/src/platform/mpfs_hal/common/mss_plic.h ****     PLIC_GPIO1_BIT10_or_GPIO2_BIT24_INT_OFFSET      = 24 + OFFSET_TO_MSS_GLOBAL_INTS,
 296:/home/vinay/Desktop/softconsole_watershed/Water-shed/src/platform/mpfs_hal/common/mss_plic.h ****     PLIC_GPIO1_BIT11_or_GPIO2_BIT25_INT_OFFSET      = 25 + OFFSET_TO_MSS_GLOBAL_INTS,
 297:/home/vinay/Desktop/softconsole_watershed/Water-shed/src/platform/mpfs_hal/common/mss_plic.h ****     PLIC_GPIO1_BIT12_or_GPIO2_BIT26_INT_OFFSET      = 26 + OFFSET_TO_MSS_GLOBAL_INTS,
 298:/home/vinay/Desktop/softconsole_watershed/Water-shed/src/platform/mpfs_hal/common/mss_plic.h ****     PLIC_GPIO1_BIT13_or_GPIO2_BIT27_INT_OFFSET      = 27 + OFFSET_TO_MSS_GLOBAL_INTS,
 299:/home/vinay/Desktop/softconsole_watershed/Water-shed/src/platform/mpfs_hal/common/mss_plic.h **** 
 300:/home/vinay/Desktop/softconsole_watershed/Water-shed/src/platform/mpfs_hal/common/mss_plic.h ****     PLIC_GPIO1_BIT14_or_GPIO2_BIT28_INT_OFFSET       = 28 + OFFSET_TO_MSS_GLOBAL_INTS,
 301:/home/vinay/Desktop/softconsole_watershed/Water-shed/src/platform/mpfs_hal/common/mss_plic.h ****     PLIC_GPIO1_BIT15_or_GPIO2_BIT29_INT_OFFSET       = 29 + OFFSET_TO_MSS_GLOBAL_INTS,
 302:/home/vinay/Desktop/softconsole_watershed/Water-shed/src/platform/mpfs_hal/common/mss_plic.h ****     PLIC_GPIO1_BIT16_or_GPIO2_BIT30_INT_OFFSET       = 30 + OFFSET_TO_MSS_GLOBAL_INTS,
 303:/home/vinay/Desktop/softconsole_watershed/Water-shed/src/platform/mpfs_hal/common/mss_plic.h ****     PLIC_GPIO1_BIT17_or_GPIO2_BIT31_INT_OFFSET       = 31 + OFFSET_TO_MSS_GLOBAL_INTS,
 304:/home/vinay/Desktop/softconsole_watershed/Water-shed/src/platform/mpfs_hal/common/mss_plic.h **** 
 305:/home/vinay/Desktop/softconsole_watershed/Water-shed/src/platform/mpfs_hal/common/mss_plic.h ****     PLIC_GPIO1_BIT18_INT_OFFSET           = 32 + OFFSET_TO_MSS_GLOBAL_INTS,
 306:/home/vinay/Desktop/softconsole_watershed/Water-shed/src/platform/mpfs_hal/common/mss_plic.h ****     PLIC_GPIO1_BIT19_INT_OFFSET           = 33 + OFFSET_TO_MSS_GLOBAL_INTS,
 307:/home/vinay/Desktop/softconsole_watershed/Water-shed/src/platform/mpfs_hal/common/mss_plic.h ****     PLIC_GPIO1_BIT20_INT_OFFSET           = 34 + OFFSET_TO_MSS_GLOBAL_INTS,
 308:/home/vinay/Desktop/softconsole_watershed/Water-shed/src/platform/mpfs_hal/common/mss_plic.h ****     PLIC_GPIO1_BIT21_INT_OFFSET           = 35 + OFFSET_TO_MSS_GLOBAL_INTS,
 309:/home/vinay/Desktop/softconsole_watershed/Water-shed/src/platform/mpfs_hal/common/mss_plic.h ****     PLIC_GPIO1_BIT22_INT_OFFSET           = 36 + OFFSET_TO_MSS_GLOBAL_INTS,
 310:/home/vinay/Desktop/softconsole_watershed/Water-shed/src/platform/mpfs_hal/common/mss_plic.h ****     PLIC_GPIO1_BIT23_INT_OFFSET           = 37 + OFFSET_TO_MSS_GLOBAL_INTS,
 311:/home/vinay/Desktop/softconsole_watershed/Water-shed/src/platform/mpfs_hal/common/mss_plic.h **** 
 312:/home/vinay/Desktop/softconsole_watershed/Water-shed/src/platform/mpfs_hal/common/mss_plic.h ****     PLIC_GPIO0_NON_DIRECT_INT_OFFSET         = 38 + OFFSET_TO_MSS_GLOBAL_INTS,
 313:/home/vinay/Desktop/softconsole_watershed/Water-shed/src/platform/mpfs_hal/common/mss_plic.h ****     PLIC_GPIO1_NON_DIRECT_INT_OFFSET         = 39 + OFFSET_TO_MSS_GLOBAL_INTS,
 314:/home/vinay/Desktop/softconsole_watershed/Water-shed/src/platform/mpfs_hal/common/mss_plic.h ****     PLIC_GPIO2_NON_DIRECT_INT_OFFSET         = 40 + OFFSET_TO_MSS_GLOBAL_INTS,
 315:/home/vinay/Desktop/softconsole_watershed/Water-shed/src/platform/mpfs_hal/common/mss_plic.h **** 
 316:/home/vinay/Desktop/softconsole_watershed/Water-shed/src/platform/mpfs_hal/common/mss_plic.h ****     PLIC_SPI0_INT_OFFSET                    = 41 + OFFSET_TO_MSS_GLOBAL_INTS,
 317:/home/vinay/Desktop/softconsole_watershed/Water-shed/src/platform/mpfs_hal/common/mss_plic.h ****     PLIC_SPI1_INT_OFFSET                    = 42 + OFFSET_TO_MSS_GLOBAL_INTS,
 318:/home/vinay/Desktop/softconsole_watershed/Water-shed/src/platform/mpfs_hal/common/mss_plic.h ****     PLIC_CAN0_INT_OFFSET                    = 43 + OFFSET_TO_MSS_GLOBAL_INTS,
 319:/home/vinay/Desktop/softconsole_watershed/Water-shed/src/platform/mpfs_hal/common/mss_plic.h ****     PLIC_CAN1_INT_OFFSET                    = 44 + OFFSET_TO_MSS_GLOBAL_INTS,
 320:/home/vinay/Desktop/softconsole_watershed/Water-shed/src/platform/mpfs_hal/common/mss_plic.h ****     PLIC_I2C0_MAIN_INT_OFFSET               = 45 + OFFSET_TO_MSS_GLOBAL_INTS,
 321:/home/vinay/Desktop/softconsole_watershed/Water-shed/src/platform/mpfs_hal/common/mss_plic.h ****     PLIC_I2C0_ALERT_INT_OFFSET              = 46 + OFFSET_TO_MSS_GLOBAL_INTS,
 322:/home/vinay/Desktop/softconsole_watershed/Water-shed/src/platform/mpfs_hal/common/mss_plic.h ****     PLIC_I2C0_SUS_INT_OFFSET                = 47 + OFFSET_TO_MSS_GLOBAL_INTS,
 323:/home/vinay/Desktop/softconsole_watershed/Water-shed/src/platform/mpfs_hal/common/mss_plic.h ****     PLIC_I2C1_MAIN_INT_OFFSET               = 48 + OFFSET_TO_MSS_GLOBAL_INTS,
 324:/home/vinay/Desktop/softconsole_watershed/Water-shed/src/platform/mpfs_hal/common/mss_plic.h ****     PLIC_I2C1_ALERT_INT_OFFSET              = 49 + OFFSET_TO_MSS_GLOBAL_INTS,
 325:/home/vinay/Desktop/softconsole_watershed/Water-shed/src/platform/mpfs_hal/common/mss_plic.h ****     PLIC_I2C1_SUS_INT_OFFSET                = 50 + OFFSET_TO_MSS_GLOBAL_INTS,
 326:/home/vinay/Desktop/softconsole_watershed/Water-shed/src/platform/mpfs_hal/common/mss_plic.h ****     PLIC_MAC0_INT_INT_OFFSET                = 51 + OFFSET_TO_MSS_GLOBAL_INTS,
 327:/home/vinay/Desktop/softconsole_watershed/Water-shed/src/platform/mpfs_hal/common/mss_plic.h ****     PLIC_MAC0_QUEUE1_INT_OFFSET             = 52 + OFFSET_TO_MSS_GLOBAL_INTS,
 328:/home/vinay/Desktop/softconsole_watershed/Water-shed/src/platform/mpfs_hal/common/mss_plic.h ****     PLIC_MAC0_QUEUE2_INT_OFFSET             = 53 + OFFSET_TO_MSS_GLOBAL_INTS,
 329:/home/vinay/Desktop/softconsole_watershed/Water-shed/src/platform/mpfs_hal/common/mss_plic.h ****     PLIC_MAC0_QUEUE3_INT_OFFSET             = 54 + OFFSET_TO_MSS_GLOBAL_INTS,
 330:/home/vinay/Desktop/softconsole_watershed/Water-shed/src/platform/mpfs_hal/common/mss_plic.h ****     PLIC_MAC0_EMAC_INT_OFFSET               = 55 + OFFSET_TO_MSS_GLOBAL_INTS,
 331:/home/vinay/Desktop/softconsole_watershed/Water-shed/src/platform/mpfs_hal/common/mss_plic.h ****     PLIC_MAC0_MMSL_INT_OFFSET               = 56 + OFFSET_TO_MSS_GLOBAL_INTS,
 332:/home/vinay/Desktop/softconsole_watershed/Water-shed/src/platform/mpfs_hal/common/mss_plic.h ****     PLIC_MAC1_INT_INT_OFFSET                = 57 + OFFSET_TO_MSS_GLOBAL_INTS,
 333:/home/vinay/Desktop/softconsole_watershed/Water-shed/src/platform/mpfs_hal/common/mss_plic.h ****     PLIC_MAC1_QUEUE1_INT_OFFSET             = 58 + OFFSET_TO_MSS_GLOBAL_INTS,
 334:/home/vinay/Desktop/softconsole_watershed/Water-shed/src/platform/mpfs_hal/common/mss_plic.h ****     PLIC_MAC1_QUEUE2_INT_OFFSET             = 59 + OFFSET_TO_MSS_GLOBAL_INTS,
 335:/home/vinay/Desktop/softconsole_watershed/Water-shed/src/platform/mpfs_hal/common/mss_plic.h ****     PLIC_MAC1_QUEUE3_INT_OFFSET             = 60 + OFFSET_TO_MSS_GLOBAL_INTS,
 336:/home/vinay/Desktop/softconsole_watershed/Water-shed/src/platform/mpfs_hal/common/mss_plic.h ****     PLIC_MAC1_EMAC_INT_OFFSET               = 61 + OFFSET_TO_MSS_GLOBAL_INTS,
 337:/home/vinay/Desktop/softconsole_watershed/Water-shed/src/platform/mpfs_hal/common/mss_plic.h ****     PLIC_MAC1_MMSL_INT_OFFSET               = 62 + OFFSET_TO_MSS_GLOBAL_INTS,
 338:/home/vinay/Desktop/softconsole_watershed/Water-shed/src/platform/mpfs_hal/common/mss_plic.h ****     PLIC_DDRC_TRAIN_INT_OFFSET              = 63 + OFFSET_TO_MSS_GLOBAL_INTS,
 339:/home/vinay/Desktop/softconsole_watershed/Water-shed/src/platform/mpfs_hal/common/mss_plic.h ****     PLIC_SCB_INTERRUPT_INT_OFFSET           = 64 + OFFSET_TO_MSS_GLOBAL_INTS,
 340:/home/vinay/Desktop/softconsole_watershed/Water-shed/src/platform/mpfs_hal/common/mss_plic.h ****     PLIC_ECC_ERROR_INT_OFFSET               = 65 + OFFSET_TO_MSS_GLOBAL_INTS,
 341:/home/vinay/Desktop/softconsole_watershed/Water-shed/src/platform/mpfs_hal/common/mss_plic.h ****     PLIC_ECC_CORRECT_INT_OFFSET             = 66 + OFFSET_TO_MSS_GLOBAL_INTS,
 342:/home/vinay/Desktop/softconsole_watershed/Water-shed/src/platform/mpfs_hal/common/mss_plic.h ****     PLIC_RTC_WAKEUP_INT_OFFSET              = 67 + OFFSET_TO_MSS_GLOBAL_INTS,
 343:/home/vinay/Desktop/softconsole_watershed/Water-shed/src/platform/mpfs_hal/common/mss_plic.h ****     PLIC_RTC_MATCH_INT_OFFSET               = 68 + OFFSET_TO_MSS_GLOBAL_INTS,
 344:/home/vinay/Desktop/softconsole_watershed/Water-shed/src/platform/mpfs_hal/common/mss_plic.h ****     PLIC_TIMER1_INT_OFFSET                  = 69 + OFFSET_TO_MSS_GLOBAL_INTS,
 345:/home/vinay/Desktop/softconsole_watershed/Water-shed/src/platform/mpfs_hal/common/mss_plic.h ****     PLIC_TIMER2_INT_OFFSET                  = 70 + OFFSET_TO_MSS_GLOBAL_INTS,
 346:/home/vinay/Desktop/softconsole_watershed/Water-shed/src/platform/mpfs_hal/common/mss_plic.h ****     PLIC_ENVM_INT_OFFSET                    = 71 + OFFSET_TO_MSS_GLOBAL_INTS,
 347:/home/vinay/Desktop/softconsole_watershed/Water-shed/src/platform/mpfs_hal/common/mss_plic.h ****     PLIC_QSPI_INT_OFFSET                    = 72 + OFFSET_TO_MSS_GLOBAL_INTS,
 348:/home/vinay/Desktop/softconsole_watershed/Water-shed/src/platform/mpfs_hal/common/mss_plic.h ****     PLIC_USB_DMA_INT_OFFSET                 = 73 + OFFSET_TO_MSS_GLOBAL_INTS,
 349:/home/vinay/Desktop/softconsole_watershed/Water-shed/src/platform/mpfs_hal/common/mss_plic.h ****     PLIC_USB_MC_INT_OFFSET                  = 74 + OFFSET_TO_MSS_GLOBAL_INTS,
 350:/home/vinay/Desktop/softconsole_watershed/Water-shed/src/platform/mpfs_hal/common/mss_plic.h ****     PLIC_MMC_main_INT_OFFSET                = 75 + OFFSET_TO_MSS_GLOBAL_INTS,
 351:/home/vinay/Desktop/softconsole_watershed/Water-shed/src/platform/mpfs_hal/common/mss_plic.h ****     PLIC_MMC_wakeup_INT_OFFSET              = 76 + OFFSET_TO_MSS_GLOBAL_INTS,
 352:/home/vinay/Desktop/softconsole_watershed/Water-shed/src/platform/mpfs_hal/common/mss_plic.h ****     PLIC_MMUART0_INT_OFFSET                 = 77 + OFFSET_TO_MSS_GLOBAL_INTS,
 353:/home/vinay/Desktop/softconsole_watershed/Water-shed/src/platform/mpfs_hal/common/mss_plic.h ****     PLIC_MMUART1_INT_OFFSET                 = 78 + OFFSET_TO_MSS_GLOBAL_INTS,
 354:/home/vinay/Desktop/softconsole_watershed/Water-shed/src/platform/mpfs_hal/common/mss_plic.h ****     PLIC_MMUART2_INT_OFFSET                 = 79 + OFFSET_TO_MSS_GLOBAL_INTS,
 355:/home/vinay/Desktop/softconsole_watershed/Water-shed/src/platform/mpfs_hal/common/mss_plic.h ****     PLIC_MMUART3_INT_OFFSET                 = 80 + OFFSET_TO_MSS_GLOBAL_INTS,
 356:/home/vinay/Desktop/softconsole_watershed/Water-shed/src/platform/mpfs_hal/common/mss_plic.h ****     PLIC_MMUART4_INT_OFFSET                 = 81 + OFFSET_TO_MSS_GLOBAL_INTS,
 357:/home/vinay/Desktop/softconsole_watershed/Water-shed/src/platform/mpfs_hal/common/mss_plic.h **** 
 358:/home/vinay/Desktop/softconsole_watershed/Water-shed/src/platform/mpfs_hal/common/mss_plic.h ****     G5C_DEVRST_INT_OFFSET              = 82 + OFFSET_TO_MSS_GLOBAL_INTS,
 359:/home/vinay/Desktop/softconsole_watershed/Water-shed/src/platform/mpfs_hal/common/mss_plic.h ****     g5c_MESSAGE_INT_OFFSET             = 83 + OFFSET_TO_MSS_GLOBAL_INTS,
 360:/home/vinay/Desktop/softconsole_watershed/Water-shed/src/platform/mpfs_hal/common/mss_plic.h ****     USOC_VC_INTERRUPT_INT_OFFSET       = 84 + OFFSET_TO_MSS_GLOBAL_INTS,
 361:/home/vinay/Desktop/softconsole_watershed/Water-shed/src/platform/mpfs_hal/common/mss_plic.h ****     USOC_SMB_INTERRUPT_INT_OFFSET      = 85 + OFFSET_TO_MSS_GLOBAL_INTS,
 362:/home/vinay/Desktop/softconsole_watershed/Water-shed/src/platform/mpfs_hal/common/mss_plic.h ****     /* contains multiple interrupts- */
 363:/home/vinay/Desktop/softconsole_watershed/Water-shed/src/platform/mpfs_hal/common/mss_plic.h ****     E51_0_MAINTENACE_INT_OFFSET        = 86 + OFFSET_TO_MSS_GLOBAL_INTS,
 364:/home/vinay/Desktop/softconsole_watershed/Water-shed/src/platform/mpfs_hal/common/mss_plic.h **** 
 365:/home/vinay/Desktop/softconsole_watershed/Water-shed/src/platform/mpfs_hal/common/mss_plic.h ****     PLIC_WDOG0_MRVP_INT_OFFSET              = 87 + OFFSET_TO_MSS_GLOBAL_INTS,
 366:/home/vinay/Desktop/softconsole_watershed/Water-shed/src/platform/mpfs_hal/common/mss_plic.h ****     PLIC_WDOG1_MRVP_INT_OFFSET              = 88 + OFFSET_TO_MSS_GLOBAL_INTS,
 367:/home/vinay/Desktop/softconsole_watershed/Water-shed/src/platform/mpfs_hal/common/mss_plic.h ****     PLIC_WDOG2_MRVP_INT_OFFSET              = 89 + OFFSET_TO_MSS_GLOBAL_INTS,
 368:/home/vinay/Desktop/softconsole_watershed/Water-shed/src/platform/mpfs_hal/common/mss_plic.h ****     PLIC_WDOG3_MRVP_INT_OFFSET              = 90 + OFFSET_TO_MSS_GLOBAL_INTS,
 369:/home/vinay/Desktop/softconsole_watershed/Water-shed/src/platform/mpfs_hal/common/mss_plic.h ****     PLIC_WDOG4_MRVP_INT_OFFSET              = 91 + OFFSET_TO_MSS_GLOBAL_INTS,
 370:/home/vinay/Desktop/softconsole_watershed/Water-shed/src/platform/mpfs_hal/common/mss_plic.h ****     PLIC_WDOG0_TOUT_INT_OFFSET              = 92 + OFFSET_TO_MSS_GLOBAL_INTS,
 371:/home/vinay/Desktop/softconsole_watershed/Water-shed/src/platform/mpfs_hal/common/mss_plic.h ****     PLIC_WDOG1_TOUT_INT_OFFSET              = 93 + OFFSET_TO_MSS_GLOBAL_INTS,
 372:/home/vinay/Desktop/softconsole_watershed/Water-shed/src/platform/mpfs_hal/common/mss_plic.h ****     PLIC_WDOG2_TOUT_INT_OFFSET              = 94 + OFFSET_TO_MSS_GLOBAL_INTS,
 373:/home/vinay/Desktop/softconsole_watershed/Water-shed/src/platform/mpfs_hal/common/mss_plic.h ****     PLIC_WDOG3_TOUT_INT_OFFSET              = 95 + OFFSET_TO_MSS_GLOBAL_INTS,
 374:/home/vinay/Desktop/softconsole_watershed/Water-shed/src/platform/mpfs_hal/common/mss_plic.h ****     PLIC_WDOG4_TOUT_INT_OFFSET              = 96 + OFFSET_TO_MSS_GLOBAL_INTS,
 375:/home/vinay/Desktop/softconsole_watershed/Water-shed/src/platform/mpfs_hal/common/mss_plic.h ****     G5C_MSS_SPI_INT_OFFSET             = 97 + OFFSET_TO_MSS_GLOBAL_INTS,
 376:/home/vinay/Desktop/softconsole_watershed/Water-shed/src/platform/mpfs_hal/common/mss_plic.h ****     VOLT_TEMP_ALARM_INT_OFFSET         = 98 + OFFSET_TO_MSS_GLOBAL_INTS,
 377:/home/vinay/Desktop/softconsole_watershed/Water-shed/src/platform/mpfs_hal/common/mss_plic.h ****     ATHENA_COMPLETE_INT_OFFSET         = 99 + OFFSET_TO_MSS_GLOBAL_INTS,
 378:/home/vinay/Desktop/softconsole_watershed/Water-shed/src/platform/mpfs_hal/common/mss_plic.h ****     ATHENA_ALARM_INT_OFFSET            = 100 + OFFSET_TO_MSS_GLOBAL_INTS,
 379:/home/vinay/Desktop/softconsole_watershed/Water-shed/src/platform/mpfs_hal/common/mss_plic.h ****     ATHENA_BUS_ERROR_INT_OFFSET        = 101 + OFFSET_TO_MSS_GLOBAL_INTS,
 380:/home/vinay/Desktop/softconsole_watershed/Water-shed/src/platform/mpfs_hal/common/mss_plic.h ****     USOC_AXIC_US_INT_OFFSET            = 102 + OFFSET_TO_MSS_GLOBAL_INTS,
 381:/home/vinay/Desktop/softconsole_watershed/Water-shed/src/platform/mpfs_hal/common/mss_plic.h ****     USOC_AXIC_DS_INT_OFFSET            = 103 + OFFSET_TO_MSS_GLOBAL_INTS,
 382:/home/vinay/Desktop/softconsole_watershed/Water-shed/src/platform/mpfs_hal/common/mss_plic.h **** 
 383:/home/vinay/Desktop/softconsole_watershed/Water-shed/src/platform/mpfs_hal/common/mss_plic.h ****     PLIC_F2M_0_INT_OFFSET            = 105 + OFFSET_TO_MSS_GLOBAL_INTS,
 384:/home/vinay/Desktop/softconsole_watershed/Water-shed/src/platform/mpfs_hal/common/mss_plic.h ****     PLIC_F2M_1_INT_OFFSET            = 106 + OFFSET_TO_MSS_GLOBAL_INTS,
 385:/home/vinay/Desktop/softconsole_watershed/Water-shed/src/platform/mpfs_hal/common/mss_plic.h ****     PLIC_F2M_2_INT_OFFSET            = 107 + OFFSET_TO_MSS_GLOBAL_INTS,
 386:/home/vinay/Desktop/softconsole_watershed/Water-shed/src/platform/mpfs_hal/common/mss_plic.h ****     PLIC_F2M_3_INT_OFFSET            = 108 + OFFSET_TO_MSS_GLOBAL_INTS,
 387:/home/vinay/Desktop/softconsole_watershed/Water-shed/src/platform/mpfs_hal/common/mss_plic.h ****     PLIC_F2M_4_INT_OFFSET            = 109 + OFFSET_TO_MSS_GLOBAL_INTS,
 388:/home/vinay/Desktop/softconsole_watershed/Water-shed/src/platform/mpfs_hal/common/mss_plic.h ****     PLIC_F2M_5_INT_OFFSET            = 110 + OFFSET_TO_MSS_GLOBAL_INTS,
 389:/home/vinay/Desktop/softconsole_watershed/Water-shed/src/platform/mpfs_hal/common/mss_plic.h ****     PLIC_F2M_6_INT_OFFSET            = 111 + OFFSET_TO_MSS_GLOBAL_INTS,
 390:/home/vinay/Desktop/softconsole_watershed/Water-shed/src/platform/mpfs_hal/common/mss_plic.h ****     PLIC_F2M_7_INT_OFFSET            = 112 + OFFSET_TO_MSS_GLOBAL_INTS,
 391:/home/vinay/Desktop/softconsole_watershed/Water-shed/src/platform/mpfs_hal/common/mss_plic.h ****     PLIC_F2M_8_INT_OFFSET            = 113 + OFFSET_TO_MSS_GLOBAL_INTS,
 392:/home/vinay/Desktop/softconsole_watershed/Water-shed/src/platform/mpfs_hal/common/mss_plic.h ****     PLIC_F2M_9_INT_OFFSET            = 114 + OFFSET_TO_MSS_GLOBAL_INTS,
 393:/home/vinay/Desktop/softconsole_watershed/Water-shed/src/platform/mpfs_hal/common/mss_plic.h **** 
 394:/home/vinay/Desktop/softconsole_watershed/Water-shed/src/platform/mpfs_hal/common/mss_plic.h ****     PLIC_F2M_10_INT_OFFSET           = 115 + OFFSET_TO_MSS_GLOBAL_INTS,
 395:/home/vinay/Desktop/softconsole_watershed/Water-shed/src/platform/mpfs_hal/common/mss_plic.h ****     PLIC_F2M_11_INT_OFFSET           = 116 + OFFSET_TO_MSS_GLOBAL_INTS,
 396:/home/vinay/Desktop/softconsole_watershed/Water-shed/src/platform/mpfs_hal/common/mss_plic.h ****     PLIC_F2M_12_INT_OFFSET           = 117 + OFFSET_TO_MSS_GLOBAL_INTS,
 397:/home/vinay/Desktop/softconsole_watershed/Water-shed/src/platform/mpfs_hal/common/mss_plic.h ****     PLIC_F2M_13_INT_OFFSET           = 118 + OFFSET_TO_MSS_GLOBAL_INTS,
 398:/home/vinay/Desktop/softconsole_watershed/Water-shed/src/platform/mpfs_hal/common/mss_plic.h ****     PLIC_F2M_14_INT_OFFSET           = 119 + OFFSET_TO_MSS_GLOBAL_INTS,
 399:/home/vinay/Desktop/softconsole_watershed/Water-shed/src/platform/mpfs_hal/common/mss_plic.h ****     PLIC_F2M_15_INT_OFFSET           = 120 + OFFSET_TO_MSS_GLOBAL_INTS,
 400:/home/vinay/Desktop/softconsole_watershed/Water-shed/src/platform/mpfs_hal/common/mss_plic.h ****     PLIC_F2M_16_INT_OFFSET           = 121 + OFFSET_TO_MSS_GLOBAL_INTS,
 401:/home/vinay/Desktop/softconsole_watershed/Water-shed/src/platform/mpfs_hal/common/mss_plic.h ****     PLIC_F2M_17_INT_OFFSET           = 122 + OFFSET_TO_MSS_GLOBAL_INTS,
 402:/home/vinay/Desktop/softconsole_watershed/Water-shed/src/platform/mpfs_hal/common/mss_plic.h ****     PLIC_F2M_18_INT_OFFSET           = 123 + OFFSET_TO_MSS_GLOBAL_INTS,
 403:/home/vinay/Desktop/softconsole_watershed/Water-shed/src/platform/mpfs_hal/common/mss_plic.h ****     PLIC_F2M_19_INT_OFFSET           = 124 + OFFSET_TO_MSS_GLOBAL_INTS,
 404:/home/vinay/Desktop/softconsole_watershed/Water-shed/src/platform/mpfs_hal/common/mss_plic.h **** 
 405:/home/vinay/Desktop/softconsole_watershed/Water-shed/src/platform/mpfs_hal/common/mss_plic.h ****     PLIC_F2M_20_INT_OFFSET           = 125 + OFFSET_TO_MSS_GLOBAL_INTS,
 406:/home/vinay/Desktop/softconsole_watershed/Water-shed/src/platform/mpfs_hal/common/mss_plic.h ****     PLIC_F2M_21_INT_OFFSET           = 126 + OFFSET_TO_MSS_GLOBAL_INTS,
 407:/home/vinay/Desktop/softconsole_watershed/Water-shed/src/platform/mpfs_hal/common/mss_plic.h ****     PLIC_F2M_22_INT_OFFSET           = 127 + OFFSET_TO_MSS_GLOBAL_INTS,
 408:/home/vinay/Desktop/softconsole_watershed/Water-shed/src/platform/mpfs_hal/common/mss_plic.h ****     PLIC_F2M_23_INT_OFFSET           = 128 + OFFSET_TO_MSS_GLOBAL_INTS,
 409:/home/vinay/Desktop/softconsole_watershed/Water-shed/src/platform/mpfs_hal/common/mss_plic.h ****     PLIC_F2M_24_INT_OFFSET           = 129 + OFFSET_TO_MSS_GLOBAL_INTS,
 410:/home/vinay/Desktop/softconsole_watershed/Water-shed/src/platform/mpfs_hal/common/mss_plic.h ****     PLIC_F2M_25_INT_OFFSET           = 130 + OFFSET_TO_MSS_GLOBAL_INTS,
 411:/home/vinay/Desktop/softconsole_watershed/Water-shed/src/platform/mpfs_hal/common/mss_plic.h ****     PLIC_F2M_26_INT_OFFSET           = 131 + OFFSET_TO_MSS_GLOBAL_INTS,
 412:/home/vinay/Desktop/softconsole_watershed/Water-shed/src/platform/mpfs_hal/common/mss_plic.h ****     PLIC_F2M_27_INT_OFFSET           = 132 + OFFSET_TO_MSS_GLOBAL_INTS,
 413:/home/vinay/Desktop/softconsole_watershed/Water-shed/src/platform/mpfs_hal/common/mss_plic.h ****     PLIC_F2M_28_INT_OFFSET           = 133 + OFFSET_TO_MSS_GLOBAL_INTS,
 414:/home/vinay/Desktop/softconsole_watershed/Water-shed/src/platform/mpfs_hal/common/mss_plic.h ****     PLIC_F2M_29_INT_OFFSET           = 134 + OFFSET_TO_MSS_GLOBAL_INTS,
 415:/home/vinay/Desktop/softconsole_watershed/Water-shed/src/platform/mpfs_hal/common/mss_plic.h **** 
 416:/home/vinay/Desktop/softconsole_watershed/Water-shed/src/platform/mpfs_hal/common/mss_plic.h ****     PLIC_F2M_30_INT_OFFSET           = 135 + OFFSET_TO_MSS_GLOBAL_INTS,
 417:/home/vinay/Desktop/softconsole_watershed/Water-shed/src/platform/mpfs_hal/common/mss_plic.h ****     PLIC_F2M_31_INT_OFFSET           = 136 + OFFSET_TO_MSS_GLOBAL_INTS,
 418:/home/vinay/Desktop/softconsole_watershed/Water-shed/src/platform/mpfs_hal/common/mss_plic.h **** 
 419:/home/vinay/Desktop/softconsole_watershed/Water-shed/src/platform/mpfs_hal/common/mss_plic.h ****     PLIC_F2M_32_INT_OFFSET           = 137 + OFFSET_TO_MSS_GLOBAL_INTS,
 420:/home/vinay/Desktop/softconsole_watershed/Water-shed/src/platform/mpfs_hal/common/mss_plic.h ****     PLIC_F2M_33_INT_OFFSET           = 138 + OFFSET_TO_MSS_GLOBAL_INTS,
 421:/home/vinay/Desktop/softconsole_watershed/Water-shed/src/platform/mpfs_hal/common/mss_plic.h ****     PLIC_F2M_34_INT_OFFSET           = 139 + OFFSET_TO_MSS_GLOBAL_INTS,
 422:/home/vinay/Desktop/softconsole_watershed/Water-shed/src/platform/mpfs_hal/common/mss_plic.h ****     PLIC_F2M_35_INT_OFFSET           = 140 + OFFSET_TO_MSS_GLOBAL_INTS,
 423:/home/vinay/Desktop/softconsole_watershed/Water-shed/src/platform/mpfs_hal/common/mss_plic.h ****     PLIC_F2M_36_INT_OFFSET           = 141 + OFFSET_TO_MSS_GLOBAL_INTS,
 424:/home/vinay/Desktop/softconsole_watershed/Water-shed/src/platform/mpfs_hal/common/mss_plic.h ****     PLIC_F2M_37_INT_OFFSET           = 142 + OFFSET_TO_MSS_GLOBAL_INTS,
 425:/home/vinay/Desktop/softconsole_watershed/Water-shed/src/platform/mpfs_hal/common/mss_plic.h ****     PLIC_F2M_38_INT_OFFSET           = 143 + OFFSET_TO_MSS_GLOBAL_INTS,
 426:/home/vinay/Desktop/softconsole_watershed/Water-shed/src/platform/mpfs_hal/common/mss_plic.h ****     PLIC_F2M_39_INT_OFFSET           = 144 + OFFSET_TO_MSS_GLOBAL_INTS,
 427:/home/vinay/Desktop/softconsole_watershed/Water-shed/src/platform/mpfs_hal/common/mss_plic.h ****     PLIC_F2M_40_INT_OFFSET           = 145 + OFFSET_TO_MSS_GLOBAL_INTS,
 428:/home/vinay/Desktop/softconsole_watershed/Water-shed/src/platform/mpfs_hal/common/mss_plic.h ****     PLIC_F2M_41_INT_OFFSET           = 146 + OFFSET_TO_MSS_GLOBAL_INTS,
 429:/home/vinay/Desktop/softconsole_watershed/Water-shed/src/platform/mpfs_hal/common/mss_plic.h **** 
 430:/home/vinay/Desktop/softconsole_watershed/Water-shed/src/platform/mpfs_hal/common/mss_plic.h ****     PLIC_F2M_42_INT_OFFSET           = 147 + OFFSET_TO_MSS_GLOBAL_INTS,
 431:/home/vinay/Desktop/softconsole_watershed/Water-shed/src/platform/mpfs_hal/common/mss_plic.h ****     PLIC_F2M_43_INT_OFFSET           = 148 + OFFSET_TO_MSS_GLOBAL_INTS,
 432:/home/vinay/Desktop/softconsole_watershed/Water-shed/src/platform/mpfs_hal/common/mss_plic.h ****     PLIC_F2M_44_INT_OFFSET           = 149 + OFFSET_TO_MSS_GLOBAL_INTS,
 433:/home/vinay/Desktop/softconsole_watershed/Water-shed/src/platform/mpfs_hal/common/mss_plic.h ****     PLIC_F2M_45_INT_OFFSET           = 150 + OFFSET_TO_MSS_GLOBAL_INTS,
 434:/home/vinay/Desktop/softconsole_watershed/Water-shed/src/platform/mpfs_hal/common/mss_plic.h ****     PLIC_F2M_46_INT_OFFSET           = 151 + OFFSET_TO_MSS_GLOBAL_INTS,
 435:/home/vinay/Desktop/softconsole_watershed/Water-shed/src/platform/mpfs_hal/common/mss_plic.h ****     PLIC_F2M_47_INT_OFFSET           = 152 + OFFSET_TO_MSS_GLOBAL_INTS,
 436:/home/vinay/Desktop/softconsole_watershed/Water-shed/src/platform/mpfs_hal/common/mss_plic.h ****     PLIC_F2M_48_INT_OFFSET           = 153 + OFFSET_TO_MSS_GLOBAL_INTS,
 437:/home/vinay/Desktop/softconsole_watershed/Water-shed/src/platform/mpfs_hal/common/mss_plic.h ****     PLIC_F2M_49_INT_OFFSET           = 154 + OFFSET_TO_MSS_GLOBAL_INTS,
 438:/home/vinay/Desktop/softconsole_watershed/Water-shed/src/platform/mpfs_hal/common/mss_plic.h ****     PLIC_F2M_50_INT_OFFSET           = 155 + OFFSET_TO_MSS_GLOBAL_INTS,
 439:/home/vinay/Desktop/softconsole_watershed/Water-shed/src/platform/mpfs_hal/common/mss_plic.h ****     PLIC_F2M_51_INT_OFFSET           = 156 + OFFSET_TO_MSS_GLOBAL_INTS,
 440:/home/vinay/Desktop/softconsole_watershed/Water-shed/src/platform/mpfs_hal/common/mss_plic.h **** 
 441:/home/vinay/Desktop/softconsole_watershed/Water-shed/src/platform/mpfs_hal/common/mss_plic.h ****     PLIC_F2M_52_INT_OFFSET           = 157 + OFFSET_TO_MSS_GLOBAL_INTS,
 442:/home/vinay/Desktop/softconsole_watershed/Water-shed/src/platform/mpfs_hal/common/mss_plic.h ****     PLIC_F2M_53_INT_OFFSET           = 158 + OFFSET_TO_MSS_GLOBAL_INTS,
 443:/home/vinay/Desktop/softconsole_watershed/Water-shed/src/platform/mpfs_hal/common/mss_plic.h ****     PLIC_F2M_54_INT_OFFSET           = 159 + OFFSET_TO_MSS_GLOBAL_INTS,
 444:/home/vinay/Desktop/softconsole_watershed/Water-shed/src/platform/mpfs_hal/common/mss_plic.h ****     PLIC_F2M_55_INT_OFFSET           = 160 + OFFSET_TO_MSS_GLOBAL_INTS,
 445:/home/vinay/Desktop/softconsole_watershed/Water-shed/src/platform/mpfs_hal/common/mss_plic.h ****     PLIC_F2M_56_INT_OFFSET           = 161 + OFFSET_TO_MSS_GLOBAL_INTS,
 446:/home/vinay/Desktop/softconsole_watershed/Water-shed/src/platform/mpfs_hal/common/mss_plic.h ****     PLIC_F2M_57_INT_OFFSET           = 162 + OFFSET_TO_MSS_GLOBAL_INTS,
 447:/home/vinay/Desktop/softconsole_watershed/Water-shed/src/platform/mpfs_hal/common/mss_plic.h ****     PLIC_F2M_58_INT_OFFSET           = 163 + OFFSET_TO_MSS_GLOBAL_INTS,
 448:/home/vinay/Desktop/softconsole_watershed/Water-shed/src/platform/mpfs_hal/common/mss_plic.h ****     PLIC_F2M_59_INT_OFFSET           = 164 + OFFSET_TO_MSS_GLOBAL_INTS,
 449:/home/vinay/Desktop/softconsole_watershed/Water-shed/src/platform/mpfs_hal/common/mss_plic.h ****     PLIC_F2M_60_INT_OFFSET           = 165 + OFFSET_TO_MSS_GLOBAL_INTS,
 450:/home/vinay/Desktop/softconsole_watershed/Water-shed/src/platform/mpfs_hal/common/mss_plic.h ****     PLIC_F2M_61_INT_OFFSET           = 166 + OFFSET_TO_MSS_GLOBAL_INTS,
 451:/home/vinay/Desktop/softconsole_watershed/Water-shed/src/platform/mpfs_hal/common/mss_plic.h **** 
 452:/home/vinay/Desktop/softconsole_watershed/Water-shed/src/platform/mpfs_hal/common/mss_plic.h ****     PLIC_F2M_62_INT_OFFSET           = 167 + OFFSET_TO_MSS_GLOBAL_INTS,
 453:/home/vinay/Desktop/softconsole_watershed/Water-shed/src/platform/mpfs_hal/common/mss_plic.h ****     PLIC_F2M_63_INT_OFFSET           = 168 + OFFSET_TO_MSS_GLOBAL_INTS,
 454:/home/vinay/Desktop/softconsole_watershed/Water-shed/src/platform/mpfs_hal/common/mss_plic.h **** 
 455:/home/vinay/Desktop/softconsole_watershed/Water-shed/src/platform/mpfs_hal/common/mss_plic.h ****     PLIC_E51_BUS_ERROR_UNIT_OFFSET        = 182,
 456:/home/vinay/Desktop/softconsole_watershed/Water-shed/src/platform/mpfs_hal/common/mss_plic.h ****     PLIC_U54_1_BUS_ERROR_UNIT_OFFSET      = 183,
 457:/home/vinay/Desktop/softconsole_watershed/Water-shed/src/platform/mpfs_hal/common/mss_plic.h ****     PLIC_U54_2_BUS_ERROR_UNIT_OFFSET      = 184,
 458:/home/vinay/Desktop/softconsole_watershed/Water-shed/src/platform/mpfs_hal/common/mss_plic.h ****     PLIC_U54_3_BUS_ERROR_UNIT_OFFSET      = 185,
 459:/home/vinay/Desktop/softconsole_watershed/Water-shed/src/platform/mpfs_hal/common/mss_plic.h ****     PLIC_U54_4_BUS_ERROR_UNIT_OFFSET      = 186
 460:/home/vinay/Desktop/softconsole_watershed/Water-shed/src/platform/mpfs_hal/common/mss_plic.h **** 
 461:/home/vinay/Desktop/softconsole_watershed/Water-shed/src/platform/mpfs_hal/common/mss_plic.h **** } PLIC_IRQn_Type;
 462:/home/vinay/Desktop/softconsole_watershed/Water-shed/src/platform/mpfs_hal/common/mss_plic.h **** 
 463:/home/vinay/Desktop/softconsole_watershed/Water-shed/src/platform/mpfs_hal/common/mss_plic.h **** #define MAX_PLIC_INT PLIC_U54_4_BUS_ERROR_UNIT_OFFSET
 464:/home/vinay/Desktop/softconsole_watershed/Water-shed/src/platform/mpfs_hal/common/mss_plic.h **** 
 465:/home/vinay/Desktop/softconsole_watershed/Water-shed/src/platform/mpfs_hal/common/mss_plic.h **** typedef struct
 466:/home/vinay/Desktop/softconsole_watershed/Water-shed/src/platform/mpfs_hal/common/mss_plic.h **** {
 467:/home/vinay/Desktop/softconsole_watershed/Water-shed/src/platform/mpfs_hal/common/mss_plic.h ****     volatile uint32_t PRIORITY_THRESHOLD;
 468:/home/vinay/Desktop/softconsole_watershed/Water-shed/src/platform/mpfs_hal/common/mss_plic.h ****     volatile uint32_t CLAIM_COMPLETE;
 469:/home/vinay/Desktop/softconsole_watershed/Water-shed/src/platform/mpfs_hal/common/mss_plic.h ****     volatile uint32_t reserved[(0x1000/4)-2];
 470:/home/vinay/Desktop/softconsole_watershed/Water-shed/src/platform/mpfs_hal/common/mss_plic.h **** } IRQ_Target_Type;
 471:/home/vinay/Desktop/softconsole_watershed/Water-shed/src/platform/mpfs_hal/common/mss_plic.h **** 
 472:/home/vinay/Desktop/softconsole_watershed/Water-shed/src/platform/mpfs_hal/common/mss_plic.h **** typedef struct
 473:/home/vinay/Desktop/softconsole_watershed/Water-shed/src/platform/mpfs_hal/common/mss_plic.h **** {
 474:/home/vinay/Desktop/softconsole_watershed/Water-shed/src/platform/mpfs_hal/common/mss_plic.h ****     volatile uint32_t ENABLES[32U];
 475:/home/vinay/Desktop/softconsole_watershed/Water-shed/src/platform/mpfs_hal/common/mss_plic.h **** } Target_Enables_Type;
 476:/home/vinay/Desktop/softconsole_watershed/Water-shed/src/platform/mpfs_hal/common/mss_plic.h **** 
 477:/home/vinay/Desktop/softconsole_watershed/Water-shed/src/platform/mpfs_hal/common/mss_plic.h **** 
 478:/home/vinay/Desktop/softconsole_watershed/Water-shed/src/platform/mpfs_hal/common/mss_plic.h **** #define PLIC_SET_UP_REGISTERS 6U
 479:/home/vinay/Desktop/softconsole_watershed/Water-shed/src/platform/mpfs_hal/common/mss_plic.h **** 
 480:/home/vinay/Desktop/softconsole_watershed/Water-shed/src/platform/mpfs_hal/common/mss_plic.h **** #define PLIC_NUM_SOURCES 187U
 481:/home/vinay/Desktop/softconsole_watershed/Water-shed/src/platform/mpfs_hal/common/mss_plic.h **** 
 482:/home/vinay/Desktop/softconsole_watershed/Water-shed/src/platform/mpfs_hal/common/mss_plic.h **** #define PLIC_NUM_PRIORITIES 7U
 483:/home/vinay/Desktop/softconsole_watershed/Water-shed/src/platform/mpfs_hal/common/mss_plic.h **** #define NUM_CLAIM_REGS      9U
 484:/home/vinay/Desktop/softconsole_watershed/Water-shed/src/platform/mpfs_hal/common/mss_plic.h **** 
 485:/home/vinay/Desktop/softconsole_watershed/Water-shed/src/platform/mpfs_hal/common/mss_plic.h **** 
 486:/home/vinay/Desktop/softconsole_watershed/Water-shed/src/platform/mpfs_hal/common/mss_plic.h **** /* The FU540-C000 has 53 interrupt sources. */
 487:/home/vinay/Desktop/softconsole_watershed/Water-shed/src/platform/mpfs_hal/common/mss_plic.h ****  typedef struct
 488:/home/vinay/Desktop/softconsole_watershed/Water-shed/src/platform/mpfs_hal/common/mss_plic.h **** {
 489:/home/vinay/Desktop/softconsole_watershed/Water-shed/src/platform/mpfs_hal/common/mss_plic.h ****     volatile uint32_t RESERVED0;
 490:/home/vinay/Desktop/softconsole_watershed/Water-shed/src/platform/mpfs_hal/common/mss_plic.h ****     /*-------------------- Source Priority --------------------*/
 491:/home/vinay/Desktop/softconsole_watershed/Water-shed/src/platform/mpfs_hal/common/mss_plic.h ****     volatile uint32_t SOURCE_PRIORITY[PLIC_NUM_SOURCES];
 492:/home/vinay/Desktop/softconsole_watershed/Water-shed/src/platform/mpfs_hal/common/mss_plic.h ****     volatile uint32_t RESERVED1[(0x1000 / 4) - (PLIC_NUM_SOURCES + 1)];
 493:/home/vinay/Desktop/softconsole_watershed/Water-shed/src/platform/mpfs_hal/common/mss_plic.h ****     /*-------------------- Pending array --------------------*/
 494:/home/vinay/Desktop/softconsole_watershed/Water-shed/src/platform/mpfs_hal/common/mss_plic.h ****     volatile const uint32_t PENDING_ARRAY[PLIC_SET_UP_REGISTERS];
 495:/home/vinay/Desktop/softconsole_watershed/Water-shed/src/platform/mpfs_hal/common/mss_plic.h ****     volatile uint32_t RESERVED2[(0x1000/4) - PLIC_SET_UP_REGISTERS];
 496:/home/vinay/Desktop/softconsole_watershed/Water-shed/src/platform/mpfs_hal/common/mss_plic.h **** 
 497:/home/vinay/Desktop/softconsole_watershed/Water-shed/src/platform/mpfs_hal/common/mss_plic.h ****     /*-----------------Hart0 Mode Enables--------------------*/
 498:/home/vinay/Desktop/softconsole_watershed/Water-shed/src/platform/mpfs_hal/common/mss_plic.h ****     volatile uint32_t HART0_MMODE_ENA[PLIC_SET_UP_REGISTERS];
 499:/home/vinay/Desktop/softconsole_watershed/Water-shed/src/platform/mpfs_hal/common/mss_plic.h ****     volatile uint32_t RESERVED3[(0x80/4) - PLIC_SET_UP_REGISTERS];
 500:/home/vinay/Desktop/softconsole_watershed/Water-shed/src/platform/mpfs_hal/common/mss_plic.h **** 
 501:/home/vinay/Desktop/softconsole_watershed/Water-shed/src/platform/mpfs_hal/common/mss_plic.h ****     /*-----------------Hart1 Mode Enables--------------------*/
 502:/home/vinay/Desktop/softconsole_watershed/Water-shed/src/platform/mpfs_hal/common/mss_plic.h ****     volatile uint32_t HART1_MMODE_ENA[PLIC_SET_UP_REGISTERS];
 503:/home/vinay/Desktop/softconsole_watershed/Water-shed/src/platform/mpfs_hal/common/mss_plic.h ****     volatile uint32_t RESERVED4a[(0x80/4) - PLIC_SET_UP_REGISTERS];
 504:/home/vinay/Desktop/softconsole_watershed/Water-shed/src/platform/mpfs_hal/common/mss_plic.h ****     volatile uint32_t HART1_SMODE_ENA[PLIC_SET_UP_REGISTERS];
 505:/home/vinay/Desktop/softconsole_watershed/Water-shed/src/platform/mpfs_hal/common/mss_plic.h ****     volatile uint32_t RESERVED4[(0x80/4) - PLIC_SET_UP_REGISTERS];
 506:/home/vinay/Desktop/softconsole_watershed/Water-shed/src/platform/mpfs_hal/common/mss_plic.h **** 
 507:/home/vinay/Desktop/softconsole_watershed/Water-shed/src/platform/mpfs_hal/common/mss_plic.h ****     /*-----------------Hart2 Mode Enables--------------------*/
 508:/home/vinay/Desktop/softconsole_watershed/Water-shed/src/platform/mpfs_hal/common/mss_plic.h ****     volatile uint32_t HART2_MMODE_ENA[PLIC_SET_UP_REGISTERS];
 509:/home/vinay/Desktop/softconsole_watershed/Water-shed/src/platform/mpfs_hal/common/mss_plic.h ****     volatile uint32_t RESERVED5a[(0x80/4) - PLIC_SET_UP_REGISTERS];
 510:/home/vinay/Desktop/softconsole_watershed/Water-shed/src/platform/mpfs_hal/common/mss_plic.h ****     volatile uint32_t HART2_SMODE_ENA[PLIC_SET_UP_REGISTERS];
 511:/home/vinay/Desktop/softconsole_watershed/Water-shed/src/platform/mpfs_hal/common/mss_plic.h ****     volatile uint32_t RESERVED5[(0x80/4) - PLIC_SET_UP_REGISTERS];
 512:/home/vinay/Desktop/softconsole_watershed/Water-shed/src/platform/mpfs_hal/common/mss_plic.h **** 
 513:/home/vinay/Desktop/softconsole_watershed/Water-shed/src/platform/mpfs_hal/common/mss_plic.h ****     /*-----------------Hart3 Mode Enables--------------------*/
 514:/home/vinay/Desktop/softconsole_watershed/Water-shed/src/platform/mpfs_hal/common/mss_plic.h ****     volatile uint32_t HART3_MMODE_ENA[PLIC_SET_UP_REGISTERS];
 515:/home/vinay/Desktop/softconsole_watershed/Water-shed/src/platform/mpfs_hal/common/mss_plic.h ****     volatile uint32_t RESERVED6a[(0x80/4) - PLIC_SET_UP_REGISTERS];
 516:/home/vinay/Desktop/softconsole_watershed/Water-shed/src/platform/mpfs_hal/common/mss_plic.h ****     volatile uint32_t HART3_SMODE_ENA[PLIC_SET_UP_REGISTERS];
 517:/home/vinay/Desktop/softconsole_watershed/Water-shed/src/platform/mpfs_hal/common/mss_plic.h ****     volatile uint32_t RESERVED6[(0x80/4) - PLIC_SET_UP_REGISTERS];
 518:/home/vinay/Desktop/softconsole_watershed/Water-shed/src/platform/mpfs_hal/common/mss_plic.h **** 
 519:/home/vinay/Desktop/softconsole_watershed/Water-shed/src/platform/mpfs_hal/common/mss_plic.h ****     /*-----------------Hart4 Mode Enables--------------------*/
 520:/home/vinay/Desktop/softconsole_watershed/Water-shed/src/platform/mpfs_hal/common/mss_plic.h ****     volatile uint32_t HART4_MMODE_ENA[PLIC_SET_UP_REGISTERS];
 521:/home/vinay/Desktop/softconsole_watershed/Water-shed/src/platform/mpfs_hal/common/mss_plic.h ****     volatile uint32_t RESERVED7a[(0x80/4) - PLIC_SET_UP_REGISTERS];
 522:/home/vinay/Desktop/softconsole_watershed/Water-shed/src/platform/mpfs_hal/common/mss_plic.h ****     volatile uint32_t HART4_SMODE_ENA[PLIC_SET_UP_REGISTERS];
 523:/home/vinay/Desktop/softconsole_watershed/Water-shed/src/platform/mpfs_hal/common/mss_plic.h ****     volatile uint32_t RESERVED7[(0x80/4) - PLIC_SET_UP_REGISTERS];
 524:/home/vinay/Desktop/softconsole_watershed/Water-shed/src/platform/mpfs_hal/common/mss_plic.h **** 
 525:/home/vinay/Desktop/softconsole_watershed/Water-shed/src/platform/mpfs_hal/common/mss_plic.h ****     volatile uint32_t RESERVED8[(0x0C200000 - 0x0C002480)/4];
 526:/home/vinay/Desktop/softconsole_watershed/Water-shed/src/platform/mpfs_hal/common/mss_plic.h **** 
 527:/home/vinay/Desktop/softconsole_watershed/Water-shed/src/platform/mpfs_hal/common/mss_plic.h ****     /*--- Target Priority threshold and claim/complete---------*/
 528:/home/vinay/Desktop/softconsole_watershed/Water-shed/src/platform/mpfs_hal/common/mss_plic.h ****     IRQ_Target_Type TARGET[NUM_CLAIM_REGS];   /* See PLIC Register Map or
 529:/home/vinay/Desktop/softconsole_watershed/Water-shed/src/platform/mpfs_hal/common/mss_plic.h ****                                                  TARGET_OFFSET defines below
 530:/home/vinay/Desktop/softconsole_watershed/Water-shed/src/platform/mpfs_hal/common/mss_plic.h ****                                                  for offset details */
 531:/home/vinay/Desktop/softconsole_watershed/Water-shed/src/platform/mpfs_hal/common/mss_plic.h **** 
 532:/home/vinay/Desktop/softconsole_watershed/Water-shed/src/platform/mpfs_hal/common/mss_plic.h **** } PLIC_Type;
 533:/home/vinay/Desktop/softconsole_watershed/Water-shed/src/platform/mpfs_hal/common/mss_plic.h **** 
 534:/home/vinay/Desktop/softconsole_watershed/Water-shed/src/platform/mpfs_hal/common/mss_plic.h **** #define TARGET_OFFSET_HART0_M 0U
 535:/home/vinay/Desktop/softconsole_watershed/Water-shed/src/platform/mpfs_hal/common/mss_plic.h **** #define TARGET_OFFSET_HART1_M 1U
 536:/home/vinay/Desktop/softconsole_watershed/Water-shed/src/platform/mpfs_hal/common/mss_plic.h **** #define TARGET_OFFSET_HART1_S 2U
 537:/home/vinay/Desktop/softconsole_watershed/Water-shed/src/platform/mpfs_hal/common/mss_plic.h **** #define TARGET_OFFSET_HART2_M 3U
 538:/home/vinay/Desktop/softconsole_watershed/Water-shed/src/platform/mpfs_hal/common/mss_plic.h **** #define TARGET_OFFSET_HART2_S 4U
 539:/home/vinay/Desktop/softconsole_watershed/Water-shed/src/platform/mpfs_hal/common/mss_plic.h **** #define TARGET_OFFSET_HART3_M 5U
 540:/home/vinay/Desktop/softconsole_watershed/Water-shed/src/platform/mpfs_hal/common/mss_plic.h **** #define TARGET_OFFSET_HART3_S 6U
 541:/home/vinay/Desktop/softconsole_watershed/Water-shed/src/platform/mpfs_hal/common/mss_plic.h **** #define TARGET_OFFSET_HART4_M 7U
 542:/home/vinay/Desktop/softconsole_watershed/Water-shed/src/platform/mpfs_hal/common/mss_plic.h **** #define TARGET_OFFSET_HART4_S 8U
 543:/home/vinay/Desktop/softconsole_watershed/Water-shed/src/platform/mpfs_hal/common/mss_plic.h **** 
 544:/home/vinay/Desktop/softconsole_watershed/Water-shed/src/platform/mpfs_hal/common/mss_plic.h **** extern const unsigned long plic_hart_lookup[5U];
 545:/home/vinay/Desktop/softconsole_watershed/Water-shed/src/platform/mpfs_hal/common/mss_plic.h **** 
 546:/home/vinay/Desktop/softconsole_watershed/Water-shed/src/platform/mpfs_hal/common/mss_plic.h **** /***************************************************************************//**
 547:/home/vinay/Desktop/softconsole_watershed/Water-shed/src/platform/mpfs_hal/common/mss_plic.h ****  * PLIC: Platform Level Interrupt Controller
 548:/home/vinay/Desktop/softconsole_watershed/Water-shed/src/platform/mpfs_hal/common/mss_plic.h ****  */
 549:/home/vinay/Desktop/softconsole_watershed/Water-shed/src/platform/mpfs_hal/common/mss_plic.h **** #define PLIC_BASE_ADDR 0x0C000000UL
 550:/home/vinay/Desktop/softconsole_watershed/Water-shed/src/platform/mpfs_hal/common/mss_plic.h **** 
 551:/home/vinay/Desktop/softconsole_watershed/Water-shed/src/platform/mpfs_hal/common/mss_plic.h **** #define PLIC    ((PLIC_Type * const)PLIC_BASE_ADDR)
 552:/home/vinay/Desktop/softconsole_watershed/Water-shed/src/platform/mpfs_hal/common/mss_plic.h **** 
 553:/home/vinay/Desktop/softconsole_watershed/Water-shed/src/platform/mpfs_hal/common/mss_plic.h **** /*-------------------------------------------------------------------------*//**
 554:/home/vinay/Desktop/softconsole_watershed/Water-shed/src/platform/mpfs_hal/common/mss_plic.h ****  * The function PLIC_init() initializes the PLIC controller and enables the
 555:/home/vinay/Desktop/softconsole_watershed/Water-shed/src/platform/mpfs_hal/common/mss_plic.h ****  * global external interrupt bit.
 556:/home/vinay/Desktop/softconsole_watershed/Water-shed/src/platform/mpfs_hal/common/mss_plic.h ****  */
 557:/home/vinay/Desktop/softconsole_watershed/Water-shed/src/platform/mpfs_hal/common/mss_plic.h **** 
 558:/home/vinay/Desktop/softconsole_watershed/Water-shed/src/platform/mpfs_hal/common/mss_plic.h **** /*-----------------Hart Mode Enables--------------------*/
 559:/home/vinay/Desktop/softconsole_watershed/Water-shed/src/platform/mpfs_hal/common/mss_plic.h **** 
 560:/home/vinay/Desktop/softconsole_watershed/Water-shed/src/platform/mpfs_hal/common/mss_plic.h **** static inline void PLIC_init(void)
 561:/home/vinay/Desktop/softconsole_watershed/Water-shed/src/platform/mpfs_hal/common/mss_plic.h **** {
 562:/home/vinay/Desktop/softconsole_watershed/Water-shed/src/platform/mpfs_hal/common/mss_plic.h ****     uint32_t inc;
 563:/home/vinay/Desktop/softconsole_watershed/Water-shed/src/platform/mpfs_hal/common/mss_plic.h ****     uint64_t hart_id  = read_csr(mhartid);
 564:/home/vinay/Desktop/softconsole_watershed/Water-shed/src/platform/mpfs_hal/common/mss_plic.h **** 
 565:/home/vinay/Desktop/softconsole_watershed/Water-shed/src/platform/mpfs_hal/common/mss_plic.h ****     /* Disable all interrupts for the current hart. */
 566:/home/vinay/Desktop/softconsole_watershed/Water-shed/src/platform/mpfs_hal/common/mss_plic.h ****     switch(hart_id)
 567:/home/vinay/Desktop/softconsole_watershed/Water-shed/src/platform/mpfs_hal/common/mss_plic.h ****     {
 568:/home/vinay/Desktop/softconsole_watershed/Water-shed/src/platform/mpfs_hal/common/mss_plic.h ****         case 0:
 569:/home/vinay/Desktop/softconsole_watershed/Water-shed/src/platform/mpfs_hal/common/mss_plic.h ****             for(inc = 0UL; inc < PLIC_SET_UP_REGISTERS; inc++)
 570:/home/vinay/Desktop/softconsole_watershed/Water-shed/src/platform/mpfs_hal/common/mss_plic.h ****             {
 571:/home/vinay/Desktop/softconsole_watershed/Water-shed/src/platform/mpfs_hal/common/mss_plic.h ****                 PLIC->HART0_MMODE_ENA[inc] = 0U;
 572:/home/vinay/Desktop/softconsole_watershed/Water-shed/src/platform/mpfs_hal/common/mss_plic.h ****             }
 573:/home/vinay/Desktop/softconsole_watershed/Water-shed/src/platform/mpfs_hal/common/mss_plic.h **** 
 574:/home/vinay/Desktop/softconsole_watershed/Water-shed/src/platform/mpfs_hal/common/mss_plic.h ****             /* Set the threshold to zero.
 575:/home/vinay/Desktop/softconsole_watershed/Water-shed/src/platform/mpfs_hal/common/mss_plic.h ****              * PLIC provides context based threshold register for the settings of a
 576:/home/vinay/Desktop/softconsole_watershed/Water-shed/src/platform/mpfs_hal/common/mss_plic.h ****              * interrupt priority threshold of each context. The threshold register
 577:/home/vinay/Desktop/softconsole_watershed/Water-shed/src/platform/mpfs_hal/common/mss_plic.h ****              * is a WARL field. The PLIC will mask all PLIC interrupts of a priority
 578:/home/vinay/Desktop/softconsole_watershed/Water-shed/src/platform/mpfs_hal/common/mss_plic.h ****              * less than or equal to threshold. For example, a threshold value of zero
 579:/home/vinay/Desktop/softconsole_watershed/Water-shed/src/platform/mpfs_hal/common/mss_plic.h ****              * permits all interrupts with non-zero priority.*/
 580:/home/vinay/Desktop/softconsole_watershed/Water-shed/src/platform/mpfs_hal/common/mss_plic.h **** 
 581:/home/vinay/Desktop/softconsole_watershed/Water-shed/src/platform/mpfs_hal/common/mss_plic.h ****             PLIC->TARGET[TARGET_OFFSET_HART0_M].PRIORITY_THRESHOLD  = 0U;
 582:/home/vinay/Desktop/softconsole_watershed/Water-shed/src/platform/mpfs_hal/common/mss_plic.h ****             break;
 583:/home/vinay/Desktop/softconsole_watershed/Water-shed/src/platform/mpfs_hal/common/mss_plic.h ****         case 1:
 584:/home/vinay/Desktop/softconsole_watershed/Water-shed/src/platform/mpfs_hal/common/mss_plic.h ****             for(inc = 0UL; inc < PLIC_SET_UP_REGISTERS; inc++)
 585:/home/vinay/Desktop/softconsole_watershed/Water-shed/src/platform/mpfs_hal/common/mss_plic.h ****             {
 586:/home/vinay/Desktop/softconsole_watershed/Water-shed/src/platform/mpfs_hal/common/mss_plic.h ****                 PLIC->HART1_MMODE_ENA[inc] = 0U;
 587:/home/vinay/Desktop/softconsole_watershed/Water-shed/src/platform/mpfs_hal/common/mss_plic.h ****                 PLIC->HART1_SMODE_ENA[inc] = 0U;
 588:/home/vinay/Desktop/softconsole_watershed/Water-shed/src/platform/mpfs_hal/common/mss_plic.h ****             }
 589:/home/vinay/Desktop/softconsole_watershed/Water-shed/src/platform/mpfs_hal/common/mss_plic.h **** 
 590:/home/vinay/Desktop/softconsole_watershed/Water-shed/src/platform/mpfs_hal/common/mss_plic.h ****             PLIC->TARGET[TARGET_OFFSET_HART1_M].PRIORITY_THRESHOLD  = 0U;
 591:/home/vinay/Desktop/softconsole_watershed/Water-shed/src/platform/mpfs_hal/common/mss_plic.h ****             /* Disable supervisor level */
 592:/home/vinay/Desktop/softconsole_watershed/Water-shed/src/platform/mpfs_hal/common/mss_plic.h ****             PLIC->TARGET[TARGET_OFFSET_HART1_S].PRIORITY_THRESHOLD  = 7U;
 593:/home/vinay/Desktop/softconsole_watershed/Water-shed/src/platform/mpfs_hal/common/mss_plic.h ****             break;
 594:/home/vinay/Desktop/softconsole_watershed/Water-shed/src/platform/mpfs_hal/common/mss_plic.h ****         case 2:
 595:/home/vinay/Desktop/softconsole_watershed/Water-shed/src/platform/mpfs_hal/common/mss_plic.h ****             for(inc = 0UL; inc < PLIC_SET_UP_REGISTERS; inc++)
 596:/home/vinay/Desktop/softconsole_watershed/Water-shed/src/platform/mpfs_hal/common/mss_plic.h ****             {
 597:/home/vinay/Desktop/softconsole_watershed/Water-shed/src/platform/mpfs_hal/common/mss_plic.h ****                 PLIC->HART2_MMODE_ENA[inc] = 0U;
 598:/home/vinay/Desktop/softconsole_watershed/Water-shed/src/platform/mpfs_hal/common/mss_plic.h ****                 PLIC->HART2_SMODE_ENA[inc] = 0U;
 599:/home/vinay/Desktop/softconsole_watershed/Water-shed/src/platform/mpfs_hal/common/mss_plic.h ****             }
 600:/home/vinay/Desktop/softconsole_watershed/Water-shed/src/platform/mpfs_hal/common/mss_plic.h **** 
 601:/home/vinay/Desktop/softconsole_watershed/Water-shed/src/platform/mpfs_hal/common/mss_plic.h ****             PLIC->TARGET[TARGET_OFFSET_HART2_M].PRIORITY_THRESHOLD  = 0U;
 602:/home/vinay/Desktop/softconsole_watershed/Water-shed/src/platform/mpfs_hal/common/mss_plic.h ****             /* Disable supervisor level */
 603:/home/vinay/Desktop/softconsole_watershed/Water-shed/src/platform/mpfs_hal/common/mss_plic.h ****             PLIC->TARGET[TARGET_OFFSET_HART2_S].PRIORITY_THRESHOLD  = 7U;
 604:/home/vinay/Desktop/softconsole_watershed/Water-shed/src/platform/mpfs_hal/common/mss_plic.h ****             break;
 605:/home/vinay/Desktop/softconsole_watershed/Water-shed/src/platform/mpfs_hal/common/mss_plic.h ****         case 3:
 606:/home/vinay/Desktop/softconsole_watershed/Water-shed/src/platform/mpfs_hal/common/mss_plic.h ****             for(inc = 0UL; inc < PLIC_SET_UP_REGISTERS; inc++)
 607:/home/vinay/Desktop/softconsole_watershed/Water-shed/src/platform/mpfs_hal/common/mss_plic.h ****             {
 608:/home/vinay/Desktop/softconsole_watershed/Water-shed/src/platform/mpfs_hal/common/mss_plic.h ****                 PLIC->HART3_MMODE_ENA[inc] = 0U;
 609:/home/vinay/Desktop/softconsole_watershed/Water-shed/src/platform/mpfs_hal/common/mss_plic.h ****                 PLIC->HART3_SMODE_ENA[inc] = 0U;
 610:/home/vinay/Desktop/softconsole_watershed/Water-shed/src/platform/mpfs_hal/common/mss_plic.h ****             }
 611:/home/vinay/Desktop/softconsole_watershed/Water-shed/src/platform/mpfs_hal/common/mss_plic.h **** 
 612:/home/vinay/Desktop/softconsole_watershed/Water-shed/src/platform/mpfs_hal/common/mss_plic.h ****             PLIC->TARGET[TARGET_OFFSET_HART3_M].PRIORITY_THRESHOLD  = 0U;
 613:/home/vinay/Desktop/softconsole_watershed/Water-shed/src/platform/mpfs_hal/common/mss_plic.h ****             /* Disable supervisor level */
 614:/home/vinay/Desktop/softconsole_watershed/Water-shed/src/platform/mpfs_hal/common/mss_plic.h ****             PLIC->TARGET[TARGET_OFFSET_HART3_S].PRIORITY_THRESHOLD  = 7U;
 615:/home/vinay/Desktop/softconsole_watershed/Water-shed/src/platform/mpfs_hal/common/mss_plic.h ****             break;
 616:/home/vinay/Desktop/softconsole_watershed/Water-shed/src/platform/mpfs_hal/common/mss_plic.h ****         case 4:
 617:/home/vinay/Desktop/softconsole_watershed/Water-shed/src/platform/mpfs_hal/common/mss_plic.h ****             for(inc = 0UL; inc < PLIC_SET_UP_REGISTERS; inc++)
 618:/home/vinay/Desktop/softconsole_watershed/Water-shed/src/platform/mpfs_hal/common/mss_plic.h ****             {
 619:/home/vinay/Desktop/softconsole_watershed/Water-shed/src/platform/mpfs_hal/common/mss_plic.h ****                 PLIC->HART4_MMODE_ENA[inc] = 0U;
 620:/home/vinay/Desktop/softconsole_watershed/Water-shed/src/platform/mpfs_hal/common/mss_plic.h ****                 PLIC->HART4_SMODE_ENA[inc] = 0U;
 621:/home/vinay/Desktop/softconsole_watershed/Water-shed/src/platform/mpfs_hal/common/mss_plic.h ****             }
 622:/home/vinay/Desktop/softconsole_watershed/Water-shed/src/platform/mpfs_hal/common/mss_plic.h **** 
 623:/home/vinay/Desktop/softconsole_watershed/Water-shed/src/platform/mpfs_hal/common/mss_plic.h ****             PLIC->TARGET[TARGET_OFFSET_HART4_M].PRIORITY_THRESHOLD  = 0U;
 624:/home/vinay/Desktop/softconsole_watershed/Water-shed/src/platform/mpfs_hal/common/mss_plic.h ****             /* Disable supervisor level */
 625:/home/vinay/Desktop/softconsole_watershed/Water-shed/src/platform/mpfs_hal/common/mss_plic.h ****             PLIC->TARGET[TARGET_OFFSET_HART4_S].PRIORITY_THRESHOLD  = 7U;
 626:/home/vinay/Desktop/softconsole_watershed/Water-shed/src/platform/mpfs_hal/common/mss_plic.h ****             break;
 627:/home/vinay/Desktop/softconsole_watershed/Water-shed/src/platform/mpfs_hal/common/mss_plic.h ****         default:
 628:/home/vinay/Desktop/softconsole_watershed/Water-shed/src/platform/mpfs_hal/common/mss_plic.h ****             break;
 629:/home/vinay/Desktop/softconsole_watershed/Water-shed/src/platform/mpfs_hal/common/mss_plic.h ****     }
 630:/home/vinay/Desktop/softconsole_watershed/Water-shed/src/platform/mpfs_hal/common/mss_plic.h **** 
 631:/home/vinay/Desktop/softconsole_watershed/Water-shed/src/platform/mpfs_hal/common/mss_plic.h ****     /* Enable  PLIC_MMUARTine external interrupts. */
 632:/home/vinay/Desktop/softconsole_watershed/Water-shed/src/platform/mpfs_hal/common/mss_plic.h ****     set_csr(mie, MIP_MEIP);
 633:/home/vinay/Desktop/softconsole_watershed/Water-shed/src/platform/mpfs_hal/common/mss_plic.h **** }
 634:/home/vinay/Desktop/softconsole_watershed/Water-shed/src/platform/mpfs_hal/common/mss_plic.h **** 
 635:/home/vinay/Desktop/softconsole_watershed/Water-shed/src/platform/mpfs_hal/common/mss_plic.h **** 
 636:/home/vinay/Desktop/softconsole_watershed/Water-shed/src/platform/mpfs_hal/common/mss_plic.h **** 
 637:/home/vinay/Desktop/softconsole_watershed/Water-shed/src/platform/mpfs_hal/common/mss_plic.h **** /***************************************************************************//**
 638:/home/vinay/Desktop/softconsole_watershed/Water-shed/src/platform/mpfs_hal/common/mss_plic.h ****  * The function PLIC_EnableIRQ() enables the external interrupt for the
 639:/home/vinay/Desktop/softconsole_watershed/Water-shed/src/platform/mpfs_hal/common/mss_plic.h ****  * interrupt number indicated by the parameter IRQn.
 640:/home/vinay/Desktop/softconsole_watershed/Water-shed/src/platform/mpfs_hal/common/mss_plic.h ****  */
 641:/home/vinay/Desktop/softconsole_watershed/Water-shed/src/platform/mpfs_hal/common/mss_plic.h **** static inline void PLIC_EnableIRQ(PLIC_IRQn_Type IRQn)
 642:/home/vinay/Desktop/softconsole_watershed/Water-shed/src/platform/mpfs_hal/common/mss_plic.h **** {
  15              		.loc 1 642 1
  16              		.cfi_startproc
  17 0000 3971     		addi	sp,sp,-64
  18              		.cfi_def_cfa_offset 64
  19 0002 22FC     		sd	s0,56(sp)
  20              		.cfi_offset 8, -8
  21 0004 8000     		addi	s0,sp,64
  22              		.cfi_def_cfa 8, 0
  23 0006 AA87     		mv	a5,a0
  24 0008 2326F4FC 		sw	a5,-52(s0)
  25              	.LBB2:
 643:/home/vinay/Desktop/softconsole_watershed/Water-shed/src/platform/mpfs_hal/common/mss_plic.h ****     uint32_t current;
 644:/home/vinay/Desktop/softconsole_watershed/Water-shed/src/platform/mpfs_hal/common/mss_plic.h ****     uint64_t hart_id  = read_csr(mhartid);
  26              		.loc 1 644 25
  27              	 #APP
  28              	# 644 "/home/vinay/Desktop/softconsole_watershed/Water-shed/src/platform/mpfs_hal/common/mss_plic.h
 645              	
  29              		csrr a5, mhartid
  30              	# 0 "" 2
  31              	 #NO_APP
  32 0010 2334F4FE 		sd	a5,-24(s0)
  33 0014 833784FE 		ld	a5,-24(s0)
  34              	.LBE2:
 644:/home/vinay/Desktop/softconsole_watershed/Water-shed/src/platform/mpfs_hal/common/mss_plic.h ****     uint64_t hart_id  = read_csr(mhartid);
  35              		.loc 1 644 14
  36 0018 2330F4FE 		sd	a5,-32(s0)
 646:/home/vinay/Desktop/softconsole_watershed/Water-shed/src/platform/mpfs_hal/common/mss_plic.h ****     switch(hart_id)
  37              		.loc 1 646 5
  38 001c 033704FE 		ld	a4,-32(s0)
  39 0020 9147     		li	a5,4
  40 0022 63E2E724 		bgtu	a4,a5,.L10
  41 0026 833704FE 		ld	a5,-32(s0)
  42 002a 13972700 		slli	a4,a5,2
  43 002e 97070000 		lla	a5,.L4
  43      93870700 
  44 0036 BA97     		add	a5,a4,a5
  45 0038 9C43     		lw	a5,0(a5)
  46 003a 1B870700 		sext.w	a4,a5
  47 003e 97070000 		lla	a5,.L4
  47      93870700 
  48 0046 BA97     		add	a5,a4,a5
  49 0048 8287     		jr	a5
  50              		.section	.rodata.PLIC_EnableIRQ,"a",@progbits
  51              		.align	2
  52              		.align	2
  53              	.L4:
  54 0000 00000000 		.word	.L8-.L4
  55 0004 00000000 		.word	.L7-.L4
  56 0008 00000000 		.word	.L6-.L4
  57 000c 00000000 		.word	.L5-.L4
  58 0010 00000000 		.word	.L3-.L4
  59              		.section	.text.PLIC_EnableIRQ
  60              	.L8:
 647:/home/vinay/Desktop/softconsole_watershed/Water-shed/src/platform/mpfs_hal/common/mss_plic.h ****     {
 648:/home/vinay/Desktop/softconsole_watershed/Water-shed/src/platform/mpfs_hal/common/mss_plic.h ****         case 0:
 649:/home/vinay/Desktop/softconsole_watershed/Water-shed/src/platform/mpfs_hal/common/mss_plic.h ****             current  = PLIC->HART0_MMODE_ENA[IRQn / 32U];
  61              		.loc 1 649 28
  62 004a 3707000C 		li	a4,201326592
  63              		.loc 1 649 51
  64 004e 8327C4FC 		lw	a5,-52(s0)
  65 0052 9BD75700 		srliw	a5,a5,5
  66 0056 8127     		sext.w	a5,a5
  67              		.loc 1 649 22
  68 0058 93960702 		slli	a3,a5,32
  69 005c 8192     		srli	a3,a3,32
  70 005e 8567     		li	a5,4096
  71 0060 93870780 		addi	a5,a5,-2048
  72 0064 B697     		add	a5,a3,a5
  73 0066 8A07     		slli	a5,a5,2
  74 0068 BA97     		add	a5,a4,a5
  75 006a 9C43     		lw	a5,0(a5)
  76 006c 232EF4FC 		sw	a5,-36(s0)
 650:/home/vinay/Desktop/softconsole_watershed/Water-shed/src/platform/mpfs_hal/common/mss_plic.h ****             current |= (uint32_t)1 << (IRQn % 32U);
  77              		.loc 1 650 45
  78 0070 8327C4FC 		lw	a5,-52(s0)
  79 0074 FD8B     		andi	a5,a5,31
  80 0076 8127     		sext.w	a5,a5
  81              		.loc 1 650 36
  82 0078 3E87     		mv	a4,a5
  83 007a 8547     		li	a5,1
  84 007c BB97E700 		sllw	a5,a5,a4
  85 0080 1B870700 		sext.w	a4,a5
  86              		.loc 1 650 21
  87 0084 8327C4FD 		lw	a5,-36(s0)
  88 0088 D98F     		or	a5,a5,a4
  89 008a 232EF4FC 		sw	a5,-36(s0)
 651:/home/vinay/Desktop/softconsole_watershed/Water-shed/src/platform/mpfs_hal/common/mss_plic.h ****             PLIC->HART0_MMODE_ENA[IRQn / 32U]  = current;
  90              		.loc 1 651 17
  91 008e 3707000C 		li	a4,201326592
  92              		.loc 1 651 40
  93 0092 8327C4FC 		lw	a5,-52(s0)
  94 0096 9BD75700 		srliw	a5,a5,5
  95 009a 8127     		sext.w	a5,a5
  96              		.loc 1 651 48
  97 009c 93960702 		slli	a3,a5,32
  98 00a0 8192     		srli	a3,a3,32
  99 00a2 8567     		li	a5,4096
 100 00a4 93870780 		addi	a5,a5,-2048
 101 00a8 B697     		add	a5,a3,a5
 102 00aa 8A07     		slli	a5,a5,2
 103 00ac BA97     		add	a5,a4,a5
 104 00ae 0327C4FD 		lw	a4,-36(s0)
 105 00b2 98C3     		sw	a4,0(a5)
 652:/home/vinay/Desktop/softconsole_watershed/Water-shed/src/platform/mpfs_hal/common/mss_plic.h ****             break;
 106              		.loc 1 652 13
 107 00b4 55AA     		j	.L9
 108              	.L7:
 653:/home/vinay/Desktop/softconsole_watershed/Water-shed/src/platform/mpfs_hal/common/mss_plic.h ****         case 1:
 654:/home/vinay/Desktop/softconsole_watershed/Water-shed/src/platform/mpfs_hal/common/mss_plic.h ****             current  = PLIC->HART1_MMODE_ENA[IRQn / 32U];
 109              		.loc 1 654 28
 110 00b6 3707000C 		li	a4,201326592
 111              		.loc 1 654 51
 112 00ba 8327C4FC 		lw	a5,-52(s0)
 113 00be 9BD75700 		srliw	a5,a5,5
 114 00c2 8127     		sext.w	a5,a5
 115              		.loc 1 654 22
 116 00c4 93960702 		slli	a3,a5,32
 117 00c8 8192     		srli	a3,a3,32
 118 00ca 8567     		li	a5,4096
 119 00cc 93870782 		addi	a5,a5,-2016
 120 00d0 B697     		add	a5,a3,a5
 121 00d2 8A07     		slli	a5,a5,2
 122 00d4 BA97     		add	a5,a4,a5
 123 00d6 9C43     		lw	a5,0(a5)
 124 00d8 232EF4FC 		sw	a5,-36(s0)
 655:/home/vinay/Desktop/softconsole_watershed/Water-shed/src/platform/mpfs_hal/common/mss_plic.h ****             current |= (uint32_t)1 << (IRQn % 32U);
 125              		.loc 1 655 45
 126 00dc 8327C4FC 		lw	a5,-52(s0)
 127 00e0 FD8B     		andi	a5,a5,31
 128 00e2 8127     		sext.w	a5,a5
 129              		.loc 1 655 36
 130 00e4 3E87     		mv	a4,a5
 131 00e6 8547     		li	a5,1
 132 00e8 BB97E700 		sllw	a5,a5,a4
 133 00ec 1B870700 		sext.w	a4,a5
 134              		.loc 1 655 21
 135 00f0 8327C4FD 		lw	a5,-36(s0)
 136 00f4 D98F     		or	a5,a5,a4
 137 00f6 232EF4FC 		sw	a5,-36(s0)
 656:/home/vinay/Desktop/softconsole_watershed/Water-shed/src/platform/mpfs_hal/common/mss_plic.h ****             PLIC->HART1_MMODE_ENA[IRQn / 32U]  = current;
 138              		.loc 1 656 17
 139 00fa 3707000C 		li	a4,201326592
 140              		.loc 1 656 40
 141 00fe 8327C4FC 		lw	a5,-52(s0)
 142 0102 9BD75700 		srliw	a5,a5,5
 143 0106 8127     		sext.w	a5,a5
 144              		.loc 1 656 48
 145 0108 93960702 		slli	a3,a5,32
 146 010c 8192     		srli	a3,a3,32
 147 010e 8567     		li	a5,4096
 148 0110 93870782 		addi	a5,a5,-2016
 149 0114 B697     		add	a5,a3,a5
 150 0116 8A07     		slli	a5,a5,2
 151 0118 BA97     		add	a5,a4,a5
 152 011a 0327C4FD 		lw	a4,-36(s0)
 153 011e 98C3     		sw	a4,0(a5)
 657:/home/vinay/Desktop/softconsole_watershed/Water-shed/src/platform/mpfs_hal/common/mss_plic.h ****             break;
 154              		.loc 1 657 13
 155 0120 A1A2     		j	.L9
 156              	.L6:
 658:/home/vinay/Desktop/softconsole_watershed/Water-shed/src/platform/mpfs_hal/common/mss_plic.h ****         case 2:
 659:/home/vinay/Desktop/softconsole_watershed/Water-shed/src/platform/mpfs_hal/common/mss_plic.h ****             current  = PLIC->HART2_MMODE_ENA[IRQn / 32U];
 157              		.loc 1 659 28
 158 0122 3707000C 		li	a4,201326592
 159              		.loc 1 659 51
 160 0126 8327C4FC 		lw	a5,-52(s0)
 161 012a 9BD75700 		srliw	a5,a5,5
 162 012e 8127     		sext.w	a5,a5
 163              		.loc 1 659 22
 164 0130 93960702 		slli	a3,a5,32
 165 0134 8192     		srli	a3,a3,32
 166 0136 8567     		li	a5,4096
 167 0138 93870786 		addi	a5,a5,-1952
 168 013c B697     		add	a5,a3,a5
 169 013e 8A07     		slli	a5,a5,2
 170 0140 BA97     		add	a5,a4,a5
 171 0142 9C43     		lw	a5,0(a5)
 172 0144 232EF4FC 		sw	a5,-36(s0)
 660:/home/vinay/Desktop/softconsole_watershed/Water-shed/src/platform/mpfs_hal/common/mss_plic.h ****             current |= (uint32_t)1 << (IRQn % 32U);
 173              		.loc 1 660 45
 174 0148 8327C4FC 		lw	a5,-52(s0)
 175 014c FD8B     		andi	a5,a5,31
 176 014e 8127     		sext.w	a5,a5
 177              		.loc 1 660 36
 178 0150 3E87     		mv	a4,a5
 179 0152 8547     		li	a5,1
 180 0154 BB97E700 		sllw	a5,a5,a4
 181 0158 1B870700 		sext.w	a4,a5
 182              		.loc 1 660 21
 183 015c 8327C4FD 		lw	a5,-36(s0)
 184 0160 D98F     		or	a5,a5,a4
 185 0162 232EF4FC 		sw	a5,-36(s0)
 661:/home/vinay/Desktop/softconsole_watershed/Water-shed/src/platform/mpfs_hal/common/mss_plic.h ****             PLIC->HART2_MMODE_ENA[IRQn / 32U]  = current;
 186              		.loc 1 661 17
 187 0166 3707000C 		li	a4,201326592
 188              		.loc 1 661 40
 189 016a 8327C4FC 		lw	a5,-52(s0)
 190 016e 9BD75700 		srliw	a5,a5,5
 191 0172 8127     		sext.w	a5,a5
 192              		.loc 1 661 48
 193 0174 93960702 		slli	a3,a5,32
 194 0178 8192     		srli	a3,a3,32
 195 017a 8567     		li	a5,4096
 196 017c 93870786 		addi	a5,a5,-1952
 197 0180 B697     		add	a5,a3,a5
 198 0182 8A07     		slli	a5,a5,2
 199 0184 BA97     		add	a5,a4,a5
 200 0186 0327C4FD 		lw	a4,-36(s0)
 201 018a 98C3     		sw	a4,0(a5)
 662:/home/vinay/Desktop/softconsole_watershed/Water-shed/src/platform/mpfs_hal/common/mss_plic.h ****             break;
 202              		.loc 1 662 13
 203 018c F1A8     		j	.L9
 204              	.L5:
 663:/home/vinay/Desktop/softconsole_watershed/Water-shed/src/platform/mpfs_hal/common/mss_plic.h ****         case 3:
 664:/home/vinay/Desktop/softconsole_watershed/Water-shed/src/platform/mpfs_hal/common/mss_plic.h ****             current  = PLIC->HART3_MMODE_ENA[IRQn / 32U];
 205              		.loc 1 664 28
 206 018e 3707000C 		li	a4,201326592
 207              		.loc 1 664 51
 208 0192 8327C4FC 		lw	a5,-52(s0)
 209 0196 9BD75700 		srliw	a5,a5,5
 210 019a 8127     		sext.w	a5,a5
 211              		.loc 1 664 22
 212 019c 93960702 		slli	a3,a5,32
 213 01a0 8192     		srli	a3,a3,32
 214 01a2 8567     		li	a5,4096
 215 01a4 9387078A 		addi	a5,a5,-1888
 216 01a8 B697     		add	a5,a3,a5
 217 01aa 8A07     		slli	a5,a5,2
 218 01ac BA97     		add	a5,a4,a5
 219 01ae 9C43     		lw	a5,0(a5)
 220 01b0 232EF4FC 		sw	a5,-36(s0)
 665:/home/vinay/Desktop/softconsole_watershed/Water-shed/src/platform/mpfs_hal/common/mss_plic.h ****             current |= (uint32_t)1 << (IRQn % 32U);
 221              		.loc 1 665 45
 222 01b4 8327C4FC 		lw	a5,-52(s0)
 223 01b8 FD8B     		andi	a5,a5,31
 224 01ba 8127     		sext.w	a5,a5
 225              		.loc 1 665 36
 226 01bc 3E87     		mv	a4,a5
 227 01be 8547     		li	a5,1
 228 01c0 BB97E700 		sllw	a5,a5,a4
 229 01c4 1B870700 		sext.w	a4,a5
 230              		.loc 1 665 21
 231 01c8 8327C4FD 		lw	a5,-36(s0)
 232 01cc D98F     		or	a5,a5,a4
 233 01ce 232EF4FC 		sw	a5,-36(s0)
 666:/home/vinay/Desktop/softconsole_watershed/Water-shed/src/platform/mpfs_hal/common/mss_plic.h ****             PLIC->HART3_MMODE_ENA[IRQn / 32U]  = current;
 234              		.loc 1 666 17
 235 01d2 3707000C 		li	a4,201326592
 236              		.loc 1 666 40
 237 01d6 8327C4FC 		lw	a5,-52(s0)
 238 01da 9BD75700 		srliw	a5,a5,5
 239 01de 8127     		sext.w	a5,a5
 240              		.loc 1 666 48
 241 01e0 93960702 		slli	a3,a5,32
 242 01e4 8192     		srli	a3,a3,32
 243 01e6 8567     		li	a5,4096
 244 01e8 9387078A 		addi	a5,a5,-1888
 245 01ec B697     		add	a5,a3,a5
 246 01ee 8A07     		slli	a5,a5,2
 247 01f0 BA97     		add	a5,a4,a5
 248 01f2 0327C4FD 		lw	a4,-36(s0)
 249 01f6 98C3     		sw	a4,0(a5)
 667:/home/vinay/Desktop/softconsole_watershed/Water-shed/src/platform/mpfs_hal/common/mss_plic.h ****             break;
 250              		.loc 1 667 13
 251 01f8 85A8     		j	.L9
 252              	.L3:
 668:/home/vinay/Desktop/softconsole_watershed/Water-shed/src/platform/mpfs_hal/common/mss_plic.h ****         case 4:
 669:/home/vinay/Desktop/softconsole_watershed/Water-shed/src/platform/mpfs_hal/common/mss_plic.h ****             current  = PLIC->HART4_MMODE_ENA[IRQn / 32U];
 253              		.loc 1 669 28
 254 01fa 3707000C 		li	a4,201326592
 255              		.loc 1 669 51
 256 01fe 8327C4FC 		lw	a5,-52(s0)
 257 0202 9BD75700 		srliw	a5,a5,5
 258 0206 8127     		sext.w	a5,a5
 259              		.loc 1 669 22
 260 0208 93960702 		slli	a3,a5,32
 261 020c 8192     		srli	a3,a3,32
 262 020e 8567     		li	a5,4096
 263 0210 9387078E 		addi	a5,a5,-1824
 264 0214 B697     		add	a5,a3,a5
 265 0216 8A07     		slli	a5,a5,2
 266 0218 BA97     		add	a5,a4,a5
 267 021a 9C43     		lw	a5,0(a5)
 268 021c 232EF4FC 		sw	a5,-36(s0)
 670:/home/vinay/Desktop/softconsole_watershed/Water-shed/src/platform/mpfs_hal/common/mss_plic.h ****             current |= (uint32_t)1 << (IRQn % 32U);
 269              		.loc 1 670 45
 270 0220 8327C4FC 		lw	a5,-52(s0)
 271 0224 FD8B     		andi	a5,a5,31
 272 0226 8127     		sext.w	a5,a5
 273              		.loc 1 670 36
 274 0228 3E87     		mv	a4,a5
 275 022a 8547     		li	a5,1
 276 022c BB97E700 		sllw	a5,a5,a4
 277 0230 1B870700 		sext.w	a4,a5
 278              		.loc 1 670 21
 279 0234 8327C4FD 		lw	a5,-36(s0)
 280 0238 D98F     		or	a5,a5,a4
 281 023a 232EF4FC 		sw	a5,-36(s0)
 671:/home/vinay/Desktop/softconsole_watershed/Water-shed/src/platform/mpfs_hal/common/mss_plic.h ****             PLIC->HART4_MMODE_ENA[IRQn / 32U]  = current;
 282              		.loc 1 671 17
 283 023e 3707000C 		li	a4,201326592
 284              		.loc 1 671 40
 285 0242 8327C4FC 		lw	a5,-52(s0)
 286 0246 9BD75700 		srliw	a5,a5,5
 287 024a 8127     		sext.w	a5,a5
 288              		.loc 1 671 48
 289 024c 93960702 		slli	a3,a5,32
 290 0250 8192     		srli	a3,a3,32
 291 0252 8567     		li	a5,4096
 292 0254 9387078E 		addi	a5,a5,-1824
 293 0258 B697     		add	a5,a3,a5
 294 025a 8A07     		slli	a5,a5,2
 295 025c BA97     		add	a5,a4,a5
 296 025e 0327C4FD 		lw	a4,-36(s0)
 297 0262 98C3     		sw	a4,0(a5)
 672:/home/vinay/Desktop/softconsole_watershed/Water-shed/src/platform/mpfs_hal/common/mss_plic.h ****             break;
 298              		.loc 1 672 13
 299 0264 11A0     		j	.L9
 300              	.L10:
 673:/home/vinay/Desktop/softconsole_watershed/Water-shed/src/platform/mpfs_hal/common/mss_plic.h ****         default:
 674:/home/vinay/Desktop/softconsole_watershed/Water-shed/src/platform/mpfs_hal/common/mss_plic.h ****             break;
 301              		.loc 1 674 13
 302 0266 0100     		nop
 303              	.L9:
 675:/home/vinay/Desktop/softconsole_watershed/Water-shed/src/platform/mpfs_hal/common/mss_plic.h ****     }
 676:/home/vinay/Desktop/softconsole_watershed/Water-shed/src/platform/mpfs_hal/common/mss_plic.h **** }
 304              		.loc 1 676 1
 305 0268 0100     		nop
 306 026a 6274     		ld	s0,56(sp)
 307              		.cfi_restore 8
 308              		.cfi_def_cfa 2, 64
 309 026c 2161     		addi	sp,sp,64
 310              		.cfi_def_cfa_offset 0
 311 026e 8280     		jr	ra
 312              		.cfi_endproc
 313              	.LFE7:
 315              		.section	.text.PLIC_DisableIRQ,"ax",@progbits
 316              		.align	1
 318              	PLIC_DisableIRQ:
 319              	.LFB8:
 677:/home/vinay/Desktop/softconsole_watershed/Water-shed/src/platform/mpfs_hal/common/mss_plic.h **** 
 678:/home/vinay/Desktop/softconsole_watershed/Water-shed/src/platform/mpfs_hal/common/mss_plic.h **** /***************************************************************************//**
 679:/home/vinay/Desktop/softconsole_watershed/Water-shed/src/platform/mpfs_hal/common/mss_plic.h ****  * The function PLIC_DisableIRQ() disables the external interrupt for the
 680:/home/vinay/Desktop/softconsole_watershed/Water-shed/src/platform/mpfs_hal/common/mss_plic.h ****  * interrupt number indicated by the parameter IRQn.
 681:/home/vinay/Desktop/softconsole_watershed/Water-shed/src/platform/mpfs_hal/common/mss_plic.h **** 
 682:/home/vinay/Desktop/softconsole_watershed/Water-shed/src/platform/mpfs_hal/common/mss_plic.h ****  * NOTE:
 683:/home/vinay/Desktop/softconsole_watershed/Water-shed/src/platform/mpfs_hal/common/mss_plic.h ****  *     This function can be used to disable the external interrupt from outside
 684:/home/vinay/Desktop/softconsole_watershed/Water-shed/src/platform/mpfs_hal/common/mss_plic.h ****  *     external interrupt handler function.
 685:/home/vinay/Desktop/softconsole_watershed/Water-shed/src/platform/mpfs_hal/common/mss_plic.h ****  *     This function MUST NOT be used from within the External Interrupt
 686:/home/vinay/Desktop/softconsole_watershed/Water-shed/src/platform/mpfs_hal/common/mss_plic.h ****  *     handler.
 687:/home/vinay/Desktop/softconsole_watershed/Water-shed/src/platform/mpfs_hal/common/mss_plic.h ****  *     If you wish to disable the external interrupt while the interrupt handler
 688:/home/vinay/Desktop/softconsole_watershed/Water-shed/src/platform/mpfs_hal/common/mss_plic.h ****  *     for that external interrupt is executing then you must use the return
 689:/home/vinay/Desktop/softconsole_watershed/Water-shed/src/platform/mpfs_hal/common/mss_plic.h ****  *     value EXT_IRQ_DISABLE to return from the extern interrupt handler.
 690:/home/vinay/Desktop/softconsole_watershed/Water-shed/src/platform/mpfs_hal/common/mss_plic.h ****  */
 691:/home/vinay/Desktop/softconsole_watershed/Water-shed/src/platform/mpfs_hal/common/mss_plic.h **** static inline void PLIC_DisableIRQ(PLIC_IRQn_Type IRQn)
 692:/home/vinay/Desktop/softconsole_watershed/Water-shed/src/platform/mpfs_hal/common/mss_plic.h **** {
 320              		.loc 1 692 1
 321              		.cfi_startproc
 322 0000 3971     		addi	sp,sp,-64
 323              		.cfi_def_cfa_offset 64
 324 0002 22FC     		sd	s0,56(sp)
 325              		.cfi_offset 8, -8
 326 0004 8000     		addi	s0,sp,64
 327              		.cfi_def_cfa 8, 0
 328 0006 AA87     		mv	a5,a0
 329 0008 2326F4FC 		sw	a5,-52(s0)
 330              	.LBB3:
 693:/home/vinay/Desktop/softconsole_watershed/Water-shed/src/platform/mpfs_hal/common/mss_plic.h ****     uint32_t current;
 694:/home/vinay/Desktop/softconsole_watershed/Water-shed/src/platform/mpfs_hal/common/mss_plic.h ****     uint64_t hart_id  = read_csr(mhartid);
 331              		.loc 1 694 25
 332              	 #APP
 333              	# 694 "/home/vinay/Desktop/softconsole_watershed/Water-shed/src/platform/mpfs_hal/common/mss_plic.h
 695              	
 334              		csrr a5, mhartid
 335              	# 0 "" 2
 336              	 #NO_APP
 337 0010 2334F4FE 		sd	a5,-24(s0)
 338 0014 833784FE 		ld	a5,-24(s0)
 339              	.LBE3:
 694:/home/vinay/Desktop/softconsole_watershed/Water-shed/src/platform/mpfs_hal/common/mss_plic.h ****     uint64_t hart_id  = read_csr(mhartid);
 340              		.loc 1 694 14
 341 0018 2330F4FE 		sd	a5,-32(s0)
 696:/home/vinay/Desktop/softconsole_watershed/Water-shed/src/platform/mpfs_hal/common/mss_plic.h ****     switch(hart_id)
 342              		.loc 1 696 5
 343 001c 033704FE 		ld	a4,-32(s0)
 344 0020 9147     		li	a5,4
 345 0022 63E1E726 		bgtu	a4,a5,.L20
 346 0026 833704FE 		ld	a5,-32(s0)
 347 002a 13972700 		slli	a4,a5,2
 348 002e 97070000 		lla	a5,.L14
 348      93870700 
 349 0036 BA97     		add	a5,a4,a5
 350 0038 9C43     		lw	a5,0(a5)
 351 003a 1B870700 		sext.w	a4,a5
 352 003e 97070000 		lla	a5,.L14
 352      93870700 
 353 0046 BA97     		add	a5,a4,a5
 354 0048 8287     		jr	a5
 355              		.section	.rodata.PLIC_DisableIRQ,"a",@progbits
 356              		.align	2
 357              		.align	2
 358              	.L14:
 359 0000 00000000 		.word	.L18-.L14
 360 0004 00000000 		.word	.L17-.L14
 361 0008 00000000 		.word	.L16-.L14
 362 000c 00000000 		.word	.L15-.L14
 363 0010 00000000 		.word	.L13-.L14
 364              		.section	.text.PLIC_DisableIRQ
 365              	.L18:
 697:/home/vinay/Desktop/softconsole_watershed/Water-shed/src/platform/mpfs_hal/common/mss_plic.h ****     {
 698:/home/vinay/Desktop/softconsole_watershed/Water-shed/src/platform/mpfs_hal/common/mss_plic.h ****         case 0:
 699:/home/vinay/Desktop/softconsole_watershed/Water-shed/src/platform/mpfs_hal/common/mss_plic.h ****             current = PLIC->HART0_MMODE_ENA[IRQn / 32U];
 366              		.loc 1 699 27
 367 004a 3707000C 		li	a4,201326592
 368              		.loc 1 699 50
 369 004e 8327C4FC 		lw	a5,-52(s0)
 370 0052 9BD75700 		srliw	a5,a5,5
 371 0056 8127     		sext.w	a5,a5
 372              		.loc 1 699 21
 373 0058 93960702 		slli	a3,a5,32
 374 005c 8192     		srli	a3,a3,32
 375 005e 8567     		li	a5,4096
 376 0060 93870780 		addi	a5,a5,-2048
 377 0064 B697     		add	a5,a3,a5
 378 0066 8A07     		slli	a5,a5,2
 379 0068 BA97     		add	a5,a4,a5
 380 006a 9C43     		lw	a5,0(a5)
 381 006c 232EF4FC 		sw	a5,-36(s0)
 700:/home/vinay/Desktop/softconsole_watershed/Water-shed/src/platform/mpfs_hal/common/mss_plic.h ****             current &= ~((uint32_t)1 << (IRQn % 32U));
 382              		.loc 1 700 47
 383 0070 8327C4FC 		lw	a5,-52(s0)
 384 0074 FD8B     		andi	a5,a5,31
 385 0076 8127     		sext.w	a5,a5
 386              		.loc 1 700 38
 387 0078 3E87     		mv	a4,a5
 388 007a 8547     		li	a5,1
 389 007c BB97E700 		sllw	a5,a5,a4
 390 0080 8127     		sext.w	a5,a5
 391              		.loc 1 700 24
 392 0082 93C7F7FF 		not	a5,a5
 393 0086 1B870700 		sext.w	a4,a5
 394              		.loc 1 700 21
 395 008a 8327C4FD 		lw	a5,-36(s0)
 396 008e F98F     		and	a5,a5,a4
 397 0090 232EF4FC 		sw	a5,-36(s0)
 701:/home/vinay/Desktop/softconsole_watershed/Water-shed/src/platform/mpfs_hal/common/mss_plic.h ****             PLIC->HART0_MMODE_ENA[IRQn / 32U] = current;
 398              		.loc 1 701 17
 399 0094 3707000C 		li	a4,201326592
 400              		.loc 1 701 40
 401 0098 8327C4FC 		lw	a5,-52(s0)
 402 009c 9BD75700 		srliw	a5,a5,5
 403 00a0 8127     		sext.w	a5,a5
 404              		.loc 1 701 47
 405 00a2 93960702 		slli	a3,a5,32
 406 00a6 8192     		srli	a3,a3,32
 407 00a8 8567     		li	a5,4096
 408 00aa 93870780 		addi	a5,a5,-2048
 409 00ae B697     		add	a5,a3,a5
 410 00b0 8A07     		slli	a5,a5,2
 411 00b2 BA97     		add	a5,a4,a5
 412 00b4 0327C4FD 		lw	a4,-36(s0)
 413 00b8 98C3     		sw	a4,0(a5)
 702:/home/vinay/Desktop/softconsole_watershed/Water-shed/src/platform/mpfs_hal/common/mss_plic.h ****             break;
 414              		.loc 1 702 13
 415 00ba F1A2     		j	.L19
 416              	.L17:
 703:/home/vinay/Desktop/softconsole_watershed/Water-shed/src/platform/mpfs_hal/common/mss_plic.h ****         case 1:
 704:/home/vinay/Desktop/softconsole_watershed/Water-shed/src/platform/mpfs_hal/common/mss_plic.h ****             current = PLIC->HART1_MMODE_ENA[IRQn / 32U];
 417              		.loc 1 704 27
 418 00bc 3707000C 		li	a4,201326592
 419              		.loc 1 704 50
 420 00c0 8327C4FC 		lw	a5,-52(s0)
 421 00c4 9BD75700 		srliw	a5,a5,5
 422 00c8 8127     		sext.w	a5,a5
 423              		.loc 1 704 21
 424 00ca 93960702 		slli	a3,a5,32
 425 00ce 8192     		srli	a3,a3,32
 426 00d0 8567     		li	a5,4096
 427 00d2 93870782 		addi	a5,a5,-2016
 428 00d6 B697     		add	a5,a3,a5
 429 00d8 8A07     		slli	a5,a5,2
 430 00da BA97     		add	a5,a4,a5
 431 00dc 9C43     		lw	a5,0(a5)
 432 00de 232EF4FC 		sw	a5,-36(s0)
 705:/home/vinay/Desktop/softconsole_watershed/Water-shed/src/platform/mpfs_hal/common/mss_plic.h ****             current &= ~((uint32_t)1 << (IRQn % 32U));
 433              		.loc 1 705 47
 434 00e2 8327C4FC 		lw	a5,-52(s0)
 435 00e6 FD8B     		andi	a5,a5,31
 436 00e8 8127     		sext.w	a5,a5
 437              		.loc 1 705 38
 438 00ea 3E87     		mv	a4,a5
 439 00ec 8547     		li	a5,1
 440 00ee BB97E700 		sllw	a5,a5,a4
 441 00f2 8127     		sext.w	a5,a5
 442              		.loc 1 705 24
 443 00f4 93C7F7FF 		not	a5,a5
 444 00f8 1B870700 		sext.w	a4,a5
 445              		.loc 1 705 21
 446 00fc 8327C4FD 		lw	a5,-36(s0)
 447 0100 F98F     		and	a5,a5,a4
 448 0102 232EF4FC 		sw	a5,-36(s0)
 706:/home/vinay/Desktop/softconsole_watershed/Water-shed/src/platform/mpfs_hal/common/mss_plic.h ****             PLIC->HART1_MMODE_ENA[IRQn / 32U] = current;
 449              		.loc 1 706 17
 450 0106 3707000C 		li	a4,201326592
 451              		.loc 1 706 40
 452 010a 8327C4FC 		lw	a5,-52(s0)
 453 010e 9BD75700 		srliw	a5,a5,5
 454 0112 8127     		sext.w	a5,a5
 455              		.loc 1 706 47
 456 0114 93960702 		slli	a3,a5,32
 457 0118 8192     		srli	a3,a3,32
 458 011a 8567     		li	a5,4096
 459 011c 93870782 		addi	a5,a5,-2016
 460 0120 B697     		add	a5,a3,a5
 461 0122 8A07     		slli	a5,a5,2
 462 0124 BA97     		add	a5,a4,a5
 463 0126 0327C4FD 		lw	a4,-36(s0)
 464 012a 98C3     		sw	a4,0(a5)
 707:/home/vinay/Desktop/softconsole_watershed/Water-shed/src/platform/mpfs_hal/common/mss_plic.h ****             break;
 465              		.loc 1 707 13
 466 012c A9AA     		j	.L19
 467              	.L16:
 708:/home/vinay/Desktop/softconsole_watershed/Water-shed/src/platform/mpfs_hal/common/mss_plic.h ****         case 2:
 709:/home/vinay/Desktop/softconsole_watershed/Water-shed/src/platform/mpfs_hal/common/mss_plic.h ****             current = PLIC->HART2_MMODE_ENA[IRQn / 32U];
 468              		.loc 1 709 27
 469 012e 3707000C 		li	a4,201326592
 470              		.loc 1 709 50
 471 0132 8327C4FC 		lw	a5,-52(s0)
 472 0136 9BD75700 		srliw	a5,a5,5
 473 013a 8127     		sext.w	a5,a5
 474              		.loc 1 709 21
 475 013c 93960702 		slli	a3,a5,32
 476 0140 8192     		srli	a3,a3,32
 477 0142 8567     		li	a5,4096
 478 0144 93870786 		addi	a5,a5,-1952
 479 0148 B697     		add	a5,a3,a5
 480 014a 8A07     		slli	a5,a5,2
 481 014c BA97     		add	a5,a4,a5
 482 014e 9C43     		lw	a5,0(a5)
 483 0150 232EF4FC 		sw	a5,-36(s0)
 710:/home/vinay/Desktop/softconsole_watershed/Water-shed/src/platform/mpfs_hal/common/mss_plic.h ****             current &= ~((uint32_t)1 << (IRQn % 32U));
 484              		.loc 1 710 47
 485 0154 8327C4FC 		lw	a5,-52(s0)
 486 0158 FD8B     		andi	a5,a5,31
 487 015a 8127     		sext.w	a5,a5
 488              		.loc 1 710 38
 489 015c 3E87     		mv	a4,a5
 490 015e 8547     		li	a5,1
 491 0160 BB97E700 		sllw	a5,a5,a4
 492 0164 8127     		sext.w	a5,a5
 493              		.loc 1 710 24
 494 0166 93C7F7FF 		not	a5,a5
 495 016a 1B870700 		sext.w	a4,a5
 496              		.loc 1 710 21
 497 016e 8327C4FD 		lw	a5,-36(s0)
 498 0172 F98F     		and	a5,a5,a4
 499 0174 232EF4FC 		sw	a5,-36(s0)
 711:/home/vinay/Desktop/softconsole_watershed/Water-shed/src/platform/mpfs_hal/common/mss_plic.h ****             PLIC->HART2_MMODE_ENA[IRQn / 32U] = current;
 500              		.loc 1 711 17
 501 0178 3707000C 		li	a4,201326592
 502              		.loc 1 711 40
 503 017c 8327C4FC 		lw	a5,-52(s0)
 504 0180 9BD75700 		srliw	a5,a5,5
 505 0184 8127     		sext.w	a5,a5
 506              		.loc 1 711 47
 507 0186 93960702 		slli	a3,a5,32
 508 018a 8192     		srli	a3,a3,32
 509 018c 8567     		li	a5,4096
 510 018e 93870786 		addi	a5,a5,-1952
 511 0192 B697     		add	a5,a3,a5
 512 0194 8A07     		slli	a5,a5,2
 513 0196 BA97     		add	a5,a4,a5
 514 0198 0327C4FD 		lw	a4,-36(s0)
 515 019c 98C3     		sw	a4,0(a5)
 712:/home/vinay/Desktop/softconsole_watershed/Water-shed/src/platform/mpfs_hal/common/mss_plic.h ****             break;
 516              		.loc 1 712 13
 517 019e E5A0     		j	.L19
 518              	.L15:
 713:/home/vinay/Desktop/softconsole_watershed/Water-shed/src/platform/mpfs_hal/common/mss_plic.h ****         case 3:
 714:/home/vinay/Desktop/softconsole_watershed/Water-shed/src/platform/mpfs_hal/common/mss_plic.h ****             current = PLIC->HART3_MMODE_ENA[IRQn / 32U];
 519              		.loc 1 714 27
 520 01a0 3707000C 		li	a4,201326592
 521              		.loc 1 714 50
 522 01a4 8327C4FC 		lw	a5,-52(s0)
 523 01a8 9BD75700 		srliw	a5,a5,5
 524 01ac 8127     		sext.w	a5,a5
 525              		.loc 1 714 21
 526 01ae 93960702 		slli	a3,a5,32
 527 01b2 8192     		srli	a3,a3,32
 528 01b4 8567     		li	a5,4096
 529 01b6 9387078A 		addi	a5,a5,-1888
 530 01ba B697     		add	a5,a3,a5
 531 01bc 8A07     		slli	a5,a5,2
 532 01be BA97     		add	a5,a4,a5
 533 01c0 9C43     		lw	a5,0(a5)
 534 01c2 232EF4FC 		sw	a5,-36(s0)
 715:/home/vinay/Desktop/softconsole_watershed/Water-shed/src/platform/mpfs_hal/common/mss_plic.h ****             current &= ~((uint32_t)1 << (IRQn % 32U));
 535              		.loc 1 715 47
 536 01c6 8327C4FC 		lw	a5,-52(s0)
 537 01ca FD8B     		andi	a5,a5,31
 538 01cc 8127     		sext.w	a5,a5
 539              		.loc 1 715 38
 540 01ce 3E87     		mv	a4,a5
 541 01d0 8547     		li	a5,1
 542 01d2 BB97E700 		sllw	a5,a5,a4
 543 01d6 8127     		sext.w	a5,a5
 544              		.loc 1 715 24
 545 01d8 93C7F7FF 		not	a5,a5
 546 01dc 1B870700 		sext.w	a4,a5
 547              		.loc 1 715 21
 548 01e0 8327C4FD 		lw	a5,-36(s0)
 549 01e4 F98F     		and	a5,a5,a4
 550 01e6 232EF4FC 		sw	a5,-36(s0)
 716:/home/vinay/Desktop/softconsole_watershed/Water-shed/src/platform/mpfs_hal/common/mss_plic.h ****             PLIC->HART3_MMODE_ENA[IRQn / 32U] = current;
 551              		.loc 1 716 17
 552 01ea 3707000C 		li	a4,201326592
 553              		.loc 1 716 40
 554 01ee 8327C4FC 		lw	a5,-52(s0)
 555 01f2 9BD75700 		srliw	a5,a5,5
 556 01f6 8127     		sext.w	a5,a5
 557              		.loc 1 716 47
 558 01f8 93960702 		slli	a3,a5,32
 559 01fc 8192     		srli	a3,a3,32
 560 01fe 8567     		li	a5,4096
 561 0200 9387078A 		addi	a5,a5,-1888
 562 0204 B697     		add	a5,a3,a5
 563 0206 8A07     		slli	a5,a5,2
 564 0208 BA97     		add	a5,a4,a5
 565 020a 0327C4FD 		lw	a4,-36(s0)
 566 020e 98C3     		sw	a4,0(a5)
 717:/home/vinay/Desktop/softconsole_watershed/Water-shed/src/platform/mpfs_hal/common/mss_plic.h ****             break;
 567              		.loc 1 717 13
 568 0210 9DA8     		j	.L19
 569              	.L13:
 718:/home/vinay/Desktop/softconsole_watershed/Water-shed/src/platform/mpfs_hal/common/mss_plic.h ****         case 4:
 719:/home/vinay/Desktop/softconsole_watershed/Water-shed/src/platform/mpfs_hal/common/mss_plic.h ****             current = PLIC->HART4_MMODE_ENA[IRQn / 32U];
 570              		.loc 1 719 27
 571 0212 3707000C 		li	a4,201326592
 572              		.loc 1 719 50
 573 0216 8327C4FC 		lw	a5,-52(s0)
 574 021a 9BD75700 		srliw	a5,a5,5
 575 021e 8127     		sext.w	a5,a5
 576              		.loc 1 719 21
 577 0220 93960702 		slli	a3,a5,32
 578 0224 8192     		srli	a3,a3,32
 579 0226 8567     		li	a5,4096
 580 0228 9387078E 		addi	a5,a5,-1824
 581 022c B697     		add	a5,a3,a5
 582 022e 8A07     		slli	a5,a5,2
 583 0230 BA97     		add	a5,a4,a5
 584 0232 9C43     		lw	a5,0(a5)
 585 0234 232EF4FC 		sw	a5,-36(s0)
 720:/home/vinay/Desktop/softconsole_watershed/Water-shed/src/platform/mpfs_hal/common/mss_plic.h ****             current &= ~((uint32_t)1 << (IRQn % 32U));
 586              		.loc 1 720 47
 587 0238 8327C4FC 		lw	a5,-52(s0)
 588 023c FD8B     		andi	a5,a5,31
 589 023e 8127     		sext.w	a5,a5
 590              		.loc 1 720 38
 591 0240 3E87     		mv	a4,a5
 592 0242 8547     		li	a5,1
 593 0244 BB97E700 		sllw	a5,a5,a4
 594 0248 8127     		sext.w	a5,a5
 595              		.loc 1 720 24
 596 024a 93C7F7FF 		not	a5,a5
 597 024e 1B870700 		sext.w	a4,a5
 598              		.loc 1 720 21
 599 0252 8327C4FD 		lw	a5,-36(s0)
 600 0256 F98F     		and	a5,a5,a4
 601 0258 232EF4FC 		sw	a5,-36(s0)
 721:/home/vinay/Desktop/softconsole_watershed/Water-shed/src/platform/mpfs_hal/common/mss_plic.h ****             PLIC->HART4_MMODE_ENA[IRQn / 32U] = current;
 602              		.loc 1 721 17
 603 025c 3707000C 		li	a4,201326592
 604              		.loc 1 721 40
 605 0260 8327C4FC 		lw	a5,-52(s0)
 606 0264 9BD75700 		srliw	a5,a5,5
 607 0268 8127     		sext.w	a5,a5
 608              		.loc 1 721 47
 609 026a 93960702 		slli	a3,a5,32
 610 026e 8192     		srli	a3,a3,32
 611 0270 8567     		li	a5,4096
 612 0272 9387078E 		addi	a5,a5,-1824
 613 0276 B697     		add	a5,a3,a5
 614 0278 8A07     		slli	a5,a5,2
 615 027a BA97     		add	a5,a4,a5
 616 027c 0327C4FD 		lw	a4,-36(s0)
 617 0280 98C3     		sw	a4,0(a5)
 722:/home/vinay/Desktop/softconsole_watershed/Water-shed/src/platform/mpfs_hal/common/mss_plic.h ****             break;
 618              		.loc 1 722 13
 619 0282 11A0     		j	.L19
 620              	.L20:
 723:/home/vinay/Desktop/softconsole_watershed/Water-shed/src/platform/mpfs_hal/common/mss_plic.h ****         default:
 724:/home/vinay/Desktop/softconsole_watershed/Water-shed/src/platform/mpfs_hal/common/mss_plic.h ****             break;
 621              		.loc 1 724 13
 622 0284 0100     		nop
 623              	.L19:
 725:/home/vinay/Desktop/softconsole_watershed/Water-shed/src/platform/mpfs_hal/common/mss_plic.h ****     }
 726:/home/vinay/Desktop/softconsole_watershed/Water-shed/src/platform/mpfs_hal/common/mss_plic.h **** }
 624              		.loc 1 726 1
 625 0286 0100     		nop
 626 0288 6274     		ld	s0,56(sp)
 627              		.cfi_restore 8
 628              		.cfi_def_cfa 2, 64
 629 028a 2161     		addi	sp,sp,64
 630              		.cfi_def_cfa_offset 0
 631 028c 8280     		jr	ra
 632              		.cfi_endproc
 633              	.LFE8:
 635              		.section	.rodata.g_gpio_irqn_lut,"a"
 636              		.align	3
 639              	g_gpio_irqn_lut:
 640 0000 0D000000 		.word	13
 641 0004 0E000000 		.word	14
 642 0008 0F000000 		.word	15
 643 000c 10000000 		.word	16
 644 0010 11000000 		.word	17
 645 0014 12000000 		.word	18
 646 0018 13000000 		.word	19
 647 001c 14000000 		.word	20
 648 0020 15000000 		.word	21
 649 0024 16000000 		.word	22
 650 0028 17000000 		.word	23
 651 002c 18000000 		.word	24
 652 0030 19000000 		.word	25
 653 0034 1A000000 		.word	26
 654 0038 1B000000 		.word	27
 655 003c 1C000000 		.word	28
 656 0040 1D000000 		.word	29
 657 0044 1E000000 		.word	30
 658 0048 1F000000 		.word	31
 659 004c 20000000 		.word	32
 660 0050 21000000 		.word	33
 661 0054 22000000 		.word	34
 662 0058 23000000 		.word	35
 663 005c 24000000 		.word	36
 664 0060 25000000 		.word	37
 665 0064 26000000 		.word	38
 666 0068 27000000 		.word	39
 667 006c 28000000 		.word	40
 668 0070 29000000 		.word	41
 669 0074 2A000000 		.word	42
 670 0078 2B000000 		.word	43
 671 007c 2C000000 		.word	44
 672 0080 2D000000 		.word	45
 673 0084 2E000000 		.word	46
 674 0088 2F000000 		.word	47
 675 008c 30000000 		.word	48
 676 0090 31000000 		.word	49
 677 0094 32000000 		.word	50
 678 0098 33000000 		.word	51
 679 009c 34000000 		.word	52
 680 00a0 35000000 		.word	53
 681              		.section	.text.MSS_GPIO_init,"ax",@progbits
 682              		.align	1
 683              		.globl	MSS_GPIO_init
 685              	MSS_GPIO_init:
 686              	.LFB23:
 687              		.file 2 "../src/platform/drivers/mss/mss_gpio/mss_gpio.c"
   1:../src/platform/drivers/mss/mss_gpio/mss_gpio.c **** /*******************************************************************************
   2:../src/platform/drivers/mss/mss_gpio/mss_gpio.c ****  * Copyright 2019-2020 Microchip FPGA Embedded Systems Solutions.
   3:../src/platform/drivers/mss/mss_gpio/mss_gpio.c ****  *
   4:../src/platform/drivers/mss/mss_gpio/mss_gpio.c ****  * SPDX-License-Identifier: MIT
   5:../src/platform/drivers/mss/mss_gpio/mss_gpio.c ****  * 
   6:../src/platform/drivers/mss/mss_gpio/mss_gpio.c ****  * PolarFire SoC microprocessor subsystem GPIO bare metal driver implementation.
   7:../src/platform/drivers/mss/mss_gpio/mss_gpio.c ****  *
   8:../src/platform/drivers/mss/mss_gpio/mss_gpio.c ****  * This driver is based on SmartFusion2 MSS GPIO driver v2.1.102
   9:../src/platform/drivers/mss/mss_gpio/mss_gpio.c ****  *
  10:../src/platform/drivers/mss/mss_gpio/mss_gpio.c ****  */
  11:../src/platform/drivers/mss/mss_gpio/mss_gpio.c **** 
  12:../src/platform/drivers/mss/mss_gpio/mss_gpio.c **** #include "mpfs_hal/mss_hal.h"
  13:../src/platform/drivers/mss/mss_gpio/mss_gpio.c **** #include "mss_gpio.h"
  14:../src/platform/drivers/mss/mss_gpio/mss_gpio.c **** 
  15:../src/platform/drivers/mss/mss_gpio/mss_gpio.c **** #ifdef __cplusplus
  16:../src/platform/drivers/mss/mss_gpio/mss_gpio.c **** extern "C" {
  17:../src/platform/drivers/mss/mss_gpio/mss_gpio.c **** #endif 
  18:../src/platform/drivers/mss/mss_gpio/mss_gpio.c **** 
  19:../src/platform/drivers/mss/mss_gpio/mss_gpio.c **** /*-------------------------------------------------------------------------*//**
  20:../src/platform/drivers/mss/mss_gpio/mss_gpio.c ****  * Defines.
  21:../src/platform/drivers/mss/mss_gpio/mss_gpio.c ****  */
  22:../src/platform/drivers/mss/mss_gpio/mss_gpio.c **** #define GPIO_INT_ENABLE_MASK                ((uint32_t)0x00000008)
  23:../src/platform/drivers/mss/mss_gpio/mss_gpio.c **** #define OUTPUT_BUFFER_ENABLE_MASK           ((uint32_t)0x00000004)
  24:../src/platform/drivers/mss/mss_gpio/mss_gpio.c **** 
  25:../src/platform/drivers/mss/mss_gpio/mss_gpio.c **** /*These constants define the number of GPIO bits available on each GPIO
  26:../src/platform/drivers/mss/mss_gpio/mss_gpio.c ****  * hardware block*/
  27:../src/platform/drivers/mss/mss_gpio/mss_gpio.c **** #define NB_OF_GPIO_GPIO0                    ((uint32_t)14)
  28:../src/platform/drivers/mss/mss_gpio/mss_gpio.c **** #define NB_OF_GPIO_GPIO1                    ((uint32_t)24)
  29:../src/platform/drivers/mss/mss_gpio/mss_gpio.c **** #define NB_OF_GPIO_GPIO2                    ((uint32_t)32)
  30:../src/platform/drivers/mss/mss_gpio/mss_gpio.c **** 
  31:../src/platform/drivers/mss/mss_gpio/mss_gpio.c **** /*This constant indicates the total number of GPIO interrupt inputs at the PLIC
  32:../src/platform/drivers/mss/mss_gpio/mss_gpio.c ****  * (includes the direct and non-direct GPIO interrupts)*/
  33:../src/platform/drivers/mss/mss_gpio/mss_gpio.c **** #define NB_OF_GPIO_INTR                     ((uint32_t)41)
  34:../src/platform/drivers/mss/mss_gpio/mss_gpio.c **** 
  35:../src/platform/drivers/mss/mss_gpio/mss_gpio.c **** /*-------------------------------------------------------------------------*//**
  36:../src/platform/drivers/mss/mss_gpio/mss_gpio.c ****  * Lookup table of GPIO interrupt number indexed on GPIO ID.
  37:../src/platform/drivers/mss/mss_gpio/mss_gpio.c ****  * The GPIO interrupts are multiplexed. Total GPIO interrupts are 41.
  38:../src/platform/drivers/mss/mss_gpio/mss_gpio.c ****  * 41 = (14 from GPIO0 + 24 from GPIO1 + 3 non direct interrupts)
  39:../src/platform/drivers/mss/mss_gpio/mss_gpio.c ****  * GPIO2 interrupts are not available by default. Setting the corresponding bit
  40:../src/platform/drivers/mss/mss_gpio/mss_gpio.c ****  * in GPIO_INTERRUPT_FAB_CR(31:0) will enable GPIO2(31:0) corresponding
  41:../src/platform/drivers/mss/mss_gpio/mss_gpio.c ****  * interrupt on PLIC.
  42:../src/platform/drivers/mss/mss_gpio/mss_gpio.c ****  *
  43:../src/platform/drivers/mss/mss_gpio/mss_gpio.c ****  * PLIC       GPIO_INTERRUPT_FAB_CR
  44:../src/platform/drivers/mss/mss_gpio/mss_gpio.c ****                 0               1
  45:../src/platform/drivers/mss/mss_gpio/mss_gpio.c ****     0       GPIO0 bit 0     GPIO2 bit 0
  46:../src/platform/drivers/mss/mss_gpio/mss_gpio.c ****     1       GPIO0 bit 1     GPIO2 bit 1
  47:../src/platform/drivers/mss/mss_gpio/mss_gpio.c ****     .
  48:../src/platform/drivers/mss/mss_gpio/mss_gpio.c ****     .
  49:../src/platform/drivers/mss/mss_gpio/mss_gpio.c ****     12      GPIO0 bit 12    GPIO2 bit 12
  50:../src/platform/drivers/mss/mss_gpio/mss_gpio.c ****     13      GPIO0 bit 13    GPIO2 bit 13
  51:../src/platform/drivers/mss/mss_gpio/mss_gpio.c ****     14      GPIO1 bit 0     GPIO2 bit 14
  52:../src/platform/drivers/mss/mss_gpio/mss_gpio.c ****     15      GPIO1 bit 1     GPIO2 bit 15
  53:../src/platform/drivers/mss/mss_gpio/mss_gpio.c ****     .
  54:../src/platform/drivers/mss/mss_gpio/mss_gpio.c ****     .
  55:../src/platform/drivers/mss/mss_gpio/mss_gpio.c ****     .
  56:../src/platform/drivers/mss/mss_gpio/mss_gpio.c ****     30      GPIO1 bit 16    GPIO2 bit 30
  57:../src/platform/drivers/mss/mss_gpio/mss_gpio.c ****     31      GPIO1 bit 17    GPIO2 bit 31
  58:../src/platform/drivers/mss/mss_gpio/mss_gpio.c ****     32          GPIO1 bit 18
  59:../src/platform/drivers/mss/mss_gpio/mss_gpio.c ****     33          GPIO1 bit 19
  60:../src/platform/drivers/mss/mss_gpio/mss_gpio.c ****     34          GPIO1 bit 20
  61:../src/platform/drivers/mss/mss_gpio/mss_gpio.c ****     35          GPIO1 bit 21
  62:../src/platform/drivers/mss/mss_gpio/mss_gpio.c ****     36          GPIO1 bit 22
  63:../src/platform/drivers/mss/mss_gpio/mss_gpio.c ****     37          GPIO1 bit 23
  64:../src/platform/drivers/mss/mss_gpio/mss_gpio.c ****     38  Or of all GPIO0 interrupts who do not have a direct connection enabled
  65:../src/platform/drivers/mss/mss_gpio/mss_gpio.c ****     39  Or of all GPIO1 interrupts who do not have a direct connection enabled
  66:../src/platform/drivers/mss/mss_gpio/mss_gpio.c ****     40  Or of all GPIO2 interrupts who do not have a direct connection enabled
  67:../src/platform/drivers/mss/mss_gpio/mss_gpio.c ****  *
  68:../src/platform/drivers/mss/mss_gpio/mss_gpio.c ****  */
  69:../src/platform/drivers/mss/mss_gpio/mss_gpio.c **** static const PLIC_IRQn_Type g_gpio_irqn_lut[NB_OF_GPIO_INTR] =
  70:../src/platform/drivers/mss/mss_gpio/mss_gpio.c **** {
  71:../src/platform/drivers/mss/mss_gpio/mss_gpio.c ****     GPIO0_BIT0_or_GPIO2_BIT0_PLIC_0,
  72:../src/platform/drivers/mss/mss_gpio/mss_gpio.c ****     GPIO0_BIT1_or_GPIO2_BIT1_PLIC_1,
  73:../src/platform/drivers/mss/mss_gpio/mss_gpio.c ****     GPIO0_BIT2_or_GPIO2_BIT2_PLIC_2,
  74:../src/platform/drivers/mss/mss_gpio/mss_gpio.c ****     GPIO0_BIT3_or_GPIO2_BIT3_PLIC_3,
  75:../src/platform/drivers/mss/mss_gpio/mss_gpio.c ****     GPIO0_BIT4_or_GPIO2_BIT4_PLIC_4,
  76:../src/platform/drivers/mss/mss_gpio/mss_gpio.c ****     GPIO0_BIT5_or_GPIO2_BIT5_PLIC_5,
  77:../src/platform/drivers/mss/mss_gpio/mss_gpio.c ****     GPIO0_BIT6_or_GPIO2_BIT6_PLIC_6,
  78:../src/platform/drivers/mss/mss_gpio/mss_gpio.c ****     GPIO0_BIT7_or_GPIO2_BIT7_PLIC_7,
  79:../src/platform/drivers/mss/mss_gpio/mss_gpio.c ****     GPIO0_BIT8_or_GPIO2_BIT8_PLIC_8,
  80:../src/platform/drivers/mss/mss_gpio/mss_gpio.c ****     GPIO0_BIT9_or_GPIO2_BIT9_PLIC_9,
  81:../src/platform/drivers/mss/mss_gpio/mss_gpio.c ****     GPIO0_BIT10_or_GPIO2_BIT10_PLIC_10,
  82:../src/platform/drivers/mss/mss_gpio/mss_gpio.c ****     GPIO0_BIT11_or_GPIO2_BIT11_PLIC_11,
  83:../src/platform/drivers/mss/mss_gpio/mss_gpio.c ****     GPIO0_BIT12_or_GPIO2_BIT12_PLIC_12,
  84:../src/platform/drivers/mss/mss_gpio/mss_gpio.c ****     GPIO0_BIT13_or_GPIO2_BIT13_PLIC_13,
  85:../src/platform/drivers/mss/mss_gpio/mss_gpio.c **** 
  86:../src/platform/drivers/mss/mss_gpio/mss_gpio.c ****     GPIO1_BIT0_or_GPIO2_BIT14_PLIC_14,
  87:../src/platform/drivers/mss/mss_gpio/mss_gpio.c ****     GPIO1_BIT1_or_GPIO2_BIT15_PLIC_15,
  88:../src/platform/drivers/mss/mss_gpio/mss_gpio.c ****     GPIO1_BIT2_or_GPIO2_BIT16_PLIC_16,
  89:../src/platform/drivers/mss/mss_gpio/mss_gpio.c ****     GPIO1_BIT3_or_GPIO2_BIT17_PLIC_17,
  90:../src/platform/drivers/mss/mss_gpio/mss_gpio.c ****     GPIO1_BIT4_or_GPIO2_BIT18_PLIC_18,
  91:../src/platform/drivers/mss/mss_gpio/mss_gpio.c ****     GPIO1_BIT5_or_GPIO2_BIT19_PLIC_19,
  92:../src/platform/drivers/mss/mss_gpio/mss_gpio.c ****     GPIO1_BIT6_or_GPIO2_BIT20_PLIC_20,
  93:../src/platform/drivers/mss/mss_gpio/mss_gpio.c ****     GPIO1_BIT7_or_GPIO2_BIT21_PLIC_21,
  94:../src/platform/drivers/mss/mss_gpio/mss_gpio.c ****     GPIO1_BIT8_or_GPIO2_BIT22_PLIC_22,
  95:../src/platform/drivers/mss/mss_gpio/mss_gpio.c ****     GPIO1_BIT9_or_GPIO2_BIT23_PLIC_23,
  96:../src/platform/drivers/mss/mss_gpio/mss_gpio.c ****     GPIO1_BIT10_or_GPIO2_BIT24_PLIC_24,
  97:../src/platform/drivers/mss/mss_gpio/mss_gpio.c ****     GPIO1_BIT11_or_GPIO2_BIT25_PLIC_25,
  98:../src/platform/drivers/mss/mss_gpio/mss_gpio.c ****     GPIO1_BIT12_or_GPIO2_BIT26_PLIC_26,
  99:../src/platform/drivers/mss/mss_gpio/mss_gpio.c ****     GPIO1_BIT13_or_GPIO2_BIT27_PLIC_27,
 100:../src/platform/drivers/mss/mss_gpio/mss_gpio.c ****     GPIO1_BIT14_or_GPIO2_BIT28_PLIC_28,
 101:../src/platform/drivers/mss/mss_gpio/mss_gpio.c ****     GPIO1_BIT15_or_GPIO2_BIT29_PLIC_29,
 102:../src/platform/drivers/mss/mss_gpio/mss_gpio.c ****     GPIO1_BIT16_or_GPIO2_BIT30_PLIC_30,
 103:../src/platform/drivers/mss/mss_gpio/mss_gpio.c ****     GPIO1_BIT17_or_GPIO2_BIT31_PLIC_31,
 104:../src/platform/drivers/mss/mss_gpio/mss_gpio.c **** 
 105:../src/platform/drivers/mss/mss_gpio/mss_gpio.c ****     GPIO1_BIT18_PLIC_32,
 106:../src/platform/drivers/mss/mss_gpio/mss_gpio.c ****     GPIO1_BIT19_PLIC_33,
 107:../src/platform/drivers/mss/mss_gpio/mss_gpio.c ****     GPIO1_BIT20_PLIC_34,
 108:../src/platform/drivers/mss/mss_gpio/mss_gpio.c ****     GPIO1_BIT21_PLIC_35,
 109:../src/platform/drivers/mss/mss_gpio/mss_gpio.c ****     GPIO1_BIT22_PLIC_36,
 110:../src/platform/drivers/mss/mss_gpio/mss_gpio.c ****     GPIO1_BIT23_PLIC_37,
 111:../src/platform/drivers/mss/mss_gpio/mss_gpio.c **** 
 112:../src/platform/drivers/mss/mss_gpio/mss_gpio.c ****     GPIO0_NON_DIRECT_PLIC,
 113:../src/platform/drivers/mss/mss_gpio/mss_gpio.c ****     GPIO1_NON_DIRECT_PLIC,
 114:../src/platform/drivers/mss/mss_gpio/mss_gpio.c ****     GPIO2_NON_DIRECT_PLIC
 115:../src/platform/drivers/mss/mss_gpio/mss_gpio.c **** };
 116:../src/platform/drivers/mss/mss_gpio/mss_gpio.c **** 
 117:../src/platform/drivers/mss/mss_gpio/mss_gpio.c **** /*-------------------------------------------------------------------------*//**
 118:../src/platform/drivers/mss/mss_gpio/mss_gpio.c ****  * Local functions
 119:../src/platform/drivers/mss/mss_gpio/mss_gpio.c ****  */
 120:../src/platform/drivers/mss/mss_gpio/mss_gpio.c **** static uint8_t gpio_number_validate(GPIO_TypeDef const * gpio, mss_gpio_id_t gpio_idx);
 121:../src/platform/drivers/mss/mss_gpio/mss_gpio.c **** 
 122:../src/platform/drivers/mss/mss_gpio/mss_gpio.c **** /*-------------------------------------------------------------------------*//**
 123:../src/platform/drivers/mss/mss_gpio/mss_gpio.c ****  * MSS_GPIO_init
 124:../src/platform/drivers/mss/mss_gpio/mss_gpio.c ****  * See "mss_gpio.h" for details of how to use this function.
 125:../src/platform/drivers/mss/mss_gpio/mss_gpio.c ****  */
 126:../src/platform/drivers/mss/mss_gpio/mss_gpio.c **** void
 127:../src/platform/drivers/mss/mss_gpio/mss_gpio.c **** MSS_GPIO_init
 128:../src/platform/drivers/mss/mss_gpio/mss_gpio.c **** (
 129:../src/platform/drivers/mss/mss_gpio/mss_gpio.c ****     GPIO_TypeDef * gpio
 130:../src/platform/drivers/mss/mss_gpio/mss_gpio.c **** )
 131:../src/platform/drivers/mss/mss_gpio/mss_gpio.c **** {
 688              		.loc 2 131 1
 689              		.cfi_startproc
 690 0000 0111     		addi	sp,sp,-32
 691              		.cfi_def_cfa_offset 32
 692 0002 22EC     		sd	s0,24(sp)
 693              		.cfi_offset 8, -8
 694 0004 0010     		addi	s0,sp,32
 695              		.cfi_def_cfa 8, 0
 696 0006 2334A4FE 		sd	a0,-24(s0)
 132:../src/platform/drivers/mss/mss_gpio/mss_gpio.c ****     /* clear all pending interrupts*/
 133:../src/platform/drivers/mss/mss_gpio/mss_gpio.c ****     gpio->GPIO_IRQ = 0xFFFFFFFFU;
 697              		.loc 2 133 20
 698 000a 833784FE 		ld	a5,-24(s0)
 699 000e 7D57     		li	a4,-1
 700 0010 23A0E708 		sw	a4,128(a5)
 134:../src/platform/drivers/mss/mss_gpio/mss_gpio.c **** }
 701              		.loc 2 134 1
 702 0014 0100     		nop
 703 0016 6264     		ld	s0,24(sp)
 704              		.cfi_restore 8
 705              		.cfi_def_cfa 2, 32
 706 0018 0561     		addi	sp,sp,32
 707              		.cfi_def_cfa_offset 0
 708 001a 8280     		jr	ra
 709              		.cfi_endproc
 710              	.LFE23:
 712              		.section	.text.MSS_GPIO_config,"ax",@progbits
 713              		.align	1
 714              		.globl	MSS_GPIO_config
 716              	MSS_GPIO_config:
 717              	.LFB24:
 135:../src/platform/drivers/mss/mss_gpio/mss_gpio.c **** 
 136:../src/platform/drivers/mss/mss_gpio/mss_gpio.c **** /*-------------------------------------------------------------------------*//**
 137:../src/platform/drivers/mss/mss_gpio/mss_gpio.c ****  * MSS_GPIO_config
 138:../src/platform/drivers/mss/mss_gpio/mss_gpio.c ****  * See "mss_gpio.h" for details of how to use this function.
 139:../src/platform/drivers/mss/mss_gpio/mss_gpio.c ****  */
 140:../src/platform/drivers/mss/mss_gpio/mss_gpio.c **** void MSS_GPIO_config
 141:../src/platform/drivers/mss/mss_gpio/mss_gpio.c **** (
 142:../src/platform/drivers/mss/mss_gpio/mss_gpio.c ****     GPIO_TypeDef * gpio,
 143:../src/platform/drivers/mss/mss_gpio/mss_gpio.c ****     mss_gpio_id_t port_id,
 144:../src/platform/drivers/mss/mss_gpio/mss_gpio.c ****     uint32_t config
 145:../src/platform/drivers/mss/mss_gpio/mss_gpio.c **** )
 146:../src/platform/drivers/mss/mss_gpio/mss_gpio.c **** {
 718              		.loc 2 146 1
 719              		.cfi_startproc
 720 0000 0111     		addi	sp,sp,-32
 721              		.cfi_def_cfa_offset 32
 722 0002 06EC     		sd	ra,24(sp)
 723 0004 22E8     		sd	s0,16(sp)
 724              		.cfi_offset 1, -8
 725              		.cfi_offset 8, -16
 726 0006 0010     		addi	s0,sp,32
 727              		.cfi_def_cfa 8, 0
 728 0008 2334A4FE 		sd	a0,-24(s0)
 729 000c AE87     		mv	a5,a1
 730 000e 3287     		mv	a4,a2
 731 0010 2322F4FE 		sw	a5,-28(s0)
 732 0014 BA87     		mv	a5,a4
 733 0016 2320F4FE 		sw	a5,-32(s0)
 147:../src/platform/drivers/mss/mss_gpio/mss_gpio.c ****     if (0U == gpio_number_validate(gpio, port_id))
 734              		.loc 2 147 15
 735 001a 832744FE 		lw	a5,-28(s0)
 736 001e BE85     		mv	a1,a5
 737 0020 033584FE 		ld	a0,-24(s0)
 738 0024 97000000 		call	gpio_number_validate
 738      E7800000 
 739 002c AA87     		mv	a5,a0
 740              		.loc 2 147 8
 741 002e 99EB     		bne	a5,zero,.L23
 148:../src/platform/drivers/mss/mss_gpio/mss_gpio.c ****     {
 149:../src/platform/drivers/mss/mss_gpio/mss_gpio.c ****         gpio->GPIO_CFG[port_id] = config;
 742              		.loc 2 149 33
 743 0030 033784FE 		ld	a4,-24(s0)
 744 0034 836744FE 		lwu	a5,-28(s0)
 745 0038 8A07     		slli	a5,a5,2
 746 003a BA97     		add	a5,a4,a5
 747 003c 032704FE 		lw	a4,-32(s0)
 748 0040 98C3     		sw	a4,0(a5)
 150:../src/platform/drivers/mss/mss_gpio/mss_gpio.c ****     }
 151:../src/platform/drivers/mss/mss_gpio/mss_gpio.c ****     else
 152:../src/platform/drivers/mss/mss_gpio/mss_gpio.c ****     {
 153:../src/platform/drivers/mss/mss_gpio/mss_gpio.c ****         ASSERT(0); /*LDRA warning*/
 154:../src/platform/drivers/mss/mss_gpio/mss_gpio.c ****     }
 155:../src/platform/drivers/mss/mss_gpio/mss_gpio.c **** }
 749              		.loc 2 155 1
 750 0042 11A0     		j	.L25
 751              	.L23:
 153:../src/platform/drivers/mss/mss_gpio/mss_gpio.c ****     }
 752              		.loc 2 153 9 discriminator 1
 753              	 #APP
 754              	# 153 "../src/platform/drivers/mss/mss_gpio/mss_gpio.c" 1
 755              		ebreak
 756              	# 0 "" 2
 757              	 #NO_APP
 758              	.L25:
 759              		.loc 2 155 1
 760 0046 0100     		nop
 761 0048 E260     		ld	ra,24(sp)
 762              		.cfi_restore 1
 763 004a 4264     		ld	s0,16(sp)
 764              		.cfi_restore 8
 765              		.cfi_def_cfa 2, 32
 766 004c 0561     		addi	sp,sp,32
 767              		.cfi_def_cfa_offset 0
 768 004e 8280     		jr	ra
 769              		.cfi_endproc
 770              	.LFE24:
 772              		.section	.text.MSS_GPIO_config_byte,"ax",@progbits
 773              		.align	1
 774              		.globl	MSS_GPIO_config_byte
 776              	MSS_GPIO_config_byte:
 777              	.LFB25:
 156:../src/platform/drivers/mss/mss_gpio/mss_gpio.c **** 
 157:../src/platform/drivers/mss/mss_gpio/mss_gpio.c **** /*-------------------------------------------------------------------------*//**
 158:../src/platform/drivers/mss/mss_gpio/mss_gpio.c ****  * MSS_GPIO_config_byte
 159:../src/platform/drivers/mss/mss_gpio/mss_gpio.c ****  * See "mss_gpio.h" for details of how to use this function.
 160:../src/platform/drivers/mss/mss_gpio/mss_gpio.c ****  */
 161:../src/platform/drivers/mss/mss_gpio/mss_gpio.c **** void MSS_GPIO_config_byte
 162:../src/platform/drivers/mss/mss_gpio/mss_gpio.c **** (
 163:../src/platform/drivers/mss/mss_gpio/mss_gpio.c ****     GPIO_TypeDef * gpio,
 164:../src/platform/drivers/mss/mss_gpio/mss_gpio.c ****     mss_gpio_byte_num_t byte_num,
 165:../src/platform/drivers/mss/mss_gpio/mss_gpio.c ****     uint32_t config
 166:../src/platform/drivers/mss/mss_gpio/mss_gpio.c **** )
 167:../src/platform/drivers/mss/mss_gpio/mss_gpio.c **** {
 778              		.loc 2 167 1
 779              		.cfi_startproc
 780 0000 0111     		addi	sp,sp,-32
 781              		.cfi_def_cfa_offset 32
 782 0002 22EC     		sd	s0,24(sp)
 783              		.cfi_offset 8, -8
 784 0004 0010     		addi	s0,sp,32
 785              		.cfi_def_cfa 8, 0
 786 0006 2334A4FE 		sd	a0,-24(s0)
 787 000a AE87     		mv	a5,a1
 788 000c 3287     		mv	a4,a2
 789 000e 2322F4FE 		sw	a5,-28(s0)
 790 0012 BA87     		mv	a5,a4
 791 0014 2320F4FE 		sw	a5,-32(s0)
 168:../src/platform/drivers/mss/mss_gpio/mss_gpio.c ****     if (((GPIO0_LO == gpio) || (GPIO0_HI == gpio)) &&
 792              		.loc 2 168 8
 793 0018 033784FE 		ld	a4,-24(s0)
 794 001c B7071220 		li	a5,538050560
 795 0020 6308F700 		beq	a4,a5,.L27
 796              		.loc 2 168 29 discriminator 2
 797 0024 033784FE 		ld	a4,-24(s0)
 798 0028 B7071228 		li	a5,672268288
 799 002c 6318F700 		bne	a4,a5,.L28
 800              	.L27:
 801              		.loc 2 168 52 discriminator 3
 802 0030 832744FE 		lw	a5,-28(s0)
 803 0034 8127     		sext.w	a5,a5
 804 0036 99C3     		beq	a5,zero,.L28
 169:../src/platform/drivers/mss/mss_gpio/mss_gpio.c ****                                                  (byte_num >= MSS_GPIO_BYTE_1))
 170:../src/platform/drivers/mss/mss_gpio/mss_gpio.c ****     {
 171:../src/platform/drivers/mss/mss_gpio/mss_gpio.c ****         ASSERT(0);
 805              		.loc 2 171 9 discriminator 1
 806              	 #APP
 807              	# 171 "../src/platform/drivers/mss/mss_gpio/mss_gpio.c" 1
 172              	    }
 808              		ebreak
 809              	# 0 "" 2
 810              	 #NO_APP
 811 003a B5A0     		j	.L29
 812              	.L28:
 173:../src/platform/drivers/mss/mss_gpio/mss_gpio.c ****     else if (((GPIO1_LO == gpio) || (GPIO1_HI == gpio)) &&
 813              		.loc 2 173 13
 814 003c 033784FE 		ld	a4,-24(s0)
 815 0040 B7171220 		li	a5,538054656
 816 0044 6308F700 		beq	a4,a5,.L30
 817              		.loc 2 173 34 discriminator 2
 818 0048 033784FE 		ld	a4,-24(s0)
 819 004c B7171228 		li	a5,672272384
 820 0050 631BF700 		bne	a4,a5,.L31
 821              	.L30:
 822              		.loc 2 173 57 discriminator 3
 823 0054 832744FE 		lw	a5,-28(s0)
 824 0058 1B870700 		sext.w	a4,a5
 825 005c 8947     		li	a5,2
 826 005e 63F4E700 		bleu	a4,a5,.L31
 174:../src/platform/drivers/mss/mss_gpio/mss_gpio.c ****                                                   (byte_num > MSS_GPIO_BYTE_2))
 175:../src/platform/drivers/mss/mss_gpio/mss_gpio.c ****     {
 176:../src/platform/drivers/mss/mss_gpio/mss_gpio.c ****         ASSERT(0);
 827              		.loc 2 176 9 discriminator 1
 828              	 #APP
 829              	# 176 "../src/platform/drivers/mss/mss_gpio/mss_gpio.c" 1
 177              	    }
 830              		ebreak
 831              	# 0 "" 2
 832              	 #NO_APP
 833 0064 89A0     		j	.L29
 834              	.L31:
 178:../src/platform/drivers/mss/mss_gpio/mss_gpio.c ****     else if (((GPIO2_LO == gpio) || (GPIO2_HI == gpio)) &&
 835              		.loc 2 178 13
 836 0066 033784FE 		ld	a4,-24(s0)
 837 006a B7271220 		li	a5,538058752
 838 006e 6308F700 		beq	a4,a5,.L32
 839              		.loc 2 178 34 discriminator 2
 840 0072 033784FE 		ld	a4,-24(s0)
 841 0076 B7271228 		li	a5,672276480
 842 007a 631BF700 		bne	a4,a5,.L33
 843              	.L32:
 844              		.loc 2 178 57 discriminator 3
 845 007e 832744FE 		lw	a5,-28(s0)
 846 0082 1B870700 		sext.w	a4,a5
 847 0086 8D47     		li	a5,3
 848 0088 63F4E700 		bleu	a4,a5,.L33
 179:../src/platform/drivers/mss/mss_gpio/mss_gpio.c ****                                                   (byte_num > MSS_GPIO_BYTE_3))
 180:../src/platform/drivers/mss/mss_gpio/mss_gpio.c ****     {
 181:../src/platform/drivers/mss/mss_gpio/mss_gpio.c ****         ASSERT(0);
 849              		.loc 2 181 9 discriminator 1
 850              	 #APP
 851              	# 181 "../src/platform/drivers/mss/mss_gpio/mss_gpio.c" 1
 182              	    }
 852              		ebreak
 853              	# 0 "" 2
 854              	 #NO_APP
 855 008e 21A8     		j	.L29
 856              	.L33:
 183:../src/platform/drivers/mss/mss_gpio/mss_gpio.c ****     else
 184:../src/platform/drivers/mss/mss_gpio/mss_gpio.c ****     {
 185:../src/platform/drivers/mss/mss_gpio/mss_gpio.c ****         gpio->GPIO_CFG_BYTE[byte_num] = config;
 857              		.loc 2 185 39
 858 0090 033784FE 		ld	a4,-24(s0)
 859 0094 836744FE 		lwu	a5,-28(s0)
 860 0098 93874702 		addi	a5,a5,36
 861 009c 8A07     		slli	a5,a5,2
 862 009e BA97     		add	a5,a4,a5
 863 00a0 032704FE 		lw	a4,-32(s0)
 864 00a4 98C3     		sw	a4,0(a5)
 865              	.L29:
 186:../src/platform/drivers/mss/mss_gpio/mss_gpio.c ****     }
 187:../src/platform/drivers/mss/mss_gpio/mss_gpio.c **** }
 866              		.loc 2 187 1
 867 00a6 0100     		nop
 868 00a8 6264     		ld	s0,24(sp)
 869              		.cfi_restore 8
 870              		.cfi_def_cfa 2, 32
 871 00aa 0561     		addi	sp,sp,32
 872              		.cfi_def_cfa_offset 0
 873 00ac 8280     		jr	ra
 874              		.cfi_endproc
 875              	.LFE25:
 877              		.section	.text.MSS_GPIO_config_all,"ax",@progbits
 878              		.align	1
 879              		.globl	MSS_GPIO_config_all
 881              	MSS_GPIO_config_all:
 882              	.LFB26:
 188:../src/platform/drivers/mss/mss_gpio/mss_gpio.c **** 
 189:../src/platform/drivers/mss/mss_gpio/mss_gpio.c **** /*-------------------------------------------------------------------------*//**
 190:../src/platform/drivers/mss/mss_gpio/mss_gpio.c ****  * MSS_GPIO_config_all
 191:../src/platform/drivers/mss/mss_gpio/mss_gpio.c ****  * See "mss_gpio.h" for details of how to use this function.
 192:../src/platform/drivers/mss/mss_gpio/mss_gpio.c ****  */
 193:../src/platform/drivers/mss/mss_gpio/mss_gpio.c **** void MSS_GPIO_config_all
 194:../src/platform/drivers/mss/mss_gpio/mss_gpio.c **** (
 195:../src/platform/drivers/mss/mss_gpio/mss_gpio.c ****     GPIO_TypeDef * gpio,
 196:../src/platform/drivers/mss/mss_gpio/mss_gpio.c ****     uint32_t config
 197:../src/platform/drivers/mss/mss_gpio/mss_gpio.c **** )
 198:../src/platform/drivers/mss/mss_gpio/mss_gpio.c **** {
 883              		.loc 2 198 1
 884              		.cfi_startproc
 885 0000 0111     		addi	sp,sp,-32
 886              		.cfi_def_cfa_offset 32
 887 0002 22EC     		sd	s0,24(sp)
 888              		.cfi_offset 8, -8
 889 0004 0010     		addi	s0,sp,32
 890              		.cfi_def_cfa 8, 0
 891 0006 2334A4FE 		sd	a0,-24(s0)
 892 000a AE87     		mv	a5,a1
 893 000c 2322F4FE 		sw	a5,-28(s0)
 199:../src/platform/drivers/mss/mss_gpio/mss_gpio.c ****     gpio->GPIO_CFG_ALL = config;
 894              		.loc 2 199 24
 895 0010 833784FE 		ld	a5,-24(s0)
 896 0014 032744FE 		lw	a4,-28(s0)
 897 0018 23A6E708 		sw	a4,140(a5)
 200:../src/platform/drivers/mss/mss_gpio/mss_gpio.c **** }
 898              		.loc 2 200 1
 899 001c 0100     		nop
 900 001e 6264     		ld	s0,24(sp)
 901              		.cfi_restore 8
 902              		.cfi_def_cfa 2, 32
 903 0020 0561     		addi	sp,sp,32
 904              		.cfi_def_cfa_offset 0
 905 0022 8280     		jr	ra
 906              		.cfi_endproc
 907              	.LFE26:
 909              		.section	.text.MSS_GPIO_set_output,"ax",@progbits
 910              		.align	1
 911              		.globl	MSS_GPIO_set_output
 913              	MSS_GPIO_set_output:
 914              	.LFB27:
 201:../src/platform/drivers/mss/mss_gpio/mss_gpio.c **** 
 202:../src/platform/drivers/mss/mss_gpio/mss_gpio.c **** /*-------------------------------------------------------------------------*//**
 203:../src/platform/drivers/mss/mss_gpio/mss_gpio.c ****  * MSS_GPIO_set_output
 204:../src/platform/drivers/mss/mss_gpio/mss_gpio.c ****  * See "mss_gpio.h" for details of how to use this function.
 205:../src/platform/drivers/mss/mss_gpio/mss_gpio.c ****  */
 206:../src/platform/drivers/mss/mss_gpio/mss_gpio.c **** void MSS_GPIO_set_output
 207:../src/platform/drivers/mss/mss_gpio/mss_gpio.c **** (
 208:../src/platform/drivers/mss/mss_gpio/mss_gpio.c ****     GPIO_TypeDef * gpio,
 209:../src/platform/drivers/mss/mss_gpio/mss_gpio.c ****     mss_gpio_id_t port_id,
 210:../src/platform/drivers/mss/mss_gpio/mss_gpio.c ****     uint8_t value
 211:../src/platform/drivers/mss/mss_gpio/mss_gpio.c **** )
 212:../src/platform/drivers/mss/mss_gpio/mss_gpio.c **** {
 915              		.loc 2 212 1
 916              		.cfi_startproc
 917 0000 0111     		addi	sp,sp,-32
 918              		.cfi_def_cfa_offset 32
 919 0002 06EC     		sd	ra,24(sp)
 920 0004 22E8     		sd	s0,16(sp)
 921              		.cfi_offset 1, -8
 922              		.cfi_offset 8, -16
 923 0006 0010     		addi	s0,sp,32
 924              		.cfi_def_cfa 8, 0
 925 0008 2334A4FE 		sd	a0,-24(s0)
 926 000c AE87     		mv	a5,a1
 927 000e 3287     		mv	a4,a2
 928 0010 2322F4FE 		sw	a5,-28(s0)
 929 0014 BA87     		mv	a5,a4
 930 0016 A301F4FE 		sb	a5,-29(s0)
 213:../src/platform/drivers/mss/mss_gpio/mss_gpio.c ****     if (0U == gpio_number_validate(gpio, port_id))
 931              		.loc 2 213 15
 932 001a 832744FE 		lw	a5,-28(s0)
 933 001e BE85     		mv	a1,a5
 934 0020 033584FE 		ld	a0,-24(s0)
 935 0024 97000000 		call	gpio_number_validate
 935      E7800000 
 936 002c AA87     		mv	a5,a0
 937              		.loc 2 213 8
 938 002e 95EF     		bne	a5,zero,.L36
 214:../src/platform/drivers/mss/mss_gpio/mss_gpio.c ****     {
 215:../src/platform/drivers/mss/mss_gpio/mss_gpio.c ****         /* Setting the bit in GPIO_SET_BITS (offset 0xA4) sets the corresponding
 216:../src/platform/drivers/mss/mss_gpio/mss_gpio.c ****          * output port.
 217:../src/platform/drivers/mss/mss_gpio/mss_gpio.c ****          * Setting the bit in GPIO_CLR_BITS (offset 0xA0) clears the
 218:../src/platform/drivers/mss/mss_gpio/mss_gpio.c ****          * corresponding output port.*/
 219:../src/platform/drivers/mss/mss_gpio/mss_gpio.c **** 
 220:../src/platform/drivers/mss/mss_gpio/mss_gpio.c ****         if (value > 0u)
 939              		.loc 2 220 12
 940 0030 834734FE 		lbu	a5,-29(s0)
 941 0034 93F7F70F 		andi	a5,a5,0xff
 942 0038 89CF     		beq	a5,zero,.L37
 221:../src/platform/drivers/mss/mss_gpio/mss_gpio.c ****         {
 222:../src/platform/drivers/mss/mss_gpio/mss_gpio.c ****             gpio->GPIO_SET_BITS = ((uint32_t)0x01 << port_id);
 943              		.loc 2 222 51
 944 003a 832744FE 		lw	a5,-28(s0)
 945 003e 0547     		li	a4,1
 946 0040 BB17F700 		sllw	a5,a4,a5
 947 0044 1B870700 		sext.w	a4,a5
 948              		.loc 2 222 33
 949 0048 833784FE 		ld	a5,-24(s0)
 950 004c 23A2E70A 		sw	a4,164(a5)
 223:../src/platform/drivers/mss/mss_gpio/mss_gpio.c ****         }
 224:../src/platform/drivers/mss/mss_gpio/mss_gpio.c ****         else
 225:../src/platform/drivers/mss/mss_gpio/mss_gpio.c ****         {
 226:../src/platform/drivers/mss/mss_gpio/mss_gpio.c ****             gpio->GPIO_CLR_BITS = ((uint32_t)0x01 << port_id);
 227:../src/platform/drivers/mss/mss_gpio/mss_gpio.c ****         }
 228:../src/platform/drivers/mss/mss_gpio/mss_gpio.c ****     }
 229:../src/platform/drivers/mss/mss_gpio/mss_gpio.c ****     else
 230:../src/platform/drivers/mss/mss_gpio/mss_gpio.c ****     {
 231:../src/platform/drivers/mss/mss_gpio/mss_gpio.c ****         ASSERT(0); /*LDRA warning*/
 232:../src/platform/drivers/mss/mss_gpio/mss_gpio.c ****     }
 233:../src/platform/drivers/mss/mss_gpio/mss_gpio.c **** }
 951              		.loc 2 233 1
 952 0050 31A8     		j	.L40
 953              	.L37:
 226:../src/platform/drivers/mss/mss_gpio/mss_gpio.c ****         }
 954              		.loc 2 226 51
 955 0052 832744FE 		lw	a5,-28(s0)
 956 0056 0547     		li	a4,1
 957 0058 BB17F700 		sllw	a5,a4,a5
 958 005c 1B870700 		sext.w	a4,a5
 226:../src/platform/drivers/mss/mss_gpio/mss_gpio.c ****         }
 959              		.loc 2 226 33
 960 0060 833784FE 		ld	a5,-24(s0)
 961 0064 23A0E70A 		sw	a4,160(a5)
 962              		.loc 2 233 1
 963 0068 11A0     		j	.L40
 964              	.L36:
 231:../src/platform/drivers/mss/mss_gpio/mss_gpio.c ****     }
 965              		.loc 2 231 9 discriminator 1
 966              	 #APP
 967              	# 231 "../src/platform/drivers/mss/mss_gpio/mss_gpio.c" 1
 968              		ebreak
 969              	# 0 "" 2
 970              	 #NO_APP
 971              	.L40:
 972              		.loc 2 233 1
 973 006c 0100     		nop
 974 006e E260     		ld	ra,24(sp)
 975              		.cfi_restore 1
 976 0070 4264     		ld	s0,16(sp)
 977              		.cfi_restore 8
 978              		.cfi_def_cfa 2, 32
 979 0072 0561     		addi	sp,sp,32
 980              		.cfi_def_cfa_offset 0
 981 0074 8280     		jr	ra
 982              		.cfi_endproc
 983              	.LFE27:
 985              		.section	.text.MSS_GPIO_drive_inout,"ax",@progbits
 986              		.align	1
 987              		.globl	MSS_GPIO_drive_inout
 989              	MSS_GPIO_drive_inout:
 990              	.LFB28:
 234:../src/platform/drivers/mss/mss_gpio/mss_gpio.c **** 
 235:../src/platform/drivers/mss/mss_gpio/mss_gpio.c **** /*-------------------------------------------------------------------------*//**
 236:../src/platform/drivers/mss/mss_gpio/mss_gpio.c ****  * MSS_GPIO_drive_inout
 237:../src/platform/drivers/mss/mss_gpio/mss_gpio.c ****  * See "mss_gpio.h" for details of how to use this function.
 238:../src/platform/drivers/mss/mss_gpio/mss_gpio.c ****  */
 239:../src/platform/drivers/mss/mss_gpio/mss_gpio.c **** void MSS_GPIO_drive_inout
 240:../src/platform/drivers/mss/mss_gpio/mss_gpio.c **** (
 241:../src/platform/drivers/mss/mss_gpio/mss_gpio.c ****     GPIO_TypeDef * gpio,
 242:../src/platform/drivers/mss/mss_gpio/mss_gpio.c ****     mss_gpio_id_t port_id,
 243:../src/platform/drivers/mss/mss_gpio/mss_gpio.c ****     mss_gpio_inout_state_t inout_state
 244:../src/platform/drivers/mss/mss_gpio/mss_gpio.c **** )
 245:../src/platform/drivers/mss/mss_gpio/mss_gpio.c **** {
 991              		.loc 2 245 1
 992              		.cfi_startproc
 993 0000 7971     		addi	sp,sp,-48
 994              		.cfi_def_cfa_offset 48
 995 0002 06F4     		sd	ra,40(sp)
 996 0004 22F0     		sd	s0,32(sp)
 997              		.cfi_offset 1, -8
 998              		.cfi_offset 8, -16
 999 0006 0018     		addi	s0,sp,48
 1000              		.cfi_def_cfa 8, 0
 1001 0008 233CA4FC 		sd	a0,-40(s0)
 1002 000c AE87     		mv	a5,a1
 1003 000e 3287     		mv	a4,a2
 1004 0010 232AF4FC 		sw	a5,-44(s0)
 1005 0014 BA87     		mv	a5,a4
 1006 0016 2328F4FC 		sw	a5,-48(s0)
 246:../src/platform/drivers/mss/mss_gpio/mss_gpio.c ****     uint32_t config;
 247:../src/platform/drivers/mss/mss_gpio/mss_gpio.c ****     
 248:../src/platform/drivers/mss/mss_gpio/mss_gpio.c ****     if (0U == gpio_number_validate(gpio, port_id))
 1007              		.loc 2 248 15
 1008 001a 832744FD 		lw	a5,-44(s0)
 1009 001e BE85     		mv	a1,a5
 1010 0020 033584FD 		ld	a0,-40(s0)
 1011 0024 97000000 		call	gpio_number_validate
 1011      E7800000 
 1012 002c AA87     		mv	a5,a0
 1013              		.loc 2 248 8
 1014 002e FDE7     		bne	a5,zero,.L42
 249:../src/platform/drivers/mss/mss_gpio/mss_gpio.c ****     {
 250:../src/platform/drivers/mss/mss_gpio/mss_gpio.c ****         switch (inout_state)
 1015              		.loc 2 250 9
 1016 0030 832704FD 		lw	a5,-48(s0)
 1017 0034 1B870700 		sext.w	a4,a5
 1018 0038 8547     		li	a5,1
 1019 003a 630EF700 		beq	a4,a5,.L43
 1020 003e 832704FD 		lw	a5,-48(s0)
 1021 0042 8127     		sext.w	a5,a5
 1022 0044 A9CF     		beq	a5,zero,.L44
 1023 0046 832704FD 		lw	a5,-48(s0)
 1024 004a 1B870700 		sext.w	a4,a5
 1025 004e 8947     		li	a5,2
 1026 0050 630BF708 		beq	a4,a5,.L45
 1027 0054 C9A0     		j	.L50
 1028              	.L43:
 251:../src/platform/drivers/mss/mss_gpio/mss_gpio.c ****         {
 252:../src/platform/drivers/mss/mss_gpio/mss_gpio.c ****             case MSS_GPIO_DRIVE_HIGH:
 253:../src/platform/drivers/mss/mss_gpio/mss_gpio.c ****                 /* Set output high */
 254:../src/platform/drivers/mss/mss_gpio/mss_gpio.c ****                 gpio->GPIO_SET_BITS = ((uint32_t)1 << port_id);
 1029              		.loc 2 254 52
 1030 0056 832744FD 		lw	a5,-44(s0)
 1031 005a 0547     		li	a4,1
 1032 005c BB17F700 		sllw	a5,a4,a5
 1033 0060 1B870700 		sext.w	a4,a5
 1034              		.loc 2 254 37
 1035 0064 833784FD 		ld	a5,-40(s0)
 1036 0068 23A2E70A 		sw	a4,164(a5)
 255:../src/platform/drivers/mss/mss_gpio/mss_gpio.c **** 
 256:../src/platform/drivers/mss/mss_gpio/mss_gpio.c ****                 /* Enable output buffer */
 257:../src/platform/drivers/mss/mss_gpio/mss_gpio.c ****                 config = gpio->GPIO_CFG[port_id];
 1037              		.loc 2 257 24
 1038 006c 033784FD 		ld	a4,-40(s0)
 1039 0070 836744FD 		lwu	a5,-44(s0)
 1040 0074 8A07     		slli	a5,a5,2
 1041 0076 BA97     		add	a5,a4,a5
 1042 0078 9C43     		lw	a5,0(a5)
 1043 007a 2326F4FE 		sw	a5,-20(s0)
 258:../src/platform/drivers/mss/mss_gpio/mss_gpio.c ****                 config |= OUTPUT_BUFFER_ENABLE_MASK;
 1044              		.loc 2 258 24
 1045 007e 8327C4FE 		lw	a5,-20(s0)
 1046 0082 93E74700 		ori	a5,a5,4
 1047 0086 2326F4FE 		sw	a5,-20(s0)
 259:../src/platform/drivers/mss/mss_gpio/mss_gpio.c ****                 gpio->GPIO_CFG[port_id] = config;
 1048              		.loc 2 259 41
 1049 008a 033784FD 		ld	a4,-40(s0)
 1050 008e 836744FD 		lwu	a5,-44(s0)
 1051 0092 8A07     		slli	a5,a5,2
 1052 0094 BA97     		add	a5,a4,a5
 1053 0096 0327C4FE 		lw	a4,-20(s0)
 1054 009a 98C3     		sw	a4,0(a5)
 260:../src/platform/drivers/mss/mss_gpio/mss_gpio.c ****             break;
 1055              		.loc 2 260 13
 1056 009c 49A0     		j	.L48
 1057              	.L44:
 261:../src/platform/drivers/mss/mss_gpio/mss_gpio.c **** 
 262:../src/platform/drivers/mss/mss_gpio/mss_gpio.c ****             case MSS_GPIO_DRIVE_LOW:
 263:../src/platform/drivers/mss/mss_gpio/mss_gpio.c ****                 /* Set output low */
 264:../src/platform/drivers/mss/mss_gpio/mss_gpio.c ****                 gpio->GPIO_CLR_BITS = (uint32_t)1 << port_id;
 1058              		.loc 2 264 51
 1059 009e 832744FD 		lw	a5,-44(s0)
 1060 00a2 0547     		li	a4,1
 1061 00a4 BB17F700 		sllw	a5,a4,a5
 1062 00a8 1B870700 		sext.w	a4,a5
 1063              		.loc 2 264 37
 1064 00ac 833784FD 		ld	a5,-40(s0)
 1065 00b0 23A0E70A 		sw	a4,160(a5)
 265:../src/platform/drivers/mss/mss_gpio/mss_gpio.c ****                 /* Enable output buffer */
 266:../src/platform/drivers/mss/mss_gpio/mss_gpio.c ****                 config = gpio->GPIO_CFG[port_id];
 1066              		.loc 2 266 24
 1067 00b4 033784FD 		ld	a4,-40(s0)
 1068 00b8 836744FD 		lwu	a5,-44(s0)
 1069 00bc 8A07     		slli	a5,a5,2
 1070 00be BA97     		add	a5,a4,a5
 1071 00c0 9C43     		lw	a5,0(a5)
 1072 00c2 2326F4FE 		sw	a5,-20(s0)
 267:../src/platform/drivers/mss/mss_gpio/mss_gpio.c ****                 config |= OUTPUT_BUFFER_ENABLE_MASK;
 1073              		.loc 2 267 24
 1074 00c6 8327C4FE 		lw	a5,-20(s0)
 1075 00ca 93E74700 		ori	a5,a5,4
 1076 00ce 2326F4FE 		sw	a5,-20(s0)
 268:../src/platform/drivers/mss/mss_gpio/mss_gpio.c ****                 gpio->GPIO_CFG[port_id] = config;
 1077              		.loc 2 268 41
 1078 00d2 033784FD 		ld	a4,-40(s0)
 1079 00d6 836744FD 		lwu	a5,-44(s0)
 1080 00da 8A07     		slli	a5,a5,2
 1081 00dc BA97     		add	a5,a4,a5
 1082 00de 0327C4FE 		lw	a4,-20(s0)
 1083 00e2 98C3     		sw	a4,0(a5)
 269:../src/platform/drivers/mss/mss_gpio/mss_gpio.c ****             break;
 1084              		.loc 2 269 13
 1085 00e4 2DA8     		j	.L48
 1086              	.L45:
 270:../src/platform/drivers/mss/mss_gpio/mss_gpio.c **** 
 271:../src/platform/drivers/mss/mss_gpio/mss_gpio.c ****             case MSS_GPIO_HIGH_Z:
 272:../src/platform/drivers/mss/mss_gpio/mss_gpio.c ****                 /* Disable output buffer */
 273:../src/platform/drivers/mss/mss_gpio/mss_gpio.c ****                 config = gpio->GPIO_CFG[port_id];
 1087              		.loc 2 273 24
 1088 00e6 033784FD 		ld	a4,-40(s0)
 1089 00ea 836744FD 		lwu	a5,-44(s0)
 1090 00ee 8A07     		slli	a5,a5,2
 1091 00f0 BA97     		add	a5,a4,a5
 1092 00f2 9C43     		lw	a5,0(a5)
 1093 00f4 2326F4FE 		sw	a5,-20(s0)
 274:../src/platform/drivers/mss/mss_gpio/mss_gpio.c ****                 config &= ~OUTPUT_BUFFER_ENABLE_MASK;
 1094              		.loc 2 274 24
 1095 00f8 8327C4FE 		lw	a5,-20(s0)
 1096 00fc ED9B     		andi	a5,a5,-5
 1097 00fe 2326F4FE 		sw	a5,-20(s0)
 275:../src/platform/drivers/mss/mss_gpio/mss_gpio.c ****                 gpio->GPIO_CFG[port_id] = config;
 1098              		.loc 2 275 41
 1099 0102 033784FD 		ld	a4,-40(s0)
 1100 0106 836744FD 		lwu	a5,-44(s0)
 1101 010a 8A07     		slli	a5,a5,2
 1102 010c BA97     		add	a5,a4,a5
 1103 010e 0327C4FE 		lw	a4,-20(s0)
 1104 0112 98C3     		sw	a4,0(a5)
 276:../src/platform/drivers/mss/mss_gpio/mss_gpio.c ****             break;
 1105              		.loc 2 276 13
 1106 0114 29A0     		j	.L48
 1107              	.L50:
 277:../src/platform/drivers/mss/mss_gpio/mss_gpio.c **** 
 278:../src/platform/drivers/mss/mss_gpio/mss_gpio.c ****             default:
 279:../src/platform/drivers/mss/mss_gpio/mss_gpio.c ****                 ASSERT(0);
 1108              		.loc 2 279 17 discriminator 1
 1109              	 #APP
 1110              	# 279 "../src/platform/drivers/mss/mss_gpio/mss_gpio.c" 1
 280              	            break;
 1111              		ebreak
 1112              	# 0 "" 2
 1113              		.loc 2 280 13 discriminator 1
 1114              	 #NO_APP
 1115 0118 0100     		nop
 1116 011a 11A0     		j	.L48
 1117              	.L42:
 281:../src/platform/drivers/mss/mss_gpio/mss_gpio.c ****         }
 282:../src/platform/drivers/mss/mss_gpio/mss_gpio.c ****     }
 283:../src/platform/drivers/mss/mss_gpio/mss_gpio.c ****     else
 284:../src/platform/drivers/mss/mss_gpio/mss_gpio.c ****     {
 285:../src/platform/drivers/mss/mss_gpio/mss_gpio.c ****         ASSERT(0); /*LDRA warning*/
 1118              		.loc 2 285 9 discriminator 1
 1119              	 #APP
 1120              	# 285 "../src/platform/drivers/mss/mss_gpio/mss_gpio.c" 1
 286              	    }
 1121              		ebreak
 1122              	# 0 "" 2
 1123              	 #NO_APP
 1124              	.L48:
 287:../src/platform/drivers/mss/mss_gpio/mss_gpio.c **** }
 1125              		.loc 2 287 1
 1126 011e 0100     		nop
 1127 0120 A270     		ld	ra,40(sp)
 1128              		.cfi_restore 1
 1129 0122 0274     		ld	s0,32(sp)
 1130              		.cfi_restore 8
 1131              		.cfi_def_cfa 2, 48
 1132 0124 4561     		addi	sp,sp,48
 1133              		.cfi_def_cfa_offset 0
 1134 0126 8280     		jr	ra
 1135              		.cfi_endproc
 1136              	.LFE28:
 1138              		.section	.text.MSS_GPIO_enable_irq,"ax",@progbits
 1139              		.align	1
 1140              		.globl	MSS_GPIO_enable_irq
 1142              	MSS_GPIO_enable_irq:
 1143              	.LFB29:
 288:../src/platform/drivers/mss/mss_gpio/mss_gpio.c **** 
 289:../src/platform/drivers/mss/mss_gpio/mss_gpio.c **** /*-------------------------------------------------------------------------*//**
 290:../src/platform/drivers/mss/mss_gpio/mss_gpio.c ****  * MSS_GPIO_enable_irq
 291:../src/platform/drivers/mss/mss_gpio/mss_gpio.c ****  * See "mss_gpio.h" for details of how to use this function.
 292:../src/platform/drivers/mss/mss_gpio/mss_gpio.c ****  */
 293:../src/platform/drivers/mss/mss_gpio/mss_gpio.c **** void MSS_GPIO_enable_irq
 294:../src/platform/drivers/mss/mss_gpio/mss_gpio.c **** (
 295:../src/platform/drivers/mss/mss_gpio/mss_gpio.c ****     GPIO_TypeDef * gpio,
 296:../src/platform/drivers/mss/mss_gpio/mss_gpio.c ****     mss_gpio_id_t port_id
 297:../src/platform/drivers/mss/mss_gpio/mss_gpio.c **** )
 298:../src/platform/drivers/mss/mss_gpio/mss_gpio.c **** {
 1144              		.loc 2 298 1
 1145              		.cfi_startproc
 1146 0000 7971     		addi	sp,sp,-48
 1147              		.cfi_def_cfa_offset 48
 1148 0002 06F4     		sd	ra,40(sp)
 1149 0004 22F0     		sd	s0,32(sp)
 1150              		.cfi_offset 1, -8
 1151              		.cfi_offset 8, -16
 1152 0006 0018     		addi	s0,sp,48
 1153              		.cfi_def_cfa 8, 0
 1154 0008 233CA4FC 		sd	a0,-40(s0)
 1155 000c AE87     		mv	a5,a1
 1156 000e 232AF4FC 		sw	a5,-44(s0)
 299:../src/platform/drivers/mss/mss_gpio/mss_gpio.c ****     uint32_t cfg_value;
 300:../src/platform/drivers/mss/mss_gpio/mss_gpio.c **** 
 301:../src/platform/drivers/mss/mss_gpio/mss_gpio.c ****     if (0U == gpio_number_validate(gpio, port_id))
 1157              		.loc 2 301 15
 1158 0012 832744FD 		lw	a5,-44(s0)
 1159 0016 BE85     		mv	a1,a5
 1160 0018 033584FD 		ld	a0,-40(s0)
 1161 001c 97000000 		call	gpio_number_validate
 1161      E7800000 
 1162 0024 AA87     		mv	a5,a0
 1163              		.loc 2 301 8
 1164 0026 FDE3     		bne	a5,zero,.L52
 302:../src/platform/drivers/mss/mss_gpio/mss_gpio.c ****     {
 303:../src/platform/drivers/mss/mss_gpio/mss_gpio.c ****         cfg_value = gpio->GPIO_CFG[(uint8_t)port_id];
 1165              		.loc 2 303 36
 1166 0028 832744FD 		lw	a5,-44(s0)
 1167 002c 93F7F70F 		andi	a5,a5,0xff
 1168 0030 8127     		sext.w	a5,a5
 1169              		.loc 2 303 19
 1170 0032 033784FD 		ld	a4,-40(s0)
 1171 0036 8A07     		slli	a5,a5,2
 1172 0038 BA97     		add	a5,a4,a5
 1173 003a 9C43     		lw	a5,0(a5)
 1174 003c 2326F4FE 		sw	a5,-20(s0)
 304:../src/platform/drivers/mss/mss_gpio/mss_gpio.c ****         gpio->GPIO_CFG[(uint8_t)port_id] = (cfg_value | GPIO_INT_ENABLE_MASK);
 1175              		.loc 2 304 24
 1176 0040 832744FD 		lw	a5,-44(s0)
 1177 0044 93F7F70F 		andi	a5,a5,0xff
 1178 0048 8127     		sext.w	a5,a5
 1179              		.loc 2 304 55
 1180 004a 0327C4FE 		lw	a4,-20(s0)
 1181 004e 13678700 		ori	a4,a4,8
 1182 0052 0127     		sext.w	a4,a4
 1183              		.loc 2 304 42
 1184 0054 833684FD 		ld	a3,-40(s0)
 1185 0058 8A07     		slli	a5,a5,2
 1186 005a B697     		add	a5,a3,a5
 1187 005c 98C3     		sw	a4,0(a5)
 305:../src/platform/drivers/mss/mss_gpio/mss_gpio.c **** 
 306:../src/platform/drivers/mss/mss_gpio/mss_gpio.c ****         if ((GPIO0_LO == gpio) || (GPIO0_HI == gpio))
 1188              		.loc 2 306 12
 1189 005e 033784FD 		ld	a4,-40(s0)
 1190 0062 B7071220 		li	a5,538050560
 1191 0066 6308F700 		beq	a4,a5,.L53
 1192              		.loc 2 306 32 discriminator 1
 1193 006a 033784FD 		ld	a4,-40(s0)
 1194 006e B7071228 		li	a5,672268288
 1195 0072 6311F702 		bne	a4,a5,.L54
 1196              	.L53:
 307:../src/platform/drivers/mss/mss_gpio/mss_gpio.c ****         {
 308:../src/platform/drivers/mss/mss_gpio/mss_gpio.c ****             PLIC_EnableIRQ(g_gpio_irqn_lut[port_id]);
 1197              		.loc 2 308 13
 1198 0076 17070000 		lla	a4,g_gpio_irqn_lut
 1198      13070700 
 1199 007e 836744FD 		lwu	a5,-44(s0)
 1200 0082 8A07     		slli	a5,a5,2
 1201 0084 BA97     		add	a5,a4,a5
 1202 0086 9C43     		lw	a5,0(a5)
 1203 0088 3E85     		mv	a0,a5
 1204 008a 97000000 		call	PLIC_EnableIRQ
 1204      E7800000 
 1205 0092 BDA8     		j	.L60
 1206              	.L54:
 309:../src/platform/drivers/mss/mss_gpio/mss_gpio.c ****         }
 310:../src/platform/drivers/mss/mss_gpio/mss_gpio.c ****         else if ((GPIO1_LO == gpio) || (GPIO1_HI == gpio))
 1207              		.loc 2 310 17
 1208 0094 033784FD 		ld	a4,-40(s0)
 1209 0098 B7171220 		li	a5,538054656
 1210 009c 6308F700 		beq	a4,a5,.L56
 1211              		.loc 2 310 37 discriminator 1
 1212 00a0 033784FD 		ld	a4,-40(s0)
 1213 00a4 B7171228 		li	a5,672272384
 1214 00a8 6315F702 		bne	a4,a5,.L57
 1215              	.L56:
 311:../src/platform/drivers/mss/mss_gpio/mss_gpio.c ****         {
 312:../src/platform/drivers/mss/mss_gpio/mss_gpio.c ****             PLIC_EnableIRQ(g_gpio_irqn_lut[port_id +
 1216              		.loc 2 312 52
 1217 00ac 832744FD 		lw	a5,-44(s0)
 1218 00b0 ED27     		addiw	a5,a5,27
 1219 00b2 8127     		sext.w	a5,a5
 1220              		.loc 2 312 13
 1221 00b4 17070000 		lla	a4,g_gpio_irqn_lut
 1221      13070700 
 1222 00bc 8217     		slli	a5,a5,32
 1223 00be 8193     		srli	a5,a5,32
 1224 00c0 8A07     		slli	a5,a5,2
 1225 00c2 BA97     		add	a5,a4,a5
 1226 00c4 9C43     		lw	a5,0(a5)
 1227 00c6 3E85     		mv	a0,a5
 1228 00c8 97000000 		call	PLIC_EnableIRQ
 1228      E7800000 
 1229 00d0 81A0     		j	.L60
 1230              	.L57:
 313:../src/platform/drivers/mss/mss_gpio/mss_gpio.c ****                                            GPIO1_BIT0_or_GPIO2_BIT14_PLIC_14]);
 314:../src/platform/drivers/mss/mss_gpio/mss_gpio.c ****         }
 315:../src/platform/drivers/mss/mss_gpio/mss_gpio.c ****         else if ((GPIO2_LO == gpio) || (GPIO2_HI == gpio))
 1231              		.loc 2 315 17
 1232 00d2 033784FD 		ld	a4,-40(s0)
 1233 00d6 B7271220 		li	a5,538058752
 1234 00da 6308F700 		beq	a4,a5,.L58
 1235              		.loc 2 315 37 discriminator 1
 1236 00de 033784FD 		ld	a4,-40(s0)
 1237 00e2 B7271228 		li	a5,672276480
 1238 00e6 6311F702 		bne	a4,a5,.L59
 1239              	.L58:
 316:../src/platform/drivers/mss/mss_gpio/mss_gpio.c ****         {
 317:../src/platform/drivers/mss/mss_gpio/mss_gpio.c ****             PLIC_EnableIRQ(g_gpio_irqn_lut[port_id]);
 1240              		.loc 2 317 13
 1241 00ea 17070000 		lla	a4,g_gpio_irqn_lut
 1241      13070700 
 1242 00f2 836744FD 		lwu	a5,-44(s0)
 1243 00f6 8A07     		slli	a5,a5,2
 1244 00f8 BA97     		add	a5,a4,a5
 1245 00fa 9C43     		lw	a5,0(a5)
 1246 00fc 3E85     		mv	a0,a5
 1247 00fe 97000000 		call	PLIC_EnableIRQ
 1247      E7800000 
 1248 0106 29A0     		j	.L60
 1249              	.L59:
 318:../src/platform/drivers/mss/mss_gpio/mss_gpio.c ****         }
 319:../src/platform/drivers/mss/mss_gpio/mss_gpio.c ****         else
 320:../src/platform/drivers/mss/mss_gpio/mss_gpio.c ****         {
 321:../src/platform/drivers/mss/mss_gpio/mss_gpio.c ****             ASSERT(0); /*LDRA warning*/
 1250              		.loc 2 321 13 discriminator 1
 1251              	 #APP
 1252              	# 321 "../src/platform/drivers/mss/mss_gpio/mss_gpio.c" 1
 322              	        }
 323:../src/platform/drivers/mss/mss_gpio/mss_gpio.c ****     }
 324:../src/platform/drivers/mss/mss_gpio/mss_gpio.c ****     else
 325:../src/platform/drivers/mss/mss_gpio/mss_gpio.c ****     {
 326:../src/platform/drivers/mss/mss_gpio/mss_gpio.c ****         ASSERT(0); /*LDRA warning*/
 327:../src/platform/drivers/mss/mss_gpio/mss_gpio.c ****     }
 328:../src/platform/drivers/mss/mss_gpio/mss_gpio.c **** }
 1253              		ebreak
 1254              	# 0 "" 2
 1255              		.loc 2 328 1 discriminator 1
 1256              	 #NO_APP
 1257 010a 19A0     		j	.L61
 1258              	.L52:
 326:../src/platform/drivers/mss/mss_gpio/mss_gpio.c ****     }
 1259              		.loc 2 326 9 discriminator 1
 1260              	 #APP
 1261              	# 326 "../src/platform/drivers/mss/mss_gpio/mss_gpio.c" 1
 1262              		ebreak
 1263              	# 0 "" 2
 1264              		.loc 2 328 1 discriminator 1
 1265              	 #NO_APP
 1266 010e 09A0     		j	.L61
 1267              	.L60:
 1268              	.L61:
 1269              		.loc 2 328 1 is_stmt 0
 1270 0110 0100     		nop
 1271 0112 A270     		ld	ra,40(sp)
 1272              		.cfi_restore 1
 1273 0114 0274     		ld	s0,32(sp)
 1274              		.cfi_restore 8
 1275              		.cfi_def_cfa 2, 48
 1276 0116 4561     		addi	sp,sp,48
 1277              		.cfi_def_cfa_offset 0
 1278 0118 8280     		jr	ra
 1279              		.cfi_endproc
 1280              	.LFE29:
 1282              		.section	.text.MSS_GPIO_disable_irq,"ax",@progbits
 1283              		.align	1
 1284              		.globl	MSS_GPIO_disable_irq
 1286              	MSS_GPIO_disable_irq:
 1287              	.LFB30:
 329:../src/platform/drivers/mss/mss_gpio/mss_gpio.c **** 
 330:../src/platform/drivers/mss/mss_gpio/mss_gpio.c **** /*-------------------------------------------------------------------------*//**
 331:../src/platform/drivers/mss/mss_gpio/mss_gpio.c ****  * MSS_GPIO_disable_irq
 332:../src/platform/drivers/mss/mss_gpio/mss_gpio.c ****  * See "mss_gpio.h" for details of how to use this function.
 333:../src/platform/drivers/mss/mss_gpio/mss_gpio.c ****  */
 334:../src/platform/drivers/mss/mss_gpio/mss_gpio.c **** 
 335:../src/platform/drivers/mss/mss_gpio/mss_gpio.c **** void MSS_GPIO_disable_irq
 336:../src/platform/drivers/mss/mss_gpio/mss_gpio.c **** (
 337:../src/platform/drivers/mss/mss_gpio/mss_gpio.c ****     GPIO_TypeDef * gpio,
 338:../src/platform/drivers/mss/mss_gpio/mss_gpio.c ****     mss_gpio_id_t port_id
 339:../src/platform/drivers/mss/mss_gpio/mss_gpio.c **** )
 340:../src/platform/drivers/mss/mss_gpio/mss_gpio.c **** {
 1288              		.loc 2 340 1 is_stmt 1
 1289              		.cfi_startproc
 1290 0000 7971     		addi	sp,sp,-48
 1291              		.cfi_def_cfa_offset 48
 1292 0002 06F4     		sd	ra,40(sp)
 1293 0004 22F0     		sd	s0,32(sp)
 1294              		.cfi_offset 1, -8
 1295              		.cfi_offset 8, -16
 1296 0006 0018     		addi	s0,sp,48
 1297              		.cfi_def_cfa 8, 0
 1298 0008 233CA4FC 		sd	a0,-40(s0)
 1299 000c AE87     		mv	a5,a1
 1300 000e 232AF4FC 		sw	a5,-44(s0)
 341:../src/platform/drivers/mss/mss_gpio/mss_gpio.c ****     uint32_t cfg_value;
 342:../src/platform/drivers/mss/mss_gpio/mss_gpio.c **** 
 343:../src/platform/drivers/mss/mss_gpio/mss_gpio.c ****     if (0U == gpio_number_validate(gpio, port_id))
 1301              		.loc 2 343 15
 1302 0012 832744FD 		lw	a5,-44(s0)
 1303 0016 BE85     		mv	a1,a5
 1304 0018 033584FD 		ld	a0,-40(s0)
 1305 001c 97000000 		call	gpio_number_validate
 1305      E7800000 
 1306 0024 AA87     		mv	a5,a0
 1307              		.loc 2 343 8
 1308 0026 F1EB     		bne	a5,zero,.L63
 344:../src/platform/drivers/mss/mss_gpio/mss_gpio.c ****     {
 345:../src/platform/drivers/mss/mss_gpio/mss_gpio.c ****         cfg_value = gpio->GPIO_CFG[(uint8_t)port_id];
 1309              		.loc 2 345 36
 1310 0028 832744FD 		lw	a5,-44(s0)
 1311 002c 93F7F70F 		andi	a5,a5,0xff
 1312 0030 8127     		sext.w	a5,a5
 1313              		.loc 2 345 19
 1314 0032 033784FD 		ld	a4,-40(s0)
 1315 0036 8A07     		slli	a5,a5,2
 1316 0038 BA97     		add	a5,a4,a5
 1317 003a 9C43     		lw	a5,0(a5)
 1318 003c 2326F4FE 		sw	a5,-20(s0)
 346:../src/platform/drivers/mss/mss_gpio/mss_gpio.c ****         gpio->GPIO_CFG[(uint8_t)port_id] = (cfg_value & (~GPIO_INT_ENABLE_MASK));
 1319              		.loc 2 346 24
 1320 0040 832744FD 		lw	a5,-44(s0)
 1321 0044 93F7F70F 		andi	a5,a5,0xff
 1322 0048 8127     		sext.w	a5,a5
 1323              		.loc 2 346 55
 1324 004a 0327C4FE 		lw	a4,-20(s0)
 1325 004e 5D9B     		andi	a4,a4,-9
 1326 0050 0127     		sext.w	a4,a4
 1327              		.loc 2 346 42
 1328 0052 833684FD 		ld	a3,-40(s0)
 1329 0056 8A07     		slli	a5,a5,2
 1330 0058 B697     		add	a5,a3,a5
 1331 005a 98C3     		sw	a4,0(a5)
 347:../src/platform/drivers/mss/mss_gpio/mss_gpio.c **** 
 348:../src/platform/drivers/mss/mss_gpio/mss_gpio.c ****         if ((GPIO0_LO == gpio) || (GPIO0_HI == gpio))
 1332              		.loc 2 348 12
 1333 005c 033784FD 		ld	a4,-40(s0)
 1334 0060 B7071220 		li	a5,538050560
 1335 0064 6308F700 		beq	a4,a5,.L64
 1336              		.loc 2 348 32 discriminator 1
 1337 0068 033784FD 		ld	a4,-40(s0)
 1338 006c B7071228 		li	a5,672268288
 1339 0070 6311F702 		bne	a4,a5,.L65
 1340              	.L64:
 349:../src/platform/drivers/mss/mss_gpio/mss_gpio.c ****         {
 350:../src/platform/drivers/mss/mss_gpio/mss_gpio.c ****             PLIC_DisableIRQ(g_gpio_irqn_lut[port_id]);
 1341              		.loc 2 350 13
 1342 0074 17070000 		lla	a4,g_gpio_irqn_lut
 1342      13070700 
 1343 007c 836744FD 		lwu	a5,-44(s0)
 1344 0080 8A07     		slli	a5,a5,2
 1345 0082 BA97     		add	a5,a4,a5
 1346 0084 9C43     		lw	a5,0(a5)
 1347 0086 3E85     		mv	a0,a5
 1348 0088 97000000 		call	PLIC_DisableIRQ
 1348      E7800000 
 1349 0090 BDA0     		j	.L71
 1350              	.L65:
 351:../src/platform/drivers/mss/mss_gpio/mss_gpio.c ****         }
 352:../src/platform/drivers/mss/mss_gpio/mss_gpio.c ****         else if ((GPIO1_LO == gpio) || (GPIO1_HI == gpio))
 1351              		.loc 2 352 17
 1352 0092 033784FD 		ld	a4,-40(s0)
 1353 0096 B7171220 		li	a5,538054656
 1354 009a 6308F700 		beq	a4,a5,.L67
 1355              		.loc 2 352 37 discriminator 1
 1356 009e 033784FD 		ld	a4,-40(s0)
 1357 00a2 B7171228 		li	a5,672272384
 1358 00a6 6315F702 		bne	a4,a5,.L68
 1359              	.L67:
 353:../src/platform/drivers/mss/mss_gpio/mss_gpio.c ****         {
 354:../src/platform/drivers/mss/mss_gpio/mss_gpio.c ****             PLIC_DisableIRQ(g_gpio_irqn_lut[port_id +
 1360              		.loc 2 354 53
 1361 00aa 832744FD 		lw	a5,-44(s0)
 1362 00ae ED27     		addiw	a5,a5,27
 1363 00b0 8127     		sext.w	a5,a5
 1364              		.loc 2 354 13
 1365 00b2 17070000 		lla	a4,g_gpio_irqn_lut
 1365      13070700 
 1366 00ba 8217     		slli	a5,a5,32
 1367 00bc 8193     		srli	a5,a5,32
 1368 00be 8A07     		slli	a5,a5,2
 1369 00c0 BA97     		add	a5,a4,a5
 1370 00c2 9C43     		lw	a5,0(a5)
 1371 00c4 3E85     		mv	a0,a5
 1372 00c6 97000000 		call	PLIC_DisableIRQ
 1372      E7800000 
 1373 00ce 05A8     		j	.L71
 1374              	.L68:
 355:../src/platform/drivers/mss/mss_gpio/mss_gpio.c ****                                             GPIO1_BIT0_or_GPIO2_BIT14_PLIC_14]);
 356:../src/platform/drivers/mss/mss_gpio/mss_gpio.c ****         }
 357:../src/platform/drivers/mss/mss_gpio/mss_gpio.c ****         else if ((GPIO2_LO == gpio) || (GPIO2_HI == gpio))
 1375              		.loc 2 357 17
 1376 00d0 033784FD 		ld	a4,-40(s0)
 1377 00d4 B7271220 		li	a5,538058752
 1378 00d8 6308F700 		beq	a4,a5,.L69
 1379              		.loc 2 357 37 discriminator 1
 1380 00dc 033784FD 		ld	a4,-40(s0)
 1381 00e0 B7271228 		li	a5,672276480
 1382 00e4 6319F700 		bne	a4,a5,.L70
 1383              	.L69:
 358:../src/platform/drivers/mss/mss_gpio/mss_gpio.c ****         {
 359:../src/platform/drivers/mss/mss_gpio/mss_gpio.c ****             PLIC_DisableIRQ(GPIO2_NON_DIRECT_PLIC);
 1384              		.loc 2 359 13
 1385 00e8 13055003 		li	a0,53
 1386 00ec 97000000 		call	PLIC_DisableIRQ
 1386      E7800000 
 1387 00f4 29A0     		j	.L71
 1388              	.L70:
 360:../src/platform/drivers/mss/mss_gpio/mss_gpio.c ****         }
 361:../src/platform/drivers/mss/mss_gpio/mss_gpio.c ****         else
 362:../src/platform/drivers/mss/mss_gpio/mss_gpio.c ****         {
 363:../src/platform/drivers/mss/mss_gpio/mss_gpio.c ****             ASSERT(0); /*LDRA warning*/
 1389              		.loc 2 363 13 discriminator 1
 1390              	 #APP
 1391              	# 363 "../src/platform/drivers/mss/mss_gpio/mss_gpio.c" 1
 364              	        }
 365:../src/platform/drivers/mss/mss_gpio/mss_gpio.c ****     }
 366:../src/platform/drivers/mss/mss_gpio/mss_gpio.c ****     else
 367:../src/platform/drivers/mss/mss_gpio/mss_gpio.c ****     {
 368:../src/platform/drivers/mss/mss_gpio/mss_gpio.c ****         ASSERT(0); /*LDRA warning*/
 369:../src/platform/drivers/mss/mss_gpio/mss_gpio.c ****     }
 370:../src/platform/drivers/mss/mss_gpio/mss_gpio.c **** }
 1392              		ebreak
 1393              	# 0 "" 2
 1394              		.loc 2 370 1 discriminator 1
 1395              	 #NO_APP
 1396 00f8 19A0     		j	.L72
 1397              	.L63:
 368:../src/platform/drivers/mss/mss_gpio/mss_gpio.c ****     }
 1398              		.loc 2 368 9 discriminator 1
 1399              	 #APP
 1400              	# 368 "../src/platform/drivers/mss/mss_gpio/mss_gpio.c" 1
 1401              		ebreak
 1402              	# 0 "" 2
 1403              		.loc 2 370 1 discriminator 1
 1404              	 #NO_APP
 1405 00fc 09A0     		j	.L72
 1406              	.L71:
 1407              	.L72:
 1408              		.loc 2 370 1 is_stmt 0
 1409 00fe 0100     		nop
 1410 0100 A270     		ld	ra,40(sp)
 1411              		.cfi_restore 1
 1412 0102 0274     		ld	s0,32(sp)
 1413              		.cfi_restore 8
 1414              		.cfi_def_cfa 2, 48
 1415 0104 4561     		addi	sp,sp,48
 1416              		.cfi_def_cfa_offset 0
 1417 0106 8280     		jr	ra
 1418              		.cfi_endproc
 1419              	.LFE30:
 1421              		.section	.text.MSS_GPIO_enable_nondirect_irq,"ax",@progbits
 1422              		.align	1
 1423              		.globl	MSS_GPIO_enable_nondirect_irq
 1425              	MSS_GPIO_enable_nondirect_irq:
 1426              	.LFB31:
 371:../src/platform/drivers/mss/mss_gpio/mss_gpio.c **** 
 372:../src/platform/drivers/mss/mss_gpio/mss_gpio.c **** /*-------------------------------------------------------------------------*//**
 373:../src/platform/drivers/mss/mss_gpio/mss_gpio.c ****  * MSS_GPIO_enable_nondirect_irq
 374:../src/platform/drivers/mss/mss_gpio/mss_gpio.c ****  * See "mss_gpio.h" for details of how to use this function.
 375:../src/platform/drivers/mss/mss_gpio/mss_gpio.c ****  */
 376:../src/platform/drivers/mss/mss_gpio/mss_gpio.c **** void
 377:../src/platform/drivers/mss/mss_gpio/mss_gpio.c **** MSS_GPIO_enable_nondirect_irq
 378:../src/platform/drivers/mss/mss_gpio/mss_gpio.c **** (
 379:../src/platform/drivers/mss/mss_gpio/mss_gpio.c ****     GPIO_TypeDef const * gpio
 380:../src/platform/drivers/mss/mss_gpio/mss_gpio.c **** )
 381:../src/platform/drivers/mss/mss_gpio/mss_gpio.c **** {
 1427              		.loc 2 381 1 is_stmt 1
 1428              		.cfi_startproc
 1429 0000 0111     		addi	sp,sp,-32
 1430              		.cfi_def_cfa_offset 32
 1431 0002 06EC     		sd	ra,24(sp)
 1432 0004 22E8     		sd	s0,16(sp)
 1433              		.cfi_offset 1, -8
 1434              		.cfi_offset 8, -16
 1435 0006 0010     		addi	s0,sp,32
 1436              		.cfi_def_cfa 8, 0
 1437 0008 2334A4FE 		sd	a0,-24(s0)
 382:../src/platform/drivers/mss/mss_gpio/mss_gpio.c ****     if ((GPIO0_LO == gpio) || (GPIO0_HI == gpio))
 1438              		.loc 2 382 8
 1439 000c 033784FE 		ld	a4,-24(s0)
 1440 0010 B7071220 		li	a5,538050560
 1441 0014 6308F700 		beq	a4,a5,.L74
 1442              		.loc 2 382 28 discriminator 1
 1443 0018 033784FE 		ld	a4,-24(s0)
 1444 001c B7071228 		li	a5,672268288
 1445 0020 6319F700 		bne	a4,a5,.L75
 1446              	.L74:
 383:../src/platform/drivers/mss/mss_gpio/mss_gpio.c ****     {
 384:../src/platform/drivers/mss/mss_gpio/mss_gpio.c ****         PLIC_EnableIRQ(GPIO0_NON_DIRECT_PLIC);
 1447              		.loc 2 384 9
 1448 0024 13053003 		li	a0,51
 1449 0028 97000000 		call	PLIC_EnableIRQ
 1449      E7800000 
 1450 0030 81A8     		j	.L76
 1451              	.L75:
 385:../src/platform/drivers/mss/mss_gpio/mss_gpio.c ****     }
 386:../src/platform/drivers/mss/mss_gpio/mss_gpio.c ****     else if ((GPIO1_LO == gpio) || (GPIO1_HI == gpio))
 1452              		.loc 2 386 13
 1453 0032 033784FE 		ld	a4,-24(s0)
 1454 0036 B7171220 		li	a5,538054656
 1455 003a 6308F700 		beq	a4,a5,.L77
 1456              		.loc 2 386 33 discriminator 1
 1457 003e 033784FE 		ld	a4,-24(s0)
 1458 0042 B7171228 		li	a5,672272384
 1459 0046 6319F700 		bne	a4,a5,.L78
 1460              	.L77:
 387:../src/platform/drivers/mss/mss_gpio/mss_gpio.c ****     {
 388:../src/platform/drivers/mss/mss_gpio/mss_gpio.c ****         PLIC_EnableIRQ(GPIO1_NON_DIRECT_PLIC);
 1461              		.loc 2 388 9
 1462 004a 13054003 		li	a0,52
 1463 004e 97000000 		call	PLIC_EnableIRQ
 1463      E7800000 
 1464 0056 2DA0     		j	.L76
 1465              	.L78:
 389:../src/platform/drivers/mss/mss_gpio/mss_gpio.c ****     }
 390:../src/platform/drivers/mss/mss_gpio/mss_gpio.c ****     else if ((GPIO2_LO == gpio) || (GPIO2_HI == gpio))
 1466              		.loc 2 390 13
 1467 0058 033784FE 		ld	a4,-24(s0)
 1468 005c B7271220 		li	a5,538058752
 1469 0060 6308F700 		beq	a4,a5,.L79
 1470              		.loc 2 390 33 discriminator 1
 1471 0064 033784FE 		ld	a4,-24(s0)
 1472 0068 B7271228 		li	a5,672276480
 1473 006c 6319F700 		bne	a4,a5,.L80
 1474              	.L79:
 391:../src/platform/drivers/mss/mss_gpio/mss_gpio.c ****     {
 392:../src/platform/drivers/mss/mss_gpio/mss_gpio.c ****         PLIC_EnableIRQ(GPIO2_NON_DIRECT_PLIC);
 1475              		.loc 2 392 9
 1476 0070 13055003 		li	a0,53
 1477 0074 97000000 		call	PLIC_EnableIRQ
 1477      E7800000 
 1478 007c 11A0     		j	.L76
 1479              	.L80:
 393:../src/platform/drivers/mss/mss_gpio/mss_gpio.c ****     }
 394:../src/platform/drivers/mss/mss_gpio/mss_gpio.c ****     else
 395:../src/platform/drivers/mss/mss_gpio/mss_gpio.c ****     {
 396:../src/platform/drivers/mss/mss_gpio/mss_gpio.c ****         ASSERT(0); /*LDRA warning*/
 1480              		.loc 2 396 9 discriminator 1
 1481              	 #APP
 1482              	# 396 "../src/platform/drivers/mss/mss_gpio/mss_gpio.c" 1
 397              	    }
 1483              		ebreak
 1484              	# 0 "" 2
 1485              	 #NO_APP
 1486              	.L76:
 398:../src/platform/drivers/mss/mss_gpio/mss_gpio.c **** }
 1487              		.loc 2 398 1
 1488 0080 0100     		nop
 1489 0082 E260     		ld	ra,24(sp)
 1490              		.cfi_restore 1
 1491 0084 4264     		ld	s0,16(sp)
 1492              		.cfi_restore 8
 1493              		.cfi_def_cfa 2, 32
 1494 0086 0561     		addi	sp,sp,32
 1495              		.cfi_def_cfa_offset 0
 1496 0088 8280     		jr	ra
 1497              		.cfi_endproc
 1498              	.LFE31:
 1500              		.section	.text.MSS_GPIO_disable_nondirect_irq,"ax",@progbits
 1501              		.align	1
 1502              		.globl	MSS_GPIO_disable_nondirect_irq
 1504              	MSS_GPIO_disable_nondirect_irq:
 1505              	.LFB32:
 399:../src/platform/drivers/mss/mss_gpio/mss_gpio.c **** 
 400:../src/platform/drivers/mss/mss_gpio/mss_gpio.c **** /*-------------------------------------------------------------------------*//**
 401:../src/platform/drivers/mss/mss_gpio/mss_gpio.c ****  * MSS_GPIO_disable_nondirect_irq
 402:../src/platform/drivers/mss/mss_gpio/mss_gpio.c ****  * See "mss_gpio.h" for details of how to use this function.
 403:../src/platform/drivers/mss/mss_gpio/mss_gpio.c ****  */
 404:../src/platform/drivers/mss/mss_gpio/mss_gpio.c **** void
 405:../src/platform/drivers/mss/mss_gpio/mss_gpio.c **** MSS_GPIO_disable_nondirect_irq
 406:../src/platform/drivers/mss/mss_gpio/mss_gpio.c **** (
 407:../src/platform/drivers/mss/mss_gpio/mss_gpio.c ****     GPIO_TypeDef const * gpio
 408:../src/platform/drivers/mss/mss_gpio/mss_gpio.c **** )
 409:../src/platform/drivers/mss/mss_gpio/mss_gpio.c **** {
 1506              		.loc 2 409 1
 1507              		.cfi_startproc
 1508 0000 0111     		addi	sp,sp,-32
 1509              		.cfi_def_cfa_offset 32
 1510 0002 06EC     		sd	ra,24(sp)
 1511 0004 22E8     		sd	s0,16(sp)
 1512              		.cfi_offset 1, -8
 1513              		.cfi_offset 8, -16
 1514 0006 0010     		addi	s0,sp,32
 1515              		.cfi_def_cfa 8, 0
 1516 0008 2334A4FE 		sd	a0,-24(s0)
 410:../src/platform/drivers/mss/mss_gpio/mss_gpio.c ****     if ((GPIO0_LO == gpio) || (GPIO0_HI == gpio))
 1517              		.loc 2 410 8
 1518 000c 033784FE 		ld	a4,-24(s0)
 1519 0010 B7071220 		li	a5,538050560
 1520 0014 6308F700 		beq	a4,a5,.L82
 1521              		.loc 2 410 28 discriminator 1
 1522 0018 033784FE 		ld	a4,-24(s0)
 1523 001c B7071228 		li	a5,672268288
 1524 0020 6319F700 		bne	a4,a5,.L83
 1525              	.L82:
 411:../src/platform/drivers/mss/mss_gpio/mss_gpio.c ****     {
 412:../src/platform/drivers/mss/mss_gpio/mss_gpio.c ****         PLIC_DisableIRQ(GPIO0_NON_DIRECT_PLIC);
 1526              		.loc 2 412 9
 1527 0024 13053003 		li	a0,51
 1528 0028 97000000 		call	PLIC_DisableIRQ
 1528      E7800000 
 1529 0030 81A8     		j	.L84
 1530              	.L83:
 413:../src/platform/drivers/mss/mss_gpio/mss_gpio.c ****     }
 414:../src/platform/drivers/mss/mss_gpio/mss_gpio.c ****     else if ((GPIO1_LO == gpio) || (GPIO1_HI == gpio))
 1531              		.loc 2 414 13
 1532 0032 033784FE 		ld	a4,-24(s0)
 1533 0036 B7171220 		li	a5,538054656
 1534 003a 6308F700 		beq	a4,a5,.L85
 1535              		.loc 2 414 33 discriminator 1
 1536 003e 033784FE 		ld	a4,-24(s0)
 1537 0042 B7171228 		li	a5,672272384
 1538 0046 6319F700 		bne	a4,a5,.L86
 1539              	.L85:
 415:../src/platform/drivers/mss/mss_gpio/mss_gpio.c ****     {
 416:../src/platform/drivers/mss/mss_gpio/mss_gpio.c ****         PLIC_DisableIRQ(GPIO1_NON_DIRECT_PLIC);
 1540              		.loc 2 416 9
 1541 004a 13054003 		li	a0,52
 1542 004e 97000000 		call	PLIC_DisableIRQ
 1542      E7800000 
 1543 0056 2DA0     		j	.L84
 1544              	.L86:
 417:../src/platform/drivers/mss/mss_gpio/mss_gpio.c ****     }
 418:../src/platform/drivers/mss/mss_gpio/mss_gpio.c ****     else if ((GPIO2_LO == gpio) || (GPIO2_HI == gpio))
 1545              		.loc 2 418 13
 1546 0058 033784FE 		ld	a4,-24(s0)
 1547 005c B7271220 		li	a5,538058752
 1548 0060 6308F700 		beq	a4,a5,.L87
 1549              		.loc 2 418 33 discriminator 1
 1550 0064 033784FE 		ld	a4,-24(s0)
 1551 0068 B7271228 		li	a5,672276480
 1552 006c 6319F700 		bne	a4,a5,.L88
 1553              	.L87:
 419:../src/platform/drivers/mss/mss_gpio/mss_gpio.c ****     {
 420:../src/platform/drivers/mss/mss_gpio/mss_gpio.c ****         PLIC_DisableIRQ(GPIO2_NON_DIRECT_PLIC);
 1554              		.loc 2 420 9
 1555 0070 13055003 		li	a0,53
 1556 0074 97000000 		call	PLIC_DisableIRQ
 1556      E7800000 
 1557 007c 11A0     		j	.L84
 1558              	.L88:
 421:../src/platform/drivers/mss/mss_gpio/mss_gpio.c ****     }
 422:../src/platform/drivers/mss/mss_gpio/mss_gpio.c ****     else
 423:../src/platform/drivers/mss/mss_gpio/mss_gpio.c ****     {
 424:../src/platform/drivers/mss/mss_gpio/mss_gpio.c ****         ASSERT(0); /*LDRA warning*/
 1559              		.loc 2 424 9 discriminator 1
 1560              	 #APP
 1561              	# 424 "../src/platform/drivers/mss/mss_gpio/mss_gpio.c" 1
 425              	    }
 1562              		ebreak
 1563              	# 0 "" 2
 1564              	 #NO_APP
 1565              	.L84:
 426:../src/platform/drivers/mss/mss_gpio/mss_gpio.c **** }
 1566              		.loc 2 426 1
 1567 0080 0100     		nop
 1568 0082 E260     		ld	ra,24(sp)
 1569              		.cfi_restore 1
 1570 0084 4264     		ld	s0,16(sp)
 1571              		.cfi_restore 8
 1572              		.cfi_def_cfa 2, 32
 1573 0086 0561     		addi	sp,sp,32
 1574              		.cfi_def_cfa_offset 0
 1575 0088 8280     		jr	ra
 1576              		.cfi_endproc
 1577              	.LFE32:
 1579              		.section	.text.MSS_GPIO_clear_irq,"ax",@progbits
 1580              		.align	1
 1581              		.globl	MSS_GPIO_clear_irq
 1583              	MSS_GPIO_clear_irq:
 1584              	.LFB33:
 427:../src/platform/drivers/mss/mss_gpio/mss_gpio.c **** 
 428:../src/platform/drivers/mss/mss_gpio/mss_gpio.c **** /*-------------------------------------------------------------------------*//**
 429:../src/platform/drivers/mss/mss_gpio/mss_gpio.c ****  * MSS_GPIO_clear_irq
 430:../src/platform/drivers/mss/mss_gpio/mss_gpio.c ****  * See "mss_gpio.h" for details of how to use this function.
 431:../src/platform/drivers/mss/mss_gpio/mss_gpio.c ****  */
 432:../src/platform/drivers/mss/mss_gpio/mss_gpio.c **** void MSS_GPIO_clear_irq
 433:../src/platform/drivers/mss/mss_gpio/mss_gpio.c **** (
 434:../src/platform/drivers/mss/mss_gpio/mss_gpio.c ****     GPIO_TypeDef * gpio,
 435:../src/platform/drivers/mss/mss_gpio/mss_gpio.c ****     mss_gpio_id_t port_id
 436:../src/platform/drivers/mss/mss_gpio/mss_gpio.c **** )
 437:../src/platform/drivers/mss/mss_gpio/mss_gpio.c **** {
 1585              		.loc 2 437 1
 1586              		.cfi_startproc
 1587 0000 0111     		addi	sp,sp,-32
 1588              		.cfi_def_cfa_offset 32
 1589 0002 06EC     		sd	ra,24(sp)
 1590 0004 22E8     		sd	s0,16(sp)
 1591              		.cfi_offset 1, -8
 1592              		.cfi_offset 8, -16
 1593 0006 0010     		addi	s0,sp,32
 1594              		.cfi_def_cfa 8, 0
 1595 0008 2334A4FE 		sd	a0,-24(s0)
 1596 000c AE87     		mv	a5,a1
 1597 000e 2322F4FE 		sw	a5,-28(s0)
 438:../src/platform/drivers/mss/mss_gpio/mss_gpio.c ****     if (0U == gpio_number_validate(gpio, port_id))
 1598              		.loc 2 438 15
 1599 0012 832744FE 		lw	a5,-28(s0)
 1600 0016 BE85     		mv	a1,a5
 1601 0018 033584FE 		ld	a0,-24(s0)
 1602 001c 97000000 		call	gpio_number_validate
 1602      E7800000 
 1603 0024 AA87     		mv	a5,a0
 1604              		.loc 2 438 8
 1605 0026 99EF     		bne	a5,zero,.L90
 439:../src/platform/drivers/mss/mss_gpio/mss_gpio.c ****     {
 440:../src/platform/drivers/mss/mss_gpio/mss_gpio.c ****         gpio->GPIO_IRQ = ((uint32_t)1) << port_id;
 1606              		.loc 2 440 40
 1607 0028 832744FE 		lw	a5,-28(s0)
 1608 002c 0547     		li	a4,1
 1609 002e BB17F700 		sllw	a5,a4,a5
 1610 0032 1B870700 		sext.w	a4,a5
 1611              		.loc 2 440 24
 1612 0036 833784FE 		ld	a5,-24(s0)
 1613 003a 23A0E708 		sw	a4,128(a5)
 441:../src/platform/drivers/mss/mss_gpio/mss_gpio.c ****         __asm("fence");
 1614              		.loc 2 441 9
 1615              	 #APP
 1616              	# 441 "../src/platform/drivers/mss/mss_gpio/mss_gpio.c" 1
 442              	    }
 443:../src/platform/drivers/mss/mss_gpio/mss_gpio.c ****     else
 444:../src/platform/drivers/mss/mss_gpio/mss_gpio.c ****     {
 445:../src/platform/drivers/mss/mss_gpio/mss_gpio.c ****         ASSERT(0); /*LDRA warning*/
 446:../src/platform/drivers/mss/mss_gpio/mss_gpio.c ****     }
 447:../src/platform/drivers/mss/mss_gpio/mss_gpio.c **** }
 1617              		fence
 1618              	# 0 "" 2
 1619              		.loc 2 447 1
 1620              	 #NO_APP
 1621 0042 11A0     		j	.L92
 1622              	.L90:
 445:../src/platform/drivers/mss/mss_gpio/mss_gpio.c ****     }
 1623              		.loc 2 445 9 discriminator 1
 1624              	 #APP
 1625              	# 445 "../src/platform/drivers/mss/mss_gpio/mss_gpio.c" 1
 1626              		ebreak
 1627              	# 0 "" 2
 1628              	 #NO_APP
 1629              	.L92:
 1630              		.loc 2 447 1
 1631 0046 0100     		nop
 1632 0048 E260     		ld	ra,24(sp)
 1633              		.cfi_restore 1
 1634 004a 4264     		ld	s0,16(sp)
 1635              		.cfi_restore 8
 1636              		.cfi_def_cfa 2, 32
 1637 004c 0561     		addi	sp,sp,32
 1638              		.cfi_def_cfa_offset 0
 1639 004e 8280     		jr	ra
 1640              		.cfi_endproc
 1641              	.LFE33:
 1643              		.section	.text.gpio_number_validate,"ax",@progbits
 1644              		.align	1
 1646              	gpio_number_validate:
 1647              	.LFB34:
 448:../src/platform/drivers/mss/mss_gpio/mss_gpio.c **** 
 449:../src/platform/drivers/mss/mss_gpio/mss_gpio.c **** static uint8_t gpio_number_validate(GPIO_TypeDef const * gpio, mss_gpio_id_t gpio_idx)
 450:../src/platform/drivers/mss/mss_gpio/mss_gpio.c **** {
 1648              		.loc 2 450 1
 1649              		.cfi_startproc
 1650 0000 7971     		addi	sp,sp,-48
 1651              		.cfi_def_cfa_offset 48
 1652 0002 22F4     		sd	s0,40(sp)
 1653              		.cfi_offset 8, -8
 1654 0004 0018     		addi	s0,sp,48
 1655              		.cfi_def_cfa 8, 0
 1656 0006 233CA4FC 		sd	a0,-40(s0)
 1657 000a AE87     		mv	a5,a1
 1658 000c 232AF4FC 		sw	a5,-44(s0)
 451:../src/platform/drivers/mss/mss_gpio/mss_gpio.c ****     uint8_t ret;
 452:../src/platform/drivers/mss/mss_gpio/mss_gpio.c **** 
 453:../src/platform/drivers/mss/mss_gpio/mss_gpio.c ****     if (((GPIO0_LO == gpio) || (GPIO0_HI == gpio)) &&
 1659              		.loc 2 453 8
 1660 0010 033784FD 		ld	a4,-40(s0)
 1661 0014 B7071220 		li	a5,538050560
 1662 0018 6308F700 		beq	a4,a5,.L94
 1663              		.loc 2 453 29 discriminator 2
 1664 001c 033784FD 		ld	a4,-40(s0)
 1665 0020 B7071228 		li	a5,672268288
 1666 0024 631DF700 		bne	a4,a5,.L95
 1667              	.L94:
 1668              		.loc 2 453 52 discriminator 3
 1669 0028 832744FD 		lw	a5,-44(s0)
 1670 002c 1B870700 		sext.w	a4,a5
 1671 0030 B547     		li	a5,13
 1672 0032 63F6E700 		bleu	a4,a5,.L95
 454:../src/platform/drivers/mss/mss_gpio/mss_gpio.c ****                                                 (gpio_idx >= NB_OF_GPIO_GPIO0))
 455:../src/platform/drivers/mss/mss_gpio/mss_gpio.c ****     {
 456:../src/platform/drivers/mss/mss_gpio/mss_gpio.c ****         ret = 1u;
 1673              		.loc 2 456 13
 1674 0036 8547     		li	a5,1
 1675 0038 A307F4FE 		sb	a5,-17(s0)
 1676 003c 8DA0     		j	.L96
 1677              	.L95:
 457:../src/platform/drivers/mss/mss_gpio/mss_gpio.c ****     }
 458:../src/platform/drivers/mss/mss_gpio/mss_gpio.c ****     else if (((GPIO1_LO == gpio) || (GPIO1_HI == gpio)) &&
 1678              		.loc 2 458 13
 1679 003e 033784FD 		ld	a4,-40(s0)
 1680 0042 B7171220 		li	a5,538054656
 1681 0046 6308F700 		beq	a4,a5,.L97
 1682              		.loc 2 458 34 discriminator 2
 1683 004a 033784FD 		ld	a4,-40(s0)
 1684 004e B7171228 		li	a5,672272384
 1685 0052 631DF700 		bne	a4,a5,.L98
 1686              	.L97:
 1687              		.loc 2 458 57 discriminator 3
 1688 0056 832744FD 		lw	a5,-44(s0)
 1689 005a 1B870700 		sext.w	a4,a5
 1690 005e DD47     		li	a5,23
 1691 0060 63F6E700 		bleu	a4,a5,.L98
 459:../src/platform/drivers/mss/mss_gpio/mss_gpio.c ****                                                 (gpio_idx >= NB_OF_GPIO_GPIO1))
 460:../src/platform/drivers/mss/mss_gpio/mss_gpio.c ****     {
 461:../src/platform/drivers/mss/mss_gpio/mss_gpio.c ****         ret = 1u;
 1692              		.loc 2 461 13
 1693 0064 8547     		li	a5,1
 1694 0066 A307F4FE 		sb	a5,-17(s0)
 1695 006a 15A8     		j	.L96
 1696              	.L98:
 462:../src/platform/drivers/mss/mss_gpio/mss_gpio.c ****     }
 463:../src/platform/drivers/mss/mss_gpio/mss_gpio.c ****     else if (((GPIO2_LO == gpio) || (GPIO2_HI == gpio)) &&
 1697              		.loc 2 463 13
 1698 006c 033784FD 		ld	a4,-40(s0)
 1699 0070 B7271220 		li	a5,538058752
 1700 0074 6308F700 		beq	a4,a5,.L99
 1701              		.loc 2 463 34 discriminator 2
 1702 0078 033784FD 		ld	a4,-40(s0)
 1703 007c B7271228 		li	a5,672276480
 1704 0080 631DF700 		bne	a4,a5,.L100
 1705              	.L99:
 1706              		.loc 2 463 57 discriminator 3
 1707 0084 832744FD 		lw	a5,-44(s0)
 1708 0088 1B870700 		sext.w	a4,a5
 1709 008c FD47     		li	a5,31
 1710 008e 63F6E700 		bleu	a4,a5,.L100
 464:../src/platform/drivers/mss/mss_gpio/mss_gpio.c ****                                                 (gpio_idx >= NB_OF_GPIO_GPIO2))
 465:../src/platform/drivers/mss/mss_gpio/mss_gpio.c ****     {
 466:../src/platform/drivers/mss/mss_gpio/mss_gpio.c ****         ret = 1u;
 1711              		.loc 2 466 13
 1712 0092 8547     		li	a5,1
 1713 0094 A307F4FE 		sb	a5,-17(s0)
 1714 0098 19A0     		j	.L96
 1715              	.L100:
 467:../src/platform/drivers/mss/mss_gpio/mss_gpio.c ****     }
 468:../src/platform/drivers/mss/mss_gpio/mss_gpio.c ****     else
 469:../src/platform/drivers/mss/mss_gpio/mss_gpio.c ****     {
 470:../src/platform/drivers/mss/mss_gpio/mss_gpio.c ****         ret = 0u;
 1716              		.loc 2 470 13
 1717 009a A30704FE 		sb	zero,-17(s0)
 1718              	.L96:
 471:../src/platform/drivers/mss/mss_gpio/mss_gpio.c ****     }
 472:../src/platform/drivers/mss/mss_gpio/mss_gpio.c **** 
 473:../src/platform/drivers/mss/mss_gpio/mss_gpio.c ****     return ret;
 1719              		.loc 2 473 12
 1720 009e 8347F4FE 		lbu	a5,-17(s0)
 474:../src/platform/drivers/mss/mss_gpio/mss_gpio.c **** }
 1721              		.loc 2 474 1
 1722 00a2 3E85     		mv	a0,a5
 1723 00a4 2274     		ld	s0,40(sp)
 1724              		.cfi_restore 8
 1725              		.cfi_def_cfa 2, 48
 1726 00a6 4561     		addi	sp,sp,48
 1727              		.cfi_def_cfa_offset 0
 1728 00a8 8280     		jr	ra
 1729              		.cfi_endproc
 1730              	.LFE34:
 1732              		.text
 1733              	.Letext0:
 1734              		.file 3 "/home/vinay/Desktop/soft_console/SoftConsole-v2022.2-RISC-V-747/riscv-unknown-elf-gcc/ris
 1735              		.file 4 "/home/vinay/Desktop/soft_console/SoftConsole-v2022.2-RISC-V-747/riscv-unknown-elf-gcc/ris
 1736              		.file 5 "/home/vinay/Desktop/softconsole_watershed/Water-shed/src/platform/mpfs_hal/common/nwc/mss
 1737              		.file 6 "/home/vinay/Desktop/softconsole_watershed/Water-shed/src/platform/mpfs_hal/common/nwc/mss
 1738              		.file 7 "/home/vinay/Desktop/softconsole_watershed/Water-shed/src/platform/mpfs_hal/common/nwc/mss
 1739              		.file 8 "/home/vinay/Desktop/softconsole_watershed/Water-shed/src/platform/mpfs_hal/common/mss_mpu
 1740              		.file 9 "/home/vinay/Desktop/softconsole_watershed/Water-shed/src/platform/mpfs_hal/startup_gcc/sy
 1741              		.file 10 "../src/platform/drivers/mss/mss_gpio/mss_gpio.h"
DEFINED SYMBOLS
                            *ABS*:0000000000000000 mss_gpio.c
     /tmp/ccJdQ6R8.s:12     .text.PLIC_EnableIRQ:0000000000000000 PLIC_EnableIRQ
     /tmp/ccJdQ6R8.s:16     .text.PLIC_EnableIRQ:0000000000000000 .L0 
     /tmp/ccJdQ6R8.s:17     .text.PLIC_EnableIRQ:0000000000000000 .L0 
     /tmp/ccJdQ6R8.s:18     .text.PLIC_EnableIRQ:0000000000000002 .L0 
     /tmp/ccJdQ6R8.s:20     .text.PLIC_EnableIRQ:0000000000000004 .L0 
     /tmp/ccJdQ6R8.s:22     .text.PLIC_EnableIRQ:0000000000000006 .L0 
/home/vinay/Desktop/softconsole_watershed/Water-shed/src/platform/mpfs_hal/common/mss_plic.h:644    .text.PLIC_EnableIRQ:000000000000000c .L0 
     /tmp/ccJdQ6R8.s:36     .text.PLIC_EnableIRQ:0000000000000018 .L0 
     /tmp/ccJdQ6R8.s:38     .text.PLIC_EnableIRQ:000000000000001c .L0 
     /tmp/ccJdQ6R8.s:62     .text.PLIC_EnableIRQ:000000000000004a .L0 
     /tmp/ccJdQ6R8.s:64     .text.PLIC_EnableIRQ:000000000000004e .L0 
     /tmp/ccJdQ6R8.s:68     .text.PLIC_EnableIRQ:0000000000000058 .L0 
     /tmp/ccJdQ6R8.s:78     .text.PLIC_EnableIRQ:0000000000000070 .L0 
     /tmp/ccJdQ6R8.s:82     .text.PLIC_EnableIRQ:0000000000000078 .L0 
     /tmp/ccJdQ6R8.s:87     .text.PLIC_EnableIRQ:0000000000000084 .L0 
     /tmp/ccJdQ6R8.s:91     .text.PLIC_EnableIRQ:000000000000008e .L0 
     /tmp/ccJdQ6R8.s:93     .text.PLIC_EnableIRQ:0000000000000092 .L0 
     /tmp/ccJdQ6R8.s:97     .text.PLIC_EnableIRQ:000000000000009c .L0 
     /tmp/ccJdQ6R8.s:107    .text.PLIC_EnableIRQ:00000000000000b4 .L0 
     /tmp/ccJdQ6R8.s:110    .text.PLIC_EnableIRQ:00000000000000b6 .L0 
     /tmp/ccJdQ6R8.s:112    .text.PLIC_EnableIRQ:00000000000000ba .L0 
     /tmp/ccJdQ6R8.s:116    .text.PLIC_EnableIRQ:00000000000000c4 .L0 
     /tmp/ccJdQ6R8.s:126    .text.PLIC_EnableIRQ:00000000000000dc .L0 
     /tmp/ccJdQ6R8.s:130    .text.PLIC_EnableIRQ:00000000000000e4 .L0 
     /tmp/ccJdQ6R8.s:135    .text.PLIC_EnableIRQ:00000000000000f0 .L0 
     /tmp/ccJdQ6R8.s:139    .text.PLIC_EnableIRQ:00000000000000fa .L0 
     /tmp/ccJdQ6R8.s:141    .text.PLIC_EnableIRQ:00000000000000fe .L0 
     /tmp/ccJdQ6R8.s:145    .text.PLIC_EnableIRQ:0000000000000108 .L0 
     /tmp/ccJdQ6R8.s:155    .text.PLIC_EnableIRQ:0000000000000120 .L0 
     /tmp/ccJdQ6R8.s:158    .text.PLIC_EnableIRQ:0000000000000122 .L0 
     /tmp/ccJdQ6R8.s:160    .text.PLIC_EnableIRQ:0000000000000126 .L0 
     /tmp/ccJdQ6R8.s:164    .text.PLIC_EnableIRQ:0000000000000130 .L0 
     /tmp/ccJdQ6R8.s:174    .text.PLIC_EnableIRQ:0000000000000148 .L0 
     /tmp/ccJdQ6R8.s:178    .text.PLIC_EnableIRQ:0000000000000150 .L0 
     /tmp/ccJdQ6R8.s:183    .text.PLIC_EnableIRQ:000000000000015c .L0 
     /tmp/ccJdQ6R8.s:187    .text.PLIC_EnableIRQ:0000000000000166 .L0 
     /tmp/ccJdQ6R8.s:189    .text.PLIC_EnableIRQ:000000000000016a .L0 
     /tmp/ccJdQ6R8.s:193    .text.PLIC_EnableIRQ:0000000000000174 .L0 
     /tmp/ccJdQ6R8.s:203    .text.PLIC_EnableIRQ:000000000000018c .L0 
     /tmp/ccJdQ6R8.s:206    .text.PLIC_EnableIRQ:000000000000018e .L0 
     /tmp/ccJdQ6R8.s:208    .text.PLIC_EnableIRQ:0000000000000192 .L0 
     /tmp/ccJdQ6R8.s:212    .text.PLIC_EnableIRQ:000000000000019c .L0 
     /tmp/ccJdQ6R8.s:222    .text.PLIC_EnableIRQ:00000000000001b4 .L0 
     /tmp/ccJdQ6R8.s:226    .text.PLIC_EnableIRQ:00000000000001bc .L0 
     /tmp/ccJdQ6R8.s:231    .text.PLIC_EnableIRQ:00000000000001c8 .L0 
     /tmp/ccJdQ6R8.s:235    .text.PLIC_EnableIRQ:00000000000001d2 .L0 
     /tmp/ccJdQ6R8.s:237    .text.PLIC_EnableIRQ:00000000000001d6 .L0 
     /tmp/ccJdQ6R8.s:241    .text.PLIC_EnableIRQ:00000000000001e0 .L0 
     /tmp/ccJdQ6R8.s:251    .text.PLIC_EnableIRQ:00000000000001f8 .L0 
     /tmp/ccJdQ6R8.s:254    .text.PLIC_EnableIRQ:00000000000001fa .L0 
     /tmp/ccJdQ6R8.s:256    .text.PLIC_EnableIRQ:00000000000001fe .L0 
     /tmp/ccJdQ6R8.s:260    .text.PLIC_EnableIRQ:0000000000000208 .L0 
     /tmp/ccJdQ6R8.s:270    .text.PLIC_EnableIRQ:0000000000000220 .L0 
     /tmp/ccJdQ6R8.s:274    .text.PLIC_EnableIRQ:0000000000000228 .L0 
     /tmp/ccJdQ6R8.s:279    .text.PLIC_EnableIRQ:0000000000000234 .L0 
     /tmp/ccJdQ6R8.s:283    .text.PLIC_EnableIRQ:000000000000023e .L0 
     /tmp/ccJdQ6R8.s:285    .text.PLIC_EnableIRQ:0000000000000242 .L0 
     /tmp/ccJdQ6R8.s:289    .text.PLIC_EnableIRQ:000000000000024c .L0 
     /tmp/ccJdQ6R8.s:299    .text.PLIC_EnableIRQ:0000000000000264 .L0 
     /tmp/ccJdQ6R8.s:302    .text.PLIC_EnableIRQ:0000000000000266 .L0 
     /tmp/ccJdQ6R8.s:305    .text.PLIC_EnableIRQ:0000000000000268 .L0 
     /tmp/ccJdQ6R8.s:307    .text.PLIC_EnableIRQ:000000000000026c .L0 
     /tmp/ccJdQ6R8.s:308    .text.PLIC_EnableIRQ:000000000000026c .L0 
     /tmp/ccJdQ6R8.s:310    .text.PLIC_EnableIRQ:000000000000026e .L0 
     /tmp/ccJdQ6R8.s:312    .text.PLIC_EnableIRQ:0000000000000270 .L0 
     /tmp/ccJdQ6R8.s:318    .text.PLIC_DisableIRQ:0000000000000000 PLIC_DisableIRQ
     /tmp/ccJdQ6R8.s:321    .text.PLIC_DisableIRQ:0000000000000000 .L0 
     /tmp/ccJdQ6R8.s:322    .text.PLIC_DisableIRQ:0000000000000000 .L0 
     /tmp/ccJdQ6R8.s:323    .text.PLIC_DisableIRQ:0000000000000002 .L0 
     /tmp/ccJdQ6R8.s:325    .text.PLIC_DisableIRQ:0000000000000004 .L0 
     /tmp/ccJdQ6R8.s:327    .text.PLIC_DisableIRQ:0000000000000006 .L0 
/home/vinay/Desktop/softconsole_watershed/Water-shed/src/platform/mpfs_hal/common/mss_plic.h:694    .text.PLIC_DisableIRQ:000000000000000c .L0 
     /tmp/ccJdQ6R8.s:341    .text.PLIC_DisableIRQ:0000000000000018 .L0 
     /tmp/ccJdQ6R8.s:343    .text.PLIC_DisableIRQ:000000000000001c .L0 
     /tmp/ccJdQ6R8.s:367    .text.PLIC_DisableIRQ:000000000000004a .L0 
     /tmp/ccJdQ6R8.s:369    .text.PLIC_DisableIRQ:000000000000004e .L0 
     /tmp/ccJdQ6R8.s:373    .text.PLIC_DisableIRQ:0000000000000058 .L0 
     /tmp/ccJdQ6R8.s:383    .text.PLIC_DisableIRQ:0000000000000070 .L0 
     /tmp/ccJdQ6R8.s:387    .text.PLIC_DisableIRQ:0000000000000078 .L0 
     /tmp/ccJdQ6R8.s:392    .text.PLIC_DisableIRQ:0000000000000082 .L0 
     /tmp/ccJdQ6R8.s:395    .text.PLIC_DisableIRQ:000000000000008a .L0 
     /tmp/ccJdQ6R8.s:399    .text.PLIC_DisableIRQ:0000000000000094 .L0 
     /tmp/ccJdQ6R8.s:401    .text.PLIC_DisableIRQ:0000000000000098 .L0 
     /tmp/ccJdQ6R8.s:405    .text.PLIC_DisableIRQ:00000000000000a2 .L0 
     /tmp/ccJdQ6R8.s:415    .text.PLIC_DisableIRQ:00000000000000ba .L0 
     /tmp/ccJdQ6R8.s:418    .text.PLIC_DisableIRQ:00000000000000bc .L0 
     /tmp/ccJdQ6R8.s:420    .text.PLIC_DisableIRQ:00000000000000c0 .L0 
     /tmp/ccJdQ6R8.s:424    .text.PLIC_DisableIRQ:00000000000000ca .L0 
     /tmp/ccJdQ6R8.s:434    .text.PLIC_DisableIRQ:00000000000000e2 .L0 
     /tmp/ccJdQ6R8.s:438    .text.PLIC_DisableIRQ:00000000000000ea .L0 
     /tmp/ccJdQ6R8.s:443    .text.PLIC_DisableIRQ:00000000000000f4 .L0 
     /tmp/ccJdQ6R8.s:446    .text.PLIC_DisableIRQ:00000000000000fc .L0 
     /tmp/ccJdQ6R8.s:450    .text.PLIC_DisableIRQ:0000000000000106 .L0 
     /tmp/ccJdQ6R8.s:452    .text.PLIC_DisableIRQ:000000000000010a .L0 
     /tmp/ccJdQ6R8.s:456    .text.PLIC_DisableIRQ:0000000000000114 .L0 
     /tmp/ccJdQ6R8.s:466    .text.PLIC_DisableIRQ:000000000000012c .L0 
     /tmp/ccJdQ6R8.s:469    .text.PLIC_DisableIRQ:000000000000012e .L0 
     /tmp/ccJdQ6R8.s:471    .text.PLIC_DisableIRQ:0000000000000132 .L0 
     /tmp/ccJdQ6R8.s:475    .text.PLIC_DisableIRQ:000000000000013c .L0 
     /tmp/ccJdQ6R8.s:485    .text.PLIC_DisableIRQ:0000000000000154 .L0 
     /tmp/ccJdQ6R8.s:489    .text.PLIC_DisableIRQ:000000000000015c .L0 
     /tmp/ccJdQ6R8.s:494    .text.PLIC_DisableIRQ:0000000000000166 .L0 
     /tmp/ccJdQ6R8.s:497    .text.PLIC_DisableIRQ:000000000000016e .L0 
     /tmp/ccJdQ6R8.s:501    .text.PLIC_DisableIRQ:0000000000000178 .L0 
     /tmp/ccJdQ6R8.s:503    .text.PLIC_DisableIRQ:000000000000017c .L0 
     /tmp/ccJdQ6R8.s:507    .text.PLIC_DisableIRQ:0000000000000186 .L0 
     /tmp/ccJdQ6R8.s:517    .text.PLIC_DisableIRQ:000000000000019e .L0 
     /tmp/ccJdQ6R8.s:520    .text.PLIC_DisableIRQ:00000000000001a0 .L0 
     /tmp/ccJdQ6R8.s:522    .text.PLIC_DisableIRQ:00000000000001a4 .L0 
     /tmp/ccJdQ6R8.s:526    .text.PLIC_DisableIRQ:00000000000001ae .L0 
     /tmp/ccJdQ6R8.s:536    .text.PLIC_DisableIRQ:00000000000001c6 .L0 
     /tmp/ccJdQ6R8.s:540    .text.PLIC_DisableIRQ:00000000000001ce .L0 
     /tmp/ccJdQ6R8.s:545    .text.PLIC_DisableIRQ:00000000000001d8 .L0 
     /tmp/ccJdQ6R8.s:548    .text.PLIC_DisableIRQ:00000000000001e0 .L0 
     /tmp/ccJdQ6R8.s:552    .text.PLIC_DisableIRQ:00000000000001ea .L0 
     /tmp/ccJdQ6R8.s:554    .text.PLIC_DisableIRQ:00000000000001ee .L0 
     /tmp/ccJdQ6R8.s:558    .text.PLIC_DisableIRQ:00000000000001f8 .L0 
     /tmp/ccJdQ6R8.s:568    .text.PLIC_DisableIRQ:0000000000000210 .L0 
     /tmp/ccJdQ6R8.s:571    .text.PLIC_DisableIRQ:0000000000000212 .L0 
     /tmp/ccJdQ6R8.s:573    .text.PLIC_DisableIRQ:0000000000000216 .L0 
     /tmp/ccJdQ6R8.s:577    .text.PLIC_DisableIRQ:0000000000000220 .L0 
     /tmp/ccJdQ6R8.s:587    .text.PLIC_DisableIRQ:0000000000000238 .L0 
     /tmp/ccJdQ6R8.s:591    .text.PLIC_DisableIRQ:0000000000000240 .L0 
     /tmp/ccJdQ6R8.s:596    .text.PLIC_DisableIRQ:000000000000024a .L0 
     /tmp/ccJdQ6R8.s:599    .text.PLIC_DisableIRQ:0000000000000252 .L0 
     /tmp/ccJdQ6R8.s:603    .text.PLIC_DisableIRQ:000000000000025c .L0 
     /tmp/ccJdQ6R8.s:605    .text.PLIC_DisableIRQ:0000000000000260 .L0 
     /tmp/ccJdQ6R8.s:609    .text.PLIC_DisableIRQ:000000000000026a .L0 
     /tmp/ccJdQ6R8.s:619    .text.PLIC_DisableIRQ:0000000000000282 .L0 
     /tmp/ccJdQ6R8.s:622    .text.PLIC_DisableIRQ:0000000000000284 .L0 
     /tmp/ccJdQ6R8.s:625    .text.PLIC_DisableIRQ:0000000000000286 .L0 
     /tmp/ccJdQ6R8.s:627    .text.PLIC_DisableIRQ:000000000000028a .L0 
     /tmp/ccJdQ6R8.s:628    .text.PLIC_DisableIRQ:000000000000028a .L0 
     /tmp/ccJdQ6R8.s:630    .text.PLIC_DisableIRQ:000000000000028c .L0 
     /tmp/ccJdQ6R8.s:632    .text.PLIC_DisableIRQ:000000000000028e .L0 
     /tmp/ccJdQ6R8.s:639    .rodata.g_gpio_irqn_lut:0000000000000000 g_gpio_irqn_lut
     /tmp/ccJdQ6R8.s:685    .text.MSS_GPIO_init:0000000000000000 MSS_GPIO_init
     /tmp/ccJdQ6R8.s:689    .text.MSS_GPIO_init:0000000000000000 .L0 
     /tmp/ccJdQ6R8.s:690    .text.MSS_GPIO_init:0000000000000000 .L0 
     /tmp/ccJdQ6R8.s:691    .text.MSS_GPIO_init:0000000000000002 .L0 
     /tmp/ccJdQ6R8.s:693    .text.MSS_GPIO_init:0000000000000004 .L0 
     /tmp/ccJdQ6R8.s:695    .text.MSS_GPIO_init:0000000000000006 .L0 
     /tmp/ccJdQ6R8.s:698    .text.MSS_GPIO_init:000000000000000a .L0 
     /tmp/ccJdQ6R8.s:702    .text.MSS_GPIO_init:0000000000000014 .L0 
     /tmp/ccJdQ6R8.s:704    .text.MSS_GPIO_init:0000000000000018 .L0 
     /tmp/ccJdQ6R8.s:705    .text.MSS_GPIO_init:0000000000000018 .L0 
     /tmp/ccJdQ6R8.s:707    .text.MSS_GPIO_init:000000000000001a .L0 
     /tmp/ccJdQ6R8.s:709    .text.MSS_GPIO_init:000000000000001c .L0 
     /tmp/ccJdQ6R8.s:716    .text.MSS_GPIO_config:0000000000000000 MSS_GPIO_config
     /tmp/ccJdQ6R8.s:719    .text.MSS_GPIO_config:0000000000000000 .L0 
     /tmp/ccJdQ6R8.s:720    .text.MSS_GPIO_config:0000000000000000 .L0 
     /tmp/ccJdQ6R8.s:721    .text.MSS_GPIO_config:0000000000000002 .L0 
     /tmp/ccJdQ6R8.s:724    .text.MSS_GPIO_config:0000000000000006 .L0 
     /tmp/ccJdQ6R8.s:725    .text.MSS_GPIO_config:0000000000000006 .L0 
     /tmp/ccJdQ6R8.s:727    .text.MSS_GPIO_config:0000000000000008 .L0 
     /tmp/ccJdQ6R8.s:735    .text.MSS_GPIO_config:000000000000001a .L0 
     /tmp/ccJdQ6R8.s:1646   .text.gpio_number_validate:0000000000000000 gpio_number_validate
     /tmp/ccJdQ6R8.s:741    .text.MSS_GPIO_config:000000000000002e .L0 
     /tmp/ccJdQ6R8.s:743    .text.MSS_GPIO_config:0000000000000030 .L0 
     /tmp/ccJdQ6R8.s:750    .text.MSS_GPIO_config:0000000000000042 .L0 
../src/platform/drivers/mss/mss_gpio/mss_gpio.c:153    .text.MSS_GPIO_config:0000000000000044 .L0 
     /tmp/ccJdQ6R8.s:760    .text.MSS_GPIO_config:0000000000000046 .L0 
     /tmp/ccJdQ6R8.s:762    .text.MSS_GPIO_config:000000000000004a .L0 
     /tmp/ccJdQ6R8.s:764    .text.MSS_GPIO_config:000000000000004c .L0 
     /tmp/ccJdQ6R8.s:765    .text.MSS_GPIO_config:000000000000004c .L0 
     /tmp/ccJdQ6R8.s:767    .text.MSS_GPIO_config:000000000000004e .L0 
     /tmp/ccJdQ6R8.s:769    .text.MSS_GPIO_config:0000000000000050 .L0 
     /tmp/ccJdQ6R8.s:776    .text.MSS_GPIO_config_byte:0000000000000000 MSS_GPIO_config_byte
     /tmp/ccJdQ6R8.s:779    .text.MSS_GPIO_config_byte:0000000000000000 .L0 
     /tmp/ccJdQ6R8.s:780    .text.MSS_GPIO_config_byte:0000000000000000 .L0 
     /tmp/ccJdQ6R8.s:781    .text.MSS_GPIO_config_byte:0000000000000002 .L0 
     /tmp/ccJdQ6R8.s:783    .text.MSS_GPIO_config_byte:0000000000000004 .L0 
     /tmp/ccJdQ6R8.s:785    .text.MSS_GPIO_config_byte:0000000000000006 .L0 
     /tmp/ccJdQ6R8.s:793    .text.MSS_GPIO_config_byte:0000000000000018 .L0 
     /tmp/ccJdQ6R8.s:797    .text.MSS_GPIO_config_byte:0000000000000024 .L0 
     /tmp/ccJdQ6R8.s:802    .text.MSS_GPIO_config_byte:0000000000000030 .L0 
../src/platform/drivers/mss/mss_gpio/mss_gpio.c:171    .text.MSS_GPIO_config_byte:0000000000000038 .L0 
     /tmp/ccJdQ6R8.s:814    .text.MSS_GPIO_config_byte:000000000000003c .L0 
     /tmp/ccJdQ6R8.s:818    .text.MSS_GPIO_config_byte:0000000000000048 .L0 
     /tmp/ccJdQ6R8.s:823    .text.MSS_GPIO_config_byte:0000000000000054 .L0 
../src/platform/drivers/mss/mss_gpio/mss_gpio.c:176    .text.MSS_GPIO_config_byte:0000000000000062 .L0 
     /tmp/ccJdQ6R8.s:836    .text.MSS_GPIO_config_byte:0000000000000066 .L0 
     /tmp/ccJdQ6R8.s:840    .text.MSS_GPIO_config_byte:0000000000000072 .L0 
     /tmp/ccJdQ6R8.s:845    .text.MSS_GPIO_config_byte:000000000000007e .L0 
../src/platform/drivers/mss/mss_gpio/mss_gpio.c:181    .text.MSS_GPIO_config_byte:000000000000008c .L0 
     /tmp/ccJdQ6R8.s:858    .text.MSS_GPIO_config_byte:0000000000000090 .L0 
     /tmp/ccJdQ6R8.s:867    .text.MSS_GPIO_config_byte:00000000000000a6 .L0 
     /tmp/ccJdQ6R8.s:869    .text.MSS_GPIO_config_byte:00000000000000aa .L0 
     /tmp/ccJdQ6R8.s:870    .text.MSS_GPIO_config_byte:00000000000000aa .L0 
     /tmp/ccJdQ6R8.s:872    .text.MSS_GPIO_config_byte:00000000000000ac .L0 
     /tmp/ccJdQ6R8.s:874    .text.MSS_GPIO_config_byte:00000000000000ae .L0 
     /tmp/ccJdQ6R8.s:881    .text.MSS_GPIO_config_all:0000000000000000 MSS_GPIO_config_all
     /tmp/ccJdQ6R8.s:884    .text.MSS_GPIO_config_all:0000000000000000 .L0 
     /tmp/ccJdQ6R8.s:885    .text.MSS_GPIO_config_all:0000000000000000 .L0 
     /tmp/ccJdQ6R8.s:886    .text.MSS_GPIO_config_all:0000000000000002 .L0 
     /tmp/ccJdQ6R8.s:888    .text.MSS_GPIO_config_all:0000000000000004 .L0 
     /tmp/ccJdQ6R8.s:890    .text.MSS_GPIO_config_all:0000000000000006 .L0 
     /tmp/ccJdQ6R8.s:895    .text.MSS_GPIO_config_all:0000000000000010 .L0 
     /tmp/ccJdQ6R8.s:899    .text.MSS_GPIO_config_all:000000000000001c .L0 
     /tmp/ccJdQ6R8.s:901    .text.MSS_GPIO_config_all:0000000000000020 .L0 
     /tmp/ccJdQ6R8.s:902    .text.MSS_GPIO_config_all:0000000000000020 .L0 
     /tmp/ccJdQ6R8.s:904    .text.MSS_GPIO_config_all:0000000000000022 .L0 
     /tmp/ccJdQ6R8.s:906    .text.MSS_GPIO_config_all:0000000000000024 .L0 
     /tmp/ccJdQ6R8.s:913    .text.MSS_GPIO_set_output:0000000000000000 MSS_GPIO_set_output
     /tmp/ccJdQ6R8.s:916    .text.MSS_GPIO_set_output:0000000000000000 .L0 
     /tmp/ccJdQ6R8.s:917    .text.MSS_GPIO_set_output:0000000000000000 .L0 
     /tmp/ccJdQ6R8.s:918    .text.MSS_GPIO_set_output:0000000000000002 .L0 
     /tmp/ccJdQ6R8.s:921    .text.MSS_GPIO_set_output:0000000000000006 .L0 
     /tmp/ccJdQ6R8.s:922    .text.MSS_GPIO_set_output:0000000000000006 .L0 
     /tmp/ccJdQ6R8.s:924    .text.MSS_GPIO_set_output:0000000000000008 .L0 
     /tmp/ccJdQ6R8.s:932    .text.MSS_GPIO_set_output:000000000000001a .L0 
     /tmp/ccJdQ6R8.s:938    .text.MSS_GPIO_set_output:000000000000002e .L0 
     /tmp/ccJdQ6R8.s:940    .text.MSS_GPIO_set_output:0000000000000030 .L0 
     /tmp/ccJdQ6R8.s:944    .text.MSS_GPIO_set_output:000000000000003a .L0 
     /tmp/ccJdQ6R8.s:949    .text.MSS_GPIO_set_output:0000000000000048 .L0 
     /tmp/ccJdQ6R8.s:952    .text.MSS_GPIO_set_output:0000000000000050 .L0 
     /tmp/ccJdQ6R8.s:955    .text.MSS_GPIO_set_output:0000000000000052 .L0 
     /tmp/ccJdQ6R8.s:960    .text.MSS_GPIO_set_output:0000000000000060 .L0 
     /tmp/ccJdQ6R8.s:963    .text.MSS_GPIO_set_output:0000000000000068 .L0 
../src/platform/drivers/mss/mss_gpio/mss_gpio.c:231    .text.MSS_GPIO_set_output:000000000000006a .L0 
     /tmp/ccJdQ6R8.s:973    .text.MSS_GPIO_set_output:000000000000006c .L0 
     /tmp/ccJdQ6R8.s:975    .text.MSS_GPIO_set_output:0000000000000070 .L0 
     /tmp/ccJdQ6R8.s:977    .text.MSS_GPIO_set_output:0000000000000072 .L0 
     /tmp/ccJdQ6R8.s:978    .text.MSS_GPIO_set_output:0000000000000072 .L0 
     /tmp/ccJdQ6R8.s:980    .text.MSS_GPIO_set_output:0000000000000074 .L0 
     /tmp/ccJdQ6R8.s:982    .text.MSS_GPIO_set_output:0000000000000076 .L0 
     /tmp/ccJdQ6R8.s:989    .text.MSS_GPIO_drive_inout:0000000000000000 MSS_GPIO_drive_inout
     /tmp/ccJdQ6R8.s:992    .text.MSS_GPIO_drive_inout:0000000000000000 .L0 
     /tmp/ccJdQ6R8.s:993    .text.MSS_GPIO_drive_inout:0000000000000000 .L0 
     /tmp/ccJdQ6R8.s:994    .text.MSS_GPIO_drive_inout:0000000000000002 .L0 
     /tmp/ccJdQ6R8.s:997    .text.MSS_GPIO_drive_inout:0000000000000006 .L0 
     /tmp/ccJdQ6R8.s:998    .text.MSS_GPIO_drive_inout:0000000000000006 .L0 
     /tmp/ccJdQ6R8.s:1000   .text.MSS_GPIO_drive_inout:0000000000000008 .L0 
     /tmp/ccJdQ6R8.s:1008   .text.MSS_GPIO_drive_inout:000000000000001a .L0 
     /tmp/ccJdQ6R8.s:1014   .text.MSS_GPIO_drive_inout:000000000000002e .L0 
     /tmp/ccJdQ6R8.s:1016   .text.MSS_GPIO_drive_inout:0000000000000030 .L0 
     /tmp/ccJdQ6R8.s:1030   .text.MSS_GPIO_drive_inout:0000000000000056 .L0 
     /tmp/ccJdQ6R8.s:1035   .text.MSS_GPIO_drive_inout:0000000000000064 .L0 
     /tmp/ccJdQ6R8.s:1038   .text.MSS_GPIO_drive_inout:000000000000006c .L0 
     /tmp/ccJdQ6R8.s:1045   .text.MSS_GPIO_drive_inout:000000000000007e .L0 
     /tmp/ccJdQ6R8.s:1049   .text.MSS_GPIO_drive_inout:000000000000008a .L0 
     /tmp/ccJdQ6R8.s:1056   .text.MSS_GPIO_drive_inout:000000000000009c .L0 
     /tmp/ccJdQ6R8.s:1059   .text.MSS_GPIO_drive_inout:000000000000009e .L0 
     /tmp/ccJdQ6R8.s:1064   .text.MSS_GPIO_drive_inout:00000000000000ac .L0 
     /tmp/ccJdQ6R8.s:1067   .text.MSS_GPIO_drive_inout:00000000000000b4 .L0 
     /tmp/ccJdQ6R8.s:1074   .text.MSS_GPIO_drive_inout:00000000000000c6 .L0 
     /tmp/ccJdQ6R8.s:1078   .text.MSS_GPIO_drive_inout:00000000000000d2 .L0 
     /tmp/ccJdQ6R8.s:1085   .text.MSS_GPIO_drive_inout:00000000000000e4 .L0 
     /tmp/ccJdQ6R8.s:1088   .text.MSS_GPIO_drive_inout:00000000000000e6 .L0 
     /tmp/ccJdQ6R8.s:1095   .text.MSS_GPIO_drive_inout:00000000000000f8 .L0 
     /tmp/ccJdQ6R8.s:1099   .text.MSS_GPIO_drive_inout:0000000000000102 .L0 
     /tmp/ccJdQ6R8.s:1106   .text.MSS_GPIO_drive_inout:0000000000000114 .L0 
../src/platform/drivers/mss/mss_gpio/mss_gpio.c:279    .text.MSS_GPIO_drive_inout:0000000000000116 .L0 
     /tmp/ccJdQ6R8.s:1115   .text.MSS_GPIO_drive_inout:0000000000000118 .L0 
../src/platform/drivers/mss/mss_gpio/mss_gpio.c:285    .text.MSS_GPIO_drive_inout:000000000000011c .L0 
     /tmp/ccJdQ6R8.s:1126   .text.MSS_GPIO_drive_inout:000000000000011e .L0 
     /tmp/ccJdQ6R8.s:1128   .text.MSS_GPIO_drive_inout:0000000000000122 .L0 
     /tmp/ccJdQ6R8.s:1130   .text.MSS_GPIO_drive_inout:0000000000000124 .L0 
     /tmp/ccJdQ6R8.s:1131   .text.MSS_GPIO_drive_inout:0000000000000124 .L0 
     /tmp/ccJdQ6R8.s:1133   .text.MSS_GPIO_drive_inout:0000000000000126 .L0 
     /tmp/ccJdQ6R8.s:1135   .text.MSS_GPIO_drive_inout:0000000000000128 .L0 
     /tmp/ccJdQ6R8.s:1142   .text.MSS_GPIO_enable_irq:0000000000000000 MSS_GPIO_enable_irq
     /tmp/ccJdQ6R8.s:1145   .text.MSS_GPIO_enable_irq:0000000000000000 .L0 
     /tmp/ccJdQ6R8.s:1146   .text.MSS_GPIO_enable_irq:0000000000000000 .L0 
     /tmp/ccJdQ6R8.s:1147   .text.MSS_GPIO_enable_irq:0000000000000002 .L0 
     /tmp/ccJdQ6R8.s:1150   .text.MSS_GPIO_enable_irq:0000000000000006 .L0 
     /tmp/ccJdQ6R8.s:1151   .text.MSS_GPIO_enable_irq:0000000000000006 .L0 
     /tmp/ccJdQ6R8.s:1153   .text.MSS_GPIO_enable_irq:0000000000000008 .L0 
     /tmp/ccJdQ6R8.s:1158   .text.MSS_GPIO_enable_irq:0000000000000012 .L0 
     /tmp/ccJdQ6R8.s:1164   .text.MSS_GPIO_enable_irq:0000000000000026 .L0 
     /tmp/ccJdQ6R8.s:1166   .text.MSS_GPIO_enable_irq:0000000000000028 .L0 
     /tmp/ccJdQ6R8.s:1170   .text.MSS_GPIO_enable_irq:0000000000000032 .L0 
     /tmp/ccJdQ6R8.s:1176   .text.MSS_GPIO_enable_irq:0000000000000040 .L0 
     /tmp/ccJdQ6R8.s:1180   .text.MSS_GPIO_enable_irq:000000000000004a .L0 
     /tmp/ccJdQ6R8.s:1184   .text.MSS_GPIO_enable_irq:0000000000000054 .L0 
     /tmp/ccJdQ6R8.s:1189   .text.MSS_GPIO_enable_irq:000000000000005e .L0 
     /tmp/ccJdQ6R8.s:1193   .text.MSS_GPIO_enable_irq:000000000000006a .L0 
     /tmp/ccJdQ6R8.s:1198   .text.MSS_GPIO_enable_irq:0000000000000076 .L0 
     /tmp/ccJdQ6R8.s:1208   .text.MSS_GPIO_enable_irq:0000000000000094 .L0 
     /tmp/ccJdQ6R8.s:1212   .text.MSS_GPIO_enable_irq:00000000000000a0 .L0 
     /tmp/ccJdQ6R8.s:1217   .text.MSS_GPIO_enable_irq:00000000000000ac .L0 
     /tmp/ccJdQ6R8.s:1221   .text.MSS_GPIO_enable_irq:00000000000000b4 .L0 
     /tmp/ccJdQ6R8.s:1232   .text.MSS_GPIO_enable_irq:00000000000000d2 .L0 
     /tmp/ccJdQ6R8.s:1236   .text.MSS_GPIO_enable_irq:00000000000000de .L0 
     /tmp/ccJdQ6R8.s:1241   .text.MSS_GPIO_enable_irq:00000000000000ea .L0 
../src/platform/drivers/mss/mss_gpio/mss_gpio.c:321    .text.MSS_GPIO_enable_irq:0000000000000108 .L0 
     /tmp/ccJdQ6R8.s:1257   .text.MSS_GPIO_enable_irq:000000000000010a .L0 
../src/platform/drivers/mss/mss_gpio/mss_gpio.c:326    .text.MSS_GPIO_enable_irq:000000000000010c .L0 
     /tmp/ccJdQ6R8.s:1266   .text.MSS_GPIO_enable_irq:000000000000010e .L0 
     /tmp/ccJdQ6R8.s:1270   .text.MSS_GPIO_enable_irq:0000000000000110 .L0 
     /tmp/ccJdQ6R8.s:1272   .text.MSS_GPIO_enable_irq:0000000000000114 .L0 
     /tmp/ccJdQ6R8.s:1274   .text.MSS_GPIO_enable_irq:0000000000000116 .L0 
     /tmp/ccJdQ6R8.s:1275   .text.MSS_GPIO_enable_irq:0000000000000116 .L0 
     /tmp/ccJdQ6R8.s:1277   .text.MSS_GPIO_enable_irq:0000000000000118 .L0 
     /tmp/ccJdQ6R8.s:1279   .text.MSS_GPIO_enable_irq:000000000000011a .L0 
     /tmp/ccJdQ6R8.s:1286   .text.MSS_GPIO_disable_irq:0000000000000000 MSS_GPIO_disable_irq
     /tmp/ccJdQ6R8.s:1289   .text.MSS_GPIO_disable_irq:0000000000000000 .L0 
     /tmp/ccJdQ6R8.s:1290   .text.MSS_GPIO_disable_irq:0000000000000000 .L0 
     /tmp/ccJdQ6R8.s:1291   .text.MSS_GPIO_disable_irq:0000000000000002 .L0 
     /tmp/ccJdQ6R8.s:1294   .text.MSS_GPIO_disable_irq:0000000000000006 .L0 
     /tmp/ccJdQ6R8.s:1295   .text.MSS_GPIO_disable_irq:0000000000000006 .L0 
     /tmp/ccJdQ6R8.s:1297   .text.MSS_GPIO_disable_irq:0000000000000008 .L0 
     /tmp/ccJdQ6R8.s:1302   .text.MSS_GPIO_disable_irq:0000000000000012 .L0 
     /tmp/ccJdQ6R8.s:1308   .text.MSS_GPIO_disable_irq:0000000000000026 .L0 
     /tmp/ccJdQ6R8.s:1310   .text.MSS_GPIO_disable_irq:0000000000000028 .L0 
     /tmp/ccJdQ6R8.s:1314   .text.MSS_GPIO_disable_irq:0000000000000032 .L0 
     /tmp/ccJdQ6R8.s:1320   .text.MSS_GPIO_disable_irq:0000000000000040 .L0 
     /tmp/ccJdQ6R8.s:1324   .text.MSS_GPIO_disable_irq:000000000000004a .L0 
     /tmp/ccJdQ6R8.s:1328   .text.MSS_GPIO_disable_irq:0000000000000052 .L0 
     /tmp/ccJdQ6R8.s:1333   .text.MSS_GPIO_disable_irq:000000000000005c .L0 
     /tmp/ccJdQ6R8.s:1337   .text.MSS_GPIO_disable_irq:0000000000000068 .L0 
     /tmp/ccJdQ6R8.s:1342   .text.MSS_GPIO_disable_irq:0000000000000074 .L0 
     /tmp/ccJdQ6R8.s:1352   .text.MSS_GPIO_disable_irq:0000000000000092 .L0 
     /tmp/ccJdQ6R8.s:1356   .text.MSS_GPIO_disable_irq:000000000000009e .L0 
     /tmp/ccJdQ6R8.s:1361   .text.MSS_GPIO_disable_irq:00000000000000aa .L0 
     /tmp/ccJdQ6R8.s:1365   .text.MSS_GPIO_disable_irq:00000000000000b2 .L0 
     /tmp/ccJdQ6R8.s:1376   .text.MSS_GPIO_disable_irq:00000000000000d0 .L0 
     /tmp/ccJdQ6R8.s:1380   .text.MSS_GPIO_disable_irq:00000000000000dc .L0 
     /tmp/ccJdQ6R8.s:1385   .text.MSS_GPIO_disable_irq:00000000000000e8 .L0 
../src/platform/drivers/mss/mss_gpio/mss_gpio.c:363    .text.MSS_GPIO_disable_irq:00000000000000f6 .L0 
     /tmp/ccJdQ6R8.s:1396   .text.MSS_GPIO_disable_irq:00000000000000f8 .L0 
../src/platform/drivers/mss/mss_gpio/mss_gpio.c:368    .text.MSS_GPIO_disable_irq:00000000000000fa .L0 
     /tmp/ccJdQ6R8.s:1405   .text.MSS_GPIO_disable_irq:00000000000000fc .L0 
     /tmp/ccJdQ6R8.s:1409   .text.MSS_GPIO_disable_irq:00000000000000fe .L0 
     /tmp/ccJdQ6R8.s:1411   .text.MSS_GPIO_disable_irq:0000000000000102 .L0 
     /tmp/ccJdQ6R8.s:1413   .text.MSS_GPIO_disable_irq:0000000000000104 .L0 
     /tmp/ccJdQ6R8.s:1414   .text.MSS_GPIO_disable_irq:0000000000000104 .L0 
     /tmp/ccJdQ6R8.s:1416   .text.MSS_GPIO_disable_irq:0000000000000106 .L0 
     /tmp/ccJdQ6R8.s:1418   .text.MSS_GPIO_disable_irq:0000000000000108 .L0 
     /tmp/ccJdQ6R8.s:1425   .text.MSS_GPIO_enable_nondirect_irq:0000000000000000 MSS_GPIO_enable_nondirect_irq
     /tmp/ccJdQ6R8.s:1428   .text.MSS_GPIO_enable_nondirect_irq:0000000000000000 .L0 
     /tmp/ccJdQ6R8.s:1429   .text.MSS_GPIO_enable_nondirect_irq:0000000000000000 .L0 
     /tmp/ccJdQ6R8.s:1430   .text.MSS_GPIO_enable_nondirect_irq:0000000000000002 .L0 
     /tmp/ccJdQ6R8.s:1433   .text.MSS_GPIO_enable_nondirect_irq:0000000000000006 .L0 
     /tmp/ccJdQ6R8.s:1434   .text.MSS_GPIO_enable_nondirect_irq:0000000000000006 .L0 
     /tmp/ccJdQ6R8.s:1436   .text.MSS_GPIO_enable_nondirect_irq:0000000000000008 .L0 
     /tmp/ccJdQ6R8.s:1439   .text.MSS_GPIO_enable_nondirect_irq:000000000000000c .L0 
     /tmp/ccJdQ6R8.s:1443   .text.MSS_GPIO_enable_nondirect_irq:0000000000000018 .L0 
     /tmp/ccJdQ6R8.s:1448   .text.MSS_GPIO_enable_nondirect_irq:0000000000000024 .L0 
     /tmp/ccJdQ6R8.s:1453   .text.MSS_GPIO_enable_nondirect_irq:0000000000000032 .L0 
     /tmp/ccJdQ6R8.s:1457   .text.MSS_GPIO_enable_nondirect_irq:000000000000003e .L0 
     /tmp/ccJdQ6R8.s:1462   .text.MSS_GPIO_enable_nondirect_irq:000000000000004a .L0 
     /tmp/ccJdQ6R8.s:1467   .text.MSS_GPIO_enable_nondirect_irq:0000000000000058 .L0 
     /tmp/ccJdQ6R8.s:1471   .text.MSS_GPIO_enable_nondirect_irq:0000000000000064 .L0 
     /tmp/ccJdQ6R8.s:1476   .text.MSS_GPIO_enable_nondirect_irq:0000000000000070 .L0 
../src/platform/drivers/mss/mss_gpio/mss_gpio.c:396    .text.MSS_GPIO_enable_nondirect_irq:000000000000007e .L0 
     /tmp/ccJdQ6R8.s:1488   .text.MSS_GPIO_enable_nondirect_irq:0000000000000080 .L0 
     /tmp/ccJdQ6R8.s:1490   .text.MSS_GPIO_enable_nondirect_irq:0000000000000084 .L0 
     /tmp/ccJdQ6R8.s:1492   .text.MSS_GPIO_enable_nondirect_irq:0000000000000086 .L0 
     /tmp/ccJdQ6R8.s:1493   .text.MSS_GPIO_enable_nondirect_irq:0000000000000086 .L0 
     /tmp/ccJdQ6R8.s:1495   .text.MSS_GPIO_enable_nondirect_irq:0000000000000088 .L0 
     /tmp/ccJdQ6R8.s:1497   .text.MSS_GPIO_enable_nondirect_irq:000000000000008a .L0 
     /tmp/ccJdQ6R8.s:1504   .text.MSS_GPIO_disable_nondirect_irq:0000000000000000 MSS_GPIO_disable_nondirect_irq
     /tmp/ccJdQ6R8.s:1507   .text.MSS_GPIO_disable_nondirect_irq:0000000000000000 .L0 
     /tmp/ccJdQ6R8.s:1508   .text.MSS_GPIO_disable_nondirect_irq:0000000000000000 .L0 
     /tmp/ccJdQ6R8.s:1509   .text.MSS_GPIO_disable_nondirect_irq:0000000000000002 .L0 
     /tmp/ccJdQ6R8.s:1512   .text.MSS_GPIO_disable_nondirect_irq:0000000000000006 .L0 
     /tmp/ccJdQ6R8.s:1513   .text.MSS_GPIO_disable_nondirect_irq:0000000000000006 .L0 
     /tmp/ccJdQ6R8.s:1515   .text.MSS_GPIO_disable_nondirect_irq:0000000000000008 .L0 
     /tmp/ccJdQ6R8.s:1518   .text.MSS_GPIO_disable_nondirect_irq:000000000000000c .L0 
     /tmp/ccJdQ6R8.s:1522   .text.MSS_GPIO_disable_nondirect_irq:0000000000000018 .L0 
     /tmp/ccJdQ6R8.s:1527   .text.MSS_GPIO_disable_nondirect_irq:0000000000000024 .L0 
     /tmp/ccJdQ6R8.s:1532   .text.MSS_GPIO_disable_nondirect_irq:0000000000000032 .L0 
     /tmp/ccJdQ6R8.s:1536   .text.MSS_GPIO_disable_nondirect_irq:000000000000003e .L0 
     /tmp/ccJdQ6R8.s:1541   .text.MSS_GPIO_disable_nondirect_irq:000000000000004a .L0 
     /tmp/ccJdQ6R8.s:1546   .text.MSS_GPIO_disable_nondirect_irq:0000000000000058 .L0 
     /tmp/ccJdQ6R8.s:1550   .text.MSS_GPIO_disable_nondirect_irq:0000000000000064 .L0 
     /tmp/ccJdQ6R8.s:1555   .text.MSS_GPIO_disable_nondirect_irq:0000000000000070 .L0 
../src/platform/drivers/mss/mss_gpio/mss_gpio.c:424    .text.MSS_GPIO_disable_nondirect_irq:000000000000007e .L0 
     /tmp/ccJdQ6R8.s:1567   .text.MSS_GPIO_disable_nondirect_irq:0000000000000080 .L0 
     /tmp/ccJdQ6R8.s:1569   .text.MSS_GPIO_disable_nondirect_irq:0000000000000084 .L0 
     /tmp/ccJdQ6R8.s:1571   .text.MSS_GPIO_disable_nondirect_irq:0000000000000086 .L0 
     /tmp/ccJdQ6R8.s:1572   .text.MSS_GPIO_disable_nondirect_irq:0000000000000086 .L0 
     /tmp/ccJdQ6R8.s:1574   .text.MSS_GPIO_disable_nondirect_irq:0000000000000088 .L0 
     /tmp/ccJdQ6R8.s:1576   .text.MSS_GPIO_disable_nondirect_irq:000000000000008a .L0 
     /tmp/ccJdQ6R8.s:1583   .text.MSS_GPIO_clear_irq:0000000000000000 MSS_GPIO_clear_irq
     /tmp/ccJdQ6R8.s:1586   .text.MSS_GPIO_clear_irq:0000000000000000 .L0 
     /tmp/ccJdQ6R8.s:1587   .text.MSS_GPIO_clear_irq:0000000000000000 .L0 
     /tmp/ccJdQ6R8.s:1588   .text.MSS_GPIO_clear_irq:0000000000000002 .L0 
     /tmp/ccJdQ6R8.s:1591   .text.MSS_GPIO_clear_irq:0000000000000006 .L0 
     /tmp/ccJdQ6R8.s:1592   .text.MSS_GPIO_clear_irq:0000000000000006 .L0 
     /tmp/ccJdQ6R8.s:1594   .text.MSS_GPIO_clear_irq:0000000000000008 .L0 
     /tmp/ccJdQ6R8.s:1599   .text.MSS_GPIO_clear_irq:0000000000000012 .L0 
     /tmp/ccJdQ6R8.s:1605   .text.MSS_GPIO_clear_irq:0000000000000026 .L0 
     /tmp/ccJdQ6R8.s:1607   .text.MSS_GPIO_clear_irq:0000000000000028 .L0 
     /tmp/ccJdQ6R8.s:1612   .text.MSS_GPIO_clear_irq:0000000000000036 .L0 
../src/platform/drivers/mss/mss_gpio/mss_gpio.c:441    .text.MSS_GPIO_clear_irq:000000000000003e .L0 
     /tmp/ccJdQ6R8.s:1621   .text.MSS_GPIO_clear_irq:0000000000000042 .L0 
../src/platform/drivers/mss/mss_gpio/mss_gpio.c:445    .text.MSS_GPIO_clear_irq:0000000000000044 .L0 
     /tmp/ccJdQ6R8.s:1631   .text.MSS_GPIO_clear_irq:0000000000000046 .L0 
     /tmp/ccJdQ6R8.s:1633   .text.MSS_GPIO_clear_irq:000000000000004a .L0 
     /tmp/ccJdQ6R8.s:1635   .text.MSS_GPIO_clear_irq:000000000000004c .L0 
     /tmp/ccJdQ6R8.s:1636   .text.MSS_GPIO_clear_irq:000000000000004c .L0 
     /tmp/ccJdQ6R8.s:1638   .text.MSS_GPIO_clear_irq:000000000000004e .L0 
     /tmp/ccJdQ6R8.s:1640   .text.MSS_GPIO_clear_irq:0000000000000050 .L0 
     /tmp/ccJdQ6R8.s:1649   .text.gpio_number_validate:0000000000000000 .L0 
     /tmp/ccJdQ6R8.s:1650   .text.gpio_number_validate:0000000000000000 .L0 
     /tmp/ccJdQ6R8.s:1651   .text.gpio_number_validate:0000000000000002 .L0 
     /tmp/ccJdQ6R8.s:1653   .text.gpio_number_validate:0000000000000004 .L0 
     /tmp/ccJdQ6R8.s:1655   .text.gpio_number_validate:0000000000000006 .L0 
     /tmp/ccJdQ6R8.s:1660   .text.gpio_number_validate:0000000000000010 .L0 
     /tmp/ccJdQ6R8.s:1664   .text.gpio_number_validate:000000000000001c .L0 
     /tmp/ccJdQ6R8.s:1669   .text.gpio_number_validate:0000000000000028 .L0 
     /tmp/ccJdQ6R8.s:1674   .text.gpio_number_validate:0000000000000036 .L0 
     /tmp/ccJdQ6R8.s:1679   .text.gpio_number_validate:000000000000003e .L0 
     /tmp/ccJdQ6R8.s:1683   .text.gpio_number_validate:000000000000004a .L0 
     /tmp/ccJdQ6R8.s:1688   .text.gpio_number_validate:0000000000000056 .L0 
     /tmp/ccJdQ6R8.s:1693   .text.gpio_number_validate:0000000000000064 .L0 
     /tmp/ccJdQ6R8.s:1698   .text.gpio_number_validate:000000000000006c .L0 
     /tmp/ccJdQ6R8.s:1702   .text.gpio_number_validate:0000000000000078 .L0 
     /tmp/ccJdQ6R8.s:1707   .text.gpio_number_validate:0000000000000084 .L0 
     /tmp/ccJdQ6R8.s:1712   .text.gpio_number_validate:0000000000000092 .L0 
     /tmp/ccJdQ6R8.s:1717   .text.gpio_number_validate:000000000000009a .L0 
     /tmp/ccJdQ6R8.s:1720   .text.gpio_number_validate:000000000000009e .L0 
     /tmp/ccJdQ6R8.s:1722   .text.gpio_number_validate:00000000000000a2 .L0 
     /tmp/ccJdQ6R8.s:1724   .text.gpio_number_validate:00000000000000a6 .L0 
     /tmp/ccJdQ6R8.s:1725   .text.gpio_number_validate:00000000000000a6 .L0 
     /tmp/ccJdQ6R8.s:1727   .text.gpio_number_validate:00000000000000a8 .L0 
     /tmp/ccJdQ6R8.s:1729   .text.gpio_number_validate:00000000000000aa .L0 
     /tmp/ccJdQ6R8.s:315    .text.PLIC_EnableIRQ:0000000000000270 .L0 
     /tmp/ccJdQ6R8.s:635    .text.PLIC_DisableIRQ:000000000000028e .L0 
     /tmp/ccJdQ6R8.s:712    .text.MSS_GPIO_init:000000000000001c .L0 
     /tmp/ccJdQ6R8.s:772    .text.MSS_GPIO_config:0000000000000050 .L0 
     /tmp/ccJdQ6R8.s:877    .text.MSS_GPIO_config_byte:00000000000000ae .L0 
     /tmp/ccJdQ6R8.s:909    .text.MSS_GPIO_config_all:0000000000000024 .L0 
     /tmp/ccJdQ6R8.s:985    .text.MSS_GPIO_set_output:0000000000000076 .L0 
     /tmp/ccJdQ6R8.s:1138   .text.MSS_GPIO_drive_inout:0000000000000128 .L0 
     /tmp/ccJdQ6R8.s:1282   .text.MSS_GPIO_enable_irq:000000000000011a .L0 
     /tmp/ccJdQ6R8.s:1421   .text.MSS_GPIO_disable_irq:0000000000000108 .L0 
     /tmp/ccJdQ6R8.s:1500   .text.MSS_GPIO_enable_nondirect_irq:000000000000008a .L0 
     /tmp/ccJdQ6R8.s:1579   .text.MSS_GPIO_disable_nondirect_irq:000000000000008a .L0 
     /tmp/ccJdQ6R8.s:1643   .text.MSS_GPIO_clear_irq:0000000000000050 .L0 
     /tmp/ccJdQ6R8.s:1732   .text.gpio_number_validate:00000000000000aa .L0 
                     .debug_frame:0000000000000000 .L0 
     /tmp/ccJdQ6R8.s:53     .rodata.PLIC_EnableIRQ:0000000000000000 .L4
     /tmp/ccJdQ6R8.s:43     .text.PLIC_EnableIRQ:000000000000002e .L0 
     /tmp/ccJdQ6R8.s:47     .text.PLIC_EnableIRQ:000000000000003e .L0 
     /tmp/ccJdQ6R8.s:300    .text.PLIC_EnableIRQ:0000000000000266 .L10
     /tmp/ccJdQ6R8.s:303    .text.PLIC_EnableIRQ:0000000000000268 .L9
     /tmp/ccJdQ6R8.s:60     .text.PLIC_EnableIRQ:000000000000004a .L8
     /tmp/ccJdQ6R8.s:108    .text.PLIC_EnableIRQ:00000000000000b6 .L7
     /tmp/ccJdQ6R8.s:156    .text.PLIC_EnableIRQ:0000000000000122 .L6
     /tmp/ccJdQ6R8.s:204    .text.PLIC_EnableIRQ:000000000000018e .L5
     /tmp/ccJdQ6R8.s:252    .text.PLIC_EnableIRQ:00000000000001fa .L3
     /tmp/ccJdQ6R8.s:358    .rodata.PLIC_DisableIRQ:0000000000000000 .L14
     /tmp/ccJdQ6R8.s:348    .text.PLIC_DisableIRQ:000000000000002e .L0 
     /tmp/ccJdQ6R8.s:352    .text.PLIC_DisableIRQ:000000000000003e .L0 
     /tmp/ccJdQ6R8.s:620    .text.PLIC_DisableIRQ:0000000000000284 .L20
     /tmp/ccJdQ6R8.s:623    .text.PLIC_DisableIRQ:0000000000000286 .L19
     /tmp/ccJdQ6R8.s:365    .text.PLIC_DisableIRQ:000000000000004a .L18
     /tmp/ccJdQ6R8.s:416    .text.PLIC_DisableIRQ:00000000000000bc .L17
     /tmp/ccJdQ6R8.s:467    .text.PLIC_DisableIRQ:000000000000012e .L16
     /tmp/ccJdQ6R8.s:518    .text.PLIC_DisableIRQ:00000000000001a0 .L15
     /tmp/ccJdQ6R8.s:569    .text.PLIC_DisableIRQ:0000000000000212 .L13
     /tmp/ccJdQ6R8.s:751    .text.MSS_GPIO_config:0000000000000044 .L23
     /tmp/ccJdQ6R8.s:758    .text.MSS_GPIO_config:0000000000000046 .L25
     /tmp/ccJdQ6R8.s:800    .text.MSS_GPIO_config_byte:0000000000000030 .L27
     /tmp/ccJdQ6R8.s:812    .text.MSS_GPIO_config_byte:000000000000003c .L28
     /tmp/ccJdQ6R8.s:865    .text.MSS_GPIO_config_byte:00000000000000a6 .L29
     /tmp/ccJdQ6R8.s:821    .text.MSS_GPIO_config_byte:0000000000000054 .L30
     /tmp/ccJdQ6R8.s:834    .text.MSS_GPIO_config_byte:0000000000000066 .L31
     /tmp/ccJdQ6R8.s:843    .text.MSS_GPIO_config_byte:000000000000007e .L32
     /tmp/ccJdQ6R8.s:856    .text.MSS_GPIO_config_byte:0000000000000090 .L33
     /tmp/ccJdQ6R8.s:964    .text.MSS_GPIO_set_output:000000000000006a .L36
     /tmp/ccJdQ6R8.s:953    .text.MSS_GPIO_set_output:0000000000000052 .L37
     /tmp/ccJdQ6R8.s:971    .text.MSS_GPIO_set_output:000000000000006c .L40
     /tmp/ccJdQ6R8.s:1117   .text.MSS_GPIO_drive_inout:000000000000011c .L42
     /tmp/ccJdQ6R8.s:1028   .text.MSS_GPIO_drive_inout:0000000000000056 .L43
     /tmp/ccJdQ6R8.s:1057   .text.MSS_GPIO_drive_inout:000000000000009e .L44
     /tmp/ccJdQ6R8.s:1086   .text.MSS_GPIO_drive_inout:00000000000000e6 .L45
     /tmp/ccJdQ6R8.s:1107   .text.MSS_GPIO_drive_inout:0000000000000116 .L50
     /tmp/ccJdQ6R8.s:1124   .text.MSS_GPIO_drive_inout:000000000000011e .L48
     /tmp/ccJdQ6R8.s:1198   .text.MSS_GPIO_enable_irq:0000000000000076 .L0 
     /tmp/ccJdQ6R8.s:1221   .text.MSS_GPIO_enable_irq:00000000000000b4 .L0 
     /tmp/ccJdQ6R8.s:1241   .text.MSS_GPIO_enable_irq:00000000000000ea .L0 
     /tmp/ccJdQ6R8.s:1258   .text.MSS_GPIO_enable_irq:000000000000010c .L52
     /tmp/ccJdQ6R8.s:1196   .text.MSS_GPIO_enable_irq:0000000000000076 .L53
     /tmp/ccJdQ6R8.s:1206   .text.MSS_GPIO_enable_irq:0000000000000094 .L54
     /tmp/ccJdQ6R8.s:1267   .text.MSS_GPIO_enable_irq:0000000000000110 .L60
     /tmp/ccJdQ6R8.s:1215   .text.MSS_GPIO_enable_irq:00000000000000ac .L56
     /tmp/ccJdQ6R8.s:1230   .text.MSS_GPIO_enable_irq:00000000000000d2 .L57
     /tmp/ccJdQ6R8.s:1239   .text.MSS_GPIO_enable_irq:00000000000000ea .L58
     /tmp/ccJdQ6R8.s:1249   .text.MSS_GPIO_enable_irq:0000000000000108 .L59
     /tmp/ccJdQ6R8.s:1268   .text.MSS_GPIO_enable_irq:0000000000000110 .L61
     /tmp/ccJdQ6R8.s:1342   .text.MSS_GPIO_disable_irq:0000000000000074 .L0 
     /tmp/ccJdQ6R8.s:1365   .text.MSS_GPIO_disable_irq:00000000000000b2 .L0 
     /tmp/ccJdQ6R8.s:1397   .text.MSS_GPIO_disable_irq:00000000000000fa .L63
     /tmp/ccJdQ6R8.s:1340   .text.MSS_GPIO_disable_irq:0000000000000074 .L64
     /tmp/ccJdQ6R8.s:1350   .text.MSS_GPIO_disable_irq:0000000000000092 .L65
     /tmp/ccJdQ6R8.s:1406   .text.MSS_GPIO_disable_irq:00000000000000fe .L71
     /tmp/ccJdQ6R8.s:1359   .text.MSS_GPIO_disable_irq:00000000000000aa .L67
     /tmp/ccJdQ6R8.s:1374   .text.MSS_GPIO_disable_irq:00000000000000d0 .L68
     /tmp/ccJdQ6R8.s:1383   .text.MSS_GPIO_disable_irq:00000000000000e8 .L69
     /tmp/ccJdQ6R8.s:1388   .text.MSS_GPIO_disable_irq:00000000000000f6 .L70
     /tmp/ccJdQ6R8.s:1407   .text.MSS_GPIO_disable_irq:00000000000000fe .L72
     /tmp/ccJdQ6R8.s:1446   .text.MSS_GPIO_enable_nondirect_irq:0000000000000024 .L74
     /tmp/ccJdQ6R8.s:1451   .text.MSS_GPIO_enable_nondirect_irq:0000000000000032 .L75
     /tmp/ccJdQ6R8.s:1486   .text.MSS_GPIO_enable_nondirect_irq:0000000000000080 .L76
     /tmp/ccJdQ6R8.s:1460   .text.MSS_GPIO_enable_nondirect_irq:000000000000004a .L77
     /tmp/ccJdQ6R8.s:1465   .text.MSS_GPIO_enable_nondirect_irq:0000000000000058 .L78
     /tmp/ccJdQ6R8.s:1474   .text.MSS_GPIO_enable_nondirect_irq:0000000000000070 .L79
     /tmp/ccJdQ6R8.s:1479   .text.MSS_GPIO_enable_nondirect_irq:000000000000007e .L80
     /tmp/ccJdQ6R8.s:1525   .text.MSS_GPIO_disable_nondirect_irq:0000000000000024 .L82
     /tmp/ccJdQ6R8.s:1530   .text.MSS_GPIO_disable_nondirect_irq:0000000000000032 .L83
     /tmp/ccJdQ6R8.s:1565   .text.MSS_GPIO_disable_nondirect_irq:0000000000000080 .L84
     /tmp/ccJdQ6R8.s:1539   .text.MSS_GPIO_disable_nondirect_irq:000000000000004a .L85
     /tmp/ccJdQ6R8.s:1544   .text.MSS_GPIO_disable_nondirect_irq:0000000000000058 .L86
     /tmp/ccJdQ6R8.s:1553   .text.MSS_GPIO_disable_nondirect_irq:0000000000000070 .L87
     /tmp/ccJdQ6R8.s:1558   .text.MSS_GPIO_disable_nondirect_irq:000000000000007e .L88
     /tmp/ccJdQ6R8.s:1622   .text.MSS_GPIO_clear_irq:0000000000000044 .L90
     /tmp/ccJdQ6R8.s:1629   .text.MSS_GPIO_clear_irq:0000000000000046 .L92
     /tmp/ccJdQ6R8.s:1667   .text.gpio_number_validate:0000000000000028 .L94
     /tmp/ccJdQ6R8.s:1677   .text.gpio_number_validate:000000000000003e .L95
     /tmp/ccJdQ6R8.s:1718   .text.gpio_number_validate:000000000000009e .L96
     /tmp/ccJdQ6R8.s:1686   .text.gpio_number_validate:0000000000000056 .L97
     /tmp/ccJdQ6R8.s:1696   .text.gpio_number_validate:000000000000006c .L98
     /tmp/ccJdQ6R8.s:1705   .text.gpio_number_validate:0000000000000084 .L99
     /tmp/ccJdQ6R8.s:1715   .text.gpio_number_validate:000000000000009a .L100
     /tmp/ccJdQ6R8.s:69417  .debug_abbrev:0000000000000000 .Ldebug_abbrev0
     /tmp/ccJdQ6R8.s:96956  .debug_str:0000000000023c27 .LASF9454
     /tmp/ccJdQ6R8.s:93128  .debug_str:0000000000013b57 .LASF9455
     /tmp/ccJdQ6R8.s:107118  .debug_str:000000000004d1fe .LASF9456
     /tmp/ccJdQ6R8.s:70262  .debug_ranges:0000000000000000 .Ldebug_ranges0
     /tmp/ccJdQ6R8.s:88328  .debug_line:0000000000000000 .Ldebug_line0
     /tmp/ccJdQ6R8.s:70294  .debug_macro:0000000000000000 .Ldebug_macro0
     /tmp/ccJdQ6R8.s:105606  .debug_str:00000000000469a2 .LASF5681
     /tmp/ccJdQ6R8.s:94288  .debug_str:000000000001855d .LASF5682
     /tmp/ccJdQ6R8.s:107072  .debug_str:000000000004ce64 .LASF5683
     /tmp/ccJdQ6R8.s:100186  .debug_str:00000000000309f3 .LASF5684
     /tmp/ccJdQ6R8.s:105172  .debug_str:0000000000044d70 .LASF5685
     /tmp/ccJdQ6R8.s:89408  .debug_str:0000000000004b4e .LASF5689
     /tmp/ccJdQ6R8.s:93006  .debug_str:00000000000133fe .LASF5686
     /tmp/ccJdQ6R8.s:103398  .debug_str:000000000003d7fc .LASF5687
     /tmp/ccJdQ6R8.s:99510  .debug_str:000000000002dd8a .LASF5688
     /tmp/ccJdQ6R8.s:96692  .debug_str:0000000000022b82 .LASF5690
     /tmp/ccJdQ6R8.s:89064  .debug_str:0000000000003390 .LASF5691
     /tmp/ccJdQ6R8.s:89618  .debug_str:00000000000059d4 .LASF5692
     /tmp/ccJdQ6R8.s:92384  .debug_str:0000000000010b7e .LASF5693
     /tmp/ccJdQ6R8.s:104904  .debug_str:0000000000043c6a .LASF5694
     /tmp/ccJdQ6R8.s:101382  .debug_str:00000000000359c1 .LASF5695
     /tmp/ccJdQ6R8.s:94216  .debug_str:000000000001811f .LASF5696
     /tmp/ccJdQ6R8.s:105864  .debug_str:0000000000047af5 .LASF5697
     /tmp/ccJdQ6R8.s:92832  .debug_str:0000000000012830 .LASF5698
     /tmp/ccJdQ6R8.s:92174  .debug_str:000000000000fdec .LASF5699
     /tmp/ccJdQ6R8.s:98564  .debug_str:000000000002a0ff .LASF5700
     /tmp/ccJdQ6R8.s:95842  .debug_str:000000000001f1e8 .LASF5701
     /tmp/ccJdQ6R8.s:96422  .debug_str:000000000002195c .LASF5702
     /tmp/ccJdQ6R8.s:90356  .debug_str:0000000000008adb .LASF5703
     /tmp/ccJdQ6R8.s:89162  .debug_str:00000000000039fc .LASF5704
     /tmp/ccJdQ6R8.s:100080  .debug_str:0000000000030356 .LASF5705
     /tmp/ccJdQ6R8.s:98836  .debug_str:000000000002b297 .LASF5706
     /tmp/ccJdQ6R8.s:89200  .debug_str:0000000000003c5a .LASF5707
     /tmp/ccJdQ6R8.s:106530  .debug_str:000000000004a8a4 .LASF5708
     /tmp/ccJdQ6R8.s:103236  .debug_str:000000000003ce1a .LASF5709
     /tmp/ccJdQ6R8.s:99522  .debug_str:000000000002de56 .LASF5710
     /tmp/ccJdQ6R8.s:88434  .debug_str:000000000000075d .LASF5711
     /tmp/ccJdQ6R8.s:100276  .debug_str:00000000000310bc .LASF5712
     /tmp/ccJdQ6R8.s:104806  .debug_str:0000000000043664 .LASF5713
     /tmp/ccJdQ6R8.s:94178  .debug_str:0000000000017f2f .LASF5714
     /tmp/ccJdQ6R8.s:100324  .debug_str:0000000000031410 .LASF5715
     /tmp/ccJdQ6R8.s:100268  .debug_str:0000000000031075 .LASF5716
     /tmp/ccJdQ6R8.s:96218  .debug_str:0000000000020c6f .LASF5717
     /tmp/ccJdQ6R8.s:100082  .debug_str:000000000003036d .LASF5718
     /tmp/ccJdQ6R8.s:100760  .debug_str:0000000000032fdb .LASF5719
     /tmp/ccJdQ6R8.s:100976  .debug_str:0000000000033edd .LASF5720
     /tmp/ccJdQ6R8.s:100292  .debug_str:00000000000311cc .LASF5721
     /tmp/ccJdQ6R8.s:106378  .debug_str:0000000000049e05 .LASF5722
     /tmp/ccJdQ6R8.s:102396  .debug_str:0000000000039452 .LASF5723
     /tmp/ccJdQ6R8.s:93644  .debug_str:0000000000015b4f .LASF5724
     /tmp/ccJdQ6R8.s:96194  .debug_str:0000000000020b0a .LASF5725
     /tmp/ccJdQ6R8.s:89346  .debug_str:00000000000046a9 .LASF5726
     /tmp/ccJdQ6R8.s:99232  .debug_str:000000000002cc06 .LASF5727
     /tmp/ccJdQ6R8.s:101018  .debug_str:0000000000034166 .LASF5728
     /tmp/ccJdQ6R8.s:98858  .debug_str:000000000002b48d .LASF5729
     /tmp/ccJdQ6R8.s:99536  .debug_str:000000000002dfb8 .LASF5730
     /tmp/ccJdQ6R8.s:100218  .debug_str:0000000000030c31 .LASF5731
     /tmp/ccJdQ6R8.s:99254  .debug_str:000000000002cd93 .LASF5732
     /tmp/ccJdQ6R8.s:105320  .debug_str:00000000000456df .LASF5733
     /tmp/ccJdQ6R8.s:90132  .debug_str:0000000000007b75 .LASF5734
     /tmp/ccJdQ6R8.s:92530  .debug_str:00000000000114b5 .LASF5735
     /tmp/ccJdQ6R8.s:95078  .debug_str:000000000001bcf9 .LASF5736
     /tmp/ccJdQ6R8.s:88470  .debug_str:00000000000009c3 .LASF5737
     /tmp/ccJdQ6R8.s:102456  .debug_str:0000000000039916 .LASF5738
     /tmp/ccJdQ6R8.s:103792  .debug_str:000000000003f256 .LASF5739
     /tmp/ccJdQ6R8.s:105594  .debug_str:00000000000468c4 .LASF5740
     /tmp/ccJdQ6R8.s:98218  .debug_str:0000000000028b3f .LASF5741
     /tmp/ccJdQ6R8.s:100310  .debug_str:000000000003133b .LASF5742
     /tmp/ccJdQ6R8.s:103430  .debug_str:000000000003d9e8 .LASF5743
     /tmp/ccJdQ6R8.s:90670  .debug_str:0000000000009f99 .LASF5744
     /tmp/ccJdQ6R8.s:93442  .debug_str:0000000000014e52 .LASF5745
     /tmp/ccJdQ6R8.s:88658  .debug_str:000000000000160c .LASF5746
     /tmp/ccJdQ6R8.s:101728  .debug_str:0000000000036e85 .LASF5747
     /tmp/ccJdQ6R8.s:99558  .debug_str:000000000002e13e .LASF5748
     /tmp/ccJdQ6R8.s:92908  .debug_str:0000000000012e47 .LASF5749
     /tmp/ccJdQ6R8.s:105886  .debug_str:0000000000047c62 .LASF5750
     /tmp/ccJdQ6R8.s:88592  .debug_str:00000000000011ca .LASF5751
     /tmp/ccJdQ6R8.s:96574  .debug_str:000000000002231e .LASF5752
     /tmp/ccJdQ6R8.s:94026  .debug_str:000000000001752d .LASF5753
     /tmp/ccJdQ6R8.s:93174  .debug_str:0000000000013e5a .LASF5754
     /tmp/ccJdQ6R8.s:95280  .debug_str:000000000001ca6c .LASF5755
     /tmp/ccJdQ6R8.s:99256  .debug_str:000000000002cdba .LASF5756
     /tmp/ccJdQ6R8.s:106764  .debug_str:000000000004ba16 .LASF5757
     /tmp/ccJdQ6R8.s:104612  .debug_str:0000000000042a73 .LASF5758
     /tmp/ccJdQ6R8.s:92488  .debug_str:00000000000111bc .LASF5759
     /tmp/ccJdQ6R8.s:103516  .debug_str:000000000003dfa8 .LASF5760
     /tmp/ccJdQ6R8.s:93836  .debug_str:00000000000167d0 .LASF5761
     /tmp/ccJdQ6R8.s:89432  .debug_str:0000000000004ca1 .LASF5762
     /tmp/ccJdQ6R8.s:88508  .debug_str:0000000000000bee .LASF5763
     /tmp/ccJdQ6R8.s:94886  .debug_str:000000000001aedc .LASF5764
     /tmp/ccJdQ6R8.s:105346  .debug_str:00000000000458a2 .LASF5765
     /tmp/ccJdQ6R8.s:106862  .debug_str:000000000004c0fa .LASF5766
     /tmp/ccJdQ6R8.s:101770  .debug_str:000000000003700a .LASF5767
     /tmp/ccJdQ6R8.s:91330  .debug_str:000000000000cdb7 .LASF5768
     /tmp/ccJdQ6R8.s:91510  .debug_str:000000000000d880 .LASF5769
     /tmp/ccJdQ6R8.s:106644  .debug_str:000000000004b042 .LASF5770
     /tmp/ccJdQ6R8.s:104320  .debug_str:000000000004175f .LASF5771
     /tmp/ccJdQ6R8.s:106058  .debug_str:0000000000048756 .LASF5772
     /tmp/ccJdQ6R8.s:89040  .debug_str:000000000000321d .LASF5773
     /tmp/ccJdQ6R8.s:107066  .debug_str:000000000004ce25 .LASF5774
     /tmp/ccJdQ6R8.s:93754  .debug_str:00000000000162e6 .LASF5775
     /tmp/ccJdQ6R8.s:102706  .debug_str:000000000003aa52 .LASF5776
     /tmp/ccJdQ6R8.s:90328  .debug_str:00000000000088da .LASF5777
     /tmp/ccJdQ6R8.s:89564  .debug_str:0000000000005621 .LASF5778
     /tmp/ccJdQ6R8.s:89412  .debug_str:0000000000004b66 .LASF5779
     /tmp/ccJdQ6R8.s:101546  .debug_str:0000000000036376 .LASF5780
     /tmp/ccJdQ6R8.s:101984  .debug_str:0000000000037b50 .LASF5781
     /tmp/ccJdQ6R8.s:89310  .debug_str:0000000000004439 .LASF5782
     /tmp/ccJdQ6R8.s:97918  .debug_str:0000000000027766 .LASF5783
     /tmp/ccJdQ6R8.s:106196  .debug_str:00000000000491b3 .LASF5784
     /tmp/ccJdQ6R8.s:98466  .debug_str:0000000000029ae9 .LASF5785
     /tmp/ccJdQ6R8.s:93602  .debug_str:00000000000158ab .LASF5786
     /tmp/ccJdQ6R8.s:91810  .debug_str:000000000000e939 .LASF5787
     /tmp/ccJdQ6R8.s:89600  .debug_str:00000000000058ee .LASF5788
     /tmp/ccJdQ6R8.s:103834  .debug_str:000000000003f608 .LASF5789
     /tmp/ccJdQ6R8.s:102710  .debug_str:000000000003aab3 .LASF5790
     /tmp/ccJdQ6R8.s:92268  .debug_str:0000000000010365 .LASF5791
     /tmp/ccJdQ6R8.s:91564  .debug_str:000000000000dc12 .LASF5792
     /tmp/ccJdQ6R8.s:96138  .debug_str:00000000000206ec .LASF5793
     /tmp/ccJdQ6R8.s:88820  .debug_str:00000000000021d5 .LASF5794
     /tmp/ccJdQ6R8.s:104240  .debug_str:000000000004114a .LASF5795
     /tmp/ccJdQ6R8.s:94140  .debug_str:0000000000017c9d .LASF5796
     /tmp/ccJdQ6R8.s:100418  .debug_str:0000000000031a76 .LASF5797
     /tmp/ccJdQ6R8.s:90512  .debug_str:00000000000095a2 .LASF5798
     /tmp/ccJdQ6R8.s:98334  .debug_str:0000000000029307 .LASF5799
     /tmp/ccJdQ6R8.s:92294  .debug_str:0000000000010540 .LASF5800
     /tmp/ccJdQ6R8.s:102798  .debug_str:000000000003b079 .LASF5801
     /tmp/ccJdQ6R8.s:106668  .debug_str:000000000004b299 .LASF5802
     /tmp/ccJdQ6R8.s:103736  .debug_str:000000000003ee8c .LASF5803
     /tmp/ccJdQ6R8.s:100742  .debug_str:0000000000032ee6 .LASF5804
     /tmp/ccJdQ6R8.s:97038  .debug_str:0000000000024149 .LASF5805
     /tmp/ccJdQ6R8.s:100744  .debug_str:0000000000032ef2 .LASF5806
     /tmp/ccJdQ6R8.s:102128  .debug_str:00000000000382a5 .LASF5807
     /tmp/ccJdQ6R8.s:98592  .debug_str:000000000002a36d .LASF5808
     /tmp/ccJdQ6R8.s:95616  .debug_str:000000000001e1d1 .LASF5809
     /tmp/ccJdQ6R8.s:95728  .debug_str:000000000001ea02 .LASF5810
     /tmp/ccJdQ6R8.s:99986  .debug_str:000000000002fd4c .LASF5811
     /tmp/ccJdQ6R8.s:90456  .debug_str:0000000000009161 .LASF5812
     /tmp/ccJdQ6R8.s:95518  .debug_str:000000000001db7b .LASF5813
     /tmp/ccJdQ6R8.s:90636  .debug_str:0000000000009dc1 .LASF5814
     /tmp/ccJdQ6R8.s:95374  .debug_str:000000000001d126 .LASF5815
     /tmp/ccJdQ6R8.s:90426  .debug_str:0000000000008fb6 .LASF5816
     /tmp/ccJdQ6R8.s:98468  .debug_str:0000000000029b05 .LASF5817
     /tmp/ccJdQ6R8.s:95214  .debug_str:000000000001c5e1 .LASF5818
     /tmp/ccJdQ6R8.s:105548  .debug_str:00000000000465df .LASF5819
     /tmp/ccJdQ6R8.s:89838  .debug_str:0000000000006856 .LASF5820
     /tmp/ccJdQ6R8.s:101306  .debug_str:000000000003549c .LASF5821
     /tmp/ccJdQ6R8.s:106262  .debug_str:000000000004963b .LASF5822
     /tmp/ccJdQ6R8.s:106558  .debug_str:000000000004aa3c .LASF5823
     /tmp/ccJdQ6R8.s:89288  .debug_str:000000000000432b .LASF5824
     /tmp/ccJdQ6R8.s:106574  .debug_str:000000000004ab01 .LASF5825
     /tmp/ccJdQ6R8.s:91054  .debug_str:000000000000bb37 .LASF5826
     /tmp/ccJdQ6R8.s:96666  .debug_str:00000000000229ae .LASF5827
     /tmp/ccJdQ6R8.s:91554  .debug_str:000000000000dbb3 .LASF5828
     /tmp/ccJdQ6R8.s:96780  .debug_str:00000000000230ea .LASF5829
     /tmp/ccJdQ6R8.s:99076  .debug_str:000000000002c1a3 .LASF5830
     /tmp/ccJdQ6R8.s:106900  .debug_str:000000000004c375 .LASF5831
     /tmp/ccJdQ6R8.s:96722  .debug_str:0000000000022d4a .LASF5832
     /tmp/ccJdQ6R8.s:99106  .debug_str:000000000002c359 .LASF5833
     /tmp/ccJdQ6R8.s:94318  .debug_str:000000000001879d .LASF5834
     /tmp/ccJdQ6R8.s:94320  .debug_str:00000000000187ac .LASF5835
     /tmp/ccJdQ6R8.s:94500  .debug_str:000000000001941b .LASF5836
     /tmp/ccJdQ6R8.s:93618  .debug_str:0000000000015975 .LASF5837
     /tmp/ccJdQ6R8.s:100626  .debug_str:00000000000327c1 .LASF5838
     /tmp/ccJdQ6R8.s:95588  .debug_str:000000000001e058 .LASF5839
     /tmp/ccJdQ6R8.s:91882  .debug_str:000000000000ed20 .LASF5840
     /tmp/ccJdQ6R8.s:91884  .debug_str:000000000000ed2f .LASF5841
     /tmp/ccJdQ6R8.s:93966  .debug_str:0000000000017180 .LASF5842
     /tmp/ccJdQ6R8.s:97112  .debug_str:00000000000244f9 .LASF5843
     /tmp/ccJdQ6R8.s:104044  .debug_str:0000000000040443 .LASF5844
     /tmp/ccJdQ6R8.s:103490  .debug_str:000000000003de2d .LASF5845
     /tmp/ccJdQ6R8.s:95590  .debug_str:000000000001e062 .LASF5846
     /tmp/ccJdQ6R8.s:90258  .debug_str:0000000000008428 .LASF5847
     /tmp/ccJdQ6R8.s:97228  .debug_str:0000000000024a8a .LASF5848
     /tmp/ccJdQ6R8.s:105502  .debug_str:00000000000462be .LASF5849
     /tmp/ccJdQ6R8.s:94788  .debug_str:000000000001a88c .LASF5850
     /tmp/ccJdQ6R8.s:96900  .debug_str:000000000002398e .LASF5851
     /tmp/ccJdQ6R8.s:102040  .debug_str:0000000000037e1a .LASF5852
     /tmp/ccJdQ6R8.s:99386  .debug_str:000000000002d542 .LASF5853
     /tmp/ccJdQ6R8.s:107056  .debug_str:000000000004cd51 .LASF5854
     /tmp/ccJdQ6R8.s:89246  .debug_str:0000000000003fee .LASF5855
     /tmp/ccJdQ6R8.s:92200  .debug_str:000000000001000a .LASF5856
     /tmp/ccJdQ6R8.s:102198  .debug_str:0000000000038702 .LASF5857
     /tmp/ccJdQ6R8.s:105068  .debug_str:0000000000044669 .LASF5858
     /tmp/ccJdQ6R8.s:96806  .debug_str:00000000000232c7 .LASF5859
     /tmp/ccJdQ6R8.s:103636  .debug_str:000000000003e705 .LASF5860
     /tmp/ccJdQ6R8.s:104558  .debug_str:0000000000042663 .LASF5861
     /tmp/ccJdQ6R8.s:95180  .debug_str:000000000001c375 .LASF5862
     /tmp/ccJdQ6R8.s:106942  .debug_str:000000000004c60d .LASF5863
     /tmp/ccJdQ6R8.s:96234  .debug_str:0000000000020dd1 .LASF5864
     /tmp/ccJdQ6R8.s:91544  .debug_str:000000000000db1c .LASF5865
     /tmp/ccJdQ6R8.s:90792  .debug_str:000000000000a839 .LASF5866
     /tmp/ccJdQ6R8.s:89750  .debug_str:000000000000620e .LASF5867
     /tmp/ccJdQ6R8.s:89626  .debug_str:0000000000005a37 .LASF5868
     /tmp/ccJdQ6R8.s:91320  .debug_str:000000000000cd3a .LASF5869
     /tmp/ccJdQ6R8.s:104564  .debug_str:00000000000426f0 .LASF5870
     /tmp/ccJdQ6R8.s:100402  .debug_str:0000000000031985 .LASF5871
     /tmp/ccJdQ6R8.s:104262  .debug_str:00000000000412b2 .LASF5872
     /tmp/ccJdQ6R8.s:105882  .debug_str:0000000000047c20 .LASF5873
     /tmp/ccJdQ6R8.s:98950  .debug_str:000000000002baa0 .LASF5874
     /tmp/ccJdQ6R8.s:105202  .debug_str:0000000000044ee1 .LASF5875
     /tmp/ccJdQ6R8.s:106546  .debug_str:000000000004a978 .LASF5876
     /tmp/ccJdQ6R8.s:101416  .debug_str:0000000000035b70 .LASF5877
     /tmp/ccJdQ6R8.s:98256  .debug_str:0000000000028dec .LASF5878
     /tmp/ccJdQ6R8.s:98268  .debug_str:0000000000028e92 .LASF5879
     /tmp/ccJdQ6R8.s:91390  .debug_str:000000000000d1cc .LASF5880
     /tmp/ccJdQ6R8.s:104752  .debug_str:0000000000043326 .LASF5881
     /tmp/ccJdQ6R8.s:104526  .debug_str:00000000000424a8 .LASF5882
     /tmp/ccJdQ6R8.s:104754  .debug_str:0000000000043330 .LASF5883
     /tmp/ccJdQ6R8.s:93038  .debug_str:000000000001362c .LASF5884
     /tmp/ccJdQ6R8.s:104760  .debug_str:0000000000043382 .LASF5885
     /tmp/ccJdQ6R8.s:103982  .debug_str:000000000003fff6 .LASF5886
     /tmp/ccJdQ6R8.s:102996  .debug_str:000000000003bd5f .LASF5887
     /tmp/ccJdQ6R8.s:91134  .debug_str:000000000000c03e .LASF5888
     /tmp/ccJdQ6R8.s:99948  .debug_str:000000000002fb14 .LASF5889
     /tmp/ccJdQ6R8.s:91556  .debug_str:000000000000dbc2 .LASF5890
     /tmp/ccJdQ6R8.s:91558  .debug_str:000000000000dbcc .LASF5891
     /tmp/ccJdQ6R8.s:96306  .debug_str:0000000000021260 .LASF5892
     /tmp/ccJdQ6R8.s:91130  .debug_str:000000000000bfd4 .LASF5893
     /tmp/ccJdQ6R8.s:107032  .debug_str:000000000004cc20 .LASF5894
     /tmp/ccJdQ6R8.s:92926  .debug_str:0000000000012f5a .LASF5895
     /tmp/ccJdQ6R8.s:91560  .debug_str:000000000000dbd6 .LASF5896
     /tmp/ccJdQ6R8.s:88950  .debug_str:0000000000002b66 .LASF5897
     /tmp/ccJdQ6R8.s:104766  .debug_str:00000000000433be .LASF5898
     /tmp/ccJdQ6R8.s:93530  .debug_str:00000000000154b1 .LASF5899
     /tmp/ccJdQ6R8.s:101318  .debug_str:0000000000035547 .LASF5900
     /tmp/ccJdQ6R8.s:91640  .debug_str:000000000000e146 .LASF5901
     /tmp/ccJdQ6R8.s:95810  .debug_str:000000000001ef82 .LASF5902
     /tmp/ccJdQ6R8.s:91642  .debug_str:000000000000e150 .LASF5903
     /tmp/ccJdQ6R8.s:88460  .debug_str:0000000000000934 .LASF5904
     /tmp/ccJdQ6R8.s:91896  .debug_str:000000000000ee0b .LASF5905
     /tmp/ccJdQ6R8.s:101958  .debug_str:00000000000379d0 .LASF5906
     /tmp/ccJdQ6R8.s:90622  .debug_str:0000000000009d02 .LASF5907
     /tmp/ccJdQ6R8.s:104914  .debug_str:0000000000043d1f .LASF5908
     /tmp/ccJdQ6R8.s:103534  .debug_str:000000000003e0d8 .LASF5909
     /tmp/ccJdQ6R8.s:91646  .debug_str:000000000000e173 .LASF5910
     /tmp/ccJdQ6R8.s:91216  .debug_str:000000000000c5fc .LASF5911
     /tmp/ccJdQ6R8.s:98994  .debug_str:000000000002bcfc .LASF5912
     /tmp/ccJdQ6R8.s:91648  .debug_str:000000000000e17d .LASF5913
     /tmp/ccJdQ6R8.s:90398  .debug_str:0000000000008dc5 .LASF5914
     /tmp/ccJdQ6R8.s:103548  .debug_str:000000000003e192 .LASF5915
     /tmp/ccJdQ6R8.s:106996  .debug_str:000000000004c9e2 .LASF5916
     /tmp/ccJdQ6R8.s:106088  .debug_str:0000000000048a33 .LASF5917
     /tmp/ccJdQ6R8.s:99884  .debug_str:000000000002f71a .LASF5918
     /tmp/ccJdQ6R8.s:90188  .debug_str:0000000000007f77 .LASF5919
     /tmp/ccJdQ6R8.s:91650  .debug_str:000000000000e187 .LASF5920
     /tmp/ccJdQ6R8.s:105982  .debug_str:00000000000482ae .LASF5921
     /tmp/ccJdQ6R8.s:91652  .debug_str:000000000000e191 .LASF5922
     /tmp/ccJdQ6R8.s:100392  .debug_str:00000000000318d9 .LASF5923
     /tmp/ccJdQ6R8.s:89190  .debug_str:0000000000003bcd .LASF5924
     /tmp/ccJdQ6R8.s:91654  .debug_str:000000000000e19b .LASF5925
     /tmp/ccJdQ6R8.s:97988  .debug_str:0000000000027c1d .LASF5926
     /tmp/ccJdQ6R8.s:94482  .debug_str:0000000000019291 .LASF5927
     /tmp/ccJdQ6R8.s:89844  .debug_str:00000000000068c2 .LASF5928
     /tmp/ccJdQ6R8.s:93516  .debug_str:0000000000015409 .LASF5929
     /tmp/ccJdQ6R8.s:104470  .debug_str:00000000000420cf .LASF5930
     /tmp/ccJdQ6R8.s:91656  .debug_str:000000000000e1a5 .LASF5931
     /tmp/ccJdQ6R8.s:98232  .debug_str:0000000000028c4a .LASF5932
     /tmp/ccJdQ6R8.s:93376  .debug_str:0000000000014a93 .LASF5933
     /tmp/ccJdQ6R8.s:104878  .debug_str:0000000000043aaa .LASF5934
     /tmp/ccJdQ6R8.s:105054  .debug_str:0000000000044581 .LASF5935
     /tmp/ccJdQ6R8.s:94754  .debug_str:000000000001a66d .LASF5936
     /tmp/ccJdQ6R8.s:99316  .debug_str:000000000002d146 .LASF5937
     /tmp/ccJdQ6R8.s:88532  .debug_str:0000000000000da7 .LASF5938
     /tmp/ccJdQ6R8.s:97792  .debug_str:0000000000026f0b .LASF5939
     /tmp/ccJdQ6R8.s:103872  .debug_str:000000000003f8c6 .LASF5940
     /tmp/ccJdQ6R8.s:97920  .debug_str:00000000000277a9 .LASF5941
     /tmp/ccJdQ6R8.s:91828  .debug_str:000000000000eaa0 .LASF5942
     /tmp/ccJdQ6R8.s:104864  .debug_str:00000000000439bc .LASF5943
     /tmp/ccJdQ6R8.s:105146  .debug_str:0000000000044bb3 .LASF5944
     /tmp/ccJdQ6R8.s:91718  .debug_str:000000000000e51d .LASF5945
     /tmp/ccJdQ6R8.s:90848  .debug_str:000000000000ac6b .LASF5946
     /tmp/ccJdQ6R8.s:90210  .debug_str:00000000000080fd .LASF5947
     /tmp/ccJdQ6R8.s:92830  .debug_str:0000000000012829 .LASF5948
     /tmp/ccJdQ6R8.s:92692  .debug_str:0000000000011fc4 .LASF5949
     /tmp/ccJdQ6R8.s:104568  .debug_str:0000000000042733 .LASF5950
     /tmp/ccJdQ6R8.s:103210  .debug_str:000000000003cc22 .LASF5951
     /tmp/ccJdQ6R8.s:98022  .debug_str:0000000000027e9d .LASF5952
     /tmp/ccJdQ6R8.s:98792  .debug_str:000000000002afe7 .LASF5953
     /tmp/ccJdQ6R8.s:103906  .debug_str:000000000003fb11 .LASF5954
     /tmp/ccJdQ6R8.s:95874  .debug_str:000000000001f48d .LASF5955
     /tmp/ccJdQ6R8.s:91460  .debug_str:000000000000d62c .LASF5956
     /tmp/ccJdQ6R8.s:106790  .debug_str:000000000004bb94 .LASF5957
     /tmp/ccJdQ6R8.s:92924  .debug_str:0000000000012f30 .LASF5958
     /tmp/ccJdQ6R8.s:91978  .debug_str:000000000000f363 .LASF5959
     /tmp/ccJdQ6R8.s:103336  .debug_str:000000000003d414 .LASF5960
     /tmp/ccJdQ6R8.s:98732  .debug_str:000000000002ac3a .LASF5961
     /tmp/ccJdQ6R8.s:95198  .debug_str:000000000001c4d7 .LASF5962
     /tmp/ccJdQ6R8.s:98872  .debug_str:000000000002b54f .LASF5963
     /tmp/ccJdQ6R8.s:97794  .debug_str:0000000000026f25 .LASF5964
     /tmp/ccJdQ6R8.s:99940  .debug_str:000000000002faa2 .LASF5965
     /tmp/ccJdQ6R8.s:88426  .debug_str:00000000000006f4 .LASF5966
     /tmp/ccJdQ6R8.s:89080  .debug_str:0000000000003436 .LASF5967
     /tmp/ccJdQ6R8.s:106024  .debug_str:0000000000048568 .LASF5968
     /tmp/ccJdQ6R8.s:91604  .debug_str:000000000000dec9 .LASF5969
     /tmp/ccJdQ6R8.s:91464  .debug_str:000000000000d660 .LASF5970
     /tmp/ccJdQ6R8.s:91466  .debug_str:000000000000d66a .LASF5971
     /tmp/ccJdQ6R8.s:94838  .debug_str:000000000001aba4 .LASF5972
     /tmp/ccJdQ6R8.s:104672  .debug_str:0000000000042e18 .LASF5973
     /tmp/ccJdQ6R8.s:98676  .debug_str:000000000002a863 .LASF5974
     /tmp/ccJdQ6R8.s:100330  .debug_str:00000000000314c2 .LASF5975
     /tmp/ccJdQ6R8.s:97736  .debug_str:0000000000026b52 .LASF5976
     /tmp/ccJdQ6R8.s:90632  .debug_str:0000000000009da5 .LASF5977
     /tmp/ccJdQ6R8.s:104858  .debug_str:0000000000043965 .LASF5978
     /tmp/ccJdQ6R8.s:95100  .debug_str:000000000001be9c .LASF5979
     /tmp/ccJdQ6R8.s:91584  .debug_str:000000000000dda8 .LASF5980
     /tmp/ccJdQ6R8.s:101802  .debug_str:0000000000037247 .LASF5981
     /tmp/ccJdQ6R8.s:98422  .debug_str:0000000000029821 .LASF5982
     /tmp/ccJdQ6R8.s:91032  .debug_str:000000000000b9d7 .LASF5983
     /tmp/ccJdQ6R8.s:91794  .debug_str:000000000000e824 .LASF5984
     /tmp/ccJdQ6R8.s:101970  .debug_str:0000000000037a77 .LASF5985
     /tmp/ccJdQ6R8.s:100148  .debug_str:000000000003077c .LASF5986
     /tmp/ccJdQ6R8.s:96246  .debug_str:0000000000020ec5 .LASF5987
     /tmp/ccJdQ6R8.s:95530  .debug_str:000000000001dc6b .LASF5988
     /tmp/ccJdQ6R8.s:90280  .debug_str:0000000000008583 .LASF5989
     /tmp/ccJdQ6R8.s:102626  .debug_str:000000000003a469 .LASF5990
     /tmp/ccJdQ6R8.s:95112  .debug_str:000000000001bf4a .LASF5991
     /tmp/ccJdQ6R8.s:90614  .debug_str:0000000000009c61 .LASF5992
     /tmp/ccJdQ6R8.s:104516  .debug_str:000000000004242e .LASF5993
     /tmp/ccJdQ6R8.s:105988  .debug_str:00000000000482d5 .LASF5994
     /tmp/ccJdQ6R8.s:102010  .debug_str:0000000000037c17 .LASF5995
     /tmp/ccJdQ6R8.s:95634  .debug_str:000000000001e2ff .LASF5996
     /tmp/ccJdQ6R8.s:89714  .debug_str:0000000000005fe4 .LASF5997
     /tmp/ccJdQ6R8.s:100996  .debug_str:0000000000034016 .LASF5998
     /tmp/ccJdQ6R8.s:98996  .debug_str:000000000002bd07 .LASF5999
     /tmp/ccJdQ6R8.s:95860  .debug_str:000000000001f384 .LASF6000
     /tmp/ccJdQ6R8.s:88346  .debug_str:0000000000000123 .LASF6001
     /tmp/ccJdQ6R8.s:93366  .debug_str:0000000000014992 .LASF6002
     /tmp/ccJdQ6R8.s:96708  .debug_str:0000000000022c94 .LASF6003
     /tmp/ccJdQ6R8.s:90196  .debug_str:0000000000007ff1 .LASF6004
     /tmp/ccJdQ6R8.s:105086  .debug_str:0000000000044723 .LASF6005
     /tmp/ccJdQ6R8.s:89516  .debug_str:000000000000524e .LASF6006
     /tmp/ccJdQ6R8.s:104102  .debug_str:0000000000040886 .LASF6007
     /tmp/ccJdQ6R8.s:97586  .debug_str:0000000000026126 .LASF6008
     /tmp/ccJdQ6R8.s:103226  .debug_str:000000000003cd71 .LASF6009
     /tmp/ccJdQ6R8.s:95764  .debug_str:000000000001ecc6 .LASF6010
     /tmp/ccJdQ6R8.s:90822  .debug_str:000000000000aa3d .LASF6011
     /tmp/ccJdQ6R8.s:100160  .debug_str:0000000000030830 .LASF6012
     /tmp/ccJdQ6R8.s:93680  .debug_str:0000000000015d75 .LASF6013
     /tmp/ccJdQ6R8.s:106934  .debug_str:000000000004c5ae .LASF6014
     /tmp/ccJdQ6R8.s:101692  .debug_str:0000000000036c06 .LASF6015
     /tmp/ccJdQ6R8.s:97500  .debug_str:0000000000025b5a .LASF6016
     /tmp/ccJdQ6R8.s:98620  .debug_str:000000000002a52a .LASF6017
     /tmp/ccJdQ6R8.s:101288  .debug_str:00000000000353cd .LASF6018
     /tmp/ccJdQ6R8.s:101458  .debug_str:0000000000035e2b .LASF6019
     /tmp/ccJdQ6R8.s:98644  .debug_str:000000000002a6d5 .LASF6020
     /tmp/ccJdQ6R8.s:101304  .debug_str:000000000003548d .LASF6021
     /tmp/ccJdQ6R8.s:89608  .debug_str:0000000000005947 .LASF6022
     /tmp/ccJdQ6R8.s:97952  .debug_str:00000000000279df .LASF6023
     /tmp/ccJdQ6R8.s:95716  .debug_str:000000000001e945 .LASF6024
     /tmp/ccJdQ6R8.s:91726  .debug_str:000000000000e57e .LASF6025
     /tmp/ccJdQ6R8.s:91060  .debug_str:000000000000bb75 .LASF6026
     /tmp/ccJdQ6R8.s:91092  .debug_str:000000000000bd7d .LASF6027
     /tmp/ccJdQ6R8.s:98640  .debug_str:000000000002a68e .LASF6028
     /tmp/ccJdQ6R8.s:96542  .debug_str:000000000002216a .LASF6029
     /tmp/ccJdQ6R8.s:100322  .debug_str:00000000000313fc .LASF6030
     /tmp/ccJdQ6R8.s:94344  .debug_str:0000000000018904 .LASF6031
     /tmp/ccJdQ6R8.s:106494  .debug_str:000000000004a62c .LASF6032
     /tmp/ccJdQ6R8.s:104854  .debug_str:0000000000043915 .LASF6033
     /tmp/ccJdQ6R8.s:98194  .debug_str:00000000000289aa .LASF6034
     /tmp/ccJdQ6R8.s:94354  .debug_str:00000000000189df .LASF6035
     /tmp/ccJdQ6R8.s:99664  .debug_str:000000000002e7fc .LASF6036
     /tmp/ccJdQ6R8.s:90802  .debug_str:000000000000a8ee .LASF6037
     /tmp/ccJdQ6R8.s:89876  .debug_str:0000000000006b7b .LASF6038
     /tmp/ccJdQ6R8.s:93226  .debug_str:0000000000014190 .LASF6039
     /tmp/ccJdQ6R8.s:93284  .debug_str:0000000000014429 .LASF6040
     /tmp/ccJdQ6R8.s:102968  .debug_str:000000000003bbb2 .LASF6041
     /tmp/ccJdQ6R8.s:98470  .debug_str:0000000000029b15 .LASF6042
     /tmp/ccJdQ6R8.s:98282  .debug_str:0000000000028f8b .LASF6043
     /tmp/ccJdQ6R8.s:90248  .debug_str:000000000000837b .LASF6044
     /tmp/ccJdQ6R8.s:97078  .debug_str:00000000000243b6 .LASF6045
     /tmp/ccJdQ6R8.s:91400  .debug_str:000000000000d270 .LASF6046
     /tmp/ccJdQ6R8.s:96386  .debug_str:000000000002179c .LASF6047
     /tmp/ccJdQ6R8.s:95752  .debug_str:000000000001ebbf .LASF6048
     /tmp/ccJdQ6R8.s:102110  .debug_str:00000000000381c4 .LASF6049
     /tmp/ccJdQ6R8.s:102106  .debug_str:0000000000038189 .LASF6050
     /tmp/ccJdQ6R8.s:100358  .debug_str:00000000000316a5 .LASF6051
     /tmp/ccJdQ6R8.s:90934  .debug_str:000000000000b2a0 .LASF6052
     /tmp/ccJdQ6R8.s:105028  .debug_str:0000000000044417 .LASF6053
     /tmp/ccJdQ6R8.s:90716  .debug_str:000000000000a33d .LASF6054
     /tmp/ccJdQ6R8.s:96210  .debug_str:0000000000020bf9 .LASF6055
     /tmp/ccJdQ6R8.s:94300  .debug_str:0000000000018647 .LASF6056
     /tmp/ccJdQ6R8.s:96388  .debug_str:00000000000217a5 .LASF6057
     /tmp/ccJdQ6R8.s:101340  .debug_str:00000000000356d8 .LASF6058
     /tmp/ccJdQ6R8.s:105226  .debug_str:0000000000045072 .LASF6059
     /tmp/ccJdQ6R8.s:99540  .debug_str:000000000002dfff .LASF6060
     /tmp/ccJdQ6R8.s:103420  .debug_str:000000000003d94f .LASF6061
     /tmp/ccJdQ6R8.s:97710  .debug_str:0000000000026954 .LASF6062
     /tmp/ccJdQ6R8.s:107008  .debug_str:000000000004cab1 .LASF6063
     /tmp/ccJdQ6R8.s:96390  .debug_str:00000000000217ae .LASF6064
     /tmp/ccJdQ6R8.s:102736  .debug_str:000000000003ac83 .LASF6065
     /tmp/ccJdQ6R8.s:103422  .debug_str:000000000003d95d .LASF6066
     /tmp/ccJdQ6R8.s:100932  .debug_str:0000000000033b7a .LASF6067
     /tmp/ccJdQ6R8.s:105656  .debug_str:0000000000046d66 .LASF6068
     /tmp/ccJdQ6R8.s:102544  .debug_str:0000000000039e45 .LASF6069
     /tmp/ccJdQ6R8.s:97864  .debug_str:0000000000027377 .LASF6070
     /tmp/ccJdQ6R8.s:97852  .debug_str:00000000000272b2 .LASF6071
     /tmp/ccJdQ6R8.s:105366  .debug_str:0000000000045a2a .LASF6072
     /tmp/ccJdQ6R8.s:97024  .debug_str:0000000000024047 .LASF6073
     /tmp/ccJdQ6R8.s:91468  .debug_str:000000000000d674 .LASF6074
     /tmp/ccJdQ6R8.s:96392  .debug_str:00000000000217b7 .LASF6075
     /tmp/ccJdQ6R8.s:96690  .debug_str:0000000000022b5f .LASF6076
     /tmp/ccJdQ6R8.s:96718  .debug_str:0000000000022d1d .LASF6077
     /tmp/ccJdQ6R8.s:91124  .debug_str:000000000000bf79 .LASF6078
     /tmp/ccJdQ6R8.s:90906  .debug_str:000000000000b086 .LASF6079
     /tmp/ccJdQ6R8.s:99758  .debug_str:000000000002ee5c .LASF6080
     /tmp/ccJdQ6R8.s:88902  .debug_str:0000000000002821 .LASF6081
     /tmp/ccJdQ6R8.s:89816  .debug_str:00000000000066f7 .LASF6082
     /tmp/ccJdQ6R8.s:89154  .debug_str:000000000000398d .LASF6083
     /tmp/ccJdQ6R8.s:92128  .debug_str:000000000000fbc3 .LASF6084
     /tmp/ccJdQ6R8.s:89702  .debug_str:0000000000005f29 .LASF6085
     /tmp/ccJdQ6R8.s:98506  .debug_str:0000000000029e18 .LASF6086
     /tmp/ccJdQ6R8.s:103160  .debug_str:000000000003c905 .LASF6087
     /tmp/ccJdQ6R8.s:91470  .debug_str:000000000000d67e .LASF6088
     /tmp/ccJdQ6R8.s:96394  .debug_str:00000000000217c0 .LASF6089
     /tmp/ccJdQ6R8.s:90592  .debug_str:0000000000009ad1 .LASF6090
     /tmp/ccJdQ6R8.s:104150  .debug_str:0000000000040aca .LASF6091
     /tmp/ccJdQ6R8.s:104126  .debug_str:00000000000409ae .LASF6092
     /tmp/ccJdQ6R8.s:105916  .debug_str:0000000000047e47 .LASF6093
     /tmp/ccJdQ6R8.s:105900  .debug_str:0000000000047d58 .LASF6094
     /tmp/ccJdQ6R8.s:91472  .debug_str:000000000000d688 .LASF6095
     /tmp/ccJdQ6R8.s:96396  .debug_str:00000000000217c9 .LASF6096
     /tmp/ccJdQ6R8.s:103620  .debug_str:000000000003e659 .LASF6097
     /tmp/ccJdQ6R8.s:96834  .debug_str:00000000000234e1 .LASF6098
     /tmp/ccJdQ6R8.s:107244  .debug_str:000000000004da69 .LASF6099
     /tmp/ccJdQ6R8.s:91474  .debug_str:000000000000d692 .LASF6100
     /tmp/ccJdQ6R8.s:96398  .debug_str:00000000000217d2 .LASF6101
     /tmp/ccJdQ6R8.s:94316  .debug_str:000000000001877a .LASF6102
     /tmp/ccJdQ6R8.s:89424  .debug_str:0000000000004c4f .LASF6103
     /tmp/ccJdQ6R8.s:105550  .debug_str:00000000000465ef .LASF6104
     /tmp/ccJdQ6R8.s:97326  .debug_str:0000000000024fb8 .LASF6105
     /tmp/ccJdQ6R8.s:104592  .debug_str:00000000000428f1 .LASF6106
     /tmp/ccJdQ6R8.s:90764  .debug_str:000000000000a637 .LASF6107
     /tmp/ccJdQ6R8.s:94438  .debug_str:0000000000018fb2 .LASF6108
     /tmp/ccJdQ6R8.s:93032  .debug_str:00000000000135a8 .LASF6109
     /tmp/ccJdQ6R8.s:89074  .debug_str:00000000000033ec .LASF6110
     /tmp/ccJdQ6R8.s:100104  .debug_str:00000000000304e8 .LASF6111
     /tmp/ccJdQ6R8.s:102930  .debug_str:000000000003b91f .LASF6112
     /tmp/ccJdQ6R8.s:89878  .debug_str:0000000000006b85 .LASF6113
     /tmp/ccJdQ6R8.s:89314  .debug_str:0000000000004493 .LASF6114
     /tmp/ccJdQ6R8.s:100806  .debug_str:00000000000333a3 .LASF6115
     /tmp/ccJdQ6R8.s:106252  .debug_str:00000000000495ac .LASF6116
     /tmp/ccJdQ6R8.s:95978  .debug_str:000000000001fd00 .LASF6117
     /tmp/ccJdQ6R8.s:97980  .debug_str:0000000000027b9b .LASF6118
     /tmp/ccJdQ6R8.s:95096  .debug_str:000000000001be4f .LASF6119
     /tmp/ccJdQ6R8.s:98006  .debug_str:0000000000027d76 .LASF6120
     /tmp/ccJdQ6R8.s:92450  .debug_str:0000000000010f0f .LASF6121
     /tmp/ccJdQ6R8.s:98262  .debug_str:0000000000028e46 .LASF6122
     /tmp/ccJdQ6R8.s:96504  .debug_str:0000000000021eb0 .LASF6123
     /tmp/ccJdQ6R8.s:88450  .debug_str:000000000000088c .LASF6124
     /tmp/ccJdQ6R8.s:106448  .debug_str:000000000004a2a4 .LASF6125
     /tmp/ccJdQ6R8.s:95382  .debug_str:000000000001d1a6 .LASF6126
     /tmp/ccJdQ6R8.s:103978  .debug_str:000000000003ffc8 .LASF6127
     /tmp/ccJdQ6R8.s:106144  .debug_str:0000000000048e05 .LASF6128
     /tmp/ccJdQ6R8.s:90040  .debug_str:0000000000007611 .LASF6129
     /tmp/ccJdQ6R8.s:102298  .debug_str:0000000000038dec .LASF6130
     /tmp/ccJdQ6R8.s:97594  .debug_str:00000000000261a8 .LASF6131
     /tmp/ccJdQ6R8.s:104668  .debug_str:0000000000042df6 .LASF6132
     /tmp/ccJdQ6R8.s:98224  .debug_str:0000000000028b93 .LASF6133
     /tmp/ccJdQ6R8.s:104256  .debug_str:000000000004127e .LASF6134
     /tmp/ccJdQ6R8.s:103088  .debug_str:000000000003c43f .LASF6135
     /tmp/ccJdQ6R8.s:94912  .debug_str:000000000001b109 .LASF6136
     /tmp/ccJdQ6R8.s:97596  .debug_str:00000000000261b1 .LASF6137
     /tmp/ccJdQ6R8.s:105492  .debug_str:0000000000046230 .LASF6138
     /tmp/ccJdQ6R8.s:94568  .debug_str:00000000000198b2 .LASF6139
     /tmp/ccJdQ6R8.s:101194  .debug_str:0000000000034d6f .LASF6140
     /tmp/ccJdQ6R8.s:96568  .debug_str:00000000000222de .LASF6141
     /tmp/ccJdQ6R8.s:101682  .debug_str:0000000000036b4d .LASF6142
     /tmp/ccJdQ6R8.s:95570  .debug_str:000000000001df11 .LASF6143
     /tmp/ccJdQ6R8.s:100220  .debug_str:0000000000030c71 .LASF6144
     /tmp/ccJdQ6R8.s:97598  .debug_str:00000000000261ba .LASF6145
     /tmp/ccJdQ6R8.s:96016  .debug_str:000000000001ff1e .LASF6146
     /tmp/ccJdQ6R8.s:91576  .debug_str:000000000000dd13 .LASF6147
     /tmp/ccJdQ6R8.s:106282  .debug_str:00000000000497a7 .LASF6148
     /tmp/ccJdQ6R8.s:99458  .debug_str:000000000002da0b .LASF6149
     /tmp/ccJdQ6R8.s:97600  .debug_str:00000000000261c3 .LASF6150
     /tmp/ccJdQ6R8.s:89012  .debug_str:0000000000003019 .LASF6151
     /tmp/ccJdQ6R8.s:90952  .debug_str:000000000000b3f0 .LASF6152
     /tmp/ccJdQ6R8.s:98276  .debug_str:0000000000028f2f .LASF6153
     /tmp/ccJdQ6R8.s:94478  .debug_str:000000000001926e .LASF6154
     /tmp/ccJdQ6R8.s:102192  .debug_str:00000000000386a2 .LASF6155
     /tmp/ccJdQ6R8.s:102476  .debug_str:0000000000039a6b .LASF6156
     /tmp/ccJdQ6R8.s:93184  .debug_str:0000000000013ec8 .LASF6157
     /tmp/ccJdQ6R8.s:95684  .debug_str:000000000001e703 .LASF6158
     /tmp/ccJdQ6R8.s:98322  .debug_str:000000000002924e .LASF6159
     /tmp/ccJdQ6R8.s:97604  .debug_str:00000000000261e6 .LASF6160
     /tmp/ccJdQ6R8.s:89944  .debug_str:0000000000007032 .LASF6161
     /tmp/ccJdQ6R8.s:106888  .debug_str:000000000004c287 .LASF6162
     /tmp/ccJdQ6R8.s:99264  .debug_str:000000000002ce94 .LASF6163
     /tmp/ccJdQ6R8.s:99906  .debug_str:000000000002f871 .LASF6164
     /tmp/ccJdQ6R8.s:101292  .debug_str:000000000003540b .LASF6165
     /tmp/ccJdQ6R8.s:96098  .debug_str:000000000002041b .LASF6166
     /tmp/ccJdQ6R8.s:93856  .debug_str:0000000000016981 .LASF6167
     /tmp/ccJdQ6R8.s:93650  .debug_str:0000000000015bcc .LASF6168
     /tmp/ccJdQ6R8.s:104092  .debug_str:00000000000407ec .LASF6169
     /tmp/ccJdQ6R8.s:90394  .debug_str:0000000000008d20 .LASF6170
     /tmp/ccJdQ6R8.s:104906  .debug_str:0000000000043c73 .LASF6171
     /tmp/ccJdQ6R8.s:103280  .debug_str:000000000003d027 .LASF6172
     /tmp/ccJdQ6R8.s:104038  .debug_str:000000000004040c .LASF6173
     /tmp/ccJdQ6R8.s:96066  .debug_str:000000000002020e .LASF6174
     /tmp/ccJdQ6R8.s:106160  .debug_str:0000000000048f52 .LASF6175
     /tmp/ccJdQ6R8.s:97758  .debug_str:0000000000026ca4 .LASF6176
     /tmp/ccJdQ6R8.s:91270  .debug_str:000000000000c964 .LASF6177
     /tmp/ccJdQ6R8.s:99066  .debug_str:000000000002c109 .LASF6178
     /tmp/ccJdQ6R8.s:90804  .debug_str:000000000000a91b .LASF6179
     /tmp/ccJdQ6R8.s:105490  .debug_str:000000000004620d .LASF6180
     /tmp/ccJdQ6R8.s:91370  .debug_str:000000000000d074 .LASF6181
     /tmp/ccJdQ6R8.s:100482  .debug_str:0000000000031ea1 .LASF6182
     /tmp/ccJdQ6R8.s:100868  .debug_str:000000000003370e .LASF6183
     /tmp/ccJdQ6R8.s:97504  .debug_str:0000000000025b9d .LASF6184
     /tmp/ccJdQ6R8.s:97170  .debug_str:000000000002482a .LASF6185
     /tmp/ccJdQ6R8.s:99070  .debug_str:000000000002c14d .LASF6186
     /tmp/ccJdQ6R8.s:88554  .debug_str:0000000000000f2a .LASF6187
     /tmp/ccJdQ6R8.s:90408  .debug_str:0000000000008e9b .LASF6188
     /tmp/ccJdQ6R8.s:103714  .debug_str:000000000003ed11 .LASF6189
     /tmp/ccJdQ6R8.s:102874  .debug_str:000000000003b59a .LASF6190
     /tmp/ccJdQ6R8.s:103244  .debug_str:000000000003ceb7 .LASF6191
     /tmp/ccJdQ6R8.s:104838  .debug_str:000000000004380d .LASF6192
     /tmp/ccJdQ6R8.s:103854  .debug_str:000000000003f7c0 .LASF6193
     /tmp/ccJdQ6R8.s:106100  .debug_str:0000000000048ae3 .LASF6194
     /tmp/ccJdQ6R8.s:100046  .debug_str:00000000000300d9 .LASF6195
     /tmp/ccJdQ6R8.s:102586  .debug_str:000000000003a199 .LASF6196
     /tmp/ccJdQ6R8.s:90016  .debug_str:00000000000074a5 .LASF6197
     /tmp/ccJdQ6R8.s:95340  .debug_str:000000000001ceba .LASF6198
     /tmp/ccJdQ6R8.s:90414  .debug_str:0000000000008ee3 .LASF6199
     /tmp/ccJdQ6R8.s:94386  .debug_str:0000000000018c32 .LASF6200
     /tmp/ccJdQ6R8.s:88504  .debug_str:0000000000000bbf .LASF6201
     /tmp/ccJdQ6R8.s:103936  .debug_str:000000000003fcad .LASF6202
     /tmp/ccJdQ6R8.s:95866  .debug_str:000000000001f405 .LASF6203
     /tmp/ccJdQ6R8.s:104812  .debug_str:00000000000436ce .LASF6204
     /tmp/ccJdQ6R8.s:106998  .debug_str:000000000004c9f3 .LASF6205
     /tmp/ccJdQ6R8.s:92636  .debug_str:0000000000011c79 .LASF6206
     /tmp/ccJdQ6R8.s:100184  .debug_str:00000000000309d0 .LASF6207
     /tmp/ccJdQ6R8.s:91198  .debug_str:000000000000c4d8 .LASF6208
     /tmp/ccJdQ6R8.s:101654  .debug_str:0000000000036aa0 .LASF6209
     /tmp/ccJdQ6R8.s:95316  .debug_str:000000000001ccbe .LASF6210
     /tmp/ccJdQ6R8.s:98820  .debug_str:000000000002b185 .LASF6211
     /tmp/ccJdQ6R8.s:104476  .debug_str:0000000000042129 .LASF6212
     /tmp/ccJdQ6R8.s:90546  .debug_str:000000000000981c .LASF6213
     /tmp/ccJdQ6R8.s:98822  .debug_str:000000000002b195 .LASF6214
     /tmp/ccJdQ6R8.s:88432  .debug_str:0000000000000754 .LASF6215
     /tmp/ccJdQ6R8.s:104962  .debug_str:000000000004406f .LASF6216
     /tmp/ccJdQ6R8.s:95116  .debug_str:000000000001bf89 .LASF6217
     /tmp/ccJdQ6R8.s:92230  .debug_str:00000000000101b8 .LASF6218
     /tmp/ccJdQ6R8.s:105404  .debug_str:0000000000045c8d .LASF6219
     /tmp/ccJdQ6R8.s:100066  .debug_str:0000000000030284 .LASF6220
     /tmp/ccJdQ6R8.s:95186  .debug_str:000000000001c3d7 .LASF6221
     /tmp/ccJdQ6R8.s:100796  .debug_str:00000000000332ac .LASF6222
     /tmp/ccJdQ6R8.s:95034  .debug_str:000000000001b999 .LASF6223
     /tmp/ccJdQ6R8.s:94610  .debug_str:0000000000019be5 .LASF6224
     /tmp/ccJdQ6R8.s:97812  .debug_str:0000000000027083 .LASF6225
     /tmp/ccJdQ6R8.s:101736  .debug_str:0000000000036eeb .LASF6226
     /tmp/ccJdQ6R8.s:97348  .debug_str:000000000002513a .LASF6227
     /tmp/ccJdQ6R8.s:90710  .debug_str:000000000000a2cd .LASF6228
     /tmp/ccJdQ6R8.s:100576  .debug_str:0000000000032480 .LASF6229
     /tmp/ccJdQ6R8.s:94114  .debug_str:0000000000017b30 .LASF6230
     /tmp/ccJdQ6R8.s:106834  .debug_str:000000000004bedb .LASF6231
     /tmp/ccJdQ6R8.s:100578  .debug_str:000000000003248c .LASF6232
     /tmp/ccJdQ6R8.s:103260  .debug_str:000000000003cf8f .LASF6233
     /tmp/ccJdQ6R8.s:100886  .debug_str:000000000003381c .LASF6234
     /tmp/ccJdQ6R8.s:100580  .debug_str:0000000000032498 .LASF6235
     /tmp/ccJdQ6R8.s:103262  .debug_str:000000000003cf95 .LASF6236
     /tmp/ccJdQ6R8.s:94848  .debug_str:000000000001ac30 .LASF6237
     /tmp/ccJdQ6R8.s:98660  .debug_str:000000000002a7d6 .LASF6238
     /tmp/ccJdQ6R8.s:103866  .debug_str:000000000003f893 .LASF6239
     /tmp/ccJdQ6R8.s:103008  .debug_str:000000000003be62 .LASF6240
     /tmp/ccJdQ6R8.s:98662  .debug_str:000000000002a7e0 .LASF6241
     /tmp/ccJdQ6R8.s:103266  .debug_str:000000000003cfa7 .LASF6242
     /tmp/ccJdQ6R8.s:90154  .debug_str:0000000000007ceb .LASF6243
     /tmp/ccJdQ6R8.s:105572  .debug_str:0000000000046732 .LASF6244
     /tmp/ccJdQ6R8.s:103268  .debug_str:000000000003cfad .LASF6245
     /tmp/ccJdQ6R8.s:95802  .debug_str:000000000001eed3 .LASF6246
     /tmp/ccJdQ6R8.s:98666  .debug_str:000000000002a7ff .LASF6247
     /tmp/ccJdQ6R8.s:94132  .debug_str:0000000000017c10 .LASF6248
     /tmp/ccJdQ6R8.s:96474  .debug_str:0000000000021c9e .LASF6249
     /tmp/ccJdQ6R8.s:106596  .debug_str:000000000004ac46 .LASF6250
     /tmp/ccJdQ6R8.s:103272  .debug_str:000000000003cfc9 .LASF6251
     /tmp/ccJdQ6R8.s:102790  .debug_str:000000000003afbc .LASF6252
     /tmp/ccJdQ6R8.s:103554  .debug_str:000000000003e1e5 .LASF6253
     /tmp/ccJdQ6R8.s:103274  .debug_str:000000000003cfcf .LASF6254
     /tmp/ccJdQ6R8.s:95268  .debug_str:000000000001c97a .LASF6255
     /tmp/ccJdQ6R8.s:88878  .debug_str:0000000000002616 .LASF6256
     /tmp/ccJdQ6R8.s:94184  .debug_str:0000000000017fc9 .LASF6257
     /tmp/ccJdQ6R8.s:92506  .debug_str:0000000000011313 .LASF6258
     /tmp/ccJdQ6R8.s:103558  .debug_str:000000000003e23b .LASF6259
     /tmp/ccJdQ6R8.s:94186  .debug_str:0000000000017fd0 .LASF6260
     /tmp/ccJdQ6R8.s:105488  .debug_str:00000000000461ec .LASF6261
     /tmp/ccJdQ6R8.s:103068  .debug_str:000000000003c2ee .LASF6262
     /tmp/ccJdQ6R8.s:92218  .debug_str:00000000000100e5 .LASF6263
     /tmp/ccJdQ6R8.s:104478  .debug_str:0000000000042132 .LASF6264
     /tmp/ccJdQ6R8.s:103070  .debug_str:000000000003c2f7 .LASF6265
     /tmp/ccJdQ6R8.s:94190  .debug_str:0000000000017fde .LASF6266
     /tmp/ccJdQ6R8.s:93496  .debug_str:00000000000151f0 .LASF6267
     /tmp/ccJdQ6R8.s:103072  .debug_str:000000000003c300 .LASF6268
     /tmp/ccJdQ6R8.s:94192  .debug_str:0000000000017fe5 .LASF6269
     /tmp/ccJdQ6R8.s:106396  .debug_str:0000000000049f1c .LASF6270
     /tmp/ccJdQ6R8.s:103074  .debug_str:000000000003c309 .LASF6271
     /tmp/ccJdQ6R8.s:93246  .debug_str:00000000000142ae .LASF6272
     /tmp/ccJdQ6R8.s:100464  .debug_str:0000000000031d9b .LASF6273
     /tmp/ccJdQ6R8.s:102884  .debug_str:000000000003b65b .LASF6274
     /tmp/ccJdQ6R8.s:93250  .debug_str:00000000000142de .LASF6275
     /tmp/ccJdQ6R8.s:94446  .debug_str:000000000001901f .LASF6276
     /tmp/ccJdQ6R8.s:103666  .debug_str:000000000003e942 .LASF6277
     /tmp/ccJdQ6R8.s:101422  .debug_str:0000000000035bda .LASF6278
     /tmp/ccJdQ6R8.s:90494  .debug_str:0000000000009444 .LASF6279
     /tmp/ccJdQ6R8.s:94102  .debug_str:0000000000017a43 .LASF6280
     /tmp/ccJdQ6R8.s:101424  .debug_str:0000000000035be0 .LASF6281
     /tmp/ccJdQ6R8.s:103520  .debug_str:000000000003dff7 .LASF6282
     /tmp/ccJdQ6R8.s:91736  .debug_str:000000000000e637 .LASF6283
     /tmp/ccJdQ6R8.s:101426  .debug_str:0000000000035be6 .LASF6284
     /tmp/ccJdQ6R8.s:97554  .debug_str:0000000000025f10 .LASF6285
     /tmp/ccJdQ6R8.s:100554  .debug_str:00000000000322a5 .LASF6286
     /tmp/ccJdQ6R8.s:101484  .debug_str:0000000000036021 .LASF6287
     /tmp/ccJdQ6R8.s:101390  .debug_str:0000000000035a0f .LASF6288
     /tmp/ccJdQ6R8.s:88778  .debug_str:0000000000001e99 .LASF6289
     /tmp/ccJdQ6R8.s:101486  .debug_str:0000000000036027 .LASF6290
     /tmp/ccJdQ6R8.s:103536  .debug_str:000000000003e0e1 .LASF6291
     /tmp/ccJdQ6R8.s:103918  .debug_str:000000000003fbbd .LASF6292
     /tmp/ccJdQ6R8.s:101488  .debug_str:000000000003602d .LASF6293
     /tmp/ccJdQ6R8.s:97572  .debug_str:0000000000026062 .LASF6294
     /tmp/ccJdQ6R8.s:96064  .debug_str:0000000000020200 .LASF6295
     /tmp/ccJdQ6R8.s:101490  .debug_str:0000000000036033 .LASF6296
     /tmp/ccJdQ6R8.s:91452  .debug_str:000000000000d5c5 .LASF6297
     /tmp/ccJdQ6R8.s:96068  .debug_str:0000000000020231 .LASF6298
     /tmp/ccJdQ6R8.s:101492  .debug_str:0000000000036039 .LASF6299
     /tmp/ccJdQ6R8.s:104498  .debug_str:00000000000422ce .LASF6300
     /tmp/ccJdQ6R8.s:99212  .debug_str:000000000002cadc .LASF6301
     /tmp/ccJdQ6R8.s:101494  .debug_str:000000000003603f .LASF6302
     /tmp/ccJdQ6R8.s:98584  .debug_str:000000000002a315 .LASF6303
     /tmp/ccJdQ6R8.s:106576  .debug_str:000000000004ab0a .LASF6304
     /tmp/ccJdQ6R8.s:101496  .debug_str:0000000000036045 .LASF6305
     /tmp/ccJdQ6R8.s:92482  .debug_str:0000000000011166 .LASF6306
     /tmp/ccJdQ6R8.s:100098  .debug_str:00000000000304b0 .LASF6307
     /tmp/ccJdQ6R8.s:101498  .debug_str:000000000003604b .LASF6308
     /tmp/ccJdQ6R8.s:106708  .debug_str:000000000004b609 .LASF6309
     /tmp/ccJdQ6R8.s:100512  .debug_str:00000000000320c8 .LASF6310
     /tmp/ccJdQ6R8.s:98540  .debug_str:0000000000029fd2 .LASF6311
     /tmp/ccJdQ6R8.s:99534  .debug_str:000000000002df98 .LASF6312
     /tmp/ccJdQ6R8.s:93864  .debug_str:00000000000169c3 .LASF6313
     /tmp/ccJdQ6R8.s:101502  .debug_str:0000000000036072 .LASF6314
     /tmp/ccJdQ6R8.s:93474  .debug_str:00000000000150ad .LASF6315
     /tmp/ccJdQ6R8.s:100478  .debug_str:0000000000031e6a .LASF6316
     /tmp/ccJdQ6R8.s:101580  .debug_str:0000000000036601 .LASF6317
     /tmp/ccJdQ6R8.s:105484  .debug_str:00000000000461c3 .LASF6318
     /tmp/ccJdQ6R8.s:101308  .debug_str:00000000000354ab .LASF6319
     /tmp/ccJdQ6R8.s:101582  .debug_str:0000000000036607 .LASF6320
     /tmp/ccJdQ6R8.s:99552  .debug_str:000000000002e0c3 .LASF6321
     /tmp/ccJdQ6R8.s:89164  .debug_str:0000000000003a38 .LASF6322
     /tmp/ccJdQ6R8.s:101584  .debug_str:000000000003660d .LASF6323
     /tmp/ccJdQ6R8.s:93494  .debug_str:00000000000151d0 .LASF6324
     /tmp/ccJdQ6R8.s:92272  .debug_str:00000000000103c3 .LASF6325
     /tmp/ccJdQ6R8.s:101586  .debug_str:0000000000036613 .LASF6326
     /tmp/ccJdQ6R8.s:106392  .debug_str:0000000000049ee6 .LASF6327
     /tmp/ccJdQ6R8.s:92274  .debug_str:00000000000103cd .LASF6328
     /tmp/ccJdQ6R8.s:101588  .debug_str:0000000000036619 .LASF6329
     /tmp/ccJdQ6R8.s:89184  .debug_str:0000000000003b5a .LASF6330
     /tmp/ccJdQ6R8.s:97908  .debug_str:00000000000276bf .LASF6331
     /tmp/ccJdQ6R8.s:98696  .debug_str:000000000002a9a3 .LASF6332
     /tmp/ccJdQ6R8.s:91418  .debug_str:000000000000d37f .LASF6333
     /tmp/ccJdQ6R8.s:106782  .debug_str:000000000004bb0e .LASF6334
     /tmp/ccJdQ6R8.s:101592  .debug_str:000000000003662e .LASF6335
     /tmp/ccJdQ6R8.s:88438  .debug_str:00000000000007a3 .LASF6336
     /tmp/ccJdQ6R8.s:106786  .debug_str:000000000004bb47 .LASF6337
     /tmp/ccJdQ6R8.s:101594  .debug_str:0000000000036634 .LASF6338
     /tmp/ccJdQ6R8.s:101404  .debug_str:0000000000035adf .LASF6339
     /tmp/ccJdQ6R8.s:92060  .debug_str:000000000000f85d .LASF6340
     /tmp/ccJdQ6R8.s:101596  .debug_str:000000000003663a .LASF6341
     /tmp/ccJdQ6R8.s:95362  .debug_str:000000000001d040 .LASF6342
     /tmp/ccJdQ6R8.s:107176  .debug_str:000000000004d604 .LASF6343
     /tmp/ccJdQ6R8.s:101598  .debug_str:0000000000036640 .LASF6344
     /tmp/ccJdQ6R8.s:89338  .debug_str:00000000000045fb .LASF6345
     /tmp/ccJdQ6R8.s:100488  .debug_str:0000000000031ef7 .LASF6346
     /tmp/ccJdQ6R8.s:101660  .debug_str:0000000000036af7 .LASF6347
     /tmp/ccJdQ6R8.s:101430  .debug_str:0000000000035c16 .LASF6348
     /tmp/ccJdQ6R8.s:97652  .debug_str:0000000000026513 .LASF6349
     /tmp/ccJdQ6R8.s:101662  .debug_str:0000000000036afd .LASF6350
     /tmp/ccJdQ6R8.s:95384  .debug_str:000000000001d1b6 .LASF6351
     /tmp/ccJdQ6R8.s:89210  .debug_str:0000000000003d25 .LASF6352
     /tmp/ccJdQ6R8.s:101664  .debug_str:0000000000036b03 .LASF6353
     /tmp/ccJdQ6R8.s:89354  .debug_str:0000000000004781 .LASF6354
     /tmp/ccJdQ6R8.s:93524  .debug_str:0000000000015461 .LASF6355
     /tmp/ccJdQ6R8.s:101666  .debug_str:0000000000036b09 .LASF6356
     /tmp/ccJdQ6R8.s:102432  .debug_str:00000000000396fd .LASF6357
     /tmp/ccJdQ6R8.s:93526  .debug_str:000000000001546d .LASF6358
     /tmp/ccJdQ6R8.s:101668  .debug_str:0000000000036b0f .LASF6359
     /tmp/ccJdQ6R8.s:96372  .debug_str:000000000002168e .LASF6360
     /tmp/ccJdQ6R8.s:93746  .debug_str:0000000000016258 .LASF6361
     /tmp/ccJdQ6R8.s:101670  .debug_str:0000000000036b15 .LASF6362
     /tmp/ccJdQ6R8.s:90266  .debug_str:000000000000848d .LASF6363
     /tmp/ccJdQ6R8.s:89024  .debug_str:00000000000030c7 .LASF6364
     /tmp/ccJdQ6R8.s:101672  .debug_str:0000000000036b1b .LASF6365
     /tmp/ccJdQ6R8.s:103282  .debug_str:000000000003d032 .LASF6366
     /tmp/ccJdQ6R8.s:89028  .debug_str:0000000000003113 .LASF6367
     /tmp/ccJdQ6R8.s:101674  .debug_str:0000000000036b21 .LASF6368
     /tmp/ccJdQ6R8.s:97310  .debug_str:0000000000024e58 .LASF6369
     /tmp/ccJdQ6R8.s:97418  .debug_str:00000000000255a1 .LASF6370
     /tmp/ccJdQ6R8.s:101676  .debug_str:0000000000036b27 .LASF6371
     /tmp/ccJdQ6R8.s:91202  .debug_str:000000000000c4f7 .LASF6372
     /tmp/ccJdQ6R8.s:96920  .debug_str:0000000000023acc .LASF6373
     /tmp/ccJdQ6R8.s:101678  .debug_str:0000000000036b2d .LASF6374
     /tmp/ccJdQ6R8.s:104230  .debug_str:0000000000041080 .LASF6375
     /tmp/ccJdQ6R8.s:106854  .debug_str:000000000004c068 .LASF6376
     /tmp/ccJdQ6R8.s:101742  .debug_str:0000000000036f4e .LASF6377
     /tmp/ccJdQ6R8.s:97332  .debug_str:000000000002503d .LASF6378
     /tmp/ccJdQ6R8.s:96530  .debug_str:00000000000220a6 .LASF6379
     /tmp/ccJdQ6R8.s:98990  .debug_str:000000000002bcca .LASF6380
     /tmp/ccJdQ6R8.s:91224  .debug_str:000000000000c683 .LASF6381
     /tmp/ccJdQ6R8.s:102402  .debug_str:00000000000394dd .LASF6382
     /tmp/ccJdQ6R8.s:101746  .debug_str:0000000000036f5f .LASF6383
     /tmp/ccJdQ6R8.s:104254  .debug_str:000000000004125e .LASF6384
     /tmp/ccJdQ6R8.s:95520  .debug_str:000000000001db83 .LASF6385
     /tmp/ccJdQ6R8.s:101748  .debug_str:0000000000036f65 .LASF6386
     /tmp/ccJdQ6R8.s:98320  .debug_str:000000000002922e .LASF6387
     /tmp/ccJdQ6R8.s:93610  .debug_str:0000000000015941 .LASF6388
     /tmp/ccJdQ6R8.s:101750  .debug_str:0000000000036f6b .LASF6389
     /tmp/ccJdQ6R8.s:92202  .debug_str:0000000000010017 .LASF6390
     /tmp/ccJdQ6R8.s:93614  .debug_str:000000000001595e .LASF6391
     /tmp/ccJdQ6R8.s:101752  .debug_str:0000000000036f71 .LASF6392
     /tmp/ccJdQ6R8.s:105212  .debug_str:0000000000044f77 .LASF6393
     /tmp/ccJdQ6R8.s:103284  .debug_str:000000000003d052 .LASF6394
     /tmp/ccJdQ6R8.s:101754  .debug_str:0000000000036f77 .LASF6395
     /tmp/ccJdQ6R8.s:99298  .debug_str:000000000002d005 .LASF6396
     /tmp/ccJdQ6R8.s:88516  .debug_str:0000000000000c89 .LASF6397
     /tmp/ccJdQ6R8.s:101756  .debug_str:0000000000036f7d .LASF6398
     /tmp/ccJdQ6R8.s:93222  .debug_str:0000000000014139 .LASF6399
     /tmp/ccJdQ6R8.s:89106  .debug_str:00000000000035cb .LASF6400
     /tmp/ccJdQ6R8.s:101758  .debug_str:0000000000036f83 .LASF6401
     /tmp/ccJdQ6R8.s:106122  .debug_str:0000000000048c71 .LASF6402
     /tmp/ccJdQ6R8.s:100394  .debug_str:00000000000318e2 .LASF6403
     /tmp/ccJdQ6R8.s:99008  .debug_str:000000000002bdec .LASF6404
     /tmp/ccJdQ6R8.s:100208  .debug_str:0000000000030b4d .LASF6405
     /tmp/ccJdQ6R8.s:98682  .debug_str:000000000002a8c6 .LASF6406
     /tmp/ccJdQ6R8.s:101836  .debug_str:0000000000037434 .LASF6407
     /tmp/ccJdQ6R8.s:93408  .debug_str:0000000000014c5b .LASF6408
     /tmp/ccJdQ6R8.s:98684  .debug_str:000000000002a8d4 .LASF6409
     /tmp/ccJdQ6R8.s:101838  .debug_str:000000000003743a .LASF6410
     /tmp/ccJdQ6R8.s:106316  .debug_str:0000000000049a0c .LASF6411
     /tmp/ccJdQ6R8.s:92386  .debug_str:0000000000010b86 .LASF6412
     /tmp/ccJdQ6R8.s:101840  .debug_str:0000000000037440 .LASF6413
     /tmp/ccJdQ6R8.s:100386  .debug_str:000000000003188b .LASF6414
     /tmp/ccJdQ6R8.s:94122  .debug_str:0000000000017b8a .LASF6415
     /tmp/ccJdQ6R8.s:101842  .debug_str:0000000000037446 .LASF6416
     /tmp/ccJdQ6R8.s:94356  .debug_str:00000000000189ef .LASF6417
     /tmp/ccJdQ6R8.s:94126  .debug_str:0000000000017bd2 .LASF6418
     /tmp/ccJdQ6R8.s:101844  .debug_str:000000000003744c .LASF6419
     /tmp/ccJdQ6R8.s:88356  .debug_str:00000000000001f2 .LASF6420
     /tmp/ccJdQ6R8.s:93678  .debug_str:0000000000015d61 .LASF6421
     /tmp/ccJdQ6R8.s:101846  .debug_str:0000000000037452 .LASF6422
     /tmp/ccJdQ6R8.s:103908  .debug_str:000000000003fb16 .LASF6423
     /tmp/ccJdQ6R8.s:92048  .debug_str:000000000000f7bf .LASF6424
     /tmp/ccJdQ6R8.s:101848  .debug_str:0000000000037458 .LASF6425
     /tmp/ccJdQ6R8.s:95304  .debug_str:000000000001cbe2 .LASF6426
     /tmp/ccJdQ6R8.s:99684  .debug_str:000000000002e983 .LASF6427
     /tmp/ccJdQ6R8.s:101850  .debug_str:000000000003745e .LASF6428
     /tmp/ccJdQ6R8.s:89260  .debug_str:00000000000040f5 .LASF6429
     /tmp/ccJdQ6R8.s:105134  .debug_str:0000000000044ae7 .LASF6430
     /tmp/ccJdQ6R8.s:101852  .debug_str:0000000000037464 .LASF6431
     /tmp/ccJdQ6R8.s:102350  .debug_str:00000000000391af .LASF6432
     /tmp/ccJdQ6R8.s:106562  .debug_str:000000000004aa46 .LASF6433
     /tmp/ccJdQ6R8.s:101854  .debug_str:000000000003746a .LASF6434
     /tmp/ccJdQ6R8.s:96284  .debug_str:000000000002113e .LASF6435
     /tmp/ccJdQ6R8.s:96452  .debug_str:0000000000021b01 .LASF6436
     /tmp/ccJdQ6R8.s:101904  .debug_str:000000000003777a .LASF6437
     /tmp/ccJdQ6R8.s:89282  .debug_str:00000000000042ce .LASF6438
     /tmp/ccJdQ6R8.s:98514  .debug_str:0000000000029e7f .LASF6439
     /tmp/ccJdQ6R8.s:101906  .debug_str:0000000000037780 .LASF6440
     /tmp/ccJdQ6R8.s:102366  .debug_str:0000000000039254 .LASF6441
     /tmp/ccJdQ6R8.s:102858  .debug_str:000000000003b4b6 .LASF6442
     /tmp/ccJdQ6R8.s:101908  .debug_str:0000000000037786 .LASF6443
     /tmp/ccJdQ6R8.s:96302  .debug_str:0000000000021230 .LASF6444
     /tmp/ccJdQ6R8.s:102862  .debug_str:000000000003b4dc .LASF6445
     /tmp/ccJdQ6R8.s:101910  .debug_str:000000000003778c .LASF6446
     /tmp/ccJdQ6R8.s:90194  .debug_str:0000000000007fd1 .LASF6447
     /tmp/ccJdQ6R8.s:100842  .debug_str:000000000003357f .LASF6448
     /tmp/ccJdQ6R8.s:101912  .debug_str:0000000000037792 .LASF6449
     /tmp/ccJdQ6R8.s:103200  .debug_str:000000000003cb81 .LASF6450
     /tmp/ccJdQ6R8.s:94758  .debug_str:000000000001a693 .LASF6451
     /tmp/ccJdQ6R8.s:101914  .debug_str:0000000000037798 .LASF6452
     /tmp/ccJdQ6R8.s:97222  .debug_str:0000000000024a22 .LASF6453
     /tmp/ccJdQ6R8.s:94762  .debug_str:000000000001a6d4 .LASF6454
     /tmp/ccJdQ6R8.s:101916  .debug_str:000000000003779e .LASF6455
     /tmp/ccJdQ6R8.s:91116  .debug_str:000000000000bf25 .LASF6456
     /tmp/ccJdQ6R8.s:94744  .debug_str:000000000001a5cb .LASF6457
     /tmp/ccJdQ6R8.s:101918  .debug_str:00000000000377a4 .LASF6458
     /tmp/ccJdQ6R8.s:104136  .debug_str:0000000000040a13 .LASF6459
     /tmp/ccJdQ6R8.s:88858  .debug_str:0000000000002454 .LASF6460
     /tmp/ccJdQ6R8.s:101920  .debug_str:00000000000377aa .LASF6461
     /tmp/ccJdQ6R8.s:98220  .debug_str:0000000000028b58 .LASF6462
     /tmp/ccJdQ6R8.s:105194  .debug_str:0000000000044ea2 .LASF6463
     /tmp/ccJdQ6R8.s:101922  .debug_str:00000000000377b0 .LASF6464
     /tmp/ccJdQ6R8.s:100024  .debug_str:000000000002ff8c .LASF6465
     /tmp/ccJdQ6R8.s:103530  .debug_str:000000000003e08d .LASF6466
     /tmp/ccJdQ6R8.s:101988  .debug_str:0000000000037bc2 .LASF6467
     /tmp/ccJdQ6R8.s:104170  .debug_str:0000000000040beb .LASF6468
     /tmp/ccJdQ6R8.s:107054  .debug_str:000000000004cd44 .LASF6469
     /tmp/ccJdQ6R8.s:101990  .debug_str:0000000000037bc8 .LASF6470
     /tmp/ccJdQ6R8.s:98242  .debug_str:0000000000028cf2 .LASF6471
     /tmp/ccJdQ6R8.s:103328  .debug_str:000000000003d36e .LASF6472
     /tmp/ccJdQ6R8.s:101992  .debug_str:0000000000037bce .LASF6473
     /tmp/ccJdQ6R8.s:92124  .debug_str:000000000000fb85 .LASF6474
     /tmp/ccJdQ6R8.s:89632  .debug_str:0000000000005a92 .LASF6475
     /tmp/ccJdQ6R8.s:101994  .debug_str:0000000000037bd4 .LASF6476
     /tmp/ccJdQ6R8.s:105140  .debug_str:0000000000044b36 .LASF6477
     /tmp/ccJdQ6R8.s:98400  .debug_str:0000000000029716 .LASF6478
     /tmp/ccJdQ6R8.s:101996  .debug_str:0000000000037bda .LASF6479
     /tmp/ccJdQ6R8.s:99224  .debug_str:000000000002cb98 .LASF6480
     /tmp/ccJdQ6R8.s:101878  .debug_str:00000000000375ef .LASF6481
     /tmp/ccJdQ6R8.s:101998  .debug_str:0000000000037be0 .LASF6482
     /tmp/ccJdQ6R8.s:93142  .debug_str:0000000000013c81 .LASF6483
     /tmp/ccJdQ6R8.s:97578  .debug_str:00000000000260c3 .LASF6484
     /tmp/ccJdQ6R8.s:102000  .debug_str:0000000000037be6 .LASF6485
     /tmp/ccJdQ6R8.s:106042  .debug_str:0000000000048649 .LASF6486
     /tmp/ccJdQ6R8.s:93858  .debug_str:0000000000016996 .LASF6487
     /tmp/ccJdQ6R8.s:102002  .debug_str:0000000000037bec .LASF6488
     /tmp/ccJdQ6R8.s:100130  .debug_str:000000000003068e .LASF6489
     /tmp/ccJdQ6R8.s:93862  .debug_str:00000000000169b7 .LASF6490
     /tmp/ccJdQ6R8.s:102004  .debug_str:0000000000037bf2 .LASF6491
     /tmp/ccJdQ6R8.s:94098  .debug_str:0000000000017a08 .LASF6492
     /tmp/ccJdQ6R8.s:97628  .debug_str:000000000002630c .LASF6493
     /tmp/ccJdQ6R8.s:102006  .debug_str:0000000000037bf8 .LASF6494
     /tmp/ccJdQ6R8.s:107040  .debug_str:000000000004cc68 .LASF6495
     /tmp/ccJdQ6R8.s:97930  .debug_str:000000000002785e .LASF6496
     /tmp/ccJdQ6R8.s:102072  .debug_str:0000000000038025 .LASF6497
     /tmp/ccJdQ6R8.s:100152  .debug_str:00000000000307b5 .LASF6498
     /tmp/ccJdQ6R8.s:100906  .debug_str:00000000000339cc .LASF6499
     /tmp/ccJdQ6R8.s:102074  .debug_str:000000000003802b .LASF6500
     /tmp/ccJdQ6R8.s:94116  .debug_str:0000000000017b36 .LASF6501
     /tmp/ccJdQ6R8.s:100206  .debug_str:0000000000030b3f .LASF6502
     /tmp/ccJdQ6R8.s:99612  .debug_str:000000000002e4c4 .LASF6503
     /tmp/ccJdQ6R8.s:94532  .debug_str:00000000000195fd .LASF6504
     /tmp/ccJdQ6R8.s:103440  .debug_str:000000000003dac9 .LASF6505
     /tmp/ccJdQ6R8.s:102078  .debug_str:000000000003804e .LASF6506
     /tmp/ccJdQ6R8.s:101088  .debug_str:0000000000034699 .LASF6507
     /tmp/ccJdQ6R8.s:89096  .debug_str:0000000000003532 .LASF6508
     /tmp/ccJdQ6R8.s:99618  .debug_str:000000000002e51d .LASF6509
     /tmp/ccJdQ6R8.s:95056  .debug_str:000000000001bae8 .LASF6510
     /tmp/ccJdQ6R8.s:94682  .debug_str:000000000001a199 .LASF6511
     /tmp/ccJdQ6R8.s:102082  .debug_str:0000000000038072 .LASF6512
     /tmp/ccJdQ6R8.s:89056  .debug_str:000000000000331e .LASF6513
     /tmp/ccJdQ6R8.s:92950  .debug_str:0000000000013059 .LASF6514
     /tmp/ccJdQ6R8.s:102084  .debug_str:0000000000038078 .LASF6515
     /tmp/ccJdQ6R8.s:100332  .debug_str:00000000000314d5 .LASF6516
     /tmp/ccJdQ6R8.s:102948  .debug_str:000000000003ba30 .LASF6517
     /tmp/ccJdQ6R8.s:102086  .debug_str:000000000003807e .LASF6518
     /tmp/ccJdQ6R8.s:96046  .debug_str:00000000000200e1 .LASF6519
     /tmp/ccJdQ6R8.s:89010  .debug_str:000000000000300e .LASF6520
     /tmp/ccJdQ6R8.s:102088  .debug_str:0000000000038084 .LASF6521
     /tmp/ccJdQ6R8.s:89948  .debug_str:0000000000007055 .LASF6522
     /tmp/ccJdQ6R8.s:96868  .debug_str:00000000000237a3 .LASF6523
     /tmp/ccJdQ6R8.s:102090  .debug_str:000000000003808a .LASF6524
     /tmp/ccJdQ6R8.s:102974  .debug_str:000000000003bc07 .LASF6525
     /tmp/ccJdQ6R8.s:101790  .debug_str:00000000000371a2 .LASF6526
     /tmp/ccJdQ6R8.s:91678  .debug_str:000000000000e318 .LASF6527
     /tmp/ccJdQ6R8.s:89914  .debug_str:0000000000006dd9 .LASF6528
     /tmp/ccJdQ6R8.s:101794  .debug_str:00000000000371e9 .LASF6529
     /tmp/ccJdQ6R8.s:92928  .debug_str:0000000000012f65 .LASF6530
     /tmp/ccJdQ6R8.s:102946  .debug_str:000000000003ba0f .LASF6531
     /tmp/ccJdQ6R8.s:94540  .debug_str:00000000000196aa .LASF6532
     /tmp/ccJdQ6R8.s:92932  .debug_str:0000000000012f8b .LASF6533
     /tmp/ccJdQ6R8.s:94800  .debug_str:000000000001a95d .LASF6534
     /tmp/ccJdQ6R8.s:97256  .debug_str:0000000000024c84 .LASF6535
     /tmp/ccJdQ6R8.s:92936  .debug_str:0000000000012f9a .LASF6536
     /tmp/ccJdQ6R8.s:90826  .debug_str:000000000000aa92 .LASF6537
     /tmp/ccJdQ6R8.s:97258  .debug_str:0000000000024c93 .LASF6538
     /tmp/ccJdQ6R8.s:91686  .debug_str:000000000000e391 .LASF6539
     /tmp/ccJdQ6R8.s:103836  .debug_str:000000000003f649 .LASF6540
     /tmp/ccJdQ6R8.s:96304  .debug_str:0000000000021250 .LASF6541
     /tmp/ccJdQ6R8.s:91688  .debug_str:000000000000e398 .LASF6542
     /tmp/ccJdQ6R8.s:97894  .debug_str:000000000002757b .LASF6543
     /tmp/ccJdQ6R8.s:94162  .debug_str:0000000000017e14 .LASF6544
     /tmp/ccJdQ6R8.s:91690  .debug_str:000000000000e39f .LASF6545
     /tmp/ccJdQ6R8.s:91784  .debug_str:000000000000e78c .LASF6546
     /tmp/ccJdQ6R8.s:90960  .debug_str:000000000000b4a8 .LASF6547
     /tmp/ccJdQ6R8.s:91692  .debug_str:000000000000e3a6 .LASF6548
     /tmp/ccJdQ6R8.s:104824  .debug_str:000000000004374f .LASF6549
     /tmp/ccJdQ6R8.s:97476  .debug_str:0000000000025a09 .LASF6550
     /tmp/ccJdQ6R8.s:91694  .debug_str:000000000000e3ad .LASF6551
     /tmp/ccJdQ6R8.s:98884  .debug_str:000000000002b5f4 .LASF6552
     /tmp/ccJdQ6R8.s:97478  .debug_str:0000000000025a1a .LASF6553
     /tmp/ccJdQ6R8.s:91696  .debug_str:000000000000e3b4 .LASF6554
     /tmp/ccJdQ6R8.s:92812  .debug_str:0000000000012702 .LASF6555
     /tmp/ccJdQ6R8.s:104212  .debug_str:0000000000040f1d .LASF6556
     /tmp/ccJdQ6R8.s:91752  .debug_str:000000000000e6a6 .LASF6557
     /tmp/ccJdQ6R8.s:104848  .debug_str:00000000000438cc .LASF6558
     /tmp/ccJdQ6R8.s:92968  .debug_str:00000000000131b7 .LASF6559
     /tmp/ccJdQ6R8.s:91754  .debug_str:000000000000e6ad .LASF6560
     /tmp/ccJdQ6R8.s:98904  .debug_str:000000000002b732 .LASF6561
     /tmp/ccJdQ6R8.s:92970  .debug_str:00000000000131c8 .LASF6562
     /tmp/ccJdQ6R8.s:91756  .debug_str:000000000000e6b4 .LASF6563
     /tmp/ccJdQ6R8.s:92828  .debug_str:0000000000012808 .LASF6564
     /tmp/ccJdQ6R8.s:90004  .debug_str:00000000000073cf .LASF6565
     /tmp/ccJdQ6R8.s:93090  .debug_str:0000000000013954 .LASF6566
     /tmp/ccJdQ6R8.s:105756  .debug_str:0000000000047410 .LASF6567
     /tmp/ccJdQ6R8.s:100030  .debug_str:000000000002ffcb .LASF6568
     /tmp/ccJdQ6R8.s:91760  .debug_str:000000000000e6df .LASF6569
     /tmp/ccJdQ6R8.s:99840  .debug_str:000000000002f455 .LASF6570
     /tmp/ccJdQ6R8.s:100036  .debug_str:0000000000030014 .LASF6571
     /tmp/ccJdQ6R8.s:91762  .debug_str:000000000000e6e6 .LASF6572
     /tmp/ccJdQ6R8.s:93790  .debug_str:0000000000016531 .LASF6573
     /tmp/ccJdQ6R8.s:90568  .debug_str:0000000000009953 .LASF6574
     /tmp/ccJdQ6R8.s:91764  .debug_str:000000000000e6ed .LASF6575
     /tmp/ccJdQ6R8.s:89276  .debug_str:0000000000004278 .LASF6576
     /tmp/ccJdQ6R8.s:88412  .debug_str:000000000000061f .LASF6577
     /tmp/ccJdQ6R8.s:91766  .debug_str:000000000000e6f4 .LASF6578
     /tmp/ccJdQ6R8.s:100786  .debug_str:00000000000331ee .LASF6579
     /tmp/ccJdQ6R8.s:90106  .debug_str:00000000000079fa .LASF6580
     /tmp/ccJdQ6R8.s:91768  .debug_str:000000000000e6fb .LASF6581
     /tmp/ccJdQ6R8.s:94740  .debug_str:000000000001a59f .LASF6582
     /tmp/ccJdQ6R8.s:100078  .debug_str:0000000000030345 .LASF6583
     /tmp/ccJdQ6R8.s:91770  .debug_str:000000000000e702 .LASF6584
     /tmp/ccJdQ6R8.s:88712  .debug_str:0000000000001a39 .LASF6585
     /tmp/ccJdQ6R8.s:95924  .debug_str:000000000001f80c .LASF6586
     /tmp/ccJdQ6R8.s:91846  .debug_str:000000000000ebe5 .LASF6587
     /tmp/ccJdQ6R8.s:100804  .debug_str:0000000000033382 .LASF6588
     /tmp/ccJdQ6R8.s:100170  .debug_str:00000000000308bd .LASF6589
     /tmp/ccJdQ6R8.s:91848  .debug_str:000000000000ebec .LASF6590
     /tmp/ccJdQ6R8.s:93492  .debug_str:00000000000151af .LASF6591
     /tmp/ccJdQ6R8.s:93252  .debug_str:00000000000142e5 .LASF6592
     /tmp/ccJdQ6R8.s:91850  .debug_str:000000000000ebf3 .LASF6593
     /tmp/ccJdQ6R8.s:88732  .debug_str:0000000000001b8a .LASF6594
     /tmp/ccJdQ6R8.s:95640  .debug_str:000000000001e36d .LASF6595
     /tmp/ccJdQ6R8.s:91852  .debug_str:000000000000ebfa .LASF6596
     /tmp/ccJdQ6R8.s:105818  .debug_str:0000000000047823 .LASF6597
     /tmp/ccJdQ6R8.s:95642  .debug_str:000000000001e37c .LASF6598
     /tmp/ccJdQ6R8.s:91854  .debug_str:000000000000ec01 .LASF6599
     /tmp/ccJdQ6R8.s:95712  .debug_str:000000000001e8f6 .LASF6600
     /tmp/ccJdQ6R8.s:89274  .debug_str:000000000000426b .LASF6601
     /tmp/ccJdQ6R8.s:91856  .debug_str:000000000000ec08 .LASF6602
     /tmp/ccJdQ6R8.s:89662  .debug_str:0000000000005c6f .LASF6603
     /tmp/ccJdQ6R8.s:88738  .debug_str:0000000000001c14 .LASF6604
     /tmp/ccJdQ6R8.s:93268  .debug_str:0000000000014384 .LASF6605
     /tmp/ccJdQ6R8.s:102696  .debug_str:000000000003a998 .LASF6606
     /tmp/ccJdQ6R8.s:88742  .debug_str:0000000000001c50 .LASF6607
     /tmp/ccJdQ6R8.s:91860  .debug_str:000000000000ec37 .LASF6608
     /tmp/ccJdQ6R8.s:88664  .debug_str:0000000000001697 .LASF6609
     /tmp/ccJdQ6R8.s:107136  .debug_str:000000000004d32f .LASF6610
     /tmp/ccJdQ6R8.s:91862  .debug_str:000000000000ec3e .LASF6611
     /tmp/ccJdQ6R8.s:96298  .debug_str:0000000000021202 .LASF6612
     /tmp/ccJdQ6R8.s:103206  .debug_str:000000000003cbf1 .LASF6613
     /tmp/ccJdQ6R8.s:91864  .debug_str:000000000000ec45 .LASF6614
     /tmp/ccJdQ6R8.s:103576  .debug_str:000000000003e35d .LASF6615
     /tmp/ccJdQ6R8.s:95294  .debug_str:000000000001cb1d .LASF6616
     /tmp/ccJdQ6R8.s:93400  .debug_str:0000000000014c0e .LASF6617
     /tmp/ccJdQ6R8.s:103394  .debug_str:000000000003d7c2 .LASF6618
     /tmp/ccJdQ6R8.s:95464  .debug_str:000000000001d7a0 .LASF6619
     /tmp/ccJdQ6R8.s:91920  .debug_str:000000000000efc2 .LASF6620
     /tmp/ccJdQ6R8.s:90538  .debug_str:00000000000097a4 .LASF6621
     /tmp/ccJdQ6R8.s:103916  .debug_str:000000000003fbaf .LASF6622
     /tmp/ccJdQ6R8.s:91922  .debug_str:000000000000efc9 .LASF6623
     /tmp/ccJdQ6R8.s:103600  .debug_str:000000000003e500 .LASF6624
     /tmp/ccJdQ6R8.s:92984  .debug_str:0000000000013278 .LASF6625
     /tmp/ccJdQ6R8.s:91924  .debug_str:000000000000efd0 .LASF6626
     /tmp/ccJdQ6R8.s:97656  .debug_str:000000000002654b .LASF6627
     /tmp/ccJdQ6R8.s:100882  .debug_str:00000000000337f8 .LASF6628
     /tmp/ccJdQ6R8.s:91926  .debug_str:000000000000efd7 .LASF6629
     /tmp/ccJdQ6R8.s:91518  .debug_str:000000000000d935 .LASF6630
     /tmp/ccJdQ6R8.s:89856  .debug_str:00000000000069e7 .LASF6631
     /tmp/ccJdQ6R8.s:91928  .debug_str:000000000000efde .LASF6632
     /tmp/ccJdQ6R8.s:104556  .debug_str:0000000000042642 .LASF6633
     /tmp/ccJdQ6R8.s:93382  .debug_str:0000000000014adb .LASF6634
     /tmp/ccJdQ6R8.s:93424  .debug_str:0000000000014d60 .LASF6635
     /tmp/ccJdQ6R8.s:98642  .debug_str:000000000002a6b4 .LASF6636
     /tmp/ccJdQ6R8.s:101420  .debug_str:0000000000035bce .LASF6637
     /tmp/ccJdQ6R8.s:91932  .debug_str:000000000000f013 .LASF6638
     /tmp/ccJdQ6R8.s:97840  .debug_str:00000000000271e4 .LASF6639
     /tmp/ccJdQ6R8.s:101798  .debug_str:0000000000037221 .LASF6640
     /tmp/ccJdQ6R8.s:91934  .debug_str:000000000000f01a .LASF6641
     /tmp/ccJdQ6R8.s:105522  .debug_str:000000000004641e .LASF6642
     /tmp/ccJdQ6R8.s:99668  .debug_str:000000000002e825 .LASF6643
     /tmp/ccJdQ6R8.s:93430  .debug_str:0000000000014db3 .LASF6644
     /tmp/ccJdQ6R8.s:102278  .debug_str:0000000000038c75 .LASF6645
     /tmp/ccJdQ6R8.s:96086  .debug_str:000000000002032c .LASF6646
     /tmp/ccJdQ6R8.s:92002  .debug_str:000000000000f535 .LASF6647
     /tmp/ccJdQ6R8.s:100636  .debug_str:000000000003287a .LASF6648
     /tmp/ccJdQ6R8.s:93154  .debug_str:0000000000013d0e .LASF6649
     /tmp/ccJdQ6R8.s:92004  .debug_str:000000000000f53c .LASF6650
     /tmp/ccJdQ6R8.s:105542  .debug_str:0000000000046555 .LASF6651
     /tmp/ccJdQ6R8.s:89630  .debug_str:0000000000005a87 .LASF6652
     /tmp/ccJdQ6R8.s:92006  .debug_str:000000000000f543 .LASF6653
     /tmp/ccJdQ6R8.s:99620  .debug_str:000000000002e523 .LASF6654
     /tmp/ccJdQ6R8.s:93626  .debug_str:0000000000015a01 .LASF6655
     /tmp/ccJdQ6R8.s:92008  .debug_str:000000000000f54a .LASF6656
     /tmp/ccJdQ6R8.s:93548  .debug_str:00000000000155b9 .LASF6657
     /tmp/ccJdQ6R8.s:93604  .debug_str:00000000000158ed .LASF6658
     /tmp/ccJdQ6R8.s:92010  .debug_str:000000000000f551 .LASF6659
     /tmp/ccJdQ6R8.s:106456  .debug_str:000000000004a32c .LASF6660
     /tmp/ccJdQ6R8.s:92566  .debug_str:000000000001175a .LASF6661
     /tmp/ccJdQ6R8.s:92012  .debug_str:000000000000f558 .LASF6662
     /tmp/ccJdQ6R8.s:93588  .debug_str:000000000001579f .LASF6663
     /tmp/ccJdQ6R8.s:95160  .debug_str:000000000001c26c .LASF6664
     /tmp/ccJdQ6R8.s:93574  .debug_str:000000000001572d .LASF6665
     /tmp/ccJdQ6R8.s:105046  .debug_str:000000000004450a .LASF6666
     /tmp/ccJdQ6R8.s:98964  .debug_str:000000000002bb60 .LASF6667
     /tmp/ccJdQ6R8.s:93576  .debug_str:0000000000015734 .LASF6668
     /tmp/ccJdQ6R8.s:88492  .debug_str:0000000000000b17 .LASF6669
     /tmp/ccJdQ6R8.s:100710  .debug_str:0000000000032d3d .LASF6670
     /tmp/ccJdQ6R8.s:93578  .debug_str:000000000001573b .LASF6671
     /tmp/ccJdQ6R8.s:101460  .debug_str:0000000000035e39 .LASF6672
     /tmp/ccJdQ6R8.s:89622  .debug_str:0000000000005a1a .LASF6673
     /tmp/ccJdQ6R8.s:93580  .debug_str:0000000000015742 .LASF6674
     /tmp/ccJdQ6R8.s:95424  .debug_str:000000000001d4a6 .LASF6675
     /tmp/ccJdQ6R8.s:103848  .debug_str:000000000003f74a .LASF6676
     /tmp/ccJdQ6R8.s:92088  .debug_str:000000000000fa21 .LASF6677
     /tmp/ccJdQ6R8.s:88510  .debug_str:0000000000000c0e .LASF6678
     /tmp/ccJdQ6R8.s:94412  .debug_str:0000000000018dee .LASF6679
     /tmp/ccJdQ6R8.s:92090  .debug_str:000000000000fa28 .LASF6680
     /tmp/ccJdQ6R8.s:103914  .debug_str:000000000003fb8e .LASF6681
     /tmp/ccJdQ6R8.s:105184  .debug_str:0000000000044de2 .LASF6682
     /tmp/ccJdQ6R8.s:92092  .debug_str:000000000000fa2f .LASF6683
     /tmp/ccJdQ6R8.s:95446  .debug_str:000000000001d655 .LASF6684
     /tmp/ccJdQ6R8.s:90702  .debug_str:000000000000a22a .LASF6685
     /tmp/ccJdQ6R8.s:92094  .debug_str:000000000000fa36 .LASF6686
     /tmp/ccJdQ6R8.s:105222  .debug_str:0000000000045021 .LASF6687
     /tmp/ccJdQ6R8.s:99244  .debug_str:000000000002cce6 .LASF6688
     /tmp/ccJdQ6R8.s:92096  .debug_str:000000000000fa3d .LASF6689
     /tmp/ccJdQ6R8.s:102486  .debug_str:0000000000039ab5 .LASF6690
     /tmp/ccJdQ6R8.s:92500  .debug_str:00000000000112b1 .LASF6691
     /tmp/ccJdQ6R8.s:92098  .debug_str:000000000000fa44 .LASF6692
     /tmp/ccJdQ6R8.s:96444  .debug_str:0000000000021a82 .LASF6693
     /tmp/ccJdQ6R8.s:106052  .debug_str:000000000004870c .LASF6694
     /tmp/ccJdQ6R8.s:92100  .debug_str:000000000000fa4b .LASF6695
     /tmp/ccJdQ6R8.s:90312  .debug_str:000000000000877c .LASF6696
     /tmp/ccJdQ6R8.s:94600  .debug_str:0000000000019b41 .LASF6697
     /tmp/ccJdQ6R8.s:92102  .debug_str:000000000000fa52 .LASF6698
     /tmp/ccJdQ6R8.s:103348  .debug_str:000000000003d4de .LASF6699
     /tmp/ccJdQ6R8.s:106872  .debug_str:000000000004c18d .LASF6700
     /tmp/ccJdQ6R8.s:92104  .debug_str:000000000000fa59 .LASF6701
     /tmp/ccJdQ6R8.s:97382  .debug_str:0000000000025349 .LASF6702
     /tmp/ccJdQ6R8.s:88760  .debug_str:0000000000001d54 .LASF6703
     /tmp/ccJdQ6R8.s:92106  .debug_str:000000000000fa60 .LASF6704
     /tmp/ccJdQ6R8.s:91266  .debug_str:000000000000c92d .LASF6705
     /tmp/ccJdQ6R8.s:90042  .debug_str:0000000000007621 .LASF6706
     /tmp/ccJdQ6R8.s:92154  .debug_str:000000000000fd8c .LASF6707
     /tmp/ccJdQ6R8.s:103526  .debug_str:000000000003e053 .LASF6708
     /tmp/ccJdQ6R8.s:98868  .debug_str:000000000002b51a .LASF6709
     /tmp/ccJdQ6R8.s:92156  .debug_str:000000000000fd93 .LASF6710
     /tmp/ccJdQ6R8.s:97560  .debug_str:0000000000025f66 .LASF6711
     /tmp/ccJdQ6R8.s:102466  .debug_str:00000000000399c9 .LASF6712
     /tmp/ccJdQ6R8.s:92158  .debug_str:000000000000fd9a .LASF6713
     /tmp/ccJdQ6R8.s:91436  .debug_str:000000000000d4a5 .LASF6714
     /tmp/ccJdQ6R8.s:103474  .debug_str:000000000003dd2d .LASF6715
     /tmp/ccJdQ6R8.s:95498  .debug_str:000000000001da1e .LASF6716
     /tmp/ccJdQ6R8.s:104480  .debug_str:0000000000042153 .LASF6717
     /tmp/ccJdQ6R8.s:103240  .debug_str:000000000003ce8b .LASF6718
     /tmp/ccJdQ6R8.s:92162  .debug_str:000000000000fdc2 .LASF6719
     /tmp/ccJdQ6R8.s:98566  .debug_str:000000000002a118 .LASF6720
     /tmp/ccJdQ6R8.s:93722  .debug_str:0000000000016088 .LASF6721
     /tmp/ccJdQ6R8.s:92164  .debug_str:000000000000fdc9 .LASF6722
     /tmp/ccJdQ6R8.s:88548  .debug_str:0000000000000eb7 .LASF6723
     /tmp/ccJdQ6R8.s:102362  .debug_str:0000000000039239 .LASF6724
     /tmp/ccJdQ6R8.s:92166  .debug_str:000000000000fdd0 .LASF6725
     /tmp/ccJdQ6R8.s:94732  .debug_str:000000000001a4f0 .LASF6726
     /tmp/ccJdQ6R8.s:100338  .debug_str:000000000003157a .LASF6727
     /tmp/ccJdQ6R8.s:92168  .debug_str:000000000000fdd7 .LASF6728
     /tmp/ccJdQ6R8.s:99520  .debug_str:000000000002de35 .LASF6729
     /tmp/ccJdQ6R8.s:99512  .debug_str:000000000002dd9d .LASF6730
     /tmp/ccJdQ6R8.s:92170  .debug_str:000000000000fdde .LASF6731
     /tmp/ccJdQ6R8.s:107080  .debug_str:000000000004cf1f .LASF6732
     /tmp/ccJdQ6R8.s:95168  .debug_str:000000000001c2ed .LASF6733
     /tmp/ccJdQ6R8.s:92172  .debug_str:000000000000fde5 .LASF6734
     /tmp/ccJdQ6R8.s:106358  .debug_str:0000000000049c8d .LASF6735
     /tmp/ccJdQ6R8.s:88682  .debug_str:0000000000001819 .LASF6736
     /tmp/ccJdQ6R8.s:94024  .debug_str:0000000000017526 .LASF6737
     /tmp/ccJdQ6R8.s:99542  .debug_str:000000000002e009 .LASF6738
     /tmp/ccJdQ6R8.s:90572  .debug_str:000000000000997c .LASF6739
     /tmp/ccJdQ6R8.s:94028  .debug_str:0000000000017561 .LASF6740
     /tmp/ccJdQ6R8.s:93484  .debug_str:0000000000015152 .LASF6741
     /tmp/ccJdQ6R8.s:90576  .debug_str:000000000000999e .LASF6742
     /tmp/ccJdQ6R8.s:92242  .debug_str:000000000001025e .LASF6743
     /tmp/ccJdQ6R8.s:106384  .debug_str:0000000000049e65 .LASF6744
     /tmp/ccJdQ6R8.s:101952  .debug_str:000000000003799c .LASF6745
     /tmp/ccJdQ6R8.s:92244  .debug_str:0000000000010265 .LASF6746
     /tmp/ccJdQ6R8.s:92240  .debug_str:000000000001023d .LASF6747
     /tmp/ccJdQ6R8.s:101926  .debug_str:00000000000377d9 .LASF6748
     /tmp/ccJdQ6R8.s:92246  .debug_str:000000000001026c .LASF6749
     /tmp/ccJdQ6R8.s:94420  .debug_str:0000000000018e58 .LASF6750
     /tmp/ccJdQ6R8.s:101930  .debug_str:0000000000037823 .LASF6751
     /tmp/ccJdQ6R8.s:92248  .debug_str:0000000000010273 .LASF6752
     /tmp/ccJdQ6R8.s:88422  .debug_str:00000000000006b0 .LASF6753
     /tmp/ccJdQ6R8.s:102244  .debug_str:00000000000389fd .LASF6754
     /tmp/ccJdQ6R8.s:92250  .debug_str:000000000001027a .LASF6755
     /tmp/ccJdQ6R8.s:101388  .debug_str:00000000000359ee .LASF6756
     /tmp/ccJdQ6R8.s:97396  .debug_str:000000000002540d .LASF6757
     /tmp/ccJdQ6R8.s:92252  .debug_str:0000000000010281 .LASF6758
     /tmp/ccJdQ6R8.s:95352  .debug_str:000000000001cf98 .LASF6759
     /tmp/ccJdQ6R8.s:97400  .debug_str:000000000002545c .LASF6760
     /tmp/ccJdQ6R8.s:92254  .debug_str:0000000000010288 .LASF6761
     /tmp/ccJdQ6R8.s:89324  .debug_str:0000000000004526 .LASF6762
     /tmp/ccJdQ6R8.s:103228  .debug_str:000000000003cd9b .LASF6763
     /tmp/ccJdQ6R8.s:94046  .debug_str:0000000000017661 .LASF6764
     /tmp/ccJdQ6R8.s:91378  .debug_str:000000000000d0db .LASF6765
     /tmp/ccJdQ6R8.s:94968  .debug_str:000000000001b537 .LASF6766
     /tmp/ccJdQ6R8.s:92324  .debug_str:00000000000107b1 .LASF6767
     /tmp/ccJdQ6R8.s:95364  .debug_str:000000000001d060 .LASF6768
     /tmp/ccJdQ6R8.s:94972  .debug_str:000000000001b562 .LASF6769
     /tmp/ccJdQ6R8.s:92326  .debug_str:00000000000107b8 .LASF6770
     /tmp/ccJdQ6R8.s:89340  .debug_str:000000000000461b .LASF6771
     /tmp/ccJdQ6R8.s:102414  .debug_str:00000000000395b8 .LASF6772
     /tmp/ccJdQ6R8.s:92328  .debug_str:00000000000107bf .LASF6773
     /tmp/ccJdQ6R8.s:102418  .debug_str:00000000000395f3 .LASF6774
     /tmp/ccJdQ6R8.s:90372  .debug_str:0000000000008c0b .LASF6775
     /tmp/ccJdQ6R8.s:94188  .debug_str:0000000000017fd7 .LASF6776
     /tmp/ccJdQ6R8.s:96354  .debug_str:0000000000021503 .LASF6777
     /tmp/ccJdQ6R8.s:90376  .debug_str:0000000000008c36 .LASF6778
     /tmp/ccJdQ6R8.s:92332  .debug_str:0000000000010809 .LASF6779
     /tmp/ccJdQ6R8.s:90250  .debug_str:000000000000838f .LASF6780
     /tmp/ccJdQ6R8.s:93564  .debug_str:0000000000015692 .LASF6781
     /tmp/ccJdQ6R8.s:92334  .debug_str:0000000000010810 .LASF6782
     /tmp/ccJdQ6R8.s:103258  .debug_str:000000000003cf6e .LASF6783
     /tmp/ccJdQ6R8.s:95886  .debug_str:000000000001f585 .LASF6784
     /tmp/ccJdQ6R8.s:92336  .debug_str:0000000000010817 .LASF6785
     /tmp/ccJdQ6R8.s:97296  .debug_str:0000000000024d96 .LASF6786
     /tmp/ccJdQ6R8.s:89318  .debug_str:00000000000044e6 .LASF6787
     /tmp/ccJdQ6R8.s:92338  .debug_str:000000000001081e .LASF6788
     /tmp/ccJdQ6R8.s:91182  .debug_str:000000000000c39c .LASF6789
     /tmp/ccJdQ6R8.s:99424  .debug_str:000000000002d7f4 .LASF6790
     /tmp/ccJdQ6R8.s:94204  .debug_str:0000000000018051 .LASF6791
     /tmp/ccJdQ6R8.s:104216  .debug_str:0000000000040f58 .LASF6792
     /tmp/ccJdQ6R8.s:91284  .debug_str:000000000000caa9 .LASF6793
     /tmp/ccJdQ6R8.s:92342  .debug_str:000000000001084f .LASF6794
     /tmp/ccJdQ6R8.s:98286  .debug_str:0000000000028fbb .LASF6795
     /tmp/ccJdQ6R8.s:91288  .debug_str:000000000000caec .LASF6796
     /tmp/ccJdQ6R8.s:92414  .debug_str:0000000000010d6b .LASF6797
     /tmp/ccJdQ6R8.s:91212  .debug_str:000000000000c5b5 .LASF6798
     /tmp/ccJdQ6R8.s:94664  .debug_str:000000000001a05f .LASF6799
     /tmp/ccJdQ6R8.s:92416  .debug_str:0000000000010d72 .LASF6800
     /tmp/ccJdQ6R8.s:104238  .debug_str:0000000000041129 .LASF6801
     /tmp/ccJdQ6R8.s:105528  .debug_str:000000000004645e .LASF6802
     /tmp/ccJdQ6R8.s:92418  .debug_str:0000000000010d79 .LASF6803
     /tmp/ccJdQ6R8.s:98306  .debug_str:00000000000290e3 .LASF6804
     /tmp/ccJdQ6R8.s:105534  .debug_str:00000000000464ae .LASF6805
     /tmp/ccJdQ6R8.s:96248  .debug_str:0000000000020ed5 .LASF6806
     /tmp/ccJdQ6R8.s:105586  .debug_str:0000000000046829 .LASF6807
     /tmp/ccJdQ6R8.s:93778  .debug_str:0000000000016460 .LASF6808
     /tmp/ccJdQ6R8.s:92422  .debug_str:0000000000010daa .LASF6809
     /tmp/ccJdQ6R8.s:105204  .debug_str:0000000000044ee8 .LASF6810
     /tmp/ccJdQ6R8.s:105340  .debug_str:0000000000045857 .LASF6811
     /tmp/ccJdQ6R8.s:92424  .debug_str:0000000000010db1 .LASF6812
     /tmp/ccJdQ6R8.s:99284  .debug_str:000000000002cf5b .LASF6813
     /tmp/ccJdQ6R8.s:105344  .debug_str:0000000000045893 .LASF6814
     /tmp/ccJdQ6R8.s:92426  .debug_str:0000000000010db8 .LASF6815
     /tmp/ccJdQ6R8.s:93202  .debug_str:0000000000013ff0 .LASF6816
     /tmp/ccJdQ6R8.s:103626  .debug_str:000000000003e699 .LASF6817
     /tmp/ccJdQ6R8.s:92428  .debug_str:0000000000010dbf .LASF6818
     /tmp/ccJdQ6R8.s:92360  .debug_str:0000000000010973 .LASF6819
     /tmp/ccJdQ6R8.s:98448  .debug_str:00000000000299ed .LASF6820
     /tmp/ccJdQ6R8.s:94350  .debug_str:0000000000018994 .LASF6821
     /tmp/ccJdQ6R8.s:100190  .debug_str:0000000000030a2b .LASF6822
     /tmp/ccJdQ6R8.s:101824  .debug_str:000000000003739b .LASF6823
     /tmp/ccJdQ6R8.s:92432  .debug_str:0000000000010dec .LASF6824
     /tmp/ccJdQ6R8.s:94156  .debug_str:0000000000017da7 .LASF6825
     /tmp/ccJdQ6R8.s:101610  .debug_str:000000000003675e .LASF6826
     /tmp/ccJdQ6R8.s:96922  .debug_str:0000000000023ad9 .LASF6827
     /tmp/ccJdQ6R8.s:101834  .debug_str:0000000000037413 .LASF6828
     /tmp/ccJdQ6R8.s:101614  .debug_str:0000000000036795 .LASF6829
     /tmp/ccJdQ6R8.s:96924  .debug_str:0000000000023ae0 .LASF6830
     /tmp/ccJdQ6R8.s:102658  .debug_str:000000000003a704 .LASF6831
     /tmp/ccJdQ6R8.s:101868  .debug_str:0000000000037542 .LASF6832
     /tmp/ccJdQ6R8.s:96926  .debug_str:0000000000023ae7 .LASF6833
     /tmp/ccJdQ6R8.s:89728  .debug_str:00000000000060ac .LASF6834
     /tmp/ccJdQ6R8.s:97062  .debug_str:00000000000242bd .LASF6835
     /tmp/ccJdQ6R8.s:96928  .debug_str:0000000000023aee .LASF6836
     /tmp/ccJdQ6R8.s:102774  .debug_str:000000000003aeee .LASF6837
     /tmp/ccJdQ6R8.s:97066  .debug_str:00000000000242dc .LASF6838
     /tmp/ccJdQ6R8.s:96930  .debug_str:0000000000023af5 .LASF6839
     /tmp/ccJdQ6R8.s:96720  .debug_str:0000000000022d29 .LASF6840
     /tmp/ccJdQ6R8.s:93666  .debug_str:0000000000015cfe .LASF6841
     /tmp/ccJdQ6R8.s:96932  .debug_str:0000000000023afc .LASF6842
     /tmp/ccJdQ6R8.s:107096  .debug_str:000000000004d02b .LASF6843
     /tmp/ccJdQ6R8.s:95508  .debug_str:000000000001daad .LASF6844
     /tmp/ccJdQ6R8.s:96934  .debug_str:0000000000023b03 .LASF6845
     /tmp/ccJdQ6R8.s:106486  .debug_str:000000000004a5b6 .LASF6846
     /tmp/ccJdQ6R8.s:101832  .debug_str:0000000000037403 .LASF6847
     /tmp/ccJdQ6R8.s:96936  .debug_str:0000000000023b0a .LASF6848
     /tmp/ccJdQ6R8.s:97698  .debug_str:000000000002688d .LASF6849
     /tmp/ccJdQ6R8.s:105446  .debug_str:0000000000045f33 .LASF6850
     /tmp/ccJdQ6R8.s:96938  .debug_str:0000000000023b11 .LASF6851
     /tmp/ccJdQ6R8.s:91570  .debug_str:000000000000dc99 .LASF6852
     /tmp/ccJdQ6R8.s:102898  .debug_str:000000000003b709 .LASF6853
     /tmp/ccJdQ6R8.s:96940  .debug_str:0000000000023b18 .LASF6854
     /tmp/ccJdQ6R8.s:104610  .debug_str:0000000000042a52 .LASF6855
     /tmp/ccJdQ6R8.s:90144  .debug_str:0000000000007c50 .LASF6856
     /tmp/ccJdQ6R8.s:96994  .debug_str:0000000000023f75 .LASF6857
     /tmp/ccJdQ6R8.s:97720  .debug_str:00000000000269ed .LASF6858
     /tmp/ccJdQ6R8.s:90146  .debug_str:0000000000007c5f .LASF6859
     /tmp/ccJdQ6R8.s:96996  .debug_str:0000000000023f7c .LASF6860
     /tmp/ccJdQ6R8.s:91598  .debug_str:000000000000de7e .LASF6861
     /tmp/ccJdQ6R8.s:90384  .debug_str:0000000000008ca1 .LASF6862
     /tmp/ccJdQ6R8.s:96998  .debug_str:0000000000023f83 .LASF6863
     /tmp/ccJdQ6R8.s:104634  .debug_str:0000000000042bb8 .LASF6864
     /tmp/ccJdQ6R8.s:104690  .debug_str:0000000000042f51 .LASF6865
     /tmp/ccJdQ6R8.s:97000  .debug_str:0000000000023f8a .LASF6866
     /tmp/ccJdQ6R8.s:98720  .debug_str:000000000002ab39 .LASF6867
     /tmp/ccJdQ6R8.s:104694  .debug_str:0000000000042f6a .LASF6868
     /tmp/ccJdQ6R8.s:97002  .debug_str:0000000000023f91 .LASF6869
     /tmp/ccJdQ6R8.s:92628  .debug_str:0000000000011bcf .LASF6870
     /tmp/ccJdQ6R8.s:94358  .debug_str:0000000000018a0f .LASF6871
     /tmp/ccJdQ6R8.s:97004  .debug_str:0000000000023f98 .LASF6872
     /tmp/ccJdQ6R8.s:105584  .debug_str:0000000000046808 .LASF6873
     /tmp/ccJdQ6R8.s:90634  .debug_str:0000000000009db6 .LASF6874
     /tmp/ccJdQ6R8.s:97006  .debug_str:0000000000023f9f .LASF6875
     /tmp/ccJdQ6R8.s:99660  .debug_str:000000000002e7a3 .LASF6876
     /tmp/ccJdQ6R8.s:90638  .debug_str:0000000000009dca .LASF6877
     /tmp/ccJdQ6R8.s:97008  .debug_str:0000000000023fa6 .LASF6878
     /tmp/ccJdQ6R8.s:93592  .debug_str:0000000000015803 .LASF6879
     /tmp/ccJdQ6R8.s:103222  .debug_str:000000000003cd4c .LASF6880
     /tmp/ccJdQ6R8.s:97010  .debug_str:0000000000023fad .LASF6881
     /tmp/ccJdQ6R8.s:106508  .debug_str:000000000004a717 .LASF6882
     /tmp/ccJdQ6R8.s:101442  .debug_str:0000000000035d09 .LASF6883
     /tmp/ccJdQ6R8.s:97012  .debug_str:0000000000023fb4 .LASF6884
     /tmp/ccJdQ6R8.s:100586  .debug_str:00000000000324e5 .LASF6885
     /tmp/ccJdQ6R8.s:96990  .debug_str:0000000000023f5a .LASF6886
     /tmp/ccJdQ6R8.s:97086  .debug_str:000000000002445e .LASF6887
     /tmp/ccJdQ6R8.s:90678  .debug_str:000000000000a054 .LASF6888
     /tmp/ccJdQ6R8.s:105198  .debug_str:0000000000044ecb .LASF6889
     /tmp/ccJdQ6R8.s:97088  .debug_str:0000000000024465 .LASF6890
     /tmp/ccJdQ6R8.s:96918  .debug_str:0000000000023aab .LASF6891
     /tmp/ccJdQ6R8.s:105200  .debug_str:0000000000044ed6 .LASF6892
     /tmp/ccJdQ6R8.s:103616  .debug_str:000000000003e62a .LASF6893
     /tmp/ccJdQ6R8.s:100614  .debug_str:00000000000326d6 .LASF6894
     /tmp/ccJdQ6R8.s:105510  .debug_str:0000000000046326 .LASF6895
     /tmp/ccJdQ6R8.s:97092  .debug_str:00000000000244a1 .LASF6896
     /tmp/ccJdQ6R8.s:94570  .debug_str:00000000000198d6 .LASF6897
     /tmp/ccJdQ6R8.s:89624  .debug_str:0000000000005a29 .LASF6898
     /tmp/ccJdQ6R8.s:97094  .debug_str:00000000000244a8 .LASF6899
     /tmp/ccJdQ6R8.s:88558  .debug_str:0000000000000f68 .LASF6900
     /tmp/ccJdQ6R8.s:99392  .debug_str:000000000002d5b5 .LASF6901
     /tmp/ccJdQ6R8.s:97096  .debug_str:00000000000244af .LASF6902
     /tmp/ccJdQ6R8.s:101542  .debug_str:0000000000036313 .LASF6903
     /tmp/ccJdQ6R8.s:90206  .debug_str:00000000000080d4 .LASF6904
     /tmp/ccJdQ6R8.s:97098  .debug_str:00000000000244b6 .LASF6905
     /tmp/ccJdQ6R8.s:95488  .debug_str:000000000001d996 .LASF6906
     /tmp/ccJdQ6R8.s:100500  .debug_str:0000000000031fe8 .LASF6907
     /tmp/ccJdQ6R8.s:97100  .debug_str:00000000000244bd .LASF6908
     /tmp/ccJdQ6R8.s:89456  .debug_str:0000000000004e68 .LASF6909
     /tmp/ccJdQ6R8.s:104876  .debug_str:0000000000043a9a .LASF6910
     /tmp/ccJdQ6R8.s:97102  .debug_str:00000000000244c4 .LASF6911
     /tmp/ccJdQ6R8.s:102520  .debug_str:0000000000039cb1 .LASF6912
     /tmp/ccJdQ6R8.s:99320  .debug_str:000000000002d187 .LASF6913
     /tmp/ccJdQ6R8.s:97104  .debug_str:00000000000244cb .LASF6914
     /tmp/ccJdQ6R8.s:96480  .debug_str:0000000000021ce9 .LASF6915
     /tmp/ccJdQ6R8.s:93766  .debug_str:00000000000163d2 .LASF6916
     /tmp/ccJdQ6R8.s:97182  .debug_str:00000000000248ca .LASF6917
     /tmp/ccJdQ6R8.s:102196  .debug_str:00000000000386e1 .LASF6918
     /tmp/ccJdQ6R8.s:93774  .debug_str:000000000001643d .LASF6919
     /tmp/ccJdQ6R8.s:97184  .debug_str:00000000000248d1 .LASF6920
     /tmp/ccJdQ6R8.s:102542  .debug_str:0000000000039e24 .LASF6921
     /tmp/ccJdQ6R8.s:90276  .debug_str:0000000000008543 .LASF6922
     /tmp/ccJdQ6R8.s:97186  .debug_str:00000000000248d8 .LASF6923
     /tmp/ccJdQ6R8.s:96494  .debug_str:0000000000021e01 .LASF6924
     /tmp/ccJdQ6R8.s:101480  .debug_str:0000000000035ff9 .LASF6925
     /tmp/ccJdQ6R8.s:97188  .debug_str:00000000000248df .LASF6926
     /tmp/ccJdQ6R8.s:90368  .debug_str:0000000000008bcb .LASF6927
     /tmp/ccJdQ6R8.s:106090  .debug_str:0000000000048a5e .LASF6928
     /tmp/ccJdQ6R8.s:97190  .debug_str:00000000000248e6 .LASF6929
     /tmp/ccJdQ6R8.s:93706  .debug_str:0000000000015f52 .LASF6930
     /tmp/ccJdQ6R8.s:98924  .debug_str:000000000002b8cc .LASF6931
     /tmp/ccJdQ6R8.s:97192  .debug_str:00000000000248ed .LASF6932
     /tmp/ccJdQ6R8.s:97438  .debug_str:00000000000256d3 .LASF6933
     /tmp/ccJdQ6R8.s:98926  .debug_str:000000000002b8d8 .LASF6934
     /tmp/ccJdQ6R8.s:97194  .debug_str:00000000000248f4 .LASF6935
     /tmp/ccJdQ6R8.s:91328  .debug_str:000000000000cd96 .LASF6936
     /tmp/ccJdQ6R8.s:98928  .debug_str:000000000002b8e4 .LASF6937
     /tmp/ccJdQ6R8.s:97196  .debug_str:00000000000248fb .LASF6938
     /tmp/ccJdQ6R8.s:104370  .debug_str:0000000000041a8a .LASF6939
     /tmp/ccJdQ6R8.s:93816  .debug_str:00000000000166ec .LASF6940
     /tmp/ccJdQ6R8.s:97198  .debug_str:0000000000024902 .LASF6941
     /tmp/ccJdQ6R8.s:98454  .debug_str:0000000000029a36 .LASF6942
     /tmp/ccJdQ6R8.s:89962  .debug_str:0000000000007108 .LASF6943
     /tmp/ccJdQ6R8.s:97200  .debug_str:0000000000024909 .LASF6944
     /tmp/ccJdQ6R8.s:92314  .debug_str:00000000000106fa .LASF6945
     /tmp/ccJdQ6R8.s:93820  .debug_str:0000000000016707 .LASF6946
     /tmp/ccJdQ6R8.s:97268  .debug_str:0000000000024d0c .LASF6947
     /tmp/ccJdQ6R8.s:104396  .debug_str:0000000000041c36 .LASF6948
     /tmp/ccJdQ6R8.s:97616  .debug_str:0000000000026280 .LASF6949
     /tmp/ccJdQ6R8.s:97270  .debug_str:0000000000024d13 .LASF6950
     /tmp/ccJdQ6R8.s:98474  .debug_str:0000000000029b3d .LASF6951
     /tmp/ccJdQ6R8.s:100830  .debug_str:0000000000033500 .LASF6952
     /tmp/ccJdQ6R8.s:97272  .debug_str:0000000000024d1a .LASF6953
     /tmp/ccJdQ6R8.s:92346  .debug_str:0000000000010866 .LASF6954
     /tmp/ccJdQ6R8.s:91490  .debug_str:000000000000d780 .LASF6955
     /tmp/ccJdQ6R8.s:97274  .debug_str:0000000000024d21 .LASF6956
     /tmp/ccJdQ6R8.s:105338  .debug_str:0000000000045836 .LASF6957
     /tmp/ccJdQ6R8.s:98008  .debug_str:0000000000027d80 .LASF6958
     /tmp/ccJdQ6R8.s:97276  .debug_str:0000000000024d28 .LASF6959
     /tmp/ccJdQ6R8.s:90780  .debug_str:000000000000a775 .LASF6960
     /tmp/ccJdQ6R8.s:91494  .debug_str:000000000000d7af .LASF6961
     /tmp/ccJdQ6R8.s:97278  .debug_str:0000000000024d2f .LASF6962
     /tmp/ccJdQ6R8.s:100814  .debug_str:000000000003343c .LASF6963
     /tmp/ccJdQ6R8.s:107016  .debug_str:000000000004cb1a .LASF6964
     /tmp/ccJdQ6R8.s:97280  .debug_str:0000000000024d36 .LASF6965
     /tmp/ccJdQ6R8.s:106264  .debug_str:0000000000049646 .LASF6966
     /tmp/ccJdQ6R8.s:107018  .debug_str:000000000004cb24 .LASF6967
     /tmp/ccJdQ6R8.s:97282  .debug_str:0000000000024d3d .LASF6968
     /tmp/ccJdQ6R8.s:90360  .debug_str:0000000000008b31 .LASF6969
     /tmp/ccJdQ6R8.s:102294  .debug_str:0000000000038d9b .LASF6970
     /tmp/ccJdQ6R8.s:97284  .debug_str:0000000000024d44 .LASF6971
     /tmp/ccJdQ6R8.s:94294  .debug_str:00000000000185d8 .LASF6972
     /tmp/ccJdQ6R8.s:107022  .debug_str:000000000004cb5e .LASF6973
     /tmp/ccJdQ6R8.s:97286  .debug_str:0000000000024d4b .LASF6974
     /tmp/ccJdQ6R8.s:107226  .debug_str:000000000004d958 .LASF6975
     /tmp/ccJdQ6R8.s:92746  .debug_str:00000000000122ab .LASF6976
     /tmp/ccJdQ6R8.s:97356  .debug_str:00000000000251ba .LASF6977
     /tmp/ccJdQ6R8.s:101240  .debug_str:00000000000350a4 .LASF6978
     /tmp/ccJdQ6R8.s:100602  .debug_str:000000000003264f .LASF6979
     /tmp/ccJdQ6R8.s:91738  .debug_str:000000000000e645 .LASF6980
     /tmp/ccJdQ6R8.s:99714  .debug_str:000000000002eb55 .LASF6981
     /tmp/ccJdQ6R8.s:100604  .debug_str:000000000003265b .LASF6982
     /tmp/ccJdQ6R8.s:91742  .debug_str:000000000000e661 .LASF6983
     /tmp/ccJdQ6R8.s:93658  .debug_str:0000000000015c5b .LASF6984
     /tmp/ccJdQ6R8.s:100606  .debug_str:0000000000032667 .LASF6985
     /tmp/ccJdQ6R8.s:93102  .debug_str:0000000000013a10 .LASF6986
     /tmp/ccJdQ6R8.s:106586  .debug_str:000000000004ab89 .LASF6987
     /tmp/ccJdQ6R8.s:103496  .debug_str:000000000003de74 .LASF6988
     /tmp/ccJdQ6R8.s:93834  .debug_str:00000000000167c6 .LASF6989
     /tmp/ccJdQ6R8.s:96672  .debug_str:00000000000229f2 .LASF6990
     /tmp/ccJdQ6R8.s:102688  .debug_str:000000000003a92e .LASF6991
     /tmp/ccJdQ6R8.s:102156  .debug_str:00000000000383f3 .LASF6992
     /tmp/ccJdQ6R8.s:99844  .debug_str:000000000002f494 .LASF6993
     /tmp/ccJdQ6R8.s:91722  .debug_str:000000000000e561 .LASF6994
     /tmp/ccJdQ6R8.s:104394  .debug_str:0000000000041c10 .LASF6995
     /tmp/ccJdQ6R8.s:103628  .debug_str:000000000003e6ab .LASF6996
     /tmp/ccJdQ6R8.s:91680  .debug_str:000000000000e31f .LASF6997
     /tmp/ccJdQ6R8.s:95580  .debug_str:000000000001dfb4 .LASF6998
     /tmp/ccJdQ6R8.s:103514  .debug_str:000000000003df9a .LASF6999
     /tmp/ccJdQ6R8.s:90058  .debug_str:00000000000076df .LASF7000
     /tmp/ccJdQ6R8.s:92694  .debug_str:0000000000011fcb .LASF7001
     /tmp/ccJdQ6R8.s:103624  .debug_str:000000000003e68d .LASF7002
     /tmp/ccJdQ6R8.s:100940  .debug_str:0000000000033c26 .LASF7003
     /tmp/ccJdQ6R8.s:102482  .debug_str:0000000000039a97 .LASF7004
     /tmp/ccJdQ6R8.s:104632  .debug_str:0000000000042baa .LASF7005
     /tmp/ccJdQ6R8.s:97540  .debug_str:0000000000025e41 .LASF7006
     /tmp/ccJdQ6R8.s:95140  .debug_str:000000000001c113 .LASF7007
     /tmp/ccJdQ6R8.s:98522  .debug_str:0000000000029ef2 .LASF7008
     /tmp/ccJdQ6R8.s:100282  .debug_str:0000000000031124 .LASF7009
     /tmp/ccJdQ6R8.s:102384  .debug_str:000000000003939f .LASF7010
     /tmp/ccJdQ6R8.s:91666  .debug_str:000000000000e211 .LASF7011
     /tmp/ccJdQ6R8.s:105456  .debug_str:0000000000045fcf .LASF7012
     /tmp/ccJdQ6R8.s:104784  .debug_str:00000000000434f9 .LASF7013
     /tmp/ccJdQ6R8.s:95950  .debug_str:000000000001fa4b .LASF7014
     /tmp/ccJdQ6R8.s:94502  .debug_str:0000000000019429 .LASF7015
     /tmp/ccJdQ6R8.s:89370  .debug_str:0000000000004888 .LASF7016
     /tmp/ccJdQ6R8.s:91218  .debug_str:000000000000c607 .LASF7017
     /tmp/ccJdQ6R8.s:96134  .debug_str:00000000000206b3 .LASF7018
     /tmp/ccJdQ6R8.s:104298  .debug_str:0000000000041590 .LASF7019
     /tmp/ccJdQ6R8.s:89204  .debug_str:0000000000003cad .LASF7020
     /tmp/ccJdQ6R8.s:103806  .debug_str:000000000003f3bd .LASF7021
     /tmp/ccJdQ6R8.s:94742  .debug_str:000000000001a5c0 .LASF7022
     /tmp/ccJdQ6R8.s:103378  .debug_str:000000000003d6cb .LASF7023
     /tmp/ccJdQ6R8.s:88868  .debug_str:0000000000002517 .LASF7024
     /tmp/ccJdQ6R8.s:103006  .debug_str:000000000003be55 .LASF7025
     /tmp/ccJdQ6R8.s:92368  .debug_str:0000000000010a21 .LASF7026
     /tmp/ccJdQ6R8.s:100832  .debug_str:0000000000033508 .LASF7027
     /tmp/ccJdQ6R8.s:105486  .debug_str:00000000000461e3 .LASF7028
     /tmp/ccJdQ6R8.s:101924  .debug_str:00000000000377b6 .LASF7029
     /tmp/ccJdQ6R8.s:89480  .debug_str:0000000000004fe6 .LASF7030
     /tmp/ccJdQ6R8.s:97750  .debug_str:0000000000026c61 .LASF7031
     /tmp/ccJdQ6R8.s:88366  .debug_str:0000000000000285 .LASF7032
     /tmp/ccJdQ6R8.s:98524  .debug_str:0000000000029f1a .LASF7033
     /tmp/ccJdQ6R8.s:98246  .debug_str:0000000000028d25 .LASF7034
     /tmp/ccJdQ6R8.s:105934  .debug_str:0000000000047f5e .LASF7035
     /tmp/ccJdQ6R8.s:97818  .debug_str:00000000000270c6 .LASF7036
     /tmp/ccJdQ6R8.s:89652  .debug_str:0000000000005c17 .LASF7037
     /tmp/ccJdQ6R8.s:104030  .debug_str:0000000000040367 .LASF7038
     /tmp/ccJdQ6R8.s:103990  .debug_str:0000000000040063 .LASF7039
     /tmp/ccJdQ6R8.s:90942  .debug_str:000000000000b316 .LASF7040
     /tmp/ccJdQ6R8.s:105742  .debug_str:0000000000047351 .LASF7041
     /tmp/ccJdQ6R8.s:106398  .debug_str:0000000000049f3d .LASF7042
     /tmp/ccJdQ6R8.s:103926  .debug_str:000000000003fc12 .LASF7043
     /tmp/ccJdQ6R8.s:89576  .debug_str:0000000000005740 .LASF7044
     /tmp/ccJdQ6R8.s:93428  .debug_str:0000000000014d8c .LASF7045
     /tmp/ccJdQ6R8.s:93854  .debug_str:000000000001696f .LASF7046
     /tmp/ccJdQ6R8.s:99936  .debug_str:000000000002fa86 .LASF7047
     /tmp/ccJdQ6R8.s:100854  .debug_str:000000000003362b .LASF7048
     /tmp/ccJdQ6R8.s:98750  .debug_str:000000000002ad4e .LASF7049
     /tmp/ccJdQ6R8.s:98706  .debug_str:000000000002aa1c .LASF7050
     /tmp/ccJdQ6R8.s:96484  .debug_str:0000000000021d23 .LASF7051
     /tmp/ccJdQ6R8.s:104834  .debug_str:00000000000437dc .LASF7052
     /tmp/ccJdQ6R8.s:102022  .debug_str:0000000000037ce5 .LASF7053
     /tmp/ccJdQ6R8.s:96468  .debug_str:0000000000021c17 .LASF7054
     /tmp/ccJdQ6R8.s:94238  .debug_str:0000000000018238 .LASF7055
     /tmp/ccJdQ6R8.s:102650  .debug_str:000000000003a68a .LASF7056
     /tmp/ccJdQ6R8.s:91780  .debug_str:000000000000e755 .LASF7057
     /tmp/ccJdQ6R8.s:100270  .debug_str:000000000003108d .LASF7058
     /tmp/ccJdQ6R8.s:102024  .debug_str:0000000000037cec .LASF7059
     /tmp/ccJdQ6R8.s:90338  .debug_str:0000000000008995 .LASF7060
     /tmp/ccJdQ6R8.s:102818  .debug_str:000000000003b216 .LASF7061
     /tmp/ccJdQ6R8.s:100178  .debug_str:000000000003096a .LASF7062
     /tmp/ccJdQ6R8.s:101262  .debug_str:000000000003520e .LASF7063
     /tmp/ccJdQ6R8.s:99296  .debug_str:000000000002cff1 .LASF7064
     /tmp/ccJdQ6R8.s:104976  .debug_str:000000000004414c .LASF7065
     /tmp/ccJdQ6R8.s:99786  .debug_str:000000000002f00e .LASF7066
     /tmp/ccJdQ6R8.s:89142  .debug_str:0000000000003888 .LASF7067
     /tmp/ccJdQ6R8.s:104978  .debug_str:000000000004415a .LASF7068
     /tmp/ccJdQ6R8.s:93732  .debug_str:0000000000016106 .LASF7069
     /tmp/ccJdQ6R8.s:97644  .debug_str:0000000000026460 .LASF7070
     /tmp/ccJdQ6R8.s:104980  .debug_str:0000000000044168 .LASF7071
     /tmp/ccJdQ6R8.s:106662  .debug_str:000000000004b1f5 .LASF7072
     /tmp/ccJdQ6R8.s:96712  .debug_str:0000000000022cc6 .LASF7073
     /tmp/ccJdQ6R8.s:102592  .debug_str:000000000003a209 .LASF7074
     /tmp/ccJdQ6R8.s:100728  .debug_str:0000000000032de1 .LASF7075
     /tmp/ccJdQ6R8.s:90520  .debug_str:0000000000009666 .LASF7076
     /tmp/ccJdQ6R8.s:104984  .debug_str:00000000000441b8 .LASF7077
     /tmp/ccJdQ6R8.s:94686  .debug_str:000000000001a1be .LASF7078
     /tmp/ccJdQ6R8.s:101570  .debug_str:0000000000036555 .LASF7079
     /tmp/ccJdQ6R8.s:104986  .debug_str:00000000000441c6 .LASF7080
     /tmp/ccJdQ6R8.s:102320  .debug_str:0000000000038f89 .LASF7081
     /tmp/ccJdQ6R8.s:104130  .debug_str:00000000000409c2 .LASF7082
     /tmp/ccJdQ6R8.s:99476  .debug_str:000000000002dae2 .LASF7083
     /tmp/ccJdQ6R8.s:99478  .debug_str:000000000002daf4 .LASF7084
     /tmp/ccJdQ6R8.s:99482  .debug_str:000000000002db32 .LASF7085
     /tmp/ccJdQ6R8.s:102528  .debug_str:0000000000039d2e .LASF7086
     /tmp/ccJdQ6R8.s:105248  .debug_str:00000000000451e4 .LASF7087
     /tmp/ccJdQ6R8.s:104138  .debug_str:0000000000040a33 .LASF7088
     /tmp/ccJdQ6R8.s:104140  .debug_str:0000000000040a45 .LASF7089
     /tmp/ccJdQ6R8.s:104142  .debug_str:0000000000040a57 .LASF7090
     /tmp/ccJdQ6R8.s:104144  .debug_str:0000000000040a69 .LASF7091
     /tmp/ccJdQ6R8.s:102530  .debug_str:0000000000039d3d .LASF7092
     /tmp/ccJdQ6R8.s:99330  .debug_str:000000000002d20d .LASF7093
     /tmp/ccJdQ6R8.s:101506  .debug_str:0000000000036080 .LASF7094
     /tmp/ccJdQ6R8.s:105394  .debug_str:0000000000045c1c .LASF7095
     /tmp/ccJdQ6R8.s:97452  .debug_str:0000000000025812 .LASF7096
     /tmp/ccJdQ6R8.s:101252  .debug_str:0000000000035165 .LASF7097
     /tmp/ccJdQ6R8.s:102564  .debug_str:0000000000039fe0 .LASF7098
     /tmp/ccJdQ6R8.s:104938  .debug_str:0000000000043eb2 .LASF7099
     /tmp/ccJdQ6R8.s:103478  .debug_str:000000000003dd6c .LASF7100
     /tmp/ccJdQ6R8.s:100550  .debug_str:000000000003226e .LASF7101
     /tmp/ccJdQ6R8.s:93652  .debug_str:0000000000015be2 .LASF7102
     /tmp/ccJdQ6R8.s:104946  .debug_str:0000000000043f2a .LASF7103
     /tmp/ccJdQ6R8.s:88640  .debug_str:00000000000014cc .LASF7104
     /tmp/ccJdQ6R8.s:105952  .debug_str:000000000004809b .LASF7105
     /tmp/ccJdQ6R8.s:103058  .debug_str:000000000003c234 .LASF7106
     /tmp/ccJdQ6R8.s:88388  .debug_str:0000000000000432 .LASF7107
     /tmp/ccJdQ6R8.s:98064  .debug_str:00000000000281ec .LASF7108
     /tmp/ccJdQ6R8.s:89934  .debug_str:0000000000006f5f .LASF7109
     /tmp/ccJdQ6R8.s:89778  .debug_str:0000000000006422 .LASF7110
     /tmp/ccJdQ6R8.s:98968  .debug_str:000000000002bb7e .LASF7111
     /tmp/ccJdQ6R8.s:98970  .debug_str:000000000002bb96 .LASF7112
     /tmp/ccJdQ6R8.s:98972  .debug_str:000000000002bbae .LASF7113
     /tmp/ccJdQ6R8.s:98974  .debug_str:000000000002bbc6 .LASF7114
     /tmp/ccJdQ6R8.s:104486  .debug_str:00000000000421f0 .LASF7115
     /tmp/ccJdQ6R8.s:106948  .debug_str:000000000004c66c .LASF7116
     /tmp/ccJdQ6R8.s:98976  .debug_str:000000000002bbde .LASF7117
     /tmp/ccJdQ6R8.s:92014  .debug_str:000000000000f55f .LASF7118
     /tmp/ccJdQ6R8.s:92016  .debug_str:000000000000f57d .LASF7119
     /tmp/ccJdQ6R8.s:92018  .debug_str:000000000000f59b .LASF7120
     /tmp/ccJdQ6R8.s:92020  .debug_str:000000000000f5b9 .LASF7121
     /tmp/ccJdQ6R8.s:92022  .debug_str:000000000000f5d7 .LASF7122
     /tmp/ccJdQ6R8.s:95792  .debug_str:000000000001ee4f .LASF7123
     /tmp/ccJdQ6R8.s:91710  .debug_str:000000000000e4c1 .LASF7124
     /tmp/ccJdQ6R8.s:95796  .debug_str:000000000001ee7c .LASF7125
     /tmp/ccJdQ6R8.s:95798  .debug_str:000000000001ee99 .LASF7126
     /tmp/ccJdQ6R8.s:95800  .debug_str:000000000001eeb6 .LASF7127
     /tmp/ccJdQ6R8.s:107120  .debug_str:000000000004d23d .LASF7128
     /tmp/ccJdQ6R8.s:107122  .debug_str:000000000004d257 .LASF7129
     /tmp/ccJdQ6R8.s:107124  .debug_str:000000000004d271 .LASF7130
     /tmp/ccJdQ6R8.s:107126  .debug_str:000000000004d28b .LASF7131
     /tmp/ccJdQ6R8.s:107128  .debug_str:000000000004d2a5 .LASF7132
     /tmp/ccJdQ6R8.s:101680  .debug_str:0000000000036b33 .LASF7133
     /tmp/ccJdQ6R8.s:103870  .debug_str:000000000003f8af .LASF7134
     /tmp/ccJdQ6R8.s:104488  .debug_str:0000000000042208 .LASF7135
     /tmp/ccJdQ6R8.s:103518  .debug_str:000000000003dfc5 .LASF7136
     /tmp/ccJdQ6R8.s:101038  .debug_str:0000000000034370 .LASF7137
     /tmp/ccJdQ6R8.s:90008  .debug_str:000000000000740e .LASF7138
     /tmp/ccJdQ6R8.s:90010  .debug_str:000000000000742b .LASF7139
     /tmp/ccJdQ6R8.s:101050  .debug_str:0000000000034428 .LASF7140
     /tmp/ccJdQ6R8.s:88924  .debug_str:0000000000002947 .LASF7141
     /tmp/ccJdQ6R8.s:98844  .debug_str:000000000002b355 .LASF7142
     /tmp/ccJdQ6R8.s:90014  .debug_str:0000000000007488 .LASF7143
     /tmp/ccJdQ6R8.s:99184  .debug_str:000000000002c8ed .LASF7144
     /tmp/ccJdQ6R8.s:99186  .debug_str:000000000002c910 .LASF7145
     /tmp/ccJdQ6R8.s:99188  .debug_str:000000000002c933 .LASF7146
     /tmp/ccJdQ6R8.s:99190  .debug_str:000000000002c956 .LASF7147
     /tmp/ccJdQ6R8.s:99192  .debug_str:000000000002c979 .LASF7148
     /tmp/ccJdQ6R8.s:96070  .debug_str:000000000002023f .LASF7149
     /tmp/ccJdQ6R8.s:96072  .debug_str:0000000000020261 .LASF7150
     /tmp/ccJdQ6R8.s:97144  .debug_str:00000000000246bd .LASF7151
     /tmp/ccJdQ6R8.s:96076  .debug_str:0000000000020294 .LASF7152
     /tmp/ccJdQ6R8.s:96078  .debug_str:00000000000202b6 .LASF7153
     /tmp/ccJdQ6R8.s:98772  .debug_str:000000000002aecb .LASF7154
     /tmp/ccJdQ6R8.s:98774  .debug_str:000000000002aeea .LASF7155
     /tmp/ccJdQ6R8.s:98776  .debug_str:000000000002af09 .LASF7156
     /tmp/ccJdQ6R8.s:101902  .debug_str:000000000003775b .LASF7157
     /tmp/ccJdQ6R8.s:98780  .debug_str:000000000002af36 .LASF7158
     /tmp/ccJdQ6R8.s:98892  .debug_str:000000000002b667 .LASF7159
     /tmp/ccJdQ6R8.s:104022  .debug_str:00000000000402b7 .LASF7160
     /tmp/ccJdQ6R8.s:88926  .debug_str:0000000000002964 .LASF7161
     /tmp/ccJdQ6R8.s:96052  .debug_str:0000000000020150 .LASF7162
     /tmp/ccJdQ6R8.s:100638  .debug_str:000000000003289b .LASF7163
     /tmp/ccJdQ6R8.s:100640  .debug_str:00000000000328b3 .LASF7164
     /tmp/ccJdQ6R8.s:100642  .debug_str:00000000000328cb .LASF7165
     /tmp/ccJdQ6R8.s:100644  .debug_str:00000000000328e3 .LASF7166
     /tmp/ccJdQ6R8.s:95256  .debug_str:000000000001c8e1 .LASF7167
     /tmp/ccJdQ6R8.s:94790  .debug_str:000000000001a89b .LASF7168
     /tmp/ccJdQ6R8.s:100646  .debug_str:00000000000328fb .LASF7169
     /tmp/ccJdQ6R8.s:93762  .debug_str:0000000000016396 .LASF7170
     /tmp/ccJdQ6R8.s:93764  .debug_str:00000000000163b4 .LASF7171
     /tmp/ccJdQ6R8.s:104110  .debug_str:00000000000408de .LASF7172
     /tmp/ccJdQ6R8.s:93768  .debug_str:00000000000163dd .LASF7173
     /tmp/ccJdQ6R8.s:93770  .debug_str:00000000000163fb .LASF7174
     /tmp/ccJdQ6R8.s:97482  .debug_str:0000000000025a4f .LASF7175
     /tmp/ccJdQ6R8.s:97484  .debug_str:0000000000025a6c .LASF7176
     /tmp/ccJdQ6R8.s:97486  .debug_str:0000000000025a89 .LASF7177
     /tmp/ccJdQ6R8.s:97488  .debug_str:0000000000025aa6 .LASF7178
     /tmp/ccJdQ6R8.s:97490  .debug_str:0000000000025ac3 .LASF7179
     /tmp/ccJdQ6R8.s:89828  .debug_str:00000000000067d4 .LASF7180
     /tmp/ccJdQ6R8.s:89830  .debug_str:00000000000067ee .LASF7181
     /tmp/ccJdQ6R8.s:89832  .debug_str:0000000000006808 .LASF7182
     /tmp/ccJdQ6R8.s:89834  .debug_str:0000000000006822 .LASF7183
     /tmp/ccJdQ6R8.s:89836  .debug_str:000000000000683c .LASF7184
     /tmp/ccJdQ6R8.s:93172  .debug_str:0000000000013e40 .LASF7185
     /tmp/ccJdQ6R8.s:100860  .debug_str:0000000000033699 .LASF7186
     /tmp/ccJdQ6R8.s:95260  .debug_str:000000000001c915 .LASF7187
     /tmp/ccJdQ6R8.s:88764  .debug_str:0000000000001d8b .LASF7188
     /tmp/ccJdQ6R8.s:92452  .debug_str:0000000000010f19 .LASF7189
     /tmp/ccJdQ6R8.s:92454  .debug_str:0000000000010f30 .LASF7190
     /tmp/ccJdQ6R8.s:92456  .debug_str:0000000000010f47 .LASF7191
     /tmp/ccJdQ6R8.s:106712  .debug_str:000000000004b65f .LASF7192
     /tmp/ccJdQ6R8.s:93256  .debug_str:0000000000014302 .LASF7193
     /tmp/ccJdQ6R8.s:97032  .debug_str:00000000000240cf .LASF7194
     /tmp/ccJdQ6R8.s:92460  .debug_str:0000000000010f6f .LASF7195
     /tmp/ccJdQ6R8.s:103464  .debug_str:000000000003dc9c .LASF7196
     /tmp/ccJdQ6R8.s:103466  .debug_str:000000000003dcb9 .LASF7197
     /tmp/ccJdQ6R8.s:103468  .debug_str:000000000003dcd6 .LASF7198
     /tmp/ccJdQ6R8.s:103470  .debug_str:000000000003dcf3 .LASF7199
     /tmp/ccJdQ6R8.s:103472  .debug_str:000000000003dd10 .LASF7200
     /tmp/ccJdQ6R8.s:93296  .debug_str:0000000000014538 .LASF7201
     /tmp/ccJdQ6R8.s:93298  .debug_str:0000000000014554 .LASF7202
     /tmp/ccJdQ6R8.s:88862  .debug_str:00000000000024a5 .LASF7203
     /tmp/ccJdQ6R8.s:93302  .debug_str:00000000000145a0 .LASF7204
     /tmp/ccJdQ6R8.s:93304  .debug_str:00000000000145bc .LASF7205
     /tmp/ccJdQ6R8.s:99172  .debug_str:000000000002c836 .LASF7206
     /tmp/ccJdQ6R8.s:99174  .debug_str:000000000002c84f .LASF7207
     /tmp/ccJdQ6R8.s:99176  .debug_str:000000000002c868 .LASF7208
     /tmp/ccJdQ6R8.s:99178  .debug_str:000000000002c881 .LASF7209
     /tmp/ccJdQ6R8.s:99180  .debug_str:000000000002c89a .LASF7210
     /tmp/ccJdQ6R8.s:100422  .debug_str:0000000000031ab4 .LASF7211
     /tmp/ccJdQ6R8.s:102370  .debug_str:000000000003929d .LASF7212
     /tmp/ccJdQ6R8.s:93258  .debug_str:0000000000014319 .LASF7213
     /tmp/ccJdQ6R8.s:94362  .debug_str:0000000000018a4e .LASF7214
     /tmp/ccJdQ6R8.s:93332  .debug_str:0000000000014748 .LASF7215
     /tmp/ccJdQ6R8.s:93334  .debug_str:000000000001476b .LASF7216
     /tmp/ccJdQ6R8.s:93336  .debug_str:000000000001478e .LASF7217
     /tmp/ccJdQ6R8.s:93338  .debug_str:00000000000147b1 .LASF7218
     /tmp/ccJdQ6R8.s:93340  .debug_str:00000000000147d4 .LASF7219
     /tmp/ccJdQ6R8.s:106992  .debug_str:000000000004c9b5 .LASF7220
     /tmp/ccJdQ6R8.s:104168  .debug_str:0000000000040bb5 .LASF7221
     /tmp/ccJdQ6R8.s:105672  .debug_str:0000000000046e60 .LASF7222
     /tmp/ccJdQ6R8.s:104154  .debug_str:0000000000040aea .LASF7223
     /tmp/ccJdQ6R8.s:104156  .debug_str:0000000000040b0e .LASF7224
     /tmp/ccJdQ6R8.s:104836  .debug_str:00000000000437e9 .LASF7225
     /tmp/ccJdQ6R8.s:104840  .debug_str:0000000000043830 .LASF7226
     /tmp/ccJdQ6R8.s:104162  .debug_str:0000000000040b53 .LASF7227
     /tmp/ccJdQ6R8.s:99636  .debug_str:000000000002e62b .LASF7228
     /tmp/ccJdQ6R8.s:106898  .debug_str:000000000004c347 .LASF7229
     /tmp/ccJdQ6R8.s:95958  .debug_str:000000000001fb40 .LASF7230
     /tmp/ccJdQ6R8.s:91356  .debug_str:000000000000cf74 .LASF7231
     /tmp/ccJdQ6R8.s:99074  .debug_str:000000000002c18a .LASF7232
     /tmp/ccJdQ6R8.s:106338  .debug_str:0000000000049b67 .LASF7233
     /tmp/ccJdQ6R8.s:99450  .debug_str:000000000002d9bc .LASF7234
     /tmp/ccJdQ6R8.s:95968  .debug_str:000000000001fc4f .LASF7235
     /tmp/ccJdQ6R8.s:89980  .debug_str:00000000000071f8 .LASF7236
     /tmp/ccJdQ6R8.s:101788  .debug_str:000000000003719b .LASF7237
     /tmp/ccJdQ6R8.s:91938  .debug_str:000000000000f038 .LASF7238
     /tmp/ccJdQ6R8.s:90758  .debug_str:000000000000a602 .LASF7239
     /tmp/ccJdQ6R8.s:95220  .debug_str:000000000001c608 .LASF7240
     /tmp/ccJdQ6R8.s:90598  .debug_str:0000000000009b57 .LASF7241
     /tmp/ccJdQ6R8.s:90072  .debug_str:0000000000007830 .LASF7242
     /tmp/ccJdQ6R8.s:98266  .debug_str:0000000000028e86 .LASF7243
     /tmp/ccJdQ6R8.s:105004  .debug_str:0000000000044309 .LASF7244
     /tmp/ccJdQ6R8.s:98830  .debug_str:000000000002b22b .LASF7245
     /tmp/ccJdQ6R8.s:95966  .debug_str:000000000001fc39 .LASF7246
     /tmp/ccJdQ6R8.s:93750  .debug_str:00000000000162b8 .LASF7247
     /tmp/ccJdQ6R8.s:107192  .debug_str:000000000004d700 .LASF7248
     /tmp/ccJdQ6R8.s:91574  .debug_str:000000000000dcdf .LASF7249
     /tmp/ccJdQ6R8.s:106540  .debug_str:000000000004a91b .LASF7250
     /tmp/ccJdQ6R8.s:106542  .debug_str:000000000004a93a .LASF7251
     /tmp/ccJdQ6R8.s:106544  .debug_str:000000000004a959 .LASF7252
     /tmp/ccJdQ6R8.s:103602  .debug_str:000000000003e521 .LASF7253
     /tmp/ccJdQ6R8.s:95142  .debug_str:000000000001c121 .LASF7254
     /tmp/ccJdQ6R8.s:94078  .debug_str:0000000000017841 .LASF7255
     /tmp/ccJdQ6R8.s:106548  .debug_str:000000000004a986 .LASF7256
     /tmp/ccJdQ6R8.s:101874  .debug_str:000000000003759b .LASF7257
     /tmp/ccJdQ6R8.s:101520  .debug_str:00000000000361a6 .LASF7258
     /tmp/ccJdQ6R8.s:97606  .debug_str:00000000000261ef .LASF7259
     /tmp/ccJdQ6R8.s:97608  .debug_str:000000000002620c .LASF7260
     /tmp/ccJdQ6R8.s:97610  .debug_str:0000000000026229 .LASF7261
     /tmp/ccJdQ6R8.s:97612  .debug_str:0000000000026246 .LASF7262
     /tmp/ccJdQ6R8.s:97614  .debug_str:0000000000026263 .LASF7263
     /tmp/ccJdQ6R8.s:89136  .debug_str:0000000000003815 .LASF7264
     /tmp/ccJdQ6R8.s:106452  .debug_str:000000000004a2dd .LASF7265
     /tmp/ccJdQ6R8.s:101106  .debug_str:00000000000347b3 .LASF7266
     /tmp/ccJdQ6R8.s:99096  .debug_str:000000000002c2e6 .LASF7267
     /tmp/ccJdQ6R8.s:100834  .debug_str:0000000000033515 .LASF7268
     /tmp/ccJdQ6R8.s:88404  .debug_str:0000000000000588 .LASF7269
     /tmp/ccJdQ6R8.s:102424  .debug_str:000000000003966e .LASF7270
     /tmp/ccJdQ6R8.s:100944  .debug_str:0000000000033c60 .LASF7271
     /tmp/ccJdQ6R8.s:100946  .debug_str:0000000000033c7c .LASF7272
     /tmp/ccJdQ6R8.s:100948  .debug_str:0000000000033c98 .LASF7273
     /tmp/ccJdQ6R8.s:100950  .debug_str:0000000000033cb4 .LASF7274
     /tmp/ccJdQ6R8.s:107182  .debug_str:000000000004d65c .LASF7275
     /tmp/ccJdQ6R8.s:98180  .debug_str:00000000000288d5 .LASF7276
     /tmp/ccJdQ6R8.s:100952  .debug_str:0000000000033cd0 .LASF7277
     /tmp/ccJdQ6R8.s:98748  .debug_str:000000000002ad37 .LASF7278
     /tmp/ccJdQ6R8.s:105568  .debug_str:00000000000466eb .LASF7279
     /tmp/ccJdQ6R8.s:90298  .debug_str:00000000000086cc .LASF7280
     /tmp/ccJdQ6R8.s:102582  .debug_str:000000000003a166 .LASF7281
     /tmp/ccJdQ6R8.s:106308  .debug_str:0000000000049973 .LASF7282
     /tmp/ccJdQ6R8.s:98186  .debug_str:0000000000028935 .LASF7283
     /tmp/ccJdQ6R8.s:103486  .debug_str:000000000003dde6 .LASF7284
     /tmp/ccJdQ6R8.s:103402  .debug_str:000000000003d817 .LASF7285
     /tmp/ccJdQ6R8.s:95914  .debug_str:000000000001f778 .LASF7286
     /tmp/ccJdQ6R8.s:97922  .debug_str:00000000000277ba .LASF7287
     /tmp/ccJdQ6R8.s:93416  .debug_str:0000000000014cfc .LASF7288
     /tmp/ccJdQ6R8.s:98360  .debug_str:00000000000294cb .LASF7289
     /tmp/ccJdQ6R8.s:107148  .debug_str:000000000004d406 .LASF7290
     /tmp/ccJdQ6R8.s:93954  .debug_str:00000000000170bc .LASF7291
     /tmp/ccJdQ6R8.s:100468  .debug_str:0000000000031dce .LASF7292
     /tmp/ccJdQ6R8.s:104900  .debug_str:0000000000043c2c .LASF7293
     /tmp/ccJdQ6R8.s:89616  .debug_str:00000000000059c6 .LASF7294
     /tmp/ccJdQ6R8.s:107248  .debug_str:000000000004da96 .LASF7295
     /tmp/ccJdQ6R8.s:90968  .debug_str:000000000000b50b .LASF7296
     /tmp/ccJdQ6R8.s:101706  .debug_str:0000000000036d11 .LASF7297
     /tmp/ccJdQ6R8.s:100308  .debug_str:0000000000031312 .LASF7298
     /tmp/ccJdQ6R8.s:97468  .debug_str:000000000002597a .LASF7299
     /tmp/ccJdQ6R8.s:89976  .debug_str:00000000000071af .LASF7300
     /tmp/ccJdQ6R8.s:93010  .debug_str:0000000000013430 .LASF7301
     /tmp/ccJdQ6R8.s:90044  .debug_str:000000000000762f .LASF7302
     /tmp/ccJdQ6R8.s:94338  .debug_str:00000000000188b4 .LASF7303
     /tmp/ccJdQ6R8.s:106434  .debug_str:000000000004a1b5 .LASF7304
     /tmp/ccJdQ6R8.s:102510  .debug_str:0000000000039c2b .LASF7305
     /tmp/ccJdQ6R8.s:97366  .debug_str:0000000000025245 .LASF7306
     /tmp/ccJdQ6R8.s:92824  .debug_str:00000000000127da .LASF7307
     /tmp/ccJdQ6R8.s:93892  .debug_str:0000000000016c08 .LASF7308
     /tmp/ccJdQ6R8.s:96736  .debug_str:0000000000022e2e .LASF7309
     /tmp/ccJdQ6R8.s:92408  .debug_str:0000000000010d14 .LASF7310
     /tmp/ccJdQ6R8.s:104402  .debug_str:0000000000041cb8 .LASF7311
     /tmp/ccJdQ6R8.s:99918  .debug_str:000000000002f935 .LASF7312
     /tmp/ccJdQ6R8.s:95624  .debug_str:000000000001e257 .LASF7313
     /tmp/ccJdQ6R8.s:88648  .debug_str:0000000000001536 .LASF7314
     /tmp/ccJdQ6R8.s:102518  .debug_str:0000000000039ca6 .LASF7315
     /tmp/ccJdQ6R8.s:95462  .debug_str:000000000001d795 .LASF7316
     /tmp/ccJdQ6R8.s:91118  .debug_str:000000000000bf45 .LASF7317
     /tmp/ccJdQ6R8.s:100312  .debug_str:0000000000031377 .LASF7318
     /tmp/ccJdQ6R8.s:101296  .debug_str:000000000003543a .LASF7319
     /tmp/ccJdQ6R8.s:96476  .debug_str:0000000000021cbe .LASF7320
     /tmp/ccJdQ6R8.s:99016  .debug_str:000000000002be3c .LASF7321
     /tmp/ccJdQ6R8.s:93536  .debug_str:0000000000015512 .LASF7322
     /tmp/ccJdQ6R8.s:97974  .debug_str:0000000000027b31 .LASF7323
     /tmp/ccJdQ6R8.s:90558  .debug_str:00000000000098de .LASF7324
     /tmp/ccJdQ6R8.s:91998  .debug_str:000000000000f4db .LASF7325
     /tmp/ccJdQ6R8.s:96154  .debug_str:00000000000207f3 .LASF7326
     /tmp/ccJdQ6R8.s:91994  .debug_str:000000000000f4b1 .LASF7327
     /tmp/ccJdQ6R8.s:96152  .debug_str:00000000000207da .LASF7328
     /tmp/ccJdQ6R8.s:94644  .debug_str:0000000000019e7f .LASF7329
     /tmp/ccJdQ6R8.s:95742  .debug_str:000000000001eb21 .LASF7330
     /tmp/ccJdQ6R8.s:105852  .debug_str:00000000000479f1 .LASF7331
     /tmp/ccJdQ6R8.s:94430  .debug_str:0000000000018f13 .LASF7332
     /tmp/ccJdQ6R8.s:93016  .debug_str:000000000001347e .LASF7333
     /tmp/ccJdQ6R8.s:91432  .debug_str:000000000000d476 .LASF7334
     /tmp/ccJdQ6R8.s:92800  .debug_str:0000000000012636 .LASF7335
     /tmp/ccJdQ6R8.s:95136  .debug_str:000000000001c0d4 .LASF7336
     /tmp/ccJdQ6R8.s:103588  .debug_str:000000000003e42b .LASF7337
     /tmp/ccJdQ6R8.s:103594  .debug_str:000000000003e49d .LASF7338
     /tmp/ccJdQ6R8.s:99132  .debug_str:000000000002c551 .LASF7339
     /tmp/ccJdQ6R8.s:91550  .debug_str:000000000000db66 .LASF7340
     /tmp/ccJdQ6R8.s:93698  .debug_str:0000000000015ec2 .LASF7341
     /tmp/ccJdQ6R8.s:100202  .debug_str:0000000000030afa .LASF7342
     /tmp/ccJdQ6R8.s:105974  .debug_str:0000000000048245 .LASF7343
     /tmp/ccJdQ6R8.s:95702  .debug_str:000000000001e870 .LASF7344
     /tmp/ccJdQ6R8.s:97164  .debug_str:00000000000247f3 .LASF7345
     /tmp/ccJdQ6R8.s:105032  .debug_str:000000000004443e .LASF7346
     /tmp/ccJdQ6R8.s:89698  .debug_str:0000000000005eec .LASF7347
     /tmp/ccJdQ6R8.s:105682  .debug_str:0000000000046f27 .LASF7348
     /tmp/ccJdQ6R8.s:93216  .debug_str:0000000000014108 .LASF7349
     /tmp/ccJdQ6R8.s:89328  .debug_str:0000000000004560 .LASF7350
     /tmp/ccJdQ6R8.s:91412  .debug_str:000000000000d33b .LASF7351
     /tmp/ccJdQ6R8.s:97208  .debug_str:0000000000024974 .LASF7352
     /tmp/ccJdQ6R8.s:102644  .debug_str:000000000003a60c .LASF7353
     /tmp/ccJdQ6R8.s:100428  .debug_str:0000000000031b29 .LASF7354
     /tmp/ccJdQ6R8.s:98936  .debug_str:000000000002b97e .LASF7355
     /tmp/ccJdQ6R8.s:102140  .debug_str:000000000003832d .LASF7356
     /tmp/ccJdQ6R8.s:89524  .debug_str:0000000000005318 .LASF7357
     /tmp/ccJdQ6R8.s:101138  .debug_str:00000000000349b4 .LASF7358
     /tmp/ccJdQ6R8.s:104018  .debug_str:0000000000040284 .LASF7359
     /tmp/ccJdQ6R8.s:93792  .debug_str:0000000000016552 .LASF7360
     /tmp/ccJdQ6R8.s:92052  .debug_str:000000000000f7dd .LASF7361
     /tmp/ccJdQ6R8.s:104600  .debug_str:0000000000042996 .LASF7362
     /tmp/ccJdQ6R8.s:97776  .debug_str:0000000000026de6 .LASF7363
     /tmp/ccJdQ6R8.s:101622  .debug_str:0000000000036806 .LASF7364
     /tmp/ccJdQ6R8.s:106066  .debug_str:000000000004881d .LASF7365
     /tmp/ccJdQ6R8.s:101948  .debug_str:0000000000037953 .LASF7366
     /tmp/ccJdQ6R8.s:100414  .debug_str:0000000000031a51 .LASF7367
     /tmp/ccJdQ6R8.s:89484  .debug_str:0000000000005014 .LASF7368
     /tmp/ccJdQ6R8.s:103942  .debug_str:000000000003fd16 .LASF7369
     /tmp/ccJdQ6R8.s:104756  .debug_str:000000000004333a .LASF7370
     /tmp/ccJdQ6R8.s:106922  .debug_str:000000000004c513 .LASF7371
     /tmp/ccJdQ6R8.s:95704  .debug_str:000000000001e87e .LASF7372
     /tmp/ccJdQ6R8.s:97244  .debug_str:0000000000024b8b .LASF7373
     /tmp/ccJdQ6R8.s:88672  .debug_str:0000000000001740 .LASF7374
     /tmp/ccJdQ6R8.s:100674  .debug_str:0000000000032adb .LASF7375
     /tmp/ccJdQ6R8.s:89530  .debug_str:0000000000005367 .LASF7376
     /tmp/ccJdQ6R8.s:88916  .debug_str:00000000000028e0 .LASF7377
     /tmp/ccJdQ6R8.s:97406  .debug_str:00000000000254c0 .LASF7378
     /tmp/ccJdQ6R8.s:90274  .debug_str:000000000000852a .LASF7379
     /tmp/ccJdQ6R8.s:94144  .debug_str:0000000000017cd6 .LASF7380
     /tmp/ccJdQ6R8.s:94210  .debug_str:00000000000180b5 .LASF7381
     /tmp/ccJdQ6R8.s:96916  .debug_str:0000000000023a9e .LASF7382
     /tmp/ccJdQ6R8.s:98126  .debug_str:00000000000284f6 .LASF7383
     /tmp/ccJdQ6R8.s:89092  .debug_str:00000000000034f6 .LASF7384
     /tmp/ccJdQ6R8.s:94676  .debug_str:000000000001a149 .LASF7385
     /tmp/ccJdQ6R8.s:103376  .debug_str:000000000003d6a6 .LASF7386
     /tmp/ccJdQ6R8.s:92880  .debug_str:0000000000012c40 .LASF7387
     /tmp/ccJdQ6R8.s:104708  .debug_str:0000000000043052 .LASF7388
     /tmp/ccJdQ6R8.s:92876  .debug_str:0000000000012c16 .LASF7389
     /tmp/ccJdQ6R8.s:104444  .debug_str:0000000000041f03 .LASF7390
     /tmp/ccJdQ6R8.s:99968  .debug_str:000000000002fc53 .LASF7391
     /tmp/ccJdQ6R8.s:95164  .debug_str:000000000001c2b9 .LASF7392
     /tmp/ccJdQ6R8.s:100460  .debug_str:0000000000031d3d .LASF7393
     /tmp/ccJdQ6R8.s:103300  .debug_str:000000000003d18c .LASF7394
     /tmp/ccJdQ6R8.s:101894  .debug_str:00000000000376d6 .LASF7395
     /tmp/ccJdQ6R8.s:96172  .debug_str:0000000000020985 .LASF7396
     /tmp/ccJdQ6R8.s:98296  .debug_str:0000000000029084 .LASF7397
     /tmp/ccJdQ6R8.s:105450  .debug_str:0000000000045f5a .LASF7398
     /tmp/ccJdQ6R8.s:101708  .debug_str:0000000000036d20 .LASF7399
     /tmp/ccJdQ6R8.s:105460  .debug_str:0000000000045ffb .LASF7400
     /tmp/ccJdQ6R8.s:93342  .debug_str:00000000000147f7 .LASF7401
     /tmp/ccJdQ6R8.s:88482  .debug_str:0000000000000aa1 .LASF7402
     /tmp/ccJdQ6R8.s:105244  .debug_str:00000000000451b9 .LASF7403
     /tmp/ccJdQ6R8.s:106356  .debug_str:0000000000049c7d .LASF7404
     /tmp/ccJdQ6R8.s:103220  .debug_str:000000000003cd3f .LASF7405
     /tmp/ccJdQ6R8.s:103708  .debug_str:000000000003ec8e .LASF7406
     /tmp/ccJdQ6R8.s:107060  .debug_str:000000000004cdb7 .LASF7407
     /tmp/ccJdQ6R8.s:98722  .debug_str:000000000002ab5a .LASF7408
     /tmp/ccJdQ6R8.s:105896  .debug_str:0000000000047cfe .LASF7409
     /tmp/ccJdQ6R8.s:92972  .debug_str:00000000000131d9 .LASF7410
     /tmp/ccJdQ6R8.s:90292  .debug_str:000000000000867f .LASF7411
     /tmp/ccJdQ6R8.s:107186  .debug_str:000000000004d67a .LASF7412
     /tmp/ccJdQ6R8.s:89374  .debug_str:00000000000048c3 .LASF7413
     /tmp/ccJdQ6R8.s:101658  .debug_str:0000000000036ae3 .LASF7414
     /tmp/ccJdQ6R8.s:93838  .debug_str:000000000001681b .LASF7415
     /tmp/ccJdQ6R8.s:96022  .debug_str:000000000001ffa0 .LASF7416
     /tmp/ccJdQ6R8.s:91506  .debug_str:000000000000d852 .LASF7417
     /tmp/ccJdQ6R8.s:91234  .debug_str:000000000000c759 .LASF7418
     /tmp/ccJdQ6R8.s:97558  .debug_str:0000000000025f5d .LASF7419
     /tmp/ccJdQ6R8.s:99422  .debug_str:000000000002d7d1 .LASF7420
     /tmp/ccJdQ6R8.s:97116  .debug_str:0000000000024543 .LASF7421
     /tmp/ccJdQ6R8.s:96342  .debug_str:0000000000021401 .LASF7422
     /tmp/ccJdQ6R8.s:98710  .debug_str:000000000002aa46 .LASF7423
     /tmp/ccJdQ6R8.s:90858  .debug_str:000000000000ace4 .LASF7424
     /tmp/ccJdQ6R8.s:97374  .debug_str:00000000000252c2 .LASF7425
     /tmp/ccJdQ6R8.s:97344  .debug_str:0000000000025110 .LASF7426
     /tmp/ccJdQ6R8.s:97350  .debug_str:0000000000025150 .LASF7427
     /tmp/ccJdQ6R8.s:89906  .debug_str:0000000000006d5c .LASF7428
     /tmp/ccJdQ6R8.s:99168  .debug_str:000000000002c80c .LASF7429
     /tmp/ccJdQ6R8.s:99152  .debug_str:000000000002c687 .LASF7430
     /tmp/ccJdQ6R8.s:103506  .debug_str:000000000003df49 .LASF7431
     /tmp/ccJdQ6R8.s:89398  .debug_str:0000000000004ab4 .LASF7432
     /tmp/ccJdQ6R8.s:106208  .debug_str:00000000000492a6 .LASF7433
     /tmp/ccJdQ6R8.s:99724  .debug_str:000000000002ebe3 .LASF7434
     /tmp/ccJdQ6R8.s:105838  .debug_str:000000000004791d .LASF7435
     /tmp/ccJdQ6R8.s:102354  .debug_str:00000000000391fc .LASF7436
     /tmp/ccJdQ6R8.s:91572  .debug_str:000000000000dcba .LASF7437
     /tmp/ccJdQ6R8.s:93164  .debug_str:0000000000013d8d .LASF7438
     /tmp/ccJdQ6R8.s:89602  .debug_str:000000000000590a .LASF7439
     /tmp/ccJdQ6R8.s:104220  .debug_str:0000000000040f9c .LASF7440
     /tmp/ccJdQ6R8.s:98370  .debug_str:00000000000295a7 .LASF7441
     /tmp/ccJdQ6R8.s:98372  .debug_str:00000000000295b5 .LASF7442
     /tmp/ccJdQ6R8.s:98374  .debug_str:00000000000295c3 .LASF7443
     /tmp/ccJdQ6R8.s:98376  .debug_str:00000000000295d1 .LASF7444
     /tmp/ccJdQ6R8.s:98378  .debug_str:00000000000295df .LASF7445
     /tmp/ccJdQ6R8.s:98380  .debug_str:00000000000295ed .LASF7446
     /tmp/ccJdQ6R8.s:98382  .debug_str:00000000000295fb .LASF7447
     /tmp/ccJdQ6R8.s:98384  .debug_str:0000000000029609 .LASF7448
     /tmp/ccJdQ6R8.s:98386  .debug_str:0000000000029617 .LASF7449
     /tmp/ccJdQ6R8.s:98388  .debug_str:0000000000029625 .LASF7450
     /tmp/ccJdQ6R8.s:106118  .debug_str:0000000000048c2d .LASF7451
     /tmp/ccJdQ6R8.s:90876  .debug_str:000000000000ae89 .LASF7452
     /tmp/ccJdQ6R8.s:101190  .debug_str:0000000000034d3e .LASF7453
     /tmp/ccJdQ6R8.s:96946  .debug_str:0000000000023b4e .LASF7454
     /tmp/ccJdQ6R8.s:89450  .debug_str:0000000000004e38 .LASF7455
     /tmp/ccJdQ6R8.s:104374  .debug_str:0000000000041ad4 .LASF7456
     /tmp/ccJdQ6R8.s:96350  .debug_str:0000000000021496 .LASF7457
     /tmp/ccJdQ6R8.s:93672  .debug_str:0000000000015d2c .LASF7458
     /tmp/ccJdQ6R8.s:104384  .debug_str:0000000000041b43 .LASF7459
     /tmp/ccJdQ6R8.s:89336  .debug_str:00000000000045d7 .LASF7460
     /tmp/ccJdQ6R8.s:88416  .debug_str:000000000000064d .LASF7461
     /tmp/ccJdQ6R8.s:95574  .debug_str:000000000001df2f .LASF7462
     /tmp/ccJdQ6R8.s:92204  .debug_str:0000000000010037 .LASF7463
     /tmp/ccJdQ6R8.s:106874  .debug_str:000000000004c19d .LASF7464
     /tmp/ccJdQ6R8.s:91000  .debug_str:000000000000b7b3 .LASF7465
     /tmp/ccJdQ6R8.s:98426  .debug_str:0000000000029881 .LASF7466
     /tmp/ccJdQ6R8.s:101300  .debug_str:0000000000035467 .LASF7467
     /tmp/ccJdQ6R8.s:104830  .debug_str:00000000000437b6 .LASF7468
     /tmp/ccJdQ6R8.s:105314  .debug_str:000000000004565a .LASF7469
     /tmp/ccJdQ6R8.s:94780  .debug_str:000000000001a7ee .LASF7470
     /tmp/ccJdQ6R8.s:104832  .debug_str:00000000000437c9 .LASF7471
     /tmp/ccJdQ6R8.s:99406  .debug_str:000000000002d6c6 .LASF7472
     /tmp/ccJdQ6R8.s:94244  .debug_str:0000000000018266 .LASF7473
     /tmp/ccJdQ6R8.s:89430  .debug_str:0000000000004c8f .LASF7474
     /tmp/ccJdQ6R8.s:105058  .debug_str:00000000000445c0 .LASF7475
     /tmp/ccJdQ6R8.s:94246  .debug_str:0000000000018278 .LASF7476
     /tmp/ccJdQ6R8.s:101232  .debug_str:0000000000035022 .LASF7477
     /tmp/ccJdQ6R8.s:99134  .debug_str:000000000002c55a .LASF7478
     /tmp/ccJdQ6R8.s:94248  .debug_str:000000000001828a .LASF7479
     /tmp/ccJdQ6R8.s:89434  .debug_str:0000000000004ccd .LASF7480
     /tmp/ccJdQ6R8.s:93048  .debug_str:00000000000136b8 .LASF7481
     /tmp/ccJdQ6R8.s:96556  .debug_str:0000000000022242 .LASF7482
     /tmp/ccJdQ6R8.s:94006  .debug_str:000000000001743e .LASF7483
     /tmp/ccJdQ6R8.s:105950  .debug_str:0000000000048075 .LASF7484
     /tmp/ccJdQ6R8.s:92668  .debug_str:0000000000011e7d .LASF7485
     /tmp/ccJdQ6R8.s:106258  .debug_str:00000000000495f1 .LASF7486
     /tmp/ccJdQ6R8.s:90688  .debug_str:000000000000a132 .LASF7487
     /tmp/ccJdQ6R8.s:92670  .debug_str:0000000000011e8f .LASF7488
     /tmp/ccJdQ6R8.s:106864  .debug_str:000000000004c11a .LASF7489
     /tmp/ccJdQ6R8.s:103704  .debug_str:000000000003ec26 .LASF7490
     /tmp/ccJdQ6R8.s:92672  .debug_str:0000000000011ea1 .LASF7491
     /tmp/ccJdQ6R8.s:106866  .debug_str:000000000004c12c .LASF7492
     /tmp/ccJdQ6R8.s:97764  .debug_str:0000000000026d12 .LASF7493
     /tmp/ccJdQ6R8.s:93612  .debug_str:000000000001594e .LASF7494
     /tmp/ccJdQ6R8.s:88468  .debug_str:00000000000009b3 .LASF7495
     /tmp/ccJdQ6R8.s:99198  .debug_str:000000000002c9d5 .LASF7496
     /tmp/ccJdQ6R8.s:101806  .debug_str:000000000003727a .LASF7497
     /tmp/ccJdQ6R8.s:103092  .debug_str:000000000003c476 .LASF7498
     /tmp/ccJdQ6R8.s:100048  .debug_str:00000000000300fc .LASF7499
     /tmp/ccJdQ6R8.s:93822  .debug_str:0000000000016711 .LASF7500
     /tmp/ccJdQ6R8.s:104608  .debug_str:0000000000042a3c .LASF7501
     /tmp/ccJdQ6R8.s:88942  .debug_str:0000000000002ae0 .LASF7502
     /tmp/ccJdQ6R8.s:98882  .debug_str:000000000002b5e1 .LASF7503
     /tmp/ccJdQ6R8.s:90344  .debug_str:0000000000008a08 .LASF7504
     /tmp/ccJdQ6R8.s:93002  .debug_str:00000000000133c0 .LASF7505
     /tmp/ccJdQ6R8.s:93840  .debug_str:000000000001682f .LASF7506
     /tmp/ccJdQ6R8.s:100166  .debug_str:0000000000030888 .LASF7507
     /tmp/ccJdQ6R8.s:97338  .debug_str:00000000000250a9 .LASF7508
     /tmp/ccJdQ6R8.s:104146  .debug_str:0000000000040a7b .LASF7509
     /tmp/ccJdQ6R8.s:88630  .debug_str:000000000000143e .LASF7510
     /tmp/ccJdQ6R8.s:106896  .debug_str:000000000004c327 .LASF7511
     /tmp/ccJdQ6R8.s:104158  .debug_str:0000000000040b32 .LASF7512
     /tmp/ccJdQ6R8.s:96164  .debug_str:00000000000208d8 .LASF7513
     /tmp/ccJdQ6R8.s:88646  .debug_str:0000000000001516 .LASF7514
     /tmp/ccJdQ6R8.s:97342  .debug_str:0000000000025104 .LASF7515
     /tmp/ccJdQ6R8.s:89238  .debug_str:0000000000003f47 .LASF7516
     /tmp/ccJdQ6R8.s:99596  .debug_str:000000000002e39e .LASF7517
     /tmp/ccJdQ6R8.s:104720  .debug_str:0000000000043152 .LASF7518
     /tmp/ccJdQ6R8.s:106230  .debug_str:0000000000049433 .LASF7519
     /tmp/ccJdQ6R8.s:90288  .debug_str:0000000000008639 .LASF7520
     /tmp/ccJdQ6R8.s:90808  .debug_str:000000000000a95b .LASF7521
     /tmp/ccJdQ6R8.s:93556  .debug_str:000000000001563d .LASF7522
     /tmp/ccJdQ6R8.s:101454  .debug_str:0000000000035de3 .LASF7523
     /tmp/ccJdQ6R8.s:98078  .debug_str:00000000000282ad .LASF7524
     /tmp/ccJdQ6R8.s:90234  .debug_str:00000000000082c5 .LASF7525
     /tmp/ccJdQ6R8.s:95686  .debug_str:000000000001e70c .LASF7526
     /tmp/ccJdQ6R8.s:93260  .debug_str:0000000000014330 .LASF7527
     /tmp/ccJdQ6R8.s:94110  .debug_str:0000000000017ada .LASF7528
     /tmp/ccJdQ6R8.s:105210  .debug_str:0000000000044f54 .LASF7529
     /tmp/ccJdQ6R8.s:88810  .debug_str:0000000000002118 .LASF7530
     /tmp/ccJdQ6R8.s:106966  .debug_str:000000000004c7c3 .LASF7531
     /tmp/ccJdQ6R8.s:101626  .debug_str:0000000000036852 .LASF7532
     /tmp/ccJdQ6R8.s:100650  .debug_str:0000000000032934 .LASF7533
     /tmp/ccJdQ6R8.s:88600  .debug_str:0000000000001246 .LASF7534
     /tmp/ccJdQ6R8.s:96430  .debug_str:00000000000219c4 .LASF7535
     /tmp/ccJdQ6R8.s:102102  .debug_str:0000000000038137 .LASF7536
     /tmp/ccJdQ6R8.s:101548  .debug_str:0000000000036394 .LASF7537
     /tmp/ccJdQ6R8.s:105670  .debug_str:0000000000046e38 .LASF7538
     /tmp/ccJdQ6R8.s:105416  .debug_str:0000000000045d59 .LASF7539
     /tmp/ccJdQ6R8.s:99658  .debug_str:000000000002e78d .LASF7540
     /tmp/ccJdQ6R8.s:94678  .debug_str:000000000001a154 .LASF7541
     /tmp/ccJdQ6R8.s:105994  .debug_str:000000000004833c .LASF7542
     /tmp/ccJdQ6R8.s:96516  .debug_str:0000000000021f94 .LASF7543
     /tmp/ccJdQ6R8.s:105718  .debug_str:00000000000471d0 .LASF7544
     /tmp/ccJdQ6R8.s:102464  .debug_str:00000000000399b1 .LASF7545
     /tmp/ccJdQ6R8.s:102112  .debug_str:00000000000381d4 .LASF7546
     /tmp/ccJdQ6R8.s:102914  .debug_str:000000000003b7e2 .LASF7547
     /tmp/ccJdQ6R8.s:94260  .debug_str:0000000000018332 .LASF7548
     /tmp/ccJdQ6R8.s:96896  .debug_str:0000000000023963 .LASF7549
     /tmp/ccJdQ6R8.s:97766  .debug_str:0000000000026d38 .LASF7550
     /tmp/ccJdQ6R8.s:92814  .debug_str:0000000000012723 .LASF7551
     /tmp/ccJdQ6R8.s:103034  .debug_str:000000000003c02a .LASF7552
     /tmp/ccJdQ6R8.s:98846  .debug_str:000000000002b38c .LASF7553
     /tmp/ccJdQ6R8.s:99938  .debug_str:000000000002fa92 .LASF7554
     /tmp/ccJdQ6R8.s:94038  .debug_str:00000000000175fe .LASF7555
     /tmp/ccJdQ6R8.s:105688  .debug_str:0000000000046f67 .LASF7556
     /tmp/ccJdQ6R8.s:97686  .debug_str:00000000000267b4 .LASF7557
     /tmp/ccJdQ6R8.s:92266  .debug_str:0000000000010355 .LASF7558
     /tmp/ccJdQ6R8.s:93886  .debug_str:0000000000016b90 .LASF7559
     /tmp/ccJdQ6R8.s:104008  .debug_str:00000000000401ce .LASF7560
     /tmp/ccJdQ6R8.s:89380  .debug_str:0000000000004923 .LASF7561
     /tmp/ccJdQ6R8.s:93594  .debug_str:0000000000015824 .LASF7562
     /tmp/ccJdQ6R8.s:91312  .debug_str:000000000000ccbd .LASF7563
     /tmp/ccJdQ6R8.s:106322  .debug_str:0000000000049a51 .LASF7564
     /tmp/ccJdQ6R8.s:102280  .debug_str:0000000000038c96 .LASF7565
     /tmp/ccJdQ6R8.s:95904  .debug_str:000000000001f6b7 .LASF7566
     /tmp/ccJdQ6R8.s:99690  .debug_str:000000000002e9fc .LASF7567
     /tmp/ccJdQ6R8.s:96778  .debug_str:00000000000230bc .LASF7568
     /tmp/ccJdQ6R8.s:93540  .debug_str:000000000001553f .LASF7569
     /tmp/ccJdQ6R8.s:96220  .debug_str:0000000000020cb0 .LASF7570
     /tmp/ccJdQ6R8.s:99292  .debug_str:000000000002cfbc .LASF7571
     /tmp/ccJdQ6R8.s:88580  .debug_str:00000000000010fa .LASF7572
     /tmp/ccJdQ6R8.s:91526  .debug_str:000000000000d9c2 .LASF7573
     /tmp/ccJdQ6R8.s:104808  .debug_str:000000000004368b .LASF7574
     /tmp/ccJdQ6R8.s:95052  .debug_str:000000000001baa3 .LASF7575
     /tmp/ccJdQ6R8.s:102806  .debug_str:000000000003b12c .LASF7576
     /tmp/ccJdQ6R8.s:92788  .debug_str:0000000000012561 .LASF7577
     /tmp/ccJdQ6R8.s:100454  .debug_str:0000000000031cda .LASF7578
     /tmp/ccJdQ6R8.s:89958  .debug_str:00000000000070ea .LASF7579
     /tmp/ccJdQ6R8.s:94392  .debug_str:0000000000018c7d .LASF7580
     /tmp/ccJdQ6R8.s:98738  .debug_str:000000000002ac77 .LASF7581
     /tmp/ccJdQ6R8.s:101186  .debug_str:0000000000034cfd .LASF7582
     /tmp/ccJdQ6R8.s:98156  .debug_str:0000000000028774 .LASF7583
     /tmp/ccJdQ6R8.s:104548  .debug_str:00000000000425ee .LASF7584
     /tmp/ccJdQ6R8.s:92532  .debug_str:00000000000114dd .LASF7585
     /tmp/ccJdQ6R8.s:99506  .debug_str:000000000002dd57 .LASF7586
     /tmp/ccJdQ6R8.s:93560  .debug_str:0000000000015671 .LASF7587
     /tmp/ccJdQ6R8.s:104380  .debug_str:0000000000041b2b .LASF7588
     /tmp/ccJdQ6R8.s:104000  .debug_str:0000000000040117 .LASF7589
     /tmp/ccJdQ6R8.s:98442  .debug_str:00000000000299ab .LASF7590
     /tmp/ccJdQ6R8.s:106186  .debug_str:00000000000490e6 .LASF7591
     /tmp/ccJdQ6R8.s:93286  .debug_str:0000000000014438 .LASF7592
     /tmp/ccJdQ6R8.s:93992  .debug_str:0000000000017372 .LASF7593
     /tmp/ccJdQ6R8.s:102824  .debug_str:000000000003b243 .LASF7594
     /tmp/ccJdQ6R8.s:105216  .debug_str:0000000000044fb7 .LASF7595
     /tmp/ccJdQ6R8.s:92110  .debug_str:000000000000fa88 .LASF7596
     /tmp/ccJdQ6R8.s:101096  .debug_str:000000000003470e .LASF7597
     /tmp/ccJdQ6R8.s:95406  .debug_str:000000000001d379 .LASF7598
     /tmp/ccJdQ6R8.s:99338  .debug_str:000000000002d294 .LASF7599
     /tmp/ccJdQ6R8.s:95850  .debug_str:000000000001f2b8 .LASF7600
     /tmp/ccJdQ6R8.s:104696  .debug_str:0000000000042f79 .LASF7601
     /tmp/ccJdQ6R8.s:105052  .debug_str:000000000004456d .LASF7602
     /tmp/ccJdQ6R8.s:88572  .debug_str:000000000000109d .LASF7603
     /tmp/ccJdQ6R8.s:106216  .debug_str:0000000000049303 .LASF7604
     /tmp/ccJdQ6R8.s:107222  .debug_str:000000000004d939 .LASF7605
     /tmp/ccJdQ6R8.s:96882  .debug_str:0000000000023883 .LASF7606
     /tmp/ccJdQ6R8.s:91732  .debug_str:000000000000e5e5 .LASF7607
     /tmp/ccJdQ6R8.s:104424  .debug_str:0000000000041dd2 .LASF7608
     /tmp/ccJdQ6R8.s:91638  .debug_str:000000000000e13c .LASF7609
     /tmp/ccJdQ6R8.s:88372  .debug_str:00000000000002da .LASF7610
     /tmp/ccJdQ6R8.s:104416  .debug_str:0000000000041d7f .LASF7611
     /tmp/ccJdQ6R8.s:94332  .debug_str:0000000000018840 .LASF7612
     /tmp/ccJdQ6R8.s:92434  .debug_str:0000000000010df3 .LASF7613
     /tmp/ccJdQ6R8.s:93918  .debug_str:0000000000016e08 .LASF7614
     /tmp/ccJdQ6R8.s:96314  .debug_str:00000000000212af .LASF7615
     /tmp/ccJdQ6R8.s:94274  .debug_str:0000000000018424 .LASF7616
     /tmp/ccJdQ6R8.s:95396  .debug_str:000000000001d295 .LASF7617
     /tmp/ccJdQ6R8.s:93630  .debug_str:0000000000015a51 .LASF7618
     /tmp/ccJdQ6R8.s:102578  .debug_str:000000000003a107 .LASF7619
     /tmp/ccJdQ6R8.s:97664  .debug_str:00000000000265b0 .LASF7620
     /tmp/ccJdQ6R8.s:100026  .debug_str:000000000002ffac .LASF7621
     /tmp/ccJdQ6R8.s:104266  .debug_str:00000000000412e2 .LASF7622
     /tmp/ccJdQ6R8.s:98598  .debug_str:000000000002a3a7 .LASF7623
     /tmp/ccJdQ6R8.s:104768  .debug_str:00000000000433c8 .LASF7624
     /tmp/ccJdQ6R8.s:97574  .debug_str:0000000000026082 .LASF7625
     /tmp/ccJdQ6R8.s:98588  .debug_str:000000000002a355 .LASF7626
     /tmp/ccJdQ6R8.s:104762  .debug_str:000000000004338c .LASF7627
     /tmp/ccJdQ6R8.s:101716  .debug_str:0000000000036d96 .LASF7628
     /tmp/ccJdQ6R8.s:104534  .debug_str:00000000000424fd .LASF7629
     /tmp/ccJdQ6R8.s:91746  .debug_str:000000000000e673 .LASF7630
     /tmp/ccJdQ6R8.s:95308  .debug_str:000000000001cc34 .LASF7631
     /tmp/ccJdQ6R8.s:104524  .debug_str:000000000004249e .LASF7632
     /tmp/ccJdQ6R8.s:91744  .debug_str:000000000000e669 .LASF7633
     /tmp/ccJdQ6R8.s:92940  .debug_str:0000000000012fe2 .LASF7634
     /tmp/ccJdQ6R8.s:90506  .debug_str:0000000000009528 .LASF7635
     /tmp/ccJdQ6R8.s:88334  .debug_str:0000000000000058 .LASF7636
     /tmp/ccJdQ6R8.s:106168  .debug_str:0000000000048fc7 .LASF7637
     /tmp/ccJdQ6R8.s:91456  .debug_str:000000000000d608 .LASF7638
     /tmp/ccJdQ6R8.s:91420  .debug_str:000000000000d39f .LASF7639
     /tmp/ccJdQ6R8.s:107130  .debug_str:000000000004d2bf .LASF7640
     /tmp/ccJdQ6R8.s:94914  .debug_str:000000000001b119 .LASF7641
     /tmp/ccJdQ6R8.s:89410  .debug_str:0000000000004b58 .LASF7642
     /tmp/ccJdQ6R8.s:93926  .debug_str:0000000000016e9b .LASF7643
     /tmp/ccJdQ6R8.s:101882  .debug_str:0000000000037612 .LASF7644
     /tmp/ccJdQ6R8.s:102670  .debug_str:000000000003a7f4 .LASF7645
     /tmp/ccJdQ6R8.s:102408  .debug_str:0000000000039544 .LASF7646
     /tmp/ccJdQ6R8.s:91630  .debug_str:000000000000e0dc .LASF7647
     /tmp/ccJdQ6R8.s:91444  .debug_str:000000000000d53f .LASF7648
     /tmp/ccJdQ6R8.s:96346  .debug_str:0000000000021458 .LASF7649
     /tmp/ccJdQ6R8.s:101890  .debug_str:000000000003769c .LASF7650
     /tmp/ccJdQ6R8.s:102678  .debug_str:000000000003a88d .LASF7651
     /tmp/ccJdQ6R8.s:103252  .debug_str:000000000003cf29 .LASF7652
     /tmp/ccJdQ6R8.s:91512  .debug_str:000000000000d8a1 .LASF7653
     /tmp/ccJdQ6R8.s:91020  .debug_str:000000000000b8ea .LASF7654
     /tmp/ccJdQ6R8.s:88634  .debug_str:000000000000145a .LASF7655
     /tmp/ccJdQ6R8.s:101470  .debug_str:0000000000035f1b .LASF7656
     /tmp/ccJdQ6R8.s:96112  .debug_str:0000000000020528 .LASF7657
     /tmp/ccJdQ6R8.s:97542  .debug_str:0000000000025e47 .LASF7658
     /tmp/ccJdQ6R8.s:101472  .debug_str:0000000000035f33 .LASF7659
     /tmp/ccJdQ6R8.s:96114  .debug_str:0000000000020540 .LASF7660
     /tmp/ccJdQ6R8.s:103680  .debug_str:000000000003ea1a .LASF7661
     /tmp/ccJdQ6R8.s:106624  .debug_str:000000000004aeb0 .LASF7662
     /tmp/ccJdQ6R8.s:94128  .debug_str:0000000000017be0 .LASF7663
     /tmp/ccJdQ6R8.s:99792  .debug_str:000000000002f077 .LASF7664
     /tmp/ccJdQ6R8.s:106626  .debug_str:000000000004aec8 .LASF7665
     /tmp/ccJdQ6R8.s:94130  .debug_str:0000000000017bf8 .LASF7666
     /tmp/ccJdQ6R8.s:93736  .debug_str:0000000000016173 .LASF7667
     /tmp/ccJdQ6R8.s:93936  .debug_str:0000000000016f3d .LASF7668
     /tmp/ccJdQ6R8.s:99394  .debug_str:000000000002d5c9 .LASF7669
     /tmp/ccJdQ6R8.s:92382  .debug_str:0000000000010b52 .LASF7670
     /tmp/ccJdQ6R8.s:92884  .debug_str:0000000000012c6d .LASF7671
     /tmp/ccJdQ6R8.s:99396  .debug_str:000000000002d5e1 .LASF7672
     /tmp/ccJdQ6R8.s:105372  .debug_str:0000000000045a94 .LASF7673
     /tmp/ccJdQ6R8.s:98120  .debug_str:000000000002849e .LASF7674
     /tmp/ccJdQ6R8.s:104490  .debug_str:0000000000042220 .LASF7675
     /tmp/ccJdQ6R8.s:104214  .debug_str:0000000000040f2c .LASF7676
     /tmp/ccJdQ6R8.s:98122  .debug_str:00000000000284b6 .LASF7677
     /tmp/ccJdQ6R8.s:104492  .debug_str:0000000000042238 .LASF7678
     /tmp/ccJdQ6R8.s:90754  .debug_str:000000000000a59a .LASF7679
     /tmp/ccJdQ6R8.s:103248  .debug_str:000000000003cef9 .LASF7680
     /tmp/ccJdQ6R8.s:99774  .debug_str:000000000002ef1f .LASF7681
     /tmp/ccJdQ6R8.s:97056  .debug_str:000000000002423d .LASF7682
     /tmp/ccJdQ6R8.s:103250  .debug_str:000000000003cf11 .LASF7683
     /tmp/ccJdQ6R8.s:90660  .debug_str:0000000000009ef4 .LASF7684
     /tmp/ccJdQ6R8.s:90978  .debug_str:000000000000b62b .LASF7685
     /tmp/ccJdQ6R8.s:89466  .debug_str:0000000000004ef7 .LASF7686
     /tmp/ccJdQ6R8.s:95970  .debug_str:000000000001fc77 .LASF7687
     /tmp/ccJdQ6R8.s:89726  .debug_str:0000000000006080 .LASF7688
     /tmp/ccJdQ6R8.s:89468  .debug_str:0000000000004f0f .LASF7689
     /tmp/ccJdQ6R8.s:95972  .debug_str:000000000001fc8f .LASF7690
     /tmp/ccJdQ6R8.s:102772  .debug_str:000000000003aec2 .LASF7691
     /tmp/ccJdQ6R8.s:94706  .debug_str:000000000001a319 .LASF7692
     /tmp/ccJdQ6R8.s:101150  .debug_str:0000000000034a9b .LASF7693
     /tmp/ccJdQ6R8.s:98198  .debug_str:00000000000289d1 .LASF7694
     /tmp/ccJdQ6R8.s:94708  .debug_str:000000000001a331 .LASF7695
     /tmp/ccJdQ6R8.s:101152  .debug_str:0000000000034ab3 .LASF7696
     /tmp/ccJdQ6R8.s:95566  .debug_str:000000000001dea2 .LASF7697
     /tmp/ccJdQ6R8.s:99942  .debug_str:000000000002faae .LASF7698
     /tmp/ccJdQ6R8.s:106294  .debug_str:0000000000049882 .LASF7699
     /tmp/ccJdQ6R8.s:94436  .debug_str:0000000000018f86 .LASF7700
     /tmp/ccJdQ6R8.s:99944  .debug_str:000000000002fac6 .LASF7701
     /tmp/ccJdQ6R8.s:106296  .debug_str:000000000004989a .LASF7702
     /tmp/ccJdQ6R8.s:88436  .debug_str:0000000000000777 .LASF7703
     /tmp/ccJdQ6R8.s:105100  .debug_str:000000000004481c .LASF7704
     /tmp/ccJdQ6R8.s:92550  .debug_str:0000000000011626 .LASF7705
     /tmp/ccJdQ6R8.s:106012  .debug_str:0000000000048452 .LASF7706
     /tmp/ccJdQ6R8.s:105102  .debug_str:0000000000044834 .LASF7707
     /tmp/ccJdQ6R8.s:92552  .debug_str:000000000001163e .LASF7708
     /tmp/ccJdQ6R8.s:100110  .debug_str:000000000003051e .LASF7709
     /tmp/ccJdQ6R8.s:91242  .debug_str:000000000000c7c7 .LASF7710
     /tmp/ccJdQ6R8.s:91748  .debug_str:000000000000e67d .LASF7711
     /tmp/ccJdQ6R8.s:98992  .debug_str:000000000002bcd0 .LASF7712
     /tmp/ccJdQ6R8.s:91244  .debug_str:000000000000c7df .LASF7713
     /tmp/ccJdQ6R8.s:94812  .debug_str:000000000001aa18 .LASF7714
     /tmp/ccJdQ6R8.s:92912  .debug_str:0000000000012e82 .LASF7715
     /tmp/ccJdQ6R8.s:106766  .debug_str:000000000004ba38 .LASF7716
     /tmp/ccJdQ6R8.s:92714  .debug_str:0000000000012152 .LASF7717
     /tmp/ccJdQ6R8.s:95054  .debug_str:000000000001babb .LASF7718
     /tmp/ccJdQ6R8.s:106768  .debug_str:000000000004ba51 .LASF7719
     /tmp/ccJdQ6R8.s:92716  .debug_str:000000000001216b .LASF7720
     /tmp/ccJdQ6R8.s:89054  .debug_str:00000000000032f1 .LASF7721
     /tmp/ccJdQ6R8.s:93012  .debug_str:000000000001344c .LASF7722
     /tmp/ccJdQ6R8.s:102400  .debug_str:00000000000394c4 .LASF7723
     /tmp/ccJdQ6R8.s:106860  .debug_str:000000000004c0cd .LASF7724
     /tmp/ccJdQ6R8.s:93014  .debug_str:0000000000013465 .LASF7725
     /tmp/ccJdQ6R8.s:97954  .debug_str:00000000000279e8 .LASF7726
     /tmp/ccJdQ6R8.s:91084  .debug_str:000000000000bd0c .LASF7727
     /tmp/ccJdQ6R8.s:96294  .debug_str:00000000000211d0 .LASF7728
     /tmp/ccJdQ6R8.s:103106  .debug_str:000000000003c55d .LASF7729
     /tmp/ccJdQ6R8.s:99770  .debug_str:000000000002eec8 .LASF7730
     /tmp/ccJdQ6R8.s:96296  .debug_str:00000000000211e9 .LASF7731
     /tmp/ccJdQ6R8.s:103108  .debug_str:000000000003c576 .LASF7732
     /tmp/ccJdQ6R8.s:93712  .debug_str:0000000000015ff8 .LASF7733
     /tmp/ccJdQ6R8.s:106638  .debug_str:000000000004afd4 .LASF7734
     /tmp/ccJdQ6R8.s:89320  .debug_str:00000000000044f4 .LASF7735
     /tmp/ccJdQ6R8.s:92352  .debug_str:00000000000108d0 .LASF7736
     /tmp/ccJdQ6R8.s:103384  .debug_str:000000000003d732 .LASF7737
     /tmp/ccJdQ6R8.s:89322  .debug_str:000000000000450d .LASF7738
     /tmp/ccJdQ6R8.s:105342  .debug_str:0000000000045866 .LASF7739
     /tmp/ccJdQ6R8.s:89604  .debug_str:0000000000005915 .LASF7740
     /tmp/ccJdQ6R8.s:94564  .debug_str:000000000001986f .LASF7741
     /tmp/ccJdQ6R8.s:104182  .debug_str:0000000000040cdc .LASF7742
     /tmp/ccJdQ6R8.s:89606  .debug_str:000000000000592e .LASF7743
     /tmp/ccJdQ6R8.s:102890  .debug_str:000000000003b695 .LASF7744
     /tmp/ccJdQ6R8.s:98254  .debug_str:0000000000028dbf .LASF7745
     /tmp/ccJdQ6R8.s:94854  .debug_str:000000000001ac8e .LASF7746
     /tmp/ccJdQ6R8.s:99800  .debug_str:000000000002f112 .LASF7747
     /tmp/ccJdQ6R8.s:97028  .debug_str:0000000000024097 .LASF7748
     /tmp/ccJdQ6R8.s:89478  .debug_str:0000000000004fcd .LASF7749
     /tmp/ccJdQ6R8.s:99802  .debug_str:000000000002f12b .LASF7750
     /tmp/ccJdQ6R8.s:90948  .debug_str:000000000000b381 .LASF7751
     /tmp/ccJdQ6R8.s:101236  .debug_str:0000000000035076 .LASF7752
     /tmp/ccJdQ6R8.s:93844  .debug_str:000000000001685c .LASF7753
     /tmp/ccJdQ6R8.s:99816  .debug_str:000000000002f24c .LASF7754
     /tmp/ccJdQ6R8.s:100716  .debug_str:0000000000032d7e .LASF7755
     /tmp/ccJdQ6R8.s:90422  .debug_str:0000000000008f80 .LASF7756
     /tmp/ccJdQ6R8.s:100154  .debug_str:00000000000307d5 .LASF7757
     /tmp/ccJdQ6R8.s:100718  .debug_str:0000000000032d8b .LASF7758
     /tmp/ccJdQ6R8.s:92586  .debug_str:00000000000118c6 .LASF7759
     /tmp/ccJdQ6R8.s:94118  .debug_str:0000000000017b56 .LASF7760
     /tmp/ccJdQ6R8.s:100720  .debug_str:0000000000032d98 .LASF7761
     /tmp/ccJdQ6R8.s:90428  .debug_str:0000000000008fc4 .LASF7762
     /tmp/ccJdQ6R8.s:101092  .debug_str:00000000000346d5 .LASF7763
     /tmp/ccJdQ6R8.s:99314  .debug_str:000000000002d13a .LASF7764
     /tmp/ccJdQ6R8.s:89904  .debug_str:0000000000006d50 .LASF7765
     /tmp/ccJdQ6R8.s:95166  .debug_str:000000000001c2cd .LASF7766
     /tmp/ccJdQ6R8.s:103264  .debug_str:000000000003cf9b .LASF7767
     /tmp/ccJdQ6R8.s:94922  .debug_str:000000000001b1a5 .LASF7768
     /tmp/ccJdQ6R8.s:106302  .debug_str:000000000004990f .LASF7769
     /tmp/ccJdQ6R8.s:92508  .debug_str:0000000000011334 .LASF7770
     /tmp/ccJdQ6R8.s:102548  .debug_str:0000000000039e97 .LASF7771
     /tmp/ccJdQ6R8.s:92906  .debug_str:0000000000012e18 .LASF7772
     /tmp/ccJdQ6R8.s:101044  .debug_str:00000000000343c7 .LASF7773
     /tmp/ccJdQ6R8.s:95104  .debug_str:000000000001bec9 .LASF7774
     /tmp/ccJdQ6R8.s:88458  .debug_str:000000000000090d .LASF7775
     /tmp/ccJdQ6R8.s:96084  .debug_str:000000000002031a .LASF7776
     /tmp/ccJdQ6R8.s:93324  .debug_str:0000000000014715 .LASF7777
     /tmp/ccJdQ6R8.s:104868  .debug_str:0000000000043a06 .LASF7778
     /tmp/ccJdQ6R8.s:93962  .debug_str:0000000000017137 .LASF7779
     /tmp/ccJdQ6R8.s:98116  .debug_str:000000000002846f .LASF7780
     /tmp/ccJdQ6R8.s:102920  .debug_str:000000000003b82d .LASF7781
     /tmp/ccJdQ6R8.s:104322  .debug_str:0000000000041779 .LASF7782
     /tmp/ccJdQ6R8.s:100936  .debug_str:0000000000033bc9 .LASF7783
     /tmp/ccJdQ6R8.s:101286  .debug_str:00000000000353a3 .LASF7784
     /tmp/ccJdQ6R8.s:88750  .debug_str:0000000000001caa .LASF7785
     /tmp/ccJdQ6R8.s:102428  .debug_str:00000000000396ab .LASF7786
     /tmp/ccJdQ6R8.s:95324  .debug_str:000000000001cd4a .LASF7787
     /tmp/ccJdQ6R8.s:103864  .debug_str:000000000003f882 .LASF7788
     /tmp/ccJdQ6R8.s:106926  .debug_str:000000000004c530 .LASF7789
     /tmp/ccJdQ6R8.s:103940  .debug_str:000000000003fcf1 .LASF7790
     /tmp/ccJdQ6R8.s:93146  .debug_str:0000000000013cb4 .LASF7791
     /tmp/ccJdQ6R8.s:99082  .debug_str:000000000002c1fd .LASF7792
     /tmp/ccJdQ6R8.s:98998  .debug_str:000000000002bd18 .LASF7793
     /tmp/ccJdQ6R8.s:103372  .debug_str:000000000003d694 .LASF7794
     /tmp/ccJdQ6R8.s:99308  .debug_str:000000000002d0d7 .LASF7795
     /tmp/ccJdQ6R8.s:100872  .debug_str:000000000003376a .LASF7796
     /tmp/ccJdQ6R8.s:89102  .debug_str:00000000000035a2 .LASF7797
     /tmp/ccJdQ6R8.s:99098  .debug_str:000000000002c2fa .LASF7798
     /tmp/ccJdQ6R8.s:98916  .debug_str:000000000002b7fd .LASF7799
     /tmp/ccJdQ6R8.s:95504  .debug_str:000000000001da88 .LASF7800
     /tmp/ccJdQ6R8.s:98556  .debug_str:000000000002a07c .LASF7801
     /tmp/ccJdQ6R8.s:88484  .debug_str:0000000000000ab2 .LASF7802
     /tmp/ccJdQ6R8.s:97380  .debug_str:0000000000025339 .LASF7803
     /tmp/ccJdQ6R8.s:100686  .debug_str:0000000000032b71 .LASF7804
     /tmp/ccJdQ6R8.s:97822  .debug_str:00000000000270ed .LASF7805
     /tmp/ccJdQ6R8.s:94766  .debug_str:000000000001a719 .LASF7806
     /tmp/ccJdQ6R8.s:107224  .debug_str:000000000004d94f .LASF7807
     /tmp/ccJdQ6R8.s:95948  .debug_str:000000000001fa2e .LASF7808
     /tmp/ccJdQ6R8.s:90760  .debug_str:000000000000a619 .LASF7809
     /tmp/ccJdQ6R8.s:100820  .debug_str:0000000000033488 .LASF7810
     /tmp/ccJdQ6R8.s:107228  .debug_str:000000000004d979 .LASF7811
     /tmp/ccJdQ6R8.s:90310  .debug_str:0000000000008771 .LASF7812
     /tmp/ccJdQ6R8.s:90090  .debug_str:0000000000007943 .LASF7813
     /tmp/ccJdQ6R8.s:96368  .debug_str:0000000000021644 .LASF7814
     /tmp/ccJdQ6R8.s:105814  .debug_str:00000000000477ff .LASF7815
     /tmp/ccJdQ6R8.s:91880  .debug_str:000000000000ed10 .LASF7816
     /tmp/ccJdQ6R8.s:100122  .debug_str:0000000000030606 .LASF7817
     /tmp/ccJdQ6R8.s:95806  .debug_str:000000000001ef2a .LASF7818
     /tmp/ccJdQ6R8.s:90100  .debug_str:00000000000079ab .LASF7819
     /tmp/ccJdQ6R8.s:94516  .debug_str:00000000000194b4 .LASF7820
     /tmp/ccJdQ6R8.s:93056  .debug_str:0000000000013731 .LASF7821
     /tmp/ccJdQ6R8.s:106140  .debug_str:0000000000048dbe .LASF7822
     /tmp/ccJdQ6R8.s:102332  .debug_str:000000000003904b .LASF7823
     /tmp/ccJdQ6R8.s:107184  .debug_str:000000000004d672 .LASF7824
     /tmp/ccJdQ6R8.s:91500  .debug_str:000000000000d801 .LASF7825
     /tmp/ccJdQ6R8.s:89286  .debug_str:000000000000430f .LASF7826
     /tmp/ccJdQ6R8.s:89362  .debug_str:0000000000004801 .LASF7827
     /tmp/ccJdQ6R8.s:92768  .debug_str:000000000001240f .LASF7828
     /tmp/ccJdQ6R8.s:105772  .debug_str:0000000000047552 .LASF7829
     /tmp/ccJdQ6R8.s:92038  .debug_str:000000000000f727 .LASF7830
     /tmp/ccJdQ6R8.s:102092  .debug_str:0000000000038090 .LASF7831
     /tmp/ccJdQ6R8.s:94082  .debug_str:00000000000178b6 .LASF7832
     /tmp/ccJdQ6R8.s:92026  .debug_str:000000000000f60c .LASF7833
     /tmp/ccJdQ6R8.s:102068  .debug_str:0000000000037fd5 .LASF7834
     /tmp/ccJdQ6R8.s:96310  .debug_str:000000000002127f .LASF7835
     /tmp/ccJdQ6R8.s:101640  .debug_str:000000000003695c .LASF7836
     /tmp/ccJdQ6R8.s:104974  .debug_str:0000000000044144 .LASF7837
     /tmp/ccJdQ6R8.s:93060  .debug_str:0000000000013755 .LASF7838
     /tmp/ccJdQ6R8.s:88480  .debug_str:0000000000000a99 .LASF7839
     /tmp/ccJdQ6R8.s:106924  .debug_str:000000000004c528 .LASF7840
     /tmp/ccJdQ6R8.s:102116  .debug_str:0000000000038206 .LASF7841
     /tmp/ccJdQ6R8.s:96030  .debug_str:0000000000020029 .LASF7842
     /tmp/ccJdQ6R8.s:92934  .debug_str:0000000000012f92 .LASF7843
     /tmp/ccJdQ6R8.s:99764  .debug_str:000000000002ee86 .LASF7844
     /tmp/ccJdQ6R8.s:92464  .debug_str:0000000000010fa0 .LASF7845
     /tmp/ccJdQ6R8.s:102484  .debug_str:0000000000039aae .LASF7846
     /tmp/ccJdQ6R8.s:99646  .debug_str:000000000002e6b9 .LASF7847
     /tmp/ccJdQ6R8.s:96602  .debug_str:000000000002251a .LASF7848
     /tmp/ccJdQ6R8.s:100004  .debug_str:000000000002fe99 .LASF7849
     /tmp/ccJdQ6R8.s:89668  .debug_str:0000000000005cd0 .LASF7850
     /tmp/ccJdQ6R8.s:105324  .debug_str:0000000000045708 .LASF7851
     /tmp/ccJdQ6R8.s:90998  .debug_str:000000000000b7aa .LASF7852
     /tmp/ccJdQ6R8.s:100916  .debug_str:0000000000033a7f .LASF7853
     /tmp/ccJdQ6R8.s:92546  .debug_str:00000000000115e6 .LASF7854
     /tmp/ccJdQ6R8.s:101698  .debug_str:0000000000036c6c .LASF7855
     /tmp/ccJdQ6R8.s:88538  .debug_str:0000000000000e2c .LASF7856
     /tmp/ccJdQ6R8.s:101768  .debug_str:0000000000037002 .LASF7857
     /tmp/ccJdQ6R8.s:105082  .debug_str:00000000000446f8 .LASF7858
     /tmp/ccJdQ6R8.s:105426  .debug_str:0000000000045df1 .LASF7859
     /tmp/ccJdQ6R8.s:90846  .debug_str:000000000000ac64 .LASF7860
     /tmp/ccJdQ6R8.s:100900  .debug_str:0000000000033955 .LASF7861
     /tmp/ccJdQ6R8.s:96204  .debug_str:0000000000020bb3 .LASF7862
     /tmp/ccJdQ6R8.s:95468  .debug_str:000000000001d7e4 .LASF7863
     /tmp/ccJdQ6R8.s:104816  .debug_str:0000000000043706 .LASF7864
     /tmp/ccJdQ6R8.s:88512  .debug_str:0000000000000c2f .LASF7865
     /tmp/ccJdQ6R8.s:97300  .debug_str:0000000000024dd0 .LASF7866
     /tmp/ccJdQ6R8.s:102394  .debug_str:000000000003943f .LASF7867
     /tmp/ccJdQ6R8.s:106678  .debug_str:000000000004b377 .LASF7868
     /tmp/ccJdQ6R8.s:101954  .debug_str:00000000000379ac .LASF7869
     /tmp/ccJdQ6R8.s:94974  .debug_str:000000000001b571 .LASF7870
     /tmp/ccJdQ6R8.s:95576  .debug_str:000000000001df4e .LASF7871
     /tmp/ccJdQ6R8.s:102526  .debug_str:0000000000039d1c .LASF7872
     /tmp/ccJdQ6R8.s:103702  .debug_str:000000000003ec14 .LASF7873
     /tmp/ccJdQ6R8.s:96958  .debug_str:0000000000023cee .LASF7874
     /tmp/ccJdQ6R8.s:91074  .debug_str:000000000000bc6b .LASF7875
     /tmp/ccJdQ6R8.s:94602  .debug_str:0000000000019b53 .LASF7876
     /tmp/ccJdQ6R8.s:97682  .debug_str:0000000000026762 .LASF7877
     /tmp/ccJdQ6R8.s:95862  .debug_str:000000000001f3af .LASF7878
     /tmp/ccJdQ6R8.s:98562  .debug_str:000000000002a0e8 .LASF7879
     /tmp/ccJdQ6R8.s:93266  .debug_str:0000000000014359 .LASF7880
     /tmp/ccJdQ6R8.s:106412  .debug_str:000000000004a01e .LASF7881
     /tmp/ccJdQ6R8.s:102498  .debug_str:0000000000039b8e .LASF7882
     /tmp/ccJdQ6R8.s:103662  .debug_str:000000000003e8eb .LASF7883
     /tmp/ccJdQ6R8.s:95618  .debug_str:000000000001e1da .LASF7884
     /tmp/ccJdQ6R8.s:103882  .debug_str:000000000003f985 .LASF7885
     /tmp/ccJdQ6R8.s:91610  .debug_str:000000000000df1f .LASF7886
     /tmp/ccJdQ6R8.s:91628  .debug_str:000000000000e0ca .LASF7887
     /tmp/ccJdQ6R8.s:104642  .debug_str:0000000000042c37 .LASF7888
     /tmp/ccJdQ6R8.s:90030  .debug_str:0000000000007558 .LASF7889
     /tmp/ccJdQ6R8.s:101362  .debug_str:0000000000035866 .LASF7890
     /tmp/ccJdQ6R8.s:104710  .debug_str:0000000000043069 .LASF7891
     /tmp/ccJdQ6R8.s:101208  .debug_str:0000000000034e30 .LASF7892
     /tmp/ccJdQ6R8.s:90770  .debug_str:000000000000a688 .LASF7893
     /tmp/ccJdQ6R8.s:100828  .debug_str:00000000000334f9 .LASF7894
     /tmp/ccJdQ6R8.s:97132  .debug_str:00000000000245e8 .LASF7895
     /tmp/ccJdQ6R8.s:90922  .debug_str:000000000000b1e5 .LASF7896
     /tmp/ccJdQ6R8.s:100986  .debug_str:0000000000033fab .LASF7897
     /tmp/ccJdQ6R8.s:94988  .debug_str:000000000001b62e .LASF7898
     /tmp/ccJdQ6R8.s:94018  .debug_str:00000000000174f1 .LASF7899
     /tmp/ccJdQ6R8.s:93824  .debug_str:0000000000016727 .LASF7900
     /tmp/ccJdQ6R8.s:97524  .debug_str:0000000000025d21 .LASF7901
     /tmp/ccJdQ6R8.s:102496  .debug_str:0000000000039b86 .LASF7902
     /tmp/ccJdQ6R8.s:90094  .debug_str:000000000000796b .LASF7903
     /tmp/ccJdQ6R8.s:96784  .debug_str:000000000002310a .LASF7904
     /tmp/ccJdQ6R8.s:101086  .debug_str:0000000000034689 .LASF7905
     /tmp/ccJdQ6R8.s:88586  .debug_str:000000000000116a .LASF7906
     /tmp/ccJdQ6R8.s:97436  .debug_str:00000000000256af .LASF7907
     /tmp/ccJdQ6R8.s:102146  .debug_str:0000000000038391 .LASF7908
     /tmp/ccJdQ6R8.s:89360  .debug_str:00000000000047f5 .LASF7909
     /tmp/ccJdQ6R8.s:102760  .debug_str:000000000003ada9 .LASF7910
     /tmp/ccJdQ6R8.s:100124  .debug_str:000000000003062a .LASF7911
     /tmp/ccJdQ6R8.s:97420  .debug_str:00000000000255ad .LASF7912
     /tmp/ccJdQ6R8.s:94462  .debug_str:0000000000019129 .LASF7913
     /tmp/ccJdQ6R8.s:95182  .debug_str:000000000001c381 .LASF7914
     /tmp/ccJdQ6R8.s:101712  .debug_str:0000000000036d58 .LASF7915
     /tmp/ccJdQ6R8.s:104744  .debug_str:0000000000043290 .LASF7916
     /tmp/ccJdQ6R8.s:106518  .debug_str:000000000004a7fe .LASF7917
     /tmp/ccJdQ6R8.s:107092  .debug_str:000000000004cffb .LASF7918
     /tmp/ccJdQ6R8.s:97046  .debug_str:00000000000241c0 .LASF7919
     /tmp/ccJdQ6R8.s:93818  .debug_str:00000000000166f6 .LASF7920
     /tmp/ccJdQ6R8.s:96074  .debug_str:0000000000020283 .LASF7921
     /tmp/ccJdQ6R8.s:101522  .debug_str:00000000000361dc .LASF7922
     /tmp/ccJdQ6R8.s:98402  .debug_str:0000000000029722 .LASF7923
     /tmp/ccJdQ6R8.s:105064  .debug_str:0000000000044643 .LASF7924
     /tmp/ccJdQ6R8.s:99488  .debug_str:000000000002dba1 .LASF7925
     /tmp/ccJdQ6R8.s:98404  .debug_str:0000000000029735 .LASF7926
     /tmp/ccJdQ6R8.s:105066  .debug_str:0000000000044656 .LASF7927
     /tmp/ccJdQ6R8.s:95022  .debug_str:000000000001b8f2 .LASF7928
     /tmp/ccJdQ6R8.s:98406  .debug_str:0000000000029748 .LASF7929
     /tmp/ccJdQ6R8.s:97754  .debug_str:0000000000026c7e .LASF7930
     /tmp/ccJdQ6R8.s:106324  .debug_str:0000000000049a5e .LASF7931
     /tmp/ccJdQ6R8.s:97820  .debug_str:00000000000270da .LASF7932
     /tmp/ccJdQ6R8.s:105070  .debug_str:0000000000044676 .LASF7933
     /tmp/ccJdQ6R8.s:100398  .debug_str:000000000003191b .LASF7934
     /tmp/ccJdQ6R8.s:98410  .debug_str:000000000002977c .LASF7935
     /tmp/ccJdQ6R8.s:105072  .debug_str:0000000000044689 .LASF7936
     /tmp/ccJdQ6R8.s:94366  .debug_str:0000000000018a8b .LASF7937
     /tmp/ccJdQ6R8.s:98412  .debug_str:000000000002978f .LASF7938
     /tmp/ccJdQ6R8.s:105074  .debug_str:000000000004469c .LASF7939
     /tmp/ccJdQ6R8.s:88362  .debug_str:0000000000000235 .LASF7940
     /tmp/ccJdQ6R8.s:98414  .debug_str:00000000000297a2 .LASF7941
     /tmp/ccJdQ6R8.s:105076  .debug_str:00000000000446af .LASF7942
     /tmp/ccJdQ6R8.s:101326  .debug_str:00000000000355c4 .LASF7943
     /tmp/ccJdQ6R8.s:98416  .debug_str:00000000000297b5 .LASF7944
     /tmp/ccJdQ6R8.s:105078  .debug_str:00000000000446c2 .LASF7945
     /tmp/ccJdQ6R8.s:95310  .debug_str:000000000001cc52 .LASF7946
     /tmp/ccJdQ6R8.s:98648  .debug_str:000000000002a725 .LASF7947
     /tmp/ccJdQ6R8.s:95548  .debug_str:000000000001dde7 .LASF7948
     /tmp/ccJdQ6R8.s:101330  .debug_str:000000000003560c .LASF7949
     /tmp/ccJdQ6R8.s:104724  .debug_str:000000000004317e .LASF7950
     /tmp/ccJdQ6R8.s:95550  .debug_str:000000000001ddfa .LASF7951
     /tmp/ccJdQ6R8.s:99304  .debug_str:000000000002d07a .LASF7952
     /tmp/ccJdQ6R8.s:88822  .debug_str:00000000000021ee .LASF7953
     /tmp/ccJdQ6R8.s:95552  .debug_str:000000000001de0d .LASF7954
     /tmp/ccJdQ6R8.s:93232  .debug_str:00000000000141de .LASF7955
     /tmp/ccJdQ6R8.s:88824  .debug_str:0000000000002201 .LASF7956
     /tmp/ccJdQ6R8.s:95554  .debug_str:000000000001de20 .LASF7957
     /tmp/ccJdQ6R8.s:106132  .debug_str:0000000000048d2e .LASF7958
     /tmp/ccJdQ6R8.s:104732  .debug_str:00000000000431ca .LASF7959
     /tmp/ccJdQ6R8.s:95556  .debug_str:000000000001de33 .LASF7960
     /tmp/ccJdQ6R8.s:95042  .debug_str:000000000001ba00 .LASF7961
     /tmp/ccJdQ6R8.s:88828  .debug_str:0000000000002254 .LASF7962
     /tmp/ccJdQ6R8.s:95558  .debug_str:000000000001de46 .LASF7963
     /tmp/ccJdQ6R8.s:94468  .debug_str:000000000001919f .LASF7964
     /tmp/ccJdQ6R8.s:88830  .debug_str:0000000000002267 .LASF7965
     /tmp/ccJdQ6R8.s:95560  .debug_str:000000000001de59 .LASF7966
     /tmp/ccJdQ6R8.s:107116  .debug_str:000000000004d1d7 .LASF7967
     /tmp/ccJdQ6R8.s:88832  .debug_str:000000000000227a .LASF7968
     /tmp/ccJdQ6R8.s:95562  .debug_str:000000000001de6c .LASF7969
     /tmp/ccJdQ6R8.s:101144  .debug_str:00000000000349fd .LASF7970
     /tmp/ccJdQ6R8.s:106048  .debug_str:00000000000486b8 .LASF7971
     /tmp/ccJdQ6R8.s:98318  .debug_str:000000000002921b .LASF7972
     /tmp/ccJdQ6R8.s:106164  .debug_str:0000000000048f7b .LASF7973
     /tmp/ccJdQ6R8.s:96466  .debug_str:0000000000021c04 .LASF7974
     /tmp/ccJdQ6R8.s:88608  .debug_str:00000000000012d1 .LASF7975
     /tmp/ccJdQ6R8.s:93064  .debug_str:0000000000013786 .LASF7976
     /tmp/ccJdQ6R8.s:95284  .debug_str:000000000001caa6 .LASF7977
     /tmp/ccJdQ6R8.s:100314  .debug_str:0000000000031388 .LASF7978
     /tmp/ccJdQ6R8.s:99234  .debug_str:000000000002cc1e .LASF7979
     /tmp/ccJdQ6R8.s:96976  .debug_str:0000000000023dfc .LASF7980
     /tmp/ccJdQ6R8.s:102236  .debug_str:0000000000038993 .LASF7981
     /tmp/ccJdQ6R8.s:106504  .debug_str:000000000004a6da .LASF7982
     /tmp/ccJdQ6R8.s:97290  .debug_str:0000000000024d68 .LASF7983
     /tmp/ccJdQ6R8.s:94250  .debug_str:000000000001829c .LASF7984
     /tmp/ccJdQ6R8.s:90162  .debug_str:0000000000007d7a .LASF7985
     /tmp/ccJdQ6R8.s:100862  .debug_str:00000000000336b0 .LASF7986
     /tmp/ccJdQ6R8.s:107052  .debug_str:000000000004cd3a .LASF7987
     /tmp/ccJdQ6R8.s:90540  .debug_str:00000000000097c5 .LASF7988
     /tmp/ccJdQ6R8.s:101414  .debug_str:0000000000035b5c .LASF7989
     /tmp/ccJdQ6R8.s:100254  .debug_str:0000000000030f5e .LASF7990
     /tmp/ccJdQ6R8.s:89634  .debug_str:0000000000005aa0 .LASF7991
     /tmp/ccJdQ6R8.s:103354  .debug_str:000000000003d546 .LASF7992
     /tmp/ccJdQ6R8.s:99586  .debug_str:000000000002e31c .LASF7993
     /tmp/ccJdQ6R8.s:92576  .debug_str:00000000000117dc .LASF7994
     /tmp/ccJdQ6R8.s:101134  .debug_str:0000000000034997 .LASF7995
     /tmp/ccJdQ6R8.s:104458  .debug_str:0000000000041ff0 .LASF7996
     /tmp/ccJdQ6R8.s:95358  .debug_str:000000000001d014 .LASF7997
     /tmp/ccJdQ6R8.s:106354  .debug_str:0000000000049c76 .LASF7998
     /tmp/ccJdQ6R8.s:102552  .debug_str:0000000000039ee5 .LASF7999
     /tmp/ccJdQ6R8.s:89436  .debug_str:0000000000004cdf .LASF8000
     /tmp/ccJdQ6R8.s:104692  .debug_str:0000000000042f60 .LASF8001
     /tmp/ccJdQ6R8.s:89454  .debug_str:0000000000004e5e .LASF8002
     /tmp/ccJdQ6R8.s:104244  .debug_str:00000000000411bc .LASF8003
     /tmp/ccJdQ6R8.s:101504  .debug_str:0000000000036078 .LASF8004
     /tmp/ccJdQ6R8.s:104852  .debug_str:000000000004390d .LASF8005
     /tmp/ccJdQ6R8.s:98798  .debug_str:000000000002b049 .LASF8006
     /tmp/ccJdQ6R8.s:92710  .debug_str:000000000001211c .LASF8007
     /tmp/ccJdQ6R8.s:105286  .debug_str:0000000000045468 .LASF8008
     /tmp/ccJdQ6R8.s:96636  .debug_str:000000000002275b .LASF8009
     /tmp/ccJdQ6R8.s:92188  .debug_str:000000000000ff18 .LASF8010
     /tmp/ccJdQ6R8.s:90964  .debug_str:000000000000b4d5 .LASF8011
     /tmp/ccJdQ6R8.s:105778  .debug_str:00000000000475a0 .LASF8012
     /tmp/ccJdQ6R8.s:106522  .debug_str:000000000004a823 .LASF8013
     /tmp/ccJdQ6R8.s:90630  .debug_str:0000000000009d99 .LASF8014
     /tmp/ccJdQ6R8.s:91394  .debug_str:000000000000d1ff .LASF8015
     /tmp/ccJdQ6R8.s:96188  .debug_str:0000000000020ace .LASF8016
     /tmp/ccJdQ6R8.s:92538  .debug_str:0000000000011542 .LASF8017
     /tmp/ccJdQ6R8.s:104042  .debug_str:0000000000040426 .LASF8018
     /tmp/ccJdQ6R8.s:91548  .debug_str:000000000000db5b .LASF8019
     /tmp/ccJdQ6R8.s:105438  .debug_str:0000000000045ecf .LASF8020
     /tmp/ccJdQ6R8.s:88474  .debug_str:0000000000000a4a .LASF8021
     /tmp/ccJdQ6R8.s:90722  .debug_str:000000000000a38a .LASF8022
     /tmp/ccJdQ6R8.s:105384  .debug_str:0000000000045b7d .LASF8023
     /tmp/ccJdQ6R8.s:103308  .debug_str:000000000003d1fa .LASF8024
     /tmp/ccJdQ6R8.s:97714  .debug_str:000000000002699c .LASF8025
     /tmp/ccJdQ6R8.s:89414  .debug_str:0000000000004b90 .LASF8026
     /tmp/ccJdQ6R8.s:105306  .debug_str:000000000004559f .LASF8027
     /tmp/ccJdQ6R8.s:94622  .debug_str:0000000000019c78 .LASF8028
     /tmp/ccJdQ6R8.s:98014  .debug_str:0000000000027def .LASF8029
     /tmp/ccJdQ6R8.s:95674  .debug_str:000000000001e630 .LASF8030
     /tmp/ccJdQ6R8.s:88456  .debug_str:00000000000008fd .LASF8031
     /tmp/ccJdQ6R8.s:89194  .debug_str:0000000000003bfa .LASF8032
     /tmp/ccJdQ6R8.s:98496  .debug_str:0000000000029d4a .LASF8033
     /tmp/ccJdQ6R8.s:105494  .debug_str:000000000004623a .LASF8034
     /tmp/ccJdQ6R8.s:97064  .debug_str:00000000000242cc .LASF8035
     /tmp/ccJdQ6R8.s:88956  .debug_str:0000000000002ba6 .LASF8036
     /tmp/ccJdQ6R8.s:92644  .debug_str:0000000000011cba .LASF8037
     /tmp/ccJdQ6R8.s:99368  .debug_str:000000000002d410 .LASF8038
     /tmp/ccJdQ6R8.s:94552  .debug_str:0000000000019794 .LASF8039
     /tmp/ccJdQ6R8.s:93518  .debug_str:0000000000015415 .LASF8040
     /tmp/ccJdQ6R8.s:102506  .debug_str:0000000000039bfe .LASF8041
     /tmp/ccJdQ6R8.s:106180  .debug_str:00000000000490a1 .LASF8042
     /tmp/ccJdQ6R8.s:97294  .debug_str:0000000000024d86 .LASF8043
     /tmp/ccJdQ6R8.s:91296  .debug_str:000000000000cb83 .LASF8044
     /tmp/ccJdQ6R8.s:100494  .debug_str:0000000000031f7e .LASF8045
     /tmp/ccJdQ6R8.s:98538  .debug_str:0000000000029fbe .LASF8046
     /tmp/ccJdQ6R8.s:98952  .debug_str:000000000002baaa .LASF8047
     /tmp/ccJdQ6R8.s:103038  .debug_str:000000000003c084 .LASF8048
     /tmp/ccJdQ6R8.s:101410  .debug_str:0000000000035b25 .LASF8049
     /tmp/ccJdQ6R8.s:97080  .debug_str:00000000000243cb .LASF8050
     /tmp/ccJdQ6R8.s:97646  .debug_str:000000000002647b .LASF8051
     /tmp/ccJdQ6R8.s:99894  .debug_str:000000000002f7bb .LASF8052
     /tmp/ccJdQ6R8.s:90602  .debug_str:0000000000009b91 .LASF8053
     /tmp/ccJdQ6R8.s:101896  .debug_str:00000000000376e8 .LASF8054
     /tmp/ccJdQ6R8.s:93072  .debug_str:00000000000137fd .LASF8055
     /tmp/ccJdQ6R8.s:93380  .debug_str:0000000000014ac0 .LASF8056
     /tmp/ccJdQ6R8.s:95144  .debug_str:000000000001c13d .LASF8057
     /tmp/ccJdQ6R8.s:94680  .debug_str:000000000001a17e .LASF8058
     /tmp/ccJdQ6R8.s:94984  .debug_str:000000000001b5f5 .LASF8059
     /tmp/ccJdQ6R8.s:90006  .debug_str:00000000000073df .LASF8060
     /tmp/ccJdQ6R8.s:92044  .debug_str:000000000000f772 .LASF8061
     /tmp/ccJdQ6R8.s:105322  .debug_str:00000000000456fa .LASF8062
     /tmp/ccJdQ6R8.s:92558  .debug_str:00000000000116b9 .LASF8063
     /tmp/ccJdQ6R8.s:93668  .debug_str:0000000000015d0f .LASF8064
     /tmp/ccJdQ6R8.s:96048  .debug_str:0000000000020101 .LASF8065
     /tmp/ccJdQ6R8.s:93050  .debug_str:00000000000136de .LASF8066
     /tmp/ccJdQ6R8.s:90236  .debug_str:00000000000082d0 .LASF8067
     /tmp/ccJdQ6R8.s:98552  .debug_str:000000000002a04c .LASF8068
     /tmp/ccJdQ6R8.s:100234  .debug_str:0000000000030d7e .LASF8069
     /tmp/ccJdQ6R8.s:107232  .debug_str:000000000004d9cc .LASF8070
     /tmp/ccJdQ6R8.s:89090  .debug_str:00000000000034e8 .LASF8071
     /tmp/ccJdQ6R8.s:97986  .debug_str:0000000000027bfb .LASF8072
     /tmp/ccJdQ6R8.s:106636  .debug_str:000000000004afc7 .LASF8073
     /tmp/ccJdQ6R8.s:89840  .debug_str:0000000000006874 .LASF8074
     /tmp/ccJdQ6R8.s:97884  .debug_str:00000000000274e3 .LASF8075
     /tmp/ccJdQ6R8.s:91086  .debug_str:000000000000bd39 .LASF8076
     /tmp/ccJdQ6R8.s:100788  .debug_str:000000000003320f .LASF8077
     /tmp/ccJdQ6R8.s:99196  .debug_str:000000000002c9b1 .LASF8078
     /tmp/ccJdQ6R8.s:95770  .debug_str:000000000001ed38 .LASF8079
     /tmp/ccJdQ6R8.s:105296  .debug_str:00000000000454e9 .LASF8080
     /tmp/ccJdQ6R8.s:103542  .debug_str:000000000003e13e .LASF8081
     /tmp/ccJdQ6R8.s:106318  .debug_str:0000000000049a2c .LASF8082
     /tmp/ccJdQ6R8.s:99924  .debug_str:000000000002f9a7 .LASF8083
     /tmp/ccJdQ6R8.s:94096  .debug_str:00000000000179eb .LASF8084
     /tmp/ccJdQ6R8.s:92236  .debug_str:0000000000010209 .LASF8085
     /tmp/ccJdQ6R8.s:95890  .debug_str:000000000001f5a3 .LASF8086
     /tmp/ccJdQ6R8.s:102640  .debug_str:000000000003a5af .LASF8087
     /tmp/ccJdQ6R8.s:95348  .debug_str:000000000001cf68 .LASF8088
     /tmp/ccJdQ6R8.s:91078  .debug_str:000000000000bc9b .LASF8089
     /tmp/ccJdQ6R8.s:93730  .debug_str:00000000000160da .LASF8090
     /tmp/ccJdQ6R8.s:104078  .debug_str:00000000000406ec .LASF8091
     /tmp/ccJdQ6R8.s:97266  .debug_str:0000000000024cf6 .LASF8092
     /tmp/ccJdQ6R8.s:89220  .debug_str:0000000000003def .LASF8093
     /tmp/ccJdQ6R8.s:94512  .debug_str:0000000000019477 .LASF8094
     /tmp/ccJdQ6R8.s:106748  .debug_str:000000000004b8ea .LASF8095
     /tmp/ccJdQ6R8.s:89114  .debug_str:0000000000003690 .LASF8096
     /tmp/ccJdQ6R8.s:98656  .debug_str:000000000002a7b3 .LASF8097
     /tmp/ccJdQ6R8.s:91816  .debug_str:000000000000e980 .LASF8098
     /tmp/ccJdQ6R8.s:100096  .debug_str:0000000000030486 .LASF8099
     /tmp/ccJdQ6R8.s:101384  .debug_str:00000000000359ca .LASF8100
     /tmp/ccJdQ6R8.s:104730  .debug_str:00000000000431c2 .LASF8101
     /tmp/ccJdQ6R8.s:94044  .debug_str:0000000000017645 .LASF8102
     /tmp/ccJdQ6R8.s:101392  .debug_str:0000000000035a2f .LASF8103
     /tmp/ccJdQ6R8.s:104738  .debug_str:0000000000043239 .LASF8104
     /tmp/ccJdQ6R8.s:104930  .debug_str:0000000000043e5a .LASF8105
     /tmp/ccJdQ6R8.s:103574  .debug_str:000000000003e34b .LASF8106
     /tmp/ccJdQ6R8.s:99998  .debug_str:000000000002fe1a .LASF8107
     /tmp/ccJdQ6R8.s:98172  .debug_str:000000000002885e .LASF8108
     /tmp/ccJdQ6R8.s:106184  .debug_str:00000000000490df .LASF8109
     /tmp/ccJdQ6R8.s:102480  .debug_str:0000000000039a90 .LASF8110
     /tmp/ccJdQ6R8.s:97702  .debug_str:00000000000268c1 .LASF8111
     /tmp/ccJdQ6R8.s:99882  .debug_str:000000000002f713 .LASF8112
     /tmp/ccJdQ6R8.s:100278  .debug_str:00000000000310f9 .LASF8113
     /tmp/ccJdQ6R8.s:99216  .debug_str:000000000002cb23 .LASF8114
     /tmp/ccJdQ6R8.s:106226  .debug_str:0000000000049408 .LASF8115
     /tmp/ccJdQ6R8.s:105734  .debug_str:00000000000472cd .LASF8116
     /tmp/ccJdQ6R8.s:104528  .debug_str:00000000000424ae .LASF8117
     /tmp/ccJdQ6R8.s:106680  .debug_str:000000000004b39e .LASF8118
     /tmp/ccJdQ6R8.s:102034  .debug_str:0000000000037d9f .LASF8119
     /tmp/ccJdQ6R8.s:101538  .debug_str:00000000000362c3 .LASF8120
     /tmp/ccJdQ6R8.s:92410  .debug_str:0000000000010d1f .LASF8121
     /tmp/ccJdQ6R8.s:97240  .debug_str:0000000000024b69 .LASF8122
     /tmp/ccJdQ6R8.s:88946  .debug_str:0000000000002b25 .LASF8123
     /tmp/ccJdQ6R8.s:91644  .debug_str:000000000000e15a .LASF8124
     /tmp/ccJdQ6R8.s:94466  .debug_str:0000000000019186 .LASF8125
     /tmp/ccJdQ6R8.s:96686  .debug_str:0000000000022b0f .LASF8126
     /tmp/ccJdQ6R8.s:102990  .debug_str:000000000003bcdb .LASF8127
     /tmp/ccJdQ6R8.s:97626  .debug_str:00000000000262fc .LASF8128
     /tmp/ccJdQ6R8.s:101078  .debug_str:0000000000034614 .LASF8129
     /tmp/ccJdQ6R8.s:106344  .debug_str:0000000000049bc1 .LASF8130
     /tmp/ccJdQ6R8.s:100984  .debug_str:0000000000033f94 .LASF8131
     /tmp/ccJdQ6R8.s:93420  .debug_str:0000000000014d27 .LASF8132
     /tmp/ccJdQ6R8.s:96908  .debug_str:00000000000239f9 .LASF8133
     /tmp/ccJdQ6R8.s:97948  .debug_str:00000000000279b5 .LASF8134
     /tmp/ccJdQ6R8.s:98026  .debug_str:0000000000027ee0 .LASF8135
     /tmp/ccJdQ6R8.s:91740  .debug_str:000000000000e64d .LASF8136
     /tmp/ccJdQ6R8.s:98332  .debug_str:00000000000292f3 .LASF8137
     /tmp/ccJdQ6R8.s:106836  .debug_str:000000000004befb .LASF8138
     /tmp/ccJdQ6R8.s:93406  .debug_str:0000000000014c44 .LASF8139
     /tmp/ccJdQ6R8.s:93364  .debug_str:000000000001497b .LASF8140
     /tmp/ccJdQ6R8.s:96590  .debug_str:000000000002240e .LASF8141
     /tmp/ccJdQ6R8.s:90302  .debug_str:00000000000086fc .LASF8142
     /tmp/ccJdQ6R8.s:94588  .debug_str:0000000000019a88 .LASF8143
     /tmp/ccJdQ6R8.s:95110  .debug_str:000000000001bf2a .LASF8144
     /tmp/ccJdQ6R8.s:106914  .debug_str:000000000004c4bd .LASF8145
     /tmp/ccJdQ6R8.s:90610  .debug_str:0000000000009c0e .LASF8146
     /tmp/ccJdQ6R8.s:104662  .debug_str:0000000000042d90 .LASF8147
     /tmp/ccJdQ6R8.s:94312  .debug_str:000000000001873f .LASF8148
     /tmp/ccJdQ6R8.s:104624  .debug_str:0000000000042b46 .LASF8149
     /tmp/ccJdQ6R8.s:105636  .debug_str:0000000000046bea .LASF8150
     /tmp/ccJdQ6R8.s:99726  .debug_str:000000000002ec06 .LASF8151
     /tmp/ccJdQ6R8.s:93018  .debug_str:000000000001348c .LASF8152
     /tmp/ccJdQ6R8.s:90744  .debug_str:000000000000a4d2 .LASF8153
     /tmp/ccJdQ6R8.s:92944  .debug_str:000000000001301a .LASF8154
     /tmp/ccJdQ6R8.s:104098  .debug_str:0000000000040856 .LASF8155
     /tmp/ccJdQ6R8.s:99380  .debug_str:000000000002d4c6 .LASF8156
     /tmp/ccJdQ6R8.s:96058  .debug_str:00000000000201b5 .LASF8157
     /tmp/ccJdQ6R8.s:100470  .debug_str:0000000000031ddd .LASF8158
     /tmp/ccJdQ6R8.s:106342  .debug_str:0000000000049ba2 .LASF8159
     /tmp/ccJdQ6R8.s:101160  .debug_str:0000000000034b4a .LASF8160
     /tmp/ccJdQ6R8.s:106386  .debug_str:0000000000049e86 .LASF8161
     /tmp/ccJdQ6R8.s:106690  .debug_str:000000000004b485 .LASF8162
     /tmp/ccJdQ6R8.s:91298  .debug_str:000000000000cb93 .LASF8163
     /tmp/ccJdQ6R8.s:99446  .debug_str:000000000002d982 .LASF8164
     /tmp/ccJdQ6R8.s:103232  .debug_str:000000000003cdd6 .LASF8165
     /tmp/ccJdQ6R8.s:101632  .debug_str:00000000000368bf .LASF8166
     /tmp/ccJdQ6R8.s:89708  .debug_str:0000000000005f82 .LASF8167
     /tmp/ccJdQ6R8.s:106278  .debug_str:000000000004976c .LASF8168
     /tmp/ccJdQ6R8.s:90336  .debug_str:000000000000898a .LASF8169
     /tmp/ccJdQ6R8.s:105012  .debug_str:0000000000044350 .LASF8170
     /tmp/ccJdQ6R8.s:96548  .debug_str:00000000000221b0 .LASF8171
     /tmp/ccJdQ6R8.s:99366  .debug_str:000000000002d405 .LASF8172
     /tmp/ccJdQ6R8.s:94906  .debug_str:000000000001b0b3 .LASF8173
     /tmp/ccJdQ6R8.s:104532  .debug_str:00000000000424de .LASF8174
     /tmp/ccJdQ6R8.s:106418  .debug_str:000000000004a08d .LASF8175
     /tmp/ccJdQ6R8.s:102150  .debug_str:00000000000383be .LASF8176
     /tmp/ccJdQ6R8.s:100236  .debug_str:0000000000030da0 .LASF8177
     /tmp/ccJdQ6R8.s:104518  .debug_str:000000000004243e .LASF8178
     /tmp/ccJdQ6R8.s:98832  .debug_str:000000000002b25f .LASF8179
     /tmp/ccJdQ6R8.s:94150  .debug_str:0000000000017d34 .LASF8180
     /tmp/ccJdQ6R8.s:92592  .debug_str:0000000000011935 .LASF8181
     /tmp/ccJdQ6R8.s:96954  .debug_str:0000000000023c17 .LASF8182
     /tmp/ccJdQ6R8.s:91350  .debug_str:000000000000cefb .LASF8183
     /tmp/ccJdQ6R8.s:98436  .debug_str:0000000000029953 .LASF8184
     /tmp/ccJdQ6R8.s:94012  .debug_str:0000000000017481 .LASF8185
     /tmp/ccJdQ6R8.s:91364  .debug_str:000000000000d003 .LASF8186
     /tmp/ccJdQ6R8.s:103014  .debug_str:000000000003bee2 .LASF8187
     /tmp/ccJdQ6R8.s:95030  .debug_str:000000000001b94f .LASF8188
     /tmp/ccJdQ6R8.s:105862  .debug_str:0000000000047acf .LASF8189
     /tmp/ccJdQ6R8.s:103256  .debug_str:000000000003cf5d .LASF8190
     /tmp/ccJdQ6R8.s:95172  .debug_str:000000000001c320 .LASF8191
     /tmp/ccJdQ6R8.s:106332  .debug_str:0000000000049afe .LASF8192
     /tmp/ccJdQ6R8.s:90354  .debug_str:0000000000008ac2 .LASF8193
     /tmp/ccJdQ6R8.s:96428  .debug_str:00000000000219ab .LASF8194
     /tmp/ccJdQ6R8.s:102050  .debug_str:0000000000037ec0 .LASF8195
     /tmp/ccJdQ6R8.s:103812  .debug_str:000000000003f488 .LASF8196
     /tmp/ccJdQ6R8.s:92214  .debug_str:00000000000100c7 .LASF8197
     /tmp/ccJdQ6R8.s:101700  .debug_str:0000000000036c73 .LASF8198
     /tmp/ccJdQ6R8.s:89086  .debug_str:00000000000034aa .LASF8199
     /tmp/ccJdQ6R8.s:98778  .debug_str:000000000002af28 .LASF8200
     /tmp/ccJdQ6R8.s:106462  .debug_str:000000000004a3a0 .LASF8201
     /tmp/ccJdQ6R8.s:103168  .debug_str:000000000003c953 .LASF8202
     /tmp/ccJdQ6R8.s:101406  .debug_str:0000000000035aff .LASF8203
     /tmp/ccJdQ6R8.s:106054  .debug_str:000000000004871e .LASF8204
     /tmp/ccJdQ6R8.s:92458  .debug_str:0000000000010f5e .LASF8205
     /tmp/ccJdQ6R8.s:90242  .debug_str:0000000000008301 .LASF8206
     /tmp/ccJdQ6R8.s:103644  .debug_str:000000000003e75f .LASF8207
     /tmp/ccJdQ6R8.s:91382  .debug_str:000000000000d12c .LASF8208
     /tmp/ccJdQ6R8.s:106844  .debug_str:000000000004bf9c .LASF8209
     /tmp/ccJdQ6R8.s:93598  .debug_str:0000000000015858 .LASF8210
     /tmp/ccJdQ6R8.s:90460  .debug_str:0000000000009197 .LASF8211
     /tmp/ccJdQ6R8.s:97882  .debug_str:00000000000274d2 .LASF8212
     /tmp/ccJdQ6R8.s:90352  .debug_str:0000000000008a9d .LASF8213
     /tmp/ccJdQ6R8.s:94328  .debug_str:000000000001881a .LASF8214
     /tmp/ccJdQ6R8.s:90850  .debug_str:000000000000ac7a .LASF8215
     /tmp/ccJdQ6R8.s:93464  .debug_str:000000000001500e .LASF8216
     /tmp/ccJdQ6R8.s:94040  .debug_str:000000000001760e .LASF8217
     /tmp/ccJdQ6R8.s:90852  .debug_str:000000000000ac8c .LASF8218
     /tmp/ccJdQ6R8.s:106368  .debug_str:0000000000049d44 .LASF8219
     /tmp/ccJdQ6R8.s:91346  .debug_str:000000000000ced7 .LASF8220
     /tmp/ccJdQ6R8.s:93648  .debug_str:0000000000015bbb .LASF8221
     /tmp/ccJdQ6R8.s:91128  .debug_str:000000000000bfaf .LASF8222
     /tmp/ccJdQ6R8.s:95450  .debug_str:000000000001d699 .LASF8223
     /tmp/ccJdQ6R8.s:102694  .debug_str:000000000003a980 .LASF8224
     /tmp/ccJdQ6R8.s:100894  .debug_str:00000000000338e7 .LASF8225
     /tmp/ccJdQ6R8.s:98670  .debug_str:000000000002a824 .LASF8226
     /tmp/ccJdQ6R8.s:93998  .debug_str:00000000000173fc .LASF8227
     /tmp/ccJdQ6R8.s:101816  .debug_str:000000000003733b .LASF8228
     /tmp/ccJdQ6R8.s:99064  .debug_str:000000000002c0f6 .LASF8229
     /tmp/ccJdQ6R8.s:96320  .debug_str:00000000000212f3 .LASF8230
     /tmp/ccJdQ6R8.s:103988  .debug_str:000000000004003c .LASF8231
     /tmp/ccJdQ6R8.s:89452  .debug_str:0000000000004e49 .LASF8232
     /tmp/ccJdQ6R8.s:101166  .debug_str:0000000000034ba1 .LASF8233
     /tmp/ccJdQ6R8.s:105618  .debug_str:0000000000046a72 .LASF8234
     /tmp/ccJdQ6R8.s:95722  .debug_str:000000000001e995 .LASF8235
     /tmp/ccJdQ6R8.s:99494  .debug_str:000000000002dc23 .LASF8236
     /tmp/ccJdQ6R8.s:89984  .debug_str:0000000000007241 .LASF8237
     /tmp/ccJdQ6R8.s:97998  .debug_str:0000000000027ccb .LASF8238
     /tmp/ccJdQ6R8.s:106362  .debug_str:0000000000049cc7 .LASF8239
     /tmp/ccJdQ6R8.s:104646  .debug_str:0000000000042c68 .LASF8240
     /tmp/ccJdQ6R8.s:97060  .debug_str:000000000002429e .LASF8241
     /tmp/ccJdQ6R8.s:98636  .debug_str:000000000002a63d .LASF8242
     /tmp/ccJdQ6R8.s:91314  .debug_str:000000000000ccca .LASF8243
     /tmp/ccJdQ6R8.s:94836  .debug_str:000000000001ab8d .LASF8244
     /tmp/ccJdQ6R8.s:93798  .debug_str:0000000000016593 .LASF8245
     /tmp/ccJdQ6R8.s:101346  .debug_str:000000000003571f .LASF8246
     /tmp/ccJdQ6R8.s:101274  .debug_str:00000000000352fc .LASF8247
     /tmp/ccJdQ6R8.s:104184  .debug_str:0000000000040d09 .LASF8248
     /tmp/ccJdQ6R8.s:92610  .debug_str:0000000000011a8f .LASF8249
     /tmp/ccJdQ6R8.s:88940  .debug_str:0000000000002ad2 .LASF8250
     /tmp/ccJdQ6R8.s:95938  .debug_str:000000000001f958 .LASF8251
     /tmp/ccJdQ6R8.s:95152  .debug_str:000000000001c1d9 .LASF8252
     /tmp/ccJdQ6R8.s:99556  .debug_str:000000000002e12a .LASF8253
     /tmp/ccJdQ6R8.s:103494  .debug_str:000000000003de60 .LASF8254
     /tmp/ccJdQ6R8.s:106500  .debug_str:000000000004a692 .LASF8255
     /tmp/ccJdQ6R8.s:102232  .debug_str:0000000000038946 .LASF8256
     /tmp/ccJdQ6R8.s:102014  .debug_str:0000000000037c3e .LASF8257
     /tmp/ccJdQ6R8.s:103668  .debug_str:000000000003e94e .LASF8258
     /tmp/ccJdQ6R8.s:105992  .debug_str:000000000004832a .LASF8259
     /tmp/ccJdQ6R8.s:94950  .debug_str:000000000001b3d9 .LASF8260
     /tmp/ccJdQ6R8.s:102122  .debug_str:0000000000038256 .LASF8261
     /tmp/ccJdQ6R8.s:89460  .debug_str:0000000000004e95 .LASF8262
     /tmp/ccJdQ6R8.s:103186  .debug_str:000000000003ca76 .LASF8263
     /tmp/ccJdQ6R8.s:97230  .debug_str:0000000000024ab3 .LASF8264
     /tmp/ccJdQ6R8.s:94796  .debug_str:000000000001a914 .LASF8265
     /tmp/ccJdQ6R8.s:92982  .debug_str:0000000000013263 .LASF8266
     /tmp/ccJdQ6R8.s:93890  .debug_str:0000000000016bdf .LASF8267
     /tmp/ccJdQ6R8.s:100252  .debug_str:0000000000030f47 .LASF8268
     /tmp/ccJdQ6R8.s:98734  .debug_str:000000000002ac44 .LASF8269
     /tmp/ccJdQ6R8.s:97804  .debug_str:0000000000026fbf .LASF8270
     /tmp/ccJdQ6R8.s:94456  .debug_str:0000000000019101 .LASF8271
     /tmp/ccJdQ6R8.s:95776  .debug_str:000000000001ed6d .LASF8272
     /tmp/ccJdQ6R8.s:102514  .debug_str:0000000000039c4b .LASF8273
     /tmp/ccJdQ6R8.s:102248  .debug_str:0000000000038a41 .LASF8274
     /tmp/ccJdQ6R8.s:91504  .debug_str:000000000000d83b .LASF8275
     /tmp/ccJdQ6R8.s:102382  .debug_str:0000000000039374 .LASF8276
     /tmp/ccJdQ6R8.s:91396  .debug_str:000000000000d21f .LASF8277
     /tmp/ccJdQ6R8.s:90814  .debug_str:000000000000a995 .LASF8278
     /tmp/ccJdQ6R8.s:98500  .debug_str:0000000000029da6 .LASF8279
     /tmp/ccJdQ6R8.s:105752  .debug_str:00000000000473fb .LASF8280
     /tmp/ccJdQ6R8.s:90474  .debug_str:00000000000092ab .LASF8281
     /tmp/ccJdQ6R8.s:105530  .debug_str:000000000004646d .LASF8282
     /tmp/ccJdQ6R8.s:105776  .debug_str:0000000000047596 .LASF8283
     /tmp/ccJdQ6R8.s:90498  .debug_str:000000000000949c .LASF8284
     /tmp/ccJdQ6R8.s:105218  .debug_str:0000000000044fd8 .LASF8285
     /tmp/ccJdQ6R8.s:89198  .debug_str:0000000000003c4d .LASF8286
     /tmp/ccJdQ6R8.s:98056  .debug_str:0000000000028156 .LASF8287
     /tmp/ccJdQ6R8.s:101966  .debug_str:0000000000037a47 .LASF8288
     /tmp/ccJdQ6R8.s:91248  .debug_str:000000000000c814 .LASF8289
     /tmp/ccJdQ6R8.s:103414  .debug_str:000000000003d911 .LASF8290
     /tmp/ccJdQ6R8.s:104622  .debug_str:0000000000042b1d .LASF8291
     /tmp/ccJdQ6R8.s:98930  .debug_str:000000000002b8f0 .LASF8292
     /tmp/ccJdQ6R8.s:104328  .debug_str:00000000000417ec .LASF8293
     /tmp/ccJdQ6R8.s:88544  .debug_str:0000000000000e7f .LASF8294
     /tmp/ccJdQ6R8.s:93634  .debug_str:0000000000015a73 .LASF8295
     /tmp/ccJdQ6R8.s:90816  .debug_str:000000000000a9ba .LASF8296
     /tmp/ccJdQ6R8.s:94262  .debug_str:0000000000018347 .LASF8297
     /tmp/ccJdQ6R8.s:99516  .debug_str:000000000002ddd2 .LASF8298
     /tmp/ccJdQ6R8.s:89462  .debug_str:0000000000004ea9 .LASF8299
     /tmp/ccJdQ6R8.s:90788  .debug_str:000000000000a7f3 .LASF8300
     /tmp/ccJdQ6R8.s:101482  .debug_str:0000000000036004 .LASF8301
     /tmp/ccJdQ6R8.s:88968  .debug_str:0000000000002ca4 .LASF8302
     /tmp/ccJdQ6R8.s:94036  .debug_str:00000000000175cd .LASF8303
     /tmp/ccJdQ6R8.s:101230  .debug_str:000000000003500f .LASF8304
     /tmp/ccJdQ6R8.s:99762  .debug_str:000000000002ee73 .LASF8305
     /tmp/ccJdQ6R8.s:90108  .debug_str:0000000000007a08 .LASF8306
     /tmp/ccJdQ6R8.s:106770  .debug_str:000000000004ba6a .LASF8307
     /tmp/ccJdQ6R8.s:97824  .debug_str:0000000000027111 .LASF8308
     /tmp/ccJdQ6R8.s:90586  .debug_str:0000000000009a4a .LASF8309
     /tmp/ccJdQ6R8.s:100288  .debug_str:0000000000031182 .LASF8310
     /tmp/ccJdQ6R8.s:106426  .debug_str:000000000004a125 .LASF8311
     /tmp/ccJdQ6R8.s:99280  .debug_str:000000000002cf1b .LASF8312
     /tmp/ccJdQ6R8.s:96324  .debug_str:000000000002132f .LASF8313
     /tmp/ccJdQ6R8.s:106610  .debug_str:000000000004ad5a .LASF8314
     /tmp/ccJdQ6R8.s:88668  .debug_str:00000000000016e7 .LASF8315
     /tmp/ccJdQ6R8.s:89490  .debug_str:0000000000005066 .LASF8316
     /tmp/ccJdQ6R8.s:106424  .debug_str:000000000004a118 .LASF8317
     /tmp/ccJdQ6R8.s:102568  .debug_str:000000000003a028 .LASF8318
     /tmp/ccJdQ6R8.s:100992  .debug_str:0000000000033fee .LASF8319
     /tmp/ccJdQ6R8.s:101124  .debug_str:00000000000348f0 .LASF8320
     /tmp/ccJdQ6R8.s:96090  .debug_str:000000000002037b .LASF8321
     /tmp/ccJdQ6R8.s:103122  .debug_str:000000000003c689 .LASF8322
     /tmp/ccJdQ6R8.s:93956  .debug_str:00000000000170cf .LASF8323
     /tmp/ccJdQ6R8.s:91838  .debug_str:000000000000eb5c .LASF8324
     /tmp/ccJdQ6R8.s:99630  .debug_str:000000000002e5dd .LASF8325
     /tmp/ccJdQ6R8.s:90112  .debug_str:0000000000007a46 .LASF8326
     /tmp/ccJdQ6R8.s:90618  .debug_str:0000000000009cc5 .LASF8327
     /tmp/ccJdQ6R8.s:92518  .debug_str:00000000000113ee .LASF8328
     /tmp/ccJdQ6R8.s:105938  .debug_str:0000000000047f9c .LASF8329
     /tmp/ccJdQ6R8.s:94928  .debug_str:000000000001b20d .LASF8330
     /tmp/ccJdQ6R8.s:101238  .debug_str:0000000000035094 .LASF8331
     /tmp/ccJdQ6R8.s:94286  .debug_str:000000000001854d .LASF8332
     /tmp/ccJdQ6R8.s:97900  .debug_str:000000000002760d .LASF8333
     /tmp/ccJdQ6R8.s:96594  .debug_str:0000000000022473 .LASF8334
     /tmp/ccJdQ6R8.s:103840  .debug_str:000000000003f6a8 .LASF8335
     /tmp/ccJdQ6R8.s:107062  .debug_str:000000000004cdd1 .LASF8336
     /tmp/ccJdQ6R8.s:104448  .debug_str:0000000000041f3e .LASF8337
     /tmp/ccJdQ6R8.s:94752  .debug_str:000000000001a660 .LASF8338
     /tmp/ccJdQ6R8.s:100200  .debug_str:0000000000030ad9 .LASF8339
     /tmp/ccJdQ6R8.s:91596  .debug_str:000000000000de71 .LASF8340
     /tmp/ccJdQ6R8.s:107024  .debug_str:000000000004cb68 .LASF8341
     /tmp/ccJdQ6R8.s:99334  .debug_str:000000000002d25e .LASF8342
     /tmp/ccJdQ6R8.s:103150  .debug_str:000000000003c851 .LASF8343
     /tmp/ccJdQ6R8.s:106314  .debug_str:0000000000049a00 .LASF8344
     /tmp/ccJdQ6R8.s:91796  .debug_str:000000000000e84d .LASF8345
     /tmp/ccJdQ6R8.s:92206  .debug_str:000000000001006a .LASF8346
     /tmp/ccJdQ6R8.s:102610  .debug_str:000000000003a362 .LASF8347
     /tmp/ccJdQ6R8.s:102406  .debug_str:0000000000039520 .LASF8348
     /tmp/ccJdQ6R8.s:92208  .debug_str:000000000001007a .LASF8349
     /tmp/ccJdQ6R8.s:102612  .debug_str:000000000003a372 .LASF8350
     /tmp/ccJdQ6R8.s:89500  .debug_str:0000000000005119 .LASF8351
     /tmp/ccJdQ6R8.s:93758  .debug_str:000000000001634d .LASF8352
     /tmp/ccJdQ6R8.s:95302  .debug_str:000000000001cbd2 .LASF8353
     /tmp/ccJdQ6R8.s:99874  .debug_str:000000000002f668 .LASF8354
     /tmp/ccJdQ6R8.s:102750  .debug_str:000000000003ad47 .LASF8355
     /tmp/ccJdQ6R8.s:97826  .debug_str:0000000000027123 .LASF8356
     /tmp/ccJdQ6R8.s:102982  .debug_str:000000000003bc7c .LASF8357
     /tmp/ccJdQ6R8.s:102752  .debug_str:000000000003ad57 .LASF8358
     /tmp/ccJdQ6R8.s:94066  .debug_str:00000000000177a6 .LASF8359
     /tmp/ccJdQ6R8.s:96944  .debug_str:0000000000023b2a .LASF8360
     /tmp/ccJdQ6R8.s:102754  .debug_str:000000000003ad67 .LASF8361
     /tmp/ccJdQ6R8.s:94068  .debug_str:00000000000177b6 .LASF8362
     /tmp/ccJdQ6R8.s:99500  .debug_str:000000000002dcd6 .LASF8363
     /tmp/ccJdQ6R8.s:103752  .debug_str:000000000003efcd .LASF8364
     /tmp/ccJdQ6R8.s:94070  .debug_str:00000000000177c6 .LASF8365
     /tmp/ccJdQ6R8.s:103894  .debug_str:000000000003f9fb .LASF8366
     /tmp/ccJdQ6R8.s:96180  .debug_str:0000000000020a05 .LASF8367
     /tmp/ccJdQ6R8.s:99336  .debug_str:000000000002d27f .LASF8368
     /tmp/ccJdQ6R8.s:102746  .debug_str:000000000003ad0e .LASF8369
     /tmp/ccJdQ6R8.s:93438  .debug_str:0000000000014e07 .LASF8370
     /tmp/ccJdQ6R8.s:102748  .debug_str:000000000003ad37 .LASF8371
     /tmp/ccJdQ6R8.s:93194  .debug_str:0000000000013f9b .LASF8372
     /tmp/ccJdQ6R8.s:89290  .debug_str:0000000000004340 .LASF8373
     /tmp/ccJdQ6R8.s:91150  .debug_str:000000000000c18b .LASF8374
     /tmp/ccJdQ6R8.s:106480  .debug_str:000000000004a546 .LASF8375
     /tmp/ccJdQ6R8.s:89292  .debug_str:0000000000004356 .LASF8376
     /tmp/ccJdQ6R8.s:91152  .debug_str:000000000000c1a1 .LASF8377
     /tmp/ccJdQ6R8.s:99514  .debug_str:000000000002dda8 .LASF8378
     /tmp/ccJdQ6R8.s:89294  .debug_str:000000000000436c .LASF8379
     /tmp/ccJdQ6R8.s:91154  .debug_str:000000000000c1b7 .LASF8380
     /tmp/ccJdQ6R8.s:93450  .debug_str:0000000000014f06 .LASF8381
     /tmp/ccJdQ6R8.s:105420  .debug_str:0000000000045d7f .LASF8382
     /tmp/ccJdQ6R8.s:91156  .debug_str:000000000000c1cd .LASF8383
     /tmp/ccJdQ6R8.s:106352  .debug_str:0000000000049c4c .LASF8384
     /tmp/ccJdQ6R8.s:89298  .debug_str:0000000000004394 .LASF8385
     /tmp/ccJdQ6R8.s:91158  .debug_str:000000000000c1e3 .LASF8386
     /tmp/ccJdQ6R8.s:100610  .debug_str:0000000000032678 .LASF8387
     /tmp/ccJdQ6R8.s:89300  .debug_str:00000000000043aa .LASF8388
     /tmp/ccJdQ6R8.s:91160  .debug_str:000000000000c1f9 .LASF8389
     /tmp/ccJdQ6R8.s:94566  .debug_str:0000000000019888 .LASF8390
     /tmp/ccJdQ6R8.s:89302  .debug_str:00000000000043c0 .LASF8391
     /tmp/ccJdQ6R8.s:91162  .debug_str:000000000000c20f .LASF8392
     /tmp/ccJdQ6R8.s:88556  .debug_str:0000000000000f3e .LASF8393
     /tmp/ccJdQ6R8.s:89304  .debug_str:00000000000043d6 .LASF8394
     /tmp/ccJdQ6R8.s:91164  .debug_str:000000000000c225 .LASF8395
     /tmp/ccJdQ6R8.s:101540  .debug_str:00000000000362e9 .LASF8396
     /tmp/ccJdQ6R8.s:95670  .debug_str:000000000001e604 .LASF8397
     /tmp/ccJdQ6R8.s:99242  .debug_str:000000000002ccd7 .LASF8398
     /tmp/ccJdQ6R8.s:102846  .debug_str:000000000003b39d .LASF8399
     /tmp/ccJdQ6R8.s:93098  .debug_str:00000000000139df .LASF8400
     /tmp/ccJdQ6R8.s:101978  .debug_str:0000000000037ae6 .LASF8401
     /tmp/ccJdQ6R8.s:96822  .debug_str:00000000000233f1 .LASF8402
     /tmp/ccJdQ6R8.s:94612  .debug_str:0000000000019bf6 .LASF8403
     /tmp/ccJdQ6R8.s:90226  .debug_str:000000000000824c .LASF8404
     /tmp/ccJdQ6R8.s:97126  .debug_str:0000000000024599 .LASF8405
     /tmp/ccJdQ6R8.s:96002  .debug_str:000000000001fe51 .LASF8406
     /tmp/ccJdQ6R8.s:100708  .debug_str:0000000000032d26 .LASF8407
     /tmp/ccJdQ6R8.s:105990  .debug_str:00000000000482ff .LASF8408
     /tmp/ccJdQ6R8.s:103352  .debug_str:000000000003d536 .LASF8409
     /tmp/ccJdQ6R8.s:97752  .debug_str:0000000000026c6e .LASF8410
     /tmp/ccJdQ6R8.s:102204  .debug_str:0000000000038778 .LASF8411
     /tmp/ccJdQ6R8.s:104432  .debug_str:0000000000041e33 .LASF8412
     /tmp/ccJdQ6R8.s:104272  .debug_str:0000000000041365 .LASF8413
     /tmp/ccJdQ6R8.s:94580  .debug_str:00000000000199b4 .LASF8414
     /tmp/ccJdQ6R8.s:96758  .debug_str:0000000000022fa4 .LASF8415
     /tmp/ccJdQ6R8.s:92400  .debug_str:0000000000010c7e .LASF8416
     /tmp/ccJdQ6R8.s:92794  .debug_str:00000000000125d4 .LASF8417
     /tmp/ccJdQ6R8.s:99568  .debug_str:000000000002e22f .LASF8418
     /tmp/ccJdQ6R8.s:92526  .debug_str:0000000000011466 .LASF8419
     /tmp/ccJdQ6R8.s:98762  .debug_str:000000000002ae23 .LASF8420
     /tmp/ccJdQ6R8.s:93270  .debug_str:000000000001438b .LASF8421
     /tmp/ccJdQ6R8.s:92642  .debug_str:0000000000011cb0 .LASF8422
     /tmp/ccJdQ6R8.s:90956  .debug_str:000000000000b46e .LASF8423
     /tmp/ccJdQ6R8.s:104096  .debug_str:000000000004084b .LASF8424
     /tmp/ccJdQ6R8.s:104350  .debug_str:0000000000041956 .LASF8425
     /tmp/ccJdQ6R8.s:98458  .debug_str:0000000000029a6b .LASF8426
     /tmp/ccJdQ6R8.s:102804  .debug_str:000000000003b116 .LASF8427
     /tmp/ccJdQ6R8.s:107070  .debug_str:000000000004ce4e .LASF8428
     /tmp/ccJdQ6R8.s:91126  .debug_str:000000000000bf85 .LASF8429
     /tmp/ccJdQ6R8.s:104108  .debug_str:00000000000408cf .LASF8430
     /tmp/ccJdQ6R8.s:97946  .debug_str:00000000000279a6 .LASF8431
     /tmp/ccJdQ6R8.s:97836  .debug_str:00000000000271b4 .LASF8432
     /tmp/ccJdQ6R8.s:92108  .debug_str:000000000000fa67 .LASF8433
     /tmp/ccJdQ6R8.s:106488  .debug_str:000000000004a5d7 .LASF8434
     /tmp/ccJdQ6R8.s:106474  .debug_str:000000000004a49c .LASF8435
     /tmp/ccJdQ6R8.s:102962  .debug_str:000000000003bb4f .LASF8436
     /tmp/ccJdQ6R8.s:98408  .debug_str:000000000002975b .LASF8437
     /tmp/ccJdQ6R8.s:98492  .debug_str:0000000000029cf7 .LASF8438
     /tmp/ccJdQ6R8.s:100652  .debug_str:0000000000032942 .LASF8439
     /tmp/ccJdQ6R8.s:94008  .debug_str:0000000000017450 .LASF8440
     /tmp/ccJdQ6R8.s:98130  .debug_str:0000000000028530 .LASF8441
     /tmp/ccJdQ6R8.s:92062  .debug_str:000000000000f86f .LASF8442
     /tmp/ccJdQ6R8.s:102880  .debug_str:000000000003b616 .LASF8443
     /tmp/ccJdQ6R8.s:107178  .debug_str:000000000004d614 .LASF8444
     /tmp/ccJdQ6R8.s:103482  .debug_str:000000000003dda6 .LASF8445
     /tmp/ccJdQ6R8.s:90110  .debug_str:0000000000007a2f .LASF8446
     /tmp/ccJdQ6R8.s:98368  .debug_str:000000000002957c .LASF8447
     /tmp/ccJdQ6R8.s:102776  .debug_str:000000000003af0f .LASF8448
     /tmp/ccJdQ6R8.s:89000  .debug_str:0000000000002f91 .LASF8449
     /tmp/ccJdQ6R8.s:89254  .debug_str:0000000000004072 .LASF8450
     /tmp/ccJdQ6R8.s:102778  .debug_str:000000000003af28 .LASF8451
     /tmp/ccJdQ6R8.s:89002  .debug_str:0000000000002faa .LASF8452
     /tmp/ccJdQ6R8.s:95402  .debug_str:000000000001d313 .LASF8453
     /tmp/ccJdQ6R8.s:102780  .debug_str:000000000003af41 .LASF8454
     /tmp/ccJdQ6R8.s:89004  .debug_str:0000000000002fc3 .LASF8455
     /tmp/ccJdQ6R8.s:96278  .debug_str:00000000000210f6 .LASF8456
     /tmp/ccJdQ6R8.s:102782  .debug_str:000000000003af5a .LASF8457
     /tmp/ccJdQ6R8.s:89006  .debug_str:0000000000002fdc .LASF8458
     /tmp/ccJdQ6R8.s:90168  .debug_str:0000000000007dd4 .LASF8459
     /tmp/ccJdQ6R8.s:102784  .debug_str:000000000003af73 .LASF8460
     /tmp/ccJdQ6R8.s:89008  .debug_str:0000000000002ff5 .LASF8461
     /tmp/ccJdQ6R8.s:103182  .debug_str:000000000003ca15 .LASF8462
     /tmp/ccJdQ6R8.s:104776  .debug_str:0000000000043448 .LASF8463
     /tmp/ccJdQ6R8.s:104258  .debug_str:000000000004128d .LASF8464
     /tmp/ccJdQ6R8.s:98852  .debug_str:000000000002b407 .LASF8465
     /tmp/ccJdQ6R8.s:94226  .debug_str:00000000000181bf .LASF8466
     /tmp/ccJdQ6R8.s:96732  .debug_str:0000000000022df3 .LASF8467
     /tmp/ccJdQ6R8.s:96756  .debug_str:0000000000022f83 .LASF8468
     /tmp/ccJdQ6R8.s:98794  .debug_str:000000000002aff2 .LASF8469
     /tmp/ccJdQ6R8.s:92974  .debug_str:00000000000131f6 .LASF8470
     /tmp/ccJdQ6R8.s:96814  .debug_str:0000000000023362 .LASF8471
     /tmp/ccJdQ6R8.s:91458  .debug_str:000000000000d619 .LASF8472
     /tmp/ccJdQ6R8.s:100084  .debug_str:0000000000030394 .LASF8473
     /tmp/ccJdQ6R8.s:100214  .debug_str:0000000000030bda .LASF8474
     /tmp/ccJdQ6R8.s:95068  .debug_str:000000000001bc09 .LASF8475
     /tmp/ccJdQ6R8.s:104886  .debug_str:0000000000043b58 .LASF8476
     /tmp/ccJdQ6R8.s:100552  .debug_str:0000000000032283 .LASF8477
     /tmp/ccJdQ6R8.s:99616  .debug_str:000000000002e511 .LASF8478
     /tmp/ccJdQ6R8.s:93158  .debug_str:0000000000013d4b .LASF8479
     /tmp/ccJdQ6R8.s:96872  .debug_str:00000000000237c8 .LASF8480
     /tmp/ccJdQ6R8.s:94340  .debug_str:00000000000188c1 .LASF8481
     /tmp/ccJdQ6R8.s:93674  .debug_str:0000000000015d3c .LASF8482
     /tmp/ccJdQ6R8.s:103004  .debug_str:000000000003be34 .LASF8483
     /tmp/ccJdQ6R8.s:94236  .debug_str:0000000000018224 .LASF8484
     /tmp/ccJdQ6R8.s:93728  .debug_str:00000000000160c6 .LASF8485
     /tmp/ccJdQ6R8.s:102380  .debug_str:000000000003934c .LASF8486
     /tmp/ccJdQ6R8.s:89248  .debug_str:0000000000003ffe .LASF8487
     /tmp/ccJdQ6R8.s:88922  .debug_str:0000000000002933 .LASF8488
     /tmp/ccJdQ6R8.s:96182  .debug_str:0000000000020a1a .LASF8489
     /tmp/ccJdQ6R8.s:89306  .debug_str:00000000000043ec .LASF8490
     /tmp/ccJdQ6R8.s:99702  .debug_str:000000000002eab3 .LASF8491
     /tmp/ccJdQ6R8.s:106642  .debug_str:000000000004b018 .LASF8492
     /tmp/ccJdQ6R8.s:90148  .debug_str:0000000000007c6e .LASF8493
     /tmp/ccJdQ6R8.s:99018  .debug_str:000000000002be49 .LASF8494
     /tmp/ccJdQ6R8.s:106068  .debug_str:000000000004882e .LASF8495
     /tmp/ccJdQ6R8.s:100758  .debug_str:0000000000032fd3 .LASF8496
     /tmp/ccJdQ6R8.s:105684  .debug_str:0000000000046f35 .LASF8497
     /tmp/ccJdQ6R8.s:98674  .debug_str:000000000002a847 .LASF8498
     /tmp/ccJdQ6R8.s:90026  .debug_str:0000000000007532 .LASF8499
     /tmp/ccJdQ6R8.s:105732  .debug_str:00000000000472ba .LASF8500
     /tmp/ccJdQ6R8.s:95436  .debug_str:000000000001d590 .LASF8501
     /tmp/ccJdQ6R8.s:90028  .debug_str:0000000000007545 .LASF8502
     /tmp/ccJdQ6R8.s:95586  .debug_str:000000000001e045 .LASF8503
     /tmp/ccJdQ6R8.s:105088  .debug_str:0000000000044734 .LASF8504
     /tmp/ccJdQ6R8.s:101004  .debug_str:00000000000340c5 .LASF8505
     /tmp/ccJdQ6R8.s:89558  .debug_str:00000000000055e5 .LASF8506
     /tmp/ccJdQ6R8.s:104034  .debug_str:00000000000403ab .LASF8507
     /tmp/ccJdQ6R8.s:101006  .debug_str:00000000000340d9 .LASF8508
     /tmp/ccJdQ6R8.s:89560  .debug_str:00000000000055f9 .LASF8509
     /tmp/ccJdQ6R8.s:98124  .debug_str:00000000000284ce .LASF8510
     /tmp/ccJdQ6R8.s:101008  .debug_str:00000000000340ed .LASF8511
     /tmp/ccJdQ6R8.s:89562  .debug_str:000000000000560d .LASF8512
     /tmp/ccJdQ6R8.s:92150  .debug_str:000000000000fd2e .LASF8513
     /tmp/ccJdQ6R8.s:101010  .debug_str:0000000000034101 .LASF8514
     /tmp/ccJdQ6R8.s:96282  .debug_str:000000000002112a .LASF8515
     /tmp/ccJdQ6R8.s:91698  .debug_str:000000000000e3bb .LASF8516
     /tmp/ccJdQ6R8.s:101012  .debug_str:0000000000034115 .LASF8517
     /tmp/ccJdQ6R8.s:89566  .debug_str:0000000000005664 .LASF8518
     /tmp/ccJdQ6R8.s:99112  .debug_str:000000000002c3df .LASF8519
     /tmp/ccJdQ6R8.s:93806  .debug_str:0000000000016617 .LASF8520
     /tmp/ccJdQ6R8.s:91090  .debug_str:000000000000bd6b .LASF8521
     /tmp/ccJdQ6R8.s:88918  .debug_str:00000000000028ee .LASF8522
     /tmp/ccJdQ6R8.s:90122  .debug_str:0000000000007ad4 .LASF8523
     /tmp/ccJdQ6R8.s:96730  .debug_str:0000000000022de1 .LASF8524
     /tmp/ccJdQ6R8.s:97260  .debug_str:0000000000024ca2 .LASF8525
     /tmp/ccJdQ6R8.s:90124  .debug_str:0000000000007ae6 .LASF8526
     /tmp/ccJdQ6R8.s:91094  .debug_str:000000000000bd89 .LASF8527
     /tmp/ccJdQ6R8.s:106916  .debug_str:000000000004c4ce .LASF8528
     /tmp/ccJdQ6R8.s:88690  .debug_str:000000000000187e .LASF8529
     /tmp/ccJdQ6R8.s:89656  .debug_str:0000000000005c39 .LASF8530
     /tmp/ccJdQ6R8.s:105518  .debug_str:00000000000463b4 .LASF8531
     /tmp/ccJdQ6R8.s:88692  .debug_str:0000000000001890 .LASF8532
     /tmp/ccJdQ6R8.s:89658  .debug_str:0000000000005c4b .LASF8533
     /tmp/ccJdQ6R8.s:99592  .debug_str:000000000002e358 .LASF8534
     /tmp/ccJdQ6R8.s:104512  .debug_str:00000000000423f2 .LASF8535
     /tmp/ccJdQ6R8.s:89660  .debug_str:0000000000005c5d .LASF8536
     /tmp/ccJdQ6R8.s:93520  .debug_str:0000000000015428 .LASF8537
     /tmp/ccJdQ6R8.s:105678  .debug_str:0000000000046f01 .LASF8538
     /tmp/ccJdQ6R8.s:99582  .debug_str:000000000002e2f7 .LASF8539
     /tmp/ccJdQ6R8.s:96060  .debug_str:00000000000201c0 .LASF8540
     /tmp/ccJdQ6R8.s:104342  .debug_str:00000000000418cf .LASF8541
     /tmp/ccJdQ6R8.s:105890  .debug_str:0000000000047cc0 .LASF8542
     /tmp/ccJdQ6R8.s:99700  .debug_str:000000000002ea8d .LASF8543
     /tmp/ccJdQ6R8.s:88792  .debug_str:0000000000001fb0 .LASF8544
     /tmp/ccJdQ6R8.s:100780  .debug_str:000000000003316c .LASF8545
     /tmp/ccJdQ6R8.s:101182  .debug_str:0000000000034cb7 .LASF8546
     /tmp/ccJdQ6R8.s:92756  .debug_str:0000000000012334 .LASF8547
     /tmp/ccJdQ6R8.s:106156  .debug_str:0000000000048f14 .LASF8548
     /tmp/ccJdQ6R8.s:97676  .debug_str:00000000000266a7 .LASF8549
     /tmp/ccJdQ6R8.s:95216  .debug_str:000000000001c5f0 .LASF8550
     /tmp/ccJdQ6R8.s:105440  .debug_str:0000000000045eda .LASF8551
     /tmp/ccJdQ6R8.s:93914  .debug_str:0000000000016d9b .LASF8552
     /tmp/ccJdQ6R8.s:98324  .debug_str:0000000000029258 .LASF8553
     /tmp/ccJdQ6R8.s:104336  .debug_str:0000000000041884 .LASF8554
     /tmp/ccJdQ6R8.s:102726  .debug_str:000000000003abfd .LASF8555
     /tmp/ccJdQ6R8.s:93062  .debug_str:0000000000013771 .LASF8556
     /tmp/ccJdQ6R8.s:97330  .debug_str:0000000000025028 .LASF8557
     /tmp/ccJdQ6R8.s:97592  .debug_str:000000000002617f .LASF8558
     /tmp/ccJdQ6R8.s:97206  .debug_str:0000000000024957 .LASF8559
     /tmp/ccJdQ6R8.s:90888  .debug_str:000000000000af14 .LASF8560
     /tmp/ccJdQ6R8.s:101368  .debug_str:00000000000358b8 .LASF8561
     /tmp/ccJdQ6R8.s:95720  .debug_str:000000000001e978 .LASF8562
     /tmp/ccJdQ6R8.s:89442  .debug_str:0000000000004d76 .LASF8563
     /tmp/ccJdQ6R8.s:106826  .debug_str:000000000004be16 .LASF8564
     /tmp/ccJdQ6R8.s:89214  .debug_str:0000000000003d77 .LASF8565
     /tmp/ccJdQ6R8.s:97302  .debug_str:0000000000024de3 .LASF8566
     /tmp/ccJdQ6R8.s:101024  .debug_str:000000000003421a .LASF8567
     /tmp/ccJdQ6R8.s:97238  .debug_str:0000000000024b55 .LASF8568
     /tmp/ccJdQ6R8.s:104308  .debug_str:000000000004164e .LASF8569
     /tmp/ccJdQ6R8.s:98234  .debug_str:0000000000028c55 .LASF8570
     /tmp/ccJdQ6R8.s:103764  .debug_str:000000000003f0a3 .LASF8571
     /tmp/ccJdQ6R8.s:89332  .debug_str:00000000000045ad .LASF8572
     /tmp/ccJdQ6R8.s:98364  .debug_str:000000000002951c .LASF8573
     /tmp/ccJdQ6R8.s:105816  .debug_str:000000000004780f .LASF8574
     /tmp/ccJdQ6R8.s:104658  .debug_str:0000000000042d46 .LASF8575
     /tmp/ccJdQ6R8.s:106484  .debug_str:000000000004a58e .LASF8576
     /tmp/ccJdQ6R8.s:89722  .debug_str:0000000000006047 .LASF8577
     /tmp/ccJdQ6R8.s:100910  .debug_str:0000000000033a15 .LASF8578
     /tmp/ccJdQ6R8.s:97440  .debug_str:00000000000256f4 .LASF8579
     /tmp/ccJdQ6R8.s:91634  .debug_str:000000000000e0fe .LASF8580
     /tmp/ccJdQ6R8.s:97662  .debug_str:000000000002659b .LASF8581
     /tmp/ccJdQ6R8.s:104540  .debug_str:0000000000042564 .LASF8582
     /tmp/ccJdQ6R8.s:95120  .debug_str:000000000001bfc1 .LASF8583
     /tmp/ccJdQ6R8.s:100266  .debug_str:0000000000031060 .LASF8584
     /tmp/ccJdQ6R8.s:98034  .debug_str:0000000000027f97 .LASF8585
     /tmp/ccJdQ6R8.s:90736  .debug_str:000000000000a457 .LASF8586
     /tmp/ccJdQ6R8.s:104628  .debug_str:0000000000042b81 .LASF8587
     /tmp/ccJdQ6R8.s:106124  .debug_str:0000000000048c91 .LASF8588
     /tmp/ccJdQ6R8.s:91658  .debug_str:000000000000e1af .LASF8589
     /tmp/ccJdQ6R8.s:96026  .debug_str:000000000001ffdf .LASF8590
     /tmp/ccJdQ6R8.s:99532  .debug_str:000000000002df71 .LASF8591
     /tmp/ccJdQ6R8.s:93344  .debug_str:0000000000014804 .LASF8592
     /tmp/ccJdQ6R8.s:104992  .debug_str:0000000000044201 .LASF8593
     /tmp/ccJdQ6R8.s:105124  .debug_str:0000000000044a1e .LASF8594
     /tmp/ccJdQ6R8.s:91056  .debug_str:000000000000bb43 .LASF8595
     /tmp/ccJdQ6R8.s:93776  .debug_str:0000000000016448 .LASF8596
     /tmp/ccJdQ6R8.s:106780  .debug_str:000000000004bae2 .LASF8597
     /tmp/ccJdQ6R8.s:104550  .debug_str:00000000000425fc .LASF8598
     /tmp/ccJdQ6R8.s:100684  .debug_str:0000000000032b62 .LASF8599
     /tmp/ccJdQ6R8.s:99400  .debug_str:000000000002d62f .LASF8600
     /tmp/ccJdQ6R8.s:94726  .debug_str:000000000001a4ac .LASF8601
     /tmp/ccJdQ6R8.s:102600  .debug_str:000000000003a298 .LASF8602
     /tmp/ccJdQ6R8.s:96094  .debug_str:00000000000203b8 .LASF8603
     /tmp/ccJdQ6R8.s:90982  .debug_str:000000000000b684 .LASF8604
     /tmp/ccJdQ6R8.s:106742  .debug_str:000000000004b894 .LASF8605
     /tmp/ccJdQ6R8.s:102588  .debug_str:000000000003a1a0 .LASF8606
     /tmp/ccJdQ6R8.s:106228  .debug_str:000000000004941c .LASF8607
     /tmp/ccJdQ6R8.s:91936  .debug_str:000000000000f021 .LASF8608
     /tmp/ccJdQ6R8.s:100212  .debug_str:0000000000030baf .LASF8609
     /tmp/ccJdQ6R8.s:88944  .debug_str:0000000000002b0a .LASF8610
     /tmp/ccJdQ6R8.s:101332  .debug_str:0000000000035633 .LASF8611
     /tmp/ccJdQ6R8.s:98516  .debug_str:0000000000029e8d .LASF8612
     /tmp/ccJdQ6R8.s:101576  .debug_str:00000000000365e5 .LASF8613
     /tmp/ccJdQ6R8.s:99294  .debug_str:000000000002cfe1 .LASF8614
     /tmp/ccJdQ6R8.s:101872  .debug_str:0000000000037577 .LASF8615
     /tmp/ccJdQ6R8.s:93938  .debug_str:0000000000016f55 .LASF8616
     /tmp/ccJdQ6R8.s:88774  .debug_str:0000000000001e40 .LASF8617
     /tmp/ccJdQ6R8.s:93212  .debug_str:00000000000140a7 .LASF8618
     /tmp/ccJdQ6R8.s:91662  .debug_str:000000000000e1df .LASF8619
     /tmp/ccJdQ6R8.s:101696  .debug_str:0000000000036c58 .LASF8620
     /tmp/ccJdQ6R8.s:104428  .debug_str:0000000000041ded .LASF8621
     /tmp/ccJdQ6R8.s:94322  .debug_str:00000000000187bb .LASF8622
     /tmp/ccJdQ6R8.s:98966  .debug_str:000000000002bb6b .LASF8623
     /tmp/ccJdQ6R8.s:90218  .debug_str:00000000000081b0 .LASF8624
     /tmp/ccJdQ6R8.s:97958  .debug_str:0000000000027a24 .LASF8625
     /tmp/ccJdQ6R8.s:96792  .debug_str:00000000000231cf .LASF8626
     /tmp/ccJdQ6R8.s:106580  .debug_str:000000000004ab27 .LASF8627
     /tmp/ccJdQ6R8.s:97960  .debug_str:0000000000027a41 .LASF8628
     /tmp/ccJdQ6R8.s:96794  .debug_str:00000000000231ec .LASF8629
     /tmp/ccJdQ6R8.s:95328  .debug_str:000000000001cd87 .LASF8630
     /tmp/ccJdQ6R8.s:103114  .debug_str:000000000003c5e2 .LASF8631
     /tmp/ccJdQ6R8.s:102076  .debug_str:0000000000038031 .LASF8632
     /tmp/ccJdQ6R8.s:104736  .debug_str:0000000000043208 .LASF8633
     /tmp/ccJdQ6R8.s:103116  .debug_str:000000000003c5ff .LASF8634
     /tmp/ccJdQ6R8.s:89694  .debug_str:0000000000005eb9 .LASF8635
     /tmp/ccJdQ6R8.s:93462  .debug_str:0000000000014fdd .LASF8636
     /tmp/ccJdQ6R8.s:105176  .debug_str:0000000000044d89 .LASF8637
     /tmp/ccJdQ6R8.s:92808  .debug_str:00000000000126ce .LASF8638
     /tmp/ccJdQ6R8.s:103552  .debug_str:000000000003e1b6 .LASF8639
     /tmp/ccJdQ6R8.s:105178  .debug_str:0000000000044da4 .LASF8640
     /tmp/ccJdQ6R8.s:101772  .debug_str:0000000000037053 .LASF8641
     /tmp/ccJdQ6R8.s:97588  .debug_str:0000000000026136 .LASF8642
     /tmp/ccJdQ6R8.s:91322  .debug_str:000000000000cd3f .LASF8643
     /tmp/ccJdQ6R8.s:98042  .debug_str:000000000002804c .LASF8644
     /tmp/ccJdQ6R8.s:96292  .debug_str:00000000000211a1 .LASF8645
     /tmp/ccJdQ6R8.s:91324  .debug_str:000000000000cd5a .LASF8646
     /tmp/ccJdQ6R8.s:93160  .debug_str:0000000000013d57 .LASF8647
     /tmp/ccJdQ6R8.s:90182  .debug_str:0000000000007f0c .LASF8648
     /tmp/ccJdQ6R8.s:97070  .debug_str:0000000000024317 .LASF8649
     /tmp/ccJdQ6R8.s:95828  .debug_str:000000000001f0d8 .LASF8650
     /tmp/ccJdQ6R8.s:88448  .debug_str:000000000000085b .LASF8651
     /tmp/ccJdQ6R8.s:97072  .debug_str:0000000000024334 .LASF8652
     /tmp/ccJdQ6R8.s:95830  .debug_str:000000000001f0f5 .LASF8653
     /tmp/ccJdQ6R8.s:98424  .debug_str:0000000000029850 .LASF8654
     /tmp/ccJdQ6R8.s:102374  .debug_str:00000000000392e8 .LASF8655
     /tmp/ccJdQ6R8.s:101040  .debug_str:000000000003438d .LASF8656
     /tmp/ccJdQ6R8.s:100126  .debug_str:000000000003063c .LASF8657
     /tmp/ccJdQ6R8.s:102376  .debug_str:0000000000039305 .LASF8658
     /tmp/ccJdQ6R8.s:101042  .debug_str:00000000000343aa .LASF8659
     /tmp/ccJdQ6R8.s:94090  .debug_str:0000000000017958 .LASF8660
     /tmp/ccJdQ6R8.s:92604  .debug_str:0000000000011a24 .LASF8661
     /tmp/ccJdQ6R8.s:90694  .debug_str:000000000000a19e .LASF8662
     /tmp/ccJdQ6R8.s:94416  .debug_str:0000000000018e12 .LASF8663
     /tmp/ccJdQ6R8.s:107166  .debug_str:000000000004d53d .LASF8664
     /tmp/ccJdQ6R8.s:90696  .debug_str:000000000000a1b7 .LASF8665
     /tmp/ccJdQ6R8.s:88420  .debug_str:0000000000000683 .LASF8666
     /tmp/ccJdQ6R8.s:90268  .debug_str:00000000000084ad .LASF8667
     /tmp/ccJdQ6R8.s:102766  .debug_str:000000000003ae40 .LASF8668
     /tmp/ccJdQ6R8.s:91954  .debug_str:000000000000f15f .LASF8669
     /tmp/ccJdQ6R8.s:91236  .debug_str:000000000000c767 .LASF8670
     /tmp/ccJdQ6R8.s:94980  .debug_str:000000000001b5ca .LASF8671
     /tmp/ccJdQ6R8.s:106096  .debug_str:0000000000048a8d .LASF8672
     /tmp/ccJdQ6R8.s:90410  .debug_str:0000000000008eb2 .LASF8673
     /tmp/ccJdQ6R8.s:107068  .debug_str:000000000004ce42 .LASF8674
     /tmp/ccJdQ6R8.s:88804  .debug_str:00000000000020a4 .LASF8675
     /tmp/ccJdQ6R8.s:105880  .debug_str:0000000000047c0d .LASF8676
     /tmp/ccJdQ6R8.s:91916  .debug_str:000000000000ef95 .LASF8677
     /tmp/ccJdQ6R8.s:104626  .debug_str:0000000000042b5a .LASF8678
     /tmp/ccJdQ6R8.s:95896  .debug_str:000000000001f604 .LASF8679
     /tmp/ccJdQ6R8.s:99730  .debug_str:000000000002ec41 .LASF8680
     /tmp/ccJdQ6R8.s:93410  .debug_str:0000000000014c7b .LASF8681
     /tmp/ccJdQ6R8.s:90574  .debug_str:0000000000009987 .LASF8682
     /tmp/ccJdQ6R8.s:97216  .debug_str:00000000000249de .LASF8683
     /tmp/ccJdQ6R8.s:91820  .debug_str:000000000000e9ed .LASF8684
     /tmp/ccJdQ6R8.s:99634  .debug_str:000000000002e61a .LASF8685
     /tmp/ccJdQ6R8.s:95176  .debug_str:000000000001c348 .LASF8686
     /tmp/ccJdQ6R8.s:98550  .debug_str:000000000002a027 .LASF8687
     /tmp/ccJdQ6R8.s:96678  .debug_str:0000000000022a69 .LASF8688
     /tmp/ccJdQ6R8.s:103962  .debug_str:000000000003fe6e .LASF8689
     /tmp/ccJdQ6R8.s:105872  .debug_str:0000000000047b9f .LASF8690
     /tmp/ccJdQ6R8.s:100600  .debug_str:0000000000032639 .LASF8691
     /tmp/ccJdQ6R8.s:98842  .debug_str:000000000002b33f .LASF8692
     /tmp/ccJdQ6R8.s:91986  .debug_str:000000000000f3cd .LASF8693
     /tmp/ccJdQ6R8.s:98680  .debug_str:000000000002a8b1 .LASF8694
     /tmp/ccJdQ6R8.s:104822  .debug_str:000000000004373a .LASF8695
     /tmp/ccJdQ6R8.s:95912  .debug_str:000000000001f74f .LASF8696
     /tmp/ccJdQ6R8.s:99252  .debug_str:000000000002cd7f .LASF8697
     /tmp/ccJdQ6R8.s:95426  .debug_str:000000000001d4c7 .LASF8698
     /tmp/ccJdQ6R8.s:101870  .debug_str:000000000003754f .LASF8699
     /tmp/ccJdQ6R8.s:97110  .debug_str:00000000000244ed .LASF8700
     /tmp/ccJdQ6R8.s:104554  .debug_str:0000000000042636 .LASF8701
     /tmp/ccJdQ6R8.s:106374  .debug_str:0000000000049dbc .LASF8702
     /tmp/ccJdQ6R8.s:99058  .debug_str:000000000002c0c7 .LASF8703
     /tmp/ccJdQ6R8.s:94546  .debug_str:00000000000196fb .LASF8704
     /tmp/ccJdQ6R8.s:104746  .debug_str:00000000000432b4 .LASF8705
     /tmp/ccJdQ6R8.s:106550  .debug_str:000000000004a9a5 .LASF8706
     /tmp/ccJdQ6R8.s:93084  .debug_str:00000000000138ee .LASF8707
     /tmp/ccJdQ6R8.s:91366  .debug_str:000000000000d028 .LASF8708
     /tmp/ccJdQ6R8.s:105728  .debug_str:0000000000047287 .LASF8709
     /tmp/ccJdQ6R8.s:89696  .debug_str:0000000000005ed6 .LASF8710
     /tmp/ccJdQ6R8.s:94714  .debug_str:000000000001a3c0 .LASF8711
     /tmp/ccJdQ6R8.s:97638  .debug_str:00000000000263ed .LASF8712
     /tmp/ccJdQ6R8.s:92374  .debug_str:0000000000010ab5 .LASF8713
     /tmp/ccJdQ6R8.s:103730  .debug_str:000000000003ee54 .LASF8714
     /tmp/ccJdQ6R8.s:96042  .debug_str:00000000000200b6 .LASF8715
     /tmp/ccJdQ6R8.s:90164  .debug_str:0000000000007d97 .LASF8716
     /tmp/ccJdQ6R8.s:106954  .debug_str:000000000004c6fd .LASF8717
     /tmp/ccJdQ6R8.s:105208  .debug_str:0000000000044f40 .LASF8718
     /tmp/ccJdQ6R8.s:97674  .debug_str:0000000000026693 .LASF8719
     /tmp/ccJdQ6R8.s:90166  .debug_str:0000000000007dac .LASF8720
     /tmp/ccJdQ6R8.s:105042  .debug_str:00000000000444db .LASF8721
     /tmp/ccJdQ6R8.s:106038  .debug_str:0000000000048608 .LASF8722
     /tmp/ccJdQ6R8.s:90766  .debug_str:000000000000a640 .LASF8723
     /tmp/ccJdQ6R8.s:92640  .debug_str:0000000000011c93 .LASF8724
     /tmp/ccJdQ6R8.s:90092  .debug_str:000000000000794e .LASF8725
     /tmp/ccJdQ6R8.s:102266  .debug_str:0000000000038ba1 .LASF8726
     /tmp/ccJdQ6R8.s:94194  .debug_str:0000000000017fec .LASF8727
     /tmp/ccJdQ6R8.s:94196  .debug_str:0000000000017ffb .LASF8728
     /tmp/ccJdQ6R8.s:94198  .debug_str:000000000001800a .LASF8729
     /tmp/ccJdQ6R8.s:96214  .debug_str:0000000000020c1b .LASF8730
     /tmp/ccJdQ6R8.s:94584  .debug_str:0000000000019a24 .LASF8731
     /tmp/ccJdQ6R8.s:94414  .debug_str:0000000000018df9 .LASF8732
     /tmp/ccJdQ6R8.s:96168  .debug_str:0000000000020927 .LASF8733
     /tmp/ccJdQ6R8.s:103818  .debug_str:000000000003f4ea .LASF8734
     /tmp/ccJdQ6R8.s:92776  .debug_str:0000000000012481 .LASF8735
     /tmp/ccJdQ6R8.s:101804  .debug_str:000000000003725c .LASF8736
     /tmp/ccJdQ6R8.s:91676  .debug_str:000000000000e300 .LASF8737
     /tmp/ccJdQ6R8.s:92606  .debug_str:0000000000011a3d .LASF8738
     /tmp/ccJdQ6R8.s:96158  .debug_str:0000000000020848 .LASF8739
     /tmp/ccJdQ6R8.s:89528  .debug_str:000000000000534f .LASF8740
     /tmp/ccJdQ6R8.s:89900  .debug_str:0000000000006d2b .LASF8741
     /tmp/ccJdQ6R8.s:93272  .debug_str:0000000000014395 .LASF8742
     /tmp/ccJdQ6R8.s:92916  .debug_str:0000000000012ed4 .LASF8743
     /tmp/ccJdQ6R8.s:103772  .debug_str:000000000003f10c .LASF8744
     /tmp/ccJdQ6R8.s:103768  .debug_str:000000000003f0fa .LASF8745
     /tmp/ccJdQ6R8.s:103770  .debug_str:000000000003f103 .LASF8746
     /tmp/ccJdQ6R8.s:98210  .debug_str:0000000000028aca .LASF8747
     /tmp/ccJdQ6R8.s:103642  .debug_str:000000000003e75a .LASF8748
     /tmp/ccJdQ6R8.s:94054  .debug_str:00000000000176d7 .LASF8749
     /tmp/ccJdQ6R8.s:99704  .debug_str:000000000002eac9 .LASF8750
     /tmp/ccJdQ6R8.s:93044  .debug_str:0000000000013662 .LASF8751
     /tmp/ccJdQ6R8.s:97030  .debug_str:00000000000240c4 .LASF8752
     /tmp/ccJdQ6R8.s:101552  .debug_str:00000000000363df .LASF8753
     /tmp/ccJdQ6R8.s:103018  .debug_str:000000000003bf04 .LASF8754
     /tmp/ccJdQ6R8.s:94202  .debug_str:0000000000018042 .LASF8755
     /tmp/ccJdQ6R8.s:98464  .debug_str:0000000000029ade .LASF8756
     /tmp/ccJdQ6R8.s:89614  .debug_str:00000000000059b2 .LASF8757
     /tmp/ccJdQ6R8.s:99748  .debug_str:000000000002eda4 .LASF8758
     /tmp/ccJdQ6R8.s:98302  .debug_str:00000000000290c3 .LASF8759
     /tmp/ccJdQ6R8.s:97180  .debug_str:00000000000248bc .LASF8760
     /tmp/ccJdQ6R8.s:96498  .debug_str:0000000000021e5e .LASF8761
     /tmp/ccJdQ6R8.s:90034  .debug_str:00000000000075b8 .LASF8762
     /tmp/ccJdQ6R8.s:104382  .debug_str:0000000000041b39 .LASF8763
     /tmp/ccJdQ6R8.s:99140  .debug_str:000000000002c5d6 .LASF8764
     /tmp/ccJdQ6R8.s:98168  .debug_str:0000000000028838 .LASF8765
     /tmp/ccJdQ6R8.s:96200  .debug_str:0000000000020b8e .LASF8766
     /tmp/ccJdQ6R8.s:93794  .debug_str:0000000000016560 .LASF8767
     /tmp/ccJdQ6R8.s:103650  .debug_str:000000000003e803 .LASF8768
     /tmp/ccJdQ6R8.s:103782  .debug_str:000000000003f1e1 .LASF8769
     /tmp/ccJdQ6R8.s:88686  .debug_str:000000000000185a .LASF8770
     /tmp/ccJdQ6R8.s:95084  .debug_str:000000000001bd65 .LASF8771
     /tmp/ccJdQ6R8.s:100838  .debug_str:000000000003354b .LASF8772
     /tmp/ccJdQ6R8.s:92442  .debug_str:0000000000010e6f .LASF8773
     /tmp/ccJdQ6R8.s:96620  .debug_str:000000000002267c .LASF8774
     /tmp/ccJdQ6R8.s:90734  .debug_str:000000000000a451 .LASF8775
     /tmp/ccJdQ6R8.s:96754  .debug_str:0000000000022f6c .LASF8776
     /tmp/ccJdQ6R8.s:98150  .debug_str:00000000000286f5 .LASF8777
     /tmp/ccJdQ6R8.s:92980  .debug_str:000000000001325c .LASF8778
     /tmp/ccJdQ6R8.s:94976  .debug_str:000000000001b582 .LASF8779
     /tmp/ccJdQ6R8.s:105620  .debug_str:0000000000046a9b .LASF8780
     /tmp/ccJdQ6R8.s:93688  .debug_str:0000000000015e11 .LASF8781
     /tmp/ccJdQ6R8.s:99026  .debug_str:000000000002bece .LASF8782
     /tmp/ccJdQ6R8.s:98346  .debug_str:000000000002940e .LASF8783
     /tmp/ccJdQ6R8.s:91812  .debug_str:000000000000e961 .LASF8784
     /tmp/ccJdQ6R8.s:91036  .debug_str:000000000000ba1c .LASF8785
     /tmp/ccJdQ6R8.s:91942  .debug_str:000000000000f07d .LASF8786
     /tmp/ccJdQ6R8.s:90810  .debug_str:000000000000a977 .LASF8787
     /tmp/ccJdQ6R8.s:103410  .debug_str:000000000003d8e6 .LASF8788
     /tmp/ccJdQ6R8.s:97386  .debug_str:000000000002537d .LASF8789
     /tmp/ccJdQ6R8.s:104250  .debug_str:0000000000041240 .LASF8790
     /tmp/ccJdQ6R8.s:89684  .debug_str:0000000000005e0d .LASF8791
     /tmp/ccJdQ6R8.s:91622  .debug_str:000000000000e02f .LASF8792
     /tmp/ccJdQ6R8.s:102822  .debug_str:000000000003b239 .LASF8793
     /tmp/ccJdQ6R8.s:92496  .debug_str:0000000000011245 .LASF8794
     /tmp/ccJdQ6R8.s:98066  .debug_str:0000000000028200 .LASF8795
     /tmp/ccJdQ6R8.s:89902  .debug_str:0000000000006d46 .LASF8796
     /tmp/ccJdQ6R8.s:93930  .debug_str:0000000000016ee7 .LASF8797
     /tmp/ccJdQ6R8.s:90892  .debug_str:000000000000af7a .LASF8798
     /tmp/ccJdQ6R8.s:100120  .debug_str:00000000000305df .LASF8799
     /tmp/ccJdQ6R8.s:88360  .debug_str:000000000000022b .LASF8800
     /tmp/ccJdQ6R8.s:103610  .debug_str:000000000003e5ad .LASF8801
     /tmp/ccJdQ6R8.s:94504  .debug_str:000000000001942f .LASF8802
     /tmp/ccJdQ6R8.s:98694  .debug_str:000000000002a97d .LASF8803
     /tmp/ccJdQ6R8.s:102988  .debug_str:000000000003bcd0 .LASF8804
     /tmp/ccJdQ6R8.s:102238  .debug_str:00000000000389a7 .LASF8805
     /tmp/ccJdQ6R8.s:89720  .debug_str:000000000000603b .LASF8806
     /tmp/ccJdQ6R8.s:100116  .debug_str:000000000003059b .LASF8807
     /tmp/ccJdQ6R8.s:97992  .debug_str:0000000000027c43 .LASF8808
     /tmp/ccJdQ6R8.s:89278  .debug_str:0000000000004299 .LASF8809
     /tmp/ccJdQ6R8.s:91870  .debug_str:000000000000ec8a .LASF8810
     /tmp/ccJdQ6R8.s:97550  .debug_str:0000000000025efc .LASF8811
     /tmp/ccJdQ6R8.s:94826  .debug_str:000000000001ab13 .LASF8812
     /tmp/ccJdQ6R8.s:97250  .debug_str:0000000000024bed .LASF8813
     /tmp/ccJdQ6R8.s:94672  .debug_str:000000000001a115 .LASF8814
     /tmp/ccJdQ6R8.s:106244  .debug_str:000000000004950e .LASF8815
     /tmp/ccJdQ6R8.s:94802  .debug_str:000000000001a97e .LASF8816
     /tmp/ccJdQ6R8.s:96418  .debug_str:0000000000021934 .LASF8817
     /tmp/ccJdQ6R8.s:102912  .debug_str:000000000003b7d1 .LASF8818
     /tmp/ccJdQ6R8.s:88852  .debug_str:00000000000023ef .LASF8819
     /tmp/ccJdQ6R8.s:89060  .debug_str:000000000000335f .LASF8820
     /tmp/ccJdQ6R8.s:98608  .debug_str:000000000002a447 .LASF8821
     /tmp/ccJdQ6R8.s:94806  .debug_str:000000000001a9b4 .LASF8822
     /tmp/ccJdQ6R8.s:101578  .debug_str:00000000000365f5 .LASF8823
     /tmp/ccJdQ6R8.s:98076  .debug_str:00000000000282a1 .LASF8824
     /tmp/ccJdQ6R8.s:100746  .debug_str:0000000000032efe .LASF8825
     /tmp/ccJdQ6R8.s:88390  .debug_str:0000000000000443 .LASF8826
     /tmp/ccJdQ6R8.s:96888  .debug_str:00000000000238d9 .LASF8827
     /tmp/ccJdQ6R8.s:94410  .debug_str:0000000000018de8 .LASF8828
     /tmp/ccJdQ6R8.s:88626  .debug_str:00000000000013f4 .LASF8829
     /tmp/ccJdQ6R8.s:96328  .debug_str:000000000002134e .LASF8830
     /tmp/ccJdQ6R8.s:91612  .debug_str:000000000000df49 .LASF8831
     /tmp/ccJdQ6R8.s:100112  .debug_str:000000000003054a .LASF8832
     /tmp/ccJdQ6R8.s:105252  .debug_str:0000000000045238 .LASF8833
     /tmp/ccJdQ6R8.s:96280  .debug_str:0000000000021123 .LASF8834
     /tmp/ccJdQ6R8.s:101946  .debug_str:0000000000037947 .LASF8835
     /tmp/ccJdQ6R8.s:96014  .debug_str:000000000001ff17 .LASF8836
     /tmp/ccJdQ6R8.s:96276  .debug_str:00000000000210ef .LASF8837
     /tmp/ccJdQ6R8.s:104440  .debug_str:0000000000041eb7 .LASF8838
     /tmp/ccJdQ6R8.s:98184  .debug_str:000000000002890d .LASF8839
     /tmp/ccJdQ6R8.s:90786  .debug_str:000000000000a7e9 .LASF8840
     /tmp/ccJdQ6R8.s:90098  .debug_str:0000000000007985 .LASF8841
     /tmp/ccJdQ6R8.s:98512  .debug_str:0000000000029e78 .LASF8842
     /tmp/ccJdQ6R8.s:105096  .debug_str:00000000000447d3 .LASF8843
     /tmp/ccJdQ6R8.s:103890  .debug_str:000000000003f9bd .LASF8844
     /tmp/ccJdQ6R8.s:101764  .debug_str:0000000000036fb6 .LASF8845
     /tmp/ccJdQ6R8.s:96668  .debug_str:00000000000229d4 .LASF8846
     /tmp/ccJdQ6R8.s:104202  .debug_str:0000000000040e94 .LASF8847
     /tmp/ccJdQ6R8.s:99872  .debug_str:000000000002f63f .LASF8848
     /tmp/ccJdQ6R8.s:100306  .debug_str:0000000000031307 .LASF8849
     /tmp/ccJdQ6R8.s:89748  .debug_str:00000000000061ff .LASF8850
     /tmp/ccJdQ6R8.s:106584  .debug_str:000000000004ab83 .LASF8851
     /tmp/ccJdQ6R8.s:105182  .debug_str:0000000000044ddb .LASF8852
     /tmp/ccJdQ6R8.s:99382  .debug_str:000000000002d4f1 .LASF8853
     /tmp/ccJdQ6R8.s:89422  .debug_str:0000000000004c26 .LASF8854
     /tmp/ccJdQ6R8.s:95276  .debug_str:000000000001ca3a .LASF8855
     /tmp/ccJdQ6R8.s:104378  .debug_str:0000000000041b22 .LASF8856
     /tmp/ccJdQ6R8.s:103162  .debug_str:000000000003c917 .LASF8857
     /tmp/ccJdQ6R8.s:95984  .debug_str:000000000001fd48 .LASF8858
     /tmp/ccJdQ6R8.s:95986  .debug_str:000000000001fd52 .LASF8859
     /tmp/ccJdQ6R8.s:106492  .debug_str:000000000004a622 .LASF8860
     /tmp/ccJdQ6R8.s:95990  .debug_str:000000000001fd79 .LASF8861
     /tmp/ccJdQ6R8.s:100924  .debug_str:0000000000033b03 .LASF8862
     /tmp/ccJdQ6R8.s:99720  .debug_str:000000000002ebb9 .LASF8863
     /tmp/ccJdQ6R8.s:105038  .debug_str:00000000000444b1 .LASF8864
     /tmp/ccJdQ6R8.s:98300  .debug_str:00000000000290b8 .LASF8865
     /tmp/ccJdQ6R8.s:94526  .debug_str:0000000000019585 .LASF8866
     /tmp/ccJdQ6R8.s:100520  .debug_str:0000000000032148 .LASF8867
     /tmp/ccJdQ6R8.s:90642  .debug_str:0000000000009dee .LASF8868
     /tmp/ccJdQ6R8.s:94314  .debug_str:0000000000018753 .LASF8869
     /tmp/ccJdQ6R8.s:90644  .debug_str:0000000000009df9 .LASF8870
     /tmp/ccJdQ6R8.s:92554  .debug_str:0000000000011656 .LASF8871
     /tmp/ccJdQ6R8.s:90646  .debug_str:0000000000009e04 .LASF8872
     /tmp/ccJdQ6R8.s:98818  .debug_str:000000000002b15e .LASF8873
     /tmp/ccJdQ6R8.s:90648  .debug_str:0000000000009e0f .LASF8874
     /tmp/ccJdQ6R8.s:95262  .debug_str:000000000001c92d .LASF8875
     /tmp/ccJdQ6R8.s:90650  .debug_str:0000000000009e1a .LASF8876
     /tmp/ccJdQ6R8.s:89226  .debug_str:0000000000003e3e .LASF8877
     /tmp/ccJdQ6R8.s:101068  .debug_str:000000000003457d .LASF8878
     /tmp/ccJdQ6R8.s:89572  .debug_str:00000000000056eb .LASF8879
     /tmp/ccJdQ6R8.s:98096  .debug_str:00000000000283b1 .LASF8880
     /tmp/ccJdQ6R8.s:104582  .debug_str:0000000000042831 .LASF8881
     /tmp/ccJdQ6R8.s:98098  .debug_str:00000000000283bb .LASF8882
     /tmp/ccJdQ6R8.s:105374  .debug_str:0000000000045ac0 .LASF8883
     /tmp/ccJdQ6R8.s:101072  .debug_str:00000000000345b0 .LASF8884
     /tmp/ccJdQ6R8.s:92572  .debug_str:0000000000011794 .LASF8885
     /tmp/ccJdQ6R8.s:98102  .debug_str:00000000000283fb .LASF8886
     /tmp/ccJdQ6R8.s:105540  .debug_str:000000000004652f .LASF8887
     /tmp/ccJdQ6R8.s:98104  .debug_str:0000000000028405 .LASF8888
     /tmp/ccJdQ6R8.s:101618  .debug_str:00000000000367c8 .LASF8889
     /tmp/ccJdQ6R8.s:98106  .debug_str:000000000002840f .LASF8890
     /tmp/ccJdQ6R8.s:93544  .debug_str:0000000000015582 .LASF8891
     /tmp/ccJdQ6R8.s:98108  .debug_str:0000000000028419 .LASF8892
     /tmp/ccJdQ6R8.s:106454  .debug_str:000000000004a306 .LASF8893
     /tmp/ccJdQ6R8.s:97120  .debug_str:000000000002456b .LASF8894
     /tmp/ccJdQ6R8.s:91588  .debug_str:000000000000ddd4 .LASF8895
     /tmp/ccJdQ6R8.s:94336  .debug_str:000000000001888b .LASF8896
     /tmp/ccJdQ6R8.s:98630  .debug_str:000000000002a5df .LASF8897
     /tmp/ccJdQ6R8.s:92502  .debug_str:00000000000112c5 .LASF8898
     /tmp/ccJdQ6R8.s:93360  .debug_str:0000000000014945 .LASF8899
     /tmp/ccJdQ6R8.s:104890  .debug_str:0000000000043b89 .LASF8900
     /tmp/ccJdQ6R8.s:92212  .debug_str:00000000000100a1 .LASF8901
     /tmp/ccJdQ6R8.s:103790  .debug_str:000000000003f24f .LASF8902
     /tmp/ccJdQ6R8.s:105948  .debug_str:0000000000048069 .LASF8903
     /tmp/ccJdQ6R8.s:103084  .debug_str:000000000003c3f9 .LASF8904
     /tmp/ccJdQ6R8.s:93198  .debug_str:0000000000013fd3 .LASF8905
     /tmp/ccJdQ6R8.s:88718  .debug_str:0000000000001ab4 .LASF8906
     /tmp/ccJdQ6R8.s:99078  .debug_str:000000000002c1b3 .LASF8907
     /tmp/ccJdQ6R8.s:106064  .debug_str:00000000000487f6 .LASF8908
     /tmp/ccJdQ6R8.s:102378  .debug_str:0000000000039322 .LASF8909
     /tmp/ccJdQ6R8.s:100150  .debug_str:00000000000307a7 .LASF8910
     /tmp/ccJdQ6R8.s:104514  .debug_str:0000000000042404 .LASF8911
     /tmp/ccJdQ6R8.s:96006  .debug_str:000000000001fe9d .LASF8912
     /tmp/ccJdQ6R8.s:100018  .debug_str:000000000002ff48 .LASF8913
     /tmp/ccJdQ6R8.s:92654  .debug_str:0000000000011d46 .LASF8914
     /tmp/ccJdQ6R8.s:92888  .debug_str:0000000000012cb6 .LASF8915
     /tmp/ccJdQ6R8.s:94882  .debug_str:000000000001ae9a .LASF8916
     /tmp/ccJdQ6R8.s:96036  .debug_str:000000000002005d .LASF8917
     /tmp/ccJdQ6R8.s:97498  .debug_str:0000000000025b49 .LASF8918
     /tmp/ccJdQ6R8.s:90240  .debug_str:00000000000082f5 .LASF8919
     /tmp/ccJdQ6R8.s:99290  .debug_str:000000000002cfab .LASF8920
     /tmp/ccJdQ6R8.s:94490  .debug_str:0000000000019341 .LASF8921
     /tmp/ccJdQ6R8.s:93718  .debug_str:000000000001606e .LASF8922
     /tmp/ccJdQ6R8.s:104934  .debug_str:0000000000043e8c .LASF8923
     /tmp/ccJdQ6R8.s:94460  .debug_str:000000000001911f .LASF8924
     /tmp/ccJdQ6R8.s:98046  .debug_str:000000000002809f .LASF8925
     /tmp/ccJdQ6R8.s:88528  .debug_str:0000000000000d6a .LASF8926
     /tmp/ccJdQ6R8.s:95050  .debug_str:000000000001ba92 .LASF8927
     /tmp/ccJdQ6R8.s:101590  .debug_str:000000000003661f .LASF8928
     /tmp/ccJdQ6R8.s:100028  .debug_str:000000000002ffc1 .LASF8929
     /tmp/ccJdQ6R8.s:96652  .debug_str:00000000000228b0 .LASF8930
     /tmp/ccJdQ6R8.s:97744  .debug_str:0000000000026c20 .LASF8931
     /tmp/ccJdQ6R8.s:96450  .debug_str:0000000000021afb .LASF8932
     /tmp/ccJdQ6R8.s:88576  .debug_str:00000000000010d1 .LASF8933
     /tmp/ccJdQ6R8.s:88716  .debug_str:0000000000001a90 .LASF8934
     /tmp/ccJdQ6R8.s:91334  .debug_str:000000000000ce0a .LASF8935
     /tmp/ccJdQ6R8.s:91070  .debug_str:000000000000bc49 .LASF8936
     /tmp/ccJdQ6R8.s:90828  .debug_str:000000000000aab3 .LASF8937
     /tmp/ccJdQ6R8.s:95118  .debug_str:000000000001bf97 .LASF8938
     /tmp/ccJdQ6R8.s:99040  .debug_str:000000000002bfb3 .LASF8939
     /tmp/ccJdQ6R8.s:99042  .debug_str:000000000002bfb8 .LASF8940
     /tmp/ccJdQ6R8.s:90054  .debug_str:00000000000076d5 .LASF8941
     /tmp/ccJdQ6R8.s:90056  .debug_str:00000000000076da .LASF8942
     /tmp/ccJdQ6R8.s:106246  .debug_str:0000000000049523 .LASF8943
     /tmp/ccJdQ6R8.s:102840  .debug_str:000000000003b332 .LASF8944
     /tmp/ccJdQ6R8.s:104122  .debug_str:00000000000409a2 .LASF8945
     /tmp/ccJdQ6R8.s:104124  .debug_str:00000000000409a8 .LASF8946
     /tmp/ccJdQ6R8.s:104128  .debug_str:00000000000409bc .LASF8947
     /tmp/ccJdQ6R8.s:97552  .debug_str:0000000000025f0a .LASF8948
     /tmp/ccJdQ6R8.s:105418  .debug_str:0000000000045d6f .LASF8949
     /tmp/ccJdQ6R8.s:94444  .debug_str:0000000000018ff3 .LASF8950
     /tmp/ccJdQ6R8.s:104578  .debug_str:000000000004280b .LASF8951
     /tmp/ccJdQ6R8.s:89152  .debug_str:0000000000003963 .LASF8952
     /tmp/ccJdQ6R8.s:96206  .debug_str:0000000000020bce .LASF8953
     /tmp/ccJdQ6R8.s:98788  .debug_str:000000000002af8d .LASF8954
     /tmp/ccJdQ6R8.s:104064  .debug_str:00000000000405dd .LASF8955
     /tmp/ccJdQ6R8.s:92522  .debug_str:0000000000011435 .LASF8956
     /tmp/ccJdQ6R8.s:99090  .debug_str:000000000002c29e .LASF8957
     /tmp/ccJdQ6R8.s:88974  .debug_str:0000000000002d01 .LASF8958
     /tmp/ccJdQ6R8.s:100008  .debug_str:000000000002fec1 .LASF8959
     /tmp/ccJdQ6R8.s:96840  .debug_str:000000000002353a .LASF8960
     /tmp/ccJdQ6R8.s:99092  .debug_str:000000000002c2a7 .LASF8961
     /tmp/ccJdQ6R8.s:98664  .debug_str:000000000002a7ea .LASF8962
     /tmp/ccJdQ6R8.s:94618  .debug_str:0000000000019c4b .LASF8963
     /tmp/ccJdQ6R8.s:90024  .debug_str:0000000000007520 .LASF8964
     /tmp/ccJdQ6R8.s:99622  .debug_str:000000000002e544 .LASF8965
     /tmp/ccJdQ6R8.s:89482  .debug_str:0000000000004ffc .LASF8966
     /tmp/ccJdQ6R8.s:96762  .debug_str:0000000000022fd9 .LASF8967
     /tmp/ccJdQ6R8.s:106778  .debug_str:000000000004bad6 .LASF8968
     /tmp/ccJdQ6R8.s:95718  .debug_str:000000000001e968 .LASF8969
     /tmp/ccJdQ6R8.s:107046  .debug_str:000000000004ccdf .LASF8970
     /tmp/ccJdQ6R8.s:90378  .debug_str:0000000000008c45 .LASF8971
     /tmp/ccJdQ6R8.s:88910  .debug_str:0000000000002886 .LASF8972
     /tmp/ccJdQ6R8.s:104172  .debug_str:0000000000040c0b .LASF8973
     /tmp/ccJdQ6R8.s:103476  .debug_str:000000000003dd3f .LASF8974
     /tmp/ccJdQ6R8.s:97700  .debug_str:00000000000268ae .LASF8975
     /tmp/ccJdQ6R8.s:102242  .debug_str:00000000000389ea .LASF8976
     /tmp/ccJdQ6R8.s:105402  .debug_str:0000000000045c7a .LASF8977
     /tmp/ccJdQ6R8.s:94104  .debug_str:0000000000017a53 .LASF8978
     /tmp/ccJdQ6R8.s:99648  .debug_str:000000000002e6d4 .LASF8979
     /tmp/ccJdQ6R8.s:103000  .debug_str:000000000003bdbc .LASF8980
     /tmp/ccJdQ6R8.s:100388  .debug_str:00000000000318ab .LASF8981
     /tmp/ccJdQ6R8.s:98956  .debug_str:000000000002bafb .LASF8982
     /tmp/ccJdQ6R8.s:93904  .debug_str:0000000000016cc8 .LASF8983
     /tmp/ccJdQ6R8.s:93228  .debug_str:000000000001419a .LASF8984
     /tmp/ccJdQ6R8.s:95738  .debug_str:000000000001eafc .LASF8985
     /tmp/ccJdQ6R8.s:95638  .debug_str:000000000001e33e .LASF8986
     /tmp/ccJdQ6R8.s:102264  .debug_str:0000000000038b99 .LASF8987
     /tmp/ccJdQ6R8.s:103734  .debug_str:000000000003ee84 .LASF8988
     /tmp/ccJdQ6R8.s:94820  .debug_str:000000000001aae5 .LASF8989
     /tmp/ccJdQ6R8.s:94830  .debug_str:000000000001ab2c .LASF8990
     /tmp/ccJdQ6R8.s:98864  .debug_str:000000000002b507 .LASF8991
     /tmp/ccJdQ6R8.s:101444  .debug_str:0000000000035d18 .LASF8992
     /tmp/ccJdQ6R8.s:98960  .debug_str:000000000002bb2e .LASF8993
     /tmp/ccJdQ6R8.s:92680  .debug_str:0000000000011f16 .LASF8994
     /tmp/ccJdQ6R8.s:95440  .debug_str:000000000001d5cd .LASF8995
     /tmp/ccJdQ6R8.s:95014  .debug_str:000000000001b886 .LASF8996
     /tmp/ccJdQ6R8.s:107144  .debug_str:000000000004d3da .LASF8997
     /tmp/ccJdQ6R8.s:88500  .debug_str:0000000000000b7e .LASF8998
     /tmp/ccJdQ6R8.s:88620  .debug_str:00000000000013be .LASF8999
     /tmp/ccJdQ6R8.s:94656  .debug_str:0000000000019f76 .LASF9000
     /tmp/ccJdQ6R8.s:89786  .debug_str:00000000000064b3 .LASF9001
     /tmp/ccJdQ6R8.s:97264  .debug_str:0000000000024ced .LASF9002
     /tmp/ccJdQ6R8.s:103732  .debug_str:000000000003ee7d .LASF9003
     /tmp/ccJdQ6R8.s:94828  .debug_str:000000000001ab22 .LASF9004
     /tmp/ccJdQ6R8.s:98526  .debug_str:0000000000029f29 .LASF9005
     /tmp/ccJdQ6R8.s:94394  .debug_str:0000000000018ca7 .LASF9006
     /tmp/ccJdQ6R8.s:88622  .debug_str:00000000000013c9 .LASF9007
     /tmp/ccJdQ6R8.s:88652  .debug_str:0000000000001578 .LASF9008
     /tmp/ccJdQ6R8.s:101568  .debug_str:000000000003654e .LASF9009
     /tmp/ccJdQ6R8.s:95592  .debug_str:000000000001e06c .LASF9010
     /tmp/ccJdQ6R8.s:95594  .debug_str:000000000001e076 .LASF9011
     /tmp/ccJdQ6R8.s:95596  .debug_str:000000000001e080 .LASF9012
     /tmp/ccJdQ6R8.s:95598  .debug_str:000000000001e08a .LASF9013
     /tmp/ccJdQ6R8.s:95600  .debug_str:000000000001e094 .LASF9014
     /tmp/ccJdQ6R8.s:100676  .debug_str:0000000000032ae9 .LASF9015
     /tmp/ccJdQ6R8.s:95602  .debug_str:000000000001e09e .LASF9016
     /tmp/ccJdQ6R8.s:91774  .debug_str:000000000000e734 .LASF9017
     /tmp/ccJdQ6R8.s:91776  .debug_str:000000000000e73f .LASF9018
     /tmp/ccJdQ6R8.s:106654  .debug_str:000000000004b162 .LASF9019
     /tmp/ccJdQ6R8.s:103886  .debug_str:000000000003f9a7 .LASF9020
     /tmp/ccJdQ6R8.s:89918  .debug_str:0000000000006e2a .LASF9021
     /tmp/ccJdQ6R8.s:96572  .debug_str:0000000000022315 .LASF9022
     /tmp/ccJdQ6R8.s:90088  .debug_str:0000000000007937 .LASF9023
     /tmp/ccJdQ6R8.s:103888  .debug_str:000000000003f9b2 .LASF9024
     /tmp/ccJdQ6R8.s:102950  .debug_str:000000000003ba3a .LASF9025
     /tmp/ccJdQ6R8.s:88784  .debug_str:0000000000001f0e .LASF9026
     /tmp/ccJdQ6R8.s:94240  .debug_str:0000000000018245 .LASF9027
     /tmp/ccJdQ6R8.s:96894  .debug_str:000000000002393c .LASF9028
     /tmp/ccJdQ6R8.s:103148  .debug_str:000000000003c846 .LASF9029
     /tmp/ccJdQ6R8.s:102788  .debug_str:000000000003afb1 .LASF9030
     /tmp/ccJdQ6R8.s:88766  .debug_str:0000000000001dbd .LASF9031
     /tmp/ccJdQ6R8.s:92838  .debug_str:00000000000128ad .LASF9032
     /tmp/ccJdQ6R8.s:95816  .debug_str:000000000001efdd .LASF9033
     /tmp/ccJdQ6R8.s:96962  .debug_str:0000000000023d49 .LASF9034
     /tmp/ccJdQ6R8.s:92404  .debug_str:0000000000010cb2 .LASF9035
     /tmp/ccJdQ6R8.s:96964  .debug_str:0000000000023d54 .LASF9036
     /tmp/ccJdQ6R8.s:104574  .debug_str:00000000000427a0 .LASF9037
     /tmp/ccJdQ6R8.s:93326  .debug_str:0000000000014727 .LASF9038
     /tmp/ccJdQ6R8.s:106704  .debug_str:000000000004b5a6 .LASF9039
     /tmp/ccJdQ6R8.s:93328  .debug_str:0000000000014732 .LASF9040
     /tmp/ccJdQ6R8.s:100772  .debug_str:00000000000330f6 .LASF9041
     /tmp/ccJdQ6R8.s:93330  .debug_str:000000000001473d .LASF9042
     /tmp/ccJdQ6R8.s:94724  .debug_str:000000000001a485 .LASF9043
     /tmp/ccJdQ6R8.s:96286  .debug_str:000000000002115e .LASF9044
     /tmp/ccJdQ6R8.s:101720  .debug_str:0000000000036de2 .LASF9045
     /tmp/ccJdQ6R8.s:93122  .debug_str:0000000000013b31 .LASF9046
     /tmp/ccJdQ6R8.s:90320  .debug_str:0000000000008816 .LASF9047
     /tmp/ccJdQ6R8.s:93126  .debug_str:0000000000013b4c .LASF9048
     /tmp/ccJdQ6R8.s:103356  .debug_str:000000000003d552 .LASF9049
     /tmp/ccJdQ6R8.s:93458  .debug_str:0000000000014fc3 .LASF9050
     /tmp/ccJdQ6R8.s:104688  .debug_str:0000000000042f2a .LASF9051
     /tmp/ccJdQ6R8.s:101744  .debug_str:0000000000036f54 .LASF9052
     /tmp/ccJdQ6R8.s:98760  .debug_str:000000000002adfc .LASF9053
     /tmp/ccJdQ6R8.s:93466  .debug_str:0000000000015034 .LASF9054
     /tmp/ccJdQ6R8.s:104452  .debug_str:0000000000041f66 .LASF9055
     /tmp/ccJdQ6R8.s:99870  .debug_str:000000000002f635 .LASF9056
     /tmp/ccJdQ6R8.s:88604  .debug_str:0000000000001268 .LASF9057
     /tmp/ccJdQ6R8.s:94776  .debug_str:000000000001a7d8 .LASF9058
     /tmp/ccJdQ6R8.s:107154  .debug_str:000000000004d43f .LASF9059
     /tmp/ccJdQ6R8.s:94778  .debug_str:000000000001a7e3 .LASF9060
     /tmp/ccJdQ6R8.s:100410  .debug_str:00000000000319e8 .LASF9061
     /tmp/ccJdQ6R8.s:91008  .debug_str:000000000000b85b .LASF9062
     /tmp/ccJdQ6R8.s:90230  .debug_str:000000000000828f .LASF9063
     /tmp/ccJdQ6R8.s:91010  .debug_str:000000000000b866 .LASF9064
     /tmp/ccJdQ6R8.s:96656  .debug_str:00000000000228da .LASF9065
     /tmp/ccJdQ6R8.s:91012  .debug_str:000000000000b871 .LASF9066
     /tmp/ccJdQ6R8.s:90542  .debug_str:00000000000097e3 .LASF9067
     /tmp/ccJdQ6R8.s:103374  .debug_str:000000000003d69c .LASF9068
     /tmp/ccJdQ6R8.s:94488  .debug_str:000000000001931b .LASF9069
     /tmp/ccJdQ6R8.s:98084  .debug_str:0000000000028318 .LASF9070
     /tmp/ccJdQ6R8.s:98086  .debug_str:000000000002832c .LASF9071
     /tmp/ccJdQ6R8.s:98088  .debug_str:0000000000028340 .LASF9072
     /tmp/ccJdQ6R8.s:97122  .debug_str:0000000000024577 .LASF9073
     /tmp/ccJdQ6R8.s:97124  .debug_str:0000000000024588 .LASF9074
     /tmp/ccJdQ6R8.s:88800  .debug_str:0000000000002071 .LASF9075
     /tmp/ccJdQ6R8.s:97128  .debug_str:00000000000245c6 .LASF9076
     /tmp/ccJdQ6R8.s:97130  .debug_str:00000000000245d7 .LASF9077
     /tmp/ccJdQ6R8.s:90052  .debug_str:00000000000076c3 .LASF9078
     /tmp/ccJdQ6R8.s:97214  .debug_str:00000000000249c9 .LASF9079
     /tmp/ccJdQ6R8.s:93436  .debug_str:0000000000014df8 .LASF9080
     /tmp/ccJdQ6R8.s:93460  .debug_str:0000000000014fce .LASF9081
     /tmp/ccJdQ6R8.s:106566  .debug_str:000000000004aa86 .LASF9082
     /tmp/ccJdQ6R8.s:91904  .debug_str:000000000000eec2 .LASF9083
     /tmp/ccJdQ6R8.s:100516  .debug_str:000000000003211c .LASF9084
     /tmp/ccJdQ6R8.s:105784  .debug_str:000000000004760c .LASF9085
     /tmp/ccJdQ6R8.s:104502  .debug_str:0000000000042316 .LASF9086
     /tmp/ccJdQ6R8.s:92614  .debug_str:0000000000011ad1 .LASF9087
     /tmp/ccJdQ6R8.s:95208  .debug_str:000000000001c579 .LASF9088
     /tmp/ccJdQ6R8.s:98980  .debug_str:000000000002bc26 .LASF9089
     /tmp/ccJdQ6R8.s:101528  .debug_str:0000000000036244 .LASF9090
     /tmp/ccJdQ6R8.s:104418  .debug_str:0000000000041d89 .LASF9091
     /tmp/ccJdQ6R8.s:89458  .debug_str:0000000000004e89 .LASF9092
     /tmp/ccJdQ6R8.s:96404  .debug_str:0000000000021841 .LASF9093
     /tmp/ccJdQ6R8.s:94966  .debug_str:000000000001b52e .LASF9094
     /tmp/ccJdQ6R8.s:98784  .debug_str:000000000002af77 .LASF9095
     /tmp/ccJdQ6R8.s:97426  .debug_str:0000000000025624 .LASF9096
     /tmp/ccJdQ6R8.s:101180  .debug_str:0000000000034cab .LASF9097
     /tmp/ccJdQ6R8.s:90730  .debug_str:000000000000a414 .LASF9098
     /tmp/ccJdQ6R8.s:96632  .debug_str:000000000002271c .LASF9099
     /tmp/ccJdQ6R8.s:99888  .debug_str:000000000002f766 .LASF9100
     /tmp/ccJdQ6R8.s:95920  .debug_str:000000000001f7eb .LASF9101
     /tmp/ccJdQ6R8.s:102300  .debug_str:0000000000038df9 .LASF9102
     /tmp/ccJdQ6R8.s:102302  .debug_str:0000000000038e04 .LASF9103
     /tmp/ccJdQ6R8.s:102304  .debug_str:0000000000038e0f .LASF9104
     /tmp/ccJdQ6R8.s:102306  .debug_str:0000000000038e1a .LASF9105
     /tmp/ccJdQ6R8.s:89076  .debug_str:00000000000033f7 .LASF9106
     /tmp/ccJdQ6R8.s:95778  .debug_str:000000000001ed7f .LASF9107
     /tmp/ccJdQ6R8.s:101128  .debug_str:0000000000034943 .LASF9108
     /tmp/ccJdQ6R8.s:92282  .debug_str:000000000001043e .LASF9109
     /tmp/ccJdQ6R8.s:106812  .debug_str:000000000004bd3c .LASF9110
     /tmp/ccJdQ6R8.s:104792  .debug_str:000000000004358f .LASF9111
     /tmp/ccJdQ6R8.s:90548  .debug_str:000000000000983f .LASF9112
     /tmp/ccJdQ6R8.s:104312  .debug_str:00000000000416a5 .LASF9113
     /tmp/ccJdQ6R8.s:106178  .debug_str:0000000000049091 .LASF9114
     /tmp/ccJdQ6R8.s:103306  .debug_str:000000000003d1e8 .LASF9115
     /tmp/ccJdQ6R8.s:92310  .debug_str:00000000000106aa .LASF9116
     /tmp/ccJdQ6R8.s:94888  .debug_str:000000000001af26 .LASF9117
     /tmp/ccJdQ6R8.s:99600  .debug_str:000000000002e3f7 .LASF9118
     /tmp/ccJdQ6R8.s:93522  .debug_str:000000000001544e .LASF9119
     /tmp/ccJdQ6R8.s:98166  .debug_str:000000000002882c .LASF9120
     /tmp/ccJdQ6R8.s:101686  .debug_str:0000000000036b83 .LASF9121
     /tmp/ccJdQ6R8.s:105278  .debug_str:00000000000453ec .LASF9122
     /tmp/ccJdQ6R8.s:98554  .debug_str:000000000002a05a .LASF9123
     /tmp/ccJdQ6R8.s:94840  .debug_str:000000000001abb4 .LASF9124
     /tmp/ccJdQ6R8.s:105574  .debug_str:000000000004673c .LASF9125
     /tmp/ccJdQ6R8.s:99892  .debug_str:000000000002f79e .LASF9126
     /tmp/ccJdQ6R8.s:90668  .debug_str:0000000000009f7d .LASF9127
     /tmp/ccJdQ6R8.s:95988  .debug_str:000000000001fd5c .LASF9128
     /tmp/ccJdQ6R8.s:101386  .debug_str:00000000000359d2 .LASF9129
     /tmp/ccJdQ6R8.s:92144  .debug_str:000000000000fce3 .LASF9130
     /tmp/ccJdQ6R8.s:93178  .debug_str:0000000000013e86 .LASF9131
     /tmp/ccJdQ6R8.s:107242  .debug_str:000000000004da4c .LASF9132
     /tmp/ccJdQ6R8.s:103924  .debug_str:000000000003fbf6 .LASF9133
     /tmp/ccJdQ6R8.s:93036  .debug_str:0000000000013603 .LASF9134
     /tmp/ccJdQ6R8.s:88758  .debug_str:0000000000001d2b .LASF9135
     /tmp/ccJdQ6R8.s:103276  .debug_str:000000000003cfd5 .LASF9136
     /tmp/ccJdQ6R8.s:99110  .debug_str:000000000002c3b6 .LASF9137
     /tmp/ccJdQ6R8.s:94598  .debug_str:0000000000019b18 .LASF9138
     /tmp/ccJdQ6R8.s:90246  .debug_str:0000000000008352 .LASF9139
     /tmp/ccJdQ6R8.s:105022  .debug_str:00000000000443c8 .LASF9140
     /tmp/ccJdQ6R8.s:100634  .debug_str:0000000000032851 .LASF9141
     /tmp/ccJdQ6R8.s:96340  .debug_str:00000000000213d8 .LASF9142
     /tmp/ccJdQ6R8.s:91808  .debug_str:000000000000e910 .LASF9143
     /tmp/ccJdQ6R8.s:105250  .debug_str:000000000004520d .LASF9144
     /tmp/ccJdQ6R8.s:95000  .debug_str:000000000001b736 .LASF9145
     /tmp/ccJdQ6R8.s:90992  .debug_str:000000000000b731 .LASF9146
     /tmp/ccJdQ6R8.s:102108  .debug_str:0000000000038199 .LASF9147
     /tmp/ccJdQ6R8.s:88874  .debug_str:00000000000025c1 .LASF9148
     /tmp/ccJdQ6R8.s:97762  .debug_str:0000000000026ce8 .LASF9149
     /tmp/ccJdQ6R8.s:106718  .debug_str:000000000004b6db .LASF9150
     /tmp/ccJdQ6R8.s:96772  .debug_str:000000000002305a .LASF9151
     /tmp/ccJdQ6R8.s:105768  .debug_str:00000000000474e6 .LASF9152
     /tmp/ccJdQ6R8.s:95868  .debug_str:000000000001f40e .LASF9153
     /tmp/ccJdQ6R8.s:90904  .debug_str:000000000000b05c .LASF9154
     /tmp/ccJdQ6R8.s:99880  .debug_str:000000000002f6e9 .LASF9155
     /tmp/ccJdQ6R8.s:89504  .debug_str:0000000000005167 .LASF9156
     /tmp/ccJdQ6R8.s:98962  .debug_str:000000000002bb36 .LASF9157
     /tmp/ccJdQ6R8.s:96252  .debug_str:0000000000020f04 .LASF9158
     /tmp/ccJdQ6R8.s:105220  .debug_str:0000000000044ff6 .LASF9159
     /tmp/ccJdQ6R8.s:95274  .debug_str:000000000001ca0f .LASF9160
     /tmp/ccJdQ6R8.s:104072  .debug_str:000000000004068f .LASF9161
     /tmp/ccJdQ6R8.s:94170  .debug_str:0000000000017e85 .LASF9162
     /tmp/ccJdQ6R8.s:103158  .debug_str:000000000003c8da .LASF9163
     /tmp/ccJdQ6R8.s:98392  .debug_str:000000000002967e .LASF9164
     /tmp/ccJdQ6R8.s:88382  .debug_str:00000000000003b3 .LASF9165
     /tmp/ccJdQ6R8.s:94506  .debug_str:0000000000019439 .LASF9166
     /tmp/ccJdQ6R8.s:104870  .debug_str:0000000000043a2c .LASF9167
     /tmp/ccJdQ6R8.s:102434  .debug_str:000000000003971d .LASF9168
     /tmp/ccJdQ6R8.s:92774  .debug_str:0000000000012465 .LASF9169
     /tmp/ccJdQ6R8.s:103124  .debug_str:000000000003c694 .LASF9170
     /tmp/ccJdQ6R8.s:94562  .debug_str:0000000000019853 .LASF9171
     /tmp/ccJdQ6R8.s:89858  .debug_str:00000000000069f5 .LASF9172
     /tmp/ccJdQ6R8.s:102148  .debug_str:000000000003839d .LASF9173
     /tmp/ccJdQ6R8.s:96710  .debug_str:0000000000022ca5 .LASF9174
     /tmp/ccJdQ6R8.s:101862  .debug_str:00000000000374dc .LASF9175
     /tmp/ccJdQ6R8.s:93200  .debug_str:0000000000013fdb .LASF9176
     /tmp/ccJdQ6R8.s:99142  .debug_str:000000000002c5e2 .LASF9177
     /tmp/ccJdQ6R8.s:90364  .debug_str:0000000000008b94 .LASF9178
     /tmp/ccJdQ6R8.s:95668  .debug_str:000000000001e5ea .LASF9179
     /tmp/ccJdQ6R8.s:99220  .debug_str:000000000002cb66 .LASF9180
     /tmp/ccJdQ6R8.s:101066  .debug_str:0000000000034564 .LASF9181
     /tmp/ccJdQ6R8.s:105408  .debug_str:0000000000045ccd .LASF9182
     /tmp/ccJdQ6R8.s:88386  .debug_str:0000000000000417 .LASF9183
     /tmp/ccJdQ6R8.s:91434  .debug_str:000000000000d48c .LASF9184
     /tmp/ccJdQ6R8.s:105782  .debug_str:00000000000475f3 .LASF9185
     /tmp/ccJdQ6R8.s:107246  .debug_str:000000000004da7a .LASF9186
     /tmp/ccJdQ6R8.s:98754  .debug_str:000000000002ad79 .LASF9187
     /tmp/ccJdQ6R8.s:90020  .debug_str:00000000000074dd .LASF9188
     /tmp/ccJdQ6R8.s:93724  .debug_str:0000000000016095 .LASF9189
     /tmp/ccJdQ6R8.s:104408  .debug_str:0000000000041d0c .LASF9190
     /tmp/ccJdQ6R8.s:97470  .debug_str:0000000000025985 .LASF9191
     /tmp/ccJdQ6R8.s:101200  .debug_str:0000000000034ddd .LASF9192
     /tmp/ccJdQ6R8.s:99850  .debug_str:000000000002f4d5 .LASF9193
     /tmp/ccJdQ6R8.s:102970  .debug_str:000000000003bbc2 .LASF9194
     /tmp/ccJdQ6R8.s:89792  .debug_str:0000000000006505 .LASF9195
     /tmp/ccJdQ6R8.s:94160  .debug_str:0000000000017dfa .LASF9196
     /tmp/ccJdQ6R8.s:102830  .debug_str:000000000003b2ac .LASF9197
     /tmp/ccJdQ6R8.s:106960  .debug_str:000000000004c756 .LASF9198
     /tmp/ccJdQ6R8.s:89706  .debug_str:0000000000005f68 .LASF9199
     /tmp/ccJdQ6R8.s:104998  .debug_str:0000000000044275 .LASF9200
     /tmp/ccJdQ6R8.s:104506  .debug_str:000000000004236d .LASF9201
     /tmp/ccJdQ6R8.s:89120  .debug_str:0000000000003701 .LASF9202
     /tmp/ccJdQ6R8.s:94702  .debug_str:000000000001a2f7 .LASF9203
     /tmp/ccJdQ6R8.s:88370  .debug_str:00000000000002c3 .LASF9204
     /tmp/ccJdQ6R8.s:94256  .debug_str:00000000000182e8 .LASF9205
     /tmp/ccJdQ6R8.s:104160  .debug_str:0000000000040b3e .LASF9206
     /tmp/ccJdQ6R8.s:89796  .debug_str:0000000000006557 .LASF9207
     /tmp/ccJdQ6R8.s:94770  .debug_str:000000000001a751 .LASF9208
     /tmp/ccJdQ6R8.s:89046  .debug_str:0000000000003276 .LASF9209
     /tmp/ccJdQ6R8.s:94060  .debug_str:0000000000017747 .LASF9210
     /tmp/ccJdQ6R8.s:92276  .debug_str:00000000000103d7 .LASF9211
     /tmp/ccJdQ6R8.s:102740  .debug_str:000000000003acbe .LASF9212
     /tmp/ccJdQ6R8.s:94266  .debug_str:00000000000183c7 .LASF9213
     /tmp/ccJdQ6R8.s:104618  .debug_str:0000000000042adf .LASF9214
     /tmp/ccJdQ6R8.s:96092  .debug_str:00000000000203a0 .LASF9215
     /tmp/ccJdQ6R8.s:88498  .debug_str:0000000000000b68 .LASF9216
     /tmp/ccJdQ6R8.s:96478  .debug_str:0000000000021cd2 .LASF9217
     /tmp/ccJdQ6R8.s:102756  .debug_str:000000000003ad77 .LASF9218
     /tmp/ccJdQ6R8.s:90186  .debug_str:0000000000007f59 .LASF9219
     /tmp/ccJdQ6R8.s:93130  .debug_str:0000000000013b87 .LASF9220
     /tmp/ccJdQ6R8.s:90078  .debug_str:0000000000007889 .LASF9221
     /tmp/ccJdQ6R8.s:94014  .debug_str:0000000000017492 .LASF9222
     /tmp/ccJdQ6R8.s:101316  .debug_str:000000000003552c .LASF9223
     /tmp/ccJdQ6R8.s:91262  .debug_str:000000000000c8f0 .LASF9224
     /tmp/ccJdQ6R8.s:93664  .debug_str:0000000000015ce3 .LASF9225
     /tmp/ccJdQ6R8.s:103860  .debug_str:000000000003f825 .LASF9226
     /tmp/ccJdQ6R8.s:100196  .debug_str:0000000000030aa6 .LASF9227
     /tmp/ccJdQ6R8.s:96288  .debug_str:0000000000021168 .LASF9228
     /tmp/ccJdQ6R8.s:92292  .debug_str:0000000000010525 .LASF9229
     /tmp/ccJdQ6R8.s:105024  .debug_str:00000000000443f1 .LASF9230
     /tmp/ccJdQ6R8.s:103254  .debug_str:000000000003cf46 .LASF9231
     /tmp/ccJdQ6R8.s:106170  .debug_str:0000000000048fec .LASF9232
     /tmp/ccJdQ6R8.s:99980  .debug_str:000000000002fce6 .LASF9233
     /tmp/ccJdQ6R8.s:104800  .debug_str:00000000000435e1 .LASF9234
     /tmp/ccJdQ6R8.s:98258  .debug_str:0000000000028df2 .LASF9235
     /tmp/ccJdQ6R8.s:101456  .debug_str:0000000000035e13 .LASF9236
     /tmp/ccJdQ6R8.s:105844  .debug_str:0000000000047985 .LASF9237
     /tmp/ccJdQ6R8.s:96836  .debug_str:00000000000234f1 .LASF9238
     /tmp/ccJdQ6R8.s:107208  .debug_str:000000000004d823 .LASF9239
     /tmp/ccJdQ6R8.s:98712  .debug_str:000000000002aa55 .LASF9240
     /tmp/ccJdQ6R8.s:89972  .debug_str:000000000000717d .LASF9241
     /tmp/ccJdQ6R8.s:100440  .debug_str:0000000000031c00 .LASF9242
     /tmp/ccJdQ6R8.s:89596  .debug_str:00000000000058bd .LASF9243
     /tmp/ccJdQ6R8.s:102426  .debug_str:0000000000039695 .LASF9244
     /tmp/ccJdQ6R8.s:93752  .debug_str:00000000000162d0 .LASF9245
     /tmp/ccJdQ6R8.s:103270  .debug_str:000000000003cfb3 .LASF9246
     /tmp/ccJdQ6R8.s:95694  .debug_str:000000000001e7e0 .LASF9247
     /tmp/ccJdQ6R8.s:94050  .debug_str:000000000001767d .LASF9248
     /tmp/ccJdQ6R8.s:100498  .debug_str:0000000000031fd1 .LASF9249
     /tmp/ccJdQ6R8.s:91788  .debug_str:000000000000e7cb .LASF9250
     /tmp/ccJdQ6R8.s:102326  .debug_str:0000000000038fe1 .LASF9251
     /tmp/ccJdQ6R8.s:100274  .debug_str:00000000000310a5 .LASF9252
     /tmp/ccJdQ6R8.s:104132  .debug_str:00000000000409d4 .LASF9253
     /tmp/ccJdQ6R8.s:95572  .debug_str:000000000001df18 .LASF9254
     /tmp/ccJdQ6R8.s:105894  .debug_str:0000000000047ce7 .LASF9255
     /tmp/ccJdQ6R8.s:95286  .debug_str:000000000001caba .LASF9256
     /tmp/ccJdQ6R8.s:88908  .debug_str:000000000000286f .LASF9257
     /tmp/ccJdQ6R8.s:104206  .debug_str:0000000000040edc .LASF9258
     /tmp/ccJdQ6R8.s:90392  .debug_str:0000000000008d09 .LASF9259
     /tmp/ccJdQ6R8.s:106110  .debug_str:0000000000048bac .LASF9260
     /tmp/ccJdQ6R8.s:97580  .debug_str:00000000000260cd .LASF9261
     /tmp/ccJdQ6R8.s:88964  .debug_str:0000000000002c46 .LASF9262
     /tmp/ccJdQ6R8.s:99578  .debug_str:000000000002e2d1 .LASF9263
     /tmp/ccJdQ6R8.s:91482  .debug_str:000000000000d710 .LASF9264
     /tmp/ccJdQ6R8.s:92632  .debug_str:0000000000011c17 .LASF9265
     /tmp/ccJdQ6R8.s:92684  .debug_str:0000000000011f46 .LASF9266
     /tmp/ccJdQ6R8.s:103042  .debug_str:000000000003c0e5 .LASF9267
     /tmp/ccJdQ6R8.s:99640  .debug_str:000000000002e656 .LASF9268
     /tmp/ccJdQ6R8.s:90878  .debug_str:000000000000aea0 .LASF9269
     /tmp/ccJdQ6R8.s:101532  .debug_str:0000000000036274 .LASF9270
     /tmp/ccJdQ6R8.s:92904  .debug_str:0000000000012e01 .LASF9271
     /tmp/ccJdQ6R8.s:95036  .debug_str:000000000001b9ab .LASF9272
     /tmp/ccJdQ6R8.s:94684  .debug_str:000000000001a1a7 .LASF9273
     /tmp/ccJdQ6R8.s:105044  .debug_str:00000000000444f3 .LASF9274
     /tmp/ccJdQ6R8.s:96624  .debug_str:000000000002269d .LASF9275
     /tmp/ccJdQ6R8.s:106982  .debug_str:000000000004c913 .LASF9276
     /tmp/ccJdQ6R8.s:93140  .debug_str:0000000000013c6a .LASF9277
     /tmp/ccJdQ6R8.s:97162  .debug_str:00000000000247dc .LASF9278
     /tmp/ccJdQ6R8.s:105260  .debug_str:00000000000452a4 .LASF9279
     /tmp/ccJdQ6R8.s:96670  .debug_str:00000000000229db .LASF9280
     /tmp/ccJdQ6R8.s:107034  .debug_str:000000000004cc2b .LASF9281
     /tmp/ccJdQ6R8.s:98690  .debug_str:000000000002a946 .LASF9282
     /tmp/ccJdQ6R8.s:89954  .debug_str:00000000000070bd .LASF9283
     /tmp/ccJdQ6R8.s:100416  .debug_str:0000000000031a5f .LASF9284
     /tmp/ccJdQ6R8.s:91706  .debug_str:000000000000e48e .LASF9285
     /tmp/ccJdQ6R8.s:102228  .debug_str:0000000000038917 .LASF9286
     /tmp/ccJdQ6R8.s:93726  .debug_str:00000000000160af .LASF9287
     /tmp/ccJdQ6R8.s:90002  .debug_str:00000000000073b8 .LASF9288
     /tmp/ccJdQ6R8.s:100656  .debug_str:0000000000032976 .LASF9289
     /tmp/ccJdQ6R8.s:105958  .debug_str:000000000004811d .LASF9290
     /tmp/ccJdQ6R8.s:102450  .debug_str:000000000003987b .LASF9291
     /tmp/ccJdQ6R8.s:93784  .debug_str:00000000000164b6 .LASF9292
     /tmp/ccJdQ6R8.s:100750  .debug_str:0000000000032f28 .LASF9293
     /tmp/ccJdQ6R8.s:95726  .debug_str:000000000001e9eb .LASF9294
     /tmp/ccJdQ6R8.s:106030  .debug_str:00000000000485b7 .LASF9295
     /tmp/ccJdQ6R8.s:97510  .debug_str:0000000000025c1d .LASF9296
     /tmp/ccJdQ6R8.s:88880  .debug_str:0000000000002621 .LASF9297
     /tmp/ccJdQ6R8.s:104356  .debug_str:00000000000419a6 .LASF9298
     /tmp/ccJdQ6R8.s:95782  .debug_str:000000000001eda0 .LASF9299
     /tmp/ccJdQ6R8.s:106084  .debug_str:00000000000489e3 .LASF9300
     /tmp/ccJdQ6R8.s:95636  .debug_str:000000000001e327 .LASF9301
     /tmp/ccJdQ6R8.s:92148  .debug_str:000000000000fd0f .LASF9302
     /tmp/ccJdQ6R8.s:99014  .debug_str:000000000002be1b .LASF9303
     /tmp/ccJdQ6R8.s:92864  .debug_str:0000000000012b13 .LASF9304
     /tmp/ccJdQ6R8.s:105738  .debug_str:00000000000472f6 .LASF9305
     /tmp/ccJdQ6R8.s:99750  .debug_str:000000000002edae .LASF9306
     /tmp/ccJdQ6R8.s:94908  .debug_str:000000000001b0be .LASF9307
     /tmp/ccJdQ6R8.s:103832  .debug_str:000000000003f5f5 .LASF9308
     /tmp/ccJdQ6R8.s:102986  .debug_str:000000000003bcc1 .LASF9309
     /tmp/ccJdQ6R8.s:103388  .debug_str:000000000003d764 .LASF9310
     /tmp/ccJdQ6R8.s:100526  .debug_str:0000000000032199 .LASF9311
     /tmp/ccJdQ6R8.s:102286  .debug_str:0000000000038d0b .LASF9312
     /tmp/ccJdQ6R8.s:100528  .debug_str:00000000000321a3 .LASF9313
     /tmp/ccJdQ6R8.s:98160  .debug_str:00000000000287b9 .LASF9314
     /tmp/ccJdQ6R8.s:100530  .debug_str:00000000000321ad .LASF9315
     /tmp/ccJdQ6R8.s:105662  .debug_str:0000000000046d9b .LASF9316
     /tmp/ccJdQ6R8.s:100532  .debug_str:00000000000321b7 .LASF9317
     /tmp/ccJdQ6R8.s:98602  .debug_str:000000000002a3e9 .LASF9318
     /tmp/ccJdQ6R8.s:96942  .debug_str:0000000000023b1f .LASF9319
     /tmp/ccJdQ6R8.s:100450  .debug_str:0000000000031cac .LASF9320
     /tmp/ccJdQ6R8.s:100534  .debug_str:00000000000321c1 .LASF9321
     /tmp/ccJdQ6R8.s:102364  .debug_str:0000000000039244 .LASF9322
     /tmp/ccJdQ6R8.s:97014  .debug_str:0000000000023fbb .LASF9323
     /tmp/ccJdQ6R8.s:93104  .debug_str:0000000000013a18 .LASF9324
     /tmp/ccJdQ6R8.s:100536  .debug_str:00000000000321cb .LASF9325
     /tmp/ccJdQ6R8.s:103016  .debug_str:000000000003bef4 .LASF9326
     /tmp/ccJdQ6R8.s:97106  .debug_str:00000000000244d2 .LASF9327
     /tmp/ccJdQ6R8.s:104928  .debug_str:0000000000043e4a .LASF9328
     /tmp/ccJdQ6R8.s:90454  .debug_str:0000000000009157 .LASF9329
     /tmp/ccJdQ6R8.s:95888  .debug_str:000000000001f593 .LASF9330
     /tmp/ccJdQ6R8.s:97202  .debug_str:0000000000024910 .LASF9331
     /tmp/ccJdQ6R8.s:97790  .debug_str:0000000000026efb .LASF9332
     /tmp/ccJdQ6R8.s:100540  .debug_str:00000000000321e9 .LASF9333
     /tmp/ccJdQ6R8.s:100542  .debug_str:00000000000321f3 .LASF9334
     /tmp/ccJdQ6R8.s:96972  .debug_str:0000000000023de3 .LASF9335
     /tmp/ccJdQ6R8.s:88546  .debug_str:0000000000000ead .LASF9336
     /tmp/ccJdQ6R8.s:102936  .debug_str:000000000003b983 .LASF9337
     /tmp/ccJdQ6R8.s:92762  .debug_str:0000000000012395 .LASF9338
     /tmp/ccJdQ6R8.s:106372  .debug_str:0000000000049da9 .LASF9339
     /tmp/ccJdQ6R8.s:92836  .debug_str:000000000001289d .LASF9340
     /tmp/ccJdQ6R8.s:96034  .debug_str:000000000002004a .LASF9341
     /tmp/ccJdQ6R8.s:92920  .debug_str:0000000000012ef3 .LASF9342
     /tmp/ccJdQ6R8.s:96118  .debug_str:0000000000020581 .LASF9343
     /tmp/ccJdQ6R8.s:92990  .debug_str:00000000000132e7 .LASF9344
     /tmp/ccJdQ6R8.s:96190  .debug_str:0000000000020ad7 .LASF9345
     /tmp/ccJdQ6R8.s:93074  .debug_str:0000000000013818 .LASF9346
     /tmp/ccJdQ6R8.s:96264  .debug_str:0000000000021043 .LASF9347
     /tmp/ccJdQ6R8.s:104936  .debug_str:0000000000043e9a .LASF9348
     /tmp/ccJdQ6R8.s:103344  .debug_str:000000000003d4a8 .LASF9349
     /tmp/ccJdQ6R8.s:93190  .debug_str:0000000000013f4f .LASF9350
     /tmp/ccJdQ6R8.s:89770  .debug_str:0000000000006396 .LASF9351
     /tmp/ccJdQ6R8.s:102268  .debug_str:0000000000038bbe .LASF9352
     /tmp/ccJdQ6R8.s:105904  .debug_str:0000000000047d76 .LASF9353
     /tmp/ccJdQ6R8.s:105942  .debug_str:0000000000047fe3 .LASF9354
     /tmp/ccJdQ6R8.s:90074  .debug_str:000000000000783a .LASF9355
     /tmp/ccJdQ6R8.s:90472  .debug_str:00000000000092a1 .LASF9356
     /tmp/ccJdQ6R8.s:89970  .debug_str:0000000000007170 .LASF9357
     /tmp/ccJdQ6R8.s:106534  .debug_str:000000000004a8d1 .LASF9358
     /tmp/ccJdQ6R8.s:92688  .debug_str:0000000000011f7e .LASF9359
     /tmp/ccJdQ6R8.s:101206  .debug_str:0000000000034e24 .LASF9360
     /tmp/ccJdQ6R8.s:106092  .debug_str:0000000000048a69 .LASF9361
     /tmp/ccJdQ6R8.s:105048  .debug_str:000000000004452b .LASF9362
     /tmp/ccJdQ6R8.s:90776  .debug_str:000000000000a73d .LASF9363
     /tmp/ccJdQ6R8.s:101778  .debug_str:00000000000370db .LASF9364
     /tmp/ccJdQ6R8.s:93670  .debug_str:0000000000015d1c .LASF9365
     /tmp/ccJdQ6R8.s:95388  .debug_str:000000000001d1fb .LASF9366
     /tmp/ccJdQ6R8.s:94932  .debug_str:000000000001b271 .LASF9367
     /tmp/ccJdQ6R8.s:92898  .debug_str:0000000000012d91 .LASF9368
     /tmp/ccJdQ6R8.s:105280  .debug_str:000000000004540d .LASF9369
     /tmp/ccJdQ6R8.s:101510  .debug_str:00000000000360bd .LASF9370
     /tmp/ccJdQ6R8.s:96696  .debug_str:0000000000022ba5 .LASF9371
     /tmp/ccJdQ6R8.s:97414  .debug_str:0000000000025559 .LASF9372
     /tmp/ccJdQ6R8.s:106532  .debug_str:000000000004a8be .LASF9373
     /tmp/ccJdQ6R8.s:93318  .debug_str:00000000000146af .LASF9374
     /tmp/ccJdQ6R8.s:90264  .debug_str:0000000000008481 .LASF9408
     /tmp/ccJdQ6R8.s:92720  .debug_str:00000000000121b5 .LASF9375
     /tmp/ccJdQ6R8.s:101176  .debug_str:0000000000034c71 .LASF9376
     /tmp/ccJdQ6R8.s:92724  .debug_str:00000000000121da .LASF9377
     /tmp/ccJdQ6R8.s:106390  .debug_str:0000000000049edb .LASF9378
     /tmp/ccJdQ6R8.s:92728  .debug_str:00000000000121f9 .LASF9379
     /tmp/ccJdQ6R8.s:92730  .debug_str:0000000000012204 .LASF9380
     /tmp/ccJdQ6R8.s:92732  .debug_str:000000000001220f .LASF9381
     /tmp/ccJdQ6R8.s:92734  .debug_str:000000000001221a .LASF9382
     /tmp/ccJdQ6R8.s:92736  .debug_str:0000000000012225 .LASF9383
     /tmp/ccJdQ6R8.s:92738  .debug_str:0000000000012230 .LASF9384
     /tmp/ccJdQ6R8.s:105008  .debug_str:0000000000044338 .LASF9385
     /tmp/ccJdQ6R8.s:105010  .debug_str:0000000000044344 .LASF9386
     /tmp/ccJdQ6R8.s:99268  .debug_str:000000000002ced3 .LASF9387
     /tmp/ccJdQ6R8.s:99270  .debug_str:000000000002cedf .LASF9388
     /tmp/ccJdQ6R8.s:99272  .debug_str:000000000002ceeb .LASF9389
     /tmp/ccJdQ6R8.s:99274  .debug_str:000000000002cef7 .LASF9390
     /tmp/ccJdQ6R8.s:99276  .debug_str:000000000002cf03 .LASF9391
     /tmp/ccJdQ6R8.s:99278  .debug_str:000000000002cf0f .LASF9392
     /tmp/ccJdQ6R8.s:105020  .debug_str:00000000000443bc .LASF9393
     /tmp/ccJdQ6R8.s:99282  .debug_str:000000000002cf4f .LASF9394
     /tmp/ccJdQ6R8.s:99348  .debug_str:000000000002d37e .LASF9395
     /tmp/ccJdQ6R8.s:99350  .debug_str:000000000002d38a .LASF9396
     /tmp/ccJdQ6R8.s:99352  .debug_str:000000000002d396 .LASF9397
     /tmp/ccJdQ6R8.s:99354  .debug_str:000000000002d3a2 .LASF9398
     /tmp/ccJdQ6R8.s:99356  .debug_str:000000000002d3ae .LASF9399
     /tmp/ccJdQ6R8.s:105164  .debug_str:0000000000044d01 .LASF9400
     /tmp/ccJdQ6R8.s:99360  .debug_str:000000000002d3e1 .LASF9401
     /tmp/ccJdQ6R8.s:99362  .debug_str:000000000002d3ed .LASF9402
     /tmp/ccJdQ6R8.s:99364  .debug_str:000000000002d3f9 .LASF9403
     /tmp/ccJdQ6R8.s:105170  .debug_str:0000000000044d64 .LASF9404
     /tmp/ccJdQ6R8.s:99420  .debug_str:000000000002d7c5 .LASF9405
     /tmp/ccJdQ6R8.s:105304  .debug_str:0000000000045593 .LASF9406
     /tmp/ccJdQ6R8.s:100876  .debug_str:00000000000337a7 .LASF9407
     /tmp/ccJdQ6R8.s:104434  .debug_str:0000000000041e4d .LASF9409
     /tmp/ccJdQ6R8.s:104898  .debug_str:0000000000043c19 .LASF9410
     /tmp/ccJdQ6R8.s:95838  .debug_str:000000000001f18f .LASF9411
     /tmp/ccJdQ6R8.s:93124  .debug_str:0000000000013b3c .LASF9412
     /tmp/ccJdQ6R8.s:106930  .debug_str:000000000004c561 .LASF9413
     /tmp/ccJdQ6R8.s:106800  .debug_str:000000000004bc47 .LASF9414
     /tmp/ccJdQ6R8.s:96434  .debug_str:0000000000021a04 .LASF9415
     /tmp/ccJdQ6R8.s:96436  .debug_str:0000000000021a14 .LASF9416
     /tmp/ccJdQ6R8.s:96438  .debug_str:0000000000021a24 .LASF9417
     /tmp/ccJdQ6R8.s:96440  .debug_str:0000000000021a34 .LASF9418
     /tmp/ccJdQ6R8.s:98942  .debug_str:000000000002ba03 .LASF9419
     /tmp/ccJdQ6R8.s:106750  .debug_str:000000000004b900 .LASF9420
     /tmp/ccJdQ6R8.s:99470  .debug_str:000000000002da9f .LASF9421
     /tmp/ccJdQ6R8.s:93596  .debug_str:000000000001584f .LASF9422
     /tmp/ccJdQ6R8.s:105766  .debug_str:00000000000474de .LASF9423
     /tmp/ccJdQ6R8.s:105984  .debug_str:00000000000482b6 .LASF9424
     /tmp/ccJdQ6R8.s:98672  .debug_str:000000000002a83a .LASF9425
     /tmp/ccJdQ6R8.s:92758  .debug_str:000000000001234d .LASF9426
     /tmp/ccJdQ6R8.s:98590  .debug_str:000000000002a35f .LASF9427
     /tmp/ccJdQ6R8.s:99454  .debug_str:000000000002d9e8 .LASF9428
     /tmp/ccJdQ6R8.s:91200  .debug_str:000000000000c4ea .LASF9429
     /tmp/ccJdQ6R8.s:105660  .debug_str:0000000000046d8b .LASF9432
     /tmp/ccJdQ6R8.s:102182  .debug_str:00000000000385c2 .LASF9457
     /tmp/ccJdQ6R8.s:1647   .text.gpio_number_validate:0000000000000000 .LFB34
     /tmp/ccJdQ6R8.s:1730   .text.gpio_number_validate:00000000000000aa .LFE34
     /tmp/ccJdQ6R8.s:90086  .debug_str:0000000000007932 .LASF9430
     /tmp/ccJdQ6R8.s:99062  .debug_str:000000000002c0ed .LASF9431
     /tmp/ccJdQ6R8.s:99970  .debug_str:000000000002fc6f .LASF9434
     /tmp/ccJdQ6R8.s:1584   .text.MSS_GPIO_clear_irq:0000000000000000 .LFB33
     /tmp/ccJdQ6R8.s:1641   .text.MSS_GPIO_clear_irq:0000000000000050 .LFE33
     /tmp/ccJdQ6R8.s:107088  .debug_str:000000000004cfcb .LASF9433
     /tmp/ccJdQ6R8.s:104842  .debug_str:0000000000043854 .LASF9435
     /tmp/ccJdQ6R8.s:1505   .text.MSS_GPIO_disable_nondirect_irq:0000000000000000 .LFB32
     /tmp/ccJdQ6R8.s:1577   .text.MSS_GPIO_disable_nondirect_irq:000000000000008a .LFE32
     /tmp/ccJdQ6R8.s:95696  .debug_str:000000000001e7f6 .LASF9436
     /tmp/ccJdQ6R8.s:1426   .text.MSS_GPIO_enable_nondirect_irq:0000000000000000 .LFB31
     /tmp/ccJdQ6R8.s:1498   .text.MSS_GPIO_enable_nondirect_irq:000000000000008a .LFE31
     /tmp/ccJdQ6R8.s:100914  .debug_str:0000000000033a6a .LASF9437
     /tmp/ccJdQ6R8.s:1287   .text.MSS_GPIO_disable_irq:0000000000000000 .LFB30
     /tmp/ccJdQ6R8.s:1419   .text.MSS_GPIO_disable_irq:0000000000000108 .LFE30
     /tmp/ccJdQ6R8.s:94004  .debug_str:0000000000017434 .LASF9438
     /tmp/ccJdQ6R8.s:105360  .debug_str:00000000000459ca .LASF9439
     /tmp/ccJdQ6R8.s:1143   .text.MSS_GPIO_enable_irq:0000000000000000 .LFB29
     /tmp/ccJdQ6R8.s:1280   .text.MSS_GPIO_enable_irq:000000000000011a .LFE29
     /tmp/ccJdQ6R8.s:106956  .debug_str:000000000004c726 .LASF9440
     /tmp/ccJdQ6R8.s:990    .text.MSS_GPIO_drive_inout:0000000000000000 .LFB28
     /tmp/ccJdQ6R8.s:1136   .text.MSS_GPIO_drive_inout:0000000000000128 .LFE28
     /tmp/ccJdQ6R8.s:97938  .debug_str:0000000000027902 .LASF9441
     /tmp/ccJdQ6R8.s:106736  .debug_str:000000000004b832 .LASF9442
     /tmp/ccJdQ6R8.s:93620  .debug_str:0000000000015988 .LASF9443
     /tmp/ccJdQ6R8.s:914    .text.MSS_GPIO_set_output:0000000000000000 .LFB27
     /tmp/ccJdQ6R8.s:983    .text.MSS_GPIO_set_output:0000000000000076 .LFE27
     /tmp/ccJdQ6R8.s:94864  .debug_str:000000000001ad53 .LASF9444
     /tmp/ccJdQ6R8.s:95706  .debug_str:000000000001e891 .LASF9445
     /tmp/ccJdQ6R8.s:882    .text.MSS_GPIO_config_all:0000000000000000 .LFB26
     /tmp/ccJdQ6R8.s:907    .text.MSS_GPIO_config_all:0000000000000024 .LFE26
     /tmp/ccJdQ6R8.s:106236  .debug_str:0000000000049497 .LASF9446
     /tmp/ccJdQ6R8.s:777    .text.MSS_GPIO_config_byte:0000000000000000 .LFB25
     /tmp/ccJdQ6R8.s:875    .text.MSS_GPIO_config_byte:00000000000000ae .LFE25
     /tmp/ccJdQ6R8.s:102744  .debug_str:000000000003ad05 .LASF9447
     /tmp/ccJdQ6R8.s:95204  .debug_str:000000000001c526 .LASF9448
     /tmp/ccJdQ6R8.s:717    .text.MSS_GPIO_config:0000000000000000 .LFB24
     /tmp/ccJdQ6R8.s:770    .text.MSS_GPIO_config:0000000000000050 .LFE24
     /tmp/ccJdQ6R8.s:99328  .debug_str:000000000002d1ff .LASF9449
     /tmp/ccJdQ6R8.s:686    .text.MSS_GPIO_init:0000000000000000 .LFB23
     /tmp/ccJdQ6R8.s:710    .text.MSS_GPIO_init:000000000000001c .LFE23
     /tmp/ccJdQ6R8.s:106732  .debug_str:000000000004b800 .LASF9458
     /tmp/ccJdQ6R8.s:319    .text.PLIC_DisableIRQ:0000000000000000 .LFB8
     /tmp/ccJdQ6R8.s:633    .text.PLIC_DisableIRQ:000000000000028e .LFE8
     /tmp/ccJdQ6R8.s:106560  .debug_str:000000000004aa41 .LASF9450
     /tmp/ccJdQ6R8.s:103170  .debug_str:000000000003c965 .LASF9451
     /tmp/ccJdQ6R8.s:94594  .debug_str:0000000000019ac2 .LASF9452
     /tmp/ccJdQ6R8.s:330    .text.PLIC_DisableIRQ:000000000000000c .LBB3
     /tmp/ccJdQ6R8.s:339    .text.PLIC_DisableIRQ:0000000000000018 .LBE3
     /tmp/ccJdQ6R8.s:99550  .debug_str:000000000002e0bd .LASF9453
     /tmp/ccJdQ6R8.s:99822  .debug_str:000000000002f2e7 .LASF9459
     /tmp/ccJdQ6R8.s:13     .text.PLIC_EnableIRQ:0000000000000000 .LFB7
     /tmp/ccJdQ6R8.s:313    .text.PLIC_EnableIRQ:0000000000000270 .LFE7
     /tmp/ccJdQ6R8.s:25     .text.PLIC_EnableIRQ:000000000000000c .LBB2
     /tmp/ccJdQ6R8.s:34     .text.PLIC_EnableIRQ:0000000000000018 .LBE2
     /tmp/ccJdQ6R8.s:1743   .debug_info:0000000000000000 .Ldebug_info0
     /tmp/ccJdQ6R8.s:70940  .debug_macro:0000000000000000 .Ldebug_macro2
     /tmp/ccJdQ6R8.s:98050  .debug_str:0000000000028104 .LASF324
     /tmp/ccJdQ6R8.s:71917  .debug_macro:0000000000000000 .Ldebug_macro3
     /tmp/ccJdQ6R8.s:72081  .debug_macro:0000000000000000 .Ldebug_macro4
     /tmp/ccJdQ6R8.s:94704  .debug_str:000000000001a30e .LASF383
     /tmp/ccJdQ6R8.s:103604  .debug_str:000000000003e540 .LASF384
     /tmp/ccJdQ6R8.s:101272  .debug_str:00000000000352eb .LASF385
     /tmp/ccJdQ6R8.s:72101  .debug_macro:0000000000000000 .Ldebug_macro5
     /tmp/ccJdQ6R8.s:72121  .debug_macro:0000000000000000 .Ldebug_macro6
     /tmp/ccJdQ6R8.s:72186  .debug_macro:0000000000000000 .Ldebug_macro7
     /tmp/ccJdQ6R8.s:72227  .debug_macro:0000000000000000 .Ldebug_macro8
     /tmp/ccJdQ6R8.s:72349  .debug_macro:0000000000000000 .Ldebug_macro9
     /tmp/ccJdQ6R8.s:72405  .debug_macro:0000000000000000 .Ldebug_macro10
     /tmp/ccJdQ6R8.s:94330  .debug_str:000000000001882c .LASF539
     /tmp/ccJdQ6R8.s:72617  .debug_macro:0000000000000000 .Ldebug_macro11
     /tmp/ccJdQ6R8.s:72628  .debug_macro:0000000000000000 .Ldebug_macro12
     /tmp/ccJdQ6R8.s:74427  .debug_macro:0000000000000000 .Ldebug_macro13
     /tmp/ccJdQ6R8.s:95410  .debug_str:000000000001d3d4 .LASF1162
     /tmp/ccJdQ6R8.s:74498  .debug_macro:0000000000000000 .Ldebug_macro14
     /tmp/ccJdQ6R8.s:103512  .debug_str:000000000003df7f .LASF3353
     /tmp/ccJdQ6R8.s:81073  .debug_macro:0000000000000000 .Ldebug_macro15
     /tmp/ccJdQ6R8.s:81090  .debug_macro:0000000000000000 .Ldebug_macro16
     /tmp/ccJdQ6R8.s:81113  .debug_macro:0000000000000000 .Ldebug_macro17
     /tmp/ccJdQ6R8.s:81130  .debug_macro:0000000000000000 .Ldebug_macro18
     /tmp/ccJdQ6R8.s:81159  .debug_macro:0000000000000000 .Ldebug_macro19
     /tmp/ccJdQ6R8.s:81218  .debug_macro:0000000000000000 .Ldebug_macro20
     /tmp/ccJdQ6R8.s:81241  .debug_macro:0000000000000000 .Ldebug_macro21
     /tmp/ccJdQ6R8.s:81300  .debug_macro:0000000000000000 .Ldebug_macro22
     /tmp/ccJdQ6R8.s:84059  .debug_macro:0000000000000000 .Ldebug_macro23
     /tmp/ccJdQ6R8.s:84103  .debug_macro:0000000000000000 .Ldebug_macro24
     /tmp/ccJdQ6R8.s:84189  .debug_macro:0000000000000000 .Ldebug_macro25
     /tmp/ccJdQ6R8.s:84218  .debug_macro:0000000000000000 .Ldebug_macro26
     /tmp/ccJdQ6R8.s:84277  .debug_macro:0000000000000000 .Ldebug_macro27
     /tmp/ccJdQ6R8.s:84339  .debug_macro:0000000000000000 .Ldebug_macro28
     /tmp/ccJdQ6R8.s:84401  .debug_macro:0000000000000000 .Ldebug_macro29
     /tmp/ccJdQ6R8.s:84463  .debug_macro:0000000000000000 .Ldebug_macro30
     /tmp/ccJdQ6R8.s:84525  .debug_macro:0000000000000000 .Ldebug_macro31
     /tmp/ccJdQ6R8.s:84587  .debug_macro:0000000000000000 .Ldebug_macro32
     /tmp/ccJdQ6R8.s:84643  .debug_macro:0000000000000000 .Ldebug_macro33
     /tmp/ccJdQ6R8.s:84699  .debug_macro:0000000000000000 .Ldebug_macro34
     /tmp/ccJdQ6R8.s:84731  .debug_macro:0000000000000000 .Ldebug_macro35
     /tmp/ccJdQ6R8.s:84751  .debug_macro:0000000000000000 .Ldebug_macro36
     /tmp/ccJdQ6R8.s:84783  .debug_macro:0000000000000000 .Ldebug_macro37
     /tmp/ccJdQ6R8.s:84815  .debug_macro:0000000000000000 .Ldebug_macro38
     /tmp/ccJdQ6R8.s:84835  .debug_macro:0000000000000000 .Ldebug_macro39
     /tmp/ccJdQ6R8.s:84855  .debug_macro:0000000000000000 .Ldebug_macro40
     /tmp/ccJdQ6R8.s:84887  .debug_macro:0000000000000000 .Ldebug_macro41
     /tmp/ccJdQ6R8.s:84901  .debug_macro:0000000000000000 .Ldebug_macro42
     /tmp/ccJdQ6R8.s:85002  .debug_macro:0000000000000000 .Ldebug_macro43
     /tmp/ccJdQ6R8.s:85019  .debug_macro:0000000000000000 .Ldebug_macro44
     /tmp/ccJdQ6R8.s:85057  .debug_macro:0000000000000000 .Ldebug_macro45
     /tmp/ccJdQ6R8.s:85080  .debug_macro:0000000000000000 .Ldebug_macro46
     /tmp/ccJdQ6R8.s:85208  .debug_macro:0000000000000000 .Ldebug_macro47
     /tmp/ccJdQ6R8.s:85222  .debug_macro:0000000000000000 .Ldebug_macro48
     /tmp/ccJdQ6R8.s:85236  .debug_macro:0000000000000000 .Ldebug_macro49
     /tmp/ccJdQ6R8.s:85292  .debug_macro:0000000000000000 .Ldebug_macro50
     /tmp/ccJdQ6R8.s:86407  .debug_macro:0000000000000000 .Ldebug_macro51
     /tmp/ccJdQ6R8.s:86439  .debug_macro:0000000000000000 .Ldebug_macro52
     /tmp/ccJdQ6R8.s:86459  .debug_macro:0000000000000000 .Ldebug_macro53
     /tmp/ccJdQ6R8.s:86503  .debug_macro:0000000000000000 .Ldebug_macro54
     /tmp/ccJdQ6R8.s:86550  .debug_macro:0000000000000000 .Ldebug_macro55
     /tmp/ccJdQ6R8.s:86597  .debug_macro:0000000000000000 .Ldebug_macro56
     /tmp/ccJdQ6R8.s:86632  .debug_macro:0000000000000000 .Ldebug_macro57
     /tmp/ccJdQ6R8.s:86655  .debug_macro:0000000000000000 .Ldebug_macro58
     /tmp/ccJdQ6R8.s:88428  .debug_str:0000000000000700 .LASF5147
     /tmp/ccJdQ6R8.s:86672  .debug_macro:0000000000000000 .Ldebug_macro59
     /tmp/ccJdQ6R8.s:105632  .debug_str:0000000000046b96 .LASF5302
     /tmp/ccJdQ6R8.s:87139  .debug_macro:0000000000000000 .Ldebug_macro60
     /tmp/ccJdQ6R8.s:87156  .debug_macro:0000000000000000 .Ldebug_macro61
     /tmp/ccJdQ6R8.s:87170  .debug_macro:0000000000000000 .Ldebug_macro62
     /tmp/ccJdQ6R8.s:87487  .debug_macro:0000000000000000 .Ldebug_macro63
     /tmp/ccJdQ6R8.s:87507  .debug_macro:0000000000000000 .Ldebug_macro64
     /tmp/ccJdQ6R8.s:99206  .debug_str:000000000002ca4d .LASF5458
     /tmp/ccJdQ6R8.s:87629  .debug_macro:0000000000000000 .Ldebug_macro65
     /tmp/ccJdQ6R8.s:87691  .debug_macro:0000000000000000 .Ldebug_macro66
     /tmp/ccJdQ6R8.s:97886  .debug_str:0000000000027504 .LASF5480
     /tmp/ccJdQ6R8.s:87702  .debug_macro:0000000000000000 .Ldebug_macro67
     /tmp/ccJdQ6R8.s:87731  .debug_macro:0000000000000000 .Ldebug_macro68
     /tmp/ccJdQ6R8.s:102356  .debug_str:0000000000039207 .LASF5505
     /tmp/ccJdQ6R8.s:87784  .debug_macro:0000000000000000 .Ldebug_macro69
     /tmp/ccJdQ6R8.s:106402  .debug_str:0000000000049f71 .LASF5525
     /tmp/ccJdQ6R8.s:87846  .debug_macro:0000000000000000 .Ldebug_macro70
     /tmp/ccJdQ6R8.s:87914  .debug_macro:0000000000000000 .Ldebug_macro71
     /tmp/ccJdQ6R8.s:87937  .debug_macro:0000000000000000 .Ldebug_macro72
     /tmp/ccJdQ6R8.s:88017  .debug_macro:0000000000000000 .Ldebug_macro73
     /tmp/ccJdQ6R8.s:88148  .debug_macro:0000000000000000 .Ldebug_macro74
     /tmp/ccJdQ6R8.s:88168  .debug_macro:0000000000000000 .Ldebug_macro75
     /tmp/ccJdQ6R8.s:88182  .debug_macro:0000000000000000 .Ldebug_macro76
     /tmp/ccJdQ6R8.s:98886  .debug_str:000000000002b615 .LASF5675
     /tmp/ccJdQ6R8.s:102712  .debug_str:000000000003aadc .LASF5676
     /tmp/ccJdQ6R8.s:100724  .debug_str:0000000000032db2 .LASF5677
     /tmp/ccJdQ6R8.s:106650  .debug_str:000000000004b0e8 .LASF5678
     /tmp/ccJdQ6R8.s:101942  .debug_str:00000000000378ef .LASF5679
     /tmp/ccJdQ6R8.s:96566  .debug_str:00000000000222bf .LASF5680
     /tmp/ccJdQ6R8.s:93054  .debug_str:0000000000013726 .LASF0
     /tmp/ccJdQ6R8.s:99742  .debug_str:000000000002ed4b .LASF1
     /tmp/ccJdQ6R8.s:96974  .debug_str:0000000000023dea .LASF2
     /tmp/ccJdQ6R8.s:97040  .debug_str:0000000000024158 .LASF3
     /tmp/ccJdQ6R8.s:91600  .debug_str:000000000000de9f .LASF4
     /tmp/ccJdQ6R8.s:91778  .debug_str:000000000000e74a .LASF5
     /tmp/ccJdQ6R8.s:102288  .debug_str:0000000000038d1b .LASF6
     /tmp/ccJdQ6R8.s:90536  .debug_str:000000000000978e .LASF7
     /tmp/ccJdQ6R8.s:88900  .debug_str:000000000000280d .LASF8
     /tmp/ccJdQ6R8.s:88594  .debug_str:00000000000011eb .LASF9
     /tmp/ccJdQ6R8.s:101820  .debug_str:000000000003737e .LASF10
     /tmp/ccJdQ6R8.s:105444  .debug_str:0000000000045f20 .LASF11
     /tmp/ccJdQ6R8.s:99440  .debug_str:000000000002d8f3 .LASF12
     /tmp/ccJdQ6R8.s:95202  .debug_str:000000000001c513 .LASF13
     /tmp/ccJdQ6R8.s:91348  .debug_str:000000000000cee8 .LASF14
     /tmp/ccJdQ6R8.s:90566  .debug_str:000000000000993c .LASF15
     /tmp/ccJdQ6R8.s:104530  .debug_str:00000000000424d6 .LASF16
     /tmp/ccJdQ6R8.s:102916  .debug_str:000000000003b80e .LASF17
     /tmp/ccJdQ6R8.s:94176  .debug_str:0000000000017f1e .LASF18
     /tmp/ccJdQ6R8.s:105398  .debug_str:0000000000045c46 .LASF19
     /tmp/ccJdQ6R8.s:105130  .debug_str:0000000000044ab6 .LASF20
     /tmp/ccJdQ6R8.s:96318  .debug_str:00000000000212e0 .LASF21
     /tmp/ccJdQ6R8.s:89892  .debug_str:0000000000006c8f .LASF22
     /tmp/ccJdQ6R8.s:91716  .debug_str:000000000000e509 .LASF23
     /tmp/ccJdQ6R8.s:103928  .debug_str:000000000003fc22 .LASF24
     /tmp/ccJdQ6R8.s:102214  .debug_str:00000000000387fd .LASF25
     /tmp/ccJdQ6R8.s:91254  .debug_str:000000000000c853 .LASF26
     /tmp/ccJdQ6R8.s:90300  .debug_str:00000000000086e3 .LASF27
     /tmp/ccJdQ6R8.s:103804  .debug_str:000000000003f3a0 .LASF28
     /tmp/ccJdQ6R8.s:102098  .debug_str:00000000000380ea .LASF29
     /tmp/ccJdQ6R8.s:93884  .debug_str:0000000000016b76 .LASF30
     /tmp/ccJdQ6R8.s:101212  .debug_str:0000000000034e61 .LASF31
     /tmp/ccJdQ6R8.s:94856  .debug_str:000000000001aca7 .LASF32
     /tmp/ccJdQ6R8.s:98878  .debug_str:000000000002b5ad .LASF33
     /tmp/ccJdQ6R8.s:98560  .debug_str:000000000002a0c8 .LASF34
     /tmp/ccJdQ6R8.s:91082  .debug_str:000000000000bcf2 .LASF35
     /tmp/ccJdQ6R8.s:93282  .debug_str:0000000000014416 .LASF36
     /tmp/ccJdQ6R8.s:97770  .debug_str:0000000000026d71 .LASF37
     /tmp/ccJdQ6R8.s:107132  .debug_str:000000000004d2e4 .LASF38
     /tmp/ccJdQ6R8.s:95314  .debug_str:000000000001cc9b .LASF39
     /tmp/ccJdQ6R8.s:97970  .debug_str:0000000000027af3 .LASF40
     /tmp/ccJdQ6R8.s:93242  .debug_str:000000000001426e .LASF41
     /tmp/ccJdQ6R8.s:89760  .debug_str:00000000000062c8 .LASF42
     /tmp/ccJdQ6R8.s:102704  .debug_str:000000000003aa38 .LASF43
     /tmp/ccJdQ6R8.s:89052  .debug_str:00000000000032d8 .LASF44
     /tmp/ccJdQ6R8.s:103674  .debug_str:000000000003e9df .LASF45
     /tmp/ccJdQ6R8.s:89730  .debug_str:00000000000060cd .LASF46
     /tmp/ccJdQ6R8.s:102210  .debug_str:00000000000387c6 .LASF47
     /tmp/ccJdQ6R8.s:99166  .debug_str:000000000002c7e9 .LASF48
     /tmp/ccJdQ6R8.s:95460  .debug_str:000000000001d778 .LASF49
     /tmp/ccJdQ6R8.s:91088  .debug_str:000000000000bd49 .LASF50
     /tmp/ccJdQ6R8.s:89952  .debug_str:000000000000709d .LASF51
     /tmp/ccJdQ6R8.s:94268  .debug_str:00000000000183df .LASF52
     /tmp/ccJdQ6R8.s:100956  .debug_str:0000000000033d30 .LASF53
     /tmp/ccJdQ6R8.s:88744  .debug_str:0000000000001c5b .LASF54
     /tmp/ccJdQ6R8.s:91210  .debug_str:000000000000c592 .LASF55
     /tmp/ccJdQ6R8.s:105128  .debug_str:0000000000044a8d .LASF56
     /tmp/ccJdQ6R8.s:103566  .debug_str:000000000003e2d0 .LASF57
     /tmp/ccJdQ6R8.s:106272  .debug_str:00000000000496f3 .LASF58
     /tmp/ccJdQ6R8.s:104748  .debug_str:00000000000432d8 .LASF59
     /tmp/ccJdQ6R8.s:99130  .debug_str:000000000002c539 .LASF60
     /tmp/ccJdQ6R8.s:104810  .debug_str:00000000000436b6 .LASF61
     /tmp/ccJdQ6R8.s:98092  .debug_str:000000000002836f .LASF62
     /tmp/ccJdQ6R8.s:103462  .debug_str:000000000003dc7b .LASF63
     /tmp/ccJdQ6R8.s:97448  .debug_str:00000000000257b9 .LASF64
     /tmp/ccJdQ6R8.s:98782  .debug_str:000000000002af55 .LASF65
     /tmp/ccJdQ6R8.s:100142  .debug_str:0000000000030727 .LASF66
     /tmp/ccJdQ6R8.s:95510  .debug_str:000000000001dabe .LASF67
     /tmp/ccJdQ6R8.s:104874  .debug_str:0000000000043a77 .LASF68
     /tmp/ccJdQ6R8.s:102596  .debug_str:000000000003a238 .LASF69
     /tmp/ccJdQ6R8.s:107134  .debug_str:000000000004d2fd .LASF70
     /tmp/ccJdQ6R8.s:93796  .debug_str:000000000001657c .LASF71
     /tmp/ccJdQ6R8.s:88848  .debug_str:00000000000023a6 .LASF72
     /tmp/ccJdQ6R8.s:105348  .debug_str:00000000000458ce .LASF73
     /tmp/ccJdQ6R8.s:97346  .debug_str:0000000000025123 .LASF74
     /tmp/ccJdQ6R8.s:93842  .debug_str:000000000001683b .LASF75
     /tmp/ccJdQ6R8.s:96674  .debug_str:00000000000229fd .LASF76
     /tmp/ccJdQ6R8.s:90342  .debug_str:00000000000089ef .LASF77
     /tmp/ccJdQ6R8.s:100354  .debug_str:0000000000031679 .LASF78
     /tmp/ccJdQ6R8.s:98460  .debug_str:0000000000029a8a .LASF79
     /tmp/ccJdQ6R8.s:99902  .debug_str:000000000002f838 .LASF80
     /tmp/ccJdQ6R8.s:93026  .debug_str:0000000000013523 .LASF81
     /tmp/ccJdQ6R8.s:90514  .debug_str:00000000000095d5 .LASF82
     /tmp/ccJdQ6R8.s:90544  .debug_str:000000000000980a .LASF83
     /tmp/ccJdQ6R8.s:92216  .debug_str:00000000000100d3 .LASF84
     /tmp/ccJdQ6R8.s:98826  .debug_str:000000000002b1ec .LASF85
     /tmp/ccJdQ6R8.s:89296  .debug_str:0000000000004382 .LASF86
     /tmp/ccJdQ6R8.s:97020  .debug_str:000000000002401c .LASF87
     /tmp/ccJdQ6R8.s:105716  .debug_str:00000000000471bd .LASF88
     /tmp/ccJdQ6R8.s:89824  .debug_str:00000000000067a7 .LASF89
     /tmp/ccJdQ6R8.s:97696  .debug_str:0000000000026878 .LASF90
     /tmp/ccJdQ6R8.s:94518  .debug_str:00000000000194d8 .LASF91
     /tmp/ccJdQ6R8.s:96688  .debug_str:0000000000022b3c .LASF92
     /tmp/ccJdQ6R8.s:105736  .debug_str:00000000000472e1 .LASF93
     /tmp/ccJdQ6R8.s:106158  .debug_str:0000000000048f2d .LASF94
     /tmp/ccJdQ6R8.s:100192  .debug_str:0000000000030a4c .LASF95
     /tmp/ccJdQ6R8.s:96274  .debug_str:00000000000210db .LASF96
     /tmp/ccJdQ6R8.s:91606  .debug_str:000000000000ded4 .LASF97
     /tmp/ccJdQ6R8.s:100350  .debug_str:000000000003163e .LASF98
     /tmp/ccJdQ6R8.s:102336  .debug_str:00000000000390ad .LASF99
     /tmp/ccJdQ6R8.s:101762  .debug_str:0000000000036fa4 .LASF100
     /tmp/ccJdQ6R8.s:89020  .debug_str:00000000000030a0 .LASF101
     /tmp/ccJdQ6R8.s:98986  .debug_str:000000000002bc92 .LASF102
     /tmp/ccJdQ6R8.s:91264  .debug_str:000000000000c90b .LASF103
     /tmp/ccJdQ6R8.s:98862  .debug_str:000000000002b4f4 .LASF104
     /tmp/ccJdQ6R8.s:96898  .debug_str:0000000000023978 .LASF105
     /tmp/ccJdQ6R8.s:98668  .debug_str:000000000002a809 .LASF106
     /tmp/ccJdQ6R8.s:89396  .debug_str:0000000000004a90 .LASF107
     /tmp/ccJdQ6R8.s:101402  .debug_str:0000000000035ac7 .LASF108
     /tmp/ccJdQ6R8.s:99848  .debug_str:000000000002f4c7 .LASF109
     /tmp/ccJdQ6R8.s:102206  .debug_str:000000000003879c .LASF110
     /tmp/ccJdQ6R8.s:91414  .debug_str:000000000000d34e .LASF111
     /tmp/ccJdQ6R8.s:102158  .debug_str:0000000000038402 .LASF112
     /tmp/ccJdQ6R8.s:88496  .debug_str:0000000000000b4f .LASF113
     /tmp/ccJdQ6R8.s:104084  .debug_str:000000000004074b .LASF114
     /tmp/ccJdQ6R8.s:105514  .debug_str:000000000004637b .LASF115
     /tmp/ccJdQ6R8.s:97246  .debug_str:0000000000024b9f .LASF116
     /tmp/ccJdQ6R8.s:92792  .debug_str:00000000000125ac .LASF117
     /tmp/ccJdQ6R8.s:93350  .debug_str:0000000000014896 .LASF118
     /tmp/ccJdQ6R8.s:101396  .debug_str:0000000000035a7a .LASF119
     /tmp/ccJdQ6R8.s:99170  .debug_str:000000000002c81d .LASF120
     /tmp/ccJdQ6R8.s:92146  .debug_str:000000000000fd00 .LASF121
     /tmp/ccJdQ6R8.s:93582  .debug_str:0000000000015749 .LASF122
     /tmp/ccJdQ6R8.s:92344  .debug_str:0000000000010856 .LASF123
     /tmp/ccJdQ6R8.s:94474  .debug_str:000000000001920c .LASF124
     /tmp/ccJdQ6R8.s:88582  .debug_str:0000000000001111 .LASF125
     /tmp/ccJdQ6R8.s:103458  .debug_str:000000000003dc3b .LASF126
     /tmp/ccJdQ6R8.s:103098  .debug_str:000000000003c4e5 .LASF127
     /tmp/ccJdQ6R8.s:102330  .debug_str:000000000003902e .LASF128
     /tmp/ccJdQ6R8.s:98288  .debug_str:0000000000028fdc .LASF129
     /tmp/ccJdQ6R8.s:102978  .debug_str:000000000003bc49 .LASF130
     /tmp/ccJdQ6R8.s:92516  .debug_str:00000000000113d6 .LASF131
     /tmp/ccJdQ6R8.s:96432  .debug_str:00000000000219e6 .LASF132
     /tmp/ccJdQ6R8.s:98358  .debug_str:00000000000294b3 .LASF133
     /tmp/ccJdQ6R8.s:92890  .debug_str:0000000000012cc2 .LASF134
     /tmp/ccJdQ6R8.s:105270  .debug_str:000000000004534a .LASF135
     /tmp/ccJdQ6R8.s:103286  .debug_str:000000000003d05d .LASF136
     /tmp/ccJdQ6R8.s:103456  .debug_str:000000000003dc1b .LASF137
     /tmp/ccJdQ6R8.s:95378  .debug_str:000000000001d157 .LASF138
     /tmp/ccJdQ6R8.s:101468  .debug_str:0000000000035ef2 .LASF139
     /tmp/ccJdQ6R8.s:93478  .debug_str:00000000000150f2 .LASF140
     /tmp/ccJdQ6R8.s:106300  .debug_str:00000000000498fb .LASF141
     /tmp/ccJdQ6R8.s:98202  .debug_str:0000000000028a45 .LASF142
     /tmp/ccJdQ6R8.s:97166  .debug_str:0000000000024801 .LASF143
     /tmp/ccJdQ6R8.s:92570  .debug_str:000000000001177c .LASF144
     /tmp/ccJdQ6R8.s:91184  .debug_str:000000000000c3bd .LASF145
     /tmp/ccJdQ6R8.s:92160  .debug_str:000000000000fda1 .LASF146
     /tmp/ccJdQ6R8.s:92948  .debug_str:0000000000013043 .LASF147
     /tmp/ccJdQ6R8.s:95794  .debug_str:000000000001ee6c .LASF148
     /tmp/ccJdQ6R8.s:99900  .debug_str:000000000002f824 .LASF149
     /tmp/ccJdQ6R8.s:103508  .debug_str:000000000003df58 .LASF150
     /tmp/ccJdQ6R8.s:94556  .debug_str:00000000000197e8 .LASF151
     /tmp/ccJdQ6R8.s:97298  .debug_str:0000000000024db7 .LASF152
     /tmp/ccJdQ6R8.s:90488  .debug_str:0000000000009409 .LASF153
     /tmp/ccJdQ6R8.s:103920  .debug_str:000000000003fbc9 .LASF154
     /tmp/ccJdQ6R8.s:92918  .debug_str:0000000000012edd .LASF155
     /tmp/ccJdQ6R8.s:105326  .debug_str:0000000000045711 .LASF156
     /tmp/ccJdQ6R8.s:99000  .debug_str:000000000002bd3d .LASF157
     /tmp/ccJdQ6R8.s:89570  .debug_str:00000000000056b1 .LASF158
     /tmp/ccJdQ6R8.s:89820  .debug_str:0000000000006725 .LASF159
     /tmp/ccJdQ6R8.s:106572  .debug_str:000000000004aaec .LASF160
     /tmp/ccJdQ6R8.s:103716  .debug_str:000000000003ed42 .LASF161
     /tmp/ccJdQ6R8.s:99322  .debug_str:000000000002d194 .LASF162
     /tmp/ccJdQ6R8.s:92638  .debug_str:0000000000011c82 .LASF163
     /tmp/ccJdQ6R8.s:93488  .debug_str:000000000001518b .LASF164
     /tmp/ccJdQ6R8.s:105836  .debug_str:000000000004790e .LASF165
     /tmp/ccJdQ6R8.s:100198  .debug_str:0000000000030ac1 .LASF166
     /tmp/ccJdQ6R8.s:92722  .debug_str:00000000000121c0 .LASF167
     /tmp/ccJdQ6R8.s:88838  .debug_str:00000000000022e4 .LASF168
     /tmp/ccJdQ6R8.s:99222  .debug_str:000000000002cb81 .LASF169
     /tmp/ccJdQ6R8.s:102420  .debug_str:0000000000039614 .LASF170
     /tmp/ccJdQ6R8.s:100902  .debug_str:000000000003395c .LASF171
     /tmp/ccJdQ6R8.s:99680  .debug_str:000000000002e928 .LASF172
     /tmp/ccJdQ6R8.s:90824  .debug_str:000000000000aa4d .LASF173
     /tmp/ccJdQ6R8.s:102604  .debug_str:000000000003a2c9 .LASF174
     /tmp/ccJdQ6R8.s:100138  .debug_str:00000000000306f8 .LASF175
     /tmp/ccJdQ6R8.s:92956  .debug_str:00000000000130cd .LASF176
     /tmp/ccJdQ6R8.s:92882  .debug_str:0000000000012c55 .LASF177
     /tmp/ccJdQ6R8.s:101732  .debug_str:0000000000036ebd .LASF178
     /tmp/ccJdQ6R8.s:90790  .debug_str:000000000000a823 .LASF179
     /tmp/ccJdQ6R8.s:100930  .debug_str:0000000000033b6a .LASF180
     /tmp/ccJdQ6R8.s:92992  .debug_str:00000000000132f7 .LASF181
     /tmp/ccJdQ6R8.s:106212  .debug_str:00000000000492c1 .LASF182
     /tmp/ccJdQ6R8.s:90564  .debug_str:0000000000009925 .LASF183
     /tmp/ccJdQ6R8.s:105448  .debug_str:0000000000045f41 .LASF184
     /tmp/ccJdQ6R8.s:96576  .debug_str:0000000000022333 .LASF185
     /tmp/ccJdQ6R8.s:93786  .debug_str:00000000000164cd .LASF186
     /tmp/ccJdQ6R8.s:97442  .debug_str:000000000002571a .LASF187
     /tmp/ccJdQ6R8.s:89446  .debug_str:0000000000004dd9 .LASF188
     /tmp/ccJdQ6R8.s:89330  .debug_str:0000000000004571 .LASF189
     /tmp/ccJdQ6R8.s:92860  .debug_str:0000000000012ab4 .LASF190
     /tmp/ccJdQ6R8.s:106822  .debug_str:000000000004bdd8 .LASF191
     /tmp/ccJdQ6R8.s:103190  .debug_str:000000000003cad0 .LASF192
     /tmp/ccJdQ6R8.s:95698  .debug_str:000000000001e814 .LASF193
     /tmp/ccJdQ6R8.s:89334  .debug_str:00000000000045c1 .LASF194
     /tmp/ccJdQ6R8.s:103538  .debug_str:000000000003e101 .LASF195
     /tmp/ccJdQ6R8.s:104990  .debug_str:00000000000441e8 .LASF196
     /tmp/ccJdQ6R8.s:96742  .debug_str:0000000000022e7f .LASF197
     /tmp/ccJdQ6R8.s:88394  .debug_str:0000000000000465 .LASF198
     /tmp/ccJdQ6R8.s:89044  .debug_str:000000000000325e .LASF199
     /tmp/ccJdQ6R8.s:104106  .debug_str:00000000000408b7 .LASF200
     /tmp/ccJdQ6R8.s:99404  .debug_str:000000000002d68b .LASF201
     /tmp/ccJdQ6R8.s:105674  .debug_str:0000000000046e85 .LASF202
     /tmp/ccJdQ6R8.s:102104  .debug_str:000000000003814b .LASF203
     /tmp/ccJdQ6R8.s:89510  .debug_str:00000000000051c8 .LASF204
     /tmp/ccJdQ6R8.s:105642  .debug_str:0000000000046c41 .LASF205
     /tmp/ccJdQ6R8.s:96886  .debug_str:00000000000238c0 .LASF206
     /tmp/ccJdQ6R8.s:104090  .debug_str:00000000000407d2 .LASF207
     /tmp/ccJdQ6R8.s:95490  .debug_str:000000000001d9b7 .LASF208
     /tmp/ccJdQ6R8.s:98628  .debug_str:000000000002a5c9 .LASF209
     /tmp/ccJdQ6R8.s:93896  .debug_str:0000000000016c56 .LASF210
     /tmp/ccJdQ6R8.s:91532  .debug_str:000000000000da37 .LASF211
     /tmp/ccJdQ6R8.s:106940  .debug_str:000000000004c5f1 .LASF212
     /tmp/ccJdQ6R8.s:104210  .debug_str:0000000000040f06 .LASF213
     /tmp/ccJdQ6R8.s:93968  .debug_str:000000000001718e .LASF214
     /tmp/ccJdQ6R8.s:97156  .debug_str:0000000000024775 .LASF215
     /tmp/ccJdQ6R8.s:95476  .debug_str:000000000001d87a .LASF216
     /tmp/ccJdQ6R8.s:93740  .debug_str:00000000000161ce .LASF217
     /tmp/ccJdQ6R8.s:95230  .debug_str:000000000001c6e9 .LASF218
     /tmp/ccJdQ6R8.s:89648  .debug_str:0000000000005bbd .LASF219
     /tmp/ccJdQ6R8.s:96538  .debug_str:000000000002213a .LASF220
     /tmp/ccJdQ6R8.s:106728  .debug_str:000000000004b7b5 .LASF221
     /tmp/ccJdQ6R8.s:103134  .debug_str:000000000003c742 .LASF222
     /tmp/ccJdQ6R8.s:93144  .debug_str:0000000000013ca1 .LASF223
     /tmp/ccJdQ6R8.s:104670  .debug_str:0000000000042e00 .LASF224
     /tmp/ccJdQ6R8.s:106444  .debug_str:000000000004a24e .LASF225
     /tmp/ccJdQ6R8.s:94530  .debug_str:00000000000195e1 .LASF226
     /tmp/ccJdQ6R8.s:103056  .debug_str:000000000003c216 .LASF227
     /tmp/ccJdQ6R8.s:94620  .debug_str:0000000000019c5f .LASF228
     /tmp/ccJdQ6R8.s:101760  .debug_str:0000000000036f89 .LASF229
     /tmp/ccJdQ6R8.s:90552  .debug_str:0000000000009870 .LASF230
     /tmp/ccJdQ6R8.s:90832  .debug_str:000000000000aae0 .LASF231
     /tmp/ccJdQ6R8.s:94652  .debug_str:0000000000019f18 .LASF232
     /tmp/ccJdQ6R8.s:92364  .debug_str:00000000000109ab .LASF233
     /tmp/ccJdQ6R8.s:89580  .debug_str:0000000000005768 .LASF234
     /tmp/ccJdQ6R8.s:102730  .debug_str:000000000003ac36 .LASF235
     /tmp/ccJdQ6R8.s:99958  .debug_str:000000000002fba7 .LASF236
     /tmp/ccJdQ6R8.s:92054  .debug_str:000000000000f7f2 .LASF237
     /tmp/ccJdQ6R8.s:91714  .debug_str:000000000000e4f2 .LASF238
     /tmp/ccJdQ6R8.s:106106  .debug_str:0000000000048b5a .LASF239
     /tmp/ccJdQ6R8.s:94074  .debug_str:00000000000177f2 .LASF240
     /tmp/ccJdQ6R8.s:95344  .debug_str:000000000001cf1f .LASF241
     /tmp/ccJdQ6R8.s:89788  .debug_str:00000000000064bb .LASF242
     /tmp/ccJdQ6R8.s:92942  .debug_str:0000000000013000 .LASF243
     /tmp/ccJdQ6R8.s:104820  .debug_str:0000000000043720 .LASF244
     /tmp/ccJdQ6R8.s:101098  .debug_str:0000000000034721 .LASF245
     /tmp/ccJdQ6R8.s:94056  .debug_str:00000000000176df .LASF246
     /tmp/ccJdQ6R8.s:103874  .debug_str:000000000003f8d7 .LASF247
     /tmp/ccJdQ6R8.s:96676  .debug_str:0000000000022a24 .LASF248
     /tmp/ccJdQ6R8.s:101094  .debug_str:00000000000346f6 .LASF249
     /tmp/ccJdQ6R8.s:95422  .debug_str:000000000001d48c .LASF250
     /tmp/ccJdQ6R8.s:105726  .debug_str:000000000004726c .LASF251
     /tmp/ccJdQ6R8.s:94842  .debug_str:000000000001abd1 .LASF252
     /tmp/ccJdQ6R8.s:101620  .debug_str:00000000000367ee .LASF253
     /tmp/ccJdQ6R8.s:89646  .debug_str:0000000000005bab .LASF254
     /tmp/ccJdQ6R8.s:102632  .debug_str:000000000003a4f3 .LASF255
     /tmp/ccJdQ6R8.s:89860  .debug_str:0000000000006a16 .LASF256
     /tmp/ccJdQ6R8.s:90136  .debug_str:0000000000007bcd .LASF257
     /tmp/ccJdQ6R8.s:106028  .debug_str:000000000004859c .LASF258
     /tmp/ccJdQ6R8.s:103956  .debug_str:000000000003fe08 .LASF259
     /tmp/ccJdQ6R8.s:91914  .debug_str:000000000000ef56 .LASF260
     /tmp/ccJdQ6R8.s:95524  .debug_str:000000000001dbc6 .LASF261
     /tmp/ccJdQ6R8.s:105098  .debug_str:00000000000447db .LASF262
     /tmp/ccJdQ6R8.s:102810  .debug_str:000000000003b15b .LASF263
     /tmp/ccJdQ6R8.s:98812  .debug_str:000000000002b11a .LASF264
     /tmp/ccJdQ6R8.s:91058  .debug_str:000000000000bb5b .LASF265
     /tmp/ccJdQ6R8.s:96510  .debug_str:0000000000021f01 .LASF266
     /tmp/ccJdQ6R8.s:99288  .debug_str:000000000002cf96 .LASF267
     /tmp/ccJdQ6R8.s:95812  .debug_str:000000000001ef8b .LASF268
     /tmp/ccJdQ6R8.s:101684  .debug_str:0000000000036b6e .LASF269
     /tmp/ccJdQ6R8.s:100228  .debug_str:0000000000030d03 .LASF270
     /tmp/ccJdQ6R8.s:91888  .debug_str:000000000000ed89 .LASF271
     /tmp/ccJdQ6R8.s:106202  .debug_str:0000000000049235 .LASF272
     /tmp/ccJdQ6R8.s:93052  .debug_str:00000000000136ff .LASF273
     /tmp/ccJdQ6R8.s:95438  .debug_str:000000000001d5b7 .LASF274
     /tmp/ccJdQ6R8.s:102130  .debug_str:00000000000382b5 .LASF275
     /tmp/ccJdQ6R8.s:97692  .debug_str:0000000000026824 .LASF276
     /tmp/ccJdQ6R8.s:88478  .debug_str:0000000000000a82 .LASF277
     /tmp/ccJdQ6R8.s:101440  .debug_str:0000000000035ce3 .LASF278
     /tmp/ccJdQ6R8.s:100318  .debug_str:00000000000313bd .LASF279
     /tmp/ccJdQ6R8.s:106328  .debug_str:0000000000049a9f .LASF280
     /tmp/ccJdQ6R8.s:98542  .debug_str:0000000000029fd8 .LASF281
     /tmp/ccJdQ6R8.s:103656  .debug_str:000000000003e876 .LASF282
     /tmp/ccJdQ6R8.s:88702  .debug_str:0000000000001945 .LASF283
     /tmp/ccJdQ6R8.s:107238  .debug_str:000000000004da1e .LASF284
     /tmp/ccJdQ6R8.s:100334  .debug_str:00000000000314f5 .LASF285
     /tmp/ccJdQ6R8.s:100132  .debug_str:00000000000306ae .LASF286
     /tmp/ccJdQ6R8.s:93734  .debug_str:000000000001612e .LASF287
     /tmp/ccJdQ6R8.s:106936  .debug_str:000000000004c5c3 .LASF288
     /tmp/ccJdQ6R8.s:105640  .debug_str:0000000000046c2a .LASF289
     /tmp/ccJdQ6R8.s:93988  .debug_str:0000000000017330 .LASF290
     /tmp/ccJdQ6R8.s:90490  .debug_str:000000000000941d .LASF291
     /tmp/ccJdQ6R8.s:102786  .debug_str:000000000003af8c .LASF292
     /tmp/ccJdQ6R8.s:104546  .debug_str:00000000000425c9 .LASF293
     /tmp/ccJdQ6R8.s:101530  .debug_str:0000000000036256 .LASF294
     /tmp/ccJdQ6R8.s:90046  .debug_str:0000000000007665 .LASF295
     /tmp/ccJdQ6R8.s:98192  .debug_str:0000000000028988 .LASF296
     /tmp/ccJdQ6R8.s:95870  .debug_str:000000000001f438 .LASF297
     /tmp/ccJdQ6R8.s:103580  .debug_str:000000000003e396 .LASF298
     /tmp/ccJdQ6R8.s:90902  .debug_str:000000000000b03d .LASF299
     /tmp/ccJdQ6R8.s:103750  .debug_str:000000000003efb0 .LASF300
     /tmp/ccJdQ6R8.s:93454  .debug_str:0000000000014f69 .LASF301
     /tmp/ccJdQ6R8.s:103692  .debug_str:000000000003eb0e .LASF302
     /tmp/ccJdQ6R8.s:105364  .debug_str:0000000000045a06 .LASF303
     /tmp/ccJdQ6R8.s:97530  .debug_str:0000000000025dae .LASF304
     /tmp/ccJdQ6R8.s:102250  .debug_str:0000000000038a58 .LASF305
     /tmp/ccJdQ6R8.s:100374  .debug_str:00000000000317b4 .LASF306
     /tmp/ccJdQ6R8.s:96704  .debug_str:0000000000022c52 .LASF307
     /tmp/ccJdQ6R8.s:105668  .debug_str:0000000000046e23 .LASF308
     /tmp/ccJdQ6R8.s:105680  .debug_str:0000000000046f13 .LASF309
     /tmp/ccJdQ6R8.s:99798  .debug_str:000000000002f0fb .LASF310
     /tmp/ccJdQ6R8.s:90068  .debug_str:00000000000077e2 .LASF311
     /tmp/ccJdQ6R8.s:88486  .debug_str:0000000000000ad3 .LASF312
     /tmp/ccJdQ6R8.s:102124  .debug_str:000000000003827c .LASF313
     /tmp/ccJdQ6R8.s:100524  .debug_str:000000000003218b .LASF314
     /tmp/ccJdQ6R8.s:101378  .debug_str:0000000000035985 .LASF315
     /tmp/ccJdQ6R8.s:88560  .debug_str:0000000000000f89 .LASF316
     /tmp/ccJdQ6R8.s:95360  .debug_str:000000000001d030 .LASF317
     /tmp/ccJdQ6R8.s:96544  .debug_str:0000000000022186 .LASF318
     /tmp/ccJdQ6R8.s:95882  .debug_str:000000000001f553 .LASF319
     /tmp/ccJdQ6R8.s:105908  .debug_str:0000000000047db0 .LASF320
     /tmp/ccJdQ6R8.s:103418  .debug_str:000000000003d934 .LASF321
     /tmp/ccJdQ6R8.s:99966  .debug_str:000000000002fc3b .LASF322
     /tmp/ccJdQ6R8.s:93616  .debug_str:000000000001596b .LASF323
     /tmp/ccJdQ6R8.s:107198  .debug_str:000000000004d76c .LASF325
     /tmp/ccJdQ6R8.s:94364  .debug_str:0000000000018a7f .LASF326
     /tmp/ccJdQ6R8.s:97492  .debug_str:0000000000025ae0 .LASF327
     /tmp/ccJdQ6R8.s:102838  .debug_str:000000000003b326 .LASF328
     /tmp/ccJdQ6R8.s:90330  .debug_str:00000000000088f7 .LASF329
     /tmp/ccJdQ6R8.s:105828  .debug_str:00000000000478ae .LASF330
     /tmp/ccJdQ6R8.s:105292  .debug_str:00000000000454ba .LASF331
     /tmp/ccJdQ6R8.s:95750  .debug_str:000000000001ebb2 .LASF332
     /tmp/ccJdQ6R8.s:93182  .debug_str:0000000000013eb7 .LASF333
     /tmp/ccJdQ6R8.s:93352  .debug_str:00000000000148aa .LASF334
     /tmp/ccJdQ6R8.s:105256  .debug_str:0000000000045255 .LASF335
     /tmp/ccJdQ6R8.s:98900  .debug_str:000000000002b6ed .LASF336
     /tmp/ccJdQ6R8.s:104260  .debug_str:00000000000412a1 .LASF337
     /tmp/ccJdQ6R8.s:102910  .debug_str:000000000003b7c5 .LASF338
     /tmp/ccJdQ6R8.s:103324  .debug_str:000000000003d339 .LASF339
     /tmp/ccJdQ6R8.s:96776  .debug_str:00000000000230b3 .LASF340
     /tmp/ccJdQ6R8.s:106194  .debug_str:00000000000491a4 .LASF341
     /tmp/ccJdQ6R8.s:103678  .debug_str:000000000003ea10 .LASF342
     /tmp/ccJdQ6R8.s:100072  .debug_str:00000000000302ed .LASF343
     /tmp/ccJdQ6R8.s:103026  .debug_str:000000000003bf8b .LASF344
     /tmp/ccJdQ6R8.s:91338  .debug_str:000000000000ce40 .LASF345
     /tmp/ccJdQ6R8.s:105722  .debug_str:000000000004721d .LASF346
     /tmp/ccJdQ6R8.s:103630  .debug_str:000000000003e6b0 .LASF347
     /tmp/ccJdQ6R8.s:89998  .debug_str:0000000000007363 .LASF348
     /tmp/ccJdQ6R8.s:88914  .debug_str:00000000000028ca .LASF349
     /tmp/ccJdQ6R8.s:92852  .debug_str:00000000000129e8 .LASF350
     /tmp/ccJdQ6R8.s:95930  .debug_str:000000000001f881 .LASF351
     /tmp/ccJdQ6R8.s:99760  .debug_str:000000000002ee66 .LASF352
     /tmp/ccJdQ6R8.s:90260  .debug_str:0000000000008437 .LASF353
     /tmp/ccJdQ6R8.s:99814  .debug_str:000000000002f242 .LASF354
     /tmp/ccJdQ6R8.s:90296  .debug_str:00000000000086be .LASF355
     /tmp/ccJdQ6R8.s:100722  .debug_str:0000000000032da5 .LASF356
     /tmp/ccJdQ6R8.s:98658  .debug_str:000000000002a7c9 .LASF357
     /tmp/ccJdQ6R8.s:94000  .debug_str:0000000000017412 .LASF358
     /tmp/ccJdQ6R8.s:89690  .debug_str:0000000000005e74 .LASF359
     /tmp/ccJdQ6R8.s:107212  .debug_str:000000000004d873 .LASF360
     /tmp/ccJdQ6R8.s:105806  .debug_str:000000000004778b .LASF361
     /tmp/ccJdQ6R8.s:101452  .debug_str:0000000000035dd8 .LASF362
     /tmp/ccJdQ6R8.s:96424  .debug_str:0000000000021982 .LASF363
     /tmp/ccJdQ6R8.s:90120  .debug_str:0000000000007ac1 .LASF364
     /tmp/ccJdQ6R8.s:89222  .debug_str:0000000000003e19 .LASF365
     /tmp/ccJdQ6R8.s:89426  .debug_str:0000000000004c69 .LASF366
     /tmp/ccJdQ6R8.s:106210  .debug_str:00000000000492af .LASF367
     /tmp/ccJdQ6R8.s:97942  .debug_str:0000000000027952 .LASF368
     /tmp/ccJdQ6R8.s:104118  .debug_str:000000000004096f .LASF369
     /tmp/ccJdQ6R8.s:92300  .debug_str:00000000000105c2 .LASF370
     /tmp/ccJdQ6R8.s:103524  .debug_str:000000000003e045 .LASF371
     /tmp/ccJdQ6R8.s:102436  .debug_str:0000000000039739 .LASF372
     /tmp/ccJdQ6R8.s:99116  .debug_str:000000000002c42b .LASF373
     /tmp/ccJdQ6R8.s:97582  .debug_str:00000000000260e4 .LASF374
     /tmp/ccJdQ6R8.s:92050  .debug_str:000000000000f7d1 .LASF375
     /tmp/ccJdQ6R8.s:94998  .debug_str:000000000001b6fe .LASF376
     /tmp/ccJdQ6R8.s:101100  .debug_str:000000000003475f .LASF377
     /tmp/ccJdQ6R8.s:91566  .debug_str:000000000000dc54 .LASF378
     /tmp/ccJdQ6R8.s:94376  .debug_str:0000000000018b76 .LASF379
     /tmp/ccJdQ6R8.s:98546  .debug_str:000000000002a00c .LASF380
     /tmp/ccJdQ6R8.s:98182  .debug_str:0000000000028905 .LASF381
     /tmp/ccJdQ6R8.s:106928  .debug_str:000000000004c541 .LASF382
     /tmp/ccJdQ6R8.s:94472  .debug_str:00000000000191f6 .LASF386
     /tmp/ccJdQ6R8.s:101248  .debug_str:0000000000035110 .LASF387
     /tmp/ccJdQ6R8.s:98532  .debug_str:0000000000029f70 .LASF388
     /tmp/ccJdQ6R8.s:93150  .debug_str:0000000000013ce3 .LASF389
     /tmp/ccJdQ6R8.s:101900  .debug_str:0000000000037743 .LASF390
     /tmp/ccJdQ6R8.s:99108  .debug_str:000000000002c362 .LASF391
     /tmp/ccJdQ6R8.s:89710  .debug_str:0000000000005f93 .LASF392
     /tmp/ccJdQ6R8.s:103204  .debug_str:000000000003cbe1 .LASF393
     /tmp/ccJdQ6R8.s:88444  .debug_str:000000000000080f .LASF394
     /tmp/ccJdQ6R8.s:93312  .debug_str:0000000000014642 .LASF395
     /tmp/ccJdQ6R8.s:95472  .debug_str:000000000001d831 .LASF396
     /tmp/ccJdQ6R8.s:94916  .debug_str:000000000001b127 .LASF397
     /tmp/ccJdQ6R8.s:93384  .debug_str:0000000000014ae7 .LASF398
     /tmp/ccJdQ6R8.s:98444  .debug_str:00000000000299c5 .LASF399
     /tmp/ccJdQ6R8.s:103400  .debug_str:000000000003d806 .LASF400
     /tmp/ccJdQ6R8.s:103820  .debug_str:000000000003f502 .LASF401
     /tmp/ccJdQ6R8.s:101974  .debug_str:0000000000037ac0 .LASF402
     /tmp/ccJdQ6R8.s:93490  .debug_str:000000000001519f .LASF403
     /tmp/ccJdQ6R8.s:94404  .debug_str:0000000000018d57 .LASF404
     /tmp/ccJdQ6R8.s:97288  .debug_str:0000000000024d52 .LASF405
     /tmp/ccJdQ6R8.s:99460  .debug_str:000000000002da12 .LASF406
     /tmp/ccJdQ6R8.s:91496  .debug_str:000000000000d7bb .LASF407
     /tmp/ccJdQ6R8.s:94938  .debug_str:000000000001b2d0 .LASF408
     /tmp/ccJdQ6R8.s:94624  .debug_str:0000000000019c80 .LASF409
     /tmp/ccJdQ6R8.s:91408  .debug_str:000000000000d302 .LASF410
     /tmp/ccJdQ6R8.s:94048  .debug_str:0000000000017668 .LASF411
     /tmp/ccJdQ6R8.s:104588  .debug_str:00000000000428a8 .LASF412
     /tmp/ccJdQ6R8.s:92280  .debug_str:000000000001042e .LASF413
     /tmp/ccJdQ6R8.s:89180  .debug_str:0000000000003b24 .LASF414
     /tmp/ccJdQ6R8.s:93106  .debug_str:0000000000013a28 .LASF415
     /tmp/ccJdQ6R8.s:104902  .debug_str:0000000000043c55 .LASF416
     /tmp/ccJdQ6R8.s:94230  .debug_str:00000000000181ea .LASF417
     /tmp/ccJdQ6R8.s:92074  .debug_str:000000000000f947 .LASF418
     /tmp/ccJdQ6R8.s:99628  .debug_str:000000000002e5c2 .LASF419
     /tmp/ccJdQ6R8.s:102886  .debug_str:000000000003b662 .LASF420
     /tmp/ccJdQ6R8.s:100248  .debug_str:0000000000030ee8 .LASF421
     /tmp/ccJdQ6R8.s:100136  .debug_str:00000000000306f2 .LASF422
     /tmp/ccJdQ6R8.s:104684  .debug_str:0000000000042ee8 .LASF423
     /tmp/ccJdQ6R8.s:88688  .debug_str:0000000000001862 .LASF424
     /tmp/ccJdQ6R8.s:101294  .debug_str:0000000000035433 .LASF425
     /tmp/ccJdQ6R8.s:98876  .debug_str:000000000002b5a4 .LASF426
     /tmp/ccJdQ6R8.s:93234  .debug_str:0000000000014205 .LASF427
     /tmp/ccJdQ6R8.s:98146  .debug_str:00000000000286ca .LASF428
     /tmp/ccJdQ6R8.s:106974  .debug_str:000000000004c864 .LASF429
     /tmp/ccJdQ6R8.s:99846  .debug_str:000000000002f4bd .LASF430
     /tmp/ccJdQ6R8.s:100608  .debug_str:0000000000032673 .LASF431
     /tmp/ccJdQ6R8.s:88790  .debug_str:0000000000001fa6 .LASF432
     /tmp/ccJdQ6R8.s:91140  .debug_str:000000000000c0b0 .LASF433
     /tmp/ccJdQ6R8.s:99710  .debug_str:000000000002eb44 .LASF434
     /tmp/ccJdQ6R8.s:97856  .debug_str:000000000002730b .LASF435
     /tmp/ccJdQ6R8.s:105754  .debug_str:0000000000047405 .LASF436
     /tmp/ccJdQ6R8.s:101932  .debug_str:0000000000037831 .LASF437
     /tmp/ccJdQ6R8.s:100816  .debug_str:000000000003345d .LASF438
     /tmp/ccJdQ6R8.s:104940  .debug_str:0000000000043edc .LASF439
     /tmp/ccJdQ6R8.s:101122  .debug_str:00000000000348df .LASF440
     /tmp/ccJdQ6R8.s:95026  .debug_str:000000000001b92b .LASF441
     /tmp/ccJdQ6R8.s:101174  .debug_str:0000000000034c65 .LASF442
     /tmp/ccJdQ6R8.s:100356  .debug_str:000000000003169c .LASF443
     /tmp/ccJdQ6R8.s:94270  .debug_str:00000000000183fe .LASF444
     /tmp/ccJdQ6R8.s:105978  .debug_str:0000000000048289 .LASF445
     /tmp/ccJdQ6R8.s:91590  .debug_str:000000000000dde1 .LASF446
     /tmp/ccJdQ6R8.s:101822  .debug_str:0000000000037391 .LASF447
     /tmp/ccJdQ6R8.s:89808  .debug_str:000000000000664f .LASF448
     /tmp/ccJdQ6R8.s:92388  .debug_str:0000000000010b92 .LASF449
     /tmp/ccJdQ6R8.s:95094  .debug_str:000000000001be41 .LASF450
     /tmp/ccJdQ6R8.s:102062  .debug_str:0000000000037f85 .LASF451
     /tmp/ccJdQ6R8.s:107152  .debug_str:000000000004d431 .LASF452
     /tmp/ccJdQ6R8.s:97768  .debug_str:0000000000026d61 .LASF453
     /tmp/ccJdQ6R8.s:96150  .debug_str:00000000000207c8 .LASF454
     /tmp/ccJdQ6R8.s:102358  .debug_str:0000000000039217 .LASF455
     /tmp/ccJdQ6R8.s:93562  .debug_str:000000000001567f .LASF456
     /tmp/ccJdQ6R8.s:105470  .debug_str:00000000000460ab .LASF457
     /tmp/ccJdQ6R8.s:95786  .debug_str:000000000001edcd .LASF458
     /tmp/ccJdQ6R8.s:103164  .debug_str:000000000003c924 .LASF459
     /tmp/ccJdQ6R8.s:98348  .debug_str:0000000000029435 .LASF460
     /tmp/ccJdQ6R8.s:88602  .debug_str:0000000000001254 .LASF461
     /tmp/ccJdQ6R8.s:96038  .debug_str:0000000000020069 .LASF462
     /tmp/ccJdQ6R8.s:104640  .debug_str:0000000000042c24 .LASF463
     /tmp/ccJdQ6R8.s:96870  .debug_str:00000000000237b4 .LASF464
     /tmp/ccJdQ6R8.s:104300  .debug_str:000000000004159c .LASF465
     /tmp/ccJdQ6R8.s:105902  .debug_str:0000000000047d62 .LASF466
     /tmp/ccJdQ6R8.s:99768  .debug_str:000000000002eeb3 .LASF467
     /tmp/ccJdQ6R8.s:88490  .debug_str:0000000000000b03 .LASF468
     /tmp/ccJdQ6R8.s:101222  .debug_str:0000000000034f7c .LASF469
     /tmp/ccJdQ6R8.s:105350  .debug_str:00000000000458e2 .LASF470
     /tmp/ccJdQ6R8.s:102020  .debug_str:0000000000037ccb .LASF471
     /tmp/ccJdQ6R8.s:92560  .debug_str:00000000000116db .LASF472
     /tmp/ccJdQ6R8.s:100928  .debug_str:0000000000033b50 .LASF473
     /tmp/ccJdQ6R8.s:89670  .debug_str:0000000000005cec .LASF474
     /tmp/ccJdQ6R8.s:103492  .debug_str:000000000003de47 .LASF475
     /tmp/ccJdQ6R8.s:96208  .debug_str:0000000000020be0 .LASF476
     /tmp/ccJdQ6R8.s:88358  .debug_str:0000000000000212 .LASF477
     /tmp/ccJdQ6R8.s:95762  .debug_str:000000000001eca5 .LASF478
     /tmp/ccJdQ6R8.s:96558  .debug_str:0000000000022254 .LASF479
     /tmp/ccJdQ6R8.s:104436  .debug_str:0000000000041e62 .LASF480
     /tmp/ccJdQ6R8.s:105786  .debug_str:000000000004761a .LASF481
     /tmp/ccJdQ6R8.s:97842  .debug_str:0000000000027205 .LASF482
     /tmp/ccJdQ6R8.s:95942  .debug_str:000000000001f99c .LASF483
     /tmp/ccJdQ6R8.s:99904  .debug_str:000000000002f848 .LASF484
     /tmp/ccJdQ6R8.s:98910  .debug_str:000000000002b795 .LASF485
     /tmp/ccJdQ6R8.s:94992  .debug_str:000000000001b682 .LASF486
     /tmp/ccJdQ6R8.s:106698  .debug_str:000000000004b53d .LASF487
     /tmp/ccJdQ6R8.s:91918  .debug_str:000000000000efa8 .LASF488
     /tmp/ccJdQ6R8.s:105196  .debug_str:0000000000044eaf .LASF489
     /tmp/ccJdQ6R8.s:98208  .debug_str:0000000000028a9f .LASF490
     /tmp/ccJdQ6R8.s:89734  .debug_str:0000000000006121 .LASF491
     /tmp/ccJdQ6R8.s:105192  .debug_str:0000000000044e7a .LASF492
     /tmp/ccJdQ6R8.s:92790  .debug_str:000000000001258d .LASF493
     /tmp/ccJdQ6R8.s:96546  .debug_str:0000000000022196 .LASF494
     /tmp/ccJdQ6R8.s:105396  .debug_str:0000000000045c2a .LASF495
     /tmp/ccJdQ6R8.s:88876  .debug_str:00000000000025eb .LASF496
     /tmp/ccJdQ6R8.s:100020  .debug_str:000000000002ff51 .LASF497
     /tmp/ccJdQ6R8.s:107138  .debug_str:000000000004d338 .LASF498
     /tmp/ccJdQ6R8.s:103584  .debug_str:000000000003e3e4 .LASF499
     /tmp/ccJdQ6R8.s:89428  .debug_str:0000000000004c75 .LASF500
     /tmp/ccJdQ6R8.s:89974  .debug_str:0000000000007193 .LASF501
     /tmp/ccJdQ6R8.s:105600  .debug_str:0000000000046946 .LASF502
     /tmp/ccJdQ6R8.s:101600  .debug_str:0000000000036646 .LASF503
     /tmp/ccJdQ6R8.s:104942  .debug_str:0000000000043ee4 .LASF504
     /tmp/ccJdQ6R8.s:88542  .debug_str:0000000000000e58 .LASF505
     /tmp/ccJdQ6R8.s:92620  .debug_str:0000000000011b24 .LASF506
     /tmp/ccJdQ6R8.s:105760  .debug_str:000000000004744a .LASF507
     /tmp/ccJdQ6R8.s:88654  .debug_str:000000000000159f .LASF508
     /tmp/ccJdQ6R8.s:96640  .debug_str:000000000002279e .LASF509
     /tmp/ccJdQ6R8.s:88734  .debug_str:0000000000001bab .LASF510
     /tmp/ccJdQ6R8.s:89908  .debug_str:0000000000006d6d .LASF511
     /tmp/ccJdQ6R8.s:99260  .debug_str:000000000002ce31 .LASF512
     /tmp/ccJdQ6R8.s:99038  .debug_str:000000000002bf8d .LASF513
     /tmp/ccJdQ6R8.s:100366  .debug_str:0000000000031714 .LASF514
     /tmp/ccJdQ6R8.s:106174  .debug_str:0000000000049046 .LASF515
     /tmp/ccJdQ6R8.s:100588  .debug_str:0000000000032506 .LASF516
     /tmp/ccJdQ6R8.s:102722  .debug_str:000000000003abba .LASF517
     /tmp/ccJdQ6R8.s:105094  .debug_str:00000000000447b6 .LASF518
     /tmp/ccJdQ6R8.s:93148  .debug_str:0000000000013cc5 .LASF519
     /tmp/ccJdQ6R8.s:94824  .debug_str:000000000001aafb .LASF520
     /tmp/ccJdQ6R8.s:99418  .debug_str:000000000002d799 .LASF521
     /tmp/ccJdQ6R8.s:104680  .debug_str:0000000000042e9a .LASF522
     /tmp/ccJdQ6R8.s:101076  .debug_str:00000000000345f6 .LASF523
     /tmp/ccJdQ6R8.s:105234  .debug_str:00000000000450d4 .LASF524
     /tmp/ccJdQ6R8.s:99088  .debug_str:000000000002c284 .LASF525
     /tmp/ccJdQ6R8.s:97870  .debug_str:00000000000273e9 .LASF526
     /tmp/ccJdQ6R8.s:96272  .debug_str:00000000000210c3 .LASF527
     /tmp/ccJdQ6R8.s:101104  .debug_str:000000000003479b .LASF528
     /tmp/ccJdQ6R8.s:106774  .debug_str:000000000004baa7 .LASF529
     /tmp/ccJdQ6R8.s:106594  .debug_str:000000000004ac2e .LASF530
     /tmp/ccJdQ6R8.s:103546  .debug_str:000000000003e17a .LASF531
     /tmp/ccJdQ6R8.s:101374  .debug_str:000000000003595a .LASF532
     /tmp/ccJdQ6R8.s:93608  .debug_str:0000000000015929 .LASF533
     /tmp/ccJdQ6R8.s:101268  .debug_str:0000000000035293 .LASF534
     /tmp/ccJdQ6R8.s:105874  .debug_str:0000000000047bc9 .LASF535
     /tmp/ccJdQ6R8.s:105132  .debug_str:0000000000044acd .LASF536
     /tmp/ccJdQ6R8.s:96642  .debug_str:00000000000227c2 .LASF537
     /tmp/ccJdQ6R8.s:93058  .debug_str:0000000000013739 .LASF538
     /tmp/ccJdQ6R8.s:89884  .debug_str:0000000000006c0c .LASF540
     /tmp/ccJdQ6R8.s:106200  .debug_str:00000000000491e9 .LASF541
     /tmp/ccJdQ6R8.s:95210  .debug_str:000000000001c5a3 .LASF542
     /tmp/ccJdQ6R8.s:95612  .debug_str:000000000001e15b .LASF543
     /tmp/ccJdQ6R8.s:102144  .debug_str:0000000000038349 .LASF544
     /tmp/ccJdQ6R8.s:96848  .debug_str:00000000000235d2 .LASF545
     /tmp/ccJdQ6R8.s:101170  .debug_str:0000000000034be3 .LASF546
     /tmp/ccJdQ6R8.s:105968  .debug_str:000000000004819c .LASF547
     /tmp/ccJdQ6R8.s:92072  .debug_str:000000000000f905 .LASF548
     /tmp/ccJdQ6R8.s:96866  .debug_str:0000000000023761 .LASF549
     /tmp/ccJdQ6R8.s:101514  .debug_str:0000000000036117 .LASF550
     /tmp/ccJdQ6R8.s:106204  .debug_str:000000000004924e .LASF551
     /tmp/ccJdQ6R8.s:91976  .debug_str:000000000000f321 .LASF552
     /tmp/ccJdQ6R8.s:95058  .debug_str:000000000001bb08 .LASF553
     /tmp/ccJdQ6R8.s:92260  .debug_str:00000000000102ce .LASF554
     /tmp/ccJdQ6R8.s:104750  .debug_str:00000000000432ef .LASF555
     /tmp/ccJdQ6R8.s:95840  .debug_str:000000000001f1a3 .LASF556
     /tmp/ccJdQ6R8.s:102016  .debug_str:0000000000037c47 .LASF557
     /tmp/ccJdQ6R8.s:89344  .debug_str:000000000000466a .LASF558
     /tmp/ccJdQ6R8.s:90986  .debug_str:000000000000b6b9 .LASF559
     /tmp/ccJdQ6R8.s:100412  .debug_str:0000000000031a0f .LASF560
     /tmp/ccJdQ6R8.s:90612  .debug_str:0000000000009c1f .LASF561
     /tmp/ccJdQ6R8.s:100210  .debug_str:0000000000030b6d .LASF562
     /tmp/ccJdQ6R8.s:106076  .debug_str:0000000000048919 .LASF563
     /tmp/ccJdQ6R8.s:96486  .debug_str:0000000000021d30 .LASF564
     /tmp/ccJdQ6R8.s:95228  .debug_str:000000000001c6a7 .LASF565
     /tmp/ccJdQ6R8.s:102764  .debug_str:000000000003adfe .LASF566
     /tmp/ccJdQ6R8.s:91068  .debug_str:000000000000bc07 .LASF567
     /tmp/ccJdQ6R8.s:91110  .debug_str:000000000000be98 .LASF568
     /tmp/ccJdQ6R8.s:90874  .debug_str:000000000000ae47 .LASF569
     /tmp/ccJdQ6R8.s:100294  .debug_str:00000000000311f3 .LASF570
     /tmp/ccJdQ6R8.s:88376  .debug_str:0000000000000331 .LASF571
     /tmp/ccJdQ6R8.s:100088  .debug_str:00000000000303df .LASF572
     /tmp/ccJdQ6R8.s:105954  .debug_str:00000000000480ad .LASF573
     /tmp/ccJdQ6R8.s:96364  .debug_str:00000000000215cc .LASF574
     /tmp/ccJdQ6R8.s:105770  .debug_str:0000000000047510 .LASF575
     /tmp/ccJdQ6R8.s:96170  .debug_str:0000000000020943 .LASF576
     /tmp/ccJdQ6R8.s:90946  .debug_str:000000000000b33f .LASF577
     /tmp/ccJdQ6R8.s:100378  .debug_str:0000000000031811 .LASF578
     /tmp/ccJdQ6R8.s:90748  .debug_str:000000000000a515 .LASF579
     /tmp/ccJdQ6R8.s:100176  .debug_str:0000000000030928 .LASF580
     /tmp/ccJdQ6R8.s:90362  .debug_str:0000000000008b52 .LASF581
     /tmp/ccJdQ6R8.s:97966  .debug_str:0000000000027a95 .LASF582
     /tmp/ccJdQ6R8.s:105854  .debug_str:0000000000047a01 .LASF583
     /tmp/ccJdQ6R8.s:89938  .debug_str:0000000000006faa .LASF584
     /tmp/ccJdQ6R8.s:105664  .debug_str:0000000000046dab .LASF585
     /tmp/ccJdQ6R8.s:96050  .debug_str:000000000002010e .LASF586
     /tmp/ccJdQ6R8.s:90844  .debug_str:000000000000ac22 .LASF587
     /tmp/ccJdQ6R8.s:100264  .debug_str:000000000003101e .LASF588
     /tmp/ccJdQ6R8.s:90628  .debug_str:0000000000009d57 .LASF589
     /tmp/ccJdQ6R8.s:100056  .debug_str:0000000000030178 .LASF590
     /tmp/ccJdQ6R8.s:97026  .debug_str:000000000002405d .LASF591
     /tmp/ccJdQ6R8.s:91192  .debug_str:000000000000c447 .LASF592
     /tmp/ccJdQ6R8.s:104460  .debug_str:0000000000041ff8 .LASF593
     /tmp/ccJdQ6R8.s:104310  .debug_str:0000000000041662 .LASF594
     /tmp/ccJdQ6R8.s:97944  .debug_str:0000000000027963 .LASF595
     /tmp/ccJdQ6R8.s:100766  .debug_str:0000000000033053 .LASF596
     /tmp/ccJdQ6R8.s:91674  .debug_str:000000000000e2b9 .LASF597
     /tmp/ccJdQ6R8.s:106422  .debug_str:000000000004a0d1 .LASF598
     /tmp/ccJdQ6R8.s:93504  .debug_str:0000000000015298 .LASF599
     /tmp/ccJdQ6R8.s:107162  .debug_str:000000000004d4d8 .LASF600
     /tmp/ccJdQ6R8.s:95758  .debug_str:000000000001ec2a .LASF601
     /tmp/ccJdQ6R8.s:104880  .debug_str:0000000000043ab6 .LASF602
     /tmp/ccJdQ6R8.s:104572  .debug_str:0000000000042759 .LASF603
     /tmp/ccJdQ6R8.s:104304  .debug_str:00000000000415e6 .LASF604
     /tmp/ccJdQ6R8.s:88704  .debug_str:000000000000195d .LASF605
     /tmp/ccJdQ6R8.s:103766  .debug_str:000000000003f0b7 .LASF606
     /tmp/ccJdQ6R8.s:97570  .debug_str:000000000002601f .LASF607
     /tmp/ccJdQ6R8.s:101356  .debug_str:00000000000357e1 .LASF608
     /tmp/ccJdQ6R8.s:95748  .debug_str:000000000001eb6b .LASF609
     /tmp/ccJdQ6R8.s:95444  .debug_str:000000000001d60e .LASF610
     /tmp/ccJdQ6R8.s:93628  .debug_str:0000000000015a10 .LASF611
     /tmp/ccJdQ6R8.s:106630  .debug_str:000000000004af19 .LASF612
     /tmp/ccJdQ6R8.s:100448  .debug_str:0000000000031c69 .LASF613
     /tmp/ccJdQ6R8.s:95936  .debug_str:000000000001f911 .LASF614
     /tmp/ccJdQ6R8.s:99776  .debug_str:000000000002ef37 .LASF615
     /tmp/ccJdQ6R8.s:99518  .debug_str:000000000002ddee .LASF616
     /tmp/ccJdQ6R8.s:88836  .debug_str:00000000000022a3 .LASF617
     /tmp/ccJdQ6R8.s:93534  .debug_str:00000000000154cd .LASF618
     /tmp/ccJdQ6R8.s:102430  .debug_str:00000000000396bc .LASF619
     /tmp/ccJdQ6R8.s:90484  .debug_str:000000000000938c .LASF620
     /tmp/ccJdQ6R8.s:92474  .debug_str:000000000001109d .LASF621
     /tmp/ccJdQ6R8.s:106612  .debug_str:000000000004ad60 .LASF622
     /tmp/ccJdQ6R8.s:101466  .debug_str:0000000000035eb1 .LASF623
     /tmp/ccJdQ6R8.s:89264  .debug_str:0000000000004132 .LASF624
     /tmp/ccJdQ6R8.s:88566  .debug_str:0000000000000ffc .LASF625
     /tmp/ccJdQ6R8.s:99302  .debug_str:000000000002d03f .LASF626
     /tmp/ccJdQ6R8.s:97340  .debug_str:00000000000250c9 .LASF627
     /tmp/ccJdQ6R8.s:106634  .debug_str:000000000004af8c .LASF628
     /tmp/ccJdQ6R8.s:106416  .debug_str:000000000004a052 .LASF629
     /tmp/ccJdQ6R8.s:107168  .debug_str:000000000004d556 .LASF630
     /tmp/ccJdQ6R8.s:93512  .debug_str:0000000000015383 .LASF631
     /tmp/ccJdQ6R8.s:98860  .debug_str:000000000002b4b4 .LASF632
     /tmp/ccJdQ6R8.s:104028  .debug_str:0000000000040327 .LASF633
     /tmp/ccJdQ6R8.s:102934  .debug_str:000000000003b943 .LASF634
     /tmp/ccJdQ6R8.s:89208  .debug_str:0000000000003ce5 .LASF635
     /tmp/ccJdQ6R8.s:92284  .debug_str:000000000001044b .LASF636
     /tmp/ccJdQ6R8.s:99862  .debug_str:000000000002f592 .LASF637
     /tmp/ccJdQ6R8.s:105106  .debug_str:000000000004488e .LASF638
     /tmp/ccJdQ6R8.s:99826  .debug_str:000000000002f30c .LASF639
     /tmp/ccJdQ6R8.s:105330  .debug_str:000000000004577f .LASF640
     /tmp/ccJdQ6R8.s:95680  .debug_str:000000000001e6af .LASF641
     /tmp/ccJdQ6R8.s:104982  .debug_str:0000000000044176 .LASF642
     /tmp/ccJdQ6R8.s:95452  .debug_str:000000000001d6b1 .LASF643
     /tmp/ccJdQ6R8.s:101450  .debug_str:0000000000035d96 .LASF644
     /tmp/ccJdQ6R8.s:91682  .debug_str:000000000000e32b .LASF645
     /tmp/ccJdQ6R8.s:101234  .debug_str:0000000000035034 .LASF646
     /tmp/ccJdQ6R8.s:91448  .debug_str:000000000000d55b .LASF647
     /tmp/ccJdQ6R8.s:100888  .debug_str:000000000003383c .LASF648
     /tmp/ccJdQ6R8.s:103706  .debug_str:000000000003ec4c .LASF649
     /tmp/ccJdQ6R8.s:103694  .debug_str:000000000003eb2d .LASF650
     /tmp/ccJdQ6R8.s:95162  .debug_str:000000000001c277 .LASF651
     /tmp/ccJdQ6R8.s:104856  .debug_str:0000000000043923 .LASF652
     /tmp/ccJdQ6R8.s:95342  .debug_str:000000000001cedd .LASF653
     /tmp/ccJdQ6R8.s:101322  .debug_str:000000000003556a .LASF654
     /tmp/ccJdQ6R8.s:91542  .debug_str:000000000000dada .LASF655
     /tmp/ccJdQ6R8.s:101126  .debug_str:0000000000034901 .LASF656
     /tmp/ccJdQ6R8.s:88958  .debug_str:0000000000002bca .LASF657
     /tmp/ccJdQ6R8.s:100770  .debug_str:00000000000330b4 .LASF658
     /tmp/ccJdQ6R8.s:90950  .debug_str:000000000000b3ae .LASF659
     /tmp/ccJdQ6R8.s:105104  .debug_str:000000000004484c .LASF660
     /tmp/ccJdQ6R8.s:95416  .debug_str:000000000001d41a .LASF661
     /tmp/ccJdQ6R8.s:98350  .debug_str:0000000000029448 .LASF662
     /tmp/ccJdQ6R8.s:89966  .debug_str:0000000000007123 .LASF663
     /tmp/ccJdQ6R8.s:99910  .debug_str:000000000002f8b7 .LASF664
     /tmp/ccJdQ6R8.s:95158  .debug_str:000000000001c256 .LASF665
     /tmp/ccJdQ6R8.s:96212  .debug_str:0000000000020c06 .LASF666
     /tmp/ccJdQ6R8.s:101136  .debug_str:000000000003499f .LASF667
     /tmp/ccJdQ6R8.s:90404  .debug_str:0000000000008e53 .LASF668
     /tmp/ccJdQ6R8.s:93692  .debug_str:0000000000015e30 .LASF669
     /tmp/ccJdQ6R8.s:107048  .debug_str:000000000004cce9 .LASF670
     /tmp/ccJdQ6R8.s:96312  .debug_str:000000000002129a .LASF671
     /tmp/ccJdQ6R8.s:94480  .debug_str:000000000001927b .LASF672
     /tmp/ccJdQ6R8.s:106432  .debug_str:000000000004a1a2 .LASF673
     /tmp/ccJdQ6R8.s:99572  .debug_str:000000000002e25c .LASF674
     /tmp/ccJdQ6R8.s:99644  .debug_str:000000000002e6a2 .LASF675
     /tmp/ccJdQ6R8.s:96892  .debug_str:0000000000023927 .LASF676
     /tmp/ccJdQ6R8.s:89326  .debug_str:0000000000004547 .LASF677
     /tmp/ccJdQ6R8.s:99416  .debug_str:000000000002d780 .LASF678
     /tmp/ccJdQ6R8.s:101298  .debug_str:000000000003544e .LASF679
     /tmp/ccJdQ6R8.s:101130  .debug_str:000000000003494b .LASF680
     /tmp/ccJdQ6R8.s:92492  .debug_str:0000000000011218 .LASF681
     /tmp/ccJdQ6R8.s:103104  .debug_str:000000000003c544 .LASF682
     /tmp/ccJdQ6R8.s:94536  .debug_str:0000000000019651 .LASF683
     /tmp/ccJdQ6R8.s:104908  .debug_str:0000000000043ca7 .LASF684
     /tmp/ccJdQ6R8.s:96326  .debug_str:0000000000021335 .LASF685
     /tmp/ccJdQ6R8.s:92810  .debug_str:00000000000126e9 .LASF686
     /tmp/ccJdQ6R8.s:106776  .debug_str:000000000004babd .LASF687
     /tmp/ccJdQ6R8.s:94756  .debug_str:000000000001a67a .LASF688
     /tmp/ccJdQ6R8.s:105120  .debug_str:00000000000449de .LASF689
     /tmp/ccJdQ6R8.s:96540  .debug_str:0000000000022151 .LASF690
     /tmp/ccJdQ6R8.s:106890  .debug_str:000000000004c2ab .LASF691
     /tmp/ccJdQ6R8.s:98446  .debug_str:00000000000299d4 .LASF692
     /tmp/ccJdQ6R8.s:89896  .debug_str:0000000000006cd9 .LASF693
     /tmp/ccJdQ6R8.s:100344  .debug_str:00000000000315d4 .LASF694
     /tmp/ccJdQ6R8.s:91632  .debug_str:000000000000e0e5 .LASF695
     /tmp/ccJdQ6R8.s:107170  .debug_str:000000000004d596 .LASF696
     /tmp/ccJdQ6R8.s:104654  .debug_str:0000000000042d05 .LASF697
     /tmp/ccJdQ6R8.s:89946  .debug_str:000000000000703c .LASF698
     /tmp/ccJdQ6R8.s:100404  .debug_str:0000000000031993 .LASF699
     /tmp/ccJdQ6R8.s:91874  .debug_str:000000000000ecaf .LASF700
     /tmp/ccJdQ6R8.s:102392  .debug_str:0000000000039426 .LASF701
     /tmp/ccJdQ6R8.s:102932  .debug_str:000000000003b92a .LASF702
     /tmp/ccJdQ6R8.s:104100  .debug_str:000000000004086d .LASF703
     /tmp/ccJdQ6R8.s:95540  .debug_str:000000000001dd3c .LASF704
     /tmp/ccJdQ6R8.s:106034  .debug_str:00000000000485df .LASF705
     /tmp/ccJdQ6R8.s:90928  .debug_str:000000000000b21e .LASF706
     /tmp/ccJdQ6R8.s:94010  .debug_str:0000000000017468 .LASF707
     /tmp/ccJdQ6R8.s:104364  .debug_str:0000000000041a3f .LASF708
     /tmp/ccJdQ6R8.s:105308  .debug_str:00000000000455bf .LASF709
     /tmp/ccJdQ6R8.s:91996  .debug_str:000000000000f4c8 .LASF710
     /tmp/ccJdQ6R8.s:105588  .debug_str:000000000004684a .LASF711
     /tmp/ccJdQ6R8.s:96716  .debug_str:0000000000022d07 .LASF712
     /tmp/ccJdQ6R8.s:89512  .debug_str:000000000000520a .LASF713
     /tmp/ccJdQ6R8.s:101408  .debug_str:0000000000035b11 .LASF714
     /tmp/ccJdQ6R8.s:100538  .debug_str:00000000000321d5 .LASF715
     /tmp/ccJdQ6R8.s:93924  .debug_str:0000000000016e88 .LASF716
     /tmp/ccJdQ6R8.s:93112  .debug_str:0000000000013a7d .LASF717
     /tmp/ccJdQ6R8.s:104932  .debug_str:0000000000043e76 .LASF718
     /tmp/ccJdQ6R8.s:97624  .debug_str:00000000000262e6 .LASF719
     /tmp/ccJdQ6R8.s:93196  .debug_str:0000000000013fbf .LASF720
     /tmp/ccJdQ6R8.s:92076  .debug_str:000000000000f961 .LASF721
     /tmp/ccJdQ6R8.s:100918  .debug_str:0000000000033a9c .LASF722
     /tmp/ccJdQ6R8.s:106188  .debug_str:0000000000049100 .LASF723
     /tmp/ccJdQ6R8.s:93934  .debug_str:0000000000016f28 .LASF724
     /tmp/ccJdQ6R8.s:94224  .debug_str:00000000000181a4 .LASF725
     /tmp/ccJdQ6R8.s:106798  .debug_str:000000000004bc2c .LASF726
     /tmp/ccJdQ6R8.s:98274  .debug_str:0000000000028f14 .LASF727
     /tmp/ccJdQ6R8.s:89578  .debug_str:000000000000574d .LASF728
     /tmp/ccJdQ6R8.s:100106  .debug_str:00000000000304f2 .LASF729
     /tmp/ccJdQ6R8.s:91536  .debug_str:000000000000da6e .LASF730
     /tmp/ccJdQ6R8.s:102064  .debug_str:0000000000037f90 .LASF731
     /tmp/ccJdQ6R8.s:93418  .debug_str:0000000000014d0c .LASF732
     /tmp/ccJdQ6R8.s:103744  .debug_str:000000000003ef32 .LASF733
     /tmp/ccJdQ6R8.s:95194  .debug_str:000000000001c470 .LASF734
     /tmp/ccJdQ6R8.s:97888  .debug_str:0000000000027510 .LASF735
     /tmp/ccJdQ6R8.s:89230  .debug_str:0000000000003eae .LASF736
     /tmp/ccJdQ6R8.s:99696  .debug_str:000000000002ea56 .LASF737
     /tmp/ccJdQ6R8.s:90938  .debug_str:000000000000b2e1 .LASF738
     /tmp/ccJdQ6R8.s:103934  .debug_str:000000000003fc91 .LASF739
     /tmp/ccJdQ6R8.s:93042  .debug_str:0000000000013646 .LASF740
     /tmp/ccJdQ6R8.s:103382  .debug_str:000000000003d716 .LASF741
     /tmp/ccJdQ6R8.s:94832  .debug_str:000000000001ab32 .LASF742
     /tmp/ccJdQ6R8.s:105180  .debug_str:0000000000044dbf .LASF743
     /tmp/ccJdQ6R8.s:96600  .debug_str:00000000000224fe .LASF744
     /tmp/ccJdQ6R8.s:93100  .debug_str:00000000000139f4 .LASF745
     /tmp/ccJdQ6R8.s:103438  .debug_str:000000000003daad .LASF746
     /tmp/ccJdQ6R8.s:95044  .debug_str:000000000001ba27 .LASF747
     /tmp/ccJdQ6R8.s:105406  .debug_str:0000000000045cb1 .LASF748
     /tmp/ccJdQ6R8.s:96858  .debug_str:00000000000236c8 .LASF749
     /tmp/ccJdQ6R8.s:93744  .debug_str:000000000001623c .LASF750
     /tmp/ccJdQ6R8.s:98736  .debug_str:000000000002ac5b .LASF751
     /tmp/ccJdQ6R8.s:90158  .debug_str:0000000000007d34 .LASF752
     /tmp/ccJdQ6R8.s:100654  .debug_str:000000000003295a .LASF753
     /tmp/ccJdQ6R8.s:91944  .debug_str:000000000000f084 .LASF754
     /tmp/ccJdQ6R8.s:88522  .debug_str:0000000000000cf2 .LASF755
     /tmp/ccJdQ6R8.s:98948  .debug_str:000000000002ba84 .LASF756
     /tmp/ccJdQ6R8.s:93110  .debug_str:0000000000013a52 .LASF757
     /tmp/ccJdQ6R8.s:89038  .debug_str:00000000000031e0 .LASF758
     /tmp/ccJdQ6R8.s:100704  .debug_str:0000000000032cc7 .LASF759
     /tmp/ccJdQ6R8.s:94528  .debug_str:00000000000195ac .LASF760
     /tmp/ccJdQ6R8.s:100596  .debug_str:00000000000325d5 .LASF761
     /tmp/ccJdQ6R8.s:97058  .debug_str:0000000000024269 .LASF762
     /tmp/ccJdQ6R8.s:102220  .debug_str:0000000000038890 .LASF763
     /tmp/ccJdQ6R8.s:96534  .debug_str:00000000000220d3 .LASF764
     /tmp/ccJdQ6R8.s:103238  .debug_str:000000000003ce58 .LASF765
     /tmp/ccJdQ6R8.s:96004  .debug_str:000000000001fe68 .LASF766
     /tmp/ccJdQ6R8.s:102908  .debug_str:000000000003b792 .LASF767
     /tmp/ccJdQ6R8.s:94760  .debug_str:000000000001a69f .LASF768
     /tmp/ccJdQ6R8.s:105804  .debug_str:0000000000047758 .LASF769
     /tmp/ccJdQ6R8.s:104560  .debug_str:0000000000042671 .LASF770
     /tmp/ccJdQ6R8.s:94608  .debug_str:0000000000019b8f .LASF771
     /tmp/ccJdQ6R8.s:94382  .debug_str:0000000000018bc6 .LASF772
     /tmp/ccJdQ6R8.s:93980  .debug_str:000000000001725d .LASF773
     /tmp/ccJdQ6R8.s:93748  .debug_str:0000000000016262 .LASF774
     /tmp/ccJdQ6R8.s:93356  .debug_str:00000000000148d6 .LASF775
     /tmp/ccJdQ6R8.s:93120  .debug_str:0000000000013adb .LASF776
     /tmp/ccJdQ6R8.s:92708  .debug_str:00000000000120c6 .LASF777
     /tmp/ccJdQ6R8.s:92466  .debug_str:0000000000010fa7 .LASF778
     /tmp/ccJdQ6R8.s:92036  .debug_str:000000000000f6d1 .LASF779
     /tmp/ccJdQ6R8.s:92290  .debug_str:00000000000104cc .LASF780
     /tmp/ccJdQ6R8.s:90508  .debug_str:0000000000009539 .LASF781
     /tmp/ccJdQ6R8.s:88872  .debug_str:0000000000002568 .LASF782
     /tmp/ccJdQ6R8.s:106070  .debug_str:0000000000048858 .LASF783
     /tmp/ccJdQ6R8.s:90914  .debug_str:000000000000b0ed .LASF784
     /tmp/ccJdQ6R8.s:95688  .debug_str:000000000001e72b .LASF785
     /tmp/ccJdQ6R8.s:100572  .debug_str:0000000000032401 .LASF786
     /tmp/ccJdQ6R8.s:105354  .debug_str:0000000000045915 .LASF787
     /tmp/ccJdQ6R8.s:90974  .debug_str:000000000000b591 .LASF788
     /tmp/ccJdQ6R8.s:95944  .debug_str:000000000001f9b6 .LASF789
     /tmp/ccJdQ6R8.s:90954  .debug_str:000000000000b417 .LASF790
     /tmp/ccJdQ6R8.s:101602  .debug_str:000000000003666c .LASF791
     /tmp/ccJdQ6R8.s:106192  .debug_str:000000000004914d .LASF792
     /tmp/ccJdQ6R8.s:102848  .debug_str:000000000003b3c0 .LASF793
     /tmp/ccJdQ6R8.s:95964  .debug_str:000000000001fbe0 .LASF794
     /tmp/ccJdQ6R8.s:106478  .debug_str:000000000004a4ed .LASF795
     /tmp/ccJdQ6R8.s:97996  .debug_str:0000000000027c72 .LASF796
     /tmp/ccJdQ6R8.s:89540  .debug_str:0000000000005404 .LASF797
     /tmp/ccJdQ6R8.s:100040  .debug_str:000000000003004c .LASF798
     /tmp/ccJdQ6R8.s:91516  .debug_str:000000000000d8dc .LASF799
     /tmp/ccJdQ6R8.s:95736  .debug_str:000000000001eaa3 .LASF800
     /tmp/ccJdQ6R8.s:106270  .debug_str:000000000004969a .LASF801
     /tmp/ccJdQ6R8.s:105546  .debug_str:00000000000465a4 .LASF802
     /tmp/ccJdQ6R8.s:97042  .debug_str:000000000002416a .LASF803
     /tmp/ccJdQ6R8.s:102656  .debug_str:000000000003a6c9 .LASF804
     /tmp/ccJdQ6R8.s:100434  .debug_str:0000000000031b84 .LASF805
     /tmp/ccJdQ6R8.s:98462  .debug_str:0000000000029aa3 .LASF806
     /tmp/ccJdQ6R8.s:96226  .debug_str:0000000000020d25 .LASF807
     /tmp/ccJdQ6R8.s:99992  .debug_str:000000000002fd87 .LASF808
     /tmp/ccJdQ6R8.s:98476  .debug_str:0000000000029b5e .LASF809
     /tmp/ccJdQ6R8.s:92032  .debug_str:000000000000f664 .LASF810
     /tmp/ccJdQ6R8.s:91782  .debug_str:000000000000e762 .LASF811
     /tmp/ccJdQ6R8.s:93470  .debug_str:000000000001506a .LASF812
     /tmp/ccJdQ6R8.s:104844  .debug_str:0000000000043873 .LASF813
     /tmp/ccJdQ6R8.s:90286  .debug_str:0000000000008614 .LASF814
     /tmp/ccJdQ6R8.s:98756  .debug_str:000000000002ad95 .LASF815
     /tmp/ccJdQ6R8.s:95808  .debug_str:000000000001ef3a .LASF816
     /tmp/ccJdQ6R8.s:95306  .debug_str:000000000001cc02 .LASF817
     /tmp/ccJdQ6R8.s:103758  .debug_str:000000000003f012 .LASF818
     /tmp/ccJdQ6R8.s:103342  .debug_str:000000000003d472 .LASF819
     /tmp/ccJdQ6R8.s:89048  .debug_str:000000000000328f .LASF820
     /tmp/ccJdQ6R8.s:99028  .debug_str:000000000002bed9 .LASF821
     /tmp/ccJdQ6R8.s:107194  .debug_str:000000000004d71a .LASF822
     /tmp/ccJdQ6R8.s:106972  .debug_str:000000000004c82c .LASF823
     /tmp/ccJdQ6R8.s:98044  .debug_str:0000000000028067 .LASF824
     /tmp/ccJdQ6R8.s:95630  .debug_str:000000000001e291 .LASF825
     /tmp/ccJdQ6R8.s:94486  .debug_str:00000000000192e7 .LASF826
     /tmp/ccJdQ6R8.s:100244  .debug_str:0000000000030e79 .LASF827
     /tmp/ccJdQ6R8.s:97902  .debug_str:0000000000027631 .LASF828
     /tmp/ccJdQ6R8.s:102708  .debug_str:000000000003aa7b .LASF829
     /tmp/ccJdQ6R8.s:88502  .debug_str:0000000000000b87 .LASF830
     /tmp/ccJdQ6R8.s:98854  .debug_str:000000000002b42f .LASF831
     /tmp/ccJdQ6R8.s:104598  .debug_str:0000000000042962 .LASF832
     /tmp/ccJdQ6R8.s:100472  .debug_str:0000000000031de8 .LASF833
     /tmp/ccJdQ6R8.s:91438  .debug_str:000000000000d4c6 .LASF834
     /tmp/ccJdQ6R8.s:104420  .debug_str:0000000000041d90 .LASF835
     /tmp/ccJdQ6R8.s:97878  .debug_str:0000000000027481 .LASF836
     /tmp/ccJdQ6R8.s:88562  .debug_str:0000000000000f9a .LASF837
     /tmp/ccJdQ6R8.s:97306  .debug_str:0000000000024e0b .LASF838
     /tmp/ccJdQ6R8.s:101380  .debug_str:0000000000035993 .LASF839
     /tmp/ccJdQ6R8.s:104024  .debug_str:00000000000402d3 .LASF840
     /tmp/ccJdQ6R8.s:89862  .debug_str:0000000000006a34 .LASF841
     /tmp/ccJdQ6R8.s:91790  .debug_str:000000000000e7e2 .LASF842
     /tmp/ccJdQ6R8.s:96800  .debug_str:000000000002326e .LASF843
     /tmp/ccJdQ6R8.s:97742  .debug_str:0000000000026bf2 .LASF844
     /tmp/ccJdQ6R8.s:103966  .debug_str:000000000003fe9d .LASF845
     /tmp/ccJdQ6R8.s:98136  .debug_str:00000000000285b0 .LASF846
     /tmp/ccJdQ6R8.s:96978  .debug_str:0000000000023e10 .LASF847
     /tmp/ccJdQ6R8.s:95900  .debug_str:000000000001f64e .LASF848
     /tmp/ccJdQ6R8.s:89088  .debug_str:00000000000034b8 .LASF849
     /tmp/ccJdQ6R8.s:102628  .debug_str:000000000003a495 .LASF850
     /tmp/ccJdQ6R8.s:94470  .debug_str:00000000000191c6 .LASF851
     /tmp/ccJdQ6R8.s:104196  .debug_str:0000000000040e01 .LASF852
     /tmp/ccJdQ6R8.s:106260  .debug_str:0000000000049603 .LASF853
     /tmp/ccJdQ6R8.s:96492  .debug_str:0000000000021dbd .LASF854
     /tmp/ccJdQ6R8.s:96410  .debug_str:000000000002186e .LASF855
     /tmp/ccJdQ6R8.s:101624  .debug_str:0000000000036814 .LASF856
     /tmp/ccJdQ6R8.s:99306  .debug_str:000000000002d0a1 .LASF857
     /tmp/ccJdQ6R8.s:105666  .debug_str:0000000000046ded .LASF858
     /tmp/ccJdQ6R8.s:92996  .debug_str:0000000000013354 .LASF859
     /tmp/ccJdQ6R8.s:99524  .debug_str:000000000002de7c .LASF860
     /tmp/ccJdQ6R8.s:97318  .debug_str:0000000000024f06 .LASF861
     /tmp/ccJdQ6R8.s:95692  .debug_str:000000000001e7aa .LASF862
     /tmp/ccJdQ6R8.s:94814  .debug_str:000000000001aa30 .LASF863
     /tmp/ccJdQ6R8.s:89416  .debug_str:0000000000004b9c .LASF864
     /tmp/ccJdQ6R8.s:95940  .debug_str:000000000001f966 .LASF865
     /tmp/ccJdQ6R8.s:90176  .debug_str:0000000000007e80 .LASF866
     /tmp/ccJdQ6R8.s:107058  .debug_str:000000000004cd7f .LASF867
     /tmp/ccJdQ6R8.s:94538  .debug_str:000000000001966a .LASF868
     /tmp/ccJdQ6R8.s:90012  .debug_str:0000000000007448 .LASF869
     /tmp/ccJdQ6R8.s:95528  .debug_str:000000000001dc31 .LASF870
     /tmp/ccJdQ6R8.s:88628  .debug_str:00000000000013fc .LASF871
     /tmp/ccJdQ6R8.s:102044  .debug_str:0000000000037e3f .LASF872
     /tmp/ccJdQ6R8.s:88864  .debug_str:00000000000024c1 .LASF873
     /tmp/ccJdQ6R8.s:98482  .debug_str:0000000000029bee .LASF874
     /tmp/ccJdQ6R8.s:100328  .debug_str:000000000003148f .LASF875
     /tmp/ccJdQ6R8.s:107172  .debug_str:000000000004d5af .LASF876
     /tmp/ccJdQ6R8.s:95132  .debug_str:000000000001c07c .LASF877
     /tmp/ccJdQ6R8.s:102100  .debug_str:0000000000038104 .LASF878
     /tmp/ccJdQ6R8.s:94108  .debug_str:0000000000017aa7 .LASF879
     /tmp/ccJdQ6R8.s:96838  .debug_str:0000000000023507 .LASF880
     /tmp/ccJdQ6R8.s:103028  .debug_str:000000000003bf95 .LASF881
     /tmp/ccJdQ6R8.s:88536  .debug_str:0000000000000df9 .LASF882
     /tmp/ccJdQ6R8.s:98678  .debug_str:000000000002a87e .LASF883
     /tmp/ccJdQ6R8.s:105496  .debug_str:000000000004624a .LASF884
     /tmp/ccJdQ6R8.s:97734  .debug_str:0000000000026b1d .LASF885
     /tmp/ccJdQ6R8.s:105000  .debug_str:0000000000044291 .LASF886
     /tmp/ccJdQ6R8.s:103128  .debug_str:000000000003c6de .LASF887
     /tmp/ccJdQ6R8.s:105976  .debug_str:0000000000048254 .LASF888
     /tmp/ccJdQ6R8.s:88894  .debug_str:0000000000002754 .LASF889
     /tmp/ccJdQ6R8.s:92664  .debug_str:0000000000011e1d .LASF890
     /tmp/ccJdQ6R8.s:95368  .debug_str:000000000001d097 .LASF891
     /tmp/ccJdQ6R8.s:98154  .debug_str:000000000002873f .LASF892
     /tmp/ccJdQ6R8.s:101028  .debug_str:0000000000034284 .LASF893
     /tmp/ccJdQ6R8.s:103672  .debug_str:000000000003e9aa .LASF894
     /tmp/ccJdQ6R8.s:94696  .debug_str:000000000001a277 .LASF895
     /tmp/ccJdQ6R8.s:97422  .debug_str:00000000000255bf .LASF896
     /tmp/ccJdQ6R8.s:100172  .debug_str:00000000000308cc .LASF897
     /tmp/ccJdQ6R8.s:103012  .debug_str:000000000003bead .LASF898
     /tmp/ccJdQ6R8.s:105712  .debug_str:0000000000047174 .LASF899
     /tmp/ccJdQ6R8.s:89610  .debug_str:0000000000005955 .LASF900
     /tmp/ccJdQ6R8.s:92316  .debug_str:000000000001071b .LASF901
     /tmp/ccJdQ6R8.s:95092  .debug_str:000000000001be0c .LASF902
     /tmp/ccJdQ6R8.s:98004  .debug_str:0000000000027d41 .LASF903
     /tmp/ccJdQ6R8.s:100738  .debug_str:0000000000032e92 .LASF904
     /tmp/ccJdQ6R8.s:91582  .debug_str:000000000000dd73 .LASF905
     /tmp/ccJdQ6R8.s:94398  .debug_str:0000000000018cee .LASF906
     /tmp/ccJdQ6R8.s:97090  .debug_str:000000000002446c .LASF907
     /tmp/ccJdQ6R8.s:92198  .debug_str:000000000000ffd5 .LASF908
     /tmp/ccJdQ6R8.s:102762  .debug_str:000000000003adc9 .LASF909
     /tmp/ccJdQ6R8.s:105592  .debug_str:000000000004688f .LASF910
     /tmp/ccJdQ6R8.s:99086  .debug_str:000000000002c24f .LASF911
     /tmp/ccJdQ6R8.s:92180  .debug_str:000000000000fe64 .LASF912
     /tmp/ccJdQ6R8.s:94964  .debug_str:000000000001b4f9 .LASF913
     /tmp/ccJdQ6R8.s:97704  .debug_str:00000000000268dc .LASF914
     /tmp/ccJdQ6R8.s:88660  .debug_str:0000000000001632 .LASF915
     /tmp/ccJdQ6R8.s:91286  .debug_str:000000000000cab7 .LASF916
     /tmp/ccJdQ6R8.s:94258  .debug_str:00000000000182fd .LASF917
     /tmp/ccJdQ6R8.s:96960  .debug_str:0000000000023d14 .LASF918
     /tmp/ccJdQ6R8.s:99752  .debug_str:000000000002edcf .LASF919
     /tmp/ccJdQ6R8.s:102616  .debug_str:000000000003a3b0 .LASF920
     /tmp/ccJdQ6R8.s:105290  .debug_str:0000000000045485 .LASF921
     /tmp/ccJdQ6R8.s:89188  .debug_str:0000000000003b98 .LASF922
     /tmp/ccJdQ6R8.s:91876  .debug_str:000000000000ecc8 .LASF923
     /tmp/ccJdQ6R8.s:94666  .debug_str:000000000001a070 .LASF924
     /tmp/ccJdQ6R8.s:104590  .debug_str:00000000000428bc .LASF925
     /tmp/ccJdQ6R8.s:95656  .debug_str:000000000001e4a4 .LASF926
     /tmp/ccJdQ6R8.s:96518  .debug_str:0000000000021fab .LASF927
     /tmp/ccJdQ6R8.s:91358  .debug_str:000000000000cf8d .LASF928
     /tmp/ccJdQ6R8.s:96684  .debug_str:0000000000022ada .LASF929
     /tmp/ccJdQ6R8.s:99642  .debug_str:000000000002e66d .LASF930
     /tmp/ccJdQ6R8.s:102372  .debug_str:00000000000392b3 .LASF931
     /tmp/ccJdQ6R8.s:105166  .debug_str:0000000000044d0d .LASF932
     /tmp/ccJdQ6R8.s:88912  .debug_str:0000000000002895 .LASF933
     /tmp/ccJdQ6R8.s:91546  .debug_str:000000000000db26 .LASF934
     /tmp/ccJdQ6R8.s:101630  .debug_str:000000000003688a .LASF935
     /tmp/ccJdQ6R8.s:104296  .debug_str:000000000004155b .LASF936
     /tmp/ccJdQ6R8.s:101052  .debug_str:0000000000034445 .LASF937
     /tmp/ccJdQ6R8.s:90862  .debug_str:000000000000ad14 .LASF938
     /tmp/ccJdQ6R8.s:95790  .debug_str:000000000001edff .LASF939
     /tmp/ccJdQ6R8.s:99496  .debug_str:000000000002dc41 .LASF940
     /tmp/ccJdQ6R8.s:98934  .debug_str:000000000002b933 .LASF941
     /tmp/ccJdQ6R8.s:98390  .debug_str:0000000000029633 .LASF942
     /tmp/ccJdQ6R8.s:97634  .debug_str:0000000000026389 .LASF943
     /tmp/ccJdQ6R8.s:106166  .debug_str:0000000000048fa2 .LASF944
     /tmp/ccJdQ6R8.s:92820  .debug_str:0000000000012764 .LASF945
     /tmp/ccJdQ6R8.s:100908  .debug_str:00000000000339dc .LASF946
     /tmp/ccJdQ6R8.s:91282  .debug_str:000000000000ca7a .LASF947
     /tmp/ccJdQ6R8.s:98808  .debug_str:000000000002b0cd .LASF948
     /tmp/ccJdQ6R8.s:92288  .debug_str:000000000001049d .LASF949
     /tmp/ccJdQ6R8.s:103850  .debug_str:000000000003f753 .LASF950
     /tmp/ccJdQ6R8.s:91190  .debug_str:000000000000c418 .LASF951
     /tmp/ccJdQ6R8.s:94772  .debug_str:000000000001a768 .LASF952
     /tmp/ccJdQ6R8.s:98922  .debug_str:000000000002b89d .LASF953
     /tmp/ccJdQ6R8.s:102404  .debug_str:00000000000394f3 .LASF954
     /tmp/ccJdQ6R8.s:106224  .debug_str:00000000000493d9 .LASF955
     /tmp/ccJdQ6R8.s:104112  .debug_str:00000000000408fc .LASF956
     /tmp/ccJdQ6R8.s:92858  .debug_str:0000000000012a6b .LASF957
     /tmp/ccJdQ6R8.s:101512  .debug_str:00000000000360ce .LASF958
     /tmp/ccJdQ6R8.s:90890  .debug_str:000000000000af31 .LASF959
     /tmp/ccJdQ6R8.s:99670  .debug_str:000000000002e831 .LASF960
     /tmp/ccJdQ6R8.s:89228  .debug_str:0000000000003e65 .LASF961
     /tmp/ccJdQ6R8.s:97740  .debug_str:0000000000026ba9 .LASF962
     /tmp/ccJdQ6R8.s:106298  .debug_str:00000000000498b2 .LASF963
     /tmp/ccJdQ6R8.s:95848  .debug_str:000000000001f26f .LASF964
     /tmp/ccJdQ6R8.s:105610  .debug_str:00000000000469b8 .LASF965
     /tmp/ccJdQ6R8.s:89084  .debug_str:0000000000003461 .LASF966
     /tmp/ccJdQ6R8.s:88788  .debug_str:0000000000001f58 .LASF967
     /tmp/ccJdQ6R8.s:95246  .debug_str:000000000001c837 .LASF968
     /tmp/ccJdQ6R8.s:107190  .debug_str:000000000004d6b2 .LASF969
     /tmp/ccJdQ6R8.s:89144  .debug_str:0000000000003898 .LASF970
     /tmp/ccJdQ6R8.s:96750  .debug_str:0000000000022f00 .LASF971
     /tmp/ccJdQ6R8.s:93080  .debug_str:0000000000013878 .LASF972
     /tmp/ccJdQ6R8.s:90516  .debug_str:00000000000095f7 .LASF973
     /tmp/ccJdQ6R8.s:95196  .debug_str:000000000001c48b .LASF974
     /tmp/ccJdQ6R8.s:103424  .debug_str:000000000003d96f .LASF975
     /tmp/ccJdQ6R8.s:90820  .debug_str:000000000000a9f1 .LASF976
     /tmp/ccJdQ6R8.s:93788  .debug_str:00000000000164e5 .LASF977
     /tmp/ccJdQ6R8.s:100242  .debug_str:0000000000030e2d .LASF978
     /tmp/ccJdQ6R8.s:106408  .debug_str:0000000000049fc2 .LASF979
     /tmp/ccJdQ6R8.s:93916  .debug_str:0000000000016dbc .LASF980
     /tmp/ccJdQ6R8.s:100222  .debug_str:0000000000030c76 .LASF981
     /tmp/ccJdQ6R8.s:106602  .debug_str:000000000004ac98 .LASF982
     /tmp/ccJdQ6R8.s:94264  .debug_str:0000000000018379 .LASF983
     /tmp/ccJdQ6R8.s:100756  .debug_str:0000000000032f85 .LASF984
     /tmp/ccJdQ6R8.s:101154  .debug_str:0000000000034acb .LASF985
     /tmp/ccJdQ6R8.s:94632  .debug_str:0000000000019d3a .LASF986
     /tmp/ccJdQ6R8.s:94596  .debug_str:0000000000019aca .LASF987
     /tmp/ccJdQ6R8.s:89390  .debug_str:00000000000049f3 .LASF988
     /tmp/ccJdQ6R8.s:90782  .debug_str:000000000000a796 .LASF989
     /tmp/ccJdQ6R8.s:91038  .debug_str:000000000000ba22 .LASF990
     /tmp/ccJdQ6R8.s:89746  .debug_str:00000000000061cf .LASF991
     /tmp/ccJdQ6R8.s:104012  .debug_str:00000000000401fb .LASF992
     /tmp/ccJdQ6R8.s:93910  .debug_str:0000000000016d4b .LASF993
     /tmp/ccJdQ6R8.s:95390  .debug_str:000000000001d209 .LASF994
     /tmp/ccJdQ6R8.s:89308  .debug_str:0000000000004402 .LASF995
     /tmp/ccJdQ6R8.s:98730  .debug_str:000000000002ac03 .LASF996
     /tmp/ccJdQ6R8.s:95272  .debug_str:000000000001c9d8 .LASF997
     /tmp/ccJdQ6R8.s:104714  .debug_str:00000000000430ac .LASF998
     /tmp/ccJdQ6R8.s:104706  .debug_str:0000000000043033 .LASF999
     /tmp/ccJdQ6R8.s:95650  .debug_str:000000000001e40b .LASF1000
     /tmp/ccJdQ6R8.s:104644  .debug_str:0000000000042c49 .LASF1001
     /tmp/ccJdQ6R8.s:97354  .debug_str:0000000000025191 .LASF1002
     /tmp/ccJdQ6R8.s:100598  .debug_str:000000000003260e .LASF1003
     /tmp/ccJdQ6R8.s:92042  .debug_str:000000000000f74b .LASF1004
     /tmp/ccJdQ6R8.s:103326  .debug_str:000000000003d345 .LASF1005
     /tmp/ccJdQ6R8.s:105276  .debug_str:00000000000453c1 .LASF1006
     /tmp/ccJdQ6R8.s:98398  .debug_str:00000000000296ef .LASF1007
     /tmp/ccJdQ6R8.s:103830  .debug_str:000000000003f5ce .LASF1008
     /tmp/ccJdQ6R8.s:97896  .debug_str:000000000002759c .LASF1009
     /tmp/ccJdQ6R8.s:90346  .debug_str:0000000000008a1b .LASF1010
     /tmp/ccJdQ6R8.s:102048  .debug_str:0000000000037e93 .LASF1011
     /tmp/ccJdQ6R8.s:88364  .debug_str:000000000000025c .LASF1012
     /tmp/ccJdQ6R8.s:96588  .debug_str:00000000000223e5 .LASF1013
     /tmp/ccJdQ6R8.s:89554  .debug_str:000000000000558a .LASF1014
     /tmp/ccJdQ6R8.s:93600  .debug_str:000000000001587e .LASF1015
     /tmp/ccJdQ6R8.s:105700  .debug_str:000000000004706d .LASF1016
     /tmp/ccJdQ6R8.s:97556  .debug_str:0000000000025f30 .LASF1017
     /tmp/ccJdQ6R8.s:96116  .debug_str:0000000000020558 .LASF1018
     /tmp/ccJdQ6R8.s:92780  .debug_str:00000000000124d3 .LASF1019
     /tmp/ccJdQ6R8.s:89942  .debug_str:0000000000007007 .LASF1020
     /tmp/ccJdQ6R8.s:97584  .debug_str:00000000000260f5 .LASF1021
     /tmp/ccJdQ6R8.s:100054  .debug_str:000000000003014f .LASF1022
     /tmp/ccJdQ6R8.s:93368  .debug_str:00000000000149bd .LASF1023
     /tmp/ccJdQ6R8.s:93654  .debug_str:0000000000015c11 .LASF1024
     /tmp/ccJdQ6R8.s:94880  .debug_str:000000000001ae71 .LASF1025
     /tmp/ccJdQ6R8.s:98174  .debug_str:0000000000028884 .LASF1026
     /tmp/ccJdQ6R8.s:94402  .debug_str:0000000000018d34 .LASF1027
     /tmp/ccJdQ6R8.s:88782  .debug_str:0000000000001eef .LASF1028
     /tmp/ccJdQ6R8.s:100370  .debug_str:0000000000031764 .LASF1029
     /tmp/ccJdQ6R8.s:103066  .debug_str:000000000003c2c9 .LASF1030
     /tmp/ccJdQ6R8.s:95064  .debug_str:000000000001bba7 .LASF1031
     /tmp/ccJdQ6R8.s:105932  .debug_str:0000000000047f37 .LASF1032
     /tmp/ccJdQ6R8.s:88814  .debug_str:000000000000216c .LASF1033
     /tmp/ccJdQ6R8.s:97402  .debug_str:000000000002546a .LASF1034
     /tmp/ccJdQ6R8.s:103686  .debug_str:000000000003eab3 .LASF1035
     /tmp/ccJdQ6R8.s:100320  .debug_str:00000000000313d7 .LASF1036
     /tmp/ccJdQ6R8.s:96828  .debug_str:0000000000023469 .LASF1037
     /tmp/ccJdQ6R8.s:93426  .debug_str:0000000000014d67 .LASF1038
     /tmp/ccJdQ6R8.s:92430  .debug_str:0000000000010dc6 .LASF1039
     /tmp/ccJdQ6R8.s:91450  .debug_str:000000000000d59d .LASF1040
     /tmp/ccJdQ6R8.s:89392  .debug_str:0000000000004a41 .LASF1041
     /tmp/ccJdQ6R8.s:92222  .debug_str:0000000000010116 .LASF1042
     /tmp/ccJdQ6R8.s:104060  .debug_str:0000000000040568 .LASF1043
     /tmp/ccJdQ6R8.s:106640  .debug_str:000000000004afed .LASF1044
     /tmp/ccJdQ6R8.s:93990  .debug_str:0000000000017347 .LASF1045
     /tmp/ccJdQ6R8.s:100302  .debug_str:0000000000031299 .LASF1046
     /tmp/ccJdQ6R8.s:106516  .debug_str:000000000004a7d3 .LASF1047
     /tmp/ccJdQ6R8.s:93888  .debug_str:0000000000016bb4 .LASF1048
     /tmp/ccJdQ6R8.s:92666  .debug_str:0000000000011e52 .LASF1049
     /tmp/ccJdQ6R8.s:99034  .debug_str:000000000002bf4a .LASF1050
     /tmp/ccJdQ6R8.s:105232  .debug_str:00000000000450a9 .LASF1051
     /tmp/ccJdQ6R8.s:92536  .debug_str:0000000000011517 .LASF1052
     /tmp/ccJdQ6R8.s:98906  .debug_str:000000000002b753 .LASF1053
     /tmp/ccJdQ6R8.s:104412  .debug_str:0000000000041d3e .LASF1054
     /tmp/ccJdQ6R8.s:89916  .debug_str:0000000000006dfa .LASF1055
     /tmp/ccJdQ6R8.s:104080  .debug_str:0000000000040702 .LASF1056
     /tmp/ccJdQ6R8.s:99676  .debug_str:000000000002e8cb .LASF1057
     /tmp/ccJdQ6R8.s:91562  .debug_str:000000000000dbe0 .LASF1058
     /tmp/ccJdQ6R8.s:92120  .debug_str:000000000000fb47 .LASF1059
     /tmp/ccJdQ6R8.s:91302  .debug_str:000000000000cbd2 .LASF1060
     /tmp/ccJdQ6R8.s:103586  .debug_str:000000000003e403 .LASF1061
     /tmp/ccJdQ6R8.s:95690  .debug_str:000000000001e782 .LASF1062
     /tmp/ccJdQ6R8.s:106524  .debug_str:000000000004a82f .LASF1063
     /tmp/ccJdQ6R8.s:96136  .debug_str:00000000000206c4 .LASF1064
     /tmp/ccJdQ6R8.s:90432  .debug_str:0000000000008fe9 .LASF1065
     /tmp/ccJdQ6R8.s:101612  .debug_str:000000000003676d .LASF1066
     /tmp/ccJdQ6R8.s:93498  .debug_str:0000000000015211 .LASF1067
     /tmp/ccJdQ6R8.s:104500  .debug_str:00000000000422ee .LASF1068
     /tmp/ccJdQ6R8.s:96460  .debug_str:0000000000021b9f .LASF1069
     /tmp/ccJdQ6R8.s:100574  .debug_str:0000000000032458 .LASF1070
     /tmp/ccJdQ6R8.s:90658  .debug_str:0000000000009eca .LASF1071
     /tmp/ccJdQ6R8.s:100224  .debug_str:0000000000030cc4 .LASF1072
     /tmp/ccJdQ6R8.s:90386  .debug_str:0000000000008cae .LASF1073
     /tmp/ccJdQ6R8.s:99812  .debug_str:000000000002f218 .LASF1074
     /tmp/ccJdQ6R8.s:90160  .debug_str:0000000000007d50 .LASF1075
     /tmp/ccJdQ6R8.s:99574  .debug_str:000000000002e26c .LASF1076
     /tmp/ccJdQ6R8.s:89926  .debug_str:0000000000006ec0 .LASF1077
     /tmp/ccJdQ6R8.s:99324  .debug_str:000000000002d1ac .LASF1078
     /tmp/ccJdQ6R8.s:89686  .debug_str:0000000000005e18 .LASF1079
     /tmp/ccJdQ6R8.s:99072  .debug_str:000000000002c160 .LASF1080
     /tmp/ccJdQ6R8.s:91136  .debug_str:000000000000c047 .LASF1081
     /tmp/ccJdQ6R8.s:95492  .debug_str:000000000001d9ca .LASF1082
     /tmp/ccJdQ6R8.s:90720  .debug_str:000000000000a360 .LASF1083
     /tmp/ccJdQ6R8.s:100290  .debug_str:00000000000311a2 .LASF1084
     /tmp/ccJdQ6R8.s:103118  .debug_str:000000000003c61c .LASF1085
     /tmp/ccJdQ6R8.s:100038  .debug_str:0000000000030022 .LASF1086
     /tmp/ccJdQ6R8.s:90228  .debug_str:0000000000008265 .LASF1087
     /tmp/ccJdQ6R8.s:99790  .debug_str:000000000002f04d .LASF1088
     /tmp/ccJdQ6R8.s:89986  .debug_str:0000000000007273 .LASF1089
     /tmp/ccJdQ6R8.s:91300  .debug_str:000000000000cba8 .LASF1090
     /tmp/ccJdQ6R8.s:91462  .debug_str:000000000000d636 .LASF1091
     /tmp/ccJdQ6R8.s:100878  .debug_str:00000000000337b5 .LASF1092
     /tmp/ccJdQ6R8.s:91220  .debug_str:000000000000c630 .LASF1093
     /tmp/ccJdQ6R8.s:100630  .debug_str:000000000003280e .LASF1094
     /tmp/ccJdQ6R8.s:95512  .debug_str:000000000001dad7 .LASF1095
     /tmp/ccJdQ6R8.s:100362  .debug_str:00000000000316d0 .LASF1096
     /tmp/ccJdQ6R8.s:90708  .debug_str:000000000000a2a3 .LASF1097
     /tmp/ccJdQ6R8.s:100114  .debug_str:0000000000030571 .LASF1098
     /tmp/ccJdQ6R8.s:90436  .debug_str:0000000000009027 .LASF1099
     /tmp/ccJdQ6R8.s:99856  .debug_str:000000000002f53f .LASF1100
     /tmp/ccJdQ6R8.s:91824  .debug_str:000000000000ea49 .LASF1101
     /tmp/ccJdQ6R8.s:101348  .debug_str:000000000003574a .LASF1102
     /tmp/ccJdQ6R8.s:91540  .debug_str:000000000000dab0 .LASF1103
     /tmp/ccJdQ6R8.s:101102  .debug_str:0000000000034771 .LASF1104
     /tmp/ccJdQ6R8.s:91290  .debug_str:000000000000cafa .LASF1105
     /tmp/ccJdQ6R8.s:100864  .debug_str:00000000000336ba .LASF1106
     /tmp/ccJdQ6R8.s:91026  .debug_str:000000000000b95b .LASF1107
     /tmp/ccJdQ6R8.s:100430  .debug_str:0000000000031b32 .LASF1108
     /tmp/ccJdQ6R8.s:90778  .debug_str:000000000000a74b .LASF1109
     /tmp/ccJdQ6R8.s:106552  .debug_str:000000000004a9be .LASF1110
     /tmp/ccJdQ6R8.s:92340  .debug_str:0000000000010825 .LASF1111
     /tmp/ccJdQ6R8.s:101710  .debug_str:0000000000036d2e .LASF1112
     /tmp/ccJdQ6R8.s:92068  .debug_str:000000000000f8c1 .LASF1113
     /tmp/ccJdQ6R8.s:101428  .debug_str:0000000000035bec .LASF1114
     /tmp/ccJdQ6R8.s:91552  .debug_str:000000000000db89 .LASF1115
     /tmp/ccJdQ6R8.s:101162  .debug_str:0000000000034b61 .LASF1116
     /tmp/ccJdQ6R8.s:91354  .debug_str:000000000000cf4a .LASF1117
     /tmp/ccJdQ6R8.s:100942  .debug_str:0000000000033c36 .LASF1118
     /tmp/ccJdQ6R8.s:91098  .debug_str:000000000000bdd5 .LASF1119
     /tmp/ccJdQ6R8.s:100690  .debug_str:0000000000032bb3 .LASF1120
     /tmp/ccJdQ6R8.s:92706  .debug_str:000000000001209c .LASF1121
     /tmp/ccJdQ6R8.s:102226  .debug_str:00000000000388ed .LASF1122
     /tmp/ccJdQ6R8.s:92420  .debug_str:0000000000010d80 .LASF1123
     /tmp/ccJdQ6R8.s:101780  .debug_str:00000000000370e7 .LASF1124
     /tmp/ccJdQ6R8.s:92366  .debug_str:00000000000109ec .LASF1125
     /tmp/ccJdQ6R8.s:93224  .debug_str:0000000000014159 .LASF1126
     /tmp/ccJdQ6R8.s:88332  .debug_str:0000000000000021 .LASF1127
     /tmp/ccJdQ6R8.s:102308  .debug_str:0000000000038e25 .LASF1128
     /tmp/ccJdQ6R8.s:96216  .debug_str:0000000000020c38 .LASF1129
     /tmp/ccJdQ6R8.s:104344  .debug_str:00000000000418e1 .LASF1130
     /tmp/ccJdQ6R8.s:89018  .debug_str:000000000000306f .LASF1131
     /tmp/ccJdQ6R8.s:89384  .debug_str:0000000000004970 .LASF1132
     /tmp/ccJdQ6R8.s:89800  .debug_str:0000000000006583 .LASF1133
     /tmp/ccJdQ6R8.s:90152  .debug_str:0000000000007cba .LASF1134
     /tmp/ccJdQ6R8.s:92986  .debug_str:0000000000013283 .LASF1135
     /tmp/ccJdQ6R8.s:93320  .debug_str:00000000000146c0 .LASF1136
     /tmp/ccJdQ6R8.s:100966  .debug_str:0000000000033dde .LASF1137
     /tmp/ccJdQ6R8.s:90806  .debug_str:000000000000a924 .LASF1138
     /tmp/ccJdQ6R8.s:105946  .debug_str:0000000000048032 .LASF1139
     /tmp/ccJdQ6R8.s:89802  .debug_str:00000000000065b4 .LASF1140
     /tmp/ccJdQ6R8.s:106138  .debug_str:0000000000048d9c .LASF1141
     /tmp/ccJdQ6R8.s:89182  .debug_str:0000000000003b38 .LASF1142
     /tmp/ccJdQ6R8.s:104218  .debug_str:0000000000040f79 .LASF1143
     /tmp/ccJdQ6R8.s:104846  .debug_str:00000000000438af .LASF1144
     /tmp/ccJdQ6R8.s:103608  .debug_str:000000000003e58c .LASF1145
     /tmp/ccJdQ6R8.s:103788  .debug_str:000000000003f22e .LASF1146
     /tmp/ccJdQ6R8.s:94424  .debug_str:0000000000018ea6 .LASF1147
     /tmp/ccJdQ6R8.s:94062  .debug_str:0000000000017762 .LASF1148
     /tmp/ccJdQ6R8.s:106938  .debug_str:000000000004c5d8 .LASF1149
     /tmp/ccJdQ6R8.s:98504  .debug_str:0000000000029e02 .LASF1150
     /tmp/ccJdQ6R8.s:92130  .debug_str:000000000000fbd4 .LASF1151
     /tmp/ccJdQ6R8.s:100702  .debug_str:0000000000032cb1 .LASF1152
     /tmp/ccJdQ6R8.s:90562  .debug_str:000000000000990f .LASF1153
     /tmp/ccJdQ6R8.s:88342  .debug_str:00000000000000cb .LASF1154
     /tmp/ccJdQ6R8.s:96502  .debug_str:0000000000021e96 .LASF1155
     /tmp/ccJdQ6R8.s:96746  .debug_str:0000000000022ed5 .LASF1156
     /tmp/ccJdQ6R8.s:102666  .debug_str:000000000003a78f .LASF1157
     /tmp/ccJdQ6R8.s:104814  .debug_str:00000000000436f1 .LASF1158
     /tmp/ccJdQ6R8.s:106288  .debug_str:000000000004981d .LASF1159
     /tmp/ccJdQ6R8.s:95918  .debug_str:000000000001f7cb .LASF1160
     /tmp/ccJdQ6R8.s:99610  .debug_str:000000000002e49b .LASF1161
     /tmp/ccJdQ6R8.s:92376  .debug_str:0000000000010aca .LASF1163
     /tmp/ccJdQ6R8.s:105658  .debug_str:0000000000046d78 .LASF1164
     /tmp/ccJdQ6R8.s:93632  .debug_str:0000000000015a66 .LASF1165
     /tmp/ccJdQ6R8.s:98112  .debug_str:0000000000028450 .LASF1166
     /tmp/ccJdQ6R8.s:93480  .debug_str:0000000000015115 .LASF1167
     /tmp/ccJdQ6R8.s:93422  .debug_str:0000000000014d52 .LASF1168
     /tmp/ccJdQ6R8.s:99580  .debug_str:000000000002e2e8 .LASF1169
     /tmp/ccJdQ6R8.s:107164  .debug_str:000000000004d51b .LASF1170
     /tmp/ccJdQ6R8.s:93720  .debug_str:0000000000016077 .LASF1171
     /tmp/ccJdQ6R8.s:95710  .debug_str:000000000001e8e0 .LASF1172
     /tmp/ccJdQ6R8.s:96820  .debug_str:00000000000233cd .LASF1173
     /tmp/ccJdQ6R8.s:104040  .debug_str:0000000000040415 .LASF1174
     /tmp/ccJdQ6R8.s:91866  .debug_str:000000000000ec4c .LASF1175
     /tmp/ccJdQ6R8.s:98340  .debug_str:0000000000029374 .LASF1176
     /tmp/ccJdQ6R8.s:89826  .debug_str:00000000000067b9 .LASF1177
     /tmp/ccJdQ6R8.s:90698  .debug_str:000000000000a1d0 .LASF1178
     /tmp/ccJdQ6R8.s:98688  .debug_str:000000000002a91b .LASF1179
     /tmp/ccJdQ6R8.s:90692  .debug_str:000000000000a177 .LASF1180
     /tmp/ccJdQ6R8.s:95544  .debug_str:000000000001dd8f .LASF1181
     /tmp/ccJdQ6R8.s:100562  .debug_str:0000000000032332 .LASF1182
     /tmp/ccJdQ6R8.s:105264  .debug_str:00000000000452cf .LASF1183
     /tmp/ccJdQ6R8.s:89014  .debug_str:0000000000003026 .LASF1184
     /tmp/ccJdQ6R8.s:98206  .debug_str:0000000000028a7f .LASF1185
     /tmp/ccJdQ6R8.s:89400  .debug_str:0000000000004ac4 .LASF1186
     /tmp/ccJdQ6R8.s:91522  .debug_str:000000000000d982 .LASF1187
     /tmp/ccJdQ6R8.s:107174  .debug_str:000000000004d5e2 .LASF1188
     /tmp/ccJdQ6R8.s:97978  .debug_str:0000000000027b71 .LASF1189
     /tmp/ccJdQ6R8.s:106880  .debug_str:000000000004c1fa .LASF1190
     /tmp/ccJdQ6R8.s:98336  .debug_str:000000000002932d .LASF1191
     /tmp/ccJdQ6R8.s:105334  .debug_str:00000000000457f9 .LASF1192
     /tmp/ccJdQ6R8.s:104354  .debug_str:000000000004198b .LASF1193
     /tmp/ccJdQ6R8.s:91890  .debug_str:000000000000eda5 .LASF1194
     /tmp/ccJdQ6R8.s:105832  .debug_str:00000000000478cb .LASF1195
     /tmp/ccJdQ6R8.s:94896  .debug_str:000000000001afa1 .LASF1196
     /tmp/ccJdQ6R8.s:94432  .debug_str:0000000000018f21 .LASF1197
     /tmp/ccJdQ6R8.s:98314  .debug_str:0000000000029194 .LASF1198
     /tmp/ccJdQ6R8.s:90214  .debug_str:0000000000008154 .LASF1199
     /tmp/ccJdQ6R8.s:92372  .debug_str:0000000000010a71 .LASF1200
     /tmp/ccJdQ6R8.s:100346  .debug_str:00000000000315ed .LASF1201
     /tmp/ccJdQ6R8.s:91624  .debug_str:000000000000e056 .LASF1202
     /tmp/ccJdQ6R8.s:105720  .debug_str:00000000000471fb .LASF1203
     /tmp/ccJdQ6R8.s:94494  .debug_str:0000000000019392 .LASF1204
     /tmp/ccJdQ6R8.s:106988  .debug_str:000000000004c983 .LASF1205
     /tmp/ccJdQ6R8.s:92176  .debug_str:000000000000fe11 .LASF1206
     /tmp/ccJdQ6R8.s:100740  .debug_str:0000000000032ec7 .LASF1207
     /tmp/ccJdQ6R8.s:106828  .debug_str:000000000004be47 .LASF1208
     /tmp/ccJdQ6R8.s:99694  .debug_str:000000000002ea37 .LASF1209
     /tmp/ccJdQ6R8.s:97694  .debug_str:000000000002683a .LASF1210
     /tmp/ccJdQ6R8.s:100504  .debug_str:0000000000032022 .LASF1211
     /tmp/ccJdQ6R8.s:94670  .debug_str:000000000001a0d1 .LASF1212
     /tmp/ccJdQ6R8.s:101476  .debug_str:0000000000035f93 .LASF1213
     /tmp/ccJdQ6R8.s:103976  .debug_str:000000000003ff7c .LASF1214
     /tmp/ccJdQ6R8.s:102816  .debug_str:000000000003b1fc .LASF1215
     /tmp/ccJdQ6R8.s:94994  .debug_str:000000000001b6a8 .LASF1216
     /tmp/ccJdQ6R8.s:99020  .debug_str:000000000002be5f .LASF1217
     /tmp/ccJdQ6R8.s:106382  .debug_str:0000000000049e43 .LASF1218
     /tmp/ccJdQ6R8.s:92220  .debug_str:00000000000100ec .LASF1219
     /tmp/ccJdQ6R8.s:91226  .debug_str:000000000000c6a3 .LASF1220
     /tmp/ccJdQ6R8.s:90930  .debug_str:000000000000b237 .LASF1221
     /tmp/ccJdQ6R8.s:88722  .debug_str:0000000000001ae8 .LASF1222
     /tmp/ccJdQ6R8.s:100230  .debug_str:0000000000030d19 .LASF1223
     /tmp/ccJdQ6R8.s:93468  .debug_str:000000000001503f .LASF1224
     /tmp/ccJdQ6R8.s:98290  .debug_str:0000000000028ff3 .LASF1225
     /tmp/ccJdQ6R8.s:100438  .debug_str:0000000000031bd5 .LASF1226
     /tmp/ccJdQ6R8.s:95678  .debug_str:000000000001e67c .LASF1227
     /tmp/ccJdQ6R8.s:94326  .debug_str:00000000000187ef .LASF1228
     /tmp/ccJdQ6R8.s:101132  .debug_str:0000000000034964 .LASF1229
     /tmp/ccJdQ6R8.s:90464  .debug_str:00000000000091c4 .LASF1230
     /tmp/ccJdQ6R8.s:102550  .debug_str:0000000000039eb2 .LASF1231
     /tmp/ccJdQ6R8.s:103984  .debug_str:0000000000040006 .LASF1232
     /tmp/ccJdQ6R8.s:95376  .debug_str:000000000001d130 .LASF1233
     /tmp/ccJdQ6R8.s:106944  .debug_str:000000000004c617 .LASF1234
     /tmp/ccJdQ6R8.s:103980  .debug_str:000000000003ffd8 .LASF1235
     /tmp/ccJdQ6R8.s:106968  .debug_str:000000000004c7db .LASF1236
     /tmp/ccJdQ6R8.s:91424  .debug_str:000000000000d3eb .LASF1237
     /tmp/ccJdQ6R8.s:106428  .debug_str:000000000004a145 .LASF1238
     /tmp/ccJdQ6R8.s:95606  .debug_str:000000000001e0e7 .LASF1239
     /tmp/ccJdQ6R8.s:105800  .debug_str:000000000004772a .LASF1240
     /tmp/ccJdQ6R8.s:89498  .debug_str:00000000000050f7 .LASF1241
     /tmp/ccJdQ6R8.s:93940  .debug_str:0000000000016f6a .LASF1242
     /tmp/ccJdQ6R8.s:104276  .debug_str:0000000000041398 .LASF1243
     /tmp/ccJdQ6R8.s:94292  .debug_str:00000000000185b6 .LASF1244
     /tmp/ccJdQ6R8.s:96950  .debug_str:0000000000023bae .LASF1245
     /tmp/ccJdQ6R8.s:96384  .debug_str:0000000000021780 .LASF1246
     /tmp/ccJdQ6R8.s:107146  .debug_str:000000000004d3e4 .LASF1247
     /tmp/ccJdQ6R8.s:100216  .debug_str:0000000000030c01 .LASF1248
     /tmp/ccJdQ6R8.s:90550  .debug_str:0000000000009855 .LASF1249
     /tmp/ccJdQ6R8.s:97262  .debug_str:0000000000024cc8 .LASF1250
     /tmp/ccJdQ6R8.s:100778  .debug_str:000000000003313f .LASF1251
     /tmp/ccJdQ6R8.s:88524  .debug_str:0000000000000d0e .LASF1252
     /tmp/ccJdQ6R8.s:91826  .debug_str:000000000000ea73 .LASF1253
     /tmp/ccJdQ6R8.s:107074  .debug_str:000000000004ce72 .LASF1254
     /tmp/ccJdQ6R8.s:106134  .debug_str:0000000000048d55 .LASF1255
     /tmp/ccJdQ6R8.s:98568  .debug_str:000000000002a139 .LASF1256
     /tmp/ccJdQ6R8.s:97364  .debug_str:0000000000025218 .LASF1257
     /tmp/ccJdQ6R8.s:91180  .debug_str:000000000000c37a .LASF1258
     /tmp/ccJdQ6R8.s:96490  .debug_str:0000000000021d95 .LASF1259
     /tmp/ccJdQ6R8.s:100560  .debug_str:00000000000322fc .LASF1260
     /tmp/ccJdQ6R8.s:105616  .debug_str:0000000000046a5c .LASF1261
     /tmp/ccJdQ6R8.s:107204  .debug_str:000000000004d7cc .LASF1262
     /tmp/ccJdQ6R8.s:102896  .debug_str:000000000003b6e4 .LASF1263
     /tmp/ccJdQ6R8.s:98708  .debug_str:000000000002aa29 .LASF1264
     /tmp/ccJdQ6R8.s:94042  .debug_str:0000000000017620 .LASF1265
     /tmp/ccJdQ6R8.s:90130  .debug_str:0000000000007b58 .LASF1266
     /tmp/ccJdQ6R8.s:104120  .debug_str:000000000004097d .LASF1267
     /tmp/ccJdQ6R8.s:100622  .debug_str:000000000003277d .LASF1268
     /tmp/ccJdQ6R8.s:95330  .debug_str:000000000001cdb8 .LASF1269
     /tmp/ccJdQ6R8.s:91910  .debug_str:000000000000ef1b .LASF1270
     /tmp/ccJdQ6R8.s:105452  .debug_str:0000000000045f68 .LASF1271
     /tmp/ccJdQ6R8.s:105650  .debug_str:0000000000046d0e .LASF1272
     /tmp/ccJdQ6R8.s:94544  .debug_str:00000000000196d8 .LASF1273
     /tmp/ccJdQ6R8.s:97044  .debug_str:00000000000241a5 .LASF1274
     /tmp/ccJdQ6R8.s:104650  .debug_str:0000000000042cba .LASF1275
     /tmp/ccJdQ6R8.s:88488  .debug_str:0000000000000ae8 .LASF1276
     /tmp/ccJdQ6R8.s:95846  .debug_str:000000000001f24c .LASF1277
     /tmp/ccJdQ6R8.s:98914  .debug_str:000000000002b7e2 .LASF1278
     /tmp/ccJdQ6R8.s:93066  .debug_str:00000000000137ad .LASF1279
     /tmp/ccJdQ6R8.s:90178  .debug_str:0000000000007eb6 .LASF1280
     /tmp/ccJdQ6R8.s:101358  .debug_str:0000000000035828 .LASF1281
     /tmp/ccJdQ6R8.s:103954  .debug_str:000000000003fdee .LASF1282
     /tmp/ccJdQ6R8.s:93210  .debug_str:0000000000014085 .LASF1283
     /tmp/ccJdQ6R8.s:102508  .debug_str:0000000000039c11 .LASF1284
     /tmp/ccJdQ6R8.s:103314  .debug_str:000000000003d25c .LASF1285
     /tmp/ccJdQ6R8.s:89716  .debug_str:0000000000005ff4 .LASF1286
     /tmp/ccJdQ6R8.s:97394  .debug_str:00000000000253eb .LASF1287
     /tmp/ccJdQ6R8.s:100162  .debug_str:0000000000030841 .LASF1288
     /tmp/ccJdQ6R8.s:88550  .debug_str:0000000000000ed8 .LASF1289
     /tmp/ccJdQ6R8.s:101266  .debug_str:0000000000035279 .LASF1290
     /tmp/ccJdQ6R8.s:93568  .debug_str:00000000000156b3 .LASF1291
     /tmp/ccJdQ6R8.s:92652  .debug_str:0000000000011d2c .LASF1292
     /tmp/ccJdQ6R8.s:103660  .debug_str:000000000003e8c9 .LASF1293
     /tmp/ccJdQ6R8.s:103740  .debug_str:000000000003eed3 .LASF1294
     /tmp/ccJdQ6R8.s:95622  .debug_str:000000000001e234 .LASF1295
     /tmp/ccJdQ6R8.s:106336  .debug_str:0000000000049b4c .LASF1296
     /tmp/ccJdQ6R8.s:104888  .debug_str:0000000000043b66 .LASF1297
     /tmp/ccJdQ6R8.s:94858  .debug_str:000000000001acd4 .LASF1298
     /tmp/ccJdQ6R8.s:102340  .debug_str:00000000000390e8 .LASF1299
     /tmp/ccJdQ6R8.s:106320  .debug_str:0000000000049a35 .LASF1300
     /tmp/ccJdQ6R8.s:93404  .debug_str:0000000000014c20 .LASF1301
     /tmp/ccJdQ6R8.s:99832  .debug_str:000000000002f3af .LASF1302
     /tmp/ccJdQ6R8.s:96610  .debug_str:00000000000225a3 .LASF1303
     /tmp/ccJdQ6R8.s:91730  .debug_str:000000000000e5c9 .LASF1304
     /tmp/ccJdQ6R8.s:95398  .debug_str:000000000001d2aa .LASF1305
     /tmp/ccJdQ6R8.s:102172  .debug_str:00000000000384ea .LASF1306
     /tmp/ccJdQ6R8.s:94872  .debug_str:000000000001addc .LASF1307
     /tmp/ccJdQ6R8.s:101432  .debug_str:0000000000035c36 .LASF1308
     /tmp/ccJdQ6R8.s:103638  .debug_str:000000000003e712 .LASF1309
     /tmp/ccJdQ6R8.s:98170  .debug_str:0000000000028842 .LASF1310
     /tmp/ccJdQ6R8.s:99464  .debug_str:000000000002da35 .LASF1311
     /tmp/ccJdQ6R8.s:96860  .debug_str:00000000000236e4 .LASF1312
     /tmp/ccJdQ6R8.s:90882  .debug_str:000000000000aec7 .LASF1313
     /tmp/ccJdQ6R8.s:91968  .debug_str:000000000000f28b .LASF1314
     /tmp/ccJdQ6R8.s:88624  .debug_str:00000000000013d4 .LASF1315
     /tmp/ccJdQ6R8.s:103560  .debug_str:000000000003e246 .LASF1316
     /tmp/ccJdQ6R8.s:91294  .debug_str:000000000000cb64 .LASF1317
     /tmp/ccJdQ6R8.s:94442  .debug_str:0000000000018fcc .LASF1318
     /tmp/ccJdQ6R8.s:91232  .debug_str:000000000000c738 .LASF1319
     /tmp/ccJdQ6R8.s:104400  .debug_str:0000000000041c8f .LASF1320
     /tmp/ccJdQ6R8.s:91492  .debug_str:000000000000d78c .LASF1321
     /tmp/ccJdQ6R8.s:96500  .debug_str:0000000000021e6b .LASF1322
     /tmp/ccJdQ6R8.s:102032  .debug_str:0000000000037d7c .LASF1323
     /tmp/ccJdQ6R8.s:98874  .debug_str:000000000002b579 .LASF1324
     /tmp/ccJdQ6R8.s:93378  .debug_str:0000000000014a9d .LASF1325
     /tmp/ccJdQ6R8.s:97802  .debug_str:0000000000026f94 .LASF1326
     /tmp/ccJdQ6R8.s:103878  .debug_str:000000000003f93c .LASF1327
     /tmp/ccJdQ6R8.s:88928  .debug_str:0000000000002981 .LASF1328
     /tmp/ccJdQ6R8.s:95318  .debug_str:000000000001cce1 .LASF1329
     /tmp/ccJdQ6R8.s:99148  .debug_str:000000000002c63f .LASF1330
     /tmp/ccJdQ6R8.s:107094  .debug_str:000000000004d00b .LASF1331
     /tmp/ccJdQ6R8.s:103310  .debug_str:000000000003d219 .LASF1332
     /tmp/ccJdQ6R8.s:98586  .debug_str:000000000002a335 .LASF1333
     /tmp/ccJdQ6R8.s:89594  .debug_str:0000000000005895 .LASF1334
     /tmp/ccJdQ6R8.s:104850  .debug_str:00000000000438ed .LASF1335
     /tmp/ccJdQ6R8.s:95734  .debug_str:000000000001ea7b .LASF1336
     /tmp/ccJdQ6R8.s:96752  .debug_str:0000000000022f4c .LASF1337
     /tmp/ccJdQ6R8.s:98742  .debug_str:000000000002acbc .LASF1338
     /tmp/ccJdQ6R8.s:104188  .debug_str:0000000000040d36 .LASF1339
     /tmp/ccJdQ6R8.s:103654  .debug_str:000000000003e84e .LASF1340
     /tmp/ccJdQ6R8.s:105214  .debug_str:0000000000044f97 .LASF1341
     /tmp/ccJdQ6R8.s:94860  .debug_str:000000000001acf0 .LASF1342
     /tmp/ccJdQ6R8.s:93434  .debug_str:0000000000014dd8 .LASF1343
     /tmp/ccJdQ6R8.s:105538  .debug_str:0000000000046507 .LASF1344
     /tmp/ccJdQ6R8.s:107044  .debug_str:000000000004ccbe .LASF1345
     /tmp/ccJdQ6R8.s:93906  .debug_str:0000000000016cdb .LASF1346
     /tmp/ccJdQ6R8.s:100964  .debug_str:0000000000033dbe .LASF1347
     /tmp/ccJdQ6R8.s:104656  .debug_str:0000000000042d1e .LASF1348
     /tmp/ccJdQ6R8.s:94084  .debug_str:00000000000178d1 .LASF1349
     /tmp/ccJdQ6R8.s:89806  .debug_str:0000000000006626 .LASF1350
     /tmp/ccJdQ6R8.s:89402  .debug_str:0000000000004aec .LASF1351
     /tmp/ccJdQ6R8.s:93900  .debug_str:0000000000016c7d .LASF1352
     /tmp/ccJdQ6R8.s:103710  .debug_str:000000000003eca8 .LASF1353
     /tmp/ccJdQ6R8.s:106490  .debug_str:000000000004a5f8 .LASF1354
     /tmp/ccJdQ6R8.s:99162  .debug_str:000000000002c786 .LASF1355
     /tmp/ccJdQ6R8.s:96796  .debug_str:0000000000023209 .LASF1356
     /tmp/ccJdQ6R8.s:96132  .debug_str:0000000000020692 .LASF1357
     /tmp/ccJdQ6R8.s:98896  .debug_str:000000000002b6a9 .LASF1358
     /tmp/ccJdQ6R8.s:95486  .debug_str:000000000001d975 .LASF1359
     /tmp/ccJdQ6R8.s:94890  .debug_str:000000000001af3c .LASF1360
     /tmp/ccJdQ6R8.s:90746  .debug_str:000000000000a4f4 .LASF1361
     /tmp/ccJdQ6R8.s:104278  .debug_str:00000000000413b4 .LASF1362
     /tmp/ccJdQ6R8.s:105142  .debug_str:0000000000044b56 .LASF1363
     /tmp/ccJdQ6R8.s:95130  .debug_str:000000000001c053 .LASF1364
     /tmp/ccJdQ6R8.s:94542  .debug_str:00000000000196b7 .LASF1365
     /tmp/ccJdQ6R8.s:104372  .debug_str:0000000000041aab .LASF1366
     /tmp/ccJdQ6R8.s:89486  .debug_str:0000000000005029 .LASF1367
     /tmp/ccJdQ6R8.s:103572  .debug_str:000000000003e320 .LASF1368
     /tmp/ccJdQ6R8.s:105848  .debug_str:00000000000479b3 .LASF1369
     /tmp/ccJdQ6R8.s:98958  .debug_str:000000000002bb06 .LASF1370
     /tmp/ccJdQ6R8.s:105040  .debug_str:00000000000444c1 .LASF1371
     /tmp/ccJdQ6R8.s:90220  .debug_str:00000000000081d7 .LASF1372
     /tmp/ccJdQ6R8.s:97460  .debug_str:00000000000258bd .LASF1373
     /tmp/ccJdQ6R8.s:102080  .debug_str:0000000000038054 .LASF1374
     /tmp/ccJdQ6R8.s:103380  .debug_str:000000000003d6f0 .LASF1375
     /tmp/ccJdQ6R8.s:93432  .debug_str:0000000000014dba .LASF1376
     /tmp/ccJdQ6R8.s:94810  .debug_str:000000000001a9f2 .LASF1377
     /tmp/ccJdQ6R8.s:104994  .debug_str:000000000004421b .LASF1378
     /tmp/ccJdQ6R8.s:104236  .debug_str:0000000000041104 .LASF1379
     /tmp/ccJdQ6R8.s:105842  .debug_str:0000000000047966 .LASF1380
     /tmp/ccJdQ6R8.s:90684  .debug_str:000000000000a0e0 .LASF1381
     /tmp/ccJdQ6R8.s:100316  .debug_str:000000000003139c .LASF1382
     /tmp/ccJdQ6R8.s:96254  .debug_str:0000000000020f2f .LASF1383
     /tmp/ccJdQ6R8.s:94892  .debug_str:000000000001af65 .LASF1384
     /tmp/ccJdQ6R8.s:106306  .debug_str:000000000004994a .LASF1385
     /tmp/ccJdQ6R8.s:105240  .debug_str:0000000000045177 .LASF1386
     /tmp/ccJdQ6R8.s:97362  .debug_str:00000000000251ef .LASF1387
     /tmp/ccJdQ6R8.s:96654  .debug_str:00000000000228b9 .LASF1388
     /tmp/ccJdQ6R8.s:90624  .debug_str:0000000000009d0d .LASF1389
     /tmp/ccJdQ6R8.s:107012  .debug_str:000000000004cae5 .LASF1390
     /tmp/ccJdQ6R8.s:98718  .debug_str:000000000002ab10 .LASF1391
     /tmp/ccJdQ6R8.s:92952  .debug_str:0000000000013064 .LASF1392
     /tmp/ccJdQ6R8.s:99866  .debug_str:000000000002f5fc .LASF1393
     /tmp/ccJdQ6R8.s:103304  .debug_str:000000000003d1ca .LASF1394
     /tmp/ccJdQ6R8.s:106214  .debug_str:00000000000492dd .LASF1395
     /tmp/ccJdQ6R8.s:97718  .debug_str:00000000000269cf .LASF1396
     /tmp/ccJdQ6R8.s:100180  .debug_str:0000000000030978 .LASF1397
     /tmp/ccJdQ6R8.s:99842  .debug_str:000000000002f476 .LASF1398
     /tmp/ccJdQ6R8.s:91214  .debug_str:000000000000c5d6 .LASF1399
     /tmp/ccJdQ6R8.s:89994  .debug_str:000000000000731d .LASF1400
     /tmp/ccJdQ6R8.s:96506  .debug_str:0000000000021eb8 .LASF1401
     /tmp/ccJdQ6R8.s:100452  .debug_str:0000000000031cbc .LASF1402
     /tmp/ccJdQ6R8.s:106592  .debug_str:000000000004ac08 .LASF1403
     /tmp/ccJdQ6R8.s:91360  .debug_str:000000000000cfc2 .LASF1404
     /tmp/ccJdQ6R8.s:98430  .debug_str:00000000000298c7 .LASF1405
     /tmp/ccJdQ6R8.s:98880  .debug_str:000000000002b5c2 .LASF1406
     /tmp/ccJdQ6R8.s:88440  .debug_str:00000000000007c3 .LASF1407
     /tmp/ccJdQ6R8.s:105706  .debug_str:00000000000470fe .LASF1408
     /tmp/ccJdQ6R8.s:106656  .debug_str:000000000004b16d .LASF1409
     /tmp/ccJdQ6R8.s:92902  .debug_str:0000000000012de2 .LASF1410
     /tmp/ccJdQ6R8.s:95334  .debug_str:000000000001ce21 .LASF1411
     /tmp/ccJdQ6R8.s:99594  .debug_str:000000000002e37e .LASF1412
     /tmp/ccJdQ6R8.s:95646  .debug_str:000000000001e3a3 .LASF1413
     /tmp/ccJdQ6R8.s:94874  .debug_str:000000000001adfe .LASF1414
     /tmp/ccJdQ6R8.s:104912  .debug_str:0000000000043cf7 .LASF1415
     /tmp/ccJdQ6R8.s:90116  .debug_str:0000000000007a68 .LASF1416
     /tmp/ccJdQ6R8.s:106622  .debug_str:000000000004ae88 .LASF1417
     /tmp/ccJdQ6R8.s:101336  .debug_str:0000000000035691 .LASF1418
     /tmp/ccJdQ6R8.s:104316  .debug_str:00000000000416f7 .LASF1419
     /tmp/ccJdQ6R8.s:98252  .debug_str:0000000000028da0 .LASF1420
     /tmp/ccJdQ6R8.s:100406  .debug_str:00000000000319ac .LASF1421
     /tmp/ccJdQ6R8.s:98354  .debug_str:0000000000029484 .LASF1422
     /tmp/ccJdQ6R8.s:90560  .debug_str:00000000000098e8 .LASF1423
     /tmp/ccJdQ6R8.s:103784  .debug_str:000000000003f1eb .LASF1424
     /tmp/ccJdQ6R8.s:106176  .debug_str:000000000004906a .LASF1425
     /tmp/ccJdQ6R8.s:99230  .debug_str:000000000002cbe7 .LASF1426
     /tmp/ccJdQ6R8.s:90664  .debug_str:0000000000009f2d .LASF1427
     /tmp/ccJdQ6R8.s:102902  .debug_str:000000000003b72b .LASF1428
     /tmp/ccJdQ6R8.s:103156  .debug_str:000000000003c8b1 .LASF1429
     /tmp/ccJdQ6R8.s:102058  .debug_str:0000000000037f4e .LASF1430
     /tmp/ccJdQ6R8.s:91404  .debug_str:000000000000d2ba .LASF1431
     /tmp/ccJdQ6R8.s:98692  .debug_str:000000000002a95d .LASF1432
     /tmp/ccJdQ6R8.s:100568  .debug_str:00000000000323af .LASF1433
     /tmp/ccJdQ6R8.s:88392  .debug_str:000000000000044f .LASF1434
     /tmp/ccJdQ6R8.s:90830  .debug_str:000000000000aac1 .LASF1435
     /tmp/ccJdQ6R8.s:94514  .debug_str:000000000001948d .LASF1436
     /tmp/ccJdQ6R8.s:90690  .debug_str:000000000000a158 .LASF1437
     /tmp/ccJdQ6R8.s:97534  .debug_str:0000000000025de7 .LASF1438
     /tmp/ccJdQ6R8.s:103592  .debug_str:000000000003e47b .LASF1439
     /tmp/ccJdQ6R8.s:94304  .debug_str:0000000000018669 .LASF1440
     /tmp/ccJdQ6R8.s:106984  .debug_str:000000000004c92a .LASF1441
     /tmp/ccJdQ6R8.s:94870  .debug_str:000000000001adb2 .LASF1442
     /tmp/ccJdQ6R8.s:101164  .debug_str:0000000000034b8b .LASF1443
     /tmp/ccJdQ6R8.s:105698  .debug_str:000000000004704c .LASF1444
     /tmp/ccJdQ6R8.s:103432  .debug_str:000000000003da0d .LASF1445
     /tmp/ccJdQ6R8.s:99692  .debug_str:000000000002ea16 .LASF1446
     /tmp/ccJdQ6R8.s:104562  .debug_str:00000000000426c7 .LASF1447
     /tmp/ccJdQ6R8.s:104010  .debug_str:00000000000401e5 .LASF1448
     /tmp/ccJdQ6R8.s:97496  .debug_str:0000000000025b2c .LASF1449
     /tmp/ccJdQ6R8.s:90142  .debug_str:0000000000007c2b .LASF1450
     /tmp/ccJdQ6R8.s:98486  .debug_str:0000000000029c6c .LASF1451
     /tmp/ccJdQ6R8.s:98058  .debug_str:0000000000028163 .LASF1452
     /tmp/ccJdQ6R8.s:93068  .debug_str:00000000000137d0 .LASF1453
     /tmp/ccJdQ6R8.s:100010  .debug_str:000000000002fece .LASF1454
     /tmp/ccJdQ6R8.s:93876  .debug_str:0000000000016ab8 .LASF1455
     /tmp/ccJdQ6R8.s:98700  .debug_str:000000000002a9c1 .LASF1456
     /tmp/ccJdQ6R8.s:90424  .debug_str:0000000000008f8d .LASF1457
     /tmp/ccJdQ6R8.s:105136  .debug_str:0000000000044af7 .LASF1458
     /tmp/ccJdQ6R8.s:99678  .debug_str:000000000002e8f5 .LASF1459
     /tmp/ccJdQ6R8.s:89508  .debug_str:00000000000051a7 .LASF1460
     /tmp/ccJdQ6R8.s:91274  .debug_str:000000000000c99f .LASF1461
     /tmp/ccJdQ6R8.s:89234  .debug_str:0000000000003ef7 .LASF1462
     /tmp/ccJdQ6R8.s:93780  .debug_str:000000000001646d .LASF1463
     /tmp/ccJdQ6R8.s:90366  .debug_str:0000000000008ba9 .LASF1464
     /tmp/ccJdQ6R8.s:99718  .debug_str:000000000002eb8f .LASF1465
     /tmp/ccJdQ6R8.s:100968  .debug_str:0000000000033e15 .LASF1466
     /tmp/ccJdQ6R8.s:97538  .debug_str:0000000000025e23 .LASF1467
     /tmp/ccJdQ6R8.s:97708  .debug_str:000000000002692e .LASF1468
     /tmp/ccJdQ6R8.s:92726  .debug_str:00000000000121e5 .LASF1469
     /tmp/ccJdQ6R8.s:101730  .debug_str:0000000000036e9f .LASF1470
     /tmp/ccJdQ6R8.s:91804  .debug_str:000000000000e8b8 .LASF1471
     /tmp/ccJdQ6R8.s:89130  .debug_str:00000000000037b7 .LASF1472
     /tmp/ccJdQ6R8.s:106858  .debug_str:000000000004c0b0 .LASF1473
     /tmp/ccJdQ6R8.s:99144  .debug_str:000000000002c5f7 .LASF1474
     /tmp/ccJdQ6R8.s:101694  .debug_str:0000000000036c35 .LASF1475
     /tmp/ccJdQ6R8.s:106582  .debug_str:000000000004ab58 .LASF1476
     /tmp/ccJdQ6R8.s:96082  .debug_str:00000000000202fe .LASF1477
     /tmp/ccJdQ6R8.s:96196  .debug_str:0000000000020b26 .LASF1478
     /tmp/ccJdQ6R8.s:96626  .debug_str:00000000000226b4 .LASF1479
     /tmp/ccJdQ6R8.s:91204  .debug_str:000000000000c517 .LASF1480
     /tmp/ccJdQ6R8.s:101202  .debug_str:0000000000034df9 .LASF1481
     /tmp/ccJdQ6R8.s:100880  .debug_str:00000000000337df .LASF1482
     /tmp/ccJdQ6R8.s:90988  .debug_str:000000000000b6fb .LASF1483
     /tmp/ccJdQ6R8.s:92612  .debug_str:0000000000011ab9 .LASF1484
     /tmp/ccJdQ6R8.s:98284  .debug_str:0000000000028f9a .LASF1485
     /tmp/ccJdQ6R8.s:91386  .debug_str:000000000000d17f .LASF1486
     /tmp/ccJdQ6R8.s:103194  .debug_str:000000000003cb1f .LASF1487
     /tmp/ccJdQ6R8.s:88920  .debug_str:0000000000002914 .LASF1488
     /tmp/ccJdQ6R8.s:100174  .debug_str:0000000000030901 .LASF1489
     /tmp/ccJdQ6R8.s:102276  .debug_str:0000000000038c5c .LASF1490
     /tmp/ccJdQ6R8.s:103728  .debug_str:000000000003ee33 .LASF1491
     /tmp/ccJdQ6R8.s:94380  .debug_str:0000000000018bad .LASF1492
     /tmp/ccJdQ6R8.s:99372  .debug_str:000000000002d433 .LASF1493
     /tmp/ccJdQ6R8.s:99950  .debug_str:000000000002fb21 .LASF1494
     /tmp/ccJdQ6R8.s:93240  .debug_str:000000000001424d .LASF1495
     /tmp/ccJdQ6R8.s:99854  .debug_str:000000000002f516 .LASF1496
     /tmp/ccJdQ6R8.s:91376  .debug_str:000000000000d0c7 .LASF1497
     /tmp/ccJdQ6R8.s:96818  .debug_str:00000000000233ad .LASF1498
     /tmp/ccJdQ6R8.s:99828  .debug_str:000000000002f34c .LASF1499
     /tmp/ccJdQ6R8.s:92998  .debug_str:000000000001338a .LASF1500
     /tmp/ccJdQ6R8.s:88798  .debug_str:000000000000204b .LASF1501
     /tmp/ccJdQ6R8.s:95062  .debug_str:000000000001bb83 .LASF1502
     /tmp/ccJdQ6R8.s:91520  .debug_str:000000000000d956 .LASF1503
     /tmp/ccJdQ6R8.s:102252  .debug_str:0000000000038a74 .LASF1504
     /tmp/ccJdQ6R8.s:99864  .debug_str:000000000002f5d2 .LASF1505
     /tmp/ccJdQ6R8.s:94986  .debug_str:000000000001b610 .LASF1506
     /tmp/ccJdQ6R8.s:98352  .debug_str:000000000002945e .LASF1507
     /tmp/ccJdQ6R8.s:104922  .debug_str:0000000000043de6 .LASF1508
     /tmp/ccJdQ6R8.s:90412  .debug_str:0000000000008ebe .LASF1509
     /tmp/ccJdQ6R8.s:103048  .debug_str:000000000003c14c .LASF1510
     /tmp/ccJdQ6R8.s:96706  .debug_str:0000000000022c67 .LASF1511
     /tmp/ccJdQ6R8.s:99990  .debug_str:000000000002fd6d .LASF1512
     /tmp/ccJdQ6R8.s:90604  .debug_str:0000000000009b9f .LASF1513
     /tmp/ccJdQ6R8.s:93486  .debug_str:0000000000015173 .LASF1514
     /tmp/ccJdQ6R8.s:91146  .debug_str:000000000000c131 .LASF1515
     /tmp/ccJdQ6R8.s:99218  .debug_str:000000000002cb3e .LASF1516
     /tmp/ccJdQ6R8.s:91912  .debug_str:000000000000ef38 .LASF1517
     /tmp/ccJdQ6R8.s:95432  .debug_str:000000000001d551 .LASF1518
     /tmp/ccJdQ6R8.s:92136  .debug_str:000000000000fc25 .LASF1519
     /tmp/ccJdQ6R8.s:97514  .debug_str:0000000000025c70 .LASF1520
     /tmp/ccJdQ6R8.s:92396  .debug_str:0000000000010c1f .LASF1521
     /tmp/ccJdQ6R8.s:104026  .debug_str:0000000000040301 .LASF1522
     /tmp/ccJdQ6R8.s:100904  .debug_str:000000000003399e .LASF1523
     /tmp/ccJdQ6R8.s:89724  .debug_str:0000000000006059 .LASF1524
     /tmp/ccJdQ6R8.s:91948  .debug_str:000000000000f0b3 .LASF1525
     /tmp/ccJdQ6R8.s:99916  .debug_str:000000000002f90e .LASF1526
     /tmp/ccJdQ6R8.s:103504  .debug_str:000000000003df1a .LASF1527
     /tmp/ccJdQ6R8.s:96966  .debug_str:0000000000023d5f .LASF1528
     /tmp/ccJdQ6R8.s:103406  .debug_str:000000000003d87b .LASF1529
     /tmp/ccJdQ6R8.s:89680  .debug_str:0000000000005dcd .LASF1530
     /tmp/ccJdQ6R8.s:94900  .debug_str:000000000001affa .LASF1531
     /tmp/ccJdQ6R8.s:106120  .debug_str:0000000000048c47 .LASF1532
     /tmp/ccJdQ6R8.s:98638  .debug_str:000000000002a65c .LASF1533
     /tmp/ccJdQ6R8.s:94924  .debug_str:000000000001b1b1 .LASF1534
     /tmp/ccJdQ6R8.s:92630  .debug_str:0000000000011bf0 .LASF1535
     /tmp/ccJdQ6R8.s:89476  .debug_str:0000000000004f9e .LASF1536
     /tmp/ccJdQ6R8.s:96122  .debug_str:00000000000205bc .LASF1537
     /tmp/ccJdQ6R8.s:92514  .debug_str:00000000000113a6 .LASF1538
     /tmp/ccJdQ6R8.s:88726  .debug_str:0000000000001b31 .LASF1539
     /tmp/ccJdQ6R8.s:94850  .debug_str:000000000001ac50 .LASF1540
     /tmp/ccJdQ6R8.s:104292  .debug_str:00000000000414ef .LASF1541
     /tmp/ccJdQ6R8.s:97892  .debug_str:000000000002754b .LASF1542
     /tmp/ccJdQ6R8.s:95582  .debug_str:000000000001dfda .LASF1543
     /tmp/ccJdQ6R8.s:100486  .debug_str:0000000000031ec7 .LASF1544
     /tmp/ccJdQ6R8.s:100396  .debug_str:00000000000318f2 .LASF1545
     /tmp/ccJdQ6R8.s:94554  .debug_str:00000000000197b7 .LASF1546
     /tmp/ccJdQ6R8.s:103618  .debug_str:000000000003e631 .LASF1547
     /tmp/ccJdQ6R8.s:105224  .debug_str:0000000000045042 .LASF1548
     /tmp/ccJdQ6R8.s:90156  .debug_str:0000000000007d0b .LASF1549
     /tmp/ccJdQ6R8.s:94348  .debug_str:0000000000018963 .LASF1550
     /tmp/ccJdQ6R8.s:102474  .debug_str:0000000000039a4f .LASF1551
     /tmp/ccJdQ6R8.s:105392  .debug_str:0000000000045bf6 .LASF1552
     /tmp/ccJdQ6R8.s:100342  .debug_str:00000000000315a6 .LASF1553
     /tmp/ccJdQ6R8.s:105856  .debug_str:0000000000047a43 .LASF1554
     /tmp/ccJdQ6R8.s:96358  .debug_str:000000000002155d .LASF1555
     /tmp/ccJdQ6R8.s:100624  .debug_str:000000000003279a .LASF1556
     /tmp/ccJdQ6R8.s:90018  .debug_str:00000000000074ae .LASF1557
     /tmp/ccJdQ6R8.s:105774  .debug_str:000000000004756e .LASF1558
     /tmp/ccJdQ6R8.s:94278  .debug_str:0000000000018487 .LASF1559
     /tmp/ccJdQ6R8.s:101606  .debug_str:000000000003670c .LASF1560
     /tmp/ccJdQ6R8.s:101280  .debug_str:000000000003534b .LASF1561
     /tmp/ccJdQ6R8.s:95820  .debug_str:000000000001f01d .LASF1562
     /tmp/ccJdQ6R8.s:97962  .debug_str:0000000000027a5e .LASF1563
     /tmp/ccJdQ6R8.s:105888  .debug_str:0000000000047c97 .LASF1564
     /tmp/ccJdQ6R8.s:104676  .debug_str:0000000000042e64 .LASF1565
     /tmp/ccJdQ6R8.s:97076  .debug_str:000000000002438d .LASF1566
     /tmp/ccJdQ6R8.s:89268  .debug_str:00000000000041c8 .LASF1567
     /tmp/ccJdQ6R8.s:103338  .debug_str:000000000003d41b .LASF1568
     /tmp/ccJdQ6R8.s:90306  .debug_str:0000000000008725 .LASF1569
     /tmp/ccJdQ6R8.s:105970  .debug_str:00000000000481de .LASF1570
     /tmp/ccJdQ6R8.s:100808  .debug_str:00000000000333cc .LASF1571
     /tmp/ccJdQ6R8.s:106334  .debug_str:0000000000049b23 .LASF1572
     /tmp/ccJdQ6R8.s:96562  .debug_str:0000000000022283 .LASF1573
     /tmp/ccJdQ6R8.s:94688  .debug_str:000000000001a1e6 .LASF1574
     /tmp/ccJdQ6R8.s:106816  .debug_str:000000000004bd5e .LASF1575
     /tmp/ccJdQ6R8.s:91840  .debug_str:000000000000eb7b .LASF1576
     /tmp/ccJdQ6R8.s:103346  .debug_str:000000000003d4be .LASF1577
     /tmp/ccJdQ6R8.s:104052  .debug_str:00000000000404c5 .LASF1578
     /tmp/ccJdQ6R8.s:105400  .debug_str:0000000000045c58 .LASF1579
     /tmp/ccJdQ6R8.s:97234  .debug_str:0000000000024b12 .LASF1580
     /tmp/ccJdQ6R8.s:98704  .debug_str:000000000002a9f9 .LASF1581
     /tmp/ccJdQ6R8.s:105034  .debug_str:0000000000044453 .LASF1582
     /tmp/ccJdQ6R8.s:88336  .debug_str:0000000000000069 .LASF1583
     /tmp/ccJdQ6R8.s:96472  .debug_str:0000000000021c77 .LASF1584
     /tmp/ccJdQ6R8.s:98530  .debug_str:0000000000029f41 .LASF1585
     /tmp/ccJdQ6R8.s:93236  .debug_str:000000000001420a .LASF1586
     /tmp/ccJdQ6R8.s:89574  .debug_str:0000000000005711 .LASF1587
     /tmp/ccJdQ6R8.s:102972  .debug_str:000000000003bbde .LASF1588
     /tmp/ccJdQ6R8.s:97620  .debug_str:00000000000262a0 .LASF1589
     /tmp/ccJdQ6R8.s:88892  .debug_str:000000000000272d .LASF1590
     /tmp/ccJdQ6R8.s:98624  .debug_str:000000000002a568 .LASF1591
     /tmp/ccJdQ6R8.s:99358  .debug_str:000000000002d3ba .LASF1592
     /tmp/ccJdQ6R8.s:89676  .debug_str:0000000000005d5d .LASF1593
     /tmp/ccJdQ6R8.s:93976  .debug_str:000000000001722b .LASF1594
     /tmp/ccJdQ6R8.s:90834  .debug_str:000000000000ab1f .LASF1595
     /tmp/ccJdQ6R8.s:106026  .debug_str:0000000000048576 .LASF1596
     /tmp/ccJdQ6R8.s:102416  .debug_str:00000000000395c5 .LASF1597
     /tmp/ccJdQ6R8.s:96714  .debug_str:0000000000022ce1 .LASF1598
     /tmp/ccJdQ6R8.s:95392  .debug_str:000000000001d239 .LASF1599
     /tmp/ccJdQ6R8.s:106438  .debug_str:000000000004a201 .LASF1600
     /tmp/ccJdQ6R8.s:106598  .debug_str:000000000004ac4e .LASF1601
     /tmp/ccJdQ6R8.s:96854  .debug_str:0000000000023677 .LASF1602
     /tmp/ccJdQ6R8.s:92486  .debug_str:000000000001119b .LASF1603
     /tmp/ccJdQ6R8.s:101724  .debug_str:0000000000036e23 .LASF1604
     /tmp/ccJdQ6R8.s:95854  .debug_str:000000000001f302 .LASF1605
     /tmp/ccJdQ6R8.s:102594  .debug_str:000000000003a217 .LASF1606
     /tmp/ccJdQ6R8.s:95298  .debug_str:000000000001cb88 .LASF1607
     /tmp/ccJdQ6R8.s:92510  .debug_str:000000000001134f .LASF1608
     /tmp/ccJdQ6R8.s:89758  .debug_str:00000000000062a1 .LASF1609
     /tmp/ccJdQ6R8.s:99982  .debug_str:000000000002fd01 .LASF1610
     /tmp/ccJdQ6R8.s:93372  .debug_str:0000000000014a2f .LASF1611
     /tmp/ccJdQ6R8.s:106400  .debug_str:0000000000049f4d .LASF1612
     /tmp/ccJdQ6R8.s:95346  .debug_str:000000000001cf3c .LASF1613
     /tmp/ccJdQ6R8.s:92320  .debug_str:0000000000010763 .LASF1614
     /tmp/ccJdQ6R8.s:104722  .debug_str:0000000000043164 .LASF1615
     /tmp/ccJdQ6R8.s:98984  .debug_str:000000000002bc70 .LASF1616
     /tmp/ccJdQ6R8.s:99930  .debug_str:000000000002fa11 .LASF1617
     /tmp/ccJdQ6R8.s:89178  .debug_str:0000000000003b02 .LASF1618
     /tmp/ccJdQ6R8.s:88948  .debug_str:0000000000002b4b .LASF1619
     /tmp/ccJdQ6R8.s:90784  .debug_str:000000000000a7c6 .LASF1620
     /tmp/ccJdQ6R8.s:103234  .debug_str:000000000003cdff .LASF1621
     /tmp/ccJdQ6R8.s:92114  .debug_str:000000000000fab6 .LASF1622
     /tmp/ccJdQ6R8.s:90924  .debug_str:000000000000b1ec .LASF1623
     /tmp/ccJdQ6R8.s:101508  .debug_str:000000000003609a .LASF1624
     /tmp/ccJdQ6R8.s:105148  .debug_str:0000000000044bc1 .LASF1625
     /tmp/ccJdQ6R8.s:91700  .debug_str:000000000000e3e3 .LASF1626
     /tmp/ccJdQ6R8.s:88806  .debug_str:00000000000020c4 .LASF1627
     /tmp/ccJdQ6R8.s:95564  .debug_str:000000000001de7f .LASF1628
     /tmp/ccJdQ6R8.s:103102  .debug_str:000000000003c529 .LASF1629
     /tmp/ccJdQ6R8.s:104826  .debug_str:0000000000043770 .LASF1630
     /tmp/ccJdQ6R8.s:102344  .debug_str:0000000000039139 .LASF1631
     /tmp/ccJdQ6R8.s:105018  .debug_str:000000000004439a .LASF1632
     /tmp/ccJdQ6R8.s:97602  .debug_str:00000000000261cc .LASF1633
     /tmp/ccJdQ6R8.s:95312  .debug_str:000000000001cc79 .LASF1634
     /tmp/ccJdQ6R8.s:89534  .debug_str:00000000000053b2 .LASF1635
     /tmp/ccJdQ6R8.s:103724  .debug_str:000000000003edd3 .LASF1636
     /tmp/ccJdQ6R8.s:103844  .debug_str:000000000003f6ee .LASF1637
     /tmp/ccJdQ6R8.s:96374  .debug_str:00000000000216ae .LASF1638
     /tmp/ccJdQ6R8.s:106304  .debug_str:000000000004992f .LASF1639
     /tmp/ccJdQ6R8.s:93030  .debug_str:0000000000013585 .LASF1640
     /tmp/ccJdQ6R8.s:101722  .debug_str:0000000000036e08 .LASF1641
     /tmp/ccJdQ6R8.s:107086  .debug_str:000000000004cfa8 .LASF1642
     /tmp/ccJdQ6R8.s:104648  .debug_str:0000000000042c9f .LASF1643
     /tmp/ccJdQ6R8.s:106502  .debug_str:000000000004a6ba .LASF1644
     /tmp/ccJdQ6R8.s:96120  .debug_str:0000000000020594 .LASF1645
     /tmp/ccJdQ6R8.s:88520  .debug_str:0000000000000cd2 .LASF1646
     /tmp/ccJdQ6R8.s:105318  .debug_str:00000000000456b7 .LASF1647
     /tmp/ccJdQ6R8.s:95300  .debug_str:000000000001cbb1 .LASF1648
     /tmp/ccJdQ6R8.s:105810  .debug_str:00000000000477c1 .LASF1649
     /tmp/ccJdQ6R8.s:90530  .debug_str:0000000000009728 .LASF1650
     /tmp/ccJdQ6R8.s:96174  .debug_str:000000000002098e .LASF1651
     /tmp/ccJdQ6R8.s:97376  .debug_str:00000000000252d3 .LASF1652
     /tmp/ccJdQ6R8.s:92134  .debug_str:000000000000fbfc .LASF1653
     /tmp/ccJdQ6R8.s:92686  .debug_str:0000000000011f5d .LASF1654
     /tmp/ccJdQ6R8.s:106720  .debug_str:000000000004b705 .LASF1655
     /tmp/ccJdQ6R8.s:101500  .debug_str:0000000000036051 .LASF1656
     /tmp/ccJdQ6R8.s:91476  .debug_str:000000000000d69c .LASF1657
     /tmp/ccJdQ6R8.s:90390  .debug_str:0000000000008ce8 .LASF1658
     /tmp/ccJdQ6R8.s:101034  .debug_str:0000000000034311 .LASF1659
     /tmp/ccJdQ6R8.s:104014  .debug_str:000000000004022b .LASF1660
     /tmp/ccJdQ6R8.s:98212  .debug_str:0000000000028ad3 .LASF1661
     /tmp/ccJdQ6R8.s:99474  .debug_str:000000000002dac2 .LASF1662
     /tmp/ccJdQ6R8.s:92444  .debug_str:0000000000010e87 .LASF1663
     /tmp/ccJdQ6R8.s:95946  .debug_str:000000000001fa0d .LASF1664
     /tmp/ccJdQ6R8.s:99818  .debug_str:000000000002f27e .LASF1665
     /tmp/ccJdQ6R8.s:96102  .debug_str:0000000000020455 .LASF1666
     /tmp/ccJdQ6R8.s:89992  .debug_str:00000000000072f4 .LASF1667
     /tmp/ccJdQ6R8.s:93902  .debug_str:0000000000016ca7 .LASF1668
     /tmp/ccJdQ6R8.s:93868  .debug_str:0000000000016a0d .LASF1669
     /tmp/ccJdQ6R8.s:89058  .debug_str:000000000000333e .LASF1670
     /tmp/ccJdQ6R8.s:103090  .debug_str:000000000003c44d .LASF1671
     /tmp/ccJdQ6R8.s:89488  .debug_str:000000000000504c .LASF1672
     /tmp/ccJdQ6R8.s:95412  .debug_str:000000000001d3e5 .LASF1673
     /tmp/ccJdQ6R8.s:101314  .debug_str:0000000000035505 .LASF1674
     /tmp/ccJdQ6R8.s:98520  .debug_str:0000000000029ed7 .LASF1675
     /tmp/ccJdQ6R8.s:104032  .debug_str:000000000004038c .LASF1676
     /tmp/ccJdQ6R8.s:104764  .debug_str:0000000000043396 .LASF1677
     /tmp/ccJdQ6R8.s:102812  .debug_str:000000000003b1a1 .LASF1678
     /tmp/ccJdQ6R8.s:93656  .debug_str:0000000000015c3c .LASF1679
     /tmp/ccJdQ6R8.s:96724  .debug_str:0000000000022d57 .LASF1680
     /tmp/ccJdQ6R8.s:89644  .debug_str:0000000000005b90 .LASF1681
     /tmp/ccJdQ6R8.s:91974  .debug_str:000000000000f302 .LASF1682
     /tmp/ccJdQ6R8.s:95212  .debug_str:000000000001c5b9 .LASF1683
     /tmp/ccJdQ6R8.s:99860  .debug_str:000000000002f578 .LASF1684
     /tmp/ccJdQ6R8.s:106482  .debug_str:000000000004a570 .LASF1685
     /tmp/ccJdQ6R8.s:105556  .debug_str:000000000004662d .LASF1686
     /tmp/ccJdQ6R8.s:101360  .debug_str:000000000003584b .LASF1687
     /tmp/ccJdQ6R8.s:105562  .debug_str:0000000000046687 .LASF1688
     /tmp/ccJdQ6R8.s:98946  .debug_str:000000000002ba5c .LASF1689
     /tmp/ccJdQ6R8.s:102652  .debug_str:000000000003a697 .LASF1690
     /tmp/ccJdQ6R8.s:94654  .debug_str:0000000000019f57 .LASF1691
     /tmp/ccJdQ6R8.s:107026  .debug_str:000000000004cb75 .LASF1692
     /tmp/ccJdQ6R8.s:90768  .debug_str:000000000000a66c .LASF1693
     /tmp/ccJdQ6R8.s:103596  .debug_str:000000000003e4a9 .LASF1694
     /tmp/ccJdQ6R8.s:96816  .debug_str:0000000000023384 .LASF1695
     /tmp/ccJdQ6R8.s:100874  .debug_str:0000000000033786 .LASF1696
     /tmp/ccJdQ6R8.s:106040  .debug_str:0000000000048620 .LASF1697
     /tmp/ccJdQ6R8.s:90442  .debug_str:00000000000090a5 .LASF1698
     /tmp/ccJdQ6R8.s:100866  .debug_str:00000000000336e4 .LASF1699
     /tmp/ccJdQ6R8.s:104674  .debug_str:0000000000042e42 .LASF1700
     /tmp/ccJdQ6R8.s:91014  .debug_str:000000000000b87c .LASF1701
     /tmp/ccJdQ6R8.s:92600  .debug_str:00000000000119d4 .LASF1702
     /tmp/ccJdQ6R8.s:92436  .debug_str:0000000000010e11 .LASF1703
     /tmp/ccJdQ6R8.s:106716  .debug_str:000000000004b6b9 .LASF1704
     /tmp/ccJdQ6R8.s:101774  .debug_str:000000000003706e .LASF1705
     /tmp/ccJdQ6R8.s:90316  .debug_str:00000000000087d8 .LASF1706
     /tmp/ccJdQ6R8.s:105516  .debug_str:000000000004638a .LASF1707
     /tmp/ccJdQ6R8.s:104702  .debug_str:0000000000042fe5 .LASF1708
     /tmp/ccJdQ6R8.s:95822  .debug_str:000000000001f046 .LASF1709
     /tmp/ccJdQ6R8.s:103172  .debug_str:000000000003c96d .LASF1710
     /tmp/ccJdQ6R8.s:102964  .debug_str:000000000003bb70 .LASF1711
     /tmp/ccJdQ6R8.s:98604  .debug_str:000000000002a3f9 .LASF1712
     /tmp/ccJdQ6R8.s:93248  .debug_str:00000000000142b5 .LASF1713
     /tmp/ccJdQ6R8.s:91066  .debug_str:000000000000bbe5 .LASF1714
     /tmp/ccJdQ6R8.s:94750  .debug_str:000000000001a636 .LASF1715
     /tmp/ccJdQ6R8.s:105294  .debug_str:00000000000454c7 .LASF1716
     /tmp/ccJdQ6R8.s:103970  .debug_str:000000000003ff02 .LASF1717
     /tmp/ccJdQ6R8.s:88960  .debug_str:0000000000002c0c .LASF1718
     /tmp/ccJdQ6R8.s:88818  .debug_str:00000000000021ab .LASF1719
     /tmp/ccJdQ6R8.s:88454  .debug_str:00000000000008db .LASF1720
     /tmp/ccJdQ6R8.s:98128  .debug_str:0000000000028506 .LASF1721
     /tmp/ccJdQ6R8.s:100836  .debug_str:0000000000033529 .LASF1722
     /tmp/ccJdQ6R8.s:103786  .debug_str:000000000003f20a .LASF1723
     /tmp/ccJdQ6R8.s:94218  .debug_str:0000000000018144 .LASF1724
     /tmp/ccJdQ6R8.s:102672  .debug_str:000000000003a7fd .LASF1725
     /tmp/ccJdQ6R8.s:98162  .debug_str:00000000000287c7 .LASF1726
     /tmp/ccJdQ6R8.s:104682  .debug_str:0000000000042ec1 .LASF1727
     /tmp/ccJdQ6R8.s:102868  .debug_str:000000000003b53e .LASF1728
     /tmp/ccJdQ6R8.s:96644  .debug_str:00000000000227dc .LASF1729
     /tmp/ccJdQ6R8.s:99378  .debug_str:000000000002d48f .LASF1730
     /tmp/ccJdQ6R8.s:103126  .debug_str:000000000003c6b0 .LASF1731
     /tmp/ccJdQ6R8.s:94208  .debug_str:000000000001807f .LASF1732
     /tmp/ccJdQ6R8.s:100782  .debug_str:0000000000033183 .LASF1733
     /tmp/ccJdQ6R8.s:104346  .debug_str:0000000000041910 .LASF1734
     /tmp/ccJdQ6R8.s:102724  .debug_str:000000000003abd6 .LASF1735
     /tmp/ccJdQ6R8.s:94496  .debug_str:00000000000193d6 .LASF1736
     /tmp/ccJdQ6R8.s:100502  .debug_str:0000000000031ffa .LASF1737
     /tmp/ccJdQ6R8.s:88662  .debug_str:0000000000001667 .LASF1738
     /tmp/ccJdQ6R8.s:90128  .debug_str:0000000000007b2f .LASF1739
     /tmp/ccJdQ6R8.s:97212  .debug_str:0000000000024998 .LASF1740
     /tmp/ccJdQ6R8.s:97738  .debug_str:0000000000026b7f .LASF1741
     /tmp/ccJdQ6R8.s:105920  .debug_str:0000000000047e7e .LASF1742
     /tmp/ccJdQ6R8.s:95996  .debug_str:000000000001fdda .LASF1743
     /tmp/ccJdQ6R8.s:92704  .debug_str:000000000001206a .LASF1744
     /tmp/ccJdQ6R8.s:102256  .debug_str:0000000000038acd .LASF1745
     /tmp/ccJdQ6R8.s:101448  .debug_str:0000000000035d63 .LASF1746
     /tmp/ccJdQ6R8.s:106116  .debug_str:0000000000048bff .LASF1747
     /tmp/ccJdQ6R8.s:96458  .debug_str:0000000000021b69 .LASF1748
     /tmp/ccJdQ6R8.s:101986  .debug_str:0000000000037b94 .LASF1749
     /tmp/ccJdQ6R8.s:106710  .debug_str:000000000004b629 .LASF1750
     /tmp/ccJdQ6R8.s:99780  .debug_str:000000000002efa9 .LASF1751
     /tmp/ccJdQ6R8.s:100792  .debug_str:0000000000033230 .LASF1752
     /tmp/ccJdQ6R8.s:97724  .debug_str:0000000000026a3a .LASF1753
     /tmp/ccJdQ6R8.s:94884  .debug_str:000000000001aea6 .LASF1754
     /tmp/ccJdQ6R8.s:106514  .debug_str:000000000004a7a3 .LASF1755
     /tmp/ccJdQ6R8.s:104066  .debug_str:00000000000405f2 .LASF1756
     /tmp/ccJdQ6R8.s:98978  .debug_str:000000000002bbf6 .LASF1757
     /tmp/ccJdQ6R8.s:97320  .debug_str:0000000000024f3c .LASF1758
     /tmp/ccJdQ6R8.s:95006  .debug_str:000000000001b7b9 .LASF1759
     /tmp/ccJdQ6R8.s:102646  .debug_str:000000000003a621 .LASF1760
     /tmp/ccJdQ6R8.s:91170  .debug_str:000000000000c29a .LASF1761
     /tmp/ccJdQ6R8.s:90322  .debug_str:000000000000883d .LASF1762
     /tmp/ccJdQ6R8.s:100990  .debug_str:0000000000033fc9 .LASF1763
     /tmp/ccJdQ6R8.s:91486  .debug_str:000000000000d742 .LASF1764
     /tmp/ccJdQ6R8.s:104070  .debug_str:000000000004066e .LASF1765
     /tmp/ccJdQ6R8.s:107090  .debug_str:000000000004cfd3 .LASF1766
     /tmp/ccJdQ6R8.s:96812  .debug_str:0000000000023332 .LASF1767
     /tmp/ccJdQ6R8.s:103896  .debug_str:000000000003fa1f .LASF1768
     /tmp/ccJdQ6R8.s:94934  .debug_str:000000000001b284 .LASF1769
     /tmp/ccJdQ6R8.s:91844  .debug_str:000000000000ebbb .LASF1770
     /tmp/ccJdQ6R8.s:98342  .debug_str:0000000000029398 .LASF1771
     /tmp/ccJdQ6R8.s:88840  .debug_str:00000000000022f9 .LASF1772
     /tmp/ccJdQ6R8.s:89688  .debug_str:0000000000005e42 .LASF1773
     /tmp/ccJdQ6R8.s:89502  .debug_str:000000000000513d .LASF1774
     /tmp/ccJdQ6R8.s:100182  .debug_str:000000000003099e .LASF1775
     /tmp/ccJdQ6R8.s:97410  .debug_str:0000000000025502 .LASF1776
     /tmp/ccJdQ6R8.s:106796  .debug_str:000000000004bbf8 .LASF1777
     /tmp/ccJdQ6R8.s:100006  .debug_str:000000000002fea1 .LASF1778
     /tmp/ccJdQ6R8.s:92238  .debug_str:000000000001021b .LASF1779
     /tmp/ccJdQ6R8.s:88410  .debug_str:00000000000005f5 .LASF1780
     /tmp/ccJdQ6R8.s:92390  .debug_str:0000000000010ba0 .LASF1781
     /tmp/ccJdQ6R8.s:96830  .debug_str:000000000002348e .LASF1782
     /tmp/ccJdQ6R8.s:106970  .debug_str:000000000004c807 .LASF1783
     /tmp/ccJdQ6R8.s:98606  .debug_str:000000000002a41a .LASF1784
     /tmp/ccJdQ6R8.s:88348  .debug_str:0000000000000134 .LASF1785
     /tmp/ccJdQ6R8.s:103392  .debug_str:000000000003d78d .LASF1786
     /tmp/ccJdQ6R8.s:106464  .debug_str:000000000004a3c2 .LASF1787
     /tmp/ccJdQ6R8.s:95522  .debug_str:000000000001db92 .LASF1788
     /tmp/ccJdQ6R8.s:100666  .debug_str:0000000000032a19 .LASF1789
     /tmp/ccJdQ6R8.s:105966  .debug_str:000000000004816d .LASF1790
     /tmp/ccJdQ6R8.s:98870  .debug_str:000000000002b52a .LASF1791
     /tmp/ccJdQ6R8.s:90102  .debug_str:00000000000079bb .LASF1792
     /tmp/ccJdQ6R8.s:94946  .debug_str:000000000001b393 .LASF1793
     /tmp/ccJdQ6R8.s:102630  .debug_str:000000000003a4c5 .LASF1794
     /tmp/ccJdQ6R8.s:90022  .debug_str:00000000000074f9 .LASF1795
     /tmp/ccJdQ6R8.s:100348  .debug_str:000000000003160f .LASF1796
     /tmp/ccJdQ6R8.s:104134  .debug_str:00000000000409eb .LASF1797
     /tmp/ccJdQ6R8.s:91006  .debug_str:000000000000b82b .LASF1798
     /tmp/ccJdQ6R8.s:89612  .debug_str:000000000000598a .LASF1799
     /tmp/ccJdQ6R8.s:103488  .debug_str:000000000003ddfd .LASF1800
     /tmp/ccJdQ6R8.s:102674  .debug_str:000000000003a821 .LASF1801
     /tmp/ccJdQ6R8.s:99656  .debug_str:000000000002e75c .LASF1802
     /tmp/ccJdQ6R8.s:90082  .debug_str:00000000000078db .LASF1803
     /tmp/ccJdQ6R8.s:101188  .debug_str:0000000000034d0a .LASF1804
     /tmp/ccJdQ6R8.s:104892  .debug_str:0000000000043b93 .LASF1805
     /tmp/ccJdQ6R8.s:89100  .debug_str:000000000000356e .LASF1806
     /tmp/ccJdQ6R8.s:102882  .debug_str:000000000003b62f .LASF1807
     /tmp/ccJdQ6R8.s:102162  .debug_str:0000000000038433 .LASF1808
     /tmp/ccJdQ6R8.s:100852  .debug_str:00000000000335ff .LASF1809
     /tmp/ccJdQ6R8.s:96128  .debug_str:000000000002064b .LASF1810
     /tmp/ccJdQ6R8.s:101372  .debug_str:000000000003592c .LASF1811
     /tmp/ccJdQ6R8.s:93638  .debug_str:0000000000015aac .LASF1812
     /tmp/ccJdQ6R8.s:93714  .debug_str:0000000000016025 .LASF1813
     /tmp/ccJdQ6R8.s:104362  .debug_str:0000000000041a09 .LASF1814
     /tmp/ccJdQ6R8.s:89924  .debug_str:0000000000006e92 .LASF1815
     /tmp/ccJdQ6R8.s:92850  .debug_str:00000000000129b2 .LASF1816
     /tmp/ccJdQ6R8.s:89342  .debug_str:000000000000463c .LASF1817
     /tmp/ccJdQ6R8.s:99136  .debug_str:000000000002c580 .LASF1818
     /tmp/ccJdQ6R8.s:94614  .debug_str:0000000000019c0f .LASF1819
     /tmp/ccJdQ6R8.s:104734  .debug_str:00000000000431dd .LASF1820
     /tmp/ccJdQ6R8.s:101184  .debug_str:0000000000034ce2 .LASF1821
     /tmp/ccJdQ6R8.s:90256  .debug_str:0000000000008406 .LASF1822
     /tmp/ccJdQ6R8.s:102698  .debug_str:000000000003a9b9 .LASF1823
     /tmp/ccJdQ6R8.s:92574  .debug_str:00000000000117ba .LASF1824
     /tmp/ccJdQ6R8.s:104232  .debug_str:00000000000410a0 .LASF1825
     /tmp/ccJdQ6R8.s:98654  .debug_str:000000000002a78f .LASF1826
     /tmp/ccJdQ6R8.s:95200  .debug_str:000000000001c4e7 .LASF1827
     /tmp/ccJdQ6R8.s:95500  .debug_str:000000000001da25 .LASF1828
     /tmp/ccJdQ6R8.s:105412  .debug_str:0000000000045cfe .LASF1829
     /tmp/ccJdQ6R8.s:96100  .debug_str:0000000000020431 .LASF1830
     /tmp/ccJdQ6R8.s:96846  .debug_str:00000000000235a6 .LASF1831
     /tmp/ccJdQ6R8.s:104340  .debug_str:00000000000418a9 .LASF1832
     /tmp/ccJdQ6R8.s:91930  .debug_str:000000000000efe5 .LASF1833
     /tmp/ccJdQ6R8.s:94650  .debug_str:0000000000019ef2 .LASF1834
     /tmp/ccJdQ6R8.s:95714  .debug_str:000000000001e917 .LASF1835
     /tmp/ccJdQ6R8.s:96726  .debug_str:0000000000022d7f .LASF1836
     /tmp/ccJdQ6R8.s:96734  .debug_str:0000000000022e00 .LASF1837
     /tmp/ccJdQ6R8.s:97782  .debug_str:0000000000026e59 .LASF1838
     /tmp/ccJdQ6R8.s:99546  .debug_str:000000000002e075 .LASF1839
     /tmp/ccJdQ6R8.s:91076  .debug_str:000000000000bc81 .LASF1840
     /tmp/ccJdQ6R8.s:98132  .debug_str:000000000002855c .LASF1841
     /tmp/ccJdQ6R8.s:93314  .debug_str:0000000000014650 .LASF1842
     /tmp/ccJdQ6R8.s:99194  .debug_str:000000000002c99c .LASF1843
     /tmp/ccJdQ6R8.s:96880  .debug_str:000000000002385d .LASF1844
     /tmp/ccJdQ6R8.s:106564  .debug_str:000000000004aa58 .LASF1845
     /tmp/ccJdQ6R8.s:99052  .debug_str:000000000002c05a .LASF1846
     /tmp/ccJdQ6R8.s:105630  .debug_str:0000000000046b6b .LASF1847
     /tmp/ccJdQ6R8.s:103166  .debug_str:000000000003c938 .LASF1848
     /tmp/ccJdQ6R8.s:93756  .debug_str:000000000001632a .LASF1849
     /tmp/ccJdQ6R8.s:90686  .debug_str:000000000000a107 .LASF1850
     /tmp/ccJdQ6R8.s:95884  .debug_str:000000000001f562 .LASF1851
     /tmp/ccJdQ6R8.s:96788  .debug_str:0000000000023160 .LASF1852
     /tmp/ccJdQ6R8.s:105084  .debug_str:0000000000044700 .LASF1853
     /tmp/ccJdQ6R8.s:103010  .debug_str:000000000003be82 .LASF1854
     /tmp/ccJdQ6R8.s:101196  .debug_str:0000000000034d76 .LASF1855
     /tmp/ccJdQ6R8.s:90084  .debug_str:0000000000007907 .LASF1856
     /tmp/ccJdQ6R8.s:100390  .debug_str:00000000000318b6 .LASF1857
     /tmp/ccJdQ6R8.s:96228  .debug_str:0000000000020d60 .LASF1858
     /tmp/ccJdQ6R8.s:103412  .debug_str:000000000003d8ec .LASF1859
     /tmp/ccJdQ6R8.s:94560  .debug_str:0000000000019826 .LASF1860
     /tmp/ccJdQ6R8.s:97370  .debug_str:0000000000025278 .LASF1861
     /tmp/ccJdQ6R8.s:93094  .debug_str:0000000000013972 .LASF1862
     /tmp/ccJdQ6R8.s:91178  .debug_str:000000000000c355 .LASF1863
     /tmp/ccJdQ6R8.s:92306  .debug_str:000000000001064e .LASF1864
     /tmp/ccJdQ6R8.s:105998  .debug_str:0000000000048369 .LASF1865
     /tmp/ccJdQ6R8.s:90980  .debug_str:000000000000b657 .LASF1866
     /tmp/ccJdQ6R8.s:98094  .debug_str:000000000002838c .LASF1867
     /tmp/ccJdQ6R8.s:89588  .debug_str:0000000000005816 .LASF1868
     /tmp/ccJdQ6R8.s:102942  .debug_str:000000000003b9db .LASF1869
     /tmp/ccJdQ6R8.s:91362  .debug_str:000000000000cfe0 .LASF1870
     /tmp/ccJdQ6R8.s:94572  .debug_str:00000000000198f7 .LASF1871
     /tmp/ccJdQ6R8.s:106660  .debug_str:000000000004b1d2 .LASF1872
     /tmp/ccJdQ6R8.s:92796  .debug_str:00000000000125fc .LASF1873
     /tmp/ccJdQ6R8.s:102834  .debug_str:000000000003b2e5 .LASF1874
     /tmp/ccJdQ6R8.s:106772  .debug_str:000000000004ba7c .LASF1875
     /tmp/ccJdQ6R8.s:99128  .debug_str:000000000002c516 .LASF1876
     /tmp/ccJdQ6R8.s:93944  .debug_str:0000000000016fd0 .LASF1877
     /tmp/ccJdQ6R8.s:95156  .debug_str:000000000001c233 .LASF1878
     /tmp/ccJdQ6R8.s:100012  .debug_str:000000000002fef9 .LASF1879
     /tmp/ccJdQ6R8.s:104758  .debug_str:000000000004335d .LASF1880
     /tmp/ccJdQ6R8.s:107236  .debug_str:000000000004d9f1 .LASF1881
     /tmp/ccJdQ6R8.s:98744  .debug_str:000000000002ace4 .LASF1882
     /tmp/ccJdQ6R8.s:105284  .debug_str:000000000004543b .LASF1883
     /tmp/ccJdQ6R8.s:99784  .debug_str:000000000002efe9 .LASF1884
     /tmp/ccJdQ6R8.s:104542  .debug_str:000000000004258d .LASF1885
     /tmp/ccJdQ6R8.s:105458  .debug_str:0000000000045fd6 .LASF1886
     /tmp/ccJdQ6R8.s:105564  .debug_str:00000000000466a6 .LASF1887
     /tmp/ccJdQ6R8.s:99448  .debug_str:000000000002d997 .LASF1888
     /tmp/ccJdQ6R8.s:101884  .debug_str:000000000003761b .LASF1889
     /tmp/ccJdQ6R8.s:91734  .debug_str:000000000000e60f .LASF1890
     /tmp/ccJdQ6R8.s:91380  .debug_str:000000000000d0fc .LASF1891
     /tmp/ccJdQ6R8.s:101338  .debug_str:00000000000356b0 .LASF1892
     /tmp/ccJdQ6R8.s:96570  .debug_str:00000000000222e5 .LASF1893
     /tmp/ccJdQ6R8.s:89950  .debug_str:0000000000007075 .LASF1894
     /tmp/ccJdQ6R8.s:101860  .debug_str:00000000000374ac .LASF1895
     /tmp/ccJdQ6R8.s:101398  .debug_str:0000000000035a93 .LASF1896
     /tmp/ccJdQ6R8.s:107020  .debug_str:000000000004cb2e .LASF1897
     /tmp/ccJdQ6R8.s:91858  .debug_str:000000000000ec0f .LASF1898
     /tmp/ccJdQ6R8.s:93300  .debug_str:0000000000014570 .LASF1899
     /tmp/ccJdQ6R8.s:90652  .debug_str:0000000000009e25 .LASF1900
     /tmp/ccJdQ6R8.s:88888  .debug_str:00000000000026c4 .LASF1901
     /tmp/ccJdQ6R8.s:102800  .debug_str:000000000003b0ad .LASF1902
     /tmp/ccJdQ6R8.s:99492  .debug_str:000000000002dc01 .LASF1903
     /tmp/ccJdQ6R8.s:93928  .debug_str:0000000000016ebd .LASF1904
     /tmp/ccJdQ6R8.s:89584  .debug_str:00000000000057d7 .LASF1905
     /tmp/ccJdQ6R8.s:104228  .debug_str:0000000000041057 .LASF1906
     /tmp/ccJdQ6R8.s:89782  .debug_str:0000000000006461 .LASF1907
     /tmp/ccJdQ6R8.s:88612  .debug_str:000000000000130a .LASF1908
     /tmp/ccJdQ6R8.s:106734  .debug_str:000000000004b810 .LASF1909
     /tmp/ccJdQ6R8.s:98804  .debug_str:000000000002b092 .LASF1910
     /tmp/ccJdQ6R8.s:100128  .debug_str:000000000003066d .LASF1911
     /tmp/ccJdQ6R8.s:96832  .debug_str:00000000000234b8 .LASF1912
     /tmp/ccJdQ6R8.s:99114  .debug_str:000000000002c407 .LASF1913
     /tmp/ccJdQ6R8.s:104704  .debug_str:0000000000043007 .LASF1914
     /tmp/ccJdQ6R8.s:93550  .debug_str:00000000000155da .LASF1915
     /tmp/ccJdQ6R8.s:106892  .debug_str:000000000004c2c4 .LASF1916
     /tmp/ccJdQ6R8.s:92656  .debug_str:0000000000011d55 .LASF1917
     /tmp/ccJdQ6R8.s:93482  .debug_str:0000000000015129 .LASF1918
     /tmp/ccJdQ6R8.s:105080  .debug_str:00000000000446d5 .LASF1919
     /tmp/ccJdQ6R8.s:97412  .debug_str:000000000002552e .LASF1920
     /tmp/ccJdQ6R8.s:96508  .debug_str:0000000000021ede .LASF1921
     /tmp/ccJdQ6R8.s:89098  .debug_str:0000000000003543 .LASF1922
     /tmp/ccJdQ6R8.s:106846  .debug_str:000000000004bfae .LASF1923
     /tmp/ccJdQ6R8.s:99312  .debug_str:000000000002d10f .LASF1924
     /tmp/ccJdQ6R8.s:98502  .debug_str:0000000000029ddf .LASF1925
     /tmp/ccJdQ6R8.s:90308  .debug_str:0000000000008746 .LASF1926
     /tmp/ccJdQ6R8.s:107158  .debug_str:000000000004d4a1 .LASF1927
     /tmp/ccJdQ6R8.s:92490  .debug_str:00000000000111f0 .LASF1928
     /tmp/ccJdQ6R8.s:106268  .debug_str:000000000004967c .LASF1929
     /tmp/ccJdQ6R8.s:100844  .debug_str:0000000000033589 .LASF1930
     /tmp/ccJdQ6R8.s:106876  .debug_str:000000000004c1bd .LASF1931
     /tmp/ccJdQ6R8.s:97642  .debug_str:000000000002643f .LASF1932
     /tmp/ccJdQ6R8.s:98080  .debug_str:00000000000282b8 .LASF1933
     /tmp/ccJdQ6R8.s:94948  .debug_str:000000000001b3b9 .LASF1934
     /tmp/ccJdQ6R8.s:91868  .debug_str:000000000000ec62 .LASF1935
     /tmp/ccJdQ6R8.s:88330  .debug_str:0000000000000000 .LASF1936
     /tmp/ccJdQ6R8.s:92894  .debug_str:0000000000012d2c .LASF1937
     /tmp/ccJdQ6R8.s:98758  .debug_str:000000000002addb .LASF1938
     /tmp/ccJdQ6R8.s:103020  .debug_str:000000000003bf0b .LASF1939
     /tmp/ccJdQ6R8.s:105436  .debug_str:0000000000045eaf .LASF1940
     /tmp/ccJdQ6R8.s:93290  .debug_str:00000000000144a9 .LASF1941
     /tmp/ccJdQ6R8.s:94092  .debug_str:0000000000017989 .LASF1942
     /tmp/ccJdQ6R8.s:102664  .debug_str:000000000003a764 .LASF1943
     /tmp/ccJdQ6R8.s:91984  .debug_str:000000000000f3ac .LASF1944
     /tmp/ccJdQ6R8.s:92354  .debug_str:00000000000108fd .LASF1945
     /tmp/ccJdQ6R8.s:98054  .debug_str:0000000000028136 .LASF1946
     /tmp/ccJdQ6R8.s:99984  .debug_str:000000000002fd24 .LASF1947
     /tmp/ccJdQ6R8.s:96266  .debug_str:0000000000021056 .LASF1948
     /tmp/ccJdQ6R8.s:92848  .debug_str:0000000000012988 .LASF1949
     /tmp/ccJdQ6R8.s:106588  .debug_str:000000000004abab .LASF1950
     /tmp/ccJdQ6R8.s:89550  .debug_str:000000000000551c .LASF1951
     /tmp/ccJdQ6R8.s:91798  .debug_str:000000000000e86d .LASF1952
     /tmp/ccJdQ6R8.s:99772  .debug_str:000000000002eef5 .LASF1953
     /tmp/ccJdQ6R8.s:89548  .debug_str:00000000000054fa .LASF1954
     /tmp/ccJdQ6R8.s:90794  .debug_str:000000000000a847 .LASF1955
     /tmp/ccJdQ6R8.s:99806  .debug_str:000000000002f184 .LASF1956
     /tmp/ccJdQ6R8.s:92256  .debug_str:000000000001028f .LASF1957
     /tmp/ccJdQ6R8.s:105466  .debug_str:000000000004606b .LASF1958
     /tmp/ccJdQ6R8.s:103688  .debug_str:000000000003ead8 .LASF1959
     /tmp/ccJdQ6R8.s:106824  .debug_str:000000000004bdee .LASF1960
     /tmp/ccJdQ6R8.s:88972  .debug_str:0000000000002ce1 .LASF1961
     /tmp/ccJdQ6R8.s:98038  .debug_str:0000000000027fe0 .LASF1962
     /tmp/ccJdQ6R8.s:88700  .debug_str:0000000000001926 .LASF1963
     /tmp/ccJdQ6R8.s:99120  .debug_str:000000000002c474 .LASF1964
     /tmp/ccJdQ6R8.s:94804  .debug_str:000000000001a994 .LASF1965
     /tmp/ccJdQ6R8.s:92682  .debug_str:0000000000011f1e .LASF1966
     /tmp/ccJdQ6R8.s:96240  .debug_str:0000000000020e3e .LASF1967
     /tmp/ccJdQ6R8.s:102852  .debug_str:000000000003b44f .LASF1968
     /tmp/ccJdQ6R8.s:96912  .debug_str:0000000000023a38 .LASF1969
     /tmp/ccJdQ6R8.s:94206  .debug_str:0000000000018058 .LASF1970
     /tmp/ccJdQ6R8.s:88802  .debug_str:0000000000002082 .LASF1971
     /tmp/ccJdQ6R8.s:105686  .debug_str:0000000000046f3d .LASF1972
     /tmp/ccJdQ6R8.s:89518  .debug_str:0000000000005279 .LASF1973
     /tmp/ccJdQ6R8.s:91958  .debug_str:000000000000f1a5 .LASF1974
     /tmp/ccJdQ6R8.s:91672  .debug_str:000000000000e29a .LASF1975
     /tmp/ccJdQ6R8.s:96884  .debug_str:0000000000023899 .LASF1976
     /tmp/ccJdQ6R8.s:102442  .debug_str:00000000000397a1 .LASF1977
     /tmp/ccJdQ6R8.s:89378  .debug_str:00000000000048fa .LASF1978
     /tmp/ccJdQ6R8.s:93958  .debug_str:00000000000170da .LASF1979
     /tmp/ccJdQ6R8.s:100134  .debug_str:00000000000306c9 .LASF1980
     /tmp/ccJdQ6R8.s:104306  .debug_str:000000000004162d .LASF1981
     /tmp/ccJdQ6R8.s:91166  .debug_str:000000000000c23b .LASF1982
     /tmp/ccJdQ6R8.s:95730  .debug_str:000000000001ea2f .LASF1983
     /tmp/ccJdQ6R8.s:101412  .debug_str:0000000000035b33 .LASF1984
     /tmp/ccJdQ6R8.s:98494  .debug_str:0000000000029d2c .LASF1985
     /tmp/ccJdQ6R8.s:89664  .debug_str:0000000000005c90 .LASF1986
     /tmp/ccJdQ6R8.s:106696  .debug_str:000000000004b521 .LASF1987
     /tmp/ccJdQ6R8.s:102160  .debug_str:0000000000038411 .LASF1988
     /tmp/ccJdQ6R8.s:98338  .debug_str:000000000002934a .LASF1989
     /tmp/ccJdQ6R8.s:90884  .debug_str:000000000000aee7 .LASF1990
     /tmp/ccJdQ6R8.s:102188  .debug_str:0000000000038636 .LASF1991
     /tmp/ccJdQ6R8.s:99266  .debug_str:000000000002ceaa .LASF1992
     /tmp/ccJdQ6R8.s:100680  .debug_str:0000000000032b2a .LASF1993
     /tmp/ccJdQ6R8.s:97932  .debug_str:000000000002786b .LASF1994
     /tmp/ccJdQ6R8.s:105558  .debug_str:0000000000046654 .LASF1995
     /tmp/ccJdQ6R8.s:103822  .debug_str:000000000003f515 .LASF1996
     /tmp/ccJdQ6R8.s:100546  .debug_str:0000000000032236 .LASF1997
     /tmp/ccJdQ6R8.s:94200  .debug_str:0000000000018019 .LASF1998
     /tmp/ccJdQ6R8.s:89284  .debug_str:00000000000042ee .LASF1999
     /tmp/ccJdQ6R8.s:93168  .debug_str:0000000000013ddf .LASF2000
     /tmp/ccJdQ6R8.s:105242  .debug_str:0000000000045198 .LASF2001
     /tmp/ccJdQ6R8.s:91636  .debug_str:000000000000e113 .LASF2002
     /tmp/ccJdQ6R8.s:104780  .debug_str:0000000000043498 .LASF2003
     /tmp/ccJdQ6R8.s:92872  .debug_str:0000000000012bdb .LASF2004
     /tmp/ccJdQ6R8.s:99896  .debug_str:000000000002f7c9 .LASF2005
     /tmp/ccJdQ6R8.s:99480  .debug_str:000000000002db06 .LASF2006
     /tmp/ccJdQ6R8.s:93772  .debug_str:0000000000016419 .LASF2007
     /tmp/ccJdQ6R8.s:99686  .debug_str:000000000002e995 .LASF2008
     /tmp/ccJdQ6R8.s:106620  .debug_str:000000000004ae64 .LASF2009
     /tmp/ccJdQ6R8.s:96824  .debug_str:000000000002341a .LASF2010
     /tmp/ccJdQ6R8.s:100616  .debug_str:00000000000326f7 .LASF2011
     /tmp/ccJdQ6R8.s:96148  .debug_str:000000000002079c .LASF2012
     /tmp/ccJdQ6R8.s:94492  .debug_str:000000000001936e .LASF2013
     /tmp/ccJdQ6R8.s:94668  .debug_str:000000000001a0a5 .LASF2014
     /tmp/ccJdQ6R8.s:98450  .debug_str:00000000000299fd .LASF2015
     /tmp/ccJdQ6R8.s:100570  .debug_str:00000000000323d7 .LASF2016
     /tmp/ccJdQ6R8.s:90860  .debug_str:000000000000acf2 .LASF2017
     /tmp/ccJdQ6R8.s:103078  .debug_str:000000000003c352 .LASF2018
     /tmp/ccJdQ6R8.s:105476  .debug_str:00000000000460fe .LASF2019
     /tmp/ccJdQ6R8.s:91508  .debug_str:000000000000d866 .LASF2020
     /tmp/ccJdQ6R8.s:100156  .debug_str:00000000000307f6 .LASF2021
     /tmp/ccJdQ6R8.s:102046  .debug_str:0000000000037e79 .LASF2022
     /tmp/ccJdQ6R8.s:91406  .debug_str:000000000000d2e0 .LASF2023
     /tmp/ccJdQ6R8.s:93396  .debug_str:0000000000014bbb .LASF2024
     /tmp/ccJdQ6R8.s:101934  .debug_str:000000000003783e .LASF2025
     /tmp/ccJdQ6R8.s:105744  .debug_str:000000000004737b .LASF2026
     /tmp/ccJdQ6R8.s:93826  .debug_str:0000000000016730 .LASF2027
     /tmp/ccJdQ6R8.s:90420  .debug_str:0000000000008f65 .LASF2028
     /tmp/ccJdQ6R8.s:97874  .debug_str:000000000002741d .LASF2029
     /tmp/ccJdQ6R8.s:100260  .debug_str:0000000000030fdf .LASF2030
     /tmp/ccJdQ6R8.s:88378  .debug_str:0000000000000373 .LASF2031
     /tmp/ccJdQ6R8.s:100042  .debug_str:00000000000300a5 .LASF2032
     /tmp/ccJdQ6R8.s:98060  .debug_str:0000000000028186 .LASF2033
     /tmp/ccJdQ6R8.s:96376  .debug_str:00000000000216d1 .LASF2034
     /tmp/ccJdQ6R8.s:89082  .debug_str:000000000000343e .LASF2035
     /tmp/ccJdQ6R8.s:102386  .debug_str:00000000000393ae .LASF2036
     /tmp/ccJdQ6R8.s:89910  .debug_str:0000000000006d96 .LASF2037
     /tmp/ccJdQ6R8.s:105168  .debug_str:0000000000044d42 .LASF2038
     /tmp/ccJdQ6R8.s:100364  .debug_str:00000000000316fa .LASF2039
     /tmp/ccJdQ6R8.s:96582  .debug_str:000000000002239c .LASF2040
     /tmp/ccJdQ6R8.s:98278  .debug_str:0000000000028f38 .LASF2041
     /tmp/ccJdQ6R8.s:91454  .debug_str:000000000000d5e5 .LASF2042
     /tmp/ccJdQ6R8.s:89598  .debug_str:00000000000058d3 .LASF2043
     /tmp/ccJdQ6R8.s:102524  .debug_str:0000000000039cf9 .LASF2044
     /tmp/ccJdQ6R8.s:99876  .debug_str:000000000002f68c .LASF2045
     /tmp/ccJdQ6R8.s:94794  .debug_str:000000000001a8f0 .LASF2046
     /tmp/ccJdQ6R8.s:90374  .debug_str:0000000000008c1a .LASF2047
     /tmp/ccJdQ6R8.s:104248  .debug_str:000000000004121c .LASF2048
     /tmp/ccJdQ6R8.s:98652  .debug_str:000000000002a778 .LASF2049
     /tmp/ccJdQ6R8.s:92078  .debug_str:000000000000f975 .LASF2050
     /tmp/ccJdQ6R8.s:92058  .debug_str:000000000000f83a .LASF2051
     /tmp/ccJdQ6R8.s:102560  .debug_str:0000000000039f81 .LASF2052
     /tmp/ccJdQ6R8.s:102538  .debug_str:0000000000039dce .LASF2053
     /tmp/ccJdQ6R8.s:94100  .debug_str:0000000000017a28 .LASF2054
     /tmp/ccJdQ6R8.s:93894  .debug_str:0000000000016c33 .LASF2055
     /tmp/ccJdQ6R8.s:104454  .debug_str:0000000000041f8d .LASF2056
     /tmp/ccJdQ6R8.s:104786  .debug_str:0000000000043509 .LASF2057
     /tmp/ccJdQ6R8.s:95290  .debug_str:000000000001cae7 .LASF2058
     /tmp/ccJdQ6R8.s:98158  .debug_str:0000000000028795 .LASF2059
     /tmp/ccJdQ6R8.s:90524  .debug_str:00000000000096a8 .LASF2060
     /tmp/ccJdQ6R8.s:88642  .debug_str:00000000000014de .LASF2061
     /tmp/ccJdQ6R8.s:101090  .debug_str:00000000000346b9 .LASF2062
     /tmp/ccJdQ6R8.s:91442  .debug_str:000000000000d51b .LASF2063
     /tmp/ccJdQ6R8.s:96446  .debug_str:0000000000021aa3 .LASF2064
     /tmp/ccJdQ6R8.s:101616  .debug_str:00000000000367a4 .LASF2065
     /tmp/ccJdQ6R8.s:94736  .debug_str:000000000001a540 .LASF2066
     /tmp/ccJdQ6R8.s:94894  .debug_str:000000000001af86 .LASF2067
     /tmp/ccJdQ6R8.s:98834  .debug_str:000000000002b274 .LASF2068
     /tmp/ccJdQ6R8.s:105246  .debug_str:00000000000451c9 .LASF2069
     /tmp/ccJdQ6R8.s:90518  .debug_str:0000000000009643 .LASF2070
     /tmp/ccJdQ6R8.s:96662  .debug_str:000000000002295a .LASF2071
     /tmp/ccJdQ6R8.s:101016  .debug_str:0000000000034143 .LASF2072
     /tmp/ccJdQ6R8.s:107038  .debug_str:000000000004cc4d .LASF2073
     /tmp/ccJdQ6R8.s:107102  .debug_str:000000000004d0ce .LASF2074
     /tmp/ccJdQ6R8.s:101224  .debug_str:0000000000034f91 .LASF2075
     /tmp/ccJdQ6R8.s:91758  .debug_str:000000000000e6bb .LASF2076
     /tmp/ccJdQ6R8.s:96564  .debug_str:00000000000222a3 .LASF2077
     /tmp/ccJdQ6R8.s:103876  .debug_str:000000000003f918 .LASF2078
     /tmp/ccJdQ6R8.s:102478  .debug_str:0000000000039a74 .LASF2079
     /tmp/ccJdQ6R8.s:94450  .debug_str:0000000000019058 .LASF2080
     /tmp/ccJdQ6R8.s:105980  .debug_str:0000000000048292 .LASF2081
     /tmp/ccJdQ6R8.s:104446  .debug_str:0000000000041f1a .LASF2082
     /tmp/ccJdQ6R8.s:99736  .debug_str:000000000002ecd1 .LASF2083
     /tmp/ccJdQ6R8.s:97464  .debug_str:0000000000025927 .LASF2084
     /tmp/ccJdQ6R8.s:106114  .debug_str:0000000000048bdc .LASF2085
     /tmp/ccJdQ6R8.s:88856  .debug_str:0000000000002439 .LASF2086
     /tmp/ccJdQ6R8.s:97576  .debug_str:00000000000260a0 .LASF2087
     /tmp/ccJdQ6R8.s:94592  .debug_str:0000000000019aa7 .LASF2088
     /tmp/ccJdQ6R8.s:88952  .debug_str:0000000000002b6f .LASF2089
     /tmp/ccJdQ6R8.s:90724  .debug_str:000000000000a395 .LASF2090
     /tmp/ccJdQ6R8.s:99994  .debug_str:000000000002fdc9 .LASF2091
     /tmp/ccJdQ6R8.s:107108  .debug_str:000000000004d14a .LASF2092
     /tmp/ccJdQ6R8.s:105820  .debug_str:0000000000047844 .LASF2093
     /tmp/ccJdQ6R8.s:97968  .debug_str:0000000000027ad7 .LASF2094
     /tmp/ccJdQ6R8.s:100262  .debug_str:0000000000030ffa .LASF2095
     /tmp/ccJdQ6R8.s:97668  .debug_str:00000000000265fc .LASF2096
     /tmp/ccJdQ6R8.s:91684  .debug_str:000000000000e36d .LASF2097
     /tmp/ccJdQ6R8.s:92978  .debug_str:0000000000013240 .LASF2098
     /tmp/ccJdQ6R8.s:100818  .debug_str:0000000000033464 .LASF2099
     /tmp/ccJdQ6R8.s:106002  .debug_str:00000000000483a9 .LASF2100
     /tmp/ccJdQ6R8.s:92826  .debug_str:00000000000127eb .LASF2101
     /tmp/ccJdQ6R8.s:95282  .debug_str:000000000001ca81 .LASF2102
     /tmp/ccJdQ6R8.s:103930  .debug_str:000000000003fc3c .LASF2103
     /tmp/ccJdQ6R8.s:98312  .debug_str:0000000000029170 .LASF2104
     /tmp/ccJdQ6R8.s:98726  .debug_str:000000000002aba6 .LASF2105
     /tmp/ccJdQ6R8.s:88696  .debug_str:00000000000018e9 .LASF2106
     /tmp/ccJdQ6R8.s:95992  .debug_str:000000000001fd83 .LASF2107
     /tmp/ccJdQ6R8.s:92080  .debug_str:000000000000f990 .LASF2108
     /tmp/ccJdQ6R8.s:93584  .debug_str:0000000000015765 .LASF2109
     /tmp/ccJdQ6R8.s:101574  .debug_str:00000000000365bc .LASF2110
     /tmp/ccJdQ6R8.s:93804  .debug_str:00000000000165fb .LASF2111
     /tmp/ccJdQ6R8.s:100672  .debug_str:0000000000032ab7 .LASF2112
     /tmp/ccJdQ6R8.s:100340  .debug_str:0000000000031587 .LASF2113
     /tmp/ccJdQ6R8.s:100856  .debug_str:0000000000033651 .LASF2114
     /tmp/ccJdQ6R8.s:106414  .debug_str:000000000004a033 .LASF2115
     /tmp/ccJdQ6R8.s:91908  .debug_str:000000000000eef4 .LASF2116
     /tmp/ccJdQ6R8.s:97890  .debug_str:000000000002752c .LASF2117
     /tmp/ccJdQ6R8.s:102186  .debug_str:000000000003860f .LASF2118
     /tmp/ccJdQ6R8.s:89756  .debug_str:0000000000006281 .LASF2119
     /tmp/ccJdQ6R8.s:105694  .debug_str:0000000000046ffb .LASF2120
     /tmp/ccJdQ6R8.s:94064  .debug_str:0000000000017775 .LASF2121
     /tmp/ccJdQ6R8.s:103278  .debug_str:000000000003cffe .LASF2122
     /tmp/ccJdQ6R8.s:91670  .debug_str:000000000000e269 .LASF2123
     /tmp/ccJdQ6R8.s:103176  .debug_str:000000000003c9ba .LASF2124
     /tmp/ccJdQ6R8.s:91222  .debug_str:000000000000c65a .LASF2125
     /tmp/ccJdQ6R8.s:105926  .debug_str:0000000000047ee0 .LASF2126
     /tmp/ccJdQ6R8.s:96096  .debug_str:00000000000203e0 .LASF2127
     /tmp/ccJdQ6R8.s:103452  .debug_str:000000000003dbad .LASF2128
     /tmp/ccJdQ6R8.s:106556  .debug_str:000000000004aa01 .LASF2129
     /tmp/ccJdQ6R8.s:94658  .debug_str:0000000000019f9d .LASF2130
     /tmp/ccJdQ6R8.s:98018  .debug_str:0000000000027e26 .LASF2131
     /tmp/ccJdQ6R8.s:101354  .debug_str:000000000003579e .LASF2132
     /tmp/ccJdQ6R8.s:106762  .debug_str:000000000004b9de .LASF2133
     /tmp/ccJdQ6R8.s:96186  .debug_str:0000000000020a8e .LASF2134
     /tmp/ccJdQ6R8.s:101792  .debug_str:00000000000371b1 .LASF2135
     /tmp/ccJdQ6R8.s:106234  .debug_str:0000000000049457 .LASF2136
     /tmp/ccJdQ6R8.s:93316  .debug_str:0000000000014677 .LASF2137
     /tmp/ccJdQ6R8.s:97456  .debug_str:0000000000025851 .LASF2138
     /tmp/ccJdQ6R8.s:103658  .debug_str:000000000003e891 .LASF2139
     /tmp/ccJdQ6R8.s:88618  .debug_str:000000000000137e .LASF2140
     /tmp/ccJdQ6R8.s:102690  .debug_str:000000000003a93a .LASF2141
     /tmp/ccJdQ6R8.s:96986  .debug_str:0000000000023edf .LASF2142
     /tmp/ccJdQ6R8.s:89898  .debug_str:0000000000006cf2 .LASF2143
     /tmp/ccJdQ6R8.s:104894  .debug_str:0000000000043bbf .LASF2144
     /tmp/ccJdQ6R8.s:91260  .debug_str:000000000000c8b4 .LASF2145
     /tmp/ccJdQ6R8.s:97854  .debug_str:00000000000272c7 .LASF2146
     /tmp/ccJdQ6R8.s:99528  .debug_str:000000000002def4 .LASF2147
     /tmp/ccJdQ6R8.s:106388  .debug_str:0000000000049e9d .LASF2148
     /tmp/ccJdQ6R8.s:105690  .debug_str:0000000000046f8b .LASF2149
     /tmp/ccJdQ6R8.s:106670  .debug_str:000000000004b2a8 .LASF2150
     /tmp/ccJdQ6R8.s:96952  .debug_str:0000000000023bde .LASF2151
     /tmp/ccJdQ6R8.s:99164  .debug_str:000000000002c7a8 .LASF2152
     /tmp/ccJdQ6R8.s:94930  .debug_str:000000000001b231 .LASF2153
     /tmp/ccJdQ6R8.s:103564  .debug_str:000000000003e288 .LASF2154
     /tmp/ccJdQ6R8.s:103434  .debug_str:000000000003da36 .LASF2155
     /tmp/ccJdQ6R8.s:94212  .debug_str:00000000000180c5 .LASF2156
     /tmp/ccJdQ6R8.s:102440  .debug_str:0000000000039765 .LASF2157
     /tmp/ccJdQ6R8.s:88656  .debug_str:00000000000015c8 .LASF2158
     /tmp/ccJdQ6R8.s:97548  .debug_str:0000000000025ec0 .LASF2159
     /tmp/ccJdQ6R8.s:97926  .debug_str:00000000000277e2 .LASF2160
     /tmp/ccJdQ6R8.s:92866  .debug_str:0000000000012b34 .LASF2161
     /tmp/ccJdQ6R8.s:107142  .debug_str:000000000004d396 .LASF2162
     /tmp/ccJdQ6R8.s:94636  .debug_str:0000000000019dbd .LASF2163
     /tmp/ccJdQ6R8.s:106366  .debug_str:0000000000049d03 .LASF2164
     /tmp/ccJdQ6R8.s:89776  .debug_str:00000000000063e9 .LASF2165
     /tmp/ccJdQ6R8.s:96698  .debug_str:0000000000022bb8 .LASF2166
     /tmp/ccJdQ6R8.s:104050  .debug_str:000000000004048c .LASF2167
     /tmp/ccJdQ6R8.s:105898  .debug_str:0000000000047d17 .LASF2168
     /tmp/ccJdQ6R8.s:93760  .debug_str:000000000001635d .LASF2169
     /tmp/ccJdQ6R8.s:92270  .debug_str:0000000000010382 .LASF2170
     /tmp/ccJdQ6R8.s:96356  .debug_str:0000000000021524 .LASF2171
     /tmp/ccJdQ6R8.s:94550  .debug_str:0000000000019753 .LASF2172
     /tmp/ccJdQ6R8.s:97520  .debug_str:0000000000025cd1 .LASF2173
     /tmp/ccJdQ6R8.s:90654  .debug_str:0000000000009e44 .LASF2174
     /tmp/ccJdQ6R8.s:103652  .debug_str:000000000003e811 .LASF2175
     /tmp/ccJdQ6R8.s:92844  .debug_str:000000000001291c .LASF2176
     /tmp/ccJdQ6R8.s:89882  .debug_str:0000000000006bd5 .LASF2177
     /tmp/ccJdQ6R8.s:107098  .debug_str:000000000004d04c .LASF2178
     /tmp/ccJdQ6R8.s:104438  .debug_str:0000000000041e80 .LASF2179
     /tmp/ccJdQ6R8.s:106802  .debug_str:000000000004bc59 .LASF2180
     /tmp/ccJdQ6R8.s:101656  .debug_str:0000000000036aa9 .LASF2181
     /tmp/ccJdQ6R8.s:89364  .debug_str:0000000000004809 .LASF2182
     /tmp/ccJdQ6R8.s:100376  .debug_str:00000000000317d0 .LASF2183
     /tmp/ccJdQ6R8.s:101604  .debug_str:00000000000366c3 .LASF2184
     /tmp/ccJdQ6R8.s:92596  .debug_str:000000000001195b .LASF2185
     /tmp/ccJdQ6R8.s:90842  .debug_str:000000000000abda .LASF2186
     /tmp/ccJdQ6R8.s:105122  .debug_str:00000000000449f7 .LASF2187
     /tmp/ccJdQ6R8.s:92406  .debug_str:0000000000010cd9 .LASF2188
     /tmp/ccJdQ6R8.s:90076  .debug_str:0000000000007846 .LASF2189
     /tmp/ccJdQ6R8.s:102994  .debug_str:000000000003bd24 .LASF2190
     /tmp/ccJdQ6R8.s:100304  .debug_str:00000000000312c4 .LASF2191
     /tmp/ccJdQ6R8.s:94396  .debug_str:0000000000018cb3 .LASF2192
     /tmp/ccJdQ6R8.s:91340  .debug_str:000000000000ce4a .LASF2193
     /tmp/ccJdQ6R8.s:96596  .debug_str:0000000000022482 .LASF2194
     /tmp/ccJdQ6R8.s:106436  .debug_str:000000000004a1c1 .LASF2195
     /tmp/ccJdQ6R8.s:91966  .debug_str:000000000000f253 .LASF2196
     /tmp/ccJdQ6R8.s:97670  .debug_str:0000000000026618 .LASF2197
     /tmp/ccJdQ6R8.s:89532  .debug_str:000000000000537a .LASF2198
     /tmp/ccJdQ6R8.s:88794  .debug_str:0000000000001fc7 .LASF2199
     /tmp/ccJdQ6R8.s:89888  .debug_str:0000000000006c45 .LASF2200
     /tmp/ccJdQ6R8.s:99006  .debug_str:000000000002bdac .LASF2201
     /tmp/ccJdQ6R8.s:88884  .debug_str:0000000000002671 .LASF2202
     /tmp/ccJdQ6R8.s:106904  .debug_str:000000000004c3b9 .LASF2203
     /tmp/ccJdQ6R8.s:89568  .debug_str:0000000000005678 .LASF2204
     /tmp/ccJdQ6R8.s:89312  .debug_str:0000000000004452 .LASF2205
     /tmp/ccJdQ6R8.s:96496  .debug_str:0000000000021e22 .LASF2206
     /tmp/ccJdQ6R8.s:88776  .debug_str:0000000000001e55 .LASF2207
     /tmp/ccJdQ6R8.s:105356  .debug_str:000000000004596c .LASF2208
     /tmp/ccJdQ6R8.s:95768  .debug_str:000000000001ecfa .LASF2209
     /tmp/ccJdQ6R8.s:92650  .debug_str:0000000000011cf6 .LASF2210
     /tmp/ccJdQ6R8.s:95876  .debug_str:000000000001f495 .LASF2211
     /tmp/ccJdQ6R8.s:102992  .debug_str:000000000003bceb .LASF2212
     /tmp/ccJdQ6R8.s:102714  .debug_str:000000000003ab0d .LASF2213
     /tmp/ccJdQ6R8.s:104442  .debug_str:0000000000041ec3 .LASF2214
     /tmp/ccJdQ6R8.s:104456  .debug_str:0000000000041fa8 .LASF2215
     /tmp/ccJdQ6R8.s:97728  .debug_str:0000000000026a7f .LASF2216
     /tmp/ccJdQ6R8.s:98824  .debug_str:000000000002b1a5 .LASF2217
     /tmp/ccJdQ6R8.s:88534  .debug_str:0000000000000dbd .LASF2218
     /tmp/ccJdQ6R8.s:98646  .debug_str:000000000002a6e1 .LASF2219
     /tmp/ccJdQ6R8.s:102700  .debug_str:000000000003a9e3 .LASF2220
     /tmp/ccJdQ6R8.s:88860  .debug_str:0000000000002461 .LASF2221
     /tmp/ccJdQ6R8.s:98030  .debug_str:0000000000027f45 .LASF2222
     /tmp/ccJdQ6R8.s:98344  .debug_str:00000000000293ca .LASF2223
     /tmp/ccJdQ6R8.s:100698  .debug_str:0000000000032c41 .LASF2224
     /tmp/ccJdQ6R8.s:103846  .debug_str:000000000003f709 .LASF2225
     /tmp/ccJdQ6R8.s:96010  .debug_str:000000000001fecb .LASF2226
     /tmp/ccJdQ6R8.s:100326  .debug_str:000000000003144e .LASF2227
     /tmp/ccJdQ6R8.s:91048  .debug_str:000000000000bab2 .LASF2228
     /tmp/ccJdQ6R8.s:90470  .debug_str:0000000000009260 .LASF2229
     /tmp/ccJdQ6R8.s:105442  .debug_str:0000000000045ee7 .LASF2230
     /tmp/ccJdQ6R8.s:99878  .debug_str:000000000002f6a8 .LASF2231
     /tmp/ccJdQ6R8.s:92378  .debug_str:0000000000010ad8 .LASF2232
     /tmp/ccJdQ6R8.s:99706  .debug_str:000000000002ead3 .LASF2233
     /tmp/ccJdQ6R8.s:93948  .debug_str:0000000000017034 .LASF2234
     /tmp/ccJdQ6R8.s:101544  .debug_str:0000000000036334 .LASF2235
     /tmp/ccJdQ6R8.s:106856  .debug_str:000000000004c073 .LASF2236
     /tmp/ccJdQ6R8.s:95534  .debug_str:000000000001dca9 .LASF2237
     /tmp/ccJdQ6R8.s:96382  .debug_str:0000000000021749 .LASF2238
     /tmp/ccJdQ6R8.s:102272  .debug_str:0000000000038be1 .LASF2239
     /tmp/ccJdQ6R8.s:98396  .debug_str:00000000000296b8 .LASF2240
     /tmp/ccJdQ6R8.s:106886  .debug_str:000000000004c248 .LASF2241
     /tmp/ccJdQ6R8.s:90868  .debug_str:000000000000adb6 .LASF2242
     /tmp/ccJdQ6R8.s:97082  .debug_str:00000000000243d9 .LASF2243
     /tmp/ccJdQ6R8.s:103910  .debug_str:000000000003fb36 .LASF2244
     /tmp/ccJdQ6R8.s:99920  .debug_str:000000000002f945 .LASF2245
     /tmp/ccJdQ6R8.s:102814  .debug_str:000000000003b1bc .LASF2246
     /tmp/ccJdQ6R8.s:106694  .debug_str:000000000004b4d9 .LASF2247
     /tmp/ccJdQ6R8.s:104264  .debug_str:00000000000412bb .LASF2248
     /tmp/ccJdQ6R8.s:88846  .debug_str:000000000000236b .LASF2249
     /tmp/ccJdQ6R8.s:95584  .debug_str:000000000001e002 .LASF2250
     /tmp/ccJdQ6R8.s:104282  .debug_str:0000000000041418 .LASF2251
     /tmp/ccJdQ6R8.s:105710  .debug_str:0000000000047131 .LASF2252
     /tmp/ccJdQ6R8.s:90704  .debug_str:000000000000a23a .LASF2253
     /tmp/ccJdQ6R8.s:96862  .debug_str:000000000002370c .LASF2254
     /tmp/ccJdQ6R8.s:101866  .debug_str:000000000003750a .LASF2255
     /tmp/ccJdQ6R8.s:100092  .debug_str:0000000000030433 .LASF2256
     /tmp/ccJdQ6R8.s:93208  .debug_str:000000000001404d .LASF2257
     /tmp/ccJdQ6R8.s:88826  .debug_str:0000000000002214 .LASF2258
     /tmp/ccJdQ6R8.s:96270  .debug_str:000000000002108b .LASF2259
     /tmp/ccJdQ6R8.s:99046  .debug_str:000000000002bfcf .LASF2260
     /tmp/ccJdQ6R8.s:95154  .debug_str:000000000001c1fb .LASF2261
     /tmp/ccJdQ6R8.s:90060  .debug_str:00000000000076eb .LASF2262
     /tmp/ccJdQ6R8.s:95442  .debug_str:000000000001d5d6 .LASF2263
     /tmp/ccJdQ6R8.s:94956  .debug_str:000000000001b44c .LASF2264
     /tmp/ccJdQ6R8.s:88374  .debug_str:00000000000002f8 .LASF2265
     /tmp/ccJdQ6R8.s:92938  .debug_str:0000000000012fa1 .LASF2266
     /tmp/ccJdQ6R8.s:101644  .debug_str:00000000000369a2 .LASF2267
     /tmp/ccJdQ6R8.s:98790  .debug_str:000000000002afa3 .LASF2268
     /tmp/ccJdQ6R8.s:92264  .debug_str:000000000001031f .LASF2269
     /tmp/ccJdQ6R8.s:103838  .debug_str:000000000003f66a .LASF2270
     /tmp/ccJdQ6R8.s:98480  .debug_str:0000000000029bb8 .LASF2271
     /tmp/ccJdQ6R8.s:103952  .debug_str:000000000003fdb0 .LASF2272
     /tmp/ccJdQ6R8.s:90118  .debug_str:0000000000007a88 .LASF2273
     /tmp/ccJdQ6R8.s:106050  .debug_str:00000000000486cb .LASF2274
     /tmp/ccJdQ6R8.s:103700  .debug_str:000000000003ebd4 .LASF2275
     /tmp/ccJdQ6R8.s:105188  .debug_str:0000000000044e0a .LASF2276
     /tmp/ccJdQ6R8.s:92770  .debug_str:0000000000012417 .LASF2277
     /tmp/ccJdQ6R8.s:103292  .debug_str:000000000003d0ab .LASF2278
     /tmp/ccJdQ6R8.s:93662  .debug_str:0000000000015ca7 .LASF2279
     /tmp/ccJdQ6R8.s:103648  .debug_str:000000000003e7bf .LASF2280
     /tmp/ccJdQ6R8.s:88812  .debug_str:0000000000002130 .LASF2281
     /tmp/ccJdQ6R8.s:96198  .debug_str:0000000000020b4a .LASF2282
     /tmp/ccJdQ6R8.s:103112  .debug_str:000000000003c5a6 .LASF2283
     /tmp/ccJdQ6R8.s:89212  .debug_str:0000000000003d33 .LASF2284
     /tmp/ccJdQ6R8.s:106628  .debug_str:000000000004aee0 .LASF2285
     /tmp/ccJdQ6R8.s:94476  .debug_str:000000000001922d .LASF2286
     /tmp/ccJdQ6R8.s:102052  .debug_str:0000000000037eed .LASF2287
     /tmp/ccJdQ6R8.s:103682  .debug_str:000000000003ea46 .LASF2288
     /tmp/ccJdQ6R8.s:97336  .debug_str:0000000000025070 .LASF2289
     /tmp/ccJdQ6R8.s:94182  .debug_str:0000000000017f88 .LASF2290
     /tmp/ccJdQ6R8.s:92468  .debug_str:0000000000010ffd .LASF2291
     /tmp/ccJdQ6R8.s:103404  .debug_str:000000000003d83a .LASF2292
     /tmp/ccJdQ6R8.s:99402  .debug_str:000000000002d652 .LASF2293
     /tmp/ccJdQ6R8.s:103218  .debug_str:000000000003ccfe .LASF2294
     /tmp/ccJdQ6R8.s:97712  .debug_str:0000000000026962 .LASF2295
     /tmp/ccJdQ6R8.s:93500  .debug_str:0000000000015239 .LASF2296
     /tmp/ccJdQ6R8.s:93866  .debug_str:00000000000169d0 .LASF2297
     /tmp/ccJdQ6R8.s:99738  .debug_str:000000000002ece8 .LASF2298
     /tmp/ccJdQ6R8.s:96646  .debug_str:000000000002280b .LASF2299
     /tmp/ccJdQ6R8.s:107028  .debug_str:000000000004cb9d .LASF2300
     /tmp/ccJdQ6R8.s:92140  .debug_str:000000000000fc9c .LASF2301
     /tmp/ccJdQ6R8.s:102026  .debug_str:0000000000037cf3 .LASF2302
     /tmp/ccJdQ6R8.s:99182  .debug_str:000000000002c8b3 .LASF2303
     /tmp/ccJdQ6R8.s:88898  .debug_str:00000000000027cb .LASF2304
     /tmp/ccJdQ6R8.s:88570  .debug_str:000000000000105c .LASF2305
     /tmp/ccJdQ6R8.s:94660  .debug_str:0000000000019fe0 .LASF2306
     /tmp/ccJdQ6R8.s:99804  .debug_str:000000000002f144 .LASF2307
     /tmp/ccJdQ6R8.s:92504  .debug_str:00000000000112cb .LASF2308
     /tmp/ccJdQ6R8.s:103444  .debug_str:000000000003db22 .LASF2309
     /tmp/ccJdQ6R8.s:104190  .debug_str:0000000000040d56 .LASF2310
     /tmp/ccJdQ6R8.s:100194  .debug_str:0000000000030a63 .LASF2311
     /tmp/ccJdQ6R8.s:94784  .debug_str:000000000001a829 .LASF2312
     /tmp/ccJdQ6R8.s:92330  .debug_str:00000000000107c6 .LASF2313
     /tmp/ccJdQ6R8.s:106238  .debug_str:00000000000494ac .LASF2314
     /tmp/ccJdQ6R8.s:102422  .debug_str:000000000003962b .LASF2315
     /tmp/ccJdQ6R8.s:107002  .debug_str:000000000004ca14 .LASF2316
     /tmp/ccJdQ6R8.s:89026  .debug_str:00000000000030d3 .LASF2317
     /tmp/ccJdQ6R8.s:98490  .debug_str:0000000000029cbf .LASF2318
     /tmp/ccJdQ6R8.s:99240  .debug_str:000000000002cc97 .LASF2319
     /tmp/ccJdQ6R8.s:89794  .debug_str:000000000000651f .LASF2320
     /tmp/ccJdQ6R8.s:90244  .debug_str:0000000000008312 .LASF2321
     /tmp/ccJdQ6R8.s:100232  .debug_str:0000000000030d46 .LASF2322
     /tmp/ccJdQ6R8.s:100490  .debug_str:0000000000031f02 .LASF2323
     /tmp/ccJdQ6R8.s:99238  .debug_str:000000000002cc5f .LASF2324
     /tmp/ccJdQ6R8.s:89420  .debug_str:0000000000004be6 .LASF2325
     /tmp/ccJdQ6R8.s:88996  .debug_str:0000000000002f41 .LASF2326
     /tmp/ccJdQ6R8.s:104326  .debug_str:00000000000417ab .LASF2327
     /tmp/ccJdQ6R8.s:106706  .debug_str:000000000004b5cd .LASF2328
     /tmp/ccJdQ6R8.s:105944  .debug_str:0000000000047fee .LASF2329
     /tmp/ccJdQ6R8.s:98100  .debug_str:00000000000283c5 .LASF2330
     /tmp/ccJdQ6R8.s:93028  .debug_str:0000000000013547 .LASF2331
     /tmp/ccJdQ6R8.s:104302  .debug_str:00000000000415b0 .LASF2332
     /tmp/ccJdQ6R8.s:93138  .debug_str:0000000000013c2c .LASF2333
     /tmp/ccJdQ6R8.s:96242  .debug_str:0000000000020e5e .LASF2334
     /tmp/ccJdQ6R8.s:90200  .debug_str:0000000000008045 .LASF2335
     /tmp/ccJdQ6R8.s:90348  .debug_str:0000000000008a48 .LASF2336
     /tmp/ccJdQ6R8.s:106018  .debug_str:00000000000484d9 .LASF2337
     /tmp/ccJdQ6R8.s:106616  .debug_str:000000000004ade1 .LASF2338
     /tmp/ccJdQ6R8.s:88890  .debug_str:00000000000026e6 .LASF2339
     /tmp/ccJdQ6R8.s:98848  .debug_str:000000000002b3b2 .LASF2340
     /tmp/ccJdQ6R8.s:97328  .debug_str:0000000000024fe4 .LASF2341
     /tmp/ccJdQ6R8.s:107050  .debug_str:000000000004ccfe .LASF2342
     /tmp/ccJdQ6R8.s:89880  .debug_str:0000000000006b91 .LASF2343
     /tmp/ccJdQ6R8.s:104778  .debug_str:000000000004345c .LASF2344
     /tmp/ccJdQ6R8.s:99258  .debug_str:000000000002cded .LASF2345
     /tmp/ccJdQ6R8.s:106976  .debug_str:000000000004c86c .LASF2346
     /tmp/ccJdQ6R8.s:99210  .debug_str:000000000002ca9b .LASF2347
     /tmp/ccJdQ6R8.s:89032  .debug_str:0000000000003153 .LASF2348
     /tmp/ccJdQ6R8.s:95458  .debug_str:000000000001d737 .LASF2349
     /tmp/ccJdQ6R8.s:103320  .debug_str:000000000003d2b8 .LASF2350
     /tmp/ccJdQ6R8.s:97630  .debug_str:000000000002631b .LASF2351
     /tmp/ccJdQ6R8.s:98578  .debug_str:000000000002a27b .LASF2352
     /tmp/ccJdQ6R8.s:106850  .debug_str:000000000004bffc .LASF2353
     /tmp/ccJdQ6R8.s:104594  .debug_str:00000000000428fb .LASF2354
     /tmp/ccJdQ6R8.s:106818  .debug_str:000000000004bd7e .LASF2355
     /tmp/ccJdQ6R8.s:97806  .debug_str:0000000000026fea .LASF2356
     /tmp/ccJdQ6R8.s:105454  .debug_str:0000000000045f8d .LASF2357
     /tmp/ccJdQ6R8.s:98954  .debug_str:000000000002babe .LASF2358
     /tmp/ccJdQ6R8.s:105648  .debug_str:0000000000046cc9 .LASF2359
     /tmp/ccJdQ6R8.s:90418  .debug_str:0000000000008f2e .LASF2360
     /tmp/ccJdQ6R8.s:92278  .debug_str:00000000000103ef .LASF2361
     /tmp/ccJdQ6R8.s:105050  .debug_str:0000000000044536 .LASF2362
     /tmp/ccJdQ6R8.s:93920  .debug_str:0000000000016e1e .LASF2363
     /tmp/ccJdQ6R8.s:107210  .debug_str:000000000004d839 .LASF2364
     /tmp/ccJdQ6R8.s:99734  .debug_str:000000000002ec8f .LASF2365
     /tmp/ccJdQ6R8.s:90864  .debug_str:000000000000ad49 .LASF2366
     /tmp/ccJdQ6R8.s:91276  .debug_str:000000000000c9c8 .LASF2367
     /tmp/ccJdQ6R8.s:104268  .debug_str:000000000004130b .LASF2368
     /tmp/ccJdQ6R8.s:94548  .debug_str:000000000001970b .LASF2369
     /tmp/ccJdQ6R8.s:102662  .debug_str:000000000003a73d .LASF2370
     /tmp/ccJdQ6R8.s:100670  .debug_str:0000000000032a7c .LASF2371
     /tmp/ccJdQ6R8.s:106648  .debug_str:000000000004b0a5 .LASF2372
     /tmp/ccJdQ6R8.s:91962  .debug_str:000000000000f1eb .LASF2373
     /tmp/ccJdQ6R8.s:97866  .debug_str:000000000002738c .LASF2374
     /tmp/ccJdQ6R8.s:102590  .debug_str:000000000003a1ce .LASF2375
     /tmp/ccJdQ6R8.s:88990  .debug_str:0000000000002ea4 .LASF2376
     /tmp/ccJdQ6R8.s:99160  .debug_str:000000000002c74e .LASF2377
     /tmp/ccJdQ6R8.s:98002  .debug_str:0000000000027d01 .LASF2378
     /tmp/ccJdQ6R8.s:90898  .debug_str:000000000000afed .LASF2379
     /tmp/ccJdQ6R8.s:90272  .debug_str:00000000000084ea .LASF2380
     /tmp/ccJdQ6R8.s:95032  .debug_str:000000000001b961 .LASF2381
     /tmp/ccJdQ6R8.s:99820  .debug_str:000000000002f2a7 .LASF2382
     /tmp/ccJdQ6R8.s:105388  .debug_str:0000000000045ba1 .LASF2383
     /tmp/ccJdQ6R8.s:103808  .debug_str:000000000003f3d1 .LASF2384
     /tmp/ccJdQ6R8.s:99834  .debug_str:000000000002f3cb .LASF2385
     /tmp/ccJdQ6R8.s:92870  .debug_str:0000000000012b9b .LASF2386
     /tmp/ccJdQ6R8.s:93802  .debug_str:00000000000165c2 .LASF2387
     /tmp/ccJdQ6R8.s:102926  .debug_str:000000000003b8ca .LASF2388
     /tmp/ccJdQ6R8.s:92896  .debug_str:0000000000012d55 .LASF2389
     /tmp/ccJdQ6R8.s:101198  .debug_str:0000000000034d99 .LASF2390
     /tmp/ccJdQ6R8.s:103950  .debug_str:000000000003fd7a .LASF2391
     /tmp/ccJdQ6R8.s:101172  .debug_str:0000000000034c27 .LASF2392
     /tmp/ccJdQ6R8.s:91168  .debug_str:000000000000c264 .LASF2393
     /tmp/ccJdQ6R8.s:101270  .debug_str:00000000000352ad .LASF2394
     /tmp/ccJdQ6R8.s:96664  .debug_str:0000000000022975 .LASF2395
     /tmp/ccJdQ6R8.s:94334  .debug_str:000000000001884a .LASF2396
     /tmp/ccJdQ6R8.s:100812  .debug_str:00000000000333fc .LASF2397
     /tmp/ccJdQ6R8.s:104484  .debug_str:00000000000421a8 .LASF2398
     /tmp/ccJdQ6R8.s:101148  .debug_str:0000000000034a5c .LASF2399
     /tmp/ccJdQ6R8.s:88694  .debug_str:00000000000018a2 .LASF2400
     /tmp/ccJdQ6R8.s:100978  .debug_str:0000000000033f1d .LASF2401
     /tmp/ccJdQ6R8.s:90480  .debug_str:00000000000092fc .LASF2402
     /tmp/ccJdQ6R8.s:98728  .debug_str:000000000002abc7 .LASF2403
     /tmp/ccJdQ6R8.s:99886  .debug_str:000000000002f722 .LASF2404
     /tmp/ccJdQ6R8.s:94426  .debug_str:0000000000018ec2 .LASF2405
     /tmp/ccJdQ6R8.s:90070  .debug_str:00000000000077ec .LASF2406
     /tmp/ccJdQ6R8.s:98152  .debug_str:0000000000028706 .LASF2407
     /tmp/ccJdQ6R8.s:101704  .debug_str:0000000000036cd0 .LASF2408
     /tmp/ccJdQ6R8.s:98250  .debug_str:0000000000028d67 .LASF2409
     /tmp/ccJdQ6R8.s:97398  .debug_str:000000000002541b .LASF2410
     /tmp/ccJdQ6R8.s:103246  .debug_str:000000000003cec0 .LASF2411
     /tmp/ccJdQ6R8.s:101214  .debug_str:0000000000034e88 .LASF2412
     /tmp/ccJdQ6R8.s:101026  .debug_str:000000000003424b .LASF2413
     /tmp/ccJdQ6R8.s:91384  .debug_str:000000000000d13e .LASF2414
     /tmp/ccJdQ6R8.s:91568  .debug_str:000000000000dc60 .LASF2415
     /tmp/ccJdQ6R8.s:103146  .debug_str:000000000003c805 .LASF2416
     /tmp/ccJdQ6R8.s:95370  .debug_str:000000000001d0cc .LASF2417
     /tmp/ccJdQ6R8.s:96104  .debug_str:0000000000020476 .LASF2418
     /tmp/ccJdQ6R8.s:97640  .debug_str:0000000000026402 .LASF2419
     /tmp/ccJdQ6R8.s:106222  .debug_str:0000000000049394 .LASF2420
     /tmp/ccJdQ6R8.s:103350  .debug_str:000000000003d4ff .LASF2421
     /tmp/ccJdQ6R8.s:106172  .debug_str:0000000000049007 .LASF2422
     /tmp/ccJdQ6R8.s:96028  .debug_str:000000000001fff2 .LASF2423
     /tmp/ccJdQ6R8.s:92046  .debug_str:000000000000f780 .LASF2424
     /tmp/ccJdQ6R8.s:92778  .debug_str:0000000000012499 .LASF2425
     /tmp/ccJdQ6R8.s:88896  .debug_str:0000000000002789 .LASF2426
     /tmp/ccJdQ6R8.s:95578  .debug_str:000000000001df73 .LASF2427
     /tmp/ccJdQ6R8.s:103002  .debug_str:000000000003bdeb .LASF2428
     /tmp/ccJdQ6R8.s:95648  .debug_str:000000000001e3cb .LASF2429
     /tmp/ccJdQ6R8.s:94136  .debug_str:0000000000017c40 .LASF2430
     /tmp/ccJdQ6R8.s:103484  .debug_str:000000000003ddbd .LASF2431
     /tmp/ccJdQ6R8.s:105268  .debug_str:000000000004530c .LASF2432
     /tmp/ccJdQ6R8.s:96522  .debug_str:0000000000021ff1 .LASF2433
     /tmp/ccJdQ6R8.s:98580  .debug_str:000000000002a2b4 .LASF2434
     /tmp/ccJdQ6R8.s:95184  .debug_str:000000000001c391 .LASF2435
     /tmp/ccJdQ6R8.s:89872  .debug_str:0000000000006b16 .LASF2436
     /tmp/ccJdQ6R8.s:100794  .debug_str:0000000000033266 .LASF2437
     /tmp/ccJdQ6R8.s:106666  .debug_str:000000000004b25e .LASF2438
     /tmp/ccJdQ6R8.s:100000  .debug_str:000000000002fe2c .LASF2439
     /tmp/ccJdQ6R8.s:98142  .debug_str:0000000000028648 .LASF2440
     /tmp/ccJdQ6R8.s:92000  .debug_str:000000000000f4f2 .LASF2441
     /tmp/ccJdQ6R8.s:95090  .debug_str:000000000001bdd1 .LASF2442
     /tmp/ccJdQ6R8.s:101264  .debug_str:0000000000035236 .LASF2443
     /tmp/ccJdQ6R8.s:106430  .debug_str:000000000004a167 .LASF2444
     /tmp/ccJdQ6R8.s:92370  .debug_str:0000000000010a2e .LASF2445
     /tmp/ccJdQ6R8.s:99830  .debug_str:000000000002f374 .LASF2446
     /tmp/ccJdQ6R8.s:100424  .debug_str:0000000000031acd .LASF2447
     /tmp/ccJdQ6R8.s:97016  .debug_str:0000000000023fc6 .LASF2448
     /tmp/ccJdQ6R8.s:88980  .debug_str:0000000000002d97 .LASF2449
     /tmp/ccJdQ6R8.s:103760  .debug_str:000000000003f046 .LASF2450
     /tmp/ccJdQ6R8.s:106686  .debug_str:000000000004b407 .LASF2451
     /tmp/ccJdQ6R8.s:88638  .debug_str:0000000000001493 .LASF2452
     /tmp/ccJdQ6R8.s:97876  .debug_str:0000000000027440 .LASF2453
     /tmp/ccJdQ6R8.s:94716  .debug_str:000000000001a3ea .LASF2454
     /tmp/ccJdQ6R8.s:93346  .debug_str:000000000001481e .LASF2455
     /tmp/ccJdQ6R8.s:99156  .debug_str:000000000002c6cd .LASF2456
     /tmp/ccJdQ6R8.s:102234  .debug_str:000000000003894f .LASF2457
     /tmp/ccJdQ6R8.s:101394  .debug_str:0000000000035a37 .LASF2458
     /tmp/ccJdQ6R8.s:100336  .debug_str:000000000003152f .LASF2459
     /tmp/ccJdQ6R8.s:90918  .debug_str:000000000000b18a .LASF2460
     /tmp/ccJdQ6R8.s:90064  .debug_str:000000000000776c .LASF2461
     /tmp/ccJdQ6R8.s:95864  .debug_str:000000000001f3c6 .LASF2462
     /tmp/ccJdQ6R8.s:97732  .debug_str:0000000000026ad6 .LASF2463
     /tmp/ccJdQ6R8.s:91080  .debug_str:000000000000bcb3 .LASF2464
     /tmp/ccJdQ6R8.s:98144  .debug_str:0000000000028683 .LASF2465
     /tmp/ccJdQ6R8.s:105480  .debug_str:000000000004614c .LASF2466
     /tmp/ccJdQ6R8.s:97252  .debug_str:0000000000024bfb .LASF2467
     /tmp/ccJdQ6R8.s:96728  .debug_str:0000000000022da5 .LASF2468
     /tmp/ccJdQ6R8.s:103590  .debug_str:000000000003e437 .LASF2469
     /tmp/ccJdQ6R8.s:91836  .debug_str:000000000000eb20 .LASF2470
     /tmp/ccJdQ6R8.s:99118  .debug_str:000000000002c430 .LASF2471
     /tmp/ccJdQ6R8.s:106154  .debug_str:0000000000048ed8 .LASF2472
     /tmp/ccJdQ6R8.s:90000  .debug_str:0000000000007374 .LASF2473
     /tmp/ccJdQ6R8.s:103296  .debug_str:000000000003d117 .LASF2474
     /tmp/ccJdQ6R8.s:106618  .debug_str:000000000004ae20 .LASF2475
     /tmp/ccJdQ6R8.s:88518  .debug_str:0000000000000c96 .LASF2476
     /tmp/ccJdQ6R8.s:99384  .debug_str:000000000002d4fe .LASF2477
     /tmp/ccJdQ6R8.s:89112  .debug_str:0000000000003653 .LASF2478
     /tmp/ccJdQ6R8.s:91902  .debug_str:000000000000ee7d .LASF2479
     /tmp/ccJdQ6R8.s:93974  .debug_str:00000000000171eb .LASF2480
     /tmp/ccJdQ6R8.s:103698  .debug_str:000000000003eb8c .LASF2481
     /tmp/ccJdQ6R8.s:95632  .debug_str:000000000001e2c5 .LASF2482
     /tmp/ccJdQ6R8.s:90440  .debug_str:0000000000009063 .LASF2483
     /tmp/ccJdQ6R8.s:91096  .debug_str:000000000000bd9b .LASF2484
     /tmp/ccJdQ6R8.s:97254  .debug_str:0000000000024c42 .LASF2485
     /tmp/ccJdQ6R8.s:90994  .debug_str:000000000000b75c .LASF2486
     /tmp/ccJdQ6R8.s:106496  .debug_str:000000000004a63b .LASF2487
     /tmp/ccJdQ6R8.s:99346  .debug_str:000000000002d33a .LASF2488
     /tmp/ccJdQ6R8.s:102318  .debug_str:0000000000038f3d .LASF2489
     /tmp/ccJdQ6R8.s:101370  .debug_str:00000000000358e9 .LASF2490
     /tmp/ccJdQ6R8.s:88408  .debug_str:00000000000005aa .LASF2491
     /tmp/ccJdQ6R8.s:93950  .debug_str:000000000001706e .LASF2492
     /tmp/ccJdQ6R8.s:99444  .debug_str:000000000002d944 .LASF2493
     /tmp/ccJdQ6R8.s:89444  .debug_str:0000000000004d93 .LASF2494
     /tmp/ccJdQ6R8.s:102636  .debug_str:000000000003a527 .LASF2495
     /tmp/ccJdQ6R8.s:103746  .debug_str:000000000003ef4d .LASF2496
     /tmp/ccJdQ6R8.s:94180  .debug_str:0000000000017f4a .LASF2497
     /tmp/ccJdQ6R8.s:90916  .debug_str:000000000000b144 .LASF2498
     /tmp/ccJdQ6R8.s:91992  .debug_str:000000000000f476 .LASF2499
     /tmp/ccJdQ6R8.s:94106  .debug_str:0000000000017a64 .LASF2500
     /tmp/ccJdQ6R8.s:102956  .debug_str:000000000003baaa .LASF2501
     /tmp/ccJdQ6R8.s:88736  .debug_str:0000000000001bd1 .LASF2502
     /tmp/ccJdQ6R8.s:94862  .debug_str:000000000001ad18 .LASF2503
     /tmp/ccJdQ6R8.s:98944  .debug_str:000000000002ba19 .LASF2504
     /tmp/ccJdQ6R8.s:93852  .debug_str:0000000000016934 .LASF2505
     /tmp/ccJdQ6R8.s:89982  .debug_str:00000000000071fe .LASF2506
     /tmp/ccJdQ6R8.s:92804  .debug_str:000000000001267e .LASF2507
     /tmp/ccJdQ6R8.s:98062  .debug_str:00000000000281a9 .LASF2508
     /tmp/ccJdQ6R8.s:97502  .debug_str:0000000000025b61 .LASF2509
     /tmp/ccJdQ6R8.s:105062  .debug_str:00000000000445ff .LASF2510
     /tmp/ccJdQ6R8.s:95604  .debug_str:000000000001e0a8 .LASF2511
     /tmp/ccJdQ6R8.s:92116  .debug_str:000000000000fad9 .LASF2512
     /tmp/ccJdQ6R8.s:95926  .debug_str:000000000001f81b .LASF2513
     /tmp/ccJdQ6R8.s:104086  .debug_str:000000000004076a .LASF2514
     /tmp/ccJdQ6R8.s:102556  .debug_str:0000000000039f09 .LASF2515
     /tmp/ccJdQ6R8.s:89930  .debug_str:0000000000006f0c .LASF2516
     /tmp/ccJdQ6R8.s:104494  .debug_str:0000000000042250 .LASF2517
     /tmp/ccJdQ6R8.s:99504  .debug_str:000000000002dd13 .LASF2518
     /tmp/ccJdQ6R8.s:99250  .debug_str:000000000002cd3c .LASF2519
     /tmp/ccJdQ6R8.s:101020  .debug_str:00000000000341a7 .LASF2520
     /tmp/ccJdQ6R8.s:90400  .debug_str:0000000000008dce .LASF2521
     /tmp/ccJdQ6R8.s:106250  .debug_str:0000000000049562 .LASF2522
     /tmp/ccJdQ6R8.s:96470  .debug_str:0000000000021c38 .LASF2523
     /tmp/ccJdQ6R8.s:94112  .debug_str:0000000000017ae9 .LASF2524
     /tmp/ccJdQ6R8.s:104954  .debug_str:0000000000043fdd .LASF2525
     /tmp/ccJdQ6R8.s:96514  .debug_str:0000000000021f4d .LASF2526
     /tmp/ccJdQ6R8.s:91138  .debug_str:000000000000c071 .LASF2527
     /tmp/ccJdQ6R8.s:88966  .debug_str:0000000000002c5d .LASF2528
     /tmp/ccJdQ6R8.s:90756  .debug_str:000000000000a5c6 .LASF2529
     /tmp/ccJdQ6R8.s:92478  .debug_str:000000000001110c .LASF2530
     /tmp/ccJdQ6R8.s:97526  .debug_str:0000000000025d3e .LASF2531
     /tmp/ccJdQ6R8.s:96850  .debug_str:0000000000023618 .LASF2532
     /tmp/ccJdQ6R8.s:92674  .debug_str:0000000000011eb3 .LASF2533
     /tmp/ccJdQ6R8.s:93832  .debug_str:0000000000016782 .LASF2534
     /tmp/ccJdQ6R8.s:102412  .debug_str:000000000003957c .LASF2535
     /tmp/ccJdQ6R8.s:96598  .debug_str:00000000000224ba .LASF2536
     /tmp/ccJdQ6R8.s:93960  .debug_str:00000000000170fb .LASF2537
     /tmp/ccJdQ6R8.s:105520  .debug_str:00000000000463da .LASF2538
     /tmp/ccJdQ6R8.s:99068  .debug_str:000000000002c110 .LASF2539
     /tmp/ccJdQ6R8.s:91022  .debug_str:000000000000b8fd .LASF2540
     /tmp/ccJdQ6R8.s:94918  .debug_str:000000000001b137 .LASF2541
     /tmp/ccJdQ6R8.s:93046  .debug_str:0000000000013670 .LASF2542
     /tmp/ccJdQ6R8.s:94124  .debug_str:0000000000017b98 .LASF2543
     /tmp/ccJdQ6R8.s:95004  .debug_str:000000000001b777 .LASF2544
     /tmp/ccJdQ6R8.s:89638  .debug_str:0000000000005afc .LASF2545
     /tmp/ccJdQ6R8.s:99754  .debug_str:000000000002ee04 .LASF2546
     /tmp/ccJdQ6R8.s:92960  .debug_str:0000000000013112 .LASF2547
     /tmp/ccJdQ6R8.s:105512  .debug_str:0000000000046336 .LASF2548
     /tmp/ccJdQ6R8.s:100732  .debug_str:0000000000032e20 .LASF2549
     /tmp/ccJdQ6R8.s:92562  .debug_str:00000000000116f5 .LASF2550
     /tmp/ccJdQ6R8.s:94052  .debug_str:0000000000017694 .LASF2551
     /tmp/ccJdQ6R8.s:88680  .debug_str:00000000000017ce .LASF2552
     /tmp/ccJdQ6R8.s:90444  .debug_str:00000000000090c7 .LASF2553
     /tmp/ccJdQ6R8.s:95546  .debug_str:000000000001ddbe .LASF2554
     /tmp/ccJdQ6R8.s:103142  .debug_str:000000000003c7bd .LASF2555
     /tmp/ccJdQ6R8.s:95980  .debug_str:000000000001fd0a .LASF2556
     /tmp/ccJdQ6R8.s:96512  .debug_str:0000000000021f1c .LASF2557
     /tmp/ccJdQ6R8.s:102984  .debug_str:000000000003bca0 .LASF2558
     /tmp/ccJdQ6R8.s:100168  .debug_str:0000000000030894 .LASF2559
     /tmp/ccJdQ6R8.s:104968  .debug_str:00000000000440f7 .LASF2560
     /tmp/ccJdQ6R8.s:105624  .debug_str:0000000000046ada .LASF2561
     /tmp/ccJdQ6R8.s:89520  .debug_str:0000000000005299 .LASF2562
     /tmp/ccJdQ6R8.s:97562  .debug_str:0000000000025f87 .LASF2563
     /tmp/ccJdQ6R8.s:102454  .debug_str:00000000000398d3 .LASF2564
     /tmp/ccJdQ6R8.s:91172  .debug_str:000000000000c2ca .LASF2565
     /tmp/ccJdQ6R8.s:90772  .debug_str:000000000000a68f .LASF2566
     /tmp/ccJdQ6R8.s:102566  .debug_str:0000000000039ff0 .LASF2567
     /tmp/ccJdQ6R8.s:103076  .debug_str:000000000003c312 .LASF2568
     /tmp/ccJdQ6R8.s:89256  .debug_str:000000000000409f .LASF2569
     /tmp/ccJdQ6R8.s:101786  .debug_str:000000000003715b .LASF2570
     /tmp/ccJdQ6R8.s:95898  .debug_str:000000000001f616 .LASF2571
     /tmp/ccJdQ6R8.s:92900  .debug_str:0000000000012da2 .LASF2572
     /tmp/ccJdQ6R8.s:95892  .debug_str:000000000001f5b5 .LASF2573
     /tmp/ccJdQ6R8.s:103030  .debug_str:000000000003bfc8 .LASF2574
     /tmp/ccJdQ6R8.s:94844  .debug_str:000000000001abe5 .LASF2575
     /tmp/ccJdQ6R8.s:98028  .debug_str:0000000000027f05 .LASF2576
     /tmp/ccJdQ6R8.s:99214  .debug_str:000000000002caea .LASF2577
     /tmp/ccJdQ6R8.s:103080  .debug_str:000000000003c37c .LASF2578
     /tmp/ccJdQ6R8.s:89732  .debug_str:00000000000060e5 .LASF2579
     /tmp/ccJdQ6R8.s:96578  .debug_str:0000000000022346 .LASF2580
     /tmp/ccJdQ6R8.s:101002  .debug_str:000000000003408f .LASF2581
     /tmp/ccJdQ6R8.s:105972  .debug_str:0000000000048207 .LASF2582
     /tmp/ccJdQ6R8.s:107042  .debug_str:000000000004cc88 .LASF2583
     /tmp/ccJdQ6R8.s:90742  .debug_str:000000000000a494 .LASF2584
     /tmp/ccJdQ6R8.s:106286  .debug_str:00000000000497e4 .LASF2585
     /tmp/ccJdQ6R8.s:97474  .debug_str:00000000000259c8 .LASF2586
     /tmp/ccJdQ6R8.s:93192  .debug_str:0000000000013f5b .LASF2587
     /tmp/ccJdQ6R8.s:94738  .debug_str:000000000001a557 .LASF2588
     /tmp/ccJdQ6R8.s:104804  .debug_str:0000000000043625 .LASF2589
     /tmp/ccJdQ6R8.s:99554  .debug_str:000000000002e0e3 .LASF2590
     /tmp/ccJdQ6R8.s:100822  .debug_str:000000000003348f .LASF2591
     /tmp/ccJdQ6R8.s:106312  .debug_str:00000000000499bc .LASF2592
     /tmp/ccJdQ6R8.s:96156  .debug_str:000000000002080c .LASF2593
     /tmp/ccJdQ6R8.s:96648  .debug_str:0000000000022842 .LASF2594
     /tmp/ccJdQ6R8.s:93508  .debug_str:000000000001530f .LASF2595
     /tmp/ccJdQ6R8.s:102864  .debug_str:000000000003b4e8 .LASF2596
     /tmp/ccJdQ6R8.s:103958  .debug_str:000000000003fe22 .LASF2597
     /tmp/ccJdQ6R8.s:104606  .debug_str:00000000000429fb .LASF2598
     /tmp/ccJdQ6R8.s:95902  .debug_str:000000000001f67e .LASF2599
     /tmp/ccJdQ6R8.s:95080  .debug_str:000000000001bd15 .LASF2600
     /tmp/ccJdQ6R8.s:98434  .debug_str:000000000002991a .LASF2601
     /tmp/ccJdQ6R8.s:104318  .debug_str:000000000004171e .LASF2602
     /tmp/ccJdQ6R8.s:96110  .debug_str:00000000000204ef .LASF2603
     /tmp/ccJdQ6R8.s:94628  .debug_str:0000000000019cc1 .LASF2604
     /tmp/ccJdQ6R8.s:94818  .debug_str:000000000001aaac .LASF2605
     /tmp/ccJdQ6R8.s:94452  .debug_str:000000000001907c .LASF2606
     /tmp/ccJdQ6R8.s:100970  .debug_str:0000000000033e29 .LASF2607
     /tmp/ccJdQ6R8.s:92752  .debug_str:00000000000122e5 .LASF2608
     /tmp/ccJdQ6R8.s:98362  .debug_str:00000000000294df .LASF2609
     /tmp/ccJdQ6R8.s:99810  .debug_str:000000000002f1d3 .LASF2610
     /tmp/ccJdQ6R8.s:89894  .debug_str:0000000000006ca2 .LASF2611
     /tmp/ccJdQ6R8.s:94834  .debug_str:000000000001ab4e .LASF2612
     /tmp/ccJdQ6R8.s:104286  .debug_str:0000000000041482 .LASF2613
     /tmp/ccJdQ6R8.s:92822  .debug_str:000000000001279b .LASF2614
     /tmp/ccJdQ6R8.s:89356  .debug_str:00000000000047a1 .LASF2615
     /tmp/ccJdQ6R8.s:106794  .debug_str:000000000004bbb6 .LASF2616
     /tmp/ccJdQ6R8.s:92380  .debug_str:0000000000010b11 .LASF2617
     /tmp/ccJdQ6R8.s:89762  .debug_str:00000000000062e0 .LASF2618
     /tmp/ccJdQ6R8.s:102842  .debug_str:000000000003b337 .LASF2619
     /tmp/ccJdQ6R8.s:101060  .debug_str:00000000000344db .LASF2620
     /tmp/ccJdQ6R8.s:104058  .debug_str:0000000000040541 .LASF2621
     /tmp/ccJdQ6R8.s:96744  .debug_str:0000000000022e9a .LASF2622
     /tmp/ccJdQ6R8.s:95206  .debug_str:000000000001c536 .LASF2623
     /tmp/ccJdQ6R8.s:93872  .debug_str:0000000000016a47 .LASF2624
     /tmp/ccJdQ6R8.s:105310  .debug_str:00000000000455d8 .LASF2625
     /tmp/ccJdQ6R8.s:104204  .debug_str:0000000000040ea1 .LASF2626
     /tmp/ccJdQ6R8.s:101216  .debug_str:0000000000034ec9 .LASF2627
     /tmp/ccJdQ6R8.s:91306  .debug_str:000000000000cc34 .LASF2628
     /tmp/ccJdQ6R8.s:102448  .debug_str:000000000003983b .LASF2629
     /tmp/ccJdQ6R8.s:101000  .debug_str:0000000000034057 .LASF2630
     /tmp/ccJdQ6R8.s:93096  .debug_str:000000000001399f .LASF2631
     /tmp/ccJdQ6R8.s:90616  .debug_str:0000000000009c8d .LASF2632
     /tmp/ccJdQ6R8.s:103202  .debug_str:000000000003cba1 .LASF2633
     /tmp/ccJdQ6R8.s:101108  .debug_str:00000000000347c6 .LASF2634
     /tmp/ccJdQ6R8.s:89244  .debug_str:0000000000003fae .LASF2635
     /tmp/ccJdQ6R8.s:100086  .debug_str:00000000000303a7 .LASF2636
     /tmp/ccJdQ6R8.s:102444  .debug_str:00000000000397c2 .LASF2637
     /tmp/ccJdQ6R8.s:95880  .debug_str:000000000001f51a .LASF2638
     /tmp/ccJdQ6R8.s:106664  .debug_str:000000000004b21d .LASF2639
     /tmp/ccJdQ6R8.s:94910  .debug_str:000000000001b0cd .LASF2640
     /tmp/ccJdQ6R8.s:106446  .debug_str:000000000004a260 .LASF2641
     /tmp/ccJdQ6R8.s:106868  .debug_str:000000000004c13e .LASF2642
     /tmp/ccJdQ6R8.s:98920  .debug_str:000000000002b85f .LASF2643
     /tmp/ccJdQ6R8.s:92152  .debug_str:000000000000fd56 .LASF2644
     /tmp/ccJdQ6R8.s:101554  .debug_str:00000000000363ee .LASF2645
     /tmp/ccJdQ6R8.s:93374  .debug_str:0000000000014a5a .LASF2646
     /tmp/ccJdQ6R8.s:100972  .debug_str:0000000000033e63 .LASF2647
     /tmp/ccJdQ6R8.s:103332  .debug_str:000000000003d394 .LASF2648
     /tmp/ccJdQ6R8.s:95430  .debug_str:000000000001d509 .LASF2649
     /tmp/ccJdQ6R8.s:104358  .debug_str:00000000000419bd .LASF2650
     /tmp/ccJdQ6R8.s:94944  .debug_str:000000000001b34c .LASF2651
     /tmp/ccJdQ6R8.s:105870  .debug_str:0000000000047b63 .LASF2652
     /tmp/ccJdQ6R8.s:105090  .debug_str:000000000004475b .LASF2653
     /tmp/ccJdQ6R8.s:101260  .debug_str:00000000000351d2 .LASF2654
     /tmp/ccJdQ6R8.s:88584  .debug_str:0000000000001126 .LASF2655
     /tmp/ccJdQ6R8.s:96448  .debug_str:0000000000021abf .LASF2656
     /tmp/ccJdQ6R8.s:102316  .debug_str:0000000000038ef9 .LASF2657
     /tmp/ccJdQ6R8.s:90932  .debug_str:000000000000b267 .LASF2658
     /tmp/ccJdQ6R8.s:89216  .debug_str:0000000000003d94 .LASF2659
     /tmp/ccJdQ6R8.s:105158  .debug_str:0000000000044c97 .LASF2660
     /tmp/ccJdQ6R8.s:104222  .debug_str:0000000000040fc1 .LASF2661
     /tmp/ccJdQ6R8.s:100544  .debug_str:00000000000321fd .LASF2662
     /tmp/ccJdQ6R8.s:88786  .debug_str:0000000000001f17 .LASF2663
     /tmp/ccJdQ6R8.s:95856  .debug_str:000000000001f31f .LASF2664
     /tmp/ccJdQ6R8.s:98270  .debug_str:0000000000028e9b .LASF2665
     /tmp/ccJdQ6R8.s:92028  .debug_str:000000000000f613 .LASF2666
     /tmp/ccJdQ6R8.s:98070  .debug_str:0000000000028229 .LASF2667
     /tmp/ccJdQ6R8.s:90032  .debug_str:000000000000757e .LASF2668
     /tmp/ccJdQ6R8.s:103498  .debug_str:000000000003de7f .LASF2669
     /tmp/ccJdQ6R8.s:101702  .debug_str:0000000000036c93 .LASF2670
     /tmp/ccJdQ6R8.s:103856  .debug_str:000000000003f7c8 .LASF2671
     /tmp/ccJdQ6R8.s:102642  .debug_str:000000000003a5d5 .LASF2672
     /tmp/ccJdQ6R8.s:89864  .debug_str:0000000000006a5e .LASF2673
     /tmp/ccJdQ6R8.s:98226  .debug_str:0000000000028bb7 .LASF2674
     /tmp/ccJdQ6R8.s:95066  .debug_str:000000000001bbca .LASF2675
     /tmp/ccJdQ6R8.s:105156  .debug_str:0000000000044c5d .LASF2676
     /tmp/ccJdQ6R8.s:99208  .debug_str:000000000002ca59 .LASF2677
     /tmp/ccJdQ6R8.s:101638  .debug_str:000000000003691b .LASF2678
     /tmp/ccJdQ6R8.s:105462  .debug_str:0000000000046009 .LASF2679
     /tmp/ccJdQ6R8.s:101462  .debug_str:0000000000035e5a .LASF2680
     /tmp/ccJdQ6R8.s:88780  .debug_str:0000000000001ea7 .LASF2681
     /tmp/ccJdQ6R8.s:105014  .debug_str:000000000004435b .LASF2682
     /tmp/ccJdQ6R8.s:98918  .debug_str:000000000002b824 .LASF2683
     /tmp/ccJdQ6R8.s:95934  .debug_str:000000000001f8ce .LASF2684
     /tmp/ccJdQ6R8.s:90180  .debug_str:0000000000007ed1 .LASF2685
     /tmp/ccJdQ6R8.s:104148  .debug_str:0000000000040a87 .LASF2686
     /tmp/ccJdQ6R8.s:99688  .debug_str:000000000002e9c1 .LASF2687
     /tmp/ccJdQ6R8.s:95568  .debug_str:000000000001dece .LASF2688
     /tmp/ccJdQ6R8.s:93986  .debug_str:00000000000172f8 .LASF2689
     /tmp/ccJdQ6R8.s:93132  .debug_str:0000000000013ba3 .LASF2690
     /tmp/ccJdQ6R8.s:94296  .debug_str:00000000000185f9 .LASF2691
     /tmp/ccJdQ6R8.s:90254  .debug_str:00000000000083c6 .LASF2692
     /tmp/ccJdQ6R8.s:105764  .debug_str:00000000000474a6 .LASF2693
     /tmp/ccJdQ6R8.s:94434  .debug_str:0000000000018f46 .LASF2694
     /tmp/ccJdQ6R8.s:106248  .debug_str:000000000004952a .LASF2695
     /tmp/ccJdQ6R8.s:104536  .debug_str:0000000000042507 .LASF2696
     /tmp/ccJdQ6R8.s:102246  .debug_str:0000000000038a09 .LASF2697
     /tmp/ccJdQ6R8.s:93572  .debug_str:00000000000156ed .LASF2698
     /tmp/ccJdQ6R8.s:92296  .debug_str:000000000001055a .LASF2699
     /tmp/ccJdQ6R8.s:91228  .debug_str:000000000000c6cb .LASF2700
     /tmp/ccJdQ6R8.s:100064  .debug_str:0000000000030248 .LASF2701
     /tmp/ccJdQ6R8.s:97462  .debug_str:00000000000258e3 .LASF2702
     /tmp/ccJdQ6R8.s:97780  .debug_str:0000000000026e23 .LASF2703
     /tmp/ccJdQ6R8.s:106978  .debug_str:000000000004c8a5 .LASF2704
     /tmp/ccJdQ6R8.s:99946  .debug_str:000000000002fade .LASF2705
     /tmp/ccJdQ6R8.s:97312  .debug_str:0000000000024e78 .LASF2706
     /tmp/ccJdQ6R8.s:99626  .debug_str:000000000002e589 .LASF2707
     /tmp/ccJdQ6R8.s:104466  .debug_str:000000000004207e .LASF2708
     /tmp/ccJdQ6R8.s:94710  .debug_str:000000000001a349 .LASF2709
     /tmp/ccJdQ6R8.s:96352  .debug_str:00000000000214bb .LASF2710
     /tmp/ccJdQ6R8.s:105258  .debug_str:0000000000045265 .LASF2711
     /tmp/ccJdQ6R8.s:99566  .debug_str:000000000002e1e8 .LASF2712
     /tmp/ccJdQ6R8.s:107078  .debug_str:000000000004cee3 .LASF2713
     /tmp/ccJdQ6R8.s:107216  .debug_str:000000000004d8ac .LASF2714
     /tmp/ccJdQ6R8.s:97314  .debug_str:0000000000024eb6 .LASF2715
     /tmp/ccJdQ6R8.s:93392  .debug_str:0000000000014b5e .LASF2716
     /tmp/ccJdQ6R8.s:95020  .debug_str:000000000001b8b6 .LASF2717
     /tmp/ccJdQ6R8.s:106950  .debug_str:000000000004c69e .LASF2718
     /tmp/ccJdQ6R8.s:103932  .debug_str:000000000003fc58 .LASF2719
     /tmp/ccJdQ6R8.s:92840  .debug_str:00000000000128b7 .LASF2720
     /tmp/ccJdQ6R8.s:92322  .debug_str:0000000000010778 .LASF2721
     /tmp/ccJdQ6R8.s:102180  .debug_str:0000000000038581 .LASF2722
     /tmp/ccJdQ6R8.s:106472  .debug_str:000000000004a463 .LASF2723
     /tmp/ccJdQ6R8.s:100564  .debug_str:000000000003234a .LASF2724
     /tmp/ccJdQ6R8.s:101898  .debug_str:000000000003770a .LASF2725
     /tmp/ccJdQ6R8.s:101690  .debug_str:0000000000036bc5 .LASF2726
     /tmp/ccJdQ6R8.s:88808  .debug_str:00000000000020df .LASF2727
     /tmp/ccJdQ6R8.s:105126  .debug_str:0000000000044a4c .LASF2728
     /tmp/ccJdQ6R8.s:98294  .debug_str:000000000002904a .LASF2729
     /tmp/ccJdQ6R8.s:95478  .debug_str:000000000001d8b6 .LASF2730
     /tmp/ccJdQ6R8.s:103726  .debug_str:000000000003edf6 .LASF2731
     /tmp/ccJdQ6R8.s:97378  .debug_str:00000000000252f4 .LASF2732
     /tmp/ccJdQ6R8.s:88526  .debug_str:0000000000000d33 .LASF2733
     /tmp/ccJdQ6R8.s:103904  .debug_str:000000000003fad2 .LASF2734
     /tmp/ccJdQ6R8.s:91988  .debug_str:000000000000f3f7 .LASF2735
     /tmp/ccJdQ6R8.s:89628  .debug_str:0000000000005a48 .LASF2736
     /tmp/ccJdQ6R8.s:92412  .debug_str:0000000000010d31 .LASF2737
     /tmp/ccJdQ6R8.s:90840  .debug_str:000000000000ab98 .LASF2738
     /tmp/ccJdQ6R8.s:105724  .debug_str:000000000004722b .LASF2739
     /tmp/ccJdQ6R8.s:102070  .debug_str:0000000000037fdc .LASF2740
     /tmp/ccJdQ6R8.s:89542  .debug_str:000000000000545d .LASF2741
     /tmp/ccJdQ6R8.s:99390  .debug_str:000000000002d56d .LASF2742
     /tmp/ccJdQ6R8.s:102522  .debug_str:0000000000039cd2 .LASF2743
     /tmp/ccJdQ6R8.s:100660  .debug_str:00000000000329af .LASF2744
     /tmp/ccJdQ6R8.s:106220  .debug_str:0000000000049351 .LASF2745
     /tmp/ccJdQ6R8.s:105612  .debug_str:0000000000046a01 .LASF2746
     /tmp/ccJdQ6R8.s:97084  .debug_str:000000000002441b .LASF2747
     /tmp/ccJdQ6R8.s:96988  .debug_str:0000000000023f1f .LASF2748
     /tmp/ccJdQ6R8.s:88606  .debug_str:000000000000128e .LASF2749
     /tmp/ccJdQ6R8.s:95724  .debug_str:000000000001e9b3 .LASF2750
     /tmp/ccJdQ6R8.s:106604  .debug_str:000000000004ace6 .LASF2751
     /tmp/ccJdQ6R8.s:90486  .debug_str:00000000000093d1 .LASF2752
     /tmp/ccJdQ6R8.s:103532  .debug_str:000000000003e098 .LASF2753
     /tmp/ccJdQ6R8.s:98570  .debug_str:000000000002a15e .LASF2754
     /tmp/ccJdQ6R8.s:97912  .debug_str:00000000000276df .LASF2755
     /tmp/ccJdQ6R8.s:92512  .debug_str:000000000001136e .LASF2756
     /tmp/ccJdQ6R8.s:106108  .debug_str:0000000000048b6c .LASF2757
     /tmp/ccJdQ6R8.s:102620  .debug_str:000000000003a408 .LASF2758
     /tmp/ccJdQ6R8.s:103852  .debug_str:000000000003f780 .LASF2759
     /tmp/ccJdQ6R8.s:91616  .debug_str:000000000000df7b .LASF2760
     /tmp/ccJdQ6R8.s:94926  .debug_str:000000000001b1cc .LASF2761
     /tmp/ccJdQ6R8.s:105144  .debug_str:0000000000044b77 .LASF2762
     /tmp/ccJdQ6R8.s:88430  .debug_str:0000000000000710 .LASF2763
     /tmp/ccJdQ6R8.s:101036  .debug_str:000000000003433a .LASF2764
     /tmp/ccJdQ6R8.s:96178  .debug_str:00000000000209c7 .LASF2765
     /tmp/ccJdQ6R8.s:98138  .debug_str:00000000000285e6 .LASF2766
     /tmp/ccJdQ6R8.s:96442  .debug_str:0000000000021a44 .LASF2767
     /tmp/ccJdQ6R8.s:94276  .debug_str:000000000001844e .LASF2768
     /tmp/ccJdQ6R8.s:89108  .debug_str:00000000000035d8 .LASF2769
     /tmp/ccJdQ6R8.s:103334  .debug_str:000000000003d3d4 .LASF2770
     /tmp/ccJdQ6R8.s:101474  .debug_str:0000000000035f4b .LASF2771
     /tmp/ccJdQ6R8.s:94524  .debug_str:0000000000019546 .LASF2772
     /tmp/ccJdQ6R8.s:104006  .debug_str:0000000000040187 .LASF2773
     /tmp/ccJdQ6R8.s:97204  .debug_str:000000000002491b .LASF2774
     /tmp/ccJdQ6R8.s:96124  .debug_str:00000000000205e4 .LASF2775
     /tmp/ccJdQ6R8.s:107202  .debug_str:000000000004d790 .LASF2776
     /tmp/ccJdQ6R8.s:88400  .debug_str:0000000000000501 .LASF2777
     /tmp/ccJdQ6R8.s:104950  .debug_str:0000000000043f69 .LASF2778
     /tmp/ccJdQ6R8.s:97940  .debug_str:000000000002790e .LASF2779
     /tmp/ccJdQ6R8.s:103040  .debug_str:000000000003c0ac .LASF2780
     /tmp/ccJdQ6R8.s:103214  .debug_str:000000000003cc7d .LASF2781
     /tmp/ccJdQ6R8.s:103152  .debug_str:000000000003c85d .LASF2782
     /tmp/ccJdQ6R8.s:105676  .debug_str:0000000000046ec0 .LASF2783
     /tmp/ccJdQ6R8.s:100934  .debug_str:0000000000033b90 .LASF2784
     /tmp/ccJdQ6R8.s:96018  .debug_str:000000000001ff2a .LASF2785
     /tmp/ccJdQ6R8.s:88882  .debug_str:0000000000002638 .LASF2786
     /tmp/ccJdQ6R8.s:105236  .debug_str:00000000000450f3 .LASF2787
     /tmp/ccJdQ6R8.s:99956  .debug_str:000000000002fb6e .LASF2788
     /tmp/ccJdQ6R8.s:99960  .debug_str:000000000002fbc1 .LASF2789
     /tmp/ccJdQ6R8.s:96786  .debug_str:0000000000023126 .LASF2790
     /tmp/ccJdQ6R8.s:103862  .debug_str:000000000003f840 .LASF2791
     /tmp/ccJdQ6R8.s:89810  .debug_str:000000000000665c .LASF2792
     /tmp/ccJdQ6R8.s:93370  .debug_str:00000000000149ea .LASF2793
     /tmp/ccJdQ6R8.s:90278  .debug_str:000000000000854c .LASF2794
     /tmp/ccJdQ6R8.s:99080  .debug_str:000000000002c1be .LASF2795
     /tmp/ccJdQ6R8.s:104910  .debug_str:0000000000043cc0 .LASF2796
     /tmp/ccJdQ6R8.s:103670  .debug_str:000000000003e96b .LASF2797
     /tmp/ccJdQ6R8.s:88446  .debug_str:0000000000000821 .LASF2798
     /tmp/ccJdQ6R8.s:100240  .debug_str:0000000000030deb .LASF2799
     /tmp/ccJdQ6R8.s:90282  .debug_str:0000000000008595 .LASF2800
     /tmp/ccJdQ6R8.s:98796  .debug_str:000000000002b000 .LASF2801
     /tmp/ccJdQ6R8.s:99794  .debug_str:000000000002f0a3 .LASF2802
     /tmp/ccJdQ6R8.s:103322  .debug_str:000000000003d2f1 .LASF2803
     /tmp/ccJdQ6R8.s:101648  .debug_str:0000000000036a1e .LASF2804
     /tmp/ccJdQ6R8.s:89034  .debug_str:000000000000318c .LASF2805
     /tmp/ccJdQ6R8.s:103120  .debug_str:000000000003c646 .LASF2806
     /tmp/ccJdQ6R8.s:102096  .debug_str:00000000000380af .LASF2807
     /tmp/ccJdQ6R8.s:94902  .debug_str:000000000001b02b .LASF2808
     /tmp/ccJdQ6R8.s:93440  .debug_str:0000000000014e17 .LASF2809
     /tmp/ccJdQ6R8.s:101334  .debug_str:000000000003564e .LASF2810
     /tmp/ccJdQ6R8.s:104398  .debug_str:0000000000041c57 .LASF2811
     /tmp/ccJdQ6R8.s:103216  .debug_str:000000000003ccbe .LASF2812
     /tmp/ccJdQ6R8.s:95824  .debug_str:000000000001f070 .LASF2813
     /tmp/ccJdQ6R8.s:104782  .debug_str:00000000000434b9 .LASF2814
     /tmp/ccJdQ6R8.s:106130  .debug_str:0000000000048cf6 .LASF2815
     /tmp/ccJdQ6R8.s:95974  .debug_str:000000000001fca7 .LASF2816
     /tmp/ccJdQ6R8.s:93996  .debug_str:00000000000173c4 .LASF2817
     /tmp/ccJdQ6R8.s:106014  .debug_str:000000000004847e .LASF2818
     /tmp/ccJdQ6R8.s:101972  .debug_str:0000000000037a88 .LASF2819
     /tmp/ccJdQ6R8.s:95088  .debug_str:000000000001bd91 .LASF2820
     /tmp/ccJdQ6R8.s:104520  .debug_str:0000000000042453 .LASF2821
     /tmp/ccJdQ6R8.s:98420  .debug_str:00000000000297e0 .LASF2822
     /tmp/ccJdQ6R8.s:92976  .debug_str:0000000000013204 .LASF2823
     /tmp/ccJdQ6R8.s:98484  .debug_str:0000000000029c28 .LASF2824
     /tmp/ccJdQ6R8.s:105302  .debug_str:000000000004555d .LASF2825
     /tmp/ccJdQ6R8.s:104242  .debug_str:000000000004117e .LASF2826
     /tmp/ccJdQ6R8.s:92590  .debug_str:00000000000118ff .LASF2827
     /tmp/ccJdQ6R8.s:104510  .debug_str:00000000000423b4 .LASF2828
     /tmp/ccJdQ6R8.s:92598  .debug_str:000000000001199b .LASF2829
     /tmp/ccJdQ6R8.s:92702  .debug_str:0000000000012029 .LASF2830
     /tmp/ccJdQ6R8.s:96260  .debug_str:0000000000020fca .LASF2831
     /tmp/ccJdQ6R8.s:104094  .debug_str:0000000000040803 .LASF2832
     /tmp/ccJdQ6R8.s:89544  .debug_str:000000000000549d .LASF2833
     /tmp/ccJdQ6R8.s:106906  .debug_str:000000000004c3f9 .LASF2834
     /tmp/ccJdQ6R8.s:100508  .debug_str:000000000003205a .LASF2835
     /tmp/ccJdQ6R8.s:91174  .debug_str:000000000000c305 .LASF2836
     /tmp/ccJdQ6R8.s:98236  .debug_str:0000000000028c7d .LASF2837
     /tmp/ccJdQ6R8.s:102768  .debug_str:000000000003ae51 .LASF2838
     /tmp/ccJdQ6R8.s:95932  .debug_str:000000000001f892 .LASF2839
     /tmp/ccJdQ6R8.s:88870  .debug_str:0000000000002524 .LASF2840
     /tmp/ccJdQ6R8.s:90190  .debug_str:0000000000007f83 .LASF2841
     /tmp/ccJdQ6R8.s:100074  .debug_str:00000000000302f6 .LASF2842
     /tmp/ccJdQ6R8.s:104392  .debug_str:0000000000041bd7 .LASF2843
     /tmp/ccJdQ6R8.s:102462  .debug_str:0000000000039970 .LASF2844
     /tmp/ccJdQ6R8.s:102458  .debug_str:000000000003992c .LASF2845
     /tmp/ccJdQ6R8.s:99654  .debug_str:000000000002e71b .LASF2846
     /tmp/ccJdQ6R8.s:95074  .debug_str:000000000001bc95 .LASF2847
     /tmp/ccJdQ6R8.s:89842  .debug_str:0000000000006881 .LASF2848
     /tmp/ccJdQ6R8.s:103054  .debug_str:000000000003c1dd .LASF2849
     /tmp/ccJdQ6R8.s:89642  .debug_str:0000000000005b4f .LASF2850
     /tmp/ccJdQ6R8.s:95542  .debug_str:000000000001dd55 .LASF2851
     /tmp/ccJdQ6R8.s:95190  .debug_str:000000000001c41d .LASF2852
     /tmp/ccJdQ6R8.s:92356  .debug_str:0000000000010926 .LASF2853
     /tmp/ccJdQ6R8.s:99158  .debug_str:000000000002c709 .LASF2854
     /tmp/ccJdQ6R8.s:103192  .debug_str:000000000003cae8 .LASF2855
     /tmp/ccJdQ6R8.s:94080  .debug_str:0000000000017877 .LASF2856
     /tmp/ccJdQ6R8.s:98840  .debug_str:000000000002b308 .LASF2857
     /tmp/ccJdQ6R8.s:100300  .debug_str:000000000003125a .LASF2858
     /tmp/ccJdQ6R8.s:96592  .debug_str:0000000000022439 .LASF2859
     /tmp/ccJdQ6R8.s:88708  .debug_str:00000000000019c2 .LASF2860
     /tmp/ccJdQ6R8.s:92228  .debug_str:0000000000010177 .LASF2861
     /tmp/ccJdQ6R8.s:95960  .debug_str:000000000001fb56 .LASF2862
     /tmp/ccJdQ6R8.s:91004  .debug_str:000000000000b7eb .LASF2863
     /tmp/ccJdQ6R8.s:104198  .debug_str:0000000000040e33 .LASF2864
     /tmp/ccJdQ6R8.s:90198  .debug_str:000000000000801c .LASF2865
     /tmp/ccJdQ6R8.s:91144  .debug_str:000000000000c0f3 .LASF2866
     /tmp/ccJdQ6R8.s:94942  .debug_str:000000000001b306 .LASF2867
     /tmp/ccJdQ6R8.s:90590  .debug_str:0000000000009a93 .LASF2868
     /tmp/ccJdQ6R8.s:103188  .debug_str:000000000003ca8a .LASF2869
     /tmp/ccJdQ6R8.s:93186  .debug_str:0000000000013ed2 .LASF2870
     /tmp/ccJdQ6R8.s:92498  .debug_str:000000000001126b .LASF2871
     /tmp/ccJdQ6R8.s:97760  .debug_str:0000000000026cad .LASF2872
     /tmp/ccJdQ6R8.s:90174  .debug_str:0000000000007e3d .LASF2873
     /tmp/ccJdQ6R8.s:89124  .debug_str:000000000000373c .LASF2874
     /tmp/ccJdQ6R8.s:100926  .debug_str:0000000000033b0d .LASF2875
     /tmp/ccJdQ6R8.s:99576  .debug_str:000000000002e296 .LASF2876
     /tmp/ccJdQ6R8.s:106788  .debug_str:000000000004bb51 .LASF2877
     /tmp/ccJdQ6R8.s:107156  .debug_str:000000000004d466 .LASF2878
     /tmp/ccJdQ6R8.s:94774  .debug_str:000000000001a795 .LASF2879
     /tmp/ccJdQ6R8.s:89848  .debug_str:000000000000690b .LASF2880
     /tmp/ccJdQ6R8.s:104062  .debug_str:000000000004059a .LASF2881
     /tmp/ccJdQ6R8.s:90358  .debug_str:0000000000008af5 .LASF2882
     /tmp/ccJdQ6R8.s:106672  .debug_str:000000000004b2e6 .LASF2883
     /tmp/ccJdQ6R8.s:90800  .debug_str:000000000000a8af .LASF2884
     /tmp/ccJdQ6R8.s:102924  .debug_str:000000000003b883 .LASF2885
     /tmp/ccJdQ6R8.s:98012  .debug_str:0000000000027db6 .LASF2886
     /tmp/ccJdQ6R8.s:92854  .debug_str:00000000000129fa .LASF2887
     /tmp/ccJdQ6R8.s:104016  .debug_str:000000000004024b .LASF2888
     /tmp/ccJdQ6R8.s:102452  .debug_str:0000000000039892 .LASF2889
     /tmp/ccJdQ6R8.s:97512  .debug_str:0000000000025c34 .LASF2890
     /tmp/ccJdQ6R8.s:100954  .debug_str:0000000000033cec .LASF2891
     /tmp/ccJdQ6R8.s:105002  .debug_str:00000000000442c6 .LASF2892
     /tmp/ccJdQ6R8.s:102668  .debug_str:000000000003a7a9 .LASF2893
     /tmp/ccJdQ6R8.s:89870  .debug_str:0000000000006ad4 .LASF2894
     /tmp/ccJdQ6R8.s:105536  .debug_str:00000000000464bd .LASF2895
     /tmp/ccJdQ6R8.s:102720  .debug_str:000000000003ab7b .LASF2896
     /tmp/ccJdQ6R8.s:93908  .debug_str:0000000000016d04 .LASF2897
     /tmp/ccJdQ6R8.s:95502  .debug_str:000000000001da49 .LASF2898
     /tmp/ccJdQ6R8.s:90672  .debug_str:0000000000009fb2 .LASF2899
     /tmp/ccJdQ6R8.s:93188  .debug_str:0000000000013f10 .LASF2900
     /tmp/ccJdQ6R8.s:93446  .debug_str:0000000000014ea6 .LASF2901
     /tmp/ccJdQ6R8.s:91278  .debug_str:000000000000ca11 .LASF2902
     /tmp/ccJdQ6R8.s:103742  .debug_str:000000000003eeee .LASF2903
     /tmp/ccJdQ6R8.s:106614  .debug_str:000000000004ada5 .LASF2904
     /tmp/ccJdQ6R8.s:94016  .debug_str:00000000000174ad .LASF2905
     /tmp/ccJdQ6R8.s:106104  .debug_str:0000000000048b1e .LASF2906
     /tmp/ccJdQ6R8.s:88796  .debug_str:0000000000002007 .LASF2907
     /tmp/ccJdQ6R8.s:92542  .debug_str:0000000000011573 .LASF2908
     /tmp/ccJdQ6R8.s:100250  .debug_str:0000000000030f03 .LASF2909
     /tmp/ccJdQ6R8.s:105860  .debug_str:0000000000047a93 .LASF2910
     /tmp/ccJdQ6R8.s:97898  .debug_str:00000000000275c9 .LASF2911
     /tmp/ccJdQ6R8.s:103798  .debug_str:000000000003f30a .LASF2912
     /tmp/ccJdQ6R8.s:100514  .debug_str:00000000000320d7 .LASF2913
     /tmp/ccJdQ6R8.s:89386  .debug_str:00000000000049a1 .LASF2914
     /tmp/ccJdQ6R8.s:92304  .debug_str:0000000000010606 .LASF2915
     /tmp/ccJdQ6R8.s:95814  .debug_str:000000000001efa3 .LASF2916
     /tmp/ccJdQ6R8.s:94574  .debug_str:0000000000019922 .LASF2917
     /tmp/ccJdQ6R8.s:106740  .debug_str:000000000004b85a .LASF2918
     /tmp/ccJdQ6R8.s:95232  .debug_str:000000000001c728 .LASF2919
     /tmp/ccJdQ6R8.s:102260  .debug_str:0000000000038b26 .LASF2920
     /tmp/ccJdQ6R8.s:95516  .debug_str:000000000001db36 .LASF2921
     /tmp/ccJdQ6R8.s:90728  .debug_str:000000000000a3d0 .LASF2922
     /tmp/ccJdQ6R8.s:96258  .debug_str:0000000000020f7e .LASF2923
     /tmp/ccJdQ6R8.s:101478  .debug_str:0000000000035fb6 .LASF2924
     /tmp/ccJdQ6R8.s:99544  .debug_str:000000000002e02a .LASF2925
     /tmp/ccJdQ6R8.s:102792  .debug_str:000000000003afdc .LASF2926
     /tmp/ccJdQ6R8.s:106510  .debug_str:000000000004a738 .LASF2927
     /tmp/ccJdQ6R8.s:103442  .debug_str:000000000003dadc .LASF2928
     /tmp/ccJdQ6R8.s:101642  .debug_str:0000000000036964 .LASF2929
     /tmp/ccJdQ6R8.s:94648  .debug_str:0000000000019eac .LASF2930
     /tmp/ccJdQ6R8.s:95654  .debug_str:000000000001e466 .LASF2931
     /tmp/ccJdQ6R8.s:104770  .debug_str:00000000000433d2 .LASF2932
     /tmp/ccJdQ6R8.s:91422  .debug_str:000000000000d3b0 .LASF2933
     /tmp/ccJdQ6R8.s:102676  .debug_str:000000000003a84a .LASF2934
     /tmp/ccJdQ6R8.s:101962  .debug_str:00000000000379f1 .LASF2935
     /tmp/ccJdQ6R8.s:93812  .debug_str:0000000000016672 .LASF2936
     /tmp/ccJdQ6R8.s:93308  .debug_str:00000000000145f0 .LASF2937
     /tmp/ccJdQ6R8.s:100400  .debug_str:0000000000031942 .LASF2938
     /tmp/ccJdQ6R8.s:103646  .debug_str:000000000003e784 .LASF2939
     /tmp/ccJdQ6R8.s:95098  .debug_str:000000000001be59 .LASF2940
     /tmp/ccJdQ6R8.s:102680  .debug_str:000000000003a896 .LASF2941
     /tmp/ccJdQ6R8.s:103052  .debug_str:000000000003c19a .LASF2942
     /tmp/ccJdQ6R8.s:95008  .debug_str:000000000001b7e9 .LASF2943
     /tmp/ccJdQ6R8.s:103778  .debug_str:000000000003f17a .LASF2944
     /tmp/ccJdQ6R8.s:105422  .debug_str:0000000000045d95 .LASF2945
     /tmp/ccJdQ6R8.s:99530  .debug_str:000000000002df2a .LASF2946
     /tmp/ccJdQ6R8.s:93452  .debug_str:0000000000014f30 .LASF2947
     /tmp/ccJdQ6R8.s:90062  .debug_str:000000000000772b .LASF2948
     /tmp/ccJdQ6R8.s:99598  .debug_str:000000000002e3be .LASF2949
     /tmp/ccJdQ6R8.s:91132  .debug_str:000000000000bffd .LASF2950
     /tmp/ccJdQ6R8.s:103082  .debug_str:000000000003c3bd .LASF2951
     /tmp/ccJdQ6R8.s:98040  .debug_str:0000000000028008 .LASF2952
     /tmp/ccJdQ6R8.s:104192  .debug_str:0000000000040d91 .LASF2953
     /tmp/ccJdQ6R8.s:92954  .debug_str:0000000000013082 .LASF2954
     /tmp/ccJdQ6R8.s:104246  .debug_str:00000000000411da .LASF2955
     /tmp/ccJdQ6R8.s:96844  .debug_str:000000000002355c .LASF2956
     /tmp/ccJdQ6R8.s:105312  .debug_str:000000000004561b .LASF2957
     /tmp/ccJdQ6R8.s:101766  .debug_str:0000000000036fbb .LASF2958
     /tmp/ccJdQ6R8.s:98558  .debug_str:000000000002a089 .LASF2959
     /tmp/ccJdQ6R8.s:99614  .debug_str:000000000002e4ca .LASF2960
     /tmp/ccJdQ6R8.s:106946  .debug_str:000000000004c62d .LASF2961
     /tmp/ccJdQ6R8.s:89804  .debug_str:00000000000065df .LASF2962
     /tmp/ccJdQ6R8.s:100802  .debug_str:0000000000033346 .LASF2963
     /tmp/ccJdQ6R8.s:105434  .debug_str:0000000000045e6b .LASF2964
     /tmp/ccJdQ6R8.s:95954  .debug_str:000000000001fab9 .LASF2965
     /tmp/ccJdQ6R8.s:95620  .debug_str:000000000001e1f0 .LASF2966
     /tmp/ccJdQ6R8.s:104790  .debug_str:0000000000043553 .LASF2967
     /tmp/ccJdQ6R8.s:90324  .debug_str:0000000000008875 .LASF2968
     /tmp/ccJdQ6R8.s:101928  .debug_str:00000000000377e7 .LASF2969
     /tmp/ccJdQ6R8.s:95332  .debug_str:000000000001cddd .LASF2970
     /tmp/ccJdQ6R8.s:92312  .debug_str:00000000000106be .LASF2971
     /tmp/ccJdQ6R8.s:102796  .debug_str:000000000003b035 .LASF2972
     /tmp/ccJdQ6R8.s:93624  .debug_str:00000000000159c4 .LASF2973
     /tmp/ccJdQ6R8.s:106726  .debug_str:000000000004b770 .LASF2974
     /tmp/ccJdQ6R8.s:98650  .debug_str:000000000002a738 .LASF2975
     /tmp/ccJdQ6R8.s:91990  .debug_str:000000000000f42e .LASF2976
     /tmp/ccJdQ6R8.s:99466  .debug_str:000000000002da55 .LASF2977
     /tmp/ccJdQ6R8.s:96980  .debug_str:0000000000023e43 .LASF2978
     /tmp/ccJdQ6R8.s:89814  .debug_str:00000000000066bd .LASF2979
     /tmp/ccJdQ6R8.s:94582  .debug_str:00000000000199e2 .LASF2980
     /tmp/ccJdQ6R8.s:94642  .debug_str:0000000000019e42 .LASF2981
     /tmp/ccJdQ6R8.s:94904  .debug_str:000000000001b06e .LASF2982
     /tmp/ccJdQ6R8.s:99342  .debug_str:000000000002d2d9 .LASF2983
     /tmp/ccJdQ6R8.s:90482  .debug_str:0000000000009340 .LASF2984
     /tmp/ccJdQ6R8.s:102536  .debug_str:0000000000039d8b .LASF2985
     /tmp/ccJdQ6R8.s:89852  .debug_str:0000000000006984 .LASF2986
     /tmp/ccJdQ6R8.s:96322  .debug_str:0000000000021306 .LASF2987
     /tmp/ccJdQ6R8.s:99672  .debug_str:000000000002e87a .LASF2988
     /tmp/ccJdQ6R8.s:93514  .debug_str:00000000000153c3 .LASF2989
     /tmp/ccJdQ6R8.s:90910  .debug_str:000000000000b09e .LASF2990
     /tmp/ccJdQ6R8.s:103614  .debug_str:000000000003e5e4 .LASF2991
     /tmp/ccJdQ6R8.s:90284  .debug_str:00000000000085d6 .LASF2992
     /tmp/ccJdQ6R8.s:94816  .debug_str:000000000001aa66 .LASF2993
     /tmp/ccJdQ6R8.s:104280  .debug_str:00000000000413dd .LASF2994
     /tmp/ccJdQ6R8.s:100462  .debug_str:0000000000031d58 .LASF2995
     /tmp/ccJdQ6R8.s:95708  .debug_str:000000000001e8a5 .LASF2996
     /tmp/ccJdQ6R8.s:105238  .debug_str:0000000000045134 .LASF2997
     /tmp/ccJdQ6R8.s:97508  .debug_str:0000000000025be2 .LASF2998
     /tmp/ccJdQ6R8.s:101776  .debug_str:0000000000037098 .LASF2999
     /tmp/ccJdQ6R8.s:97672  .debug_str:0000000000026658 .LASF3000
     /tmp/ccJdQ6R8.s:92892  .debug_str:0000000000012ce9 .LASF3001
     /tmp/ccJdQ6R8.s:96612  .debug_str:00000000000225c7 .LASF3002
     /tmp/ccJdQ6R8.s:100912  .debug_str:0000000000033a27 .LASF3003
     /tmp/ccJdQ6R8.s:88988  .debug_str:0000000000002e68 .LASF3004
     /tmp/ccJdQ6R8.s:100960  .debug_str:0000000000033d60 .LASF3005
     /tmp/ccJdQ6R8.s:88466  .debug_str:0000000000000974 .LASF3006
     /tmp/ccJdQ6R8.s:95878  .debug_str:000000000001f4d3 .LASF3007
     /tmp/ccJdQ6R8.s:103046  .debug_str:000000000003c113 .LASF3008
     /tmp/ccJdQ6R8.s:89678  .debug_str:0000000000005d8c .LASF3009
     /tmp/ccJdQ6R8.s:94990  .debug_str:000000000001b649 .LASF3010
     /tmp/ccJdQ6R8.s:95244  .debug_str:000000000001c7f6 .LASF3011
     /tmp/ccJdQ6R8.s:89522  .debug_str:00000000000052dc .LASF3012
     /tmp/ccJdQ6R8.s:94282  .debug_str:00000000000184d2 .LASF3013
     /tmp/ccJdQ6R8.s:100062  .debug_str:0000000000030205 .LASF3014
     /tmp/ccJdQ6R8.s:103212  .debug_str:000000000003cc32 .LASF3015
     /tmp/ccJdQ6R8.s:94978  .debug_str:000000000001b588 .LASF3016
     /tmp/ccJdQ6R8.s:99498  .debug_str:000000000002dc8c .LASF3017
     /tmp/ccJdQ6R8.s:94094  .debug_str:00000000000179ac .LASF3018
     /tmp/ccJdQ6R8.s:105634  .debug_str:0000000000046ba3 .LASF3019
     /tmp/ccJdQ6R8.s:106370  .debug_str:0000000000049d6a .LASF3020
     /tmp/ccJdQ6R8.s:97678  .debug_str:00000000000266d4 .LASF3021
     /tmp/ccJdQ6R8.s:98048  .debug_str:00000000000280c5 .LASF3022
     /tmp/ccJdQ6R8.s:90674  .debug_str:0000000000009ff9 .LASF3023
     /tmp/ccJdQ6R8.s:106146  .debug_str:0000000000048e15 .LASF3024
     /tmp/ccJdQ6R8.s:107082  .debug_str:000000000004cf40 .LASF3025
     /tmp/ccJdQ6R8.s:101564  .debug_str:00000000000364e5 .LASF3026
     /tmp/ccJdQ6R8.s:100258  .debug_str:0000000000030f9b .LASF3027
     /tmp/ccJdQ6R8.s:96702  .debug_str:0000000000022c16 .LASF3028
     /tmp/ccJdQ6R8.s:102216  .debug_str:0000000000038811 .LASF3029
     /tmp/ccJdQ6R8.s:101556  .debug_str:000000000003642c .LASF3030
     /tmp/ccJdQ6R8.s:92394  .debug_str:0000000000010bdb .LASF3031
     /tmp/ccJdQ6R8.s:89936  .debug_str:0000000000006f6e .LASF3032
     /tmp/ccJdQ6R8.s:92186  .debug_str:000000000000fed4 .LASF3033
     /tmp/ccJdQ6R8.s:102570  .debug_str:000000000003a049 .LASF3034
     /tmp/ccJdQ6R8.s:99410  .debug_str:000000000002d710 .LASF3035
     /tmp/ccJdQ6R8.s:88756  .debug_str:0000000000001ceb .LASF3036
     /tmp/ccJdQ6R8.s:94306  .debug_str:0000000000018693 .LASF3037
     /tmp/ccJdQ6R8.s:92760  .debug_str:000000000001235b .LASF3038
     /tmp/ccJdQ6R8.s:99526  .debug_str:000000000002deb2 .LASF3039
     /tmp/ccJdQ6R8.s:90216  .debug_str:0000000000008176 .LASF3040
     /tmp/ccJdQ6R8.s:104314  .debug_str:00000000000416b5 .LASF3041
     /tmp/ccJdQ6R8.s:103366  .debug_str:000000000003d625 .LASF3042
     /tmp/ccJdQ6R8.s:104716  .debug_str:00000000000430cb .LASF3043
     /tmp/ccJdQ6R8.s:100474  .debug_str:0000000000031e1e .LASF3044
     /tmp/ccJdQ6R8.s:96184  .debug_str:0000000000020a42 .LASF3045
     /tmp/ccJdQ6R8.s:96088  .debug_str:0000000000020338 .LASF3046
     /tmp/ccJdQ6R8.s:90466  .debug_str:00000000000091ef .LASF3047
     /tmp/ccJdQ6R8.s:89582  .debug_str:00000000000057ae .LASF3048
     /tmp/ccJdQ6R8.s:103828  .debug_str:000000000003f590 .LASF3049
     /tmp/ccJdQ6R8.s:105274  .debug_str:000000000004537b .LASF3050
     /tmp/ccJdQ6R8.s:95270  .debug_str:000000000001c99a .LASF3051
     /tmp/ccJdQ6R8.s:93684  .debug_str:0000000000015db2 .LASF3052
     /tmp/ccJdQ6R8.s:105628  .debug_str:0000000000046b2d .LASF3053
     /tmp/ccJdQ6R8.s:103774  .debug_str:000000000003f115 .LASF3054
     /tmp/ccJdQ6R8.s:98310  .debug_str:0000000000029135 .LASF3055
     /tmp/ccJdQ6R8.s:102018  .debug_str:0000000000037c88 .LASF3056
     /tmp/ccJdQ6R8.s:89620  .debug_str:00000000000059df .LASF3057
     /tmp/ccJdQ6R8.s:89196  .debug_str:0000000000003c0a .LASF3058
     /tmp/ccJdQ6R8.s:103408  .debug_str:000000000003d8ab .LASF3059
     /tmp/ccJdQ6R8.s:99432  .debug_str:000000000002d85c .LASF3060
     /tmp/ccJdQ6R8.s:91344  .debug_str:000000000000ce9c .LASF3061
     /tmp/ccJdQ6R8.s:90416  .debug_str:0000000000008eeb .LASF3062
     /tmp/ccJdQ6R8.s:90314  .debug_str:000000000000879d .LASF3063
     /tmp/ccJdQ6R8.s:104390  .debug_str:0000000000041b94 .LASF3064
     /tmp/ccJdQ6R8.s:100618  .debug_str:000000000003271b .LASF3065
     /tmp/ccJdQ6R8.s:98230  .debug_str:0000000000028c06 .LASF3066
     /tmp/ccJdQ6R8.s:94876  .debug_str:000000000001ae1e .LASF3067
     /tmp/ccJdQ6R8.s:92190  .debug_str:000000000000ff20 .LASF3068
     /tmp/ccJdQ6R8.s:103298  .debug_str:000000000003d153 .LASF3069
     /tmp/ccJdQ6R8.s:95962  .debug_str:000000000001fb9f .LASF3070
     /tmp/ccJdQ6R8.s:90340  .debug_str:00000000000089b6 .LASF3071
     /tmp/ccJdQ6R8.s:95072  .debug_str:000000000001bc54 .LASF3072
     /tmp/ccJdQ6R8.s:95188  .debug_str:000000000001c3e1 .LASF3073
     /tmp/ccJdQ6R8.s:101446  .debug_str:0000000000035d1f .LASF3074
     /tmp/ccJdQ6R8.s:93590  .debug_str:00000000000157c0 .LASF3075
     /tmp/ccJdQ6R8.s:103902  .debug_str:000000000003fa87 .LASF3076
     /tmp/ccJdQ6R8.s:104916  .debug_str:0000000000043d29 .LASF3077
     /tmp/ccJdQ6R8.s:102638  .debug_str:000000000003a565 .LASF3078
     /tmp/ccJdQ6R8.s:105840  .debug_str:0000000000047927 .LASF3079
     /tmp/ccJdQ6R8.s:102296  .debug_str:0000000000038da5 .LASF3080
     /tmp/ccJdQ6R8.s:101228  .debug_str:0000000000034fd0 .LASF3081
     /tmp/ccJdQ6R8.s:92472  .debug_str:0000000000011056 .LASF3082
     /tmp/ccJdQ6R8.s:96412  .debug_str:00000000000218b4 .LASF3083
     /tmp/ccJdQ6R8.s:101808  .debug_str:000000000003728b .LASF3084
     /tmp/ccJdQ6R8.s:92662  .debug_str:0000000000011de1 .LASF3085
     /tmp/ccJdQ6R8.s:90332  .debug_str:0000000000008904 .LASF3086
     /tmp/ccJdQ6R8.s:106964  .debug_str:000000000004c787 .LASF3087
     /tmp/ccJdQ6R8.s:101936  .debug_str:0000000000037860 .LASF3088
     /tmp/ccJdQ6R8.s:102390  .debug_str:00000000000393ea .LASF3089
     /tmp/ccJdQ6R8.s:94370  .debug_str:0000000000018add .LASF3090
     /tmp/ccJdQ6R8.s:97494  .debug_str:0000000000025af0 .LASF3091
     /tmp/ccJdQ6R8.s:89496  .debug_str:00000000000050b3 .LASF3092
     /tmp/ccJdQ6R8.s:102546  .debug_str:0000000000039e5b .LASF3093
     /tmp/ccJdQ6R8.s:89316  .debug_str:00000000000044a2 .LASF3094
     /tmp/ccJdQ6R8.s:104996  .debug_str:0000000000044238 .LASF3095
     /tmp/ccJdQ6R8.s:97446  .debug_str:0000000000025774 .LASF3096
     /tmp/ccJdQ6R8.s:97936  .debug_str:00000000000278c2 .LASF3097
     /tmp/ccJdQ6R8.s:103036  .debug_str:000000000003c03c .LASF3098
     /tmp/ccJdQ6R8.s:91148  .debug_str:000000000000c151 .LASF3099
     /tmp/ccJdQ6R8.s:91206  .debug_str:000000000000c53f .LASF3100
     /tmp/ccJdQ6R8.s:105740  .debug_str:0000000000047317 .LASF3101
     /tmp/ccJdQ6R8.s:106756  .debug_str:000000000004b969 .LASF3102
     /tmp/ccJdQ6R8.s:103446  .debug_str:000000000003db49 .LASF3103
     /tmp/ccJdQ6R8.s:93020  .debug_str:000000000001349a .LASF3104
     /tmp/ccJdQ6R8.s:93646  .debug_str:0000000000015b77 .LASF3105
     /tmp/ccJdQ6R8.s:101572  .debug_str:0000000000036570 .LASF3106
     /tmp/ccJdQ6R8.s:104920  .debug_str:0000000000043da3 .LASF3107
     /tmp/ccJdQ6R8.s:103556  .debug_str:000000000003e1f0 .LASF3108
     /tmp/ccJdQ6R8.s:106536  .debug_str:000000000004a8df .LASF3109
     /tmp/ccJdQ6R8.s:88984  .debug_str:0000000000002e14 .LASF3110
     /tmp/ccJdQ6R8.s:102292  .debug_str:0000000000038d55 .LASF3111
     /tmp/ccJdQ6R8.s:99442  .debug_str:000000000002d906 .LASF3112
     /tmp/ccJdQ6R8.s:102876  .debug_str:000000000003b5a5 .LASF3113
     /tmp/ccJdQ6R8.s:90682  .debug_str:000000000000a0a2 .LASF3114
     /tmp/ccJdQ6R8.s:93850  .debug_str:00000000000168ee .LASF3115
     /tmp/ccJdQ6R8.s:103974  .debug_str:000000000003ff41 .LASF3116
     /tmp/ccJdQ6R8.s:95700  .debug_str:000000000001e82d .LASF3117
     /tmp/ccJdQ6R8.s:102494  .debug_str:0000000000039b4b .LASF3118
     /tmp/ccJdQ6R8.s:105790  .debug_str:0000000000047658 .LASF3119
     /tmp/ccJdQ6R8.s:93848  .debug_str:00000000000168b3 .LASF3120
     /tmp/ccJdQ6R8.s:96968  .debug_str:0000000000023d87 .LASF3121
     /tmp/ccJdQ6R8.s:104174  .debug_str:0000000000040c1c .LASF3122
     /tmp/ccJdQ6R8.s:107100  .debug_str:000000000004d08b .LASF3123
     /tmp/ccJdQ6R8.s:104712  .debug_str:0000000000043071 .LASF3124
     /tmp/ccJdQ6R8.s:96166  .debug_str:00000000000208e4 .LASF3125
     /tmp/ccJdQ6R8.s:94954  .debug_str:000000000001b410 .LASF3126
     /tmp/ccJdQ6R8.s:101120  .debug_str:000000000003489b .LASF3127
     /tmp/ccJdQ6R8.s:88398  .debug_str:00000000000004c2 .LASF3128
     /tmp/ccJdQ6R8.s:100890  .debug_str:000000000003387e .LASF3129
     /tmp/ccJdQ6R8.s:98686  .debug_str:000000000002a8e2 .LASF3130
     /tmp/ccJdQ6R8.s:99084  .debug_str:000000000002c20e .LASF3131
     /tmp/ccJdQ6R8.s:104866  .debug_str:00000000000439cd .LASF3132
     /tmp/ccJdQ6R8.s:102490  .debug_str:0000000000039af8 .LASF3133
     /tmp/ccJdQ6R8.s:100668  .debug_str:0000000000032a40 .LASF3134
     /tmp/ccJdQ6R8.s:89440  .debug_str:0000000000004d32 .LASF3135
     /tmp/ccJdQ6R8.s:106714  .debug_str:000000000004b676 .LASF3136
     /tmp/ccJdQ6R8.s:92634  .debug_str:0000000000011c2e .LASF3137
     /tmp/ccJdQ6R8.s:100068  .debug_str:0000000000030293 .LASF3138
     /tmp/ccJdQ6R8.s:94172  .debug_str:0000000000017eb0 .LASF3139
     /tmp/ccJdQ6R8.s:106142  .debug_str:0000000000048dc6 .LASF3140
     /tmp/ccJdQ6R8.s:93708  .debug_str:0000000000015f73 .LASF3141
     /tmp/ccJdQ6R8.s:99262  .debug_str:000000000002ce55 .LASF3142
     /tmp/ccJdQ6R8.s:105152  .debug_str:0000000000044bf8 .LASF3143
     /tmp/ccJdQ6R8.s:101030  .debug_str:00000000000342b9 .LASF3144
     /tmp/ccJdQ6R8.s:97680  .debug_str:000000000002671b .LASF3145
     /tmp/ccJdQ6R8.s:98326  .debug_str:000000000002926a .LASF3146
     /tmp/ccJdQ6R8.s:96790  .debug_str:000000000002318b .LASF3147
     /tmp/ccJdQ6R8.s:93456  .debug_str:0000000000014f87 .LASF3148
     /tmp/ccJdQ6R8.s:106006  .debug_str:00000000000483e4 .LASF3149
     /tmp/ccJdQ6R8.s:88772  .debug_str:0000000000001e04 .LASF3150
     /tmp/ccJdQ6R8.s:96378  .debug_str:00000000000216ec .LASF3151
     /tmp/ccJdQ6R8.s:103062  .debug_str:000000000003c26b .LASF3152
     /tmp/ccJdQ6R8.s:105598  .debug_str:0000000000046902 .LASF3153
     /tmp/ccJdQ6R8.s:89990  .debug_str:00000000000072b8 .LASF3154
     /tmp/ccJdQ6R8.s:105578  .debug_str:0000000000046793 .LASF3155
     /tmp/ccJdQ6R8.s:101250  .debug_str:0000000000035128 .LASF3156
     /tmp/ccJdQ6R8.s:93878  .debug_str:0000000000016aeb .LASF3157
     /tmp/ccJdQ6R8.s:91258  .debug_str:000000000000c874 .LASF3158
     /tmp/ccJdQ6R8.s:98200  .debug_str:00000000000289fd .LASF3159
     /tmp/ccJdQ6R8.s:89692  .debug_str:0000000000005e7f .LASF3160
     /tmp/ccJdQ6R8.s:104496  .debug_str:000000000004228c .LASF3161
     /tmp/ccJdQ6R8.s:104234  .debug_str:00000000000410ca .LASF3162
     /tmp/ccJdQ6R8.s:90334  .debug_str:0000000000008948 .LASF3163
     /tmp/ccJdQ6R8.s:102170  .debug_str:00000000000384ad .LASF3164
     /tmp/ccJdQ6R8.s:91952  .debug_str:000000000000f11a .LASF3165
     /tmp/ccJdQ6R8.s:90656  .debug_str:0000000000009e86 .LASF3166
     /tmp/ccJdQ6R8.s:107076  .debug_str:000000000004ce97 .LASF3167
     /tmp/ccJdQ6R8.s:94406  .debug_str:0000000000018d6c .LASF3168
     /tmp/ccJdQ6R8.s:91886  .debug_str:000000000000ed3e .LASF3169
     /tmp/ccJdQ6R8.s:88770  .debug_str:0000000000001ddb .LASF3170
     /tmp/ccJdQ6R8.s:89850  .debug_str:0000000000006946 .LASF3171
     /tmp/ccJdQ6R8.s:102334  .debug_str:0000000000039067 .LASF3172
     /tmp/ccJdQ6R8.s:100800  .debug_str:0000000000033308 .LASF3173
     /tmp/ccJdQ6R8.s:93414  .debug_str:0000000000014cb6 .LASF3174
     /tmp/ccJdQ6R8.s:92658  .debug_str:0000000000011d76 .LASF3175
     /tmp/ccJdQ6R8.s:103998  .debug_str:00000000000400d1 .LASF3176
     /tmp/ccJdQ6R8.s:106590  .debug_str:000000000004abcd .LASF3177
     /tmp/ccJdQ6R8.s:90976  .debug_str:000000000000b5e8 .LASF3178
     /tmp/ccJdQ6R8.s:99606  .debug_str:000000000002e43d .LASF3179
     /tmp/ccJdQ6R8.s:104176  .debug_str:0000000000040c57 .LASF3180
     /tmp/ccJdQ6R8.s:102314  .debug_str:0000000000038ebe .LASF3181
     /tmp/ccJdQ6R8.s:95356  .debug_str:000000000001cfd1 .LASF3182
     /tmp/ccJdQ6R8.s:93640  .debug_str:0000000000015ae2 .LASF3183
     /tmp/ccJdQ6R8.s:88402  .debug_str:0000000000000545 .LASF3184
     /tmp/ccJdQ6R8.s:92584  .debug_str:000000000001188b .LASF3185
     /tmp/ccJdQ6R8.s:94520  .debug_str:00000000000194ea .LASF3186
     /tmp/ccJdQ6R8.s:101074  .debug_str:00000000000345ba .LASF3187
     /tmp/ccJdQ6R8.s:94454  .debug_str:00000000000190bd .LASF3188
     /tmp/ccJdQ6R8.s:89474  .debug_str:0000000000004f5f .LASF3189
     /tmp/ccJdQ6R8.s:88396  .debug_str:000000000000047b .LASF3190
     /tmp/ccJdQ6R8.s:103738  .debug_str:000000000003ee9a .LASF3191
     /tmp/ccJdQ6R8.s:97390  .debug_str:0000000000025396 .LASF3192
     /tmp/ccJdQ6R8.s:88936  .debug_str:0000000000002a64 .LASF3193
     /tmp/ccJdQ6R8.s:94748  .debug_str:000000000001a5f5 .LASF3194
     /tmp/ccJdQ6R8.s:92528  .debug_str:0000000000011479 .LASF3195
     /tmp/ccJdQ6R8.s:93694  .debug_str:0000000000015e45 .LASF3196
     /tmp/ccJdQ6R8.s:95660  .debug_str:000000000001e4f5 .LASF3197
     /tmp/ccJdQ6R8.s:93294  .debug_str:00000000000144ed .LASF3198
     /tmp/ccJdQ6R8.s:88350  .debug_str:0000000000000161 .LASF3199
     /tmp/ccJdQ6R8.s:96344  .debug_str:000000000002140e .LASF3200
     /tmp/ccJdQ6R8.s:88670  .debug_str:0000000000001701 .LASF3201
     /tmp/ccJdQ6R8.s:96914  .debug_str:0000000000023a57 .LASF3202
     /tmp/ccJdQ6R8.s:102558  .debug_str:0000000000039f42 .LASF3203
     /tmp/ccJdQ6R8.s:88472  .debug_str:0000000000000a03 .LASF3204
     /tmp/ccJdQ6R8.s:102802  .debug_str:000000000003b0d7 .LASF3205
     /tmp/ccJdQ6R8.s:100938  .debug_str:0000000000033bdf .LASF3206
     /tmp/ccJdQ6R8.s:89978  .debug_str:00000000000071bc .LASF3207
     /tmp/ccJdQ6R8.s:89822  .debug_str:0000000000006763 .LASF3208
     /tmp/ccJdQ6R8.s:104330  .debug_str:0000000000041806 .LASF3209
     /tmp/ccJdQ6R8.s:95952  .debug_str:000000000001fa75 .LASF3210
     /tmp/ccJdQ6R8.s:99732  .debug_str:000000000002ec53 .LASF3211
     /tmp/ccJdQ6R8.s:97808  .debug_str:0000000000027024 .LASF3212
     /tmp/ccJdQ6R8.s:94868  .debug_str:000000000001ad76 .LASF3213
     /tmp/ccJdQ6R8.s:107030  .debug_str:000000000004cbdc .LASF3214
     /tmp/ccJdQ6R8.s:90224  .debug_str:0000000000008210 .LASF3215
     /tmp/ccJdQ6R8.s:107006  .debug_str:000000000004ca6d .LASF3216
     /tmp/ccJdQ6R8.s:106150  .debug_str:0000000000048e69 .LASF3217
     /tmp/ccJdQ6R8.s:95400  .debug_str:000000000001d2ce .LASF3218
     /tmp/ccJdQ6R8.s:91292  .debug_str:000000000000cb24 .LASF3219
     /tmp/ccJdQ6R8.s:99564  .debug_str:000000000002e1a0 .LASF3220
     /tmp/ccJdQ6R8.s:92690  .debug_str:0000000000011f8a .LASF3221
     /tmp/ccJdQ6R8.s:102826  .debug_str:000000000003b250 .LASF3222
     /tmp/ccJdQ6R8.s:107206  .debug_str:000000000004d7e9 .LASF3223
     /tmp/ccJdQ6R8.s:88676  .debug_str:0000000000001774 .LASF3224
     /tmp/ccJdQ6R8.s:106702  .debug_str:000000000004b569 .LASF3225
     /tmp/ccJdQ6R8.s:91704  .debug_str:000000000000e449 .LASF3226
     /tmp/ccJdQ6R8.s:101562  .debug_str:00000000000364a1 .LASF3227
     /tmp/ccJdQ6R8.s:106682  .debug_str:000000000004b3b0 .LASF3228
     /tmp/ccJdQ6R8.s:91702  .debug_str:000000000000e406 .LASF3229
     /tmp/ccJdQ6R8.s:102190  .debug_str:0000000000038657 .LASF3230
     /tmp/ccJdQ6R8.s:101142  .debug_str:00000000000349d4 .LASF3231
     /tmp/ccJdQ6R8.s:102958  .debug_str:000000000003bae5 .LASF3232
     /tmp/ccJdQ6R8.s:95480  .debug_str:000000000001d8f8 .LASF3233
     /tmp/ccJdQ6R8.s:93710  .debug_str:0000000000015fba .LASF3234
     /tmp/ccJdQ6R8.s:92138  .debug_str:000000000000fc56 .LASF3235
     /tmp/ccJdQ6R8.s:104226  .debug_str:0000000000041019 .LASF3236
     /tmp/ccJdQ6R8.s:89350  .debug_str:0000000000004700 .LASF3237
     /tmp/ccJdQ6R8.s:95470  .debug_str:000000000001d7f6 .LASF3238
     /tmp/ccJdQ6R8.s:91620  .debug_str:000000000000dfec .LASF3239
     /tmp/ccJdQ6R8.s:104604  .debug_str:00000000000429c0 .LASF3240
     /tmp/ccJdQ6R8.s:101888  .debug_str:0000000000037659 .LASF3241
     /tmp/ccJdQ6R8.s:98330  .debug_str:00000000000292b8 .LASF3242
     /tmp/ccJdQ6R8.s:92994  .debug_str:0000000000013311 .LASF3243
     /tmp/ccJdQ6R8.s:106528  .debug_str:000000000004a869 .LASF3244
     /tmp/ccJdQ6R8.s:90402  .debug_str:0000000000008e10 .LASF3245
     /tmp/ccJdQ6R8.s:96798  .debug_str:0000000000023233 .LASF3246
     /tmp/ccJdQ6R8.s:104884  .debug_str:0000000000043b15 .LASF3247
     /tmp/ccJdQ6R8.s:90870  .debug_str:000000000000adf0 .LASF3248
     /tmp/ccJdQ6R8.s:101434  .debug_str:0000000000035c53 .LASF3249
     /tmp/ccJdQ6R8.s:91238  .debug_str:000000000000c779 .LASF3250
     /tmp/ccJdQ6R8.s:103712  .debug_str:000000000003ecca .LASF3251
     /tmp/ccJdQ6R8.s:102240  .debug_str:00000000000389b1 .LASF3252
     /tmp/ccJdQ6R8.s:90262  .debug_str:0000000000008440 .LASF3253
     /tmp/ccJdQ6R8.s:89250  .debug_str:0000000000004012 .LASF3254
     /tmp/ccJdQ6R8.s:103824  .debug_str:000000000003f53e .LASF3255
     /tmp/ccJdQ6R8.s:98020  .debug_str:0000000000027e61 .LASF3256
     /tmp/ccJdQ6R8.s:102562  .debug_str:0000000000039f9c .LASF3257
     /tmp/ccJdQ6R8.s:93288  .debug_str:0000000000014466 .LASF3258
     /tmp/ccJdQ6R8.s:95956  .debug_str:000000000001faf5 .LASF3259
     /tmp/ccJdQ6R8.s:100784  .debug_str:00000000000331ac .LASF3260
     /tmp/ccJdQ6R8.s:96616  .debug_str:0000000000022616 .LASF3261
     /tmp/ccJdQ6R8.s:102036  .debug_str:0000000000037db1 .LASF3262
     /tmp/ccJdQ6R8.s:94586  .debug_str:0000000000019a41 .LASF3263
     /tmp/ccJdQ6R8.s:106832  .debug_str:000000000004be9c .LASF3264
     /tmp/ccJdQ6R8.s:103800  .debug_str:000000000003f347 .LASF3265
     /tmp/ccJdQ6R8.s:92446  .debug_str:0000000000010eaf .LASF3266
     /tmp/ccJdQ6R8.s:94290  .debug_str:000000000001856f .LASF3267
     /tmp/ccJdQ6R8.s:95652  .debug_str:000000000001e42a .LASF3268
     /tmp/ccJdQ6R8.s:95338  .debug_str:000000000001ce76 .LASF3269
     /tmp/ccJdQ6R8.s:92556  .debug_str:000000000001167d .LASF3270
     /tmp/ccJdQ6R8.s:104576  .debug_str:00000000000427c7 .LASF3271
     /tmp/ccJdQ6R8.s:105118  .debug_str:00000000000449a2 .LASF3272
     /tmp/ccJdQ6R8.s:94898  .debug_str:000000000001afb6 .LASF3273
     /tmp/ccJdQ6R8.s:100492  .debug_str:0000000000031f42 .LASF3274
     /tmp/ccJdQ6R8.s:104294  .debug_str:0000000000041517 .LASF3275
     /tmp/ccJdQ6R8.s:106350  .debug_str:0000000000049c10 .LASF3276
     /tmp/ccJdQ6R8.s:104068  .debug_str:000000000004062a .LASF3277
     /tmp/ccJdQ6R8.s:95666  .debug_str:000000000001e5ad .LASF3278
     /tmp/ccJdQ6R8.s:94576  .debug_str:0000000000019964 .LASF3279
     /tmp/ccJdQ6R8.s:101646  .debug_str:00000000000369de .LASF3280
     /tmp/ccJdQ6R8.s:93166  .debug_str:0000000000013d97 .LASF3281
     /tmp/ccJdQ6R8.s:100628  .debug_str:00000000000327d4 .LASF3282
     /tmp/ccJdQ6R8.s:105378  .debug_str:0000000000045b07 .LASF3283
     /tmp/ccJdQ6R8.s:105692  .debug_str:0000000000046fc1 .LASF3284
     /tmp/ccJdQ6R8.s:104718  .debug_str:0000000000043110 .LASF3285
     /tmp/ccJdQ6R8.s:90970  .debug_str:000000000000b513 .LASF3286
     /tmp/ccJdQ6R8.s:93994  .debug_str:000000000001737f .LASF3287
     /tmp/ccJdQ6R8.s:89242  .debug_str:0000000000003f6a .LASF3288
     /tmp/ccJdQ6R8.s:97648  .debug_str:000000000002649d .LASF3289
     /tmp/ccJdQ6R8.s:107110  .debug_str:000000000004d166 .LASF3290
     /tmp/ccJdQ6R8.s:102310  .debug_str:0000000000038e5c .LASF3291
     /tmp/ccJdQ6R8.s:93538  .debug_str:0000000000015524 .LASF3292
     /tmp/ccJdQ6R8.s:98072  .debug_str:000000000002826a .LASF3293
     /tmp/ccJdQ6R8.s:96658  .debug_str:0000000000022901 .LASF3294
     /tmp/ccJdQ6R8.s:89590  .debug_str:0000000000005843 .LASF3295
     /tmp/ccJdQ6R8.s:92126  .debug_str:000000000000fba5 .LASF3296
     /tmp/ccJdQ6R8.s:97138  .debug_str:000000000002462f .LASF3297
     /tmp/ccJdQ6R8.s:97972  .debug_str:0000000000027b16 .LASF3298
     /tmp/ccJdQ6R8.s:95224  .debug_str:000000000001c650 .LASF3299
     /tmp/ccJdQ6R8.s:95526  .debug_str:000000000001dc05 .LASF3300
     /tmp/ccJdQ6R8.s:101740  .debug_str:0000000000036f33 .LASF3301
     /tmp/ccJdQ6R8.s:105266  .debug_str:00000000000452ee .LASF3302
     /tmp/ccJdQ6R8.s:102348  .debug_str:0000000000039189 .LASF3303
     /tmp/ccJdQ6R8.s:102410  .debug_str:0000000000039561 .LASF3304
     /tmp/ccJdQ6R8.s:94228  .debug_str:00000000000181cc .LASF3305
     /tmp/ccJdQ6R8.s:89700  .debug_str:0000000000005efd .LASF3306
     /tmp/ccJdQ6R8.s:105368  .debug_str:0000000000045a40 .LASF3307
     /tmp/ccJdQ6R8.s:103568  .debug_str:000000000003e2f3 .LASF3308
     /tmp/ccJdQ6R8.s:104620  .debug_str:0000000000042af7 .LASF3309
     /tmp/ccJdQ6R8.s:93716  .debug_str:0000000000016053 .LASF3310
     /tmp/ccJdQ6R8.s:97518  .debug_str:0000000000025cb3 .LASF3311
     /tmp/ccJdQ6R8.s:91388  .debug_str:000000000000d1a0 .LASF3312
     /tmp/ccJdQ6R8.s:97658  .debug_str:000000000002656c .LASF3313
     /tmp/ccJdQ6R8.s:88588  .debug_str:000000000000117a .LASF3314
     /tmp/ccJdQ6R8.s:101284  .debug_str:000000000003537d .LASF3315
     /tmp/ccJdQ6R8.s:91428  .debug_str:000000000000d43e .LASF3316
     /tmp/ccJdQ6R8.s:100892  .debug_str:00000000000338c5 .LASF3317
     /tmp/ccJdQ6R8.s:92712  .debug_str:0000000000012128 .LASF3318
     /tmp/ccJdQ6R8.s:93204  .debug_str:0000000000014011 .LASF3319
     /tmp/ccJdQ6R8.s:100456  .debug_str:0000000000031cf0 .LASF3320
     /tmp/ccJdQ6R8.s:106912  .debug_str:000000000004c492 .LASF3321
     /tmp/ccJdQ6R8.s:101254  .debug_str:0000000000035176 .LASF3322
     /tmp/ccJdQ6R8.s:89928  .debug_str:0000000000006eea .LASF3323
     /tmp/ccJdQ6R8.s:90270  .debug_str:00000000000084be .LASF3324
     /tmp/ccJdQ6R8.s:90202  .debug_str:0000000000008086 .LASF3325
     /tmp/ccJdQ6R8.s:92930  .debug_str:0000000000012f6c .LASF3326
     /tmp/ccJdQ6R8.s:97716  .debug_str:00000000000269a8 .LASF3327
     /tmp/ccJdQ6R8.s:93004  .debug_str:00000000000133e7 .LASF3328
     /tmp/ccJdQ6R8.s:106952  .debug_str:000000000004c6e2 .LASF3329
     /tmp/ccJdQ6R8.s:95766  .debug_str:000000000001ecd7 .LASF3330
     /tmp/ccJdQ6R8.s:94940  .debug_str:000000000001b2e1 .LASF3331
     /tmp/ccJdQ6R8.s:95386  .debug_str:000000000001d1d6 .LASF3332
     /tmp/ccJdQ6R8.s:100420  .debug_str:0000000000031a8f .LASF3333
     /tmp/ccJdQ6R8.s:96524  .debug_str:0000000000022037 .LASF3334
     /tmp/ccJdQ6R8.s:95448  .debug_str:000000000001d676 .LASF3335
     /tmp/ccJdQ6R8.s:90588  .debug_str:0000000000009a70 .LASF3336
     /tmp/ccJdQ6R8.s:97848  .debug_str:0000000000027263 .LASF3337
     /tmp/ccJdQ6R8.s:96126  .debug_str:0000000000020628 .LASF3338
     /tmp/ccJdQ6R8.s:88674  .debug_str:0000000000001753 .LASF3339
     /tmp/ccJdQ6R8.s:100858  .debug_str:0000000000033678 .LASF3340
     /tmp/ccJdQ6R8.s:105154  .debug_str:0000000000044c3f .LASF3341
     /tmp/ccJdQ6R8.s:99100  .debug_str:000000000002c30d .LASF3342
     /tmp/ccJdQ6R8.s:93008  .debug_str:000000000001340c .LASF3343
     /tmp/ccJdQ6R8.s:92524  .debug_str:0000000000011445 .LASF3344
     /tmp/ccJdQ6R8.s:91830  .debug_str:000000000000eab1 .LASF3345
     /tmp/ccJdQ6R8.s:100648  .debug_str:0000000000032913 .LASF3346
     /tmp/ccJdQ6R8.s:99962  .debug_str:000000000002fc02 .LASF3347
     /tmp/ccJdQ6R8.s:89812  .debug_str:0000000000006699 .LASF3348
     /tmp/ccJdQ6R8.s:99376  .debug_str:000000000002d46d .LASF3349
     /tmp/ccJdQ6R8.s:100658  .debug_str:000000000003298d .LASF3350
     /tmp/ccJdQ6R8.s:103060  .debug_str:000000000003c247 .LASF3351
     /tmp/ccJdQ6R8.s:96222  .debug_str:0000000000020cc1 .LASF3352
     /tmp/ccJdQ6R8.s:100566  .debug_str:000000000003238b .LASF3354
     /tmp/ccJdQ6R8.s:104076  .debug_str:00000000000406d3 .LASF3355
     /tmp/ccJdQ6R8.s:90318  .debug_str:00000000000087fa .LASF3356
     /tmp/ccJdQ6R8.s:99698  .debug_str:000000000002ea72 .LASF3357
     /tmp/ccJdQ6R8.s:99332  .debug_str:000000000002d236 .LASF3358
     /tmp/ccJdQ6R8.s:99590  .debug_str:000000000002e337 .LASF3359
     /tmp/ccJdQ6R8.s:98768  .debug_str:000000000002ae91 .LASF3360
     /tmp/ccJdQ6R8.s:103064  .debug_str:000000000003c2a7 .LASF3361
     /tmp/ccJdQ6R8.s:89366  .debug_str:000000000000484b .LASF3362
     /tmp/ccJdQ6R8.s:106152  .debug_str:0000000000048ea6 .LASF3363
     /tmp/ccJdQ6R8.s:97052  .debug_str:000000000002420f .LASF3364
     /tmp/ccJdQ6R8.s:94792  .debug_str:000000000001a8cd .LASF3365
     /tmp/ccJdQ6R8.s:96810  .debug_str:000000000002330b .LASF3366
     /tmp/ccJdQ6R8.s:106848  .debug_str:000000000004bfd1 .LASF3367
     /tmp/ccJdQ6R8.s:105468  .debug_str:0000000000046088 .LASF3368
     /tmp/ccJdQ6R8.s:99934  .debug_str:000000000002fa63 .LASF3369
     /tmp/ccJdQ6R8.s:102618  .debug_str:000000000003a3e5 .LASF3370
     /tmp/ccJdQ6R8.s:106346  .debug_str:0000000000049bd8 .LASF3371
     /tmp/ccJdQ6R8.s:92696  .debug_str:0000000000011fd6 .LASF3372
     /tmp/ccJdQ6R8.s:102388  .debug_str:00000000000393c5 .LASF3373
     /tmp/ccJdQ6R8.s:97434  .debug_str:0000000000025687 .LASF3374
     /tmp/ccJdQ6R8.s:106218  .debug_str:000000000004932b .LASF3375
     /tmp/ccJdQ6R8.s:89022  .debug_str:00000000000030b5 .LASF3376
     /tmp/ccJdQ6R8.s:95366  .debug_str:000000000001d081 .LASF3377
     /tmp/ccJdQ6R8.s:100226  .debug_str:0000000000030cee .LASF3378
     /tmp/ccJdQ6R8.s:93024  .debug_str:0000000000013506 .LASF3379
     /tmp/ccJdQ6R8.s:89418  .debug_str:0000000000004bd2 .LASF3380
     /tmp/ccJdQ6R8.s:99954  .debug_str:000000000002fb57 .LASF3381
     /tmp/ccJdQ6R8.s:93686  .debug_str:0000000000015df8 .LASF3382
     /tmp/ccJdQ6R8.s:92362  .debug_str:0000000000010994 .LASF3383
     /tmp/ccJdQ6R8.s:100664  .debug_str:0000000000032a02 .LASF3384
     /tmp/ccJdQ6R8.s:89650  .debug_str:0000000000005c00 .LASF3385
     /tmp/ccJdQ6R8.s:105092  .debug_str:000000000004479f .LASF3386
     /tmp/ccJdQ6R8.s:105824  .debug_str:0000000000047884 .LASF3387
     /tmp/ccJdQ6R8.s:92964  .debug_str:000000000001317f .LASF3388
     /tmp/ccJdQ6R8.s:102622  .debug_str:000000000003a440 .LASF3389
     /tmp/ccJdQ6R8.s:98228  .debug_str:0000000000028bee .LASF3390
     /tmp/ccJdQ6R8.s:98394  .debug_str:00000000000296a9 .LASF3391
     /tmp/ccJdQ6R8.s:106700  .debug_str:000000000004b55c .LASF3392
     /tmp/ccJdQ6R8.s:102360  .debug_str:000000000003922a .LASF3393
     /tmp/ccJdQ6R8.s:92142  .debug_str:000000000000fcd3 .LASF3394
     /tmp/ccJdQ6R8.s:106692  .debug_str:000000000004b4b0 .LASF3395
     /tmp/ccJdQ6R8.s:103796  .debug_str:000000000003f2cc .LASF3396
     /tmp/ccJdQ6R8.s:88710  .debug_str:0000000000001a04 .LASF3397
     /tmp/ccJdQ6R8.s:96682  .debug_str:0000000000022aa2 .LASF3398
     /tmp/ccJdQ6R8.s:91822  .debug_str:000000000000ea18 .LASF3399
     /tmp/ccJdQ6R8.s:93264  .debug_str:000000000001434b .LASF3400
     /tmp/ccJdQ6R8.s:89192  .debug_str:0000000000003bd7 .LASF3401
     /tmp/ccJdQ6R8.s:105382  .debug_str:0000000000045b58 .LASF3402
     /tmp/ccJdQ6R8.s:99408  .debug_str:000000000002d6ed .LASF3403
     /tmp/ccJdQ6R8.s:99912  .debug_str:000000000002f8d3 .LASF3404
     /tmp/ccJdQ6R8.s:105788  .debug_str:0000000000047637 .LASF3405
     /tmp/ccJdQ6R8.s:106738  .debug_str:000000000004b839 .LASF3406
     /tmp/ccJdQ6R8.s:98582  .debug_str:000000000002a2f2 .LASF3407
     /tmp/ccJdQ6R8.s:95012  .debug_str:000000000001b83e .LASF3408
     /tmp/ccJdQ6R8.s:95296  .debug_str:000000000001cb28 .LASF3409
     /tmp/ccJdQ6R8.s:105964  .debug_str:000000000004815e .LASF3410
     /tmp/ccJdQ6R8.s:107036  .debug_str:000000000004cc42 .LASF3411
     /tmp/ccJdQ6R8.s:98866  .debug_str:000000000002b50f .LASF3412
     /tmp/ccJdQ6R8.s:99712  .debug_str:000000000002eb4c .LASF3413
     /tmp/ccJdQ6R8.s:100476  .debug_str:0000000000031e62 .LASF3414
     /tmp/ccJdQ6R8.s:89368  .debug_str:0000000000004880 .LASF3415
     /tmp/ccJdQ6R8.s:101968  .debug_str:0000000000037a68 .LASF3416
     /tmp/ccJdQ6R8.s:103696  .debug_str:000000000003eb6f .LASF3417
     /tmp/ccJdQ6R8.s:106394  .debug_str:0000000000049f06 .LASF3418
     /tmp/ccJdQ6R8.s:99788  .debug_str:000000000002f036 .LASF3419
     /tmp/ccJdQ6R8.s:106746  .debug_str:000000000004b8d3 .LASF3420
     /tmp/ccJdQ6R8.s:104728  .debug_str:00000000000431ab .LASF3421
     /tmp/ccJdQ6R8.s:103986  .debug_str:0000000000040025 .LASF3422
     /tmp/ccJdQ6R8.s:100070  .debug_str:00000000000302d5 .LASF3423
     /tmp/ccJdQ6R8.s:91602  .debug_str:000000000000deb1 .LASF3424
     /tmp/ccJdQ6R8.s:102230  .debug_str:000000000003892e .LASF3425
     /tmp/ccJdQ6R8.s:98478  .debug_str:0000000000029ba0 .LASF3426
     /tmp/ccJdQ6R8.s:98452  .debug_str:0000000000029a1f .LASF3427
     /tmp/ccJdQ6R8.s:100050  .debug_str:0000000000030121 .LASF3428
     /tmp/ccJdQ6R8.s:90114  .debug_str:0000000000007a51 .LASF3429
     /tmp/ccJdQ6R8.s:95784  .debug_str:000000000001edb7 .LASF3430
     /tmp/ccJdQ6R8.s:89406  .debug_str:0000000000004b38 .LASF3431
     /tmp/ccJdQ6R8.s:102200  .debug_str:000000000003870f .LASF3432
     /tmp/ccJdQ6R8.s:106830  .debug_str:000000000004be85 .LASF3433
     /tmp/ccJdQ6R8.s:101880  .debug_str:00000000000375fb .LASF3434
     /tmp/ccJdQ6R8.s:99976  .debug_str:000000000002fcb2 .LASF3435
     /tmp/ccJdQ6R8.s:94302  .debug_str:0000000000018653 .LASF3436
     /tmp/ccJdQ6R8.s:96338  .debug_str:00000000000213c1 .LASF3437
     /tmp/ccJdQ6R8.s:101350  .debug_str:0000000000035774 .LASF3438
     /tmp/ccJdQ6R8.s:102136  .debug_str:00000000000382fa .LASF3439
     /tmp/ccJdQ6R8.s:89218  .debug_str:0000000000003dd5 .LASF3440
     /tmp/ccJdQ6R8.s:104290  .debug_str:00000000000414cd .LASF3441
     /tmp/ccJdQ6R8.s:98196  .debug_str:00000000000289b9 .LASF3442
     /tmp/ccJdQ6R8.s:98036  .debug_str:0000000000027fc0 .LASF3443
     /tmp/ccJdQ6R8.s:105410  .debug_str:0000000000045ce7 .LASF3444
     /tmp/ccJdQ6R8.s:106918  .debug_str:000000000004c4f4 .LASF3445
     /tmp/ccJdQ6R8.s:91052  .debug_str:000000000000bb1f .LASF3446
     /tmp/ccJdQ6R8.s:105826  .debug_str:0000000000047896 .LASF3447
     /tmp/ccJdQ6R8.s:98766  .debug_str:000000000002ae7a .LASF3448
     /tmp/ccJdQ6R8.s:90796  .debug_str:000000000000a871 .LASF3449
     /tmp/ccJdQ6R8.s:99824  .debug_str:000000000002f2f6 .LASF3450
     /tmp/ccJdQ6R8.s:107150  .debug_str:000000000004d41a .LASF3451
     /tmp/ccJdQ6R8.s:95016  .debug_str:000000000001b88f .LASF3452
     /tmp/ccJdQ6R8.s:97532  .debug_str:0000000000025dcf .LASF3453
     /tmp/ccJdQ6R8.s:91480  .debug_str:000000000000d6f0 .LASF3454
     /tmp/ccJdQ6R8.s:93354  .debug_str:00000000000148be .LASF3455
     /tmp/ccJdQ6R8.s:96162  .debug_str:00000000000208c3 .LASF3456
     /tmp/ccJdQ6R8.s:96144  .debug_str:000000000002074d .LASF3457
     /tmp/ccJdQ6R8.s:96408  .debug_str:0000000000021859 .LASF3458
     /tmp/ccJdQ6R8.s:88406  .debug_str:0000000000000595 .LASF3459
     /tmp/ccJdQ6R8.s:98176  .debug_str:00000000000288a7 .LASF3460
     /tmp/ccJdQ6R8.s:105006  .debug_str:0000000000044323 .LASF3461
     /tmp/ccJdQ6R8.s:104474  .debug_str:0000000000042112 .LASF3462
     /tmp/ccJdQ6R8.s:105230  .debug_str:0000000000045094 .LASF3463
     /tmp/ccJdQ6R8.s:102854  .debug_str:000000000003b477 .LASF3464
     /tmp/ccJdQ6R8.s:101210  .debug_str:0000000000034e4c .LASF3465
     /tmp/ccJdQ6R8.s:105830  .debug_str:00000000000478ba .LASF3466
     /tmp/ccJdQ6R8.s:101364  .debug_str:000000000003586e .LASF3467
     /tmp/ccJdQ6R8.s:106410  .debug_str:000000000004a00e .LASF3468
     /tmp/ccJdQ6R8.s:90438  .debug_str:0000000000009051 .LASF3469
     /tmp/ccJdQ6R8.s:89206  .debug_str:0000000000003cd3 .LASF3470
     /tmp/ccJdQ6R8.s:105560  .debug_str:0000000000046675 .LASF3471
     /tmp/ccJdQ6R8.s:93898  .debug_str:0000000000016c67 .LASF3472
     /tmp/ccJdQ6R8.s:104522  .debug_str:000000000004248c .LASF3473
     /tmp/ccJdQ6R8.s:102166  .debug_str:0000000000038480 .LASF3474
     /tmp/ccJdQ6R8.s:93882  .debug_str:0000000000016b4d .LASF3475
     /tmp/ccJdQ6R8.s:100432  .debug_str:0000000000031b5c .LASF3476
     /tmp/ccJdQ6R8.s:105500  .debug_str:0000000000046290 .LASF3477
     /tmp/ccJdQ6R8.s:90640  .debug_str:0000000000009dd5 .LASF3478
     /tmp/ccJdQ6R8.s:91430  .debug_str:000000000000d45d .LASF3479
     /tmp/ccJdQ6R8.s:104324  .debug_str:000000000004178f .LASF3480
     /tmp/ccJdQ6R8.s:103130  .debug_str:000000000003c713 .LASF3481
     /tmp/ccJdQ6R8.s:89640  .debug_str:0000000000005b36 .LASF3482
     /tmp/ccJdQ6R8.s:100060  .debug_str:00000000000301f2 .LASF3483
     /tmp/ccJdQ6R8.s:106962  .debug_str:000000000004c774 .LASF3484
     /tmp/ccJdQ6R8.s:97756  .debug_str:0000000000026c91 .LASF3485
     /tmp/ccJdQ6R8.s:99674  .debug_str:000000000002e8b8 .LASF3486
     /tmp/ccJdQ6R8.s:99430  .debug_str:000000000002d843 .LASF3487
     /tmp/ccJdQ6R8.s:97176  .debug_str:000000000002487f .LASF3488
     /tmp/ccJdQ6R8.s:93972  .debug_str:00000000000171d5 .LASF3489
     /tmp/ccJdQ6R8.s:103972  .debug_str:000000000003ff2c .LASF3490
     /tmp/ccJdQ6R8.s:92480  .debug_str:0000000000011150 .LASF3491
     /tmp/ccJdQ6R8.s:93276  .debug_str:00000000000143cc .LASF3492
     /tmp/ccJdQ6R8.s:92040  .debug_str:000000000000f72e .LASF3493
     /tmp/ccJdQ6R8.s:91308  .debug_str:000000000000cc6c .LASF3494
     /tmp/ccJdQ6R8.s:105424  .debug_str:0000000000045dd4 .LASF3495
     /tmp/ccJdQ6R8.s:91578  .debug_str:000000000000dd39 .LASF3496
     /tmp/ccJdQ6R8.s:93092  .debug_str:000000000001395b .LASF3497
     /tmp/ccJdQ6R8.s:102312  .debug_str:0000000000038ea7 .LASF3498
     /tmp/ccJdQ6R8.s:96622  .debug_str:0000000000022689 .LASF3499
     /tmp/ccJdQ6R8.s:104288  .debug_str:00000000000414b9 .LASF3500
     /tmp/ccJdQ6R8.s:100360  .debug_str:00000000000316b6 .LASF3501
     /tmp/ccJdQ6R8.s:96852  .debug_str:000000000002365c .LASF3502
     /tmp/ccJdQ6R8.s:99650  .debug_str:000000000002e6e7 .LASF3503
     /tmp/ccJdQ6R8.s:93206  .debug_str:0000000000014031 .LASF3504
     /tmp/ccJdQ6R8.s:96618  .debug_str:0000000000022660 .LASF3505
     /tmp/ccJdQ6R8.s:105186  .debug_str:0000000000044ded .LASF3506
     /tmp/ccJdQ6R8.s:99344  .debug_str:000000000002d31d .LASF3507
     /tmp/ccJdQ6R8.s:91580  .debug_str:000000000000dd56 .LASF3508
     /tmp/ccJdQ6R8.s:107180  .debug_str:000000000004d641 .LASF3509
     /tmp/ccJdQ6R8.s:93932  .debug_str:0000000000016f0d .LASF3510
     /tmp/ccJdQ6R8.s:99602  .debug_str:000000000002e40c .LASF3511
     /tmp/ccJdQ6R8.s:100090  .debug_str:0000000000030421 .LASF3512
     /tmp/ccJdQ6R8.s:92224  .debug_str:000000000001014c .LASF3513
     /tmp/ccJdQ6R8.s:89960  .debug_str:0000000000007100 .LASF3514
     /tmp/ccJdQ6R8.s:99744  .debug_str:000000000002ed64 .LASF3515
     /tmp/ccJdQ6R8.s:104818  .debug_str:0000000000043718 .LASF3516
     /tmp/ccJdQ6R8.s:106920  .debug_str:000000000004c50b .LASF3517
     /tmp/ccJdQ6R8.s:106406  .debug_str:0000000000049faa .LASF3518
     /tmp/ccJdQ6R8.s:104956  .debug_str:000000000004401c .LASF3519
     /tmp/ccJdQ6R8.s:100052  .debug_str:0000000000030138 .LASF3520
     /tmp/ccJdQ6R8.s:95372  .debug_str:000000000001d106 .LASF3521
     /tmp/ccJdQ6R8.s:91980  .debug_str:000000000000f369 .LASF3522
     /tmp/ccJdQ6R8.s:102732  .debug_str:000000000003ac4e .LASF3523
     /tmp/ccJdQ6R8.s:95754  .debug_str:000000000001ebe2 .LASF3524
     /tmp/ccJdQ6R8.s:96764  .debug_str:0000000000022fe1 .LASF3525
     /tmp/ccJdQ6R8.s:95234  .debug_str:000000000001c76a .LASF3526
     /tmp/ccJdQ6R8.s:96842  .debug_str:000000000002354a .LASF3527
     /tmp/ccJdQ6R8.s:89072  .debug_str:00000000000033d9 .LASF3528
     /tmp/ccJdQ6R8.s:102728  .debug_str:000000000003ac23 .LASF3529
     /tmp/ccJdQ6R8.s:100272  .debug_str:000000000003109a .LASF3530
     /tmp/ccJdQ6R8.s:105654  .debug_str:0000000000046d5b .LASF3531
     /tmp/ccJdQ6R8.s:102460  .debug_str:0000000000039965 .LASF3532
     /tmp/ccJdQ6R8.s:97304  .debug_str:0000000000024e00 .LASF3533
     /tmp/ccJdQ6R8.s:98786  .debug_str:000000000002af82 .LASF3534
     /tmp/ccJdQ6R8.s:91176  .debug_str:000000000000c349 .LASF3535
     /tmp/ccJdQ6R8.s:100444  .debug_str:0000000000031c39 .LASF3536
     /tmp/ccJdQ6R8.s:99952  .debug_str:000000000002fb4a .LASF3537
     /tmp/ccJdQ6R8.s:99588  .debug_str:000000000002e328 .LASF3538
     /tmp/ccJdQ6R8.s:98214  .debug_str:0000000000028afb .LASF3539
     /tmp/ccJdQ6R8.s:97838  .debug_str:00000000000271d7 .LASF3540
     /tmp/ccJdQ6R8.s:92754  .debug_str:0000000000012327 .LASF3541
     /tmp/ccJdQ6R8.s:97226  .debug_str:0000000000024a7c .LASF3542
     /tmp/ccJdQ6R8.s:102142  .debug_str:000000000003833b .LASF3543
     /tmp/ccJdQ6R8.s:90908  .debug_str:000000000000b090 .LASF3544
     /tmp/ccJdQ6R8.s:97048  .debug_str:00000000000241e4 .LASF3545
     /tmp/ccJdQ6R8.s:97564  .debug_str:0000000000025fc2 .LASF3546
     /tmp/ccJdQ6R8.s:104360  .debug_str:00000000000419fc .LASF3547
     /tmp/ccJdQ6R8.s:105026  .debug_str:000000000004440c .LASF3548
     /tmp/ccJdQ6R8.s:93262  .debug_str:000000000001433f .LASF3549
     /tmp/ccJdQ6R8.s:100736  .debug_str:0000000000032e78 .LASF3550
     /tmp/ccJdQ6R8.s:105552  .debug_str:0000000000046601 .LASF3551
     /tmp/ccJdQ6R8.s:94146  .debug_str:0000000000017cf3 .LASF3552
     /tmp/ccJdQ6R8.s:94728  .debug_str:000000000001a4c0 .LASF3553
     /tmp/ccJdQ6R8.s:94138  .debug_str:0000000000017c88 .LASF3554
     /tmp/ccJdQ6R8.s:96904  .debug_str:00000000000239d5 .LASF3555
     /tmp/ccJdQ6R8.s:94458  .debug_str:0000000000019113 .LASF3556
     /tmp/ccJdQ6R8.s:101242  .debug_str:00000000000350c5 .LASF3557
     /tmp/ccJdQ6R8.s:88506  .debug_str:0000000000000be2 .LASF3558
     /tmp/ccJdQ6R8.s:105526  .debug_str:0000000000046452 .LASF3559
     /tmp/ccJdQ6R8.s:99434  .debug_str:000000000002d89f .LASF3560
     /tmp/ccJdQ6R8.s:92184  .debug_str:000000000000fec8 .LASF3561
     /tmp/ccJdQ6R8.s:89740  .debug_str:0000000000006181 .LASF3562
     /tmp/ccJdQ6R8.s:104544  .debug_str:00000000000425ba .LASF3563
     /tmp/ccJdQ6R8.s:94400  .debug_str:0000000000018d23 .LASF3564
     /tmp/ccJdQ6R8.s:89552  .debug_str:0000000000005546 .LASF3565
     /tmp/ccJdQ6R8.s:105626  .debug_str:0000000000046b15 .LASF3566
     /tmp/ccJdQ6R8.s:93676  .debug_str:0000000000015d49 .LASF3567
     /tmp/ccJdQ6R8.s:106276  .debug_str:0000000000049757 .LASF3568
     /tmp/ccJdQ6R8.s:96694  .debug_str:0000000000022b8d .LASF3569
     /tmp/ccJdQ6R8.s:105566  .debug_str:00000000000466d3 .LASF3570
     /tmp/ccJdQ6R8.s:104462  .debug_str:0000000000042032 .LASF3571
     /tmp/ccJdQ6R8.s:96526  .debug_str:000000000002205c .LASF3572
     /tmp/ccJdQ6R8.s:100826  .debug_str:00000000000334d7 .LASF3573
     /tmp/ccJdQ6R8.s:91592  .debug_str:000000000000ddeb .LASF3574
     /tmp/ccJdQ6R8.s:98716  .debug_str:000000000002aaa4 .LASF3575
     /tmp/ccJdQ6R8.s:91818  .debug_str:000000000000e996 .LASF3576
     /tmp/ccJdQ6R8.s:103810  .debug_str:000000000003f411 .LASF3577
     /tmp/ccJdQ6R8.s:88934  .debug_str:00000000000029e1 .LASF3578
     /tmp/ccJdQ6R8.s:98574  .debug_str:000000000002a1c6 .LASF3579
     /tmp/ccJdQ6R8.s:105876  .debug_str:0000000000047be1 .LASF3580
     /tmp/ccJdQ6R8.s:90962  .debug_str:000000000000b4bb .LASF3581
     /tmp/ccJdQ6R8.s:99452  .debug_str:000000000002d9ca .LASF3582
     /tmp/ccJdQ6R8.s:96804  .debug_str:00000000000232b5 .LASF3583
     /tmp/ccJdQ6R8.s:100726  .debug_str:0000000000032dd2 .LASF3584
     /tmp/ccJdQ6R8.s:94252  .debug_str:00000000000182a5 .LASF3585
     /tmp/ccJdQ6R8.s:88540  .debug_str:0000000000000e47 .LASF3586
     /tmp/ccJdQ6R8.s:105506  .debug_str:00000000000462fd .LASF3587
     /tmp/ccJdQ6R8.s:106032  .debug_str:00000000000485ce .LASF3588
     /tmp/ccJdQ6R8.s:91100  .debug_str:000000000000bdff .LASF3589
     /tmp/ccJdQ6R8.s:101056  .debug_str:0000000000034492 .LASF3590
     /tmp/ccJdQ6R8.s:90388  .debug_str:0000000000008cd8 .LASF3591
     /tmp/ccJdQ6R8.s:102154  .debug_str:00000000000383e1 .LASF3592
     /tmp/ccJdQ6R8.s:92618  .debug_str:0000000000011b13 .LASF3593
     /tmp/ccJdQ6R8.s:92286  .debug_str:000000000001048b .LASF3594
     /tmp/ccJdQ6R8.s:89156  .debug_str:000000000000399f .LASF3595
     /tmp/ccJdQ6R8.s:95018  .debug_str:000000000001b8a6 .LASF3596
     /tmp/ccJdQ6R8.s:96520  .debug_str:0000000000021fe0 .LASF3597
     /tmp/ccJdQ6R8.s:94852  .debug_str:000000000001ac7f .LASF3598
     /tmp/ccJdQ6R8.s:96586  .debug_str:00000000000223d7 .LASF3599
     /tmp/ccJdQ6R8.s:101276  .debug_str:0000000000035312 .LASF3600
     /tmp/ccJdQ6R8.s:91106  .debug_str:000000000000be5b .LASF3601
     /tmp/ccJdQ6R8.s:106990  .debug_str:000000000004c9a4 .LASF3602
     /tmp/ccJdQ6R8.s:99972  .debug_str:000000000002fc82 .LASF3603
     /tmp/ccJdQ6R8.s:97242  .debug_str:0000000000024b7b .LASF3604
     /tmp/ccJdQ6R8.s:103826  .debug_str:000000000003f57f .LASF3605
     /tmp/ccJdQ6R8.s:89388  .debug_str:00000000000049e1 .LASF3606
     /tmp/ccJdQ6R8.s:97536  .debug_str:0000000000025e0e .LASF3607
     /tmp/ccJdQ6R8.s:95740  .debug_str:000000000001eb0f .LASF3608
     /tmp/ccJdQ6R8.s:93532  .debug_str:00000000000154bc .LASF3609
     /tmp/ccJdQ6R8.s:106348  .debug_str:0000000000049bfd .LASF3610
     /tmp/ccJdQ6R8.s:100774  .debug_str:000000000003311d .LASF3611
     /tmp/ccJdQ6R8.s:100100  .debug_str:00000000000304be .LASF3612
     /tmp/ccJdQ6R8.s:101376  .debug_str:0000000000035974 .LASF3613
     /tmp/ccJdQ6R8.s:89932  .debug_str:0000000000006f4d .LASF3614
     /tmp/ccJdQ6R8.s:95038  .debug_str:000000000001b9c2 .LASF3615
     /tmp/ccJdQ6R8.s:94692  .debug_str:000000000001a227 .LASF3616
     /tmp/ccJdQ6R8.s:90048  .debug_str:0000000000007683 .LASF3617
     /tmp/ccJdQ6R8.s:93870  .debug_str:0000000000016a36 .LASF3618
     /tmp/ccJdQ6R8.s:103138  .debug_str:000000000003c775 .LASF3619
     /tmp/ccJdQ6R8.s:95772  .debug_str:000000000001ed48 .LASF3620
     /tmp/ccJdQ6R8.s:96552  .debug_str:00000000000221fd .LASF3621
     /tmp/ccJdQ6R8.s:95082  .debug_str:000000000001bd56 .LASF3622
     /tmp/ccJdQ6R8.s:97316  .debug_str:0000000000024ef2 .LASF3623
     /tmp/ccJdQ6R8.s:98596  .debug_str:000000000002a392 .LASF3624
     /tmp/ccJdQ6R8.s:102624  .debug_str:000000000003a455 .LASF3625
     /tmp/ccJdQ6R8.s:105288  .debug_str:0000000000045474 .LASF3626
     /tmp/ccJdQ6R8.s:97392  .debug_str:00000000000253d7 .LASF3627
     /tmp/ccJdQ6R8.s:99012  .debug_str:000000000002be0a .LASF3628
     /tmp/ccJdQ6R8.s:104798  .debug_str:00000000000435cd .LASF3629
     /tmp/ccJdQ6R8.s:97358  .debug_str:00000000000251c1 .LASF3630
     /tmp/ccJdQ6R8.s:106520  .debug_str:000000000004a80e .LASF3631
     /tmp/ccJdQ6R8.s:91208  .debug_str:000000000000c581 .LASF3632
     /tmp/ccJdQ6R8.s:96614  .debug_str:0000000000022602 .LASF3633
     /tmp/ccJdQ6R8.s:95192  .debug_str:000000000001c45f .LASF3634
     /tmp/ccJdQ6R8.s:102820  .debug_str:000000000003b225 .LASF3635
     /tmp/ccJdQ6R8.s:105750  .debug_str:00000000000473e6 .LASF3636
     /tmp/ccJdQ6R8.s:93280  .debug_str:0000000000014402 .LASF3637
     /tmp/ccJdQ6R8.s:95254  .debug_str:000000000001c8d1 .LASF3638
     /tmp/ccJdQ6R8.s:102502  .debug_str:0000000000039bd2 .LASF3639
     /tmp/ccJdQ6R8.s:103994  .debug_str:00000000000400a7 .LASF3640
     /tmp/ccJdQ6R8.s:106878  .debug_str:000000000004c1e6 .LASF3641
     /tmp/ccJdQ6R8.s:106994  .debug_str:000000000004c9d1 .LASF3642
     /tmp/ccJdQ6R8.s:91256  .debug_str:000000000000c862 .LASF3643
     /tmp/ccJdQ6R8.s:104664  .debug_str:0000000000042db5 .LASF3644
     /tmp/ccJdQ6R8.s:103690  .debug_str:000000000003eaf8 .LASF3645
     /tmp/ccJdQ6R8.s:88768  .debug_str:0000000000001dc8 .LASF3646
     /tmp/ccJdQ6R8.s:89744  .debug_str:00000000000061b9 .LASF3647
     /tmp/ccJdQ6R8.s:88494  .debug_str:0000000000000b38 .LASF3648
     /tmp/ccJdQ6R8.s:100506  .debug_str:0000000000032044 .LASF3649
     /tmp/ccJdQ6R8.s:93390  .debug_str:0000000000014b4e .LASF3650
     /tmp/ccJdQ6R8.s:98800  .debug_str:000000000002b065 .LASF3651
     /tmp/ccJdQ6R8.s:105554  .debug_str:0000000000046617 .LASF3652
     /tmp/ccJdQ6R8.s:104678  .debug_str:0000000000042e85 .LASF3653
     /tmp/ccJdQ6R8.s:95682  .debug_str:000000000001e6f1 .LASF3654
     /tmp/ccJdQ6R8.s:95108  .debug_str:000000000001bf15 .LASF3655
     /tmp/ccJdQ6R8.s:98594  .debug_str:000000000002a380 .LASF3656
     /tmp/ccJdQ6R8.s:105708  .debug_str:000000000004711c .LASF3657
     /tmp/ccJdQ6R8.s:88834  .debug_str:000000000000228d .LASF3658
     /tmp/ccJdQ6R8.s:100848  .debug_str:00000000000335ba .LASF3659
     /tmp/ccJdQ6R8.s:105174  .debug_str:0000000000044d7c .LASF3660
     /tmp/ccJdQ6R8.s:99858  .debug_str:000000000002f569 .LASF3661
     /tmp/ccJdQ6R8.s:104468  .debug_str:00000000000420bf .LASF3662
     /tmp/ccJdQ6R8.s:91342  .debug_str:000000000000ce8d .LASF3663
     /tmp/ccJdQ6R8.s:88930  .debug_str:00000000000029ac .LASF3664
     /tmp/ccJdQ6R8.s:95420  .debug_str:000000000001d47d .LASF3665
     /tmp/ccJdQ6R8.s:95496  .debug_str:000000000001da0e .LASF3666
     /tmp/ccJdQ6R8.s:96406  .debug_str:000000000002184a .LASF3667
     /tmp/ccJdQ6R8.s:101282  .debug_str:000000000003536c .LASF3668
     /tmp/ccJdQ6R8.s:94232  .debug_str:00000000000181ff .LASF3669
     /tmp/ccJdQ6R8.s:101886  .debug_str:0000000000037648 .LASF3670
     /tmp/ccJdQ6R8.s:96176  .debug_str:00000000000209b7 .LASF3671
     /tmp/ccJdQ6R8.s:98888  .debug_str:000000000002b641 .LASF3672
     /tmp/ccJdQ6R8.s:88720  .debug_str:0000000000001ad8 .LASF3673
     /tmp/ccJdQ6R8.s:100016  .debug_str:000000000002ff3a .LASF3674
     /tmp/ccJdQ6R8.s:100810  .debug_str:00000000000333ed .LASF3675
     /tmp/ccJdQ6R8.s:100582  .debug_str:00000000000324a4 .LASF3676
     /tmp/ccJdQ6R8.s:106254  .debug_str:00000000000495b6 .LASF3677
     /tmp/ccJdQ6R8.s:92358  .debug_str:0000000000010963 .LASF3678
     /tmp/ccJdQ6R8.s:91240  .debug_str:000000000000c7b8 .LASF3679
     /tmp/ccJdQ6R8.s:90880  .debug_str:000000000000aeb7 .LASF3680
     /tmp/ccJdQ6R8.s:97428  .debug_str:000000000002562e .LASF3681
     /tmp/ccJdQ6R8.s:94822  .debug_str:000000000001aaeb .LASF3682
     /tmp/ccJdQ6R8.s:106056  .debug_str:0000000000048744 .LASF3683
     /tmp/ccJdQ6R8.s:102758  .debug_str:000000000003ad94 .LASF3684
     /tmp/ccJdQ6R8.s:88698  .debug_str:0000000000001912 .LASF3685
     /tmp/ccJdQ6R8.s:89798  .debug_str:000000000000656f .LASF3686
     /tmp/ccJdQ6R8.s:99370  .debug_str:000000000002d41f .LASF3687
     /tmp/ccJdQ6R8.s:89172  .debug_str:0000000000003aaa .LASF3688
     /tmp/ccJdQ6R8.s:105254  .debug_str:0000000000045240 .LASF3689
     /tmp/ccJdQ6R8.s:88998  .debug_str:0000000000002f7a .LASF3690
     /tmp/ccJdQ6R8.s:96334  .debug_str:000000000002137e .LASF3691
     /tmp/ccJdQ6R8.s:90886  .debug_str:000000000000aefe .LASF3692
     /tmp/ccJdQ6R8.s:97964  .debug_str:0000000000027a7f .LASF3693
     /tmp/ccJdQ6R8.s:97796  .debug_str:0000000000026f2b .LASF3694
     /tmp/ccJdQ6R8.s:102716  .debug_str:000000000003ab4e .LASF3695
     /tmp/ccJdQ6R8.s:94234  .debug_str:000000000001820f .LASF3696
     /tmp/ccJdQ6R8.s:90350  .debug_str:0000000000008a88 .LASF3697
     /tmp/ccJdQ6R8.s:94604  .debug_str:0000000000019b69 .LASF3698
     /tmp/ccJdQ6R8.s:97054  .debug_str:0000000000024229 .LASF3699
     /tmp/ccJdQ6R8.s:95236  .debug_str:000000000001c77c .LASF3700
     /tmp/ccJdQ6R8.s:92806  .debug_str:00000000000126b9 .LASF3701
     /tmp/ccJdQ6R8.s:97036  .debug_str:0000000000024134 .LASF3702
     /tmp/ccJdQ6R8.s:98204  .debug_str:0000000000028a6a .LASF3703
     /tmp/ccJdQ6R8.s:106506  .debug_str:000000000004a702 .LASF3704
     /tmp/ccJdQ6R8.s:93782  .debug_str:00000000000164a1 .LASF3705
     /tmp/ccJdQ6R8.s:95250  .debug_str:000000000001c89e .LASF3706
     /tmp/ccJdQ6R8.s:99604  .debug_str:000000000002e427 .LASF3707
     /tmp/ccJdQ6R8.s:99004  .debug_str:000000000002bd97 .LASF3708
     /tmp/ccJdQ6R8.s:102282  .debug_str:0000000000038cb7 .LASF3709
     /tmp/ccJdQ6R8.s:91416  .debug_str:000000000000d369 .LASF3710
     /tmp/ccJdQ6R8.s:99666  .debug_str:000000000002e80f .LASF3711
     /tmp/ccJdQ6R8.s:95128  .debug_str:000000000001c03d .LASF3712
     /tmp/ccJdQ6R8.s:97950  .debug_str:00000000000279c6 .LASF3713
     /tmp/ccJdQ6R8.s:99286  .debug_str:000000000002cf7c .LASF3714
     /tmp/ccJdQ6R8.s:103396  .debug_str:000000000003d7e3 .LASF3715
     /tmp/ccJdQ6R8.s:104104  .debug_str:000000000004089e .LASF3716
     /tmp/ccJdQ6R8.s:103544  .debug_str:000000000003e162 .LASF3717
     /tmp/ccJdQ6R8.s:98614  .debug_str:000000000002a4b6 .LASF3718
     /tmp/ccJdQ6R8.s:102322  .debug_str:0000000000038fb1 .LASF3719
     /tmp/ccJdQ6R8.s:89666  .debug_str:0000000000005cb6 .LASF3720
     /tmp/ccJdQ6R8.s:100632  .debug_str:0000000000032838 .LASF3721
     /tmp/ccJdQ6R8.s:106136  .debug_str:0000000000048d82 .LASF3722
     /tmp/ccJdQ6R8.s:103996  .debug_str:00000000000400b8 .LASF3723
     /tmp/ccJdQ6R8.s:93636  .debug_str:0000000000015a91 .LASF3724
     /tmp/ccJdQ6R8.s:88464  .debug_str:000000000000095a .LASF3725
     /tmp/ccJdQ6R8.s:90872  .debug_str:000000000000ae2c .LASF3726
     /tmp/ccJdQ6R8.s:97868  .debug_str:00000000000273cf .LASF3727
     /tmp/ccJdQ6R8.s:105030  .debug_str:0000000000044424 .LASF3728
     /tmp/ccJdQ6R8.s:100768  .debug_str:000000000003309a .LASF3729
     /tmp/ccJdQ6R8.s:90252  .debug_str:00000000000083b0 .LASF3730
     /tmp/ccJdQ6R8.s:107240  .debug_str:000000000004da37 .LASF3731
     /tmp/ccJdQ6R8.s:94298  .debug_str:0000000000018631 .LASF3732
     /tmp/ccJdQ6R8.s:96232  .debug_str:0000000000020dbc .LASF3733
     /tmp/ccJdQ6R8.s:96044  .debug_str:00000000000200cb .LASF3734
     /tmp/ccJdQ6R8.s:101516  .debug_str:0000000000036159 .LASF3735
     /tmp/ccJdQ6R8.s:100140  .debug_str:000000000003070d .LASF3736
     /tmp/ccJdQ6R8.s:102944  .debug_str:000000000003b9f6 .LASF3737
     /tmp/ccJdQ6R8.s:97308  .debug_str:0000000000024e3f .LASF3738
     /tmp/ccJdQ6R8.s:95538  .debug_str:000000000001dd24 .LASF3739
     /tmp/ccJdQ6R8.s:99570  .debug_str:000000000002e242 .LASF3740
     /tmp/ccJdQ6R8.s:99502  .debug_str:000000000002dcfa .LASF3741
     /tmp/ccJdQ6R8.s:105352  .debug_str:00000000000458fb .LASF3742
     /tmp/ccJdQ6R8.s:88904  .debug_str:0000000000002831 .LASF3743
     /tmp/ccJdQ6R8.s:97220  .debug_str:0000000000024a08 .LASF3744
     /tmp/ccJdQ6R8.s:103510  .debug_str:000000000003df66 .LASF3745
     /tmp/ccJdQ6R8.s:101084  .debug_str:000000000003466e .LASF3746
     /tmp/ccJdQ6R8.s:99472  .debug_str:000000000002daa8 .LASF3747
     /tmp/ccJdQ6R8.s:89738  .debug_str:0000000000006166 .LASF3748
     /tmp/ccJdQ6R8.s:106600  .debug_str:000000000004ac7e .LASF3749
     /tmp/ccJdQ6R8.s:97018  .debug_str:0000000000024002 .LASF3750
     /tmp/ccJdQ6R8.s:91042  .debug_str:000000000000ba6a .LASF3751
     /tmp/ccJdQ6R8.s:90718  .debug_str:000000000000a34a .LASF3752
     /tmp/ccJdQ6R8.s:94428  .debug_str:0000000000018efe .LASF3753
     /tmp/ccJdQ6R8.s:100014  .debug_str:000000000002ff24 .LASF3754
     /tmp/ccJdQ6R8.s:92878  .debug_str:0000000000012c2b .LASF3755
     /tmp/ccJdQ6R8.s:90172  .debug_str:0000000000007e2c .LASF3756
     /tmp/ccJdQ6R8.s:92818  .debug_str:000000000001274e .LASF3757
     /tmp/ccJdQ6R8.s:106760  .debug_str:000000000004b9c8 .LASF3758
     /tmp/ccJdQ6R8.s:99202  .debug_str:000000000002ca20 .LASF3759
     /tmp/ccJdQ6R8.s:104332  .debug_str:0000000000041842 .LASF3760
     /tmp/ccJdQ6R8.s:102134  .debug_str:00000000000382e5 .LASF3761
     /tmp/ccJdQ6R8.s:94384  .debug_str:0000000000018c1c .LASF3762
     /tmp/ccJdQ6R8.s:100296  .debug_str:0000000000031235 .LASF3763
     /tmp/ccJdQ6R8.s:106280  .debug_str:0000000000049791 .LASF3764
     /tmp/ccJdQ6R8.s:104348  .debug_str:0000000000041941 .LASF3765
     /tmp/ccJdQ6R8.s:89780  .debug_str:000000000000644b .LASF3766
     /tmp/ccJdQ6R8.s:93860  .debug_str:00000000000169a2 .LASF3767
     /tmp/ccJdQ6R8.s:94498  .debug_str:0000000000019405 .LASF3768
     /tmp/ccJdQ6R8.s:99102  .debug_str:000000000002c332 .LASF3769
     /tmp/ccJdQ6R8.s:94072  .debug_str:00000000000177d6 .LASF3770
     /tmp/ccJdQ6R8.s:97810  .debug_str:0000000000027068 .LASF3771
     /tmp/ccJdQ6R8.s:90192  .debug_str:0000000000007fbc .LASF3772
     /tmp/ccJdQ6R8.s:91712  .debug_str:000000000000e4de .LASF3773
     /tmp/ccJdQ6R8.s:94214  .debug_str:000000000001810c .LASF3774
     /tmp/ccJdQ6R8.s:99056  .debug_str:000000000002c0b5 .LASF3775
     /tmp/ccJdQ6R8.s:97384  .debug_str:000000000002536a .LASF3776
     /tmp/ccJdQ6R8.s:96992  .debug_str:0000000000023f63 .LASF3777
     /tmp/ccJdQ6R8.s:89768  .debug_str:0000000000006383 .LASF3778
     /tmp/ccJdQ6R8.s:106232  .debug_str:0000000000049445 .LASF3779
     /tmp/ccJdQ6R8.s:92194  .debug_str:000000000000ff8c .LASF3780
     /tmp/ccJdQ6R8.s:105498  .debug_str:000000000004627d .LASF3781
     /tmp/ccJdQ6R8.s:98456  .debug_str:0000000000029a57 .LASF3782
     /tmp/ccJdQ6R8.s:94846  .debug_str:000000000001ac1d .LASF3783
     /tmp/ccJdQ6R8.s:93278  .debug_str:00000000000143ee .LASF3784
     /tmp/ccJdQ6R8.s:96130  .debug_str:000000000002067f .LASF3785
     /tmp/ccJdQ6R8.s:90104  .debug_str:00000000000079e8 .LASF3786
     /tmp/ccJdQ6R8.s:102808  .debug_str:000000000003b144 .LASF3787
     /tmp/ccJdQ6R8.s:98510  .debug_str:0000000000029e61 .LASF3788
     /tmp/ccJdQ6R8.s:89682  .debug_str:0000000000005df6 .LASF3789
     /tmp/ccJdQ6R8.s:93558  .debug_str:0000000000015659 .LASF3790
     /tmp/ccJdQ6R8.s:103922  .debug_str:000000000003fbdf .LASF3791
     /tmp/ccJdQ6R8.s:106046  .debug_str:00000000000486a0 .LASF3792
     /tmp/ccJdQ6R8.s:102470  .debug_str:0000000000039a17 .LASF3793
     /tmp/ccJdQ6R8.s:98178  .debug_str:00000000000288bc .LASF3794
     /tmp/ccJdQ6R8.s:99796  .debug_str:000000000002f0e3 .LASF3795
     /tmp/ccJdQ6R8.s:103562  .debug_str:000000000003e26e .LASF3796
     /tmp/ccJdQ6R8.s:106870  .debug_str:000000000004c174 .LASF3797
     /tmp/ccJdQ6R8.s:91586  .debug_str:000000000000ddba .LASF3798
     /tmp/ccJdQ6R8.s:93358  .debug_str:000000000001492c .LASF3799
     /tmp/ccJdQ6R8.s:99010  .debug_str:000000000002bdf2 .LASF3800
     /tmp/ccJdQ6R8.s:96766  .debug_str:0000000000022ff3 .LASF3801
     /tmp/ccJdQ6R8.s:97136  .debug_str:0000000000024617 .LASF3802
     /tmp/ccJdQ6R8.s:96802  .debug_str:000000000002329e .LASF3803
     /tmp/ccJdQ6R8.s:97860  .debug_str:000000000002732c .LASF3804
     /tmp/ccJdQ6R8.s:102584  .debug_str:000000000003a181 .LASF3805
     /tmp/ccJdQ6R8.s:90838  .debug_str:000000000000ab81 .LASF3806
     /tmp/ccJdQ6R8.s:106182  .debug_str:00000000000490c8 .LASF3807
     /tmp/ccJdQ6R8.s:100998  .debug_str:0000000000034040 .LASF3808
     /tmp/ccJdQ6R8.s:107234  .debug_str:000000000004d9da .LASF3809
     /tmp/ccJdQ6R8.s:88962  .debug_str:0000000000002c2e .LASF3810
     /tmp/ccJdQ6R8.s:102324  .debug_str:0000000000038fca .LASF3811
     /tmp/ccJdQ6R8.s:97814  .debug_str:0000000000027095 .LASF3812
     /tmp/ccJdQ6R8.s:90238  .debug_str:00000000000082de .LASF3813
     /tmp/ccJdQ6R8.s:104774  .debug_str:000000000004342f .LASF3814
     /tmp/ccJdQ6R8.s:93274  .debug_str:00000000000143b4 .LASF3815
     /tmp/ccJdQ6R8.s:106008  .debug_str:0000000000048428 .LASF3816
     /tmp/ccJdQ6R8.s:105596  .debug_str:00000000000468e9 .LASF3817
     /tmp/ccJdQ6R8.s:96202  .debug_str:0000000000020b99 .LASF3818
     /tmp/ccJdQ6R8.s:89036  .debug_str:00000000000031c7 .LASF3819
     /tmp/ccJdQ6R8.s:101110  .debug_str:00000000000347fe .LASF3820
     /tmp/ccJdQ6R8.s:88418  .debug_str:000000000000066c .LASF3821
     /tmp/ccJdQ6R8.s:107114  .debug_str:000000000004d1bf .LASF3822
     /tmp/ccJdQ6R8.s:88752  .debug_str:0000000000001cbb .LASF3823
     /tmp/ccJdQ6R8.s:99300  .debug_str:000000000002d025 .LASF3824
     /tmp/ccJdQ6R8.s:107200  .debug_str:000000000004d777 .LASF3825
     /tmp/ccJdQ6R8.s:106326  .debug_str:0000000000049a85 .LASF3826
     /tmp/ccJdQ6R8.s:90812  .debug_str:000000000000a97c .LASF3827
     /tmp/ccJdQ6R8.s:105272  .debug_str:0000000000045362 .LASF3828
     /tmp/ccJdQ6R8.s:95326  .debug_str:000000000001cd6f .LASF3829
     /tmp/ccJdQ6R8.s:106608  .debug_str:000000000004ad43 .LASF3830
     /tmp/ccJdQ6R8.s:97990  .debug_str:0000000000027c2c .LASF3831
     /tmp/ccJdQ6R8.s:97726  .debug_str:0000000000026a68 .LASF3832
     /tmp/ccJdQ6R8.s:90740  .debug_str:000000000000a47d .LASF3833
     /tmp/ccJdQ6R8.s:106148  .debug_str:0000000000048e51 .LASF3834
     /tmp/ccJdQ6R8.s:104772  .debug_str:0000000000043418 .LASF3835
     /tmp/ccJdQ6R8.s:91040  .debug_str:000000000000ba52 .LASF3836
     /tmp/ccJdQ6R8.s:94168  .debug_str:0000000000017e6e .LASF3837
     /tmp/ccJdQ6R8.s:97168  .debug_str:0000000000024811 .LASF3838
     /tmp/ccJdQ6R8.s:95644  .debug_str:000000000001e38b .LASF3839
     /tmp/ccJdQ6R8.s:89358  .debug_str:00000000000047db .LASF3840
     /tmp/ccJdQ6R8.s:89166  .debug_str:0000000000003a44 .LASF3841
     /tmp/ccJdQ6R8.s:94272  .debug_str:000000000001840a .LASF3842
     /tmp/ccJdQ6R8.s:91318  .debug_str:000000000000cd21 .LASF3843
     /tmp/ccJdQ6R8.s:98418  .debug_str:00000000000297c8 .LASF3844
     /tmp/ccJdQ6R8.s:95174  .debug_str:000000000001c331 .LASF3845
     /tmp/ccJdQ6R8.s:105228  .debug_str:000000000004507c .LASF3846
     /tmp/ccJdQ6R8.s:98702  .debug_str:000000000002a9e2 .LASF3847
     /tmp/ccJdQ6R8.s:89494  .debug_str:0000000000005099 .LASF3848
     /tmp/ccJdQ6R8.s:102012  .debug_str:0000000000037c25 .LASF3849
     /tmp/ccJdQ6R8.s:102872  .debug_str:000000000003b580 .LASF3850
     /tmp/ccJdQ6R8.s:91894  .debug_str:000000000000edf2 .LASF3851
     /tmp/ccJdQ6R8.s:96062  .debug_str:00000000000201e6 .LASF3852
     /tmp/ccJdQ6R8.s:89116  .debug_str:00000000000036ba .LASF3853
     /tmp/ccJdQ6R8.s:102178  .debug_str:0000000000038567 .LASF3854
     /tmp/ccJdQ6R8.s:102504  .debug_str:0000000000039be5 .LASF3855
     /tmp/ccJdQ6R8.s:103370  .debug_str:000000000003d67b .LASF3856
     /tmp/ccJdQ6R8.s:100662  .debug_str:00000000000329ea .LASF3857
     /tmp/ccJdQ6R8.s:105162  .debug_str:0000000000044cea .LASF3858
     /tmp/ccJdQ6R8.s:98814  .debug_str:000000000002b132 .LASF3859
     /tmp/ccJdQ6R8.s:95744  .debug_str:000000000001eb46 .LASF3860
     /tmp/ccJdQ6R8.s:92594  .debug_str:0000000000011945 .LASF3861
     /tmp/ccJdQ6R8.s:90762  .debug_str:000000000000a620 .LASF3862
     /tmp/ccJdQ6R8.s:89506  .debug_str:0000000000005191 .LASF3863
     /tmp/ccJdQ6R8.s:90492  .debug_str:000000000000942d .LASF3864
     /tmp/ccJdQ6R8.s:101960  .debug_str:00000000000379db .LASF3865
     /tmp/ccJdQ6R8.s:99414  .debug_str:000000000002d769 .LASF3866
     /tmp/ccJdQ6R8.s:91268  .debug_str:000000000000c94e .LASF3867
     /tmp/ccJdQ6R8.s:103110  .debug_str:000000000003c58f .LASF3868
     /tmp/ccJdQ6R8.s:98032  .debug_str:0000000000027f81 .LASF3869
     /tmp/ccJdQ6R8.s:96740  .debug_str:0000000000022e68 .LASF3870
     /tmp/ccJdQ6R8.s:107112  .debug_str:000000000004d1a9 .LASF3871
     /tmp/ccJdQ6R8.s:97454  .debug_str:000000000002583a .LASF3872
     /tmp/ccJdQ6R8.s:90738  .debug_str:000000000000a467 .LASF3873
     /tmp/ccJdQ6R8.s:101244  .debug_str:00000000000350d1 .LASF3874
     /tmp/ccJdQ6R8.s:106724  .debug_str:000000000004b75a .LASF3875
     /tmp/ccJdQ6R8.s:102114  .debug_str:00000000000381ec .LASF3876
     /tmp/ccJdQ6R8.s:92750  .debug_str:00000000000122cc .LASF3877
     /tmp/ccJdQ6R8.s:103312  .debug_str:000000000003d241 .LASF3878
     /tmp/ccJdQ6R8.s:88616  .debug_str:0000000000001364 .LASF3879
     /tmp/ccJdQ6R8.s:100962  .debug_str:0000000000033da4 .LASF3880
     /tmp/ccJdQ6R8.s:89772  .debug_str:00000000000063a3 .LASF3881
     /tmp/ccJdQ6R8.s:93088  .debug_str:0000000000013939 .LASF3882
     /tmp/ccJdQ6R8.s:91814  .debug_str:000000000000e966 .LASF3883
     /tmp/ccJdQ6R8.s:94522  .debug_str:000000000001952d .LASF3884
     /tmp/ccJdQ6R8.s:97158  .debug_str:000000000002478e .LASF3885
     /tmp/ccJdQ6R8.s:92784  .debug_str:000000000001251a .LASF3886
     /tmp/ccJdQ6R8.s:106814  .debug_str:000000000004bd45 .LASF3887
     /tmp/ccJdQ6R8.s:95494  .debug_str:000000000001d9f4 .LASF3888
     /tmp/ccJdQ6R8.s:104082  .debug_str:0000000000040732 .LASF3889
     /tmp/ccJdQ6R8.s:101938  .debug_str:00000000000378a4 .LASF3890
     /tmp/ccJdQ6R8.s:97872  .debug_str:0000000000027403 .LASF3891
     /tmp/ccJdQ6R8.s:104726  .debug_str:0000000000043191 .LASF3892
     /tmp/ccJdQ6R8.s:102718  .debug_str:000000000003ab62 .LASF3893
     /tmp/ccJdQ6R8.s:93162  .debug_str:0000000000013d72 .LASF3894
     /tmp/ccJdQ6R8.s:97590  .debug_str:0000000000026165 .LASF3895
     /tmp/ccJdQ6R8.s:106360  .debug_str:0000000000049cae .LASF3896
     /tmp/ccJdQ6R8.s:102888  .debug_str:000000000003b67d .LASF3897
     /tmp/ccJdQ6R8.s:92646  .debug_str:0000000000011cc9 .LASF3898
     /tmp/ccJdQ6R8.s:104630  .debug_str:0000000000042b91 .LASF3899
     /tmp/ccJdQ6R8.s:95818  .debug_str:000000000001f003 .LASF3900
     /tmp/ccJdQ6R8.s:106646  .debug_str:000000000004b08c .LASF3901
     /tmp/ccJdQ6R8.s:94746  .debug_str:000000000001a5da .LASF3902
     /tmp/ccJdQ6R8.s:104114  .debug_str:0000000000040929 .LASF3903
     /tmp/ccJdQ6R8.s:92462  .debug_str:0000000000010f86 .LASF3904
     /tmp/ccJdQ6R8.s:98472  .debug_str:0000000000029b24 .LASF3905
     /tmp/ccJdQ6R8.s:105936  .debug_str:0000000000047f81 .LASF3906
     /tmp/ccJdQ6R8.s:99248  .debug_str:000000000002cd22 .LASF3907
     /tmp/ccJdQ6R8.s:91802  .debug_str:000000000000e89f .LASF3908
     /tmp/ccJdQ6R8.s:99036  .debug_str:000000000002bf75 .LASF3909
     /tmp/ccJdQ6R8.s:92234  .debug_str:00000000000101ef .LASF3910
     /tmp/ccJdQ6R8.s:105060  .debug_str:00000000000445e6 .LASF3911
     /tmp/ccJdQ6R8.s:92438  .debug_str:0000000000010e3b .LASF3912
     /tmp/ccJdQ6R8.s:88754  .debug_str:0000000000001cd2 .LASF3913
     /tmp/ccJdQ6R8.s:92112  .debug_str:000000000000fa9b .LASF3914
     /tmp/ccJdQ6R8.s:107196  .debug_str:000000000004d752 .LASF3915
     /tmp/ccJdQ6R8.s:100696  .debug_str:0000000000032c27 .LASF3916
     /tmp/ccJdQ6R8.s:106820  .debug_str:000000000004bdbf .LASF3917
     /tmp/ccJdQ6R8.s:88596  .debug_str:00000000000011fe .LASF3918
     /tmp/ccJdQ6R8.s:104270  .debug_str:000000000004134b .LASF3919
     /tmp/ccJdQ6R8.s:105508  .debug_str:000000000004630d .LASF3920
     /tmp/ccJdQ6R8.s:93984  .debug_str:00000000000172e0 .LASF3921
     /tmp/ccJdQ6R8.s:96426  .debug_str:0000000000021991 .LASF3922
     /tmp/ccJdQ6R8.s:94616  .debug_str:0000000000019c32 .LASF3923
     /tmp/ccJdQ6R8.s:106016  .debug_str:00000000000484be .LASF3924
     /tmp/ccJdQ6R8.s:102860  .debug_str:000000000003b4c2 .LASF3925
     /tmp/ccJdQ6R8.s:102828  .debug_str:000000000003b292 .LASF3926
     /tmp/ccJdQ6R8.s:100896  .debug_str:0000000000033913 .LASF3927
     /tmp/ccJdQ6R8.s:102168  .debug_str:0000000000038492 .LASF3928
     /tmp/ccJdQ6R8.s:97924  .debug_str:00000000000277c8 .LASF3929
     /tmp/ccJdQ6R8.s:99228  .debug_str:000000000002cbce .LASF3930
     /tmp/ccJdQ6R8.s:100158  .debug_str:0000000000030818 .LASF3931
     /tmp/ccJdQ6R8.s:107220  .debug_str:000000000004d91f .LASF3932
     /tmp/ccJdQ6R8.s:102966  .debug_str:000000000003bb99 .LASF3933
     /tmp/ccJdQ6R8.s:106000  .debug_str:000000000004838e .LASF3934
     /tmp/ccJdQ6R8.s:92440  .debug_str:0000000000010e55 .LASF3935
     /tmp/ccJdQ6R8.s:99318  .debug_str:000000000002d16d .LASF3936
     /tmp/ccJdQ6R8.s:95248  .debug_str:000000000001c885 .LASF3937
     /tmp/ccJdQ6R8.s:97832  .debug_str:0000000000027187 .LASF3938
     /tmp/ccJdQ6R8.s:101192  .debug_str:0000000000034d55 .LASF3939
     /tmp/ccJdQ6R8.s:106568  .debug_str:000000000004aa98 .LASF3940
     /tmp/ccJdQ6R8.s:101054  .debug_str:000000000003447a .LASF3941
     /tmp/ccJdQ6R8.s:106808  .debug_str:000000000004bcfe .LASF3942
     /tmp/ccJdQ6R8.s:98356  .debug_str:00000000000294a3 .LASF3943
     /tmp/ccJdQ6R8.s:105928  .debug_str:0000000000047f07 .LASF3944
     /tmp/ccJdQ6R8.s:90510  .debug_str:0000000000009592 .LASF3945
     /tmp/ccJdQ6R8.s:98114  .debug_str:000000000002845e .LASF3946
     /tmp/ccJdQ6R8.s:100776  .debug_str:000000000003312f .LASF3947
     /tmp/ccJdQ6R8.s:102900  .debug_str:000000000003b71a .LASF3948
     /tmp/ccJdQ6R8.s:96308  .debug_str:000000000002126f .LASF3949
     /tmp/ccJdQ6R8.s:91488  .debug_str:000000000000d76f .LASF3950
     /tmp/ccJdQ6R8.s:105474  .debug_str:00000000000460ee .LASF3951
     /tmp/ccJdQ6R8.s:96330  .debug_str:0000000000021356 .LASF3952
     /tmp/ccJdQ6R8.s:106036  .debug_str:00000000000485f8 .LASF3953
     /tmp/ccJdQ6R8.s:91016  .debug_str:000000000000b8a6 .LASF3954
     /tmp/ccJdQ6R8.s:106884  .debug_str:000000000004c231 .LASF3955
     /tmp/ccJdQ6R8.s:104208  .debug_str:0000000000040ef3 .LASF3956
     /tmp/ccJdQ6R8.s:103132  .debug_str:000000000003c72b .LASF3957
     /tmp/ccJdQ6R8.s:88816  .debug_str:0000000000002197 .LASF3958
     /tmp/ccJdQ6R8.s:105016  .debug_str:0000000000044382 .LASF3959
     /tmp/ccJdQ6R8.s:95266  .debug_str:000000000001c966 .LASF3960
     /tmp/ccJdQ6R8.s:94002  .debug_str:000000000001741c .LASF3961
     /tmp/ccJdQ6R8.s:89854  .debug_str:00000000000069cf .LASF3962
     /tmp/ccJdQ6R8.s:100988  .debug_str:0000000000033fb2 .LASF3963
     /tmp/ccJdQ6R8.s:105108  .debug_str:00000000000448ce .LASF3964
     /tmp/ccJdQ6R8.s:102654  .debug_str:000000000003a6b2 .LASF3965
     /tmp/ccJdQ6R8.s:97636  .debug_str:00000000000263d4 .LASF3966
     /tmp/ccJdQ6R8.s:102118  .debug_str:0000000000038222 .LASF3967
     /tmp/ccJdQ6R8.s:99682  .debug_str:000000000002e96a .LASF3968
     /tmp/ccJdQ6R8.s:101324  .debug_str:00000000000355ac .LASF3969
     /tmp/ccJdQ6R8.s:105580  .debug_str:00000000000467d7 .LASF3970
     /tmp/ccJdQ6R8.s:96332  .debug_str:0000000000021367 .LASF3971
     /tmp/ccJdQ6R8.s:105336  .debug_str:000000000004581e .LASF3972
     /tmp/ccJdQ6R8.s:88368  .debug_str:00000000000002ac .LASF3973
     /tmp/ccJdQ6R8.s:90944  .debug_str:000000000000b326 .LASF3974
     /tmp/ccJdQ6R8.s:103196  .debug_str:000000000003cb48 .LASF3975
     /tmp/ccJdQ6R8.s:96380  .debug_str:0000000000021730 .LASF3976
     /tmp/ccJdQ6R8.s:105960  .debug_str:0000000000048134 .LASF3977
     /tmp/ccJdQ6R8.s:93254  .debug_str:00000000000142f2 .LASF3978
     /tmp/ccJdQ6R8.s:92946  .debug_str:0000000000013031 .LASF3979
     /tmp/ccJdQ6R8.s:102094  .debug_str:0000000000038097 .LASF3980
     /tmp/ccJdQ6R8.s:89050  .debug_str:00000000000032c1 .LASF3981
     /tmp/ccJdQ6R8.s:103290  .debug_str:000000000003d099 .LASF3982
     /tmp/ccJdQ6R8.s:92676  .debug_str:0000000000011eef .LASF3983
     /tmp/ccJdQ6R8.s:94142  .debug_str:0000000000017cc2 .LASF3984
     /tmp/ccJdQ6R8.s:101560  .debug_str:000000000003648e .LASF3985
     /tmp/ccJdQ6R8.s:91252  .debug_str:000000000000c83d .LASF3986
     /tmp/ccJdQ6R8.s:98890  .debug_str:000000000002b652 .LASF3987
     /tmp/ccJdQ6R8.s:99104  .debug_str:000000000002c347 .LASF3988
     /tmp/ccJdQ6R8.s:104426  .debug_str:0000000000041ddc .LASF3989
     /tmp/ccJdQ6R8.s:97834  .debug_str:00000000000271a2 .LASF3990
     /tmp/ccJdQ6R8.s:94508  .debug_str:0000000000019455 .LASF3991
     /tmp/ccJdQ6R8.s:89068  .debug_str:00000000000033ac .LASF3992
     /tmp/ccJdQ6R8.s:97660  .debug_str:0000000000026587 .LASF3993
     /tmp/ccJdQ6R8.s:88954  .debug_str:0000000000002b92 .LASF3994
     /tmp/ccJdQ6R8.s:99584  .debug_str:000000000002e309 .LASF3995
     /tmp/ccJdQ6R8.s:103224  .debug_str:000000000003cd5d .LASF3996
     /tmp/ccJdQ6R8.s:92648  .debug_str:0000000000011ce3 .LASF3997
     /tmp/ccJdQ6R8.s:93180  .debug_str:0000000000013ea2 .LASF3998
     /tmp/ccJdQ6R8.s:101464  .debug_str:0000000000035e9a .LASF3999
     /tmp/ccJdQ6R8.s:97334  .debug_str:000000000002505d .LASF4000
     /tmp/ccJdQ6R8.s:106498  .debug_str:000000000004a680 .LASF4001
     /tmp/ccJdQ6R8.s:98240  .debug_str:0000000000028ce0 .LASF4002
     /tmp/ccJdQ6R8.s:106240  .debug_str:00000000000494e7 .LASF4003
     /tmp/ccJdQ6R8.s:98000  .debug_str:0000000000027cee .LASF4004
     /tmp/ccJdQ6R8.s:92742  .debug_str:0000000000012269 .LASF4005
     /tmp/ccJdQ6R8.s:104970  .debug_str:000000000004411e .LASF4006
     /tmp/ccJdQ6R8.s:102492  .debug_str:0000000000039b39 .LASF4007
     /tmp/ccJdQ6R8.s:105802  .debug_str:0000000000047746 .LASF4008
     /tmp/ccJdQ6R8.s:101140  .debug_str:00000000000349c3 .LASF4009
     /tmp/ccJdQ6R8.s:102138  .debug_str:000000000003831a .LASF4010
     /tmp/ccJdQ6R8.s:91046  .debug_str:000000000000baa0 .LASF4011
     /tmp/ccJdQ6R8.s:103612  .debug_str:000000000003e5d3 .LASF4012
     /tmp/ccJdQ6R8.s:101302  .debug_str:000000000003547a .LASF4013
     /tmp/ccJdQ6R8.s:95626  .debug_str:000000000001e262 .LASF4014
     /tmp/ccJdQ6R8.s:106526  .debug_str:000000000004a857 .LASF4015
     /tmp/ccJdQ6R8.s:101256  .debug_str:0000000000035195 .LASF4016
     /tmp/ccJdQ6R8.s:93566  .debug_str:00000000000156a2 .LASF4017
     /tmp/ccJdQ6R8.s:91946  .debug_str:000000000000f0a0 .LASF4018
     /tmp/ccJdQ6R8.s:99044  .debug_str:000000000002bfbd .LASF4019
     /tmp/ccJdQ6R8.s:105714  .debug_str:00000000000471a9 .LASF4020
     /tmp/ccJdQ6R8.s:91878  .debug_str:000000000000ecfd .LASF4021
     /tmp/ccJdQ6R8.s:98304  .debug_str:00000000000290cf .LASF4022
     /tmp/ccJdQ6R8.s:102954  .debug_str:000000000003ba97 .LASF4023
     /tmp/ccJdQ6R8.s:88644  .debug_str:0000000000001502 .LASF4024
     /tmp/ccJdQ6R8.s:89224  .debug_str:0000000000003e2b .LASF4025
     /tmp/ccJdQ6R8.s:99048  .debug_str:000000000002c00f .LASF4026
     /tmp/ccJdQ6R8.s:99462  .debug_str:000000000002da23 .LASF4027
     /tmp/ccJdQ6R8.s:91104  .debug_str:000000000000be48 .LASF4028
     /tmp/ccJdQ6R8.s:103756  .debug_str:000000000003f000 .LASF4029
     /tmp/ccJdQ6R8.s:95126  .debug_str:000000000001c02b .LASF4030
     /tmp/ccJdQ6R8.s:100032  .debug_str:000000000002ffd9 .LASF4031
     /tmp/ccJdQ6R8.s:106440  .debug_str:000000000004a229 .LASF4032
     /tmp/ccJdQ6R8.s:102866  .debug_str:000000000003b52c .LASF4033
     /tmp/ccJdQ6R8.s:92494  .debug_str:0000000000011231 .LASF4034
     /tmp/ccJdQ6R8.s:104700  .debug_str:0000000000042fd2 .LASF4035
     /tmp/ccJdQ6R8.s:102918  .debug_str:000000000003b819 .LASF4036
     /tmp/ccJdQ6R8.s:101956  .debug_str:00000000000379bd .LASF4037
     /tmp/ccJdQ6R8.s:96416  .debug_str:0000000000021923 .LASF4038
     /tmp/ccJdQ6R8.s:99468  .debug_str:000000000002da8f .LASF4039
     /tmp/ccJdQ6R8.s:92122  .debug_str:000000000000fb71 .LASF4040
     /tmp/ccJdQ6R8.s:95774  .debug_str:000000000001ed5a .LASF4041
     /tmp/ccJdQ6R8.s:91250  .debug_str:000000000000c829 .LASF4042
     /tmp/ccJdQ6R8.s:91122  .debug_str:000000000000bf66 .LASF4043
     /tmp/ccJdQ6R8.s:91750  .debug_str:000000000000e695 .LASF4044
     /tmp/ccJdQ6R8.s:100980  .debug_str:0000000000033f59 .LASF4045
     /tmp/ccJdQ6R8.s:93412  .debug_str:0000000000014ca1 .LASF4046
     /tmp/ccJdQ6R8.s:90676  .debug_str:000000000000a040 .LASF4047
     /tmp/ccJdQ6R8.s:105878  .debug_str:0000000000047bf9 .LASF4048
     /tmp/ccJdQ6R8.s:97218  .debug_str:00000000000249f5 .LASF4049
     /tmp/ccJdQ6R8.s:100408  .debug_str:00000000000319d3 .LASF4050
     /tmp/ccJdQ6R8.s:90450  .debug_str:0000000000009122 .LASF4051
     /tmp/ccJdQ6R8.s:103802  .debug_str:000000000003f38e .LASF4052
     /tmp/ccJdQ6R8.s:95146  .debug_str:000000000001c16c .LASF4053
     /tmp/ccJdQ6R8.s:96268  .debug_str:0000000000021078 .LASF4054
     /tmp/ccJdQ6R8.s:105922  .debug_str:0000000000047eb0 .LASF4055
     /tmp/ccJdQ6R8.s:103900  .debug_str:000000000003fa72 .LASF4056
     /tmp/ccJdQ6R8.s:98536  .debug_str:0000000000029faa .LASF4057
     /tmp/ccJdQ6R8.s:107014  .debug_str:000000000004cb06 .LASF4058
     /tmp/ccJdQ6R8.s:105524  .debug_str:000000000004643f .LASF4059
     /tmp/ccJdQ6R8.s:97622  .debug_str:00000000000262d1 .LASF4060
     /tmp/ccJdQ6R8.s:97022  .debug_str:0000000000024033 .LASF4061
     /tmp/ccJdQ6R8.s:94698  .debug_str:000000000001a2ac .LASF4062
     /tmp/ccJdQ6R8.s:95532  .debug_str:000000000001dc95 .LASF4063
     /tmp/ccJdQ6R8.s:94982  .debug_str:000000000001b5dc .LASF4064
     /tmp/ccJdQ6R8.s:100712  .debug_str:0000000000032d4e .LASF4065
     /tmp/ccJdQ6R8.s:99374  .debug_str:000000000002d450 .LASF4066
     /tmp/ccJdQ6R8.s:105150  .debug_str:0000000000044bdc .LASF4067
     /tmp/ccJdQ6R8.s:102660  .debug_str:000000000003a725 .LASF4068
     /tmp/ccJdQ6R8.s:103144  .debug_str:000000000003c7ee .LASF4069
     /tmp/ccJdQ6R8.s:91044  .debug_str:000000000000ba84 .LASF4070
     /tmp/ccJdQ6R8.s:94638  .debug_str:0000000000019df6 .LASF4071
     /tmp/ccJdQ6R8.s:88970  .debug_str:0000000000002cc1 .LASF4072
     /tmp/ccJdQ6R8.s:90370  .debug_str:0000000000008bec .LASF4073
     /tmp/ccJdQ6R8.s:94590  .debug_str:0000000000019a94 .LASF4074
     /tmp/ccJdQ6R8.s:94022  .debug_str:0000000000017512 .LASF4075
     /tmp/ccJdQ6R8.s:106112  .debug_str:0000000000048bc3 .LASF4076
     /tmp/ccJdQ6R8.s:93570  .debug_str:00000000000156d5 .LASF4077
     /tmp/ccJdQ6R8.s:91660  .debug_str:000000000000e1c2 .LASF4078
     /tmp/ccJdQ6R8.s:94936  .debug_str:000000000001b2b4 .LASF4079
     /tmp/ccJdQ6R8.s:97566  .debug_str:0000000000025fcf .LASF4080
     /tmp/ccJdQ6R8.s:96054  .debug_str:0000000000020187 .LASF4081
     /tmp/ccJdQ6R8.s:97430  .debug_str:000000000002563d .LASF4082
     /tmp/ccJdQ6R8.s:91484  .debug_str:000000000000d727 .LASF4083
     /tmp/ccJdQ6R8.s:94720  .debug_str:000000000001a43e .LASF4084
     /tmp/ccJdQ6R8.s:103776  .debug_str:000000000003f15b .LASF4085
     /tmp/ccJdQ6R8.s:92318  .debug_str:0000000000010750 .LASF4086
     /tmp/ccJdQ6R8.s:94878  .debug_str:000000000001ae5d .LASF4087
     /tmp/ccJdQ6R8.s:98618  .debug_str:000000000002a511 .LASF4088
     /tmp/ccJdQ6R8.s:92258  .debug_str:00000000000102b6 .LASF4089
     /tmp/ccJdQ6R8.s:102602  .debug_str:000000000003a2ac .LASF4090
     /tmp/ccJdQ6R8.s:94030  .debug_str:0000000000017568 .LASF4091
     /tmp/ccJdQ6R8.s:90532  .debug_str:0000000000009749 .LASF4092
     /tmp/ccJdQ6R8.s:92210  .debug_str:000000000001008a .LASF4093
     /tmp/ccJdQ6R8.s:97844  .debug_str:000000000002721d .LASF4094
     /tmp/ccJdQ6R8.s:90984  .debug_str:000000000000b69e .LASF4095
     /tmp/ccJdQ6R8.s:96192  .debug_str:0000000000020aea .LASF4096
     /tmp/ccJdQ6R8.s:95482  .debug_str:000000000001d93e .LASF4097
     /tmp/ccJdQ6R8.s:105432  .debug_str:0000000000045e58 .LASF4098
     /tmp/ccJdQ6R8.s:105262  .debug_str:00000000000452bb .LASF4099
     /tmp/ccJdQ6R8.s:92816  .debug_str:0000000000012735 .LASF4100
     /tmp/ccJdQ6R8.s:95484  .debug_str:000000000001d95d .LASF4101
     /tmp/ccJdQ6R8.s:91534  .debug_str:000000000000da51 .LASF4102
     /tmp/ccJdQ6R8.s:97360  .debug_str:00000000000251d3 .LASF4103
     /tmp/ccJdQ6R8.s:102634  .debug_str:000000000003a50f .LASF4104
     /tmp/ccJdQ6R8.s:100548  .debug_str:0000000000032257 .LASF4105
     /tmp/ccJdQ6R8.s:104742  .debug_str:0000000000043274 .LASF4106
     /tmp/ccJdQ6R8.s:106958  .debug_str:000000000004c73b .LASF4107
     /tmp/ccJdQ6R8.s:99974  .debug_str:000000000002fc92 .LASF4108
     /tmp/ccJdQ6R8.s:98988  .debug_str:000000000002bcab .LASF4109
     /tmp/ccJdQ6R8.s:89066  .debug_str:000000000000339d .LASF4110
     /tmp/ccJdQ6R8.s:101628  .debug_str:000000000003687e .LASF4111
     /tmp/ccJdQ6R8.s:96300  .debug_str:0000000000021223 .LASF4112
     /tmp/ccJdQ6R8.s:100298  .debug_str:000000000003124a .LASF4113
     /tmp/ccJdQ6R8.s:92772  .debug_str:0000000000012456 .LASF4114
     /tmp/ccJdQ6R8.s:98328  .debug_str:00000000000292a6 .LASF4115
     /tmp/ccJdQ6R8.s:90434  .debug_str:0000000000009011 .LASF4116
     /tmp/ccJdQ6R8.s:98816  .debug_str:000000000002b148 .LASF4117
     /tmp/ccJdQ6R8.s:107104  .debug_str:000000000004d0f1 .LASF4118
     /tmp/ccJdQ6R8.s:89168  .debug_str:0000000000003a5d .LASF4119
     /tmp/ccJdQ6R8.s:94154  .debug_str:0000000000017d91 .LASF4120
     /tmp/ccJdQ6R8.s:99204  .debug_str:000000000002ca37 .LASF4121
     /tmp/ccJdQ6R8.s:102734  .debug_str:000000000003ac6d .LASF4122
     /tmp/ccJdQ6R8.s:100994  .debug_str:0000000000033fff .LASF4123
     /tmp/ccJdQ6R8.s:93828  .debug_str:0000000000016752 .LASF4124
     /tmp/ccJdQ6R8.s:95320  .debug_str:000000000001cd04 .LASF4125
     /tmp/ccJdQ6R8.s:95222  .debug_str:000000000001c639 .LASF4126
     /tmp/ccJdQ6R8.s:89654  .debug_str:0000000000005c22 .LASF4127
     /tmp/ccJdQ6R8.s:89348  .debug_str:00000000000046e9 .LASF4128
     /tmp/ccJdQ6R8.s:103044  .debug_str:000000000003c0fc .LASF4129
     /tmp/ccJdQ6R8.s:106094  .debug_str:0000000000048a76 .LASF4130
     /tmp/ccJdQ6R8.s:99388  .debug_str:000000000002d556 .LASF4131
     /tmp/ccJdQ6R8.s:103912  .debug_str:000000000003fb77 .LASF4132
     /tmp/ccJdQ6R8.s:95894  .debug_str:000000000001f5ed .LASF4133
     /tmp/ccJdQ6R8.s:104224  .debug_str:0000000000041002 .LASF4134
     /tmp/ccJdQ6R8.s:94034  .debug_str:00000000000175b6 .LASF4135
     /tmp/ccJdQ6R8.s:90926  .debug_str:000000000000b207 .LASF4136
     /tmp/ccJdQ6R8.s:107160  .debug_str:000000000004d4c1 .LASF4137
     /tmp/ccJdQ6R8.s:89158  .debug_str:00000000000039b0 .LASF4138
     /tmp/ccJdQ6R8.s:89240  .debug_str:0000000000003f53 .LASF4139
     /tmp/ccJdQ6R8.s:101204  .debug_str:0000000000034e0d .LASF4140
     /tmp/ccJdQ6R8.s:96056  .debug_str:000000000002019e .LASF4141
     /tmp/ccJdQ6R8.s:95414  .debug_str:000000000001d403 .LASF4142
     /tmp/ccJdQ6R8.s:106290  .debug_str:000000000004983d .LASF4143
     /tmp/ccJdQ6R8.s:95240  .debug_str:000000000001c7b5 .LASF4144
     /tmp/ccJdQ6R8.s:106792  .debug_str:000000000004bba4 .LASF4145
     /tmp/ccJdQ6R8.s:100352  .debug_str:000000000003166b .LASF4146
     /tmp/ccJdQ6R8.s:91800  .debug_str:000000000000e88f .LASF4147
     /tmp/ccJdQ6R8.s:93108  .debug_str:0000000000013a3d .LASF4148
     /tmp/ccJdQ6R8.s:99562  .debug_str:000000000002e18d .LASF4149
     /tmp/ccJdQ6R8.s:103358  .debug_str:000000000003d579 .LASF4150
     /tmp/ccJdQ6R8.s:88992  .debug_str:0000000000002ee7 .LASF4151
     /tmp/ccJdQ6R8.s:89538  .debug_str:00000000000053f1 .LASF4152
     /tmp/ccJdQ6R8.s:100076  .debug_str:0000000000030337 .LASF4153
     /tmp/ccJdQ6R8.s:97150  .debug_str:000000000002472f .LASF4154
     /tmp/ccJdQ6R8.s:88636  .debug_str:0000000000001481 .LASF4155
     /tmp/ccJdQ6R8.s:90232  .debug_str:00000000000082b6 .LASF4156
     /tmp/ccJdQ6R8.s:104046  .debug_str:0000000000040456 .LASF4157
     /tmp/ccJdQ6R8.s:89890  .debug_str:0000000000006c7d .LASF4158
     /tmp/ccJdQ6R8.s:95746  .debug_str:000000000001eb5d .LASF4159
     /tmp/ccJdQ6R8.s:88632  .debug_str:000000000000144a .LASF4160
     /tmp/ccJdQ6R8.s:95982  .debug_str:000000000001fd33 .LASF4161
     /tmp/ccJdQ6R8.s:90448  .debug_str:000000000000910f .LASF4162
     /tmp/ccJdQ6R8.s:100380  .debug_str:0000000000031853 .LASF4163
     /tmp/ccJdQ6R8.s:102056  .debug_str:0000000000037f3d .LASF4164
     /tmp/ccJdQ6R8.s:104972  .debug_str:0000000000044131 .LASF4165
     /tmp/ccJdQ6R8.s:106198  .debug_str:00000000000491db .LASF4166
     /tmp/ccJdQ6R8.s:99782  .debug_str:000000000002efd7 .LASF4167
     /tmp/ccJdQ6R8.s:89128  .debug_str:00000000000037a5 .LASF4168
     /tmp/ccJdQ6R8.s:90096  .debug_str:0000000000007973 .LASF4169
     /tmp/ccJdQ6R8.s:95264  .debug_str:000000000001c954 .LASF4170
     /tmp/ccJdQ6R8.s:98244  .debug_str:0000000000028d12 .LASF4171
     /tmp/ccJdQ6R8.s:106538  .debug_str:000000000004a908 .LASF4172
     /tmp/ccJdQ6R8.s:96012  .debug_str:000000000001ff04 .LASF4173
     /tmp/ccJdQ6R8.s:104338  .debug_str:0000000000041896 .LASF4174
     /tmp/ccJdQ6R8.s:96560  .debug_str:0000000000022270 .LASF4175
     /tmp/ccJdQ6R8.s:102208  .debug_str:00000000000387b3 .LASF4176
     /tmp/ccJdQ6R8.s:91446  .debug_str:000000000000d548 .LASF4177
     /tmp/ccJdQ6R8.s:103944  .debug_str:000000000003fd1f .LASF4178
     /tmp/ccJdQ6R8.s:102892  .debug_str:000000000003b6ae .LASF4179
     /tmp/ccJdQ6R8.s:100094  .debug_str:0000000000030473 .LASF4180
     /tmp/ccJdQ6R8.s:102928  .debug_str:000000000003b90b .LASF4181
     /tmp/ccJdQ6R8.s:92262  .debug_str:000000000001030b .LASF4182
     /tmp/ccJdQ6R8.s:100734  .debug_str:0000000000032e64 .LASF4183
     /tmp/ccJdQ6R8.s:105138  .debug_str:0000000000044b22 .LASF4184
     /tmp/ccJdQ6R8.s:98548  .debug_str:000000000002a013 .LASF4185
     /tmp/ccJdQ6R8.s:106840  .debug_str:000000000004bf51 .LASF4186
     /tmp/ccJdQ6R8.s:92874  .debug_str:0000000000012c04 .LASF4187
     /tmp/ccJdQ6R8.s:94220  .debug_str:0000000000018170 .LASF4188
     /tmp/ccJdQ6R8.s:96748  .debug_str:0000000000022eef .LASF4189
     /tmp/ccJdQ6R8.s:90912  .debug_str:000000000000b0dc .LASF4190
     /tmp/ccJdQ6R8.s:105380  .debug_str:0000000000045b49 .LASF4191
     /tmp/ccJdQ6R8.s:102692  .debug_str:000000000003a972 .LASF4192
     /tmp/ccJdQ6R8.s:102512  .debug_str:0000000000039c38 .LASF4193
     /tmp/ccJdQ6R8.s:92178  .debug_str:000000000000fe53 .LASF4194
     /tmp/ccJdQ6R8.s:94120  .debug_str:0000000000017b77 .LASF4195
     /tmp/ccJdQ6R8.s:92024  .debug_str:000000000000f5f5 .LASF4196
     /tmp/ccJdQ6R8.s:102054  .debug_str:0000000000037f26 .LASF4197
     /tmp/ccJdQ6R8.s:103632  .debug_str:000000000003e6c2 .LASF4198
     /tmp/ccJdQ6R8.s:95922  .debug_str:000000000001f7f5 .LASF4199
     /tmp/ccJdQ6R8.s:104252  .debug_str:0000000000041247 .LASF4200
     /tmp/ccJdQ6R8.s:93690  .debug_str:0000000000015e19 .LASF4201
     /tmp/ccJdQ6R8.s:102132  .debug_str:00000000000382ce .LASF4202
     /tmp/ccJdQ6R8.s:104586  .debug_str:0000000000042890 .LASF4203
     /tmp/ccJdQ6R8.s:101856  .debug_str:0000000000037470 .LASF4204
     /tmp/ccJdQ6R8.s:95506  .debug_str:000000000001da95 .LASF4205
     /tmp/ccJdQ6R8.s:103858  .debug_str:000000000003f80d .LASF4206
     /tmp/ccJdQ6R8.s:93306  .debug_str:00000000000145d8 .LASF4207
     /tmp/ccJdQ6R8.s:90430  .debug_str:0000000000008fd1 .LASF4208
     /tmp/ccJdQ6R8.s:91002  .debug_str:000000000000b7d3 .LASF4209
     /tmp/ccJdQ6R8.s:99548  .debug_str:000000000002e0a5 .LASF4210
     /tmp/ccJdQ6R8.s:101116  .debug_str:0000000000034855 .LASF4211
     /tmp/ccJdQ6R8.s:101320  .debug_str:0000000000035552 .LASF4212
     /tmp/ccJdQ6R8.s:89176  .debug_str:0000000000003aea .LASF4213
     /tmp/ccJdQ6R8.s:105748  .debug_str:00000000000473ce .LASF4214
     /tmp/ccJdQ6R8.s:89042  .debug_str:0000000000003246 .LASF4215
     /tmp/ccJdQ6R8.s:95350  .debug_str:000000000001cf80 .LASF4216
     /tmp/ccJdQ6R8.s:91792  .debug_str:000000000000e80c .LASF4217
     /tmp/ccJdQ6R8.s:93152  .debug_str:0000000000013cf6 .LASF4218
     /tmp/ccJdQ6R8.s:93810  .debug_str:000000000001665a .LASF4219
     /tmp/ccJdQ6R8.s:95028  .debug_str:000000000001b937 .LASF4220
     /tmp/ccJdQ6R8.s:99426  .debug_str:000000000002d800 .LASF4221
     /tmp/ccJdQ6R8.s:88748  .debug_str:0000000000001c92 .LASF4222
     /tmp/ccJdQ6R8.s:99716  .debug_str:000000000002eb77 .LASF4223
     /tmp/ccJdQ6R8.s:89070  .debug_str:00000000000033c1 .LASF4224
     /tmp/ccJdQ6R8.s:104386  .debug_str:0000000000041b53 .LASF4225
     /tmp/ccJdQ6R8.s:102980  .debug_str:000000000003bc67 .LASF4226
     /tmp/ccJdQ6R8.s:98188  .debug_str:0000000000028947 .LASF4227
     /tmp/ccJdQ6R8.s:103718  .debug_str:000000000003ed59 .LASF4228
     /tmp/ccJdQ6R8.s:92484  .debug_str:0000000000011186 .LASF4229
     /tmp/ccJdQ6R8.s:100022  .debug_str:000000000002ff77 .LASF4230
     /tmp/ccJdQ6R8.s:105812  .debug_str:00000000000477ea .LASF4231
     /tmp/ccJdQ6R8.s:106242  .debug_str:00000000000494f8 .LASF4232
     /tmp/ccJdQ6R8.s:93554  .debug_str:0000000000015627 .LASF4233
     /tmp/ccJdQ6R8.s:101976  .debug_str:0000000000037ad0 .LASF4234
     /tmp/ccJdQ6R8.s:106206  .debug_str:0000000000049290 .LASF4235
     /tmp/ccJdQ6R8.s:99756  .debug_str:000000000002ee46 .LASF4236
     /tmp/ccJdQ6R8.s:89104  .debug_str:00000000000035b5 .LASF4237
     /tmp/ccJdQ6R8.s:97522  .debug_str:0000000000025d0b .LASF4238
     /tmp/ccJdQ6R8.s:105846  .debug_str:000000000004799d .LASF4239
     /tmp/ccJdQ6R8.s:95288  .debug_str:000000000001cad1 .LASF4240
     /tmp/ccJdQ6R8.s:103460  .debug_str:000000000003dc65 .LASF4241
     /tmp/ccJdQ6R8.s:94242  .debug_str:0000000000018250 .LASF4242
     /tmp/ccJdQ6R8.s:103946  .debug_str:000000000003fd32 .LASF4243
     /tmp/ccJdQ6R8.s:93386  .debug_str:0000000000014aff .LASF4244
     /tmp/ccJdQ6R8.s:101812  .debug_str:00000000000372fa .LASF4245
     /tmp/ccJdQ6R8.s:91062  .debug_str:000000000000bb84 .LASF4246
     /tmp/ccJdQ6R8.s:99226  .debug_str:000000000002cbb8 .LASF4247
     /tmp/ccJdQ6R8.s:88986  .debug_str:0000000000002e52 .LASF4248
     /tmp/ccJdQ6R8.s:97210  .debug_str:0000000000024982 .LASF4249
     /tmp/ccJdQ6R8.s:105570  .debug_str:000000000004671c .LASF4250
     /tmp/ccJdQ6R8.s:95002  .debug_str:000000000001b761 .LASF4251
     /tmp/ccJdQ6R8.s:105996  .debug_str:0000000000048353 .LASF4252
     /tmp/ccJdQ6R8.s:89956  .debug_str:00000000000070d4 .LASF4253
     /tmp/ccJdQ6R8.s:104988  .debug_str:00000000000441d4 .LASF4254
     /tmp/ccJdQ6R8.s:106442  .debug_str:000000000004a23c .LASF4255
     /tmp/ccJdQ6R8.s:95906  .debug_str:000000000001f6d1 .LASF4256
     /tmp/ccJdQ6R8.s:95024  .debug_str:000000000001b919 .LASF4257
     /tmp/ccJdQ6R8.s:94510  .debug_str:0000000000019466 .LASF4258
     /tmp/ccJdQ6R8.s:106010  .debug_str:0000000000048442 .LASF4259
     /tmp/ccJdQ6R8.s:95780  .debug_str:000000000001ed8d .LASF4260
     /tmp/ccJdQ6R8.s:98908  .debug_str:000000000002b77e .LASF4261
     /tmp/ccJdQ6R8.s:90208  .debug_str:00000000000080e6 .LASF4262
     /tmp/ccJdQ6R8.s:100730  .debug_str:0000000000032e09 .LASF4263
     /tmp/ccJdQ6R8.s:92064  .debug_str:000000000000f888 .LASF4264
     /tmp/ccJdQ6R8.s:99964  .debug_str:000000000002fc24 .LASF4265
     /tmp/ccJdQ6R8.s:92700  .debug_str:0000000000012012 .LASF4266
     /tmp/ccJdQ6R8.s:93310  .debug_str:000000000001462b .LASF4267
     /tmp/ccJdQ6R8.s:102940  .debug_str:000000000003b9c3 .LASF4268
     /tmp/ccJdQ6R8.s:102738  .debug_str:000000000003aca6 .LASF4269
     /tmp/ccJdQ6R8.s:104580  .debug_str:0000000000042819 .LASF4270
     /tmp/ccJdQ6R8.s:104882  .debug_str:0000000000043afd .LASF4271
     /tmp/ccJdQ6R8.s:90856  .debug_str:000000000000accc .LASF4272
     /tmp/ccJdQ6R8.s:97906  .debug_str:00000000000276a7 .LASF4273
     /tmp/ccJdQ6R8.s:101310  .debug_str:00000000000354b9 .LASF4274
     /tmp/ccJdQ6R8.s:97858  .debug_str:0000000000027314 .LASF4275
     /tmp/ccJdQ6R8.s:103316  .debug_str:000000000003d27e .LASF4276
     /tmp/ccJdQ6R8.s:101438  .debug_str:0000000000035ccb .LASF4277
     /tmp/ccJdQ6R8.s:96906  .debug_str:00000000000239e1 .LASF4278
     /tmp/ccJdQ6R8.s:102270  .debug_str:0000000000038bc9 .LASF4279
     /tmp/ccJdQ6R8.s:98698  .debug_str:000000000002a9a9 .LASF4280
     /tmp/ccJdQ6R8.s:92082  .debug_str:000000000000f9b7 .LASF4281
     /tmp/ccJdQ6R8.s:90504  .debug_str:0000000000009510 .LASF4282
     /tmp/ccJdQ6R8.s:91834  .debug_str:000000000000eb08 .LASF4283
     /tmp/ccJdQ6R8.s:91842  .debug_str:000000000000eba3 .LASF4284
     /tmp/ccJdQ6R8.s:93800  .debug_str:00000000000165aa .LASF4285
     /tmp/ccJdQ6R8.s:104166  .debug_str:0000000000040b9d .LASF4286
     /tmp/ccJdQ6R8.s:95454  .debug_str:000000000001d6f3 .LASF4287
     /tmp/ccJdQ6R8.s:90900  .debug_str:000000000000b025 .LASF4288
     /tmp/ccJdQ6R8.s:101526  .debug_str:000000000003622c .LASF4289
     /tmp/ccJdQ6R8.s:102532  .debug_str:0000000000039d4c .LASF4290
     /tmp/ccJdQ6R8.s:101828  .debug_str:00000000000373c5 .LASF4291
     /tmp/ccJdQ6R8.s:91272  .debug_str:000000000000c987 .LASF4292
     /tmp/ccJdQ6R8.s:102606  .debug_str:000000000003a312 .LASF4293
     /tmp/ccJdQ6R8.s:94020  .debug_str:00000000000174fa .LASF4294
     /tmp/ccJdQ6R8.s:104410  .debug_str:0000000000041d26 .LASF4295
     /tmp/ccJdQ6R8.s:103550  .debug_str:000000000003e19e .LASF4296
     /tmp/ccJdQ6R8.s:102126  .debug_str:000000000003828d .LASF4297
     /tmp/ccJdQ6R8.s:97730  .debug_str:0000000000026abe .LASF4298
     /tmp/ccJdQ6R8.s:94730  .debug_str:000000000001a4d7 .LASF4299
     /tmp/ccJdQ6R8.s:104200  .debug_str:0000000000040e7b .LASF4300
     /tmp/ccJdQ6R8.s:96584  .debug_str:00000000000223be .LASF4301
     /tmp/ccJdQ6R8.s:100426  .debug_str:0000000000031b10 .LASF4302
     /tmp/ccJdQ6R8.s:101826  .debug_str:00000000000373ac .LASF4303
     /tmp/ccJdQ6R8.s:106126  .debug_str:0000000000048cb5 .LASF4304
     /tmp/ccJdQ6R8.s:100144  .debug_str:000000000003074e .LASF4305
     /tmp/ccJdQ6R8.s:91440  .debug_str:000000000000d502 .LASF4306
     /tmp/ccJdQ6R8.s:102008  .debug_str:0000000000037bfe .LASF4307
     /tmp/ccJdQ6R8.s:93394  .debug_str:0000000000014ba2 .LASF4308
     /tmp/ccJdQ6R8.s:88730  .debug_str:0000000000001b71 .LASF4309
     /tmp/ccJdQ6R8.s:99236  .debug_str:000000000002cc46 .LASF4310
     /tmp/ccJdQ6R8.s:90476  .debug_str:00000000000092b5 .LASF4311
     /tmp/ccJdQ6R8.s:101032  .debug_str:00000000000342f8 .LASF4312
     /tmp/ccJdQ6R8.s:92392  .debug_str:0000000000010bc2 .LASF4313
     /tmp/ccJdQ6R8.s:94690  .debug_str:000000000001a20e .LASF4314
     /tmp/ccJdQ6R8.s:94164  .debug_str:0000000000017e22 .LASF4315
     /tmp/ccJdQ6R8.s:91024  .debug_str:000000000000b942 .LASF4316
     /tmp/ccJdQ6R8.s:103330  .debug_str:000000000003d37b .LASF4317
     /tmp/ccJdQ6R8.s:106364  .debug_str:0000000000049cea .LASF4318
     /tmp/ccJdQ6R8.s:101818  .debug_str:0000000000037365 .LASF4319
     /tmp/ccJdQ6R8.s:94418  .debug_str:0000000000018e3f .LASF4320
     /tmp/ccJdQ6R8.s:102222  .debug_str:00000000000388c3 .LASF4321
     /tmp/ccJdQ6R8.s:90140  .debug_str:0000000000007c14 .LASF4322
     /tmp/ccJdQ6R8.s:104004  .debug_str:0000000000040169 .LASF4323
     /tmp/ccJdQ6R8.s:90990  .debug_str:000000000000b71c .LASF4324
     /tmp/ccJdQ6R8.s:95292  .debug_str:000000000001cb03 .LASF4325
     /tmp/ccJdQ6R8.s:105986  .debug_str:00000000000482bf .LASF4326
     /tmp/ccJdQ6R8.s:98898  .debug_str:000000000002b6d2 .LASF4327
     /tmp/ccJdQ6R8.s:103448  .debug_str:000000000003db86 .LASF4328
     /tmp/ccJdQ6R8.s:101536  .debug_str:00000000000362ae .LASF4329
     /tmp/ccJdQ6R8.s:100884  .debug_str:0000000000033801 .LASF4330
     /tmp/ccJdQ6R8.s:94718  .debug_str:000000000001a423 .LASF4331
     /tmp/ccJdQ6R8.s:105638  .debug_str:0000000000046c12 .LASF4332
     /tmp/ccJdQ6R8.s:94280  .debug_str:00000000000184b7 .LASF4333
     /tmp/ccJdQ6R8.s:98810  .debug_str:000000000002b100 .LASF4334
     /tmp/ccJdQ6R8.s:98222  .debug_str:0000000000028b78 .LASF4335
     /tmp/ccJdQ6R8.s:100958  .debug_str:0000000000033d49 .LASF4336
     /tmp/ccJdQ6R8.s:92622  .debug_str:0000000000011b46 .LASF4337
     /tmp/ccJdQ6R8.s:106470  .debug_str:000000000004a43b .LASF4338
     /tmp/ccJdQ6R8.s:92118  .debug_str:000000000000fb20 .LASF4339
     /tmp/ccJdQ6R8.s:89160  .debug_str:00000000000039c7 .LASF4340
     /tmp/ccJdQ6R8.s:106380  .debug_str:0000000000049e20 .LASF4341
     /tmp/ccJdQ6R8.s:104828  .debug_str:0000000000043793 .LASF4342
     /tmp/ccJdQ6R8.s:90036  .debug_str:00000000000075c4 .LASF4343
     /tmp/ccJdQ6R8.s:99126  .debug_str:000000000002c4f3 .LASF4344
     /tmp/ccJdQ6R8.s:104464  .debug_str:000000000004204e .LASF4345
     /tmp/ccJdQ6R8.s:98576  .debug_str:000000000002a24b .LASF4346
     /tmp/ccJdQ6R8.s:92962  .debug_str:000000000001314f .LASF4347
     /tmp/ccJdQ6R8.s:88552  .debug_str:0000000000000efa .LASF4348
     /tmp/ccJdQ6R8.s:98528  .debug_str:0000000000029f33 .LASF4349
     /tmp/ccJdQ6R8.s:98432  .debug_str:00000000000298ed .LASF4350
     /tmp/ccJdQ6R8.s:97322  .debug_str:0000000000024f74 .LASF4351
     /tmp/ccJdQ6R8.s:89718  .debug_str:000000000000600e .LASF4352
     /tmp/ccJdQ6R8.s:95732  .debug_str:000000000001ea50 .LASF4353
     /tmp/ccJdQ6R8.s:100164  .debug_str:000000000003085b .LASF4354
     /tmp/ccJdQ6R8.s:94148  .debug_str:0000000000017d09 .LASF4355
     /tmp/ccJdQ6R8.s:91608  .debug_str:000000000000def2 .LASF4356
     /tmp/ccJdQ6R8.s:91478  .debug_str:000000000000d6c5 .LASF4357
     /tmp/ccJdQ6R8.s:92660  .debug_str:0000000000011db4 .LASF4358
     /tmp/ccJdQ6R8.s:90594  .debug_str:0000000000009af4 .LASF4359
     /tmp/ccJdQ6R8.s:91614  .debug_str:000000000000df54 .LASF4360
     /tmp/ccJdQ6R8.s:97690  .debug_str:00000000000267fa .LASF4361
     /tmp/ccJdQ6R8.s:102028  .debug_str:0000000000037d32 .LASF4362
     /tmp/ccJdQ6R8.s:100284  .debug_str:000000000003112a .LASF4363
     /tmp/ccJdQ6R8.s:99326  .debug_str:000000000002d1d6 .LASF4364
     /tmp/ccJdQ6R8.s:103230  .debug_str:000000000003cdac .LASF4365
     /tmp/ccJdQ6R8.s:98534  .debug_str:0000000000029f7d .LASF4366
     /tmp/ccJdQ6R8.s:105956  .debug_str:00000000000480ef .LASF4367
     /tmp/ccJdQ6R8.s:88932  .debug_str:00000000000029bc .LASF4368
     /tmp/ccJdQ6R8.s:101810  .debug_str:00000000000372d2 .LASF4369
     /tmp/ccJdQ6R8.s:98052  .debug_str:000000000002810f .LASF4370
     /tmp/ccJdQ6R8.s:101062  .debug_str:0000000000034523 .LASF4371
     /tmp/ccJdQ6R8.s:101246  .debug_str:00000000000350e8 .LASF4372
     /tmp/ccJdQ6R8.s:88452  .debug_str:00000000000008ae .LASF4373
     /tmp/ccJdQ6R8.s:94786  .debug_str:000000000001a864 .LASF4374
     /tmp/ccJdQ6R8.s:89134  .debug_str:00000000000037e8 .LASF4375
     /tmp/ccJdQ6R8.s:91724  .debug_str:000000000000e56d .LASF4376
     /tmp/ccJdQ6R8.s:90502  .debug_str:00000000000094e2 .LASF4377
     /tmp/ccJdQ6R8.s:97140  .debug_str:0000000000024655 .LASF4378
     /tmp/ccJdQ6R8.s:104164  .debug_str:0000000000040b77 .LASF4379
     /tmp/ccJdQ6R8.s:91594  .debug_str:000000000000de48 .LASF4380
     /tmp/ccJdQ6R8.s:93136  .debug_str:0000000000013c03 .LASF4381
     /tmp/ccJdQ6R8.s:91892  .debug_str:000000000000edc4 .LASF4382
     /tmp/ccJdQ6R8.s:98746  .debug_str:000000000002ad09 .LASF4383
     /tmp/ccJdQ6R8.s:105608  .debug_str:00000000000469ab .LASF4384
     /tmp/ccJdQ6R8.s:100480  .debug_str:0000000000031e7a .LASF4385
     /tmp/ccJdQ6R8.s:106376  .debug_str:0000000000049ddc .LASF4386
     /tmp/ccJdQ6R8.s:101892  .debug_str:00000000000376a5 .LASF4387
     /tmp/ccJdQ6R8.s:88740  .debug_str:0000000000001c1f .LASF4388
     /tmp/ccJdQ6R8.s:94640  .debug_str:0000000000019e11 .LASF4389
     /tmp/ccJdQ6R8.s:100556  .debug_str:00000000000322b3 .LASF4390
     /tmp/ccJdQ6R8.s:104616  .debug_str:0000000000042aaf .LASF4391
     /tmp/ccJdQ6R8.s:93156  .debug_str:0000000000013d1b .LASF4392
     /tmp/ccJdQ6R8.s:93086  .debug_str:0000000000013907 .LASF4393
     /tmp/ccJdQ6R8.s:103948  .debug_str:000000000003fd48 .LASF4394
     /tmp/ccJdQ6R8.s:105652  .debug_str:0000000000046d29 .LASF4395
     /tmp/ccJdQ6R8.s:94360  .debug_str:0000000000018a1c .LASF4396
     /tmp/ccJdQ6R8.s:95910  .debug_str:000000000001f71d .LASF4397
     /tmp/ccJdQ6R8.s:103502  .debug_str:000000000003dee8 .LASF4398
     /tmp/ccJdQ6R8.s:96536  .debug_str:0000000000022108 .LASF4399
     /tmp/ccJdQ6R8.s:93742  .debug_str:000000000001620a .LASF4400
     /tmp/ccJdQ6R8.s:102648  .debug_str:000000000003a659 .LASF4401
     /tmp/ccJdQ6R8.s:98806  .debug_str:000000000002b0bc .LASF4402
     /tmp/ccJdQ6R8.s:93814  .debug_str:00000000000166b5 .LASF4403
     /tmp/ccJdQ6R8.s:97232  .debug_str:0000000000024adb .LASF4404
     /tmp/ccJdQ6R8.s:103140  .debug_str:000000000003c785 .LASF4405
     /tmp/ccJdQ6R8.s:89438  .debug_str:0000000000004cfa .LASF4406
     /tmp/ccJdQ6R8.s:91950  .debug_str:000000000000f0e2 .LASF4407
     /tmp/ccJdQ6R8.s:104918  .debug_str:0000000000043d6b .LASF4408
     /tmp/ccJdQ6R8.s:89138  .debug_str:0000000000003824 .LASF4409
     /tmp/ccJdQ6R8.s:92764  .debug_str:00000000000123a5 .LASF4410
     /tmp/ccJdQ6R8.s:105646  .debug_str:0000000000046c91 .LASF4411
     /tmp/ccJdQ6R8.s:99662  .debug_str:000000000002e7c4 .LASF4412
     /tmp/ccJdQ6R8.s:93528  .debug_str:0000000000015479 .LASF4413
     /tmp/ccJdQ6R8.s:96146  .debug_str:0000000000020764 .LASF4414
     /tmp/ccJdQ6R8.s:95404  .debug_str:000000000001d340 .LASF4415
     /tmp/ccJdQ6R8.s:101220  .debug_str:0000000000034f43 .LASF4416
     /tmp/ccJdQ6R8.s:94408  .debug_str:0000000000018daf .LASF4417
     /tmp/ccJdQ6R8.s:103364  .debug_str:000000000003d5ec .LASF4418
     /tmp/ccJdQ6R8.s:93398  .debug_str:0000000000014bd5 .LASF4419
     /tmp/ccJdQ6R8.s:102446  .debug_str:0000000000039802 .LASF4420
     /tmp/ccJdQ6R8.s:90996  .debug_str:000000000000b799 .LASF4421
     /tmp/ccJdQ6R8.s:89592  .debug_str:000000000000585e .LASF4422
     /tmp/ccJdQ6R8.s:90700  .debug_str:000000000000a1f3 .LASF4423
     /tmp/ccJdQ6R8.s:104924  .debug_str:0000000000043e03 .LASF4424
     /tmp/ccJdQ6R8.s:91304  .debug_str:000000000000cbfc .LASF4425
     /tmp/ccJdQ6R8.s:89754  .debug_str:0000000000006249 .LASF4426
     /tmp/ccJdQ6R8.s:98272  .debug_str:0000000000028edc .LASF4427
     /tmp/ccJdQ6R8.s:98488  .debug_str:0000000000029c87 .LASF4428
     /tmp/ccJdQ6R8.s:103436  .debug_str:000000000003da75 .LASF4429
     /tmp/ccJdQ6R8.s:99054  .debug_str:000000000002c07d .LASF4430
     /tmp/ccJdQ6R8.s:94630  .debug_str:0000000000019d02 .LASF4431
     /tmp/ccJdQ6R8.s:105914  .debug_str:0000000000047e0f .LASF4432
     /tmp/ccJdQ6R8.s:99932  .debug_str:000000000002fa2b .LASF4433
     /tmp/ccJdQ6R8.s:106086  .debug_str:00000000000489fa .LASF4434
     /tmp/ccJdQ6R8.s:100118  .debug_str:00000000000305a6 .LASF4435
     /tmp/ccJdQ6R8.s:95106  .debug_str:000000000001bedc .LASF4436
     /tmp/ccJdQ6R8.s:106894  .debug_str:000000000004c2ee .LASF4437
     /tmp/ccJdQ6R8.s:100870  .debug_str:0000000000033731 .LASF4438
     /tmp/ccJdQ6R8.s:94764  .debug_str:000000000001a6e0 .LASF4439
     /tmp/ccJdQ6R8.s:99766  .debug_str:000000000002eea2 .LASF4440
     /tmp/ccJdQ6R8.s:97114  .debug_str:000000000002450c .LASF4441
     /tmp/ccJdQ6R8.s:92544  .debug_str:00000000000115af .LASF4442
     /tmp/ccJdQ6R8.s:98280  .debug_str:0000000000028f53 .LASF4443
     /tmp/ccJdQ6R8.s:93510  .debug_str:000000000001534b .LASF4444
     /tmp/ccJdQ6R8.s:97798  .debug_str:0000000000026f3f .LASF4445
     /tmp/ccJdQ6R8.s:99908  .debug_str:000000000002f87f .LASF4446
     /tmp/ccJdQ6R8.s:91728  .debug_str:000000000000e591 .LASF4447
     /tmp/ccJdQ6R8.s:98600  .debug_str:000000000002a3b1 .LASF4448
     /tmp/ccJdQ6R8.s:101058  .debug_str:00000000000344a3 .LASF4449
     /tmp/ccJdQ6R8.s:105332  .debug_str:00000000000457c1 .LASF4450
     /tmp/ccJdQ6R8.s:100058  .debug_str:00000000000301ba .LASF4451
     /tmp/ccJdQ6R8.s:93214  .debug_str:00000000000140d0 .LASF4452
     /tmp/ccJdQ6R8.s:98714  .debug_str:000000000002aa6b .LASF4453
     /tmp/ccJdQ6R8.s:92548  .debug_str:00000000000115ed .LASF4454
     /tmp/ccJdQ6R8.s:94700  .debug_str:000000000001a2be .LASF4455
     /tmp/ccJdQ6R8.s:88982  .debug_str:0000000000002ddb .LASF4456
     /tmp/ccJdQ6R8.s:93696  .debug_str:0000000000015e89 .LASF4457
     /tmp/ccJdQ6R8.s:91940  .debug_str:000000000000f044 .LASF4458
     /tmp/ccJdQ6R8.s:101158  .debug_str:0000000000034b39 .LASF4459
     /tmp/ccJdQ6R8.s:103842  .debug_str:000000000003f6b7 .LASF4460
     /tmp/ccJdQ6R8.s:96902  .debug_str:000000000002399e .LASF4461
     /tmp/ccJdQ6R8.s:91618  .debug_str:000000000000dfb4 .LASF4462
     /tmp/ccJdQ6R8.s:97142  .debug_str:0000000000024685 .LASF4463
     /tmp/ccJdQ6R8.s:99746  .debug_str:000000000002ed6c .LASF4464
     /tmp/ccJdQ6R8.s:89672  .debug_str:0000000000005d04 .LASF4465
     /tmp/ccJdQ6R8.s:97928  .debug_str:0000000000027826 .LASF4466
     /tmp/ccJdQ6R8.s:88684  .debug_str:0000000000001822 .LASF4467
     /tmp/ccJdQ6R8.s:90496  .debug_str:0000000000009464 .LASF4468
     /tmp/ccJdQ6R8.s:98740  .debug_str:000000000002ac84 .LASF4469
     /tmp/ccJdQ6R8.s:92578  .debug_str:00000000000117fc .LASF4470
     /tmp/ccJdQ6R8.s:105482  .debug_str:000000000004618b .LASF4471
     /tmp/ccJdQ6R8.s:91030  .debug_str:000000000000b99e .LASF4472
     /tmp/ccJdQ6R8.s:106420  .debug_str:000000000004a098 .LASF4473
     /tmp/ccJdQ6R8.s:97984  .debug_str:0000000000027bc2 .LASF4474
     /tmp/ccJdQ6R8.s:103794  .debug_str:000000000003f293 .LASF4475
     /tmp/ccJdQ6R8.s:93846  .debug_str:000000000001687a .LASF4476
     /tmp/ccJdQ6R8.s:106910  .debug_str:000000000004c459 .LASF4477
     /tmp/ccJdQ6R8.s:99508  .debug_str:000000000002dd79 .LASF4478
     /tmp/ccJdQ6R8.s:101550  .debug_str:00000000000363a8 .LASF4479
     /tmp/ccJdQ6R8.s:97772  .debug_str:0000000000026d8c .LASF4480
     /tmp/ccJdQ6R8.s:89766  .debug_str:000000000000634b .LASF4481
     /tmp/ccJdQ6R8.s:106284  .debug_str:00000000000497ac .LASF4482
     /tmp/ccJdQ6R8.s:102850  .debug_str:000000000003b417 .LASF4483
     /tmp/ccJdQ6R8.s:97466  .debug_str:0000000000025942 .LASF4484
     /tmp/ccJdQ6R8.s:95994  .debug_str:000000000001fda2 .LASF4485
     /tmp/ccJdQ6R8.s:105576  .debug_str:000000000004675b .LASF4486
     /tmp/ccJdQ6R8.s:98260  .debug_str:0000000000028e0e .LASF4487
     /tmp/ccJdQ6R8.s:103892  .debug_str:000000000003f9c3 .LASF4488
     /tmp/ccJdQ6R8.s:90596  .debug_str:0000000000009b1f .LASF4489
     /tmp/ccJdQ6R8.s:99050  .debug_str:000000000002c022 .LASF4490
     /tmp/ccJdQ6R8.s:96040  .debug_str:000000000002007d .LASF4491
     /tmp/ccJdQ6R8.s:96528  .debug_str:000000000002206d .LASF4492
     /tmp/ccJdQ6R8.s:104036  .debug_str:00000000000403d3 .LASF4493
     /tmp/ccJdQ6R8.s:104584  .debug_str:0000000000042857 .LASF4494
     /tmp/ccJdQ6R8.s:99836  .debug_str:000000000002f403 .LASF4495
     /tmp/ccJdQ6R8.s:91102  .debug_str:000000000000be0f .LASF4496
     /tmp/ccJdQ6R8.s:97108  .debug_str:00000000000244dd .LASF4497
     /tmp/ccJdQ6R8.s:98264  .debug_str:0000000000028e4f .LASF4498
     /tmp/ccJdQ6R8.s:92084  .debug_str:000000000000f9cf .LASF4499
     /tmp/ccJdQ6R8.s:105036  .debug_str:000000000004447a .LASF4500
     /tmp/ccJdQ6R8.s:95804  .debug_str:000000000001eef3 .LASF4501
     /tmp/ccJdQ6R8.s:102574  .debug_str:000000000003a0ae .LASF4502
     /tmp/ccJdQ6R8.s:92520  .debug_str:00000000000113fe .LASF4503
     /tmp/ccJdQ6R8.s:99926  .debug_str:000000000002f9b0 .LASF4504
     /tmp/ccJdQ6R8.s:91426  .debug_str:000000000000d407 .LASF4505
     /tmp/ccJdQ6R8.s:106688  .debug_str:000000000004b44e .LASF4506
     /tmp/ccJdQ6R8.s:100700  .debug_str:0000000000032c7a .LASF4507
     /tmp/ccJdQ6R8.s:101876  .debug_str:00000000000375b7 .LASF4508
     /tmp/ccJdQ6R8.s:95760  .debug_str:000000000001ec6d .LASF4509
     /tmp/ccJdQ6R8.s:105622  .debug_str:0000000000046aa2 .LASF4510
     /tmp/ccJdQ6R8.s:102598  .debug_str:000000000003a260 .LASF4511
     /tmp/ccJdQ6R8.s:106072  .debug_str:00000000000488b1 .LASF4512
     /tmp/ccJdQ6R8.s:105702  .debug_str:000000000004709a .LASF4513
     /tmp/ccJdQ6R8.s:91120  .debug_str:000000000000bf56 .LASF4514
     /tmp/ccJdQ6R8.s:101218  .debug_str:0000000000034f0c .LASF4515
     /tmp/ccJdQ6R8.s:104566  .debug_str:00000000000426fc .LASF4516
     /tmp/ccJdQ6R8.s:105206  .debug_str:0000000000044f09 .LASF4517
     /tmp/ccJdQ6R8.s:90126  .debug_str:0000000000007af8 .LASF4518
     /tmp/ccJdQ6R8.s:105328  .debug_str:0000000000045748 .LASF4519
     /tmp/ccJdQ6R8.s:89170  .debug_str:0000000000003a73 .LASF4520
     /tmp/ccJdQ6R8.s:98216  .debug_str:0000000000028b08 .LASF4521
     /tmp/ccJdQ6R8.s:106044  .debug_str:0000000000048669 .LASF4522
     /tmp/ccJdQ6R8.s:94284  .debug_str:0000000000018516 .LASF4523
     /tmp/ccJdQ6R8.s:93964  .debug_str:0000000000017149 .LASF4524
     /tmp/ccJdQ6R8.s:94308  .debug_str:00000000000186db .LASF4525
     /tmp/ccJdQ6R8.s:98366  .debug_str:0000000000029544 .LASF4526
     /tmp/ccJdQ6R8.s:101146  .debug_str:0000000000034a24 .LASF4527
     /tmp/ccJdQ6R8.s:95060  .debug_str:000000000001bb4b .LASF4528
     /tmp/ccJdQ6R8.s:88978  .debug_str:0000000000002d5f .LASF4529
     /tmp/ccJdQ6R8.s:101944  .debug_str:000000000003790f .LASF4530
     /tmp/ccJdQ6R8.s:94440  .debug_str:0000000000018fbc .LASF4531
     /tmp/ccJdQ6R8.s:98508  .debug_str:0000000000029e2a .LASF4532
     /tmp/ccJdQ6R8.s:106804  .debug_str:000000000004bc98 .LASF4533
     /tmp/ccJdQ6R8.s:96808  .debug_str:00000000000232d4 .LASF4534
     /tmp/ccJdQ6R8.s:105780  .debug_str:00000000000475bc .LASF4535
     /tmp/ccJdQ6R8.s:90080  .debug_str:00000000000078a4 .LASF4536
     /tmp/ccJdQ6R8.s:98082  .debug_str:00000000000282e1 .LASF4537
     /tmp/ccJdQ6R8.s:105478  .debug_str:0000000000046115 .LASF4538
     /tmp/ccJdQ6R8.s:99484  .debug_str:000000000002db44 .LASF4539
     /tmp/ccJdQ6R8.s:102684  .debug_str:000000000003a8f9 .LASF4540
     /tmp/ccJdQ6R8.s:96262  .debug_str:000000000002100a .LASF4541
     /tmp/ccJdQ6R8.s:95474  .debug_str:000000000001d841 .LASF4542
     /tmp/ccJdQ6R8.s:95226  .debug_str:000000000001c66e .LASF4543
     /tmp/ccJdQ6R8.s:88976  .debug_str:0000000000002d26 .LASF4544
     /tmp/ccJdQ6R8.s:100846  .debug_str:00000000000335aa .LASF4545
     /tmp/ccJdQ6R8.s:93034  .debug_str:00000000000135cc .LASF4546
     /tmp/ccJdQ6R8.s:105884  .debug_str:0000000000047c2b .LASF4547
     /tmp/ccJdQ6R8.s:99898  .debug_str:000000000002f7ed .LASF4548
     /tmp/ccJdQ6R8.s:89148  .debug_str:0000000000003913 .LASF4549
     /tmp/ccJdQ6R8.s:106842  .debug_str:000000000004bf65 .LASF4550
     /tmp/ccJdQ6R8.s:95756  .debug_str:000000000001ebf3 .LASF4551
     /tmp/ccJdQ6R8.s:94712  .debug_str:000000000001a389 .LASF4552
     /tmp/ccJdQ6R8.s:88650  .debug_str:0000000000001541 .LASF4553
     /tmp/ccJdQ6R8.s:107000  .debug_str:000000000004ca04 .LASF4554
     /tmp/ccJdQ6R8.s:97450  .debug_str:00000000000257db .LASF4555
     /tmp/ccJdQ6R8.s:94464  .debug_str:000000000001914f .LASF4556
     /tmp/ccJdQ6R8.s:93348  .debug_str:000000000001485f .LASF4557
     /tmp/ccJdQ6R8.s:106190  .debug_str:0000000000049116 .LASF4558
     /tmp/ccJdQ6R8.s:100204  .debug_str:0000000000030b08 .LASF4559
     /tmp/ccJdQ6R8.s:97352  .debug_str:000000000002515a .LASF4560
     /tmp/ccJdQ6R8.s:106986  .debug_str:000000000004c94c .LASF4561
     /tmp/ccJdQ6R8.s:103362  .debug_str:000000000003d5b5 .LASF4562
     /tmp/ccJdQ6R8.s:102224  .debug_str:00000000000388de .LASF4563
     /tmp/ccJdQ6R8.s:102262  .debug_str:0000000000038b63 .LASF4564
     /tmp/ccJdQ6R8.s:107140  .debug_str:000000000004d360 .LASF4565
     /tmp/ccJdQ6R8.s:97160  .debug_str:00000000000247a6 .LASF4566
     /tmp/ccJdQ6R8.s:102952  .debug_str:000000000003ba61 .LASF4567
     /tmp/ccJdQ6R8.s:92798  .debug_str:0000000000012627 .LASF4568
     /tmp/ccJdQ6R8.s:93874  .debug_str:0000000000016a82 .LASF4569
     /tmp/ccJdQ6R8.s:100764  .debug_str:000000000003301d .LASF4570
     /tmp/ccJdQ6R8.s:94342  .debug_str:00000000000188ce .LASF4571
     /tmp/ccJdQ6R8.s:103598  .debug_str:000000000003e4ca .LASF4572
     /tmp/ccJdQ6R8.s:104926  .debug_str:0000000000043e3b .LASF4573
     /tmp/ccJdQ6R8.s:106932  .debug_str:000000000004c578 .LASF4574
     /tmp/ccJdQ6R8.s:94662  .debug_str:000000000001a029 .LASF4575
     /tmp/ccJdQ6R8.s:93506  .debug_str:00000000000152d9 .LASF4576
     /tmp/ccJdQ6R8.s:88714  .debug_str:0000000000001a5a .LASF4577
     /tmp/ccJdQ6R8.s:90528  .debug_str:00000000000096f2 .LASF4578
     /tmp/ccJdQ6R8.s:95536  .debug_str:000000000001dcee .LASF4579
     /tmp/ccJdQ6R8.s:102328  .debug_str:0000000000038ff8 .LASF4580
     /tmp/ccJdQ6R8.s:102580  .debug_str:000000000003a130 .LASF4581
     /tmp/ccJdQ6R8.s:98298  .debug_str:00000000000290a7 .LASF4582
     /tmp/ccJdQ6R8.s:102184  .debug_str:00000000000385d7 .LASF4583
     /tmp/ccJdQ6R8.s:88854  .debug_str:0000000000002401 .LASF4584
     /tmp/ccJdQ6R8.s:106578  .debug_str:000000000004ab16 .LASF4585
     /tmp/ccJdQ6R8.s:99486  .debug_str:000000000002db7b .LASF4586
     /tmp/ccJdQ6R8.s:100592  .debug_str:0000000000032580 .LASF4587
     /tmp/ccJdQ6R8.s:89376  .debug_str:00000000000048d4 .LASF4588
     /tmp/ccJdQ6R8.s:104614  .debug_str:0000000000042a89 .LASF4589
     /tmp/ccJdQ6R8.s:103208  .debug_str:000000000003cbfc .LASF4590
     /tmp/ccJdQ6R8.s:100620  .debug_str:0000000000032757 .LASF4591
     /tmp/ccJdQ6R8.s:93076  .debug_str:0000000000013828 .LASF4592
     /tmp/ccJdQ6R8.s:105298  .debug_str:00000000000454f9 .LASF4593
     /tmp/ccJdQ6R8.s:91034  .debug_str:000000000000b9e6 .LASF4594
     /tmp/ccJdQ6R8.s:88850  .debug_str:00000000000023b9 .LASF4595
     /tmp/ccJdQ6R8.s:90150  .debug_str:0000000000007c84 .LASF4596
     /tmp/ccJdQ6R8.s:104660  .debug_str:0000000000042d5a .LASF4597
     /tmp/ccJdQ6R8.s:88354  .debug_str:00000000000001bc .LASF4598
     /tmp/ccJdQ6R8.s:98498  .debug_str:0000000000029d6e .LASF4599
     /tmp/ccJdQ6R8.s:93170  .debug_str:0000000000013e08 .LASF4600
     /tmp/ccJdQ6R8.s:105504  .debug_str:00000000000462ce .LASF4601
     /tmp/ccJdQ6R8.s:99398  .debug_str:000000000002d5f9 .LASF4602
     /tmp/ccJdQ6R8.s:103094  .debug_str:000000000003c487 .LASF4603
     /tmp/ccJdQ6R8.s:102346  .debug_str:0000000000039153 .LASF4604
     /tmp/ccJdQ6R8.s:101418  .debug_str:0000000000035b98 .LASF4605
     /tmp/ccJdQ6R8.s:96366  .debug_str:000000000002160e .LASF4606
     /tmp/ccJdQ6R8.s:105762  .debug_str:000000000004746e .LASF4607
     /tmp/ccJdQ6R8.s:94808  .debug_str:000000000001a9ba .LASF4608
     /tmp/ccJdQ6R8.s:107230  .debug_str:000000000004d994 .LASF4609
     /tmp/ccJdQ6R8.s:100798  .debug_str:00000000000332d0 .LASF4610
     /tmp/ccJdQ6R8.s:94086  .debug_str:00000000000178f2 .LASF4611
     /tmp/ccJdQ6R8.s:96400  .debug_str:00000000000217db .LASF4612
     /tmp/ccJdQ6R8.s:90896  .debug_str:000000000000afb5 .LASF4613
     /tmp/ccJdQ6R8.s:104352  .debug_str:0000000000041961 .LASF4614
     /tmp/ccJdQ6R8.s:101688  .debug_str:0000000000036b9b .LASF4615
     /tmp/ccJdQ6R8.s:104966  .debug_str:00000000000440bf .LASF4616
     /tmp/ccJdQ6R8.s:100754  .debug_str:0000000000032f75 .LASF4617
     /tmp/ccJdQ6R8.s:101796  .debug_str:00000000000371f8 .LASF4618
     /tmp/ccJdQ6R8.s:101112  .debug_str:0000000000034816 .LASF4619
     /tmp/ccJdQ6R8.s:96024  .debug_str:000000000001ffb4 .LASF4620
     /tmp/ccJdQ6R8.s:100108  .debug_str:000000000003050d .LASF4621
     /tmp/ccJdQ6R8.s:98632  .debug_str:000000000002a5e5 .LASF4622
     /tmp/ccJdQ6R8.s:95836  .debug_str:000000000001f16a .LASF4623
     /tmp/ccJdQ6R8.s:98148  .debug_str:00000000000286d0 .LASF4624
     /tmp/ccJdQ6R8.s:92624  .debug_str:0000000000011b77 .LASF4625
     /tmp/ccJdQ6R8.s:104788  .debug_str:000000000004352c .LASF4626
     /tmp/ccJdQ6R8.s:92192  .debug_str:000000000000ff67 .LASF4627
     /tmp/ccJdQ6R8.s:94952  .debug_str:000000000001b3eb .LASF4628
     /tmp/ccJdQ6R8.s:104020  .debug_str:0000000000040292 .LASF4629
     /tmp/ccJdQ6R8.s:101980  .debug_str:0000000000037afb .LASF4630
     /tmp/ccJdQ6R8.s:107010  .debug_str:000000000004cabe .LASF4631
     /tmp/ccJdQ6R8.s:99868  .debug_str:000000000002f622 .LASF4632
     /tmp/ccJdQ6R8.s:104952  .debug_str:0000000000043fa5 .LASF4633
     /tmp/ccJdQ6R8.s:91720  .debug_str:000000000000e527 .LASF4634
     /tmp/ccJdQ6R8.s:94032  .debug_str:0000000000017584 .LASF4635
     /tmp/ccJdQ6R8.s:101258  .debug_str:00000000000351a7 .LASF4636
     /tmp/ccJdQ6R8.s:98616  .debug_str:000000000002a4d0 .LASF4637
     /tmp/ccJdQ6R8.s:99560  .debug_str:000000000002e17a .LASF4638
     /tmp/ccJdQ6R8.s:91530  .debug_str:000000000000da12 .LASF4639
     /tmp/ccJdQ6R8.s:100762  .debug_str:0000000000032ff6 .LASF4640
     /tmp/ccJdQ6R8.s:90580  .debug_str:00000000000099d6 .LASF4641
     /tmp/ccJdQ6R8.s:105808  .debug_str:0000000000047796 .LASF4642
     /tmp/ccJdQ6R8.s:93622  .debug_str:000000000001599c .LASF4643
     /tmp/ccJdQ6R8.s:94920  .debug_str:000000000001b177 .LASF4644
     /tmp/ccJdQ6R8.s:92802  .debug_str:000000000001264f .LASF4645
     /tmp/ccJdQ6R8.s:91806  .debug_str:000000000000e8de .LASF4646
     /tmp/ccJdQ6R8.s:88614  .debug_str:0000000000001334 .LASF4647
     /tmp/ccJdQ6R8.s:95826  .debug_str:000000000001f0a8 .LASF4648
     /tmp/ccJdQ6R8.s:105798  .debug_str:00000000000476fc .LASF4649
     /tmp/ccJdQ6R8.s:95076  .debug_str:000000000001bcce .LASF4650
     /tmp/ccJdQ6R8.s:100002  .debug_str:000000000002fe6f .LASF4651
     /tmp/ccJdQ6R8.s:94368  .debug_str:0000000000018ab2 .LASF4652
     /tmp/ccJdQ6R8.s:96984  .debug_str:0000000000023eb5 .LASF4653
     /tmp/ccJdQ6R8.s:105866  .debug_str:0000000000047b0e .LASF4654
     /tmp/ccJdQ6R8.s:93642  .debug_str:0000000000015b1d .LASF4655
     /tmp/ccJdQ6R8.s:94158  .debug_str:0000000000017dc8 .LASF4656
     /tmp/ccJdQ6R8.s:91336  .debug_str:000000000000ce10 .LASF4657
     /tmp/ccJdQ6R8.s:106632  .debug_str:000000000004af5c .LASF4658
     /tmp/ccJdQ6R8.s:102794  .debug_str:000000000003b005 .LASF4659
     /tmp/ccJdQ6R8.s:98902  .debug_str:000000000002b702 .LASF4660
     /tmp/ccJdQ6R8.s:106838  .debug_str:000000000004bf23 .LASF4661
     /tmp/ccJdQ6R8.s:97424  .debug_str:00000000000255f4 .LASF4662
     /tmp/ccJdQ6R8.s:104404  .debug_str:0000000000041cc3 .LASF4663
     /tmp/ccJdQ6R8.s:104002  .debug_str:0000000000040139 .LASF4664
     /tmp/ccJdQ6R8.s:104948  .debug_str:0000000000043f3c .LASF4665
     /tmp/ccJdQ6R8.s:102770  .debug_str:000000000003ae95 .LASF4666
     /tmp/ccJdQ6R8.s:92922  .debug_str:0000000000012f03 .LASF4667
     /tmp/ccJdQ6R8.s:90608  .debug_str:0000000000009be1 .LASF4668
     /tmp/ccJdQ6R8.s:93682  .debug_str:0000000000015d87 .LASF4669
     /tmp/ccJdQ6R8.s:92608  .debug_str:0000000000011a5f .LASF4670
     /tmp/ccJdQ6R8.s:97786  .debug_str:0000000000026e9f .LASF4671
     /tmp/ccJdQ6R8.s:90600  .debug_str:0000000000009b61 .LASF4672
     /tmp/ccJdQ6R8.s:89774  .debug_str:00000000000063bc .LASF4673
     /tmp/ccJdQ6R8.s:106512  .debug_str:000000000004a776 .LASF4674
     /tmp/ccJdQ6R8.s:92056  .debug_str:000000000000f80d .LASF4675
     /tmp/ccJdQ6R8.s:96462  .debug_str:0000000000021bc7 .LASF4676
     /tmp/ccJdQ6R8.s:99428  .debug_str:000000000002d818 .LASF4677
     /tmp/ccJdQ6R8.s:98856  .debug_str:000000000002b463 .LASF4678
     /tmp/ccJdQ6R8.s:96464  .debug_str:0000000000021bf4 .LASF4679
     /tmp/ccJdQ6R8.s:95148  .debug_str:000000000001c17d .LASF4680
     /tmp/ccJdQ6R8.s:90458  .debug_str:000000000000916b .LASF4681
     /tmp/ccJdQ6R8.s:96782  .debug_str:00000000000230f6 .LASF4682
     /tmp/ccJdQ6R8.s:88564  .debug_str:0000000000000fd0 .LASF4683
     /tmp/ccJdQ6R8.s:96244  .debug_str:0000000000020e97 .LASF4684
     /tmp/ccJdQ6R8.s:93040  .debug_str:0000000000013636 .LASF4685
     /tmp/ccJdQ6R8.s:95608  .debug_str:000000000001e117 .LASF4686
     /tmp/ccJdQ6R8.s:101226  .debug_str:0000000000034fad .LASF4687
     /tmp/ccJdQ6R8.s:91982  .debug_str:000000000000f389 .LASF4688
     /tmp/ccJdQ6R8.s:97956  .debug_str:0000000000027a01 .LASF4689
     /tmp/ccJdQ6R8.s:103780  .debug_str:000000000003f1be .LASF4690
     /tmp/ccJdQ6R8.s:102894  .debug_str:000000000003b6c1 .LASF4691
     /tmp/ccJdQ6R8.s:96608  .debug_str:0000000000022580 .LASF4692
     /tmp/ccJdQ6R8.s:102686  .debug_str:000000000003a90b .LASF4693
     /tmp/ccJdQ6R8.s:104862  .debug_str:0000000000043999 .LASF4694
     /tmp/ccJdQ6R8.s:96770  .debug_str:0000000000023037 .LASF4695
     /tmp/ccJdQ6R8.s:91410  .debug_str:000000000000d318 .LASF4696
     /tmp/ccJdQ6R8.s:89920  .debug_str:0000000000006e51 .LASF4697
     /tmp/ccJdQ6R8.s:103178  .debug_str:000000000003c9db .LASF4698
     /tmp/ccJdQ6R8.s:96680  .debug_str:0000000000022a7f .LASF4699
     /tmp/ccJdQ6R8.s:88424  .debug_str:00000000000006d1 .LASF4700
     /tmp/ccJdQ6R8.s:93244  .debug_str:000000000001428b .LASF4701
     /tmp/ccJdQ6R8.s:103884  .debug_str:000000000003f99b .LASF4702
     /tmp/ccJdQ6R8.s:94166  .debug_str:0000000000017e3b .LASF4703
     /tmp/ccJdQ6R8.s:89146  .debug_str:00000000000038e6 .LASF4704
     /tmp/ccJdQ6R8.s:104636  .debug_str:0000000000042bd9 .LASF4705
     /tmp/ccJdQ6R8.s:102218  .debug_str:0000000000038855 .LASF4706
     /tmp/ccJdQ6R8.s:95664  .debug_str:000000000001e571 .LASF4707
     /tmp/ccJdQ6R8.s:102742  .debug_str:000000000003acd6 .LASF4708
     /tmp/ccJdQ6R8.s:102938  .debug_str:000000000003b994 .LASF4709
     /tmp/ccJdQ6R8.s:92958  .debug_str:00000000000130e4 .LASF4710
     /tmp/ccJdQ6R8.s:102614  .debug_str:000000000003a382 .LASF4711
     /tmp/ccJdQ6R8.s:90138  .debug_str:0000000000007be6 .LASF4712
     /tmp/ccJdQ6R8.s:101718  .debug_str:0000000000036db4 .LASF4713
     /tmp/ccJdQ6R8.s:99122  .debug_str:000000000002c49b .LASF4714
     /tmp/ccJdQ6R8.s:90706  .debug_str:000000000000a275 .LASF4715
     /tmp/ccJdQ6R8.s:92476  .debug_str:00000000000110de .LASF4716
     /tmp/ccJdQ6R8.s:103634  .debug_str:000000000003e6d9 .LASF4717
     /tmp/ccJdQ6R8.s:88598  .debug_str:0000000000001219 .LASF4718
     /tmp/ccJdQ6R8.s:99632  .debug_str:000000000002e5e8 .LASF4719
     /tmp/ccJdQ6R8.s:92298  .debug_str:0000000000010593 .LASF4720
     /tmp/ccJdQ6R8.s:89996  .debug_str:000000000000733b .LASF4721
     /tmp/ccJdQ6R8.s:100982  .debug_str:0000000000033f6c .LASF4722
     /tmp/ccJdQ6R8.s:102572  .debug_str:000000000003a086 .LASF4723
     /tmp/ccJdQ6R8.s:90446  .debug_str:00000000000090e7 .LASF4724
     /tmp/ccJdQ6R8.s:97404  .debug_str:0000000000025492 .LASF4725
     /tmp/ccJdQ6R8.s:97568  .debug_str:0000000000025fe7 .LASF4726
     /tmp/ccJdQ6R8.s:99200  .debug_str:000000000002c9f9 .LASF4727
     /tmp/ccJdQ6R8.s:93552  .debug_str:00000000000155fc .LASF4728
     /tmp/ccJdQ6R8.s:97408  .debug_str:00000000000254ce .LASF4729
     /tmp/ccJdQ6R8.s:90038  .debug_str:00000000000075e7 .LASF4730
     /tmp/ccJdQ6R8.s:106980  .debug_str:000000000004c8e3 .LASF4731
     /tmp/ccJdQ6R8.s:91374  .debug_str:000000000000d095 .LASF4732
     /tmp/ccJdQ6R8.s:101726  .debug_str:0000000000036e52 .LASF4733
     /tmp/ccJdQ6R8.s:95466  .debug_str:000000000001d7b0 .LASF4734
     /tmp/ccJdQ6R8.s:103938  .debug_str:000000000003fcc0 .LASF4735
     /tmp/ccJdQ6R8.s:96402  .debug_str:0000000000021813 .LASF4736
     /tmp/ccJdQ6R8.s:91230  .debug_str:000000000000c70c .LASF4737
     /tmp/ccJdQ6R8.s:89094  .debug_str:0000000000003506 .LASF4738
     /tmp/ccJdQ6R8.s:102998  .debug_str:000000000003bd89 .LASF4739
     /tmp/ccJdQ6R8.s:92910  .debug_str:0000000000012e59 .LASF4740
     /tmp/ccJdQ6R8.s:97688  .debug_str:00000000000267c4 .LASF4741
     /tmp/ccJdQ6R8.s:102352  .debug_str:00000000000391cf .LASF4742
     /tmp/ccJdQ6R8.s:91196  .debug_str:000000000000c4a5 .LASF4743
     /tmp/ccJdQ6R8.s:94152  .debug_str:0000000000017d5d .LASF4744
     /tmp/ccJdQ6R8.s:100678  .debug_str:0000000000032af8 .LASF4745
     /tmp/ccJdQ6R8.s:98912  .debug_str:000000000002b7b9 .LASF4746
     /tmp/ccJdQ6R8.s:94058  .debug_str:000000000001771d .LASF4747
     /tmp/ccJdQ6R8.s:98010  .debug_str:0000000000027d8c .LASF4748
     /tmp/ccJdQ6R8.s:105912  .debug_str:0000000000047dd9 .LASF4749
     /tmp/ccJdQ6R8.s:105858  .debug_str:0000000000047a6a .LASF4750
     /tmp/ccJdQ6R8.s:94768  .debug_str:000000000001a722 .LASF4751
     /tmp/ccJdQ6R8.s:102906  .debug_str:000000000003b75d .LASF4752
     /tmp/ccJdQ6R8.s:97544  .debug_str:0000000000025e73 .LASF4753
     /tmp/ccJdQ6R8.s:106102  .debug_str:0000000000048aec .LASF4754
     /tmp/ccJdQ6R8.s:95278  .debug_str:000000000001ca46 .LASF4755
     /tmp/ccJdQ6R8.s:96890  .debug_str:0000000000023901 .LASF4756
     /tmp/ccJdQ6R8.s:101636  .debug_str:00000000000368e9 .LASF4757
     /tmp/ccJdQ6R8.s:94372  .debug_str:0000000000018b21 .LASF4758
     /tmp/ccJdQ6R8.s:92886  .debug_str:0000000000012c85 .LASF4759
     /tmp/ccJdQ6R8.s:97178  .debug_str:0000000000024896 .LASF4760
     /tmp/ccJdQ6R8.s:88610  .debug_str:00000000000012e4 .LASF4761
     /tmp/ccJdQ6R8.s:103992  .debug_str:0000000000040081 .LASF4762
     /tmp/ccJdQ6R8.s:102844  .debug_str:000000000003b377 .LASF4763
     /tmp/ccJdQ6R8.s:94422  .debug_str:0000000000018e79 .LASF4764
     /tmp/ccJdQ6R8.s:95114  .debug_str:000000000001bf5c .LASF4765
     /tmp/ccJdQ6R8.s:97650  .debug_str:00000000000264e9 .LASF4766
     /tmp/ccJdQ6R8.s:93952  .debug_str:0000000000017097 .LASF4767
     /tmp/ccJdQ6R8.s:88442  .debug_str:00000000000007ea .LASF4768
     /tmp/ccJdQ6R8.s:96000  .debug_str:000000000001fe2c .LASF4769
     /tmp/ccJdQ6R8.s:92182  .debug_str:000000000000fe99 .LASF4770
     /tmp/ccJdQ6R8.s:104482  .debug_str:0000000000042174 .LASF4771
     /tmp/ccJdQ6R8.s:92616  .debug_str:0000000000011adf .LASF4772
     /tmp/ccJdQ6R8.s:100922  .debug_str:0000000000033acf .LASF4773
     /tmp/ccJdQ6R8.s:94798  .debug_str:000000000001a929 .LASF4774
     /tmp/ccJdQ6R8.s:96856  .debug_str:0000000000023694 .LASF4775
     /tmp/ccJdQ6R8.s:103720  .debug_str:000000000003ed6e .LASF4776
     /tmp/ccJdQ6R8.s:88514  .debug_str:0000000000000c55 .LASF4777
     /tmp/ccJdQ6R8.s:94534  .debug_str:000000000001961d .LASF4778
     /tmp/ccJdQ6R8.s:96456  .debug_str:0000000000021b35 .LASF4779
     /tmp/ccJdQ6R8.s:93700  .debug_str:0000000000015ed0 .LASF4780
     /tmp/ccJdQ6R8.s:101436  .debug_str:0000000000035c97 .LASF4781
     /tmp/ccJdQ6R8.s:106082  .debug_str:00000000000489af .LASF4782
     /tmp/ccJdQ6R8.s:101312  .debug_str:00000000000354d1 .LASF4783
     /tmp/ccJdQ6R8.s:95150  .debug_str:000000000001c1a5 .LASF4784
     /tmp/ccJdQ6R8.s:95408  .debug_str:000000000001d3a0 .LASF4785
     /tmp/ccJdQ6R8.s:97528  .debug_str:0000000000025d7a .LASF4786
     /tmp/ccJdQ6R8.s:103184  .debug_str:000000000003ca42 .LASF4787
     /tmp/ccJdQ6R8.s:89556  .debug_str:00000000000055b1 .LASF4788
     /tmp/ccJdQ6R8.s:102174  .debug_str:0000000000038504 .LASF4789
     /tmp/ccJdQ6R8.s:100612  .debug_str:00000000000326a2 .LASF4790
     /tmp/ccJdQ6R8.s:101608  .debug_str:0000000000036729 .LASF4791
     /tmp/ccJdQ6R8.s:105300  .debug_str:0000000000045528 .LASF4792
     /tmp/ccJdQ6R8.s:95514  .debug_str:000000000001db01 .LASF4793
     /tmp/ccJdQ6R8.s:103024  .debug_str:000000000003bf56 .LASF4794
     /tmp/ccJdQ6R8.s:98134  .debug_str:000000000002857b .LASF4795
     /tmp/ccJdQ6R8.s:91402  .debug_str:000000000000d285 .LASF4796
     /tmp/ccJdQ6R8.s:92196  .debug_str:000000000000ffa0 .LASF4797
     /tmp/ccJdQ6R8.s:97248  .debug_str:0000000000024bb8 .LASF4798
     /tmp/ccJdQ6R8.s:88938  .debug_str:0000000000002a9d .LASF4799
     /tmp/ccJdQ6R8.s:105056  .debug_str:000000000004458b .LASF4800
     /tmp/ccJdQ6R8.s:96634  .debug_str:0000000000022726 .LASF4801
     /tmp/ccJdQ6R8.s:98610  .debug_str:000000000002a46e .LASF4802
     /tmp/ccJdQ6R8.s:89110  .debug_str:0000000000003619 .LASF4803
     /tmp/ccJdQ6R8.s:90666  .debug_str:0000000000009f54 .LASF4804
     /tmp/ccJdQ6R8.s:102290  .debug_str:0000000000038d2c .LASF4805
     /tmp/ccJdQ6R8.s:89912  .debug_str:0000000000006db0 .LASF4806
     /tmp/ccJdQ6R8.s:90798  .debug_str:000000000000a887 .LASF4807
     /tmp/ccJdQ6R8.s:105696  .debug_str:0000000000047024 .LASF4808
     /tmp/ccJdQ6R8.s:106310  .debug_str:0000000000049985 .LASF4809
     /tmp/ccJdQ6R8.s:107214  .debug_str:000000000004d87d .LASF4810
     /tmp/ccJdQ6R8.s:104334  .debug_str:0000000000041856 .LASF4811
     /tmp/ccJdQ6R8.s:90526  .debug_str:00000000000096c4 .LASF4812
     /tmp/ccJdQ6R8.s:100688  .debug_str:0000000000032b81 .LASF4813
     /tmp/ccJdQ6R8.s:102342  .debug_str:000000000003910c .LASF4814
     /tmp/ccJdQ6R8.s:105918  .debug_str:0000000000047e51 .LASF4815
     /tmp/ccJdQ6R8.s:92232  .debug_str:00000000000101c2 .LASF4816
     /tmp/ccJdQ6R8.s:89236  .debug_str:0000000000003f23 .LASF4817
     /tmp/ccJdQ6R8.s:102176  .debug_str:0000000000038538 .LASF4818
     /tmp/ccJdQ6R8.s:100898  .debug_str:000000000003392c .LASF4819
     /tmp/ccJdQ6R8.s:100188  .debug_str:00000000000309ff .LASF4820
     /tmp/ccJdQ6R8.s:99608  .debug_str:000000000002e478 .LASF4821
     /tmp/ccJdQ6R8.s:91538  .debug_str:000000000000da89 .LASF4822
     /tmp/ccJdQ6R8.s:95456  .debug_str:000000000001d70b .LASF4823
     /tmp/ccJdQ6R8.s:98068  .debug_str:0000000000028205 .LASF4824
     /tmp/ccJdQ6R8.s:105794  .debug_str:00000000000476bf .LASF4825
     /tmp/ccJdQ6R8.s:104860  .debug_str:0000000000043975 .LASF4826
     /tmp/ccJdQ6R8.s:101534  .debug_str:000000000003628b .LASF4827
     /tmp/ccJdQ6R8.s:105532  .debug_str:000000000004648b .LASF4828
     /tmp/ccJdQ6R8.s:94174  .debug_str:0000000000017efa .LASF4829
     /tmp/ccJdQ6R8.s:106004  .debug_str:00000000000483c0 .LASF4830
     /tmp/ccJdQ6R8.s:88706  .debug_str:000000000000199e .LASF4831
     /tmp/ccJdQ6R8.s:93114  .debug_str:0000000000013a93 .LASF4832
     /tmp/ccJdQ6R8.s:104178  .debug_str:0000000000040c9a .LASF4833
     /tmp/ccJdQ6R8.s:89448  .debug_str:0000000000004e13 .LASF4834
     /tmp/ccJdQ6R8.s:96638  .debug_str:000000000002277b .LASF4835
     /tmp/ccJdQ6R8.s:101858  .debug_str:0000000000037488 .LASF4836
     /tmp/ccJdQ6R8.s:100446  .debug_str:0000000000031c46 .LASF4837
     /tmp/ccJdQ6R8.s:106292  .debug_str:0000000000049854 .LASF4838
     /tmp/ccJdQ6R8.s:96774  .debug_str:0000000000023084 .LASF4839
     /tmp/ccJdQ6R8.s:93982  .debug_str:00000000000172b3 .LASF4840
     /tmp/ccJdQ6R8.s:105544  .debug_str:0000000000046576 .LASF4841
     /tmp/ccJdQ6R8.s:95614  .debug_str:000000000001e19f .LASF4842
     /tmp/ccJdQ6R8.s:90382  .debug_str:0000000000008c6e .LASF4843
     /tmp/ccJdQ6R8.s:103722  .debug_str:000000000003eda2 .LASF4844
     /tmp/ccJdQ6R8.s:98622  .debug_str:000000000002a536 .LASF4845
     /tmp/ccJdQ6R8.s:96550  .debug_str:00000000000221cf .LASF4846
     /tmp/ccJdQ6R8.s:89472  .debug_str:0000000000004f3b .LASF4847
     /tmp/ccJdQ6R8.s:89270  .debug_str:00000000000041eb .LASF4848
     /tmp/ccJdQ6R8.s:100442  .debug_str:0000000000031c16 .LASF4849
     /tmp/ccJdQ6R8.s:95134  .debug_str:000000000001c0af .LASF4850
     /tmp/ccJdQ6R8.s:107084  .debug_str:000000000004cf84 .LASF4851
     /tmp/ccJdQ6R8.s:90066  .debug_str:00000000000077b6 .LASF4852
     /tmp/ccJdQ6R8.s:105358  .debug_str:00000000000459a2 .LASF4853
     /tmp/ccJdQ6R8.s:101118  .debug_str:000000000003486d .LASF4854
     /tmp/ccJdQ6R8.s:96336  .debug_str:0000000000021395 .LASF4855
     /tmp/ccJdQ6R8.s:102960  .debug_str:000000000003bb23 .LASF4856
     /tmp/ccJdQ6R8.s:104964  .debug_str:0000000000044092 .LASF4857
     /tmp/ccJdQ6R8.s:95322  .debug_str:000000000001cd1b .LASF4858
     /tmp/ccJdQ6R8.s:105590  .debug_str:0000000000046860 .LASF4859
     /tmp/ccJdQ6R8.s:107218  .debug_str:000000000004d8f0 .LASF4860
     /tmp/ccJdQ6R8.s:88666  .debug_str:00000000000016b8 .LASF4861
     /tmp/ccJdQ6R8.s:100594  .debug_str:00000000000325a6 .LASF4862
     /tmp/ccJdQ6R8.s:94734  .debug_str:000000000001a511 .LASF4863
     /tmp/ccJdQ6R8.s:105414  .debug_str:0000000000045d2a .LASF4864
     /tmp/ccJdQ6R8.s:98940  .debug_str:000000000002b9d4 .LASF4865
     /tmp/ccJdQ6R8.s:91498  .debug_str:000000000000d7d2 .LASF4866
     /tmp/ccJdQ6R8.s:90584  .debug_str:0000000000009a1b .LASF4867
     /tmp/ccJdQ6R8.s:96236  .debug_str:0000000000020de1 .LASF4868
     /tmp/ccJdQ6R8.s:102500  .debug_str:0000000000039ba3 .LASF4869
     /tmp/ccJdQ6R8.s:101178  .debug_str:0000000000034c7c .LASF4870
     /tmp/ccJdQ6R8.s:95380  .debug_str:000000000001d177 .LASF4871
     /tmp/ccJdQ6R8.s:101290  .debug_str:00000000000353dc .LASF4872
     /tmp/ccJdQ6R8.s:93606  .debug_str:00000000000158fa .LASF4873
     /tmp/ccJdQ6R8.s:99094  .debug_str:000000000002c2b7 .LASF4874
     /tmp/ccJdQ6R8.s:99438  .debug_str:000000000002d8c4 .LASF4875
     /tmp/ccJdQ6R8.s:99890  .debug_str:000000000002f76e .LASF4876
     /tmp/ccJdQ6R8.s:98572  .debug_str:000000000002a196 .LASF4877
     /tmp/ccJdQ6R8.s:103294  .debug_str:000000000003d0f2 .LASF4878
     /tmp/ccJdQ6R8.s:89492  .debug_str:0000000000005073 .LASF4879
     /tmp/ccJdQ6R8.s:92350  .debug_str:00000000000108a0 .LASF4880
     /tmp/ccJdQ6R8.s:91514  .debug_str:000000000000d8b4 .LASF4881
     /tmp/ccJdQ6R8.s:92842  .debug_str:00000000000128f8 .LASF4882
     /tmp/ccJdQ6R8.s:90294  .debug_str:000000000000869b .LASF4883
     /tmp/ccJdQ6R8.s:104054  .debug_str:00000000000404ed .LASF4884
     /tmp/ccJdQ6R8.s:88724  .debug_str:0000000000001b0d .LASF4885
     /tmp/ccJdQ6R8.s:92540  .debug_str:000000000001154b .LASF4886
     /tmp/ccJdQ6R8.s:98292  .debug_str:0000000000029026 .LASF4887
     /tmp/ccJdQ6R8.s:96360  .debug_str:000000000002158c .LASF4888
     /tmp/ccJdQ6R8.s:97368  .debug_str:0000000000025253 .LASF4889
     /tmp/ccJdQ6R8.s:100368  .debug_str:000000000003173d .LASF4890
     /tmp/ccJdQ6R8.s:94558  .debug_str:00000000000197ff .LASF4891
     /tmp/ccJdQ6R8.s:105362  .debug_str:00000000000459de .LASF4892
     /tmp/ccJdQ6R8.s:105792  .debug_str:000000000004769b .LASF4893
     /tmp/ccJdQ6R8.s:100692  .debug_str:0000000000032bdd .LASF4894
     /tmp/ccJdQ6R8.s:99538  .debug_str:000000000002dfd3 .LASF4895
     /tmp/ccJdQ6R8.s:99778  .debug_str:000000000002ef7e .LASF4896
     /tmp/ccJdQ6R8.s:91668  .debug_str:000000000000e23a .LASF4897
     /tmp/ccJdQ6R8.s:106062  .debug_str:00000000000487ca .LASF4898
     /tmp/ccJdQ6R8.s:95676  .debug_str:000000000001e64c .LASF4899
     /tmp/ccJdQ6R8.s:97846  .debug_str:0000000000027239 .LASF4900
     /tmp/ccJdQ6R8.s:101278  .debug_str:0000000000035321 .LASF4901
     /tmp/ccJdQ6R8.s:97416  .debug_str:000000000002556a .LASF4902
     /tmp/ccJdQ6R8.s:91142  .debug_str:000000000000c0bc .LASF4903
     /tmp/ccJdQ6R8.s:100458  .debug_str:0000000000031d13 .LASF4904
     /tmp/ccJdQ6R8.s:100256  .debug_str:0000000000030f72 .LASF4905
     /tmp/ccJdQ6R8.s:94960  .debug_str:000000000001b4b6 .LASF4906
     /tmp/ccJdQ6R8.s:96650  .debug_str:0000000000022886 .LASF4907
     /tmp/ccJdQ6R8.s:106078  .debug_str:000000000004895b .LASF4908
     /tmp/ccJdQ6R8.s:103174  .debug_str:000000000003c98e .LASF4909
     /tmp/ccJdQ6R8.s:97788  .debug_str:0000000000026ecf .LASF4910
     /tmp/ccJdQ6R8.s:106744  .debug_str:000000000004b8ae .LASF4911
     /tmp/ccJdQ6R8.s:103100  .debug_str:000000000003c4fb .LASF4912
     /tmp/ccJdQ6R8.s:89636  .debug_str:0000000000005ac8 .LASF4913
     /tmp/ccJdQ6R8.s:93542  .debug_str:0000000000015550 .LASF4914
     /tmp/ccJdQ6R8.s:98626  .debug_str:000000000002a597 .LASF4915
     /tmp/ccJdQ6R8.s:89464  .debug_str:0000000000004ec5 .LASF4916
     /tmp/ccJdQ6R8.s:96224  .debug_str:0000000000020d01 .LASF4917
     /tmp/ccJdQ6R8.s:94374  .debug_str:0000000000018b52 .LASF4918
     /tmp/ccJdQ6R8.s:92602  .debug_str:00000000000119f6 .LASF4919
     /tmp/ccJdQ6R8.s:96826  .debug_str:0000000000023446 .LASF4920
     /tmp/ccJdQ6R8.s:99146  .debug_str:000000000002c61c .LASF4921
     /tmp/ccJdQ6R8.s:106074  .debug_str:00000000000488e9 .LASF4922
     /tmp/ccJdQ6R8.s:104056  .debug_str:0000000000040513 .LASF4923
     /tmp/ccJdQ6R8.s:90750  .debug_str:000000000000a557 .LASF4924
     /tmp/ccJdQ6R8.s:98190  .debug_str:000000000002895c .LASF4925
     /tmp/ccJdQ6R8.s:105906  .debug_str:0000000000047d83 .LASF4926
     /tmp/ccJdQ6R8.s:96414  .debug_str:00000000000218f3 .LASF4927
     /tmp/ccJdQ6R8.s:93704  .debug_str:0000000000015f1f .LASF4928
     /tmp/ccJdQ6R8.s:92744  .debug_str:000000000001227b .LASF4929
     /tmp/ccJdQ6R8.s:102066  .debug_str:0000000000037fab .LASF4930
     /tmp/ccJdQ6R8.s:104740  .debug_str:0000000000043241 .LASF4931
     /tmp/ccJdQ6R8.s:89874  .debug_str:0000000000006b54 .LASF4932
     /tmp/ccJdQ6R8.s:102540  .debug_str:0000000000039df1 .LASF4933
     /tmp/ccJdQ6R8.s:105116  .debug_str:0000000000044971 .LASF4934
     /tmp/ccJdQ6R8.s:100840  .debug_str:0000000000033552 .LASF4935
     /tmp/ccJdQ6R8.s:93022  .debug_str:00000000000134df .LASF4936
     /tmp/ccJdQ6R8.s:90522  .debug_str:0000000000009681 .LASF4937
     /tmp/ccJdQ6R8.s:105114  .debug_str:000000000004494a .LASF4938
     /tmp/ccJdQ6R8.s:103606  .debug_str:000000000003e55b .LASF4939
     /tmp/ccJdQ6R8.s:100238  .debug_str:0000000000030dbf .LASF4940
     /tmp/ccJdQ6R8.s:90578  .debug_str:00000000000099a9 .LASF4941
     /tmp/ccJdQ6R8.s:99624  .debug_str:000000000002e55b .LASF4942
     /tmp/ccJdQ6R8.s:103096  .debug_str:000000000003c4bd .LASF4943
     /tmp/ccJdQ6R8.s:93078  .debug_str:000000000001384e .LASF4944
     /tmp/ccJdQ6R8.s:101982  .debug_str:0000000000037b22 .LASF4945
     /tmp/ccJdQ6R8.s:92398  .debug_str:0000000000010c51 .LASF4946
     /tmp/ccJdQ6R8.s:96878  .debug_str:000000000002382f .LASF4947
     /tmp/ccJdQ6R8.s:106810  .debug_str:000000000004bd0f .LASF4948
     /tmp/ccJdQ6R8.s:105112  .debug_str:000000000004491c .LASF4949
     /tmp/ccJdQ6R8.s:90212  .debug_str:0000000000008126 .LASF4950
     /tmp/ccJdQ6R8.s:91186  .debug_str:000000000000c3d3 .LASF4951
     /tmp/ccJdQ6R8.s:91050  .debug_str:000000000000baeb .LASF4952
     /tmp/ccJdQ6R8.s:90554  .debug_str:000000000000988a .LASF4953
     /tmp/ccJdQ6R8.s:97146  .debug_str:00000000000246df .LASF4954
     /tmp/ccJdQ6R8.s:96230  .debug_str:0000000000020d8b .LASF4955
     /tmp/ccJdQ6R8.s:92582  .debug_str:0000000000011851 .LASF4956
     /tmp/ccJdQ6R8.s:102284  .debug_str:0000000000038ccc .LASF4957
     /tmp/ccJdQ6R8.s:100522  .debug_str:0000000000032150 .LASF4958
     /tmp/ccJdQ6R8.s:102398  .debug_str:0000000000039491 .LASF4959
     /tmp/ccJdQ6R8.s:106730  .debug_str:000000000004b7ce .LASF4960
     /tmp/ccJdQ6R8.s:99928  .debug_str:000000000002f9e7 .LASF4961
     /tmp/ccJdQ6R8.s:90894  .debug_str:000000000000af85 .LASF4962
     /tmp/ccJdQ6R8.s:97372  .debug_str:000000000002529d .LASF4963
     /tmp/ccJdQ6R8.s:104596  .debug_str:0000000000042934 .LASF4964
     /tmp/ccJdQ6R8.s:106098  .debug_str:0000000000048ab3 .LASF4965
     /tmp/ccJdQ6R8.s:95852  .debug_str:000000000001f2d1 .LASF4966
     /tmp/ccJdQ6R8.s:103968  .debug_str:000000000003fecf .LASF4967
     /tmp/ccJdQ6R8.s:94088  .debug_str:000000000001792a .LASF4968
     /tmp/ccJdQ6R8.s:98938  .debug_str:000000000002b9a1 .LASF4969
     /tmp/ccJdQ6R8.s:90972  .debug_str:000000000000b550 .LASF4970
     /tmp/ccJdQ6R8.s:89886  .debug_str:0000000000006c1f .LASF4971
     /tmp/ccJdQ6R8.s:96256  .debug_str:0000000000020f58 .LASF4972
     /tmp/ccJdQ6R8.s:101070  .debug_str:0000000000034587 .LASF4973
     /tmp/ccJdQ6R8.s:92718  .debug_str:0000000000012184 .LASF4974
     /tmp/ccJdQ6R8.s:101950  .debug_str:0000000000037966 .LASF4975
     /tmp/ccJdQ6R8.s:97224  .debug_str:0000000000024a42 .LASF4976
     /tmp/ccJdQ6R8.s:102608  .debug_str:000000000003a32a .LASF4977
     /tmp/ccJdQ6R8.s:98248  .debug_str:0000000000028d2e .LASF4978
     /tmp/ccJdQ6R8.s:99996  .debug_str:000000000002fdec .LASF4979
     /tmp/ccJdQ6R8.s:90500  .debug_str:00000000000094a6 .LASF4980
     /tmp/ccJdQ6R8.s:92766  .debug_str:00000000000123dd .LASF4981
     /tmp/ccJdQ6R8.s:98724  .debug_str:000000000002ab74 .LASF4982
     /tmp/ccJdQ6R8.s:104686  .debug_str:0000000000042ef8 .LASF4983
     /tmp/ccJdQ6R8.s:91502  .debug_str:000000000000d809 .LASF4984
     /tmp/ccJdQ6R8.s:97506  .debug_str:0000000000025bb0 .LASF4985
     /tmp/ccJdQ6R8.s:88590  .debug_str:0000000000001198 .LASF4986
     /tmp/ccJdQ6R8.s:90204  .debug_str:00000000000080a2 .LASF4987
     /tmp/ccJdQ6R8.s:91832  .debug_str:000000000000ead6 .LASF4988
     /tmp/ccJdQ6R8.s:90170  .debug_str:0000000000007e01 .LASF4989
     /tmp/ccJdQ6R8.s:92834  .debug_str:000000000001286c .LASF4990
     /tmp/ccJdQ6R8.s:94996  .debug_str:000000000001b6c9 .LASF4991
     /tmp/ccJdQ6R8.s:95872  .debug_str:000000000001f45a .LASF4992
     /tmp/ccJdQ6R8.s:89140  .debug_str:000000000000385c .LASF4993
     /tmp/ccJdQ6R8.s:100752  .debug_str:0000000000032f3f .LASF4994
     /tmp/ccJdQ6R8.s:105472  .debug_str:00000000000460be .LASF4995
     /tmp/ccJdQ6R8.s:106784  .debug_str:000000000004bb18 .LASF4996
     /tmp/ccJdQ6R8.s:106340  .debug_str:0000000000049b7c .LASF4997
     /tmp/ccJdQ6R8.s:89252  .debug_str:000000000000404b .LASF4998
     /tmp/ccJdQ6R8.s:89790  .debug_str:00000000000064d3 .LASF4999
     /tmp/ccJdQ6R8.s:102878  .debug_str:000000000003b5eb .LASF5000
     /tmp/ccJdQ6R8.s:101650  .debug_str:0000000000036a45 .LASF5001
     /tmp/ccJdQ6R8.s:98316  .debug_str:00000000000291de .LASF5002
     /tmp/ccJdQ6R8.s:97034  .debug_str:0000000000024100 .LASF5003
     /tmp/ccJdQ6R8.s:89078  .debug_str:0000000000003403 .LASF5004
     /tmp/ccJdQ6R8.s:92856  .debug_str:0000000000012a3b .LASF5005
     /tmp/ccJdQ6R8.s:99024  .debug_str:000000000002bea5 .LASF5006
     /tmp/ccJdQ6R8.s:97174  .debug_str:0000000000024855 .LASF5007
     /tmp/ccJdQ6R8.s:93738  .debug_str:000000000001619f .LASF5008
     /tmp/ccJdQ6R8.s:93660  .debug_str:0000000000015c7d .LASF5009
     /tmp/ccJdQ6R8.s:94782  .debug_str:000000000001a801 .LASF5010
     /tmp/ccJdQ6R8.s:98932  .debug_str:000000000002b90a .LASF5011
     /tmp/ccJdQ6R8.s:97778  .debug_str:0000000000026df4 .LASF5012
     /tmp/ccJdQ6R8.s:92988  .debug_str:00000000000132b8 .LASF5013
     /tmp/ccJdQ6R8.s:100850  .debug_str:00000000000335cf .LASF5014
     /tmp/ccJdQ6R8.s:101940  .debug_str:00000000000378bf .LASF5015
     /tmp/ccJdQ6R8.s:96982  .debug_str:0000000000023e85 .LASF5016
     /tmp/ccJdQ6R8.s:102922  .debug_str:000000000003b853 .LASF5017
     /tmp/ccJdQ6R8.s:89784  .debug_str:0000000000006483 .LASF5018
     /tmp/ccJdQ6R8.s:101714  .debug_str:0000000000036d68 .LASF5019
     /tmp/ccJdQ6R8.s:89514  .debug_str:0000000000005220 .LASF5020
     /tmp/ccJdQ6R8.s:95428  .debug_str:000000000001d4db .LASF5021
     /tmp/ccJdQ6R8.s:105428  .debug_str:0000000000045e0d .LASF5022
     /tmp/ccJdQ6R8.s:106902  .debug_str:000000000004c384 .LASF5023
     /tmp/ccJdQ6R8.s:95040  .debug_str:000000000001b9d7 .LASF5024
     /tmp/ccJdQ6R8.s:97934  .debug_str:0000000000027894 .LASF5025
     /tmp/ccJdQ6R8.s:101366  .debug_str:000000000003587f .LASF5026
     /tmp/ccJdQ6R8.s:105370  .debug_str:0000000000045a5b .LASF5027
     /tmp/ccJdQ6R8.s:90936  .debug_str:000000000000b2b1 .LASF5028
     /tmp/ccJdQ6R8.s:99708  .debug_str:000000000002eb14 .LASF5029
     /tmp/ccJdQ6R8.s:88530  .debug_str:0000000000000d77 .LASF5030
     /tmp/ccJdQ6R8.s:106330  .debug_str:0000000000049ad0 .LASF5031
     /tmp/ccJdQ6R8.s:92302  .debug_str:00000000000105d5 .LASF5032
     /tmp/ccJdQ6R8.s:91018  .debug_str:000000000000b8b9 .LASF5033
     /tmp/ccJdQ6R8.s:97654  .debug_str:000000000002651c .LASF5034
     /tmp/ccJdQ6R8.s:93942  .debug_str:0000000000016f9a .LASF5035
     /tmp/ccJdQ6R8.s:89382  .debug_str:000000000000493a .LASF5036
     /tmp/ccJdQ6R8.s:89372  .debug_str:0000000000004897 .LASF5037
     /tmp/ccJdQ6R8.s:95138  .debug_str:000000000001c0e2 .LASF5038
     /tmp/ccJdQ6R8.s:89968  .debug_str:0000000000007140 .LASF5039
     /tmp/ccJdQ6R8.s:104872  .debug_str:0000000000043a48 .LASF5040
     /tmp/ccJdQ6R8.s:95662  .debug_str:000000000001e538 .LASF5041
     /tmp/ccJdQ6R8.s:93388  .debug_str:0000000000014b15 .LASF5042
     /tmp/ccJdQ6R8.s:98164  .debug_str:00000000000287f3 .LASF5043
     /tmp/ccJdQ6R8.s:93946  .debug_str:0000000000016ffb .LASF5044
     /tmp/ccJdQ6R8.s:102254  .debug_str:0000000000038a96 .LASF5045
     /tmp/ccJdQ6R8.s:105940  .debug_str:0000000000047fac .LASF5046
     /tmp/ccJdQ6R8.s:104472  .debug_str:00000000000420db .LASF5047
     /tmp/ccJdQ6R8.s:97666  .debug_str:00000000000265c5 .LASF5048
     /tmp/ccJdQ6R8.s:95048  .debug_str:000000000001ba59 .LASF5049
     /tmp/ccJdQ6R8.s:100974  .debug_str:0000000000033ea4 .LASF5050
     /tmp/ccJdQ6R8.s:105644  .debug_str:0000000000046c58 .LASF5051
     /tmp/ccJdQ6R8.s:106460  .debug_str:000000000004a367 .LASF5052
     /tmp/ccJdQ6R8.s:95834  .debug_str:000000000001f135 .LASF5053
     /tmp/ccJdQ6R8.s:101738  .debug_str:0000000000036efe .LASF5054
     /tmp/ccJdQ6R8.s:96768  .debug_str:000000000002300a .LASF5055
     /tmp/ccJdQ6R8.s:95336  .debug_str:000000000001ce48 .LASF5056
     /tmp/ccJdQ6R8.s:106128  .debug_str:0000000000048cce .LASF5057
     /tmp/ccJdQ6R8.s:106806  .debug_str:000000000004bccf .LASF5058
     /tmp/ccJdQ6R8.s:106752  .debug_str:000000000004b914 .LASF5059
     /tmp/ccJdQ6R8.s:102534  .debug_str:0000000000039d5e .LASF5060
     /tmp/ccJdQ6R8.s:97862  .debug_str:0000000000027345 .LASF5061
     /tmp/ccJdQ6R8.s:98308  .debug_str:0000000000029104 .LASF5062
     /tmp/ccJdQ6R8.s:106676  .debug_str:000000000004b347 .LASF5063
     /tmp/ccJdQ6R8.s:95170  .debug_str:000000000001c2f8 .LASF5064
     /tmp/ccJdQ6R8.s:104508  .debug_str:0000000000042388 .LASF5065
     /tmp/ccJdQ6R8.s:96948  .debug_str:0000000000023b79 .LASF5066
     /tmp/ccJdQ6R8.s:100510  .debug_str:0000000000032096 .LASF5067
     /tmp/ccJdQ6R8.s:98634  .debug_str:000000000002a60c .LASF5068
     /tmp/ccJdQ6R8.s:94346  .debug_str:0000000000018932 .LASF5069
     /tmp/ccJdQ6R8.s:99310  .debug_str:000000000002d0df .LASF5070
     /tmp/ccJdQ6R8.s:96554  .debug_str:000000000002220e .LASF5071
     /tmp/ccJdQ6R8.s:103450  .debug_str:000000000003db9d .LASF5072
     /tmp/ccJdQ6R8.s:102976  .debug_str:000000000003bc27 .LASF5073
     /tmp/ccJdQ6R8.s:92308  .debug_str:000000000001067b .LASF5074
     /tmp/ccJdQ6R8.s:90966  .debug_str:000000000000b4dd .LASF5075
     /tmp/ccJdQ6R8.s:102682  .debug_str:000000000003a8d1 .LASF5076
     /tmp/ccJdQ6R8.s:93082  .debug_str:00000000000138c4 .LASF5077
     /tmp/ccJdQ6R8.s:99852  .debug_str:000000000002f4f1 .LASF5078
     /tmp/ccJdQ6R8.s:98438  .debug_str:0000000000029964 .LASF5079
     /tmp/ccJdQ6R8.s:103022  .debug_str:000000000003bf34 .LASF5080
     /tmp/ccJdQ6R8.s:101352  .debug_str:000000000003578c .LASF5081
     /tmp/ccJdQ6R8.s:101518  .debug_str:0000000000036172 .LASF5082
     /tmp/ccJdQ6R8.s:98764  .debug_str:000000000002ae4a .LASF5083
     /tmp/ccJdQ6R8.s:104504  .debug_str:0000000000042340 .LASF5084
     /tmp/ccJdQ6R8.s:105190  .debug_str:0000000000044e52 .LASF5085
     /tmp/ccJdQ6R8.s:100382  .debug_str:0000000000031862 .LASF5086
     /tmp/ccJdQ6R8.s:91898  .debug_str:000000000000ee36 .LASF5087
     /tmp/ccJdQ6R8.s:103898  .debug_str:000000000003fa47 .LASF5088
     /tmp/ccJdQ6R8.s:106450  .debug_str:000000000004a2b3 .LASF5089
     /tmp/ccJdQ6R8.s:97458  .debug_str:0000000000025891 .LASF5090
     /tmp/ccJdQ6R8.s:94310  .debug_str:0000000000018713 .LASF5091
     /tmp/ccJdQ6R8.s:102038  .debug_str:0000000000037df0 .LASF5092
     /tmp/ccJdQ6R8.s:106404  .debug_str:0000000000049f82 .LASF5093
     /tmp/ccJdQ6R8.s:99124  .debug_str:000000000002c4c9 .LASF5094
     /tmp/ccJdQ6R8.s:91772  .debug_str:000000000000e709 .LASF5095
     /tmp/ccJdQ6R8.s:97916  .debug_str:000000000002773b .LASF5096
     /tmp/ccJdQ6R8.s:106852  .debug_str:000000000004c03d .LASF5097
     /tmp/ccJdQ6R8.s:90050  .debug_str:0000000000007698 .LASF5098
     /tmp/ccJdQ6R8.s:100146  .debug_str:0000000000030767 .LASF5099
     /tmp/ccJdQ6R8.s:89202  .debug_str:0000000000003c80 .LASF5100
     /tmp/ccJdQ6R8.s:104552  .debug_str:000000000004260b .LASF5101
     /tmp/ccJdQ6R8.s:104194  .debug_str:0000000000040dd4 .LASF5102
     /tmp/ccJdQ6R8.s:104388  .debug_str:0000000000041b68 .LASF5103
     /tmp/ccJdQ6R8.s:103664  .debug_str:000000000003e914 .LASF5104
     /tmp/ccJdQ6R8.s:90478  .debug_str:00000000000092ce .LASF5105
     /tmp/ccJdQ6R8.s:106468  .debug_str:000000000004a40f .LASF5106
     /tmp/ccJdQ6R8.s:94958  .debug_str:000000000001b48c .LASF5107
     /tmp/ccJdQ6R8.s:106722  .debug_str:000000000004b72e .LASF5108
     /tmp/ccJdQ6R8.s:101566  .debug_str:0000000000036521 .LASF5109
     /tmp/ccJdQ6R8.s:97632  .debug_str:000000000002635c .LASF5110
     /tmp/ccJdQ6R8.s:103582  .debug_str:000000000003e3b7 .LASF5111
     /tmp/ccJdQ6R8.s:89232  .debug_str:0000000000003eca .LASF5112
     /tmp/ccJdQ6R8.s:103960  .debug_str:000000000003fe5b .LASF5113
     /tmp/ccJdQ6R8.s:96140  .debug_str:0000000000020711 .LASF5114
     /tmp/ccJdQ6R8.s:95844  .debug_str:000000000001f223 .LASF5115
     /tmp/ccJdQ6R8.s:103454  .debug_str:000000000003dbf0 .LASF5116
     /tmp/ccJdQ6R8.s:100286  .debug_str:0000000000031158 .LASF5117
     /tmp/ccJdQ6R8.s:89742  .debug_str:000000000000618d .LASF5118
     /tmp/ccJdQ6R8.s:91398  .debug_str:000000000000d244 .LASF5119
     /tmp/ccJdQ6R8.s:101830  .debug_str:00000000000373d9 .LASF5120
     /tmp/ccJdQ6R8.s:101022  .debug_str:00000000000341f2 .LASF5121
     /tmp/ccJdQ6R8.s:94674  .debug_str:000000000001a11f .LASF5122
     /tmp/ccJdQ6R8.s:92034  .debug_str:000000000000f6a6 .LASF5123
     /tmp/ccJdQ6R8.s:92868  .debug_str:0000000000012b70 .LASF5124
     /tmp/ccJdQ6R8.s:101524  .debug_str:0000000000036201 .LASF5125
     /tmp/ccJdQ6R8.s:91352  .debug_str:000000000000cf1f .LASF5126
     /tmp/ccJdQ6R8.s:92132  .debug_str:000000000000fbe9 .LASF5127
     /tmp/ccJdQ6R8.s:96250  .debug_str:0000000000020edc .LASF5128
     /tmp/ccJdQ6R8.s:94134  .debug_str:0000000000017c16 .LASF5129
     /tmp/ccJdQ6R8.s:94388  .debug_str:0000000000018c3b .LASF5130
     /tmp/ccJdQ6R8.s:101046  .debug_str:00000000000343da .LASF5131
     /tmp/ccJdQ6R8.s:104698  .debug_str:0000000000042fa6 .LASF5132
     /tmp/ccJdQ6R8.s:92786  .debug_str:0000000000012534 .LASF5133
     /tmp/ccJdQ6R8.s:94484  .debug_str:00000000000192ba .LASF5134
     /tmp/ccJdQ6R8.s:98110  .debug_str:0000000000028423 .LASF5135
     /tmp/ccJdQ6R8.s:89280  .debug_str:00000000000042a4 .LASF5136
     /tmp/ccJdQ6R8.s:105892  .debug_str:0000000000047cd2 .LASF5137
     /tmp/ccJdQ6R8.s:99340  .debug_str:000000000002d2ad .LASF5138
     /tmp/ccJdQ6R8.s:106060  .debug_str:000000000004879b .LASF5139
     /tmp/ccJdQ6R8.s:89526  .debug_str:0000000000005326 .LASF5140
     /tmp/ccJdQ6R8.s:96370  .debug_str:0000000000021663 .LASF5141
     /tmp/ccJdQ6R8.s:104802  .debug_str:00000000000435f9 .LASF5142
     /tmp/ccJdQ6R8.s:96420  .debug_str:0000000000021945 .LASF5143
     /tmp/ccJdQ6R8.s:91316  .debug_str:000000000000ccfd .LASF5144
     /tmp/ccJdQ6R8.s:89174  .debug_str:0000000000003abf .LASF5145
     /tmp/ccJdQ6R8.s:91310  .debug_str:000000000000cc8a .LASF5146
     /tmp/ccJdQ6R8.s:107004  .debug_str:000000000004ca4c .LASF5148
     /tmp/ccJdQ6R8.s:91194  .debug_str:000000000000c481 .LASF5149
     /tmp/ccJdQ6R8.s:96008  .debug_str:000000000001feaf .LASF5150
     /tmp/ccJdQ6R8.s:91326  .debug_str:000000000000cd75 .LASF5151
     /tmp/ccJdQ6R8.s:98544  .debug_str:0000000000029fef .LASF5152
     /tmp/ccJdQ6R8.s:99002  .debug_str:000000000002bd74 .LASF5153
     /tmp/ccJdQ6R8.s:93292  .debug_str:00000000000144d1 .LASF5154
     /tmp/ccJdQ6R8.s:92066  .debug_str:000000000000f89f .LASF5155
     /tmp/ccJdQ6R8.s:97706  .debug_str:0000000000026911 .LASF5156
     /tmp/ccJdQ6R8.s:103318  .debug_str:000000000003d296 .LASF5157
     /tmp/ccJdQ6R8.s:99412  .debug_str:000000000002d755 .LASF5158
     /tmp/ccJdQ6R8.s:90134  .debug_str:0000000000007bb4 .LASF5159
     /tmp/ccJdQ6R8.s:103288  .debug_str:000000000003d07c .LASF5160
     /tmp/ccJdQ6R8.s:95258  .debug_str:000000000001c8f9 .LASF5161
     /tmp/ccJdQ6R8.s:101082  .debug_str:0000000000034654 .LASF5162
     /tmp/ccJdQ6R8.s:97982  .debug_str:0000000000027ba5 .LASF5163
     /tmp/ccJdQ6R8.s:89866  .debug_str:0000000000006a9d .LASF5164
     /tmp/ccJdQ6R8.s:93922  .debug_str:0000000000016e5d .LASF5165
     /tmp/ccJdQ6R8.s:105316  .debug_str:0000000000045681 .LASF5166
     /tmp/ccJdQ6R8.s:91112  .debug_str:000000000000beda .LASF5167
     /tmp/ccJdQ6R8.s:88384  .debug_str:00000000000003de .LASF5168
     /tmp/ccJdQ6R8.s:95124  .debug_str:000000000001bff6 .LASF5169
     /tmp/ccJdQ6R8.s:106570  .debug_str:000000000004aab1 .LASF5170
     /tmp/ccJdQ6R8.s:91528  .debug_str:000000000000d9d9 .LASF5171
     /tmp/ccJdQ6R8.s:103868  .debug_str:000000000003f899 .LASF5172
     /tmp/ccJdQ6R8.s:95122  .debug_str:000000000001bfd6 .LASF5173
     /tmp/ccJdQ6R8.s:89258  .debug_str:00000000000040d7 .LASF5174
     /tmp/ccJdQ6R8.s:95998  .debug_str:000000000001fe04 .LASF5175
     /tmp/ccJdQ6R8.s:101558  .debug_str:0000000000036468 .LASF5176
     /tmp/ccJdQ6R8.s:102488  .debug_str:0000000000039ad6 .LASF5177
     /tmp/ccJdQ6R8.s:89016  .debug_str:000000000000304e .LASF5178
     /tmp/ccJdQ6R8.s:90556  .debug_str:00000000000098bc .LASF5179
     /tmp/ccJdQ6R8.s:101964  .debug_str:0000000000037a2c .LASF5180
     /tmp/ccJdQ6R8.s:103578  .debug_str:000000000003e37e .LASF5181
     /tmp/ccJdQ6R8.s:88678  .debug_str:00000000000017b6 .LASF5182
     /tmp/ccJdQ6R8.s:98802  .debug_str:000000000002b07a .LASF5183
     /tmp/ccJdQ6R8.s:104186  .debug_str:0000000000040d1f .LASF5184
     /tmp/ccJdQ6R8.s:103242  .debug_str:000000000003ce9b .LASF5185
     /tmp/ccJdQ6R8.s:97914  .debug_str:000000000002771f .LASF5186
     /tmp/ccJdQ6R8.s:94866  .debug_str:000000000001ad59 .LASF5187
     /tmp/ccJdQ6R8.s:92914  .debug_str:0000000000012eae .LASF5188
     /tmp/ccJdQ6R8.s:89404  .debug_str:0000000000004b0e .LASF5189
     /tmp/ccJdQ6R8.s:99032  .debug_str:000000000002bf37 .LASF5190
     /tmp/ccJdQ6R8.s:97480  .debug_str:0000000000025a2b .LASF5191
     /tmp/ccJdQ6R8.s:91524  .debug_str:000000000000d99e .LASF5192
     /tmp/ccJdQ6R8.s:96606  .debug_str:000000000002254e .LASF5193
     /tmp/ccJdQ6R8.s:98838  .debug_str:000000000002b2d6 .LASF5194
     /tmp/ccJdQ6R8.s:103816  .debug_str:000000000003f4b2 .LASF5195
     /tmp/ccJdQ6R8.s:90462  .debug_str:00000000000091a8 .LASF5196
     /tmp/ccJdQ6R8.s:102338  .debug_str:00000000000390c5 .LASF5197
     /tmp/ccJdQ6R8.s:96108  .debug_str:00000000000204ce .LASF5198
     /tmp/ccJdQ6R8.s:90304  .debug_str:0000000000008708 .LASF5199
     /tmp/ccJdQ6R8.s:106466  .debug_str:000000000004a3ee .LASF5200
     /tmp/ccJdQ6R8.s:102120  .debug_str:000000000003823a .LASF5201
     /tmp/ccJdQ6R8.s:94646  .debug_str:0000000000019e8a .LASF5202
     /tmp/ccJdQ6R8.s:101344  .debug_str:0000000000035704 .LASF5203
     /tmp/ccJdQ6R8.s:90380  .debug_str:0000000000008c54 .LASF5204
     /tmp/ccJdQ6R8.s:88338  .debug_str:0000000000000098 .LASF5205
     /tmp/ccJdQ6R8.s:100436  .debug_str:0000000000031bbf .LASF5206
     /tmp/ccJdQ6R8.s:92678  .debug_str:0000000000011f00 .LASF5207
     /tmp/ccJdQ6R8.s:95908  .debug_str:000000000001f6e2 .LASF5208
     /tmp/ccJdQ6R8.s:97904  .debug_str:0000000000027669 .LASF5209
     /tmp/ccJdQ6R8.s:102468  .debug_str:00000000000399d9 .LASF5210
     /tmp/ccJdQ6R8.s:106274  .debug_str:000000000004971b .LASF5211
     /tmp/ccJdQ6R8.s:99154  .debug_str:000000000002c691 .LASF5212
     /tmp/ccJdQ6R8.s:89846  .debug_str:00000000000068ce .LASF5213
     /tmp/ccJdQ6R8.s:100706  .debug_str:0000000000032d08 .LASF5214
     /tmp/ccJdQ6R8.s:91970  .debug_str:000000000000f2b3 .LASF5215
     /tmp/ccJdQ6R8.s:106080  .debug_str:0000000000048984 .LASF5216
     /tmp/ccJdQ6R8.s:90396  .debug_str:0000000000008d3a .LASF5217
     /tmp/ccJdQ6R8.s:88994  .debug_str:0000000000002ef8 .LASF5218
     /tmp/ccJdQ6R8.s:88462  .debug_str:0000000000000945 .LASF5219
     /tmp/ccJdQ6R8.s:99246  .debug_str:000000000002ccf4 .LASF5220
     /tmp/ccJdQ6R8.s:90534  .debug_str:0000000000009761 .LASF5221
     /tmp/ccJdQ6R8.s:99728  .debug_str:000000000002ec14 .LASF5222
     /tmp/ccJdQ6R8.s:90752  .debug_str:000000000000a585 .LASF5223
     /tmp/ccJdQ6R8.s:99060  .debug_str:000000000002c0d7 .LASF5224
     /tmp/ccJdQ6R8.s:103428  .debug_str:000000000003d9d6 .LASF5225
     /tmp/ccJdQ6R8.s:89964  .debug_str:0000000000007112 .LASF5226
     /tmp/ccJdQ6R8.s:95046  .debug_str:000000000001ba43 .LASF5227
     /tmp/ccJdQ6R8.s:91108  .debug_str:000000000000be69 .LASF5228
     /tmp/ccJdQ6R8.s:99808  .debug_str:000000000002f1a3 .LASF5229
     /tmp/ccJdQ6R8.s:104284  .debug_str:0000000000041453 .LASF5230
     /tmp/ccJdQ6R8.s:94626  .debug_str:0000000000019c90 .LASF5231
     /tmp/ccJdQ6R8.s:90714  .debug_str:000000000000a30c .LASF5232
     /tmp/ccJdQ6R8.s:98016  .debug_str:0000000000027df7 .LASF5233
     /tmp/ccJdQ6R8.s:91626  .debug_str:000000000000e09a .LASF5234
     /tmp/ccJdQ6R8.s:100496  .debug_str:0000000000031fa2 .LASF5235
     /tmp/ccJdQ6R8.s:100584  .debug_str:00000000000324b4 .LASF5236
     /tmp/ccJdQ6R8.s:90732  .debug_str:000000000000a420 .LASF5237
     /tmp/ccJdQ6R8.s:97068  .debug_str:00000000000242eb .LASF5238
     /tmp/ccJdQ6R8.s:99030  .debug_str:000000000002bf0b .LASF5239
     /tmp/ccJdQ6R8.s:106256  .debug_str:00000000000495c5 .LASF5240
     /tmp/ccJdQ6R8.s:97976  .debug_str:0000000000027b45 .LASF5241
     /tmp/ccJdQ6R8.s:103360  .debug_str:000000000003d588 .LASF5242
     /tmp/ccJdQ6R8.s:102856  .debug_str:000000000003b489 .LASF5243
     /tmp/ccJdQ6R8.s:101168  .debug_str:0000000000034bb6 .LASF5244
     /tmp/ccJdQ6R8.s:95928  .debug_str:000000000001f854 .LASF5245
     /tmp/ccJdQ6R8.s:98140  .debug_str:000000000002861c .LASF5246
     /tmp/ccJdQ6R8.s:96630  .debug_str:00000000000226f0 .LASF5247
     /tmp/ccJdQ6R8.s:89752  .debug_str:000000000000621d .LASF5248
     /tmp/ccJdQ6R8.s:104116  .debug_str:0000000000040943 .LASF5249
     /tmp/ccJdQ6R8.s:88842  .debug_str:0000000000002323 .LASF5250
     /tmp/ccJdQ6R8.s:96238  .debug_str:0000000000020e10 .LASF5251
     /tmp/ccJdQ6R8.s:97830  .debug_str:0000000000027159 .LASF5252
     /tmp/ccJdQ6R8.s:92740  .debug_str:000000000001223b .LASF5253
     /tmp/ccJdQ6R8.s:89118  .debug_str:00000000000036d3 .LASF5254
     /tmp/ccJdQ6R8.s:104666  .debug_str:0000000000042dc8 .LASF5255
     /tmp/ccJdQ6R8.s:106020  .debug_str:0000000000048521 .LASF5256
     /tmp/ccJdQ6R8.s:95394  .debug_str:000000000001d267 .LASF5257
     /tmp/ccJdQ6R8.s:101782  .debug_str:0000000000037111 .LASF5258
     /tmp/ccJdQ6R8.s:95858  .debug_str:000000000001f358 .LASF5259
     /tmp/ccJdQ6R8.s:96604  .debug_str:0000000000022522 .LASF5260
     /tmp/ccJdQ6R8.s:103340  .debug_str:000000000003d446 .LASF5261
     /tmp/ccJdQ6R8.s:89704  .debug_str:0000000000005f3b .LASF5262
     /tmp/ccJdQ6R8.s:96660  .debug_str:000000000002292d .LASF5263
     /tmp/ccJdQ6R8.s:103540  .debug_str:000000000003e111 .LASF5264
     /tmp/ccJdQ6R8.s:91280  .debug_str:000000000000ca4d .LASF5265
     /tmp/ccJdQ6R8.s:90866  .debug_str:000000000000ad8a .LASF5266
     /tmp/ccJdQ6R8.s:92534  .debug_str:00000000000114eb .LASF5267
     /tmp/ccJdQ6R8.s:97722  .debug_str:0000000000026a0e .LASF5268
     /tmp/ccJdQ6R8.s:92588  .debug_str:00000000000118d3 .LASF5269
     /tmp/ccJdQ6R8.s:93970  .debug_str:00000000000171a7 .LASF5270
     /tmp/ccJdQ6R8.s:97432  .debug_str:0000000000025659 .LASF5271
     /tmp/ccJdQ6R8.s:89126  .debug_str:0000000000003777 .LASF5272
     /tmp/ccJdQ6R8.s:102258  .debug_str:0000000000038af8 .LASF5273
     /tmp/ccJdQ6R8.s:91972  .debug_str:000000000000f2d4 .LASF5274
     /tmp/ccJdQ6R8.s:90854  .debug_str:000000000000ac9e .LASF5275
     /tmp/ccJdQ6R8.s:96910  .debug_str:0000000000023a0a .LASF5276
     /tmp/ccJdQ6R8.s:103522  .debug_str:000000000003e017 .LASF5277
     /tmp/ccJdQ6R8.s:93218  .debug_str:0000000000014116 .LASF5278
     /tmp/ccJdQ6R8.s:106674  .debug_str:000000000004b32a .LASF5279
     /tmp/ccJdQ6R8.s:103570  .debug_str:000000000003e311 .LASF5280
     /tmp/ccJdQ6R8.s:91114  .debug_str:000000000000bf15 .LASF5281
     /tmp/ccJdQ6R8.s:90712  .debug_str:000000000000a2fd .LASF5282
     /tmp/ccJdQ6R8.s:96348  .debug_str:0000000000021475 .LASF5283
     /tmp/ccJdQ6R8.s:90452  .debug_str:0000000000009136 .LASF5284
     /tmp/ccJdQ6R8.s:90626  .debug_str:0000000000009d36 .LASF5285
     /tmp/ccJdQ6R8.s:96760  .debug_str:0000000000022fb8 .LASF5286
     /tmp/ccJdQ6R8.s:88578  .debug_str:00000000000010d9 .LASF5287
     /tmp/ccJdQ6R8.s:92448  .debug_str:0000000000010eee .LASF5288
     /tmp/ccJdQ6R8.s:95418  .debug_str:000000000001d45c .LASF5289
     /tmp/ccJdQ6R8.s:101328  .debug_str:00000000000355eb .LASF5290
     /tmp/ccJdQ6R8.s:94324  .debug_str:00000000000187ce .LASF5291
     /tmp/ccJdQ6R8.s:95610  .debug_str:000000000001e13a .LASF5292
     /tmp/ccJdQ6R8.s:95086  .debug_str:000000000001bd70 .LASF5293
     /tmp/ccJdQ6R8.s:103198  .debug_str:000000000003cb60 .LASF5294
     /tmp/ccJdQ6R8.s:89122  .debug_str:000000000000371b .LASF5295
     /tmp/ccJdQ6R8.s:89674  .debug_str:0000000000005d3c .LASF5296
     /tmp/ccJdQ6R8.s:106162  .debug_str:0000000000048f5a .LASF5297
     /tmp/ccJdQ6R8.s:90326  .debug_str:00000000000088b9 .LASF5298
     /tmp/ccJdQ6R8.s:100824  .debug_str:00000000000334cb .LASF5299
     /tmp/ccJdQ6R8.s:104366  .debug_str:0000000000041a58 .LASF5300
     /tmp/ccJdQ6R8.s:100590  .debug_str:000000000003252c .LASF5301
     /tmp/ccJdQ6R8.s:98612  .debug_str:000000000002a4a3 .LASF5303
     /tmp/ccJdQ6R8.s:93176  .debug_str:0000000000013e7b .LASF5304
     /tmp/ccJdQ6R8.s:101342  .debug_str:00000000000356fb .LASF5305
     /tmp/ccJdQ6R8.s:90662  .debug_str:0000000000009f0c .LASF5306
     /tmp/ccJdQ6R8.s:88344  .debug_str:0000000000000118 .LASF5307
     /tmp/ccJdQ6R8.s:107188  .debug_str:000000000004d696 .LASF5308
     /tmp/ccJdQ6R8.s:99490  .debug_str:000000000002dbc8 .LASF5309
     /tmp/ccJdQ6R8.s:96142  .debug_str:000000000002073c .LASF5310
     /tmp/ccJdQ6R8.s:103754  .debug_str:000000000003efdd .LASF5311
     /tmp/ccJdQ6R8.s:96488  .debug_str:0000000000021d72 .LASF5312
     /tmp/ccJdQ6R8.s:97774  .debug_str:0000000000026dc3 .LASF5313
     /tmp/ccJdQ6R8.s:94222  .debug_str:0000000000018181 .LASF5314
     /tmp/ccJdQ6R8.s:103640  .debug_str:000000000003e737 .LASF5315
     /tmp/ccJdQ6R8.s:102368  .debug_str:0000000000039274 .LASF5316
     /tmp/ccJdQ6R8.s:100484  .debug_str:0000000000031eaa .LASF5317
     /tmp/ccJdQ6R8.s:104048  .debug_str:0000000000040468 .LASF5318
     /tmp/ccJdQ6R8.s:98894  .debug_str:000000000002b686 .LASF5319
     /tmp/ccJdQ6R8.s:91246  .debug_str:000000000000c7f7 .LASF5320
     /tmp/ccJdQ6R8.s:93238  .debug_str:0000000000014231 .LASF5321
     /tmp/ccJdQ6R8.s:95658  .debug_str:000000000001e4d9 .LASF5322
     /tmp/ccJdQ6R8.s:101800  .debug_str:000000000003722b .LASF5323
     /tmp/ccJdQ6R8.s:88866  .debug_str:00000000000024fb .LASF5324
     /tmp/ccJdQ6R8.s:94970  .debug_str:000000000001b546 .LASF5325
     /tmp/ccJdQ6R8.s:101080  .debug_str:0000000000034638 .LASF5326
     /tmp/ccJdQ6R8.s:93880  .debug_str:0000000000016b30 .LASF5327
     /tmp/ccJdQ6R8.s:101014  .debug_str:0000000000034129 .LASF5328
     /tmp/ccJdQ6R8.s:103180  .debug_str:000000000003c9fe .LASF5329
     /tmp/ccJdQ6R8.s:91786  .debug_str:000000000000e7ad .LASF5330
     /tmp/ccJdQ6R8.s:105822  .debug_str:0000000000047868 .LASF5331
     /tmp/ccJdQ6R8.s:90606  .debug_str:0000000000009bc1 .LASF5332
     /tmp/ccJdQ6R8.s:105582  .debug_str:00000000000467ef .LASF5333
     /tmp/ccJdQ6R8.s:103368  .debug_str:000000000003d662 .LASF5334
     /tmp/ccJdQ6R8.s:91028  .debug_str:000000000000b985 .LASF5335
     /tmp/ccJdQ6R8.s:93830  .debug_str:0000000000016769 .LASF5336
     /tmp/ccJdQ6R8.s:97172  .debug_str:000000000002483c .LASF5337
     /tmp/ccJdQ6R8.s:104406  .debug_str:0000000000041cf3 .LASF5338
     /tmp/ccJdQ6R8.s:106908  .debug_str:000000000004c440 .LASF5339
     /tmp/ccJdQ6R8.s:90818  .debug_str:000000000000a9d8 .LASF5340
     /tmp/ccJdQ6R8.s:99838  .debug_str:000000000002f43c .LASF5341
     /tmp/ccJdQ6R8.s:98024  .debug_str:0000000000027ec7 .LASF5342
     /tmp/ccJdQ6R8.s:97324  .debug_str:0000000000024f9f .LASF5343
     /tmp/ccJdQ6R8.s:92226  .debug_str:000000000001015e .LASF5344
     /tmp/ccJdQ6R8.s:93070  .debug_str:00000000000137e4 .LASF5345
     /tmp/ccJdQ6R8.s:90940  .debug_str:000000000000b2fd .LASF5346
     /tmp/ccJdQ6R8.s:96482  .debug_str:0000000000021d0a .LASF5347
     /tmp/ccJdQ6R8.s:105796  .debug_str:00000000000476e3 .LASF5348
     /tmp/ccJdQ6R8.s:102702  .debug_str:000000000003aa1f .LASF5349
     /tmp/ccJdQ6R8.s:101634  .debug_str:00000000000368d0 .LASF5350
     /tmp/ccJdQ6R8.s:93448  .debug_str:0000000000014eed .LASF5351
     /tmp/ccJdQ6R8.s:93118  .debug_str:0000000000013ac2 .LASF5352
     /tmp/ccJdQ6R8.s:93472  .debug_str:0000000000015094 .LASF5353
     /tmp/ccJdQ6R8.s:105910  .debug_str:0000000000047dc0 .LASF5354
     /tmp/ccJdQ6R8.s:106022  .debug_str:000000000004854f .LASF5355
     /tmp/ccJdQ6R8.s:104274  .debug_str:000000000004137f .LASF5356
     /tmp/ccJdQ6R8.s:102060  .debug_str:0000000000037f6c .LASF5357
     /tmp/ccJdQ6R8.s:97746  .debug_str:0000000000026c31 .LASF5358
     /tmp/ccJdQ6R8.s:97816  .debug_str:00000000000270ad .LASF5359
     /tmp/ccJdQ6R8.s:96032  .debug_str:0000000000020031 .LASF5360
     /tmp/ccJdQ6R8.s:104074  .debug_str:00000000000406ba .LASF5361
     /tmp/ccJdQ6R8.s:102164  .debug_str:0000000000038467 .LASF5362
     /tmp/ccJdQ6R8.s:91906  .debug_str:000000000000eedb .LASF5363
     /tmp/ccJdQ6R8.s:97880  .debug_str:00000000000274b9 .LASF5364
     /tmp/ccJdQ6R8.s:105962  .debug_str:000000000004814c .LASF5365
     /tmp/ccJdQ6R8.s:95916  .debug_str:000000000001f7b5 .LASF5366
     /tmp/ccJdQ6R8.s:97118  .debug_str:0000000000024551 .LASF5367
     /tmp/ccJdQ6R8.s:105390  .debug_str:0000000000045bd9 .LASF5368
     /tmp/ccJdQ6R8.s:102438  .debug_str:0000000000039748 .LASF5369
     /tmp/ccJdQ6R8.s:96874  .debug_str:00000000000237e8 .LASF5370
     /tmp/ccJdQ6R8.s:89988  .debug_str:000000000000729d .LASF5371
     /tmp/ccJdQ6R8.s:93702  .debug_str:0000000000015f04 .LASF5372
     /tmp/ccJdQ6R8.s:106458  .debug_str:000000000004a34d .LASF5373
     /tmp/ccJdQ6R8.s:92580  .debug_str:0000000000011834 .LASF5374
     /tmp/ccJdQ6R8.s:104958  .debug_str:0000000000044034 .LASF5375
     /tmp/ccJdQ6R8.s:88380  .debug_str:0000000000000396 .LASF5376
     /tmp/ccJdQ6R8.s:105282  .debug_str:0000000000045420 .LASF5377
     /tmp/ccJdQ6R8.s:90222  .debug_str:00000000000081f5 .LASF5378
     /tmp/ccJdQ6R8.s:102212  .debug_str:00000000000387e3 .LASF5379
     /tmp/ccJdQ6R8.s:97800  .debug_str:0000000000026f77 .LASF5380
     /tmp/ccJdQ6R8.s:95102  .debug_str:000000000001bead .LASF5381
     /tmp/ccJdQ6R8.s:99652  .debug_str:000000000002e703 .LASF5382
     /tmp/ccJdQ6R8.s:91188  .debug_str:000000000000c400 .LASF5383
     /tmp/ccJdQ6R8.s:95354  .debug_str:000000000001cfb9 .LASF5384
     /tmp/ccJdQ6R8.s:100102  .debug_str:00000000000304d0 .LASF5385
     /tmp/ccJdQ6R8.s:105604  .debug_str:000000000004698a .LASF5386
     /tmp/ccJdQ6R8.s:102152  .debug_str:00000000000383c9 .LASF5387
     /tmp/ccJdQ6R8.s:94390  .debug_str:0000000000018c65 .LASF5388
     /tmp/ccJdQ6R8.s:97910  .debug_str:00000000000276c7 .LASF5389
     /tmp/ccJdQ6R8.s:96362  .debug_str:00000000000215b4 .LASF5390
     /tmp/ccJdQ6R8.s:100714  .debug_str:0000000000032d66 .LASF5391
     /tmp/ccJdQ6R8.s:90920  .debug_str:000000000000b1cc .LASF5392
     /tmp/ccJdQ6R8.s:98850  .debug_str:000000000002b3ee .LASF5393
     /tmp/ccJdQ6R8.s:105758  .debug_str:0000000000047431 .LASF5394
     /tmp/ccJdQ6R8.s:103136  .debug_str:000000000003c75c .LASF5395
     /tmp/ccJdQ6R8.s:92564  .debug_str:0000000000011741 .LASF5396
     /tmp/ccJdQ6R8.s:104896  .debug_str:0000000000043c00 .LASF5397
     /tmp/ccJdQ6R8.s:88352  .debug_str:00000000000001a3 .LASF5398
     /tmp/ccJdQ6R8.s:91372  .debug_str:000000000000d07c .LASF5399
     /tmp/ccJdQ6R8.s:93444  .debug_str:0000000000014e8d .LASF5400
     /tmp/ccJdQ6R8.s:101064  .debug_str:000000000003454b .LASF5401
     /tmp/ccJdQ6R8.s:92698  .debug_str:0000000000011ff9 .LASF5402
     /tmp/ccJdQ6R8.s:105602  .debug_str:0000000000046971 .LASF5403
     /tmp/ccJdQ6R8.s:88476  .debug_str:0000000000000a69 .LASF5404
     /tmp/ccJdQ6R8.s:105386  .debug_str:0000000000045b88 .LASF5405
     /tmp/ccJdQ6R8.s:101864  .debug_str:00000000000374f1 .LASF5406
     /tmp/ccJdQ6R8.s:100044  .debug_str:00000000000300c0 .LASF5407
     /tmp/ccJdQ6R8.s:97236  .debug_str:0000000000024b3c .LASF5408
     /tmp/ccJdQ6R8.s:96970  .debug_str:0000000000023dca .LASF5409
     /tmp/ccJdQ6R8.s:94962  .debug_str:000000000001b4e0 .LASF5410
     /tmp/ccJdQ6R8.s:92748  .debug_str:00000000000122b3 .LASF5411
     /tmp/ccJdQ6R8.s:103528  .debug_str:000000000003e074 .LASF5412
     /tmp/ccJdQ6R8.s:103390  .debug_str:000000000003d774 .LASF5413
     /tmp/ccJdQ6R8.s:106684  .debug_str:000000000004b3fc .LASF5414
     /tmp/ccJdQ6R8.s:88574  .debug_str:00000000000010b1 .LASF5415
     /tmp/ccJdQ6R8.s:97148  .debug_str:000000000002470e .LASF5416
     /tmp/ccJdQ6R8.s:105614  .debug_str:0000000000046a3c .LASF5417
     /tmp/ccJdQ6R8.s:94352  .debug_str:000000000001899b .LASF5418
     /tmp/ccJdQ6R8.s:93402  .debug_str:0000000000014c15 .LASF5419
     /tmp/ccJdQ6R8.s:92568  .debug_str:0000000000011767 .LASF5420
     /tmp/ccJdQ6R8.s:106266  .debug_str:0000000000049667 .LASF5421
     /tmp/ccJdQ6R8.s:92402  .debug_str:0000000000010c92 .LASF5422
     /tmp/ccJdQ6R8.s:99138  .debug_str:000000000002c5b6 .LASF5423
     /tmp/ccJdQ6R8.s:93134  .debug_str:0000000000013be3 .LASF5424
     /tmp/ccJdQ6R8.s:92470  .debug_str:0000000000011036 .LASF5425
     /tmp/ccJdQ6R8.s:97444  .debug_str:0000000000025754 .LASF5426
     /tmp/ccJdQ6R8.s:91960  .debug_str:000000000000f1cd .LASF5427
     /tmp/ccJdQ6R8.s:98440  .debug_str:000000000002998d .LASF5428
     /tmp/ccJdQ6R8.s:91664  .debug_str:000000000000e1f3 .LASF5429
     /tmp/ccJdQ6R8.s:95788  .debug_str:000000000001ede1 .LASF5430
     /tmp/ccJdQ6R8.s:89818  .debug_str:0000000000006707 .LASF5431
     /tmp/ccJdQ6R8.s:89186  .debug_str:0000000000003b7a .LASF5432
     /tmp/ccJdQ6R8.s:101734  .debug_str:0000000000036ecd .LASF5433
     /tmp/ccJdQ6R8.s:103762  .debug_str:000000000003f085 .LASF5434
     /tmp/ccJdQ6R8.s:97784  .debug_str:0000000000026e81 .LASF5435
     /tmp/ccJdQ6R8.s:104180  .debug_str:0000000000040cbe .LASF5436
     /tmp/ccJdQ6R8.s:106882  .debug_str:000000000004c213 .LASF5437
     /tmp/ccJdQ6R8.s:105924  .debug_str:0000000000047ec2 .LASF5438
     /tmp/ccJdQ6R8.s:103676  .debug_str:000000000003e9f2 .LASF5439
     /tmp/ccJdQ6R8.s:88568  .debug_str:000000000000103d .LASF5440
     /tmp/ccJdQ6R8.s:102030  .debug_str:0000000000037d5d .LASF5441
     /tmp/ccJdQ6R8.s:97050  .debug_str:00000000000241f0 .LASF5442
     /tmp/ccJdQ6R8.s:104638  .debug_str:0000000000042c05 .LASF5443
     /tmp/ccJdQ6R8.s:99150  .debug_str:000000000002c66a .LASF5444
     /tmp/ccJdQ6R8.s:101156  .debug_str:0000000000034b19 .LASF5445
     /tmp/ccJdQ6R8.s:100920  .debug_str:0000000000033aaf .LASF5446
     /tmp/ccJdQ6R8.s:99978  .debug_str:000000000002fcc9 .LASF5447
     /tmp/ccJdQ6R8.s:102472  .debug_str:0000000000039a2e .LASF5448
     /tmp/ccJdQ6R8.s:88414  .debug_str:000000000000062d .LASF5449
     /tmp/ccJdQ6R8.s:105930  .debug_str:0000000000047f18 .LASF5450
     /tmp/ccJdQ6R8.s:100280  .debug_str:0000000000031100 .LASF5451
     /tmp/ccJdQ6R8.s:102554  .debug_str:0000000000039eec .LASF5452
     /tmp/ccJdQ6R8.s:103748  .debug_str:000000000003ef93 .LASF5453
     /tmp/ccJdQ6R8.s:99722  .debug_str:000000000002ebc6 .LASF5454
     /tmp/ccJdQ6R8.s:105730  .debug_str:000000000004729d .LASF5455
     /tmp/ccJdQ6R8.s:106758  .debug_str:000000000004b9ab .LASF5456
     /tmp/ccJdQ6R8.s:98118  .debug_str:0000000000028481 .LASF5457
     /tmp/ccJdQ6R8.s:93000  .debug_str:00000000000133a8 .LASF5459
     /tmp/ccJdQ6R8.s:102870  .debug_str:000000000003b56d .LASF5460
     /tmp/ccJdQ6R8.s:103814  .debug_str:000000000003f494 .LASF5461
     /tmp/ccJdQ6R8.s:98828  .debug_str:000000000002b1fd .LASF5462
     /tmp/ccJdQ6R8.s:104414  .debug_str:0000000000041d66 .LASF5463
     /tmp/ccJdQ6R8.s:101114  .debug_str:000000000003483f .LASF5464
     /tmp/ccJdQ6R8.s:99638  .debug_str:000000000002e63f .LASF5465
     /tmp/ccJdQ6R8.s:96864  .debug_str:000000000002374f .LASF5466
     /tmp/ccJdQ6R8.s:88728  .debug_str:0000000000001b58 .LASF5467
     /tmp/ccJdQ6R8.s:92348  .debug_str:0000000000010887 .LASF5468
     /tmp/ccJdQ6R8.s:95976  .debug_str:000000000001fce7 .LASF5469
     /tmp/ccJdQ6R8.s:98074  .debug_str:0000000000028288 .LASF5470
     /tmp/ccJdQ6R8.s:104602  .debug_str:00000000000429a7 .LASF5471
     /tmp/ccJdQ6R8.s:99922  .debug_str:000000000002f98e .LASF5472
     /tmp/ccJdQ6R8.s:95010  .debug_str:000000000001b825 .LASF5473
     /tmp/ccJdQ6R8.s:103386  .debug_str:000000000003d74b .LASF5474
     /tmp/ccJdQ6R8.s:106554  .debug_str:000000000004a9e8 .LASF5475
     /tmp/ccJdQ6R8.s:106476  .debug_str:000000000004a4d1 .LASF5476
     /tmp/ccJdQ6R8.s:103050  .debug_str:000000000003c171 .LASF5477
     /tmp/ccJdQ6R8.s:95218  .debug_str:000000000001c5fd .LASF5478
     /tmp/ccJdQ6R8.s:88844  .debug_str:0000000000002351 .LASF5479
     /tmp/ccJdQ6R8.s:90406  .debug_str:0000000000008e68 .LASF5481
     /tmp/ccJdQ6R8.s:100034  .debug_str:000000000002ffea .LASF5482
     /tmp/ccJdQ6R8.s:94634  .debug_str:0000000000019d88 .LASF5483
     /tmp/ccJdQ6R8.s:97850  .debug_str:0000000000027286 .LASF5484
     /tmp/ccJdQ6R8.s:102516  .debug_str:0000000000039c71 .LASF5485
     /tmp/ccJdQ6R8.s:105704  .debug_str:00000000000470d2 .LASF5486
     /tmp/ccJdQ6R8.s:95178  .debug_str:000000000001c359 .LASF5487
     /tmp/ccJdQ6R8.s:89150  .debug_str:000000000000394a .LASF5488
     /tmp/ccJdQ6R8.s:93220  .debug_str:000000000001412a .LASF5489
     /tmp/ccJdQ6R8.s:96160  .debug_str:0000000000020867 .LASF5490
     /tmp/ccJdQ6R8.s:103416  .debug_str:000000000003d926 .LASF5491
     /tmp/ccJdQ6R8.s:102904  .debug_str:000000000003b74c .LASF5492
     /tmp/ccJdQ6R8.s:93362  .debug_str:0000000000014967 .LASF5493
     /tmp/ccJdQ6R8.s:102576  .debug_str:000000000003a0e5 .LASF5494
     /tmp/ccJdQ6R8.s:107106  .debug_str:000000000004d107 .LASF5495
     /tmp/ccJdQ6R8.s:100372  .debug_str:0000000000031783 .LASF5496
     /tmp/ccJdQ6R8.s:97828  .debug_str:0000000000027133 .LASF5497
     /tmp/ccJdQ6R8.s:105746  .debug_str:0000000000047395 .LASF5498
     /tmp/ccJdQ6R8.s:91708  .debug_str:000000000000e4a5 .LASF5499
     /tmp/ccJdQ6R8.s:104422  .debug_str:0000000000041dc4 .LASF5500
     /tmp/ccJdQ6R8.s:88906  .debug_str:000000000000284a .LASF5501
     /tmp/ccJdQ6R8.s:90774  .debug_str:000000000000a6d2 .LASF5502
     /tmp/ccJdQ6R8.s:107064  .debug_str:000000000004cdf4 .LASF5503
     /tmp/ccJdQ6R8.s:106652  .debug_str:000000000004b108 .LASF5504
     /tmp/ccJdQ6R8.s:101814  .debug_str:0000000000037310 .LASF5506
     /tmp/ccJdQ6R8.s:96580  .debug_str:000000000002238a .LASF5507
     /tmp/ccJdQ6R8.s:101400  .debug_str:0000000000035abb .LASF5508
     /tmp/ccJdQ6R8.s:94578  .debug_str:00000000000199a9 .LASF5509
     /tmp/ccJdQ6R8.s:89940  .debug_str:0000000000006fec .LASF5510
     /tmp/ccJdQ6R8.s:96532  .debug_str:00000000000220be .LASF5511
     /tmp/ccJdQ6R8.s:106658  .debug_str:000000000004b193 .LASF5512
     /tmp/ccJdQ6R8.s:105376  .debug_str:0000000000045ae6 .LASF5513
     /tmp/ccJdQ6R8.s:92782  .debug_str:00000000000124fc .LASF5514
     /tmp/ccJdQ6R8.s:101784  .debug_str:000000000003713d .LASF5515
     /tmp/ccJdQ6R8.s:96454  .debug_str:0000000000021b13 .LASF5516
     /tmp/ccJdQ6R8.s:92966  .debug_str:0000000000013193 .LASF5517
     /tmp/ccJdQ6R8.s:89536  .debug_str:00000000000053cd .LASF5518
     /tmp/ccJdQ6R8.s:105868  .debug_str:0000000000047b3f .LASF5519
     /tmp/ccJdQ6R8.s:89712  .debug_str:0000000000005fc0 .LASF5520
     /tmp/ccJdQ6R8.s:100466  .debug_str:0000000000031dbc .LASF5521
     /tmp/ccJdQ6R8.s:93116  .debug_str:0000000000013ab6 .LASF5522
     /tmp/ccJdQ6R8.s:93978  .debug_str:0000000000017251 .LASF5523
     /tmp/ccJdQ6R8.s:104376  .debug_str:0000000000041ae5 .LASF5524
     /tmp/ccJdQ6R8.s:100790  .debug_str:000000000003321f .LASF5526
     /tmp/ccJdQ6R8.s:90836  .debug_str:000000000000ab4d .LASF5527
     /tmp/ccJdQ6R8.s:103622  .debug_str:000000000003e67c .LASF5528
     /tmp/ccJdQ6R8.s:89030  .debug_str:000000000000311f .LASF5529
     /tmp/ccJdQ6R8.s:102042  .debug_str:0000000000037e2b .LASF5530
     /tmp/ccJdQ6R8.s:94694  .debug_str:000000000001a23d .LASF5531
     /tmp/ccJdQ6R8.s:94606  .debug_str:0000000000019b7d .LASF5532
     /tmp/ccJdQ6R8.s:105110  .debug_str:00000000000448e6 .LASF5533
     /tmp/ccJdQ6R8.s:97134  .debug_str:0000000000024603 .LASF5534
     /tmp/ccJdQ6R8.s:89352  .debug_str:0000000000004746 .LASF5535
     /tmp/ccJdQ6R8.s:93546  .debug_str:00000000000155a8 .LASF5536
     /tmp/ccJdQ6R8.s:103684  .debug_str:000000000003ea87 .LASF5537
     /tmp/ccJdQ6R8.s:96106  .debug_str:00000000000204b8 .LASF5538
     /tmp/ccJdQ6R8.s:96020  .debug_str:000000000001ff6b .LASF5539
     /tmp/ccJdQ6R8.s:89470  .debug_str:0000000000004f27 .LASF5540
     /tmp/ccJdQ6R8.s:92626  .debug_str:0000000000011b9c .LASF5541
     /tmp/ccJdQ6R8.s:100384  .debug_str:0000000000031875 .LASF5542
     /tmp/ccJdQ6R8.s:94076  .debug_str:000000000001780d .LASF5543
     /tmp/ccJdQ6R8.s:93230  .debug_str:00000000000141c9 .LASF5544
     /tmp/ccJdQ6R8.s:94254  .debug_str:00000000000182b5 .LASF5545
     /tmp/ccJdQ6R8.s:103480  .debug_str:000000000003dd81 .LASF5546
     /tmp/ccJdQ6R8.s:104794  .debug_str:000000000004359f .LASF5547
     /tmp/ccJdQ6R8.s:90680  .debug_str:000000000000a075 .LASF5548
     /tmp/ccJdQ6R8.s:91964  .debug_str:000000000000f226 .LASF5549
     /tmp/ccJdQ6R8.s:97748  .debug_str:0000000000026c4a .LASF5550
     /tmp/ccJdQ6R8.s:96316  .debug_str:00000000000212c5 .LASF5551
     /tmp/ccJdQ6R8.s:104450  .debug_str:0000000000041f4b .LASF5552
     /tmp/ccJdQ6R8.s:104570  .debug_str:000000000004273d .LASF5553
     /tmp/ccJdQ6R8.s:91872  .debug_str:000000000000ec97 .LASF5554
     /tmp/ccJdQ6R8.s:105850  .debug_str:00000000000479d3 .LASF5555
     /tmp/ccJdQ6R8.s:93912  .debug_str:0000000000016d7b .LASF5556
     /tmp/ccJdQ6R8.s:91956  .debug_str:000000000000f184 .LASF5557
     /tmp/ccJdQ6R8.s:96080  .debug_str:00000000000202d8 .LASF5558
     /tmp/ccJdQ6R8.s:100682  .debug_str:0000000000032b4b .LASF5559
     /tmp/ccJdQ6R8.s:98518  .debug_str:0000000000029ebc .LASF5560
     /tmp/ccJdQ6R8.s:92086  .debug_str:000000000000fa06 .LASF5561
     /tmp/ccJdQ6R8.s:89394  .debug_str:0000000000004a75 .LASF5562
     /tmp/ccJdQ6R8.s:103154  .debug_str:000000000003c896 .LASF5563
     /tmp/ccJdQ6R8.s:92070  .debug_str:000000000000f8eb .LASF5564
     /tmp/ccJdQ6R8.s:89868  .debug_str:0000000000006ab9 .LASF5565
     /tmp/ccJdQ6R8.s:97152  .debug_str:000000000002473f .LASF5566
     /tmp/ccJdQ6R8.s:94448  .debug_str:0000000000019040 .LASF5567
     /tmp/ccJdQ6R8.s:91368  .debug_str:000000000000d055 .LASF5568
     /tmp/ccJdQ6R8.s:88886  .debug_str:00000000000026a9 .LASF5569
     /tmp/ccJdQ6R8.s:93586  .debug_str:0000000000015786 .LASF5570
     /tmp/ccJdQ6R8.s:103964  .debug_str:000000000003fe84 .LASF5571
     /tmp/ccJdQ6R8.s:105464  .debug_str:0000000000046052 .LASF5572
     /tmp/ccJdQ6R8.s:99436  .debug_str:000000000002d8ab .LASF5573
     /tmp/ccJdQ6R8.s:88746  .debug_str:0000000000001c79 .LASF5574
     /tmp/ccJdQ6R8.s:97516  .debug_str:0000000000025c9a .LASF5575
     /tmp/ccJdQ6R8.s:99988  .debug_str:000000000002fd54 .LASF5576
     /tmp/ccJdQ6R8.s:91072  .debug_str:000000000000bc52 .LASF5577
     /tmp/ccJdQ6R8.s:97684  .debug_str:000000000002678c .LASF5578
     /tmp/ccJdQ6R8.s:98770  .debug_str:000000000002aeb0 .LASF5579
     /tmp/ccJdQ6R8.s:103426  .debug_str:000000000003d9bb .LASF5580
     /tmp/ccJdQ6R8.s:95434  .debug_str:000000000001d57a .LASF5581
     /tmp/ccJdQ6R8.s:100558  .debug_str:00000000000322e4 .LASF5582
     /tmp/ccJdQ6R8.s:96628  .debug_str:00000000000226d4 .LASF5583
     /tmp/ccJdQ6R8.s:90582  .debug_str:00000000000099fe .LASF5584
     /tmp/ccJdQ6R8.s:105430  .debug_str:0000000000045e3b .LASF5585
     /tmp/ccJdQ6R8.s:92030  .debug_str:000000000000f64c .LASF5586
     /tmp/ccJdQ6R8.s:93322  .debug_str:00000000000146f7 .LASF5587
     /tmp/ccJdQ6R8.s:95070  .debug_str:000000000001bc17 .LASF5588
     /tmp/ccJdQ6R8.s:89546  .debug_str:00000000000054dc .LASF5589
     /tmp/ccJdQ6R8.s:100246  .debug_str:0000000000030eab .LASF5590
     /tmp/ccJdQ6R8.s:105834  .debug_str:00000000000478f2 .LASF5591
     /tmp/ccJdQ6R8.s:95628  .debug_str:000000000001e275 .LASF5592
     /tmp/ccJdQ6R8.s:93808  .debug_str:0000000000016629 .LASF5593
     /tmp/ccJdQ6R8.s:105160  .debug_str:0000000000044cd0 .LASF5594
     /tmp/ccJdQ6R8.s:103302  .debug_str:000000000003d1a7 .LASF5595
     /tmp/ccJdQ6R8.s:94378  .debug_str:0000000000018b81 .LASF5596
     /tmp/ccJdQ6R8.s:91332  .debug_str:000000000000cde4 .LASF5597
     /tmp/ccJdQ6R8.s:96738  .debug_str:0000000000022e39 .LASF5598
     /tmp/ccJdQ6R8.s:90726  .debug_str:000000000000a3b0 .LASF5599
     /tmp/ccJdQ6R8.s:97618  .debug_str:000000000002628a .LASF5600
     /tmp/ccJdQ6R8.s:90468  .debug_str:000000000000923a .LASF5601
     /tmp/ccJdQ6R8.s:93476  .debug_str:00000000000150cd .LASF5602
     /tmp/ccJdQ6R8.s:98982  .debug_str:000000000002bc42 .LASF5603
     /tmp/ccJdQ6R8.s:89736  .debug_str:0000000000006147 .LASF5604
     /tmp/ccJdQ6R8.s:99456  .debug_str:000000000002d9f6 .LASF5605
     /tmp/ccJdQ6R8.s:104652  .debug_str:0000000000042cdd .LASF5606
     /tmp/ccJdQ6R8.s:89272  .debug_str:000000000000420e .LASF5607
     /tmp/ccJdQ6R8.s:89764  .debug_str:0000000000006329 .LASF5608
     /tmp/ccJdQ6R8.s:91064  .debug_str:000000000000bb9a .LASF5609
     /tmp/ccJdQ6R8.s:91392  .debug_str:000000000000d1dd .LASF5610
     /tmp/ccJdQ6R8.s:103032  .debug_str:000000000003c008 .LASF5611
     /tmp/ccJdQ6R8.s:89266  .debug_str:0000000000004177 .LASF5612
     /tmp/ccJdQ6R8.s:102202  .debug_str:0000000000038727 .LASF5613
     /tmp/ccJdQ6R8.s:104796  .debug_str:00000000000435b2 .LASF5614
     /tmp/ccJdQ6R8.s:98090  .debug_str:0000000000028354 .LASF5615
     /tmp/ccJdQ6R8.s:102274  .debug_str:0000000000038c20 .LASF5616
     /tmp/ccJdQ6R8.s:97074  .debug_str:0000000000024351 .LASF5617
     /tmp/ccJdQ6R8.s:102194  .debug_str:00000000000386c9 .LASF5618
     /tmp/ccJdQ6R8.s:98428  .debug_str:00000000000298b5 .LASF5619
     /tmp/ccJdQ6R8.s:104152  .debug_str:0000000000040ad8 .LASF5620
     /tmp/ccJdQ6R8.s:90958  .debug_str:000000000000b48c .LASF5621
     /tmp/ccJdQ6R8.s:90290  .debug_str:000000000000865f .LASF5622
     /tmp/ccJdQ6R8.s:97472  .debug_str:000000000002599e .LASF5623
     /tmp/ccJdQ6R8.s:88762  .debug_str:0000000000001d64 .LASF5624
     /tmp/ccJdQ6R8.s:97292  .debug_str:0000000000024d71 .LASF5625
     /tmp/ccJdQ6R8.s:97388  .debug_str:0000000000025382 .LASF5626
     /tmp/ccJdQ6R8.s:100518  .debug_str:0000000000032134 .LASF5627
     /tmp/ccJdQ6R8.s:104368  .debug_str:0000000000041a7d .LASF5628
     /tmp/ccJdQ6R8.s:103500  .debug_str:000000000003dec1 .LASF5629
     /tmp/ccJdQ6R8.s:92846  .debug_str:0000000000012961 .LASF5630
     /tmp/ccJdQ6R8.s:98238  .debug_str:0000000000028cb9 .LASF5631
     /tmp/ccJdQ6R8.s:101048  .debug_str:0000000000034401 .LASF5632
     /tmp/ccJdQ6R8.s:104088  .debug_str:00000000000407ab .LASF5633
     /tmp/ccJdQ6R8.s:94722  .debug_str:000000000001a45e .LASF5634
     /tmp/ccJdQ6R8.s:90570  .debug_str:000000000000995f .LASF5635
     /tmp/ccJdQ6R8.s:104538  .debug_str:0000000000042547 .LASF5636
     /tmp/ccJdQ6R8.s:89262  .debug_str:0000000000004115 .LASF5637
     /tmp/ccJdQ6R8.s:95672  .debug_str:000000000001e613 .LASF5638
     /tmp/ccJdQ6R8.s:99022  .debug_str:000000000002be88 .LASF5639
     /tmp/ccJdQ6R8.s:106606  .debug_str:000000000004ad26 .LASF5640
     /tmp/ccJdQ6R8.s:95252  .debug_str:000000000001c8b4 .LASF5641
     /tmp/ccJdQ6R8.s:97546  .debug_str:0000000000025ea3 .LASF5642
     /tmp/ccJdQ6R8.s:96700  .debug_str:0000000000022bf9 .LASF5643
     /tmp/ccJdQ6R8.s:93502  .debug_str:000000000001527b .LASF5644
     /tmp/ccJdQ6R8.s:104944  .debug_str:0000000000043f0c .LASF5645
     /tmp/ccJdQ6R8.s:88340  .debug_str:00000000000000ad .LASF5646
     /tmp/ccJdQ6R8.s:102832  .debug_str:000000000003b2c7 .LASF5647
     /tmp/ccJdQ6R8.s:91900  .debug_str:000000000000ee5f .LASF5648
     /tmp/ccJdQ6R8.s:102836  .debug_str:000000000003b308 .LASF5649
     /tmp/ccJdQ6R8.s:103086  .debug_str:000000000003c421 .LASF5650
     /tmp/ccJdQ6R8.s:96290  .debug_str:0000000000021183 .LASF5651
     /tmp/ccJdQ6R8.s:97154  .debug_str:0000000000024757 .LASF5652
     /tmp/ccJdQ6R8.s:89586  .debug_str:00000000000057f8 .LASF5653
     /tmp/ccJdQ6R8.s:98752  .debug_str:000000000002ad5b .LASF5654
     /tmp/ccJdQ6R8.s:90620  .debug_str:0000000000009ce4 .LASF5655
     /tmp/ccJdQ6R8.s:99740  .debug_str:000000000002ed2d .LASF5656
     /tmp/ccJdQ6R8.s:104960  .debug_str:0000000000044051 .LASF5657
     /tmp/ccJdQ6R8.s:104430  .debug_str:0000000000041e15 .LASF5658
     /tmp/ccJdQ6R8.s:89922  .debug_str:0000000000006e74 .LASF5659
     /tmp/ccJdQ6R8.s:99914  .debug_str:000000000002f8f0 .LASF5660
     /tmp/ccJdQ6R8.s:89132  .debug_str:00000000000037ca .LASF5661
     /tmp/ccJdQ6R8.s:100748  .debug_str:0000000000032f0a .LASF5662
     /tmp/ccJdQ6R8.s:100694  .debug_str:0000000000032c09 .LASF5663
     /tmp/ccJdQ6R8.s:101652  .debug_str:0000000000036a82 .LASF5664
     /tmp/ccJdQ6R8.s:90184  .debug_str:0000000000007f3b .LASF5665
     /tmp/ccJdQ6R8.s:92862  .debug_str:0000000000012af5 .LASF5666
     /tmp/ccJdQ6R8.s:95832  .debug_str:000000000001f112 .LASF5667
     /tmp/ccJdQ6R8.s:95238  .debug_str:000000000001c791 .LASF5668
     /tmp/ccJdQ6R8.s:97994  .debug_str:0000000000027c4f .LASF5669
     /tmp/ccJdQ6R8.s:106754  .debug_str:000000000004b942 .LASF5670
     /tmp/ccJdQ6R8.s:103880  .debug_str:000000000003f95f .LASF5671
     /tmp/ccJdQ6R8.s:96876  .debug_str:0000000000023805 .LASF5672
     /tmp/ccJdQ6R8.s:95242  .debug_str:000000000001c7cc .LASF5673
     /tmp/ccJdQ6R8.s:89062  .debug_str:000000000000336a .LASF5674
                           .group:0000000000000000 wm4.0.2cde0bba310258ac5fb120644dc52a54
                           .group:0000000000000000 wm4.stddef.h.39.a38874c8f8a57e66301090908ec2a69f
                           .group:0000000000000000 wm4.stdbool.h.29.07dce69c3b78884144b7f7bd19483461
                           .group:0000000000000000 wm4._newlib_version.h.4.9ba035841e762c3308916a0ce96032e7
                           .group:0000000000000000 wm4.features.h.33.318b64d71e0957639cfb30f1db1f7ec8
                           .group:0000000000000000 wm4._default_types.h.15.61e9869194cab90bdfa4c7fc42203a0e
                           .group:0000000000000000 wm4._intsup.h.10.b28b45fc63caeb010c3f7ee592257700
                           .group:0000000000000000 wm4._stdint.h.10.c24fa3af3bc1706662bb5593a907e841
                           .group:0000000000000000 wm4.stdint.h.23.d53047a68f4a85177f80b422d52785ed
                           .group:0000000000000000 wm4.mss_assert.h.10.09559128d1f6dbd833ab24347e71c76c
                           .group:0000000000000000 wm4.mss_legacy_defines.h.20.594d5f03b0f5314e3b2e801d98173479
                           .group:0000000000000000 wm4.mss_ddr_defs.h.18.58f9a87b5146acaefd5d9382d54140ba
                           .group:0000000000000000 wm4.mss_sysreg.h.19.614456a035a0cca3fd9d4348b0740228
                           .group:0000000000000000 wm4.mss_ddr_sgmii_regs.h.5543.4c565db9c25f7d4b45bd9b264c475c73
                           .group:0000000000000000 wm4.mss_io_config.h.18.b70207dea5a59bac7da73ad6eee375d0
                           .group:0000000000000000 wm4.mss_pll.h.192.d6d9146a5a36ce9e7f6a5ae2e7816970
                           .group:0000000000000000 wm4.mss_scb_nwc_regs.h.19.92192026ece1a0bf26c7a7af9a56e40a
                           .group:0000000000000000 wm4.mss_sw_config.h.37.2f79a8233593e640cb9660b9e2020907
                           .group:0000000000000000 wm4.atomic.h.33.7c17fdf64e267483cec1d3aead0473f4
                           .group:0000000000000000 wm4.bits.h.32.2ced66ae3bdb7651edf1ccfb67de7b38
                           .group:0000000000000000 wm4.encoding.h.34.68f898bac6356b153788044b6c29d177
                           .group:0000000000000000 wm4.fpga_design_config.h.28.572b3893a09debe9cb72c1441369aee0
                           .group:0000000000000000 wm4.hw_memory.h.28.20599cf485f90ffaa97f313798a86238
                           .group:0000000000000000 wm4.hw_apb_split.h.28.a2537f445f7a8784a4f064a3a60be381
                           .group:0000000000000000 wm4.hw_cache.h.28.aa59d0803f1283c480a862ba52ff4d4f
                           .group:0000000000000000 wm4.hw_pmp_hart0.h.28.354eeff78ff2eb91d2783e01dbe4e5a4
                           .group:0000000000000000 wm4.hw_pmp_hart1.h.28.0ab9e64d9d5e4b3cdd2ef9fae2ec18f2
                           .group:0000000000000000 wm4.hw_pmp_hart2.h.28.361fe83e7fd64067a0988f3e9bcd6e5d
                           .group:0000000000000000 wm4.hw_pmp_hart3.h.28.8c3eca8078d58a4979d23ae7fc3ceb35
                           .group:0000000000000000 wm4.hw_pmp_hart4.h.28.f8bf6b50f09effab3f4dfc16a44d5d0e
                           .group:0000000000000000 wm4.hw_mpu_fic0.h.28.3a719367ee0b56c20c7541cca5239296
                           .group:0000000000000000 wm4.hw_mpu_fic1.h.28.35d3b72b131707dc62529924d8a0d281
                           .group:0000000000000000 wm4.hw_mpu_fic2.h.28.88b1cd488fc04fd09199876067a670cb
                           .group:0000000000000000 wm4.hw_mpu_crypto.h.28.45628d14bd81b7ae15853711bd55f118
                           .group:0000000000000000 wm4.hw_mpu_gem0.h.28.e88b73a77e588162ac08b038acfe3e30
                           .group:0000000000000000 wm4.hw_mpu_gem1.h.28.dadc3a640dcfb61a8f24791560fa3605
                           .group:0000000000000000 wm4.hw_mpu_usb.h.28.0b0c25c65da87670d72dffa8e9b51ad6
                           .group:0000000000000000 wm4.hw_mpu_mmc.h.28.a5df85f7a87dfaafd939c0c9743b44a9
                           .group:0000000000000000 wm4.hw_mpu_scb.h.28.2b778d620a29a13b1a33733b3fefaf3e
                           .group:0000000000000000 wm4.hw_mpu_trace.h.28.dbb150e27983d45d78ea646dfe7486fe
                           .group:0000000000000000 wm4.hw_mssio_mux.h.28.b18396e0f5e6c83835b3b8e1dfadc1b4
                           .group:0000000000000000 wm4.hw_hsio_mux.h.28.924a66a0f83f27c24767fbfdaffeb21f
                           .group:0000000000000000 wm4.hw_sgmii_tip.h.28.c2c656c87ab558ebf9f510f55b530997
                           .group:0000000000000000 wm4.hw_ddr_options.h.28.583107ebf3250a7e99a4e34ca34040f9
                           .group:0000000000000000 wm4.hw_ddr_io_bank.h.28.09e373f4be71534c2b0bf629a50788a8
                           .group:0000000000000000 wm4.hw_ddr_mode.h.28.3ecff7868bb6c2027433e8aaf3a6e9d0
                           .group:0000000000000000 wm4.hw_ddr_off_mode.h.28.c8f0d4bcf68d083d8ff0335e558930e9
                           .group:0000000000000000 wm4.hw_ddr_segs.h.28.93c530a254cc8a9c015d0bae044125b2
                           .group:0000000000000000 wm4.hw_ddrc.h.28.d858943fbdd3e7761d52c974b21ea425
                           .group:0000000000000000 wm4.hw_mss_clks.h.28.53b1f012440894624f35e610477ed6d8
                           .group:0000000000000000 wm4.hw_clk_sysreg.h.28.adf2eb2b08eeb2ee56f6129328388395
                           .group:0000000000000000 wm4.hw_clk_mss_pll.h.28.f255323a7f4276a824501e07bd0f464a
                           .group:0000000000000000 wm4.hw_clk_sgmii_pll.h.28.b1aefe04f9cda949aee4586f0025e039
                           .group:0000000000000000 wm4.hw_clk_ddr_pll.h.28.8f0ed359dbfb59ae6f0aa1f29002d60d
                           .group:0000000000000000 wm4.hw_clk_mss_cfm.h.28.365f11189fcbf1e2f08db25b2ea1557a
                           .group:0000000000000000 wm4.hw_clk_sgmii_cfm.h.28.f59fda78ad3b4981ccbc9fbc0d90ca0a
                           .group:0000000000000000 wm4.hw_gen_peripherals.h.28.67a363af3ea61147ac365f904e7b6183
                           .group:0000000000000000 wm4.mss_ddr.h.335.a7fe38050b0f6ce3ee0df6f9cb324a9e
                           .group:0000000000000000 wm4.mss_clint.h.28.3d2c636f4c8175d64797a2e961db02ff
                           .group:0000000000000000 wm4.mss_h2f.h.21.7086260854010c63b41a469cd9f7486d
                           .group:0000000000000000 wm4.mss_hart_ints.h.20.df914e6570bee6a0a5e5635d9329f21b
                           .group:0000000000000000 wm4.mss_mpu.h.20.dd1fa2a8702d0e819fbbb263dc6428d1
                           .group:0000000000000000 wm4.mss_pmp.h.19.8f83d750289fe5e95625891444a65774
                           .group:0000000000000000 wm4.mss_plic.h.38.63bddd8b7aeec5445a0ab9c829719734
                           .group:0000000000000000 wm4.mss_seg.h.38.d7fedb2c993ff2eb58c3c1c5f57af66f
                           .group:0000000000000000 wm4.mss_util.h.31.57922375d48cf596b0783b975bb89aba
                           .group:0000000000000000 wm4.mss_mtrap.h.32.75bfcc4d9a15120a34cb2ee456cde55a
                           .group:0000000000000000 wm4.mss_l2_cache.h.430.934410ee5d62996f3b8869a34907e316
                           .group:0000000000000000 wm4.mss_axiswitch.h.110.fc13072c0144cbd8e516d1d4f8c599b2
                           .group:0000000000000000 wm4.mss_peripherals.h.19.9837bc1f8d1c62dfd266b4590a8830b2
                           .group:0000000000000000 wm4.mss_cfm.h.20.474baf099ef6f60b14912c934c5e47c6
                           .group:0000000000000000 wm4.mss_sgmii.h.18.7850ab5b5e05dabb42db8143f362bae8
                           .group:0000000000000000 wm4.system_startup.h.17.372727b49fdab2e286123d13f6b6542a
                           .group:0000000000000000 wm4.mss_ddr_debug.h.40.79a83a45aea2f09f97e5663e254e5e65
                           .group:0000000000000000 wm4.mss_gpio.h.186.6a8b841ac6365293c5e69064e920e3ed

NO UNDEFINED SYMBOLS
