   1              		.file	"newlib_stubs.c"
   2              		.option nopic
   3              		.attribute arch, "rv64i2p0_m2p0_a2p0_f2p0_d2p0_c2p0"
   4              		.attribute unaligned_access, 0
   5              		.attribute stack_align, 16
   6              		.text
   7              	.Ltext0:
   8              		.cfi_sections	.debug_frame
   9              		.globl	__env
  10              		.section	.sbss.__env,"aw",@nobits
  11              		.align	3
  14              	__env:
  15 0000 00000000 		.zero	8
  15      00000000 
  16              		.globl	environ
  17              		.section	.sdata.environ,"aw"
  18              		.align	3
  21              	environ:
  22 0000 00000000 		.dword	__env
  22      00000000 
  23              		.section	.text._close,"ax",@progbits
  24              		.align	1
  25              		.globl	_close
  27              	_close:
  28              	.LFB19:
  29              		.file 1 "../src/platform/mpfs_hal/startup_gcc/newlib_stubs.c"
   1:../src/platform/mpfs_hal/startup_gcc/newlib_stubs.c **** /*******************************************************************************
   2:../src/platform/mpfs_hal/startup_gcc/newlib_stubs.c ****  * Copyright 2019-2022 Microchip FPGA Embedded Systems Solutions.
   3:../src/platform/mpfs_hal/startup_gcc/newlib_stubs.c ****  *
   4:../src/platform/mpfs_hal/startup_gcc/newlib_stubs.c ****  * SPDX-License-Identifier: MIT
   5:../src/platform/mpfs_hal/startup_gcc/newlib_stubs.c ****  *
   6:../src/platform/mpfs_hal/startup_gcc/newlib_stubs.c ****  * MPFS HAL Embedded Software
   7:../src/platform/mpfs_hal/startup_gcc/newlib_stubs.c ****  *
   8:../src/platform/mpfs_hal/startup_gcc/newlib_stubs.c ****  */
   9:../src/platform/mpfs_hal/startup_gcc/newlib_stubs.c **** 
  10:../src/platform/mpfs_hal/startup_gcc/newlib_stubs.c **** /*******************************************************************************
  11:../src/platform/mpfs_hal/startup_gcc/newlib_stubs.c ****  * @file newlib_stubs.c
  12:../src/platform/mpfs_hal/startup_gcc/newlib_stubs.c ****  * @author Microchip-FPGA Embedded Systems Solutions
  13:../src/platform/mpfs_hal/startup_gcc/newlib_stubs.c ****  * @brief Stubs for Newlib system calls.
  14:../src/platform/mpfs_hal/startup_gcc/newlib_stubs.c ****  *
  15:../src/platform/mpfs_hal/startup_gcc/newlib_stubs.c ****  */
  16:../src/platform/mpfs_hal/startup_gcc/newlib_stubs.c **** #include <sys/times.h>
  17:../src/platform/mpfs_hal/startup_gcc/newlib_stubs.c **** #include <sys/stat.h>
  18:../src/platform/mpfs_hal/startup_gcc/newlib_stubs.c **** #include <sys/types.h>
  19:../src/platform/mpfs_hal/startup_gcc/newlib_stubs.c **** #include <errno.h>
  20:../src/platform/mpfs_hal/startup_gcc/newlib_stubs.c **** #include <unistd.h>
  21:../src/platform/mpfs_hal/startup_gcc/newlib_stubs.c **** #include "../mss_hal.h"
  22:../src/platform/mpfs_hal/startup_gcc/newlib_stubs.c **** 
  23:../src/platform/mpfs_hal/startup_gcc/newlib_stubs.c **** /*==============================================================================
  24:../src/platform/mpfs_hal/startup_gcc/newlib_stubs.c ****  * Redirection of standard output to an MSS UART.
  25:../src/platform/mpfs_hal/startup_gcc/newlib_stubs.c ****  *------------------------------------------------------------------------------
  26:../src/platform/mpfs_hal/startup_gcc/newlib_stubs.c ****  * A default implementation for the redirection of the output of printf() to a
  27:../src/platform/mpfs_hal/startup_gcc/newlib_stubs.c ****  * UART is provided at the bottom of this file. This redirection is enabled by
  28:../src/platform/mpfs_hal/startup_gcc/newlib_stubs.c ****  * adding one of the following defines to your project in the project file
  29:../src/platform/mpfs_hal/startup_gcc/newlib_stubs.c ****  * boards/your-board/mpfs_hal_config/mss_sw_config.h
  30:../src/platform/mpfs_hal/startup_gcc/newlib_stubs.c ****  *
  31:../src/platform/mpfs_hal/startup_gcc/newlib_stubs.c ****  * #define MICROCHIP_STDIO_THRU_MMUARTX &g_mss_uart0_lo
  32:../src/platform/mpfs_hal/startup_gcc/newlib_stubs.c ****  * #define MICROCHIP_STDIO_THRU_MMUARTX &g_mss_uart1_lo
  33:../src/platform/mpfs_hal/startup_gcc/newlib_stubs.c ****  * #define MICROCHIP_STDIO_THRU_MMUARTX &g_mss_uart2_lo
  34:../src/platform/mpfs_hal/startup_gcc/newlib_stubs.c ****  * #define MICROCHIP_STDIO_THRU_MMUARTX &g_mss_uart3_lo
  35:../src/platform/mpfs_hal/startup_gcc/newlib_stubs.c ****  * #define MICROCHIP_STDIO_THRU_MMUARTX &g_mss_uart4_lo
  36:../src/platform/mpfs_hal/startup_gcc/newlib_stubs.c ****  * #define MICROCHIP_STDIO_THRU_MMUARTX &g_mss_uart0_hi
  37:../src/platform/mpfs_hal/startup_gcc/newlib_stubs.c ****  * #define MICROCHIP_STDIO_THRU_MMUARTX &g_mss_uart1_hi
  38:../src/platform/mpfs_hal/startup_gcc/newlib_stubs.c ****  * #define MICROCHIP_STDIO_THRU_MMUARTX &g_mss_uart2_hi
  39:../src/platform/mpfs_hal/startup_gcc/newlib_stubs.c ****  * #define MICROCHIP_STDIO_THRU_MMUARTX &g_mss_uart3_hi
  40:../src/platform/mpfs_hal/startup_gcc/newlib_stubs.c ****  * #define MICROCHIP_STDIO_THRU_MMUARTX &g_mss_uart4_hi
  41:../src/platform/mpfs_hal/startup_gcc/newlib_stubs.c ****  * The baud rate using the MICROCHIP_STDIO_BAUD_RATE define.
  42:../src/platform/mpfs_hal/startup_gcc/newlib_stubs.c ****  *
  43:../src/platform/mpfs_hal/startup_gcc/newlib_stubs.c ****  * Note: you must have mss_mmuart driver source code included in the project.
  44:../src/platform/mpfs_hal/startup_gcc/newlib_stubs.c ****  *
  45:../src/platform/mpfs_hal/startup_gcc/newlib_stubs.c ****  * Also note defaults to 115200 baud if no baud rate is specified using the
  46:../src/platform/mpfs_hal/startup_gcc/newlib_stubs.c ****  * MICROCHIP_STDIO_BAUD_RATE #define.
  47:../src/platform/mpfs_hal/startup_gcc/newlib_stubs.c ****  */
  48:../src/platform/mpfs_hal/startup_gcc/newlib_stubs.c **** #ifdef MICROCHIP_STDIO_THRU_MMUARTX
  49:../src/platform/mpfs_hal/startup_gcc/newlib_stubs.c **** #include "drivers/mss/mss_mmuart/mss_uart.h"
  50:../src/platform/mpfs_hal/startup_gcc/newlib_stubs.c **** 
  51:../src/platform/mpfs_hal/startup_gcc/newlib_stubs.c **** #ifndef MICROCHIP_STDIO_BAUD_RATE
  52:../src/platform/mpfs_hal/startup_gcc/newlib_stubs.c **** #define MICROCHIP_STDIO_BAUD_RATE  MSS_UART_115200_BAUD
  53:../src/platform/mpfs_hal/startup_gcc/newlib_stubs.c **** #endif
  54:../src/platform/mpfs_hal/startup_gcc/newlib_stubs.c **** 
  55:../src/platform/mpfs_hal/startup_gcc/newlib_stubs.c **** static mss_uart_instance_t * const gp_my_uart = MICROCHIP_STDIO_THRU_MMUARTX;
  56:../src/platform/mpfs_hal/startup_gcc/newlib_stubs.c **** 
  57:../src/platform/mpfs_hal/startup_gcc/newlib_stubs.c **** /*------------------------------------------------------------------------------
  58:../src/platform/mpfs_hal/startup_gcc/newlib_stubs.c ****  * Global flag used to indicate if the UART driver needs to be initialized.
  59:../src/platform/mpfs_hal/startup_gcc/newlib_stubs.c ****  */
  60:../src/platform/mpfs_hal/startup_gcc/newlib_stubs.c **** static int g_stdio_uart_init_done = 0;
  61:../src/platform/mpfs_hal/startup_gcc/newlib_stubs.c **** 
  62:../src/platform/mpfs_hal/startup_gcc/newlib_stubs.c **** #endif /* MICROCHIP_STDIO_THRU_MMUARTX */
  63:../src/platform/mpfs_hal/startup_gcc/newlib_stubs.c **** 
  64:../src/platform/mpfs_hal/startup_gcc/newlib_stubs.c **** /*==============================================================================
  65:../src/platform/mpfs_hal/startup_gcc/newlib_stubs.c ****  * Environment variables.
  66:../src/platform/mpfs_hal/startup_gcc/newlib_stubs.c ****  * A pointer to a list of environment variables and their values. For a minimal
  67:../src/platform/mpfs_hal/startup_gcc/newlib_stubs.c ****  * environment, this empty list is adequate:
  68:../src/platform/mpfs_hal/startup_gcc/newlib_stubs.c ****  */
  69:../src/platform/mpfs_hal/startup_gcc/newlib_stubs.c **** char *__env[1] = { 0 };
  70:../src/platform/mpfs_hal/startup_gcc/newlib_stubs.c **** char **environ = __env;
  71:../src/platform/mpfs_hal/startup_gcc/newlib_stubs.c **** 
  72:../src/platform/mpfs_hal/startup_gcc/newlib_stubs.c **** 
  73:../src/platform/mpfs_hal/startup_gcc/newlib_stubs.c **** /*==============================================================================
  74:../src/platform/mpfs_hal/startup_gcc/newlib_stubs.c ****  * Close a file.
  75:../src/platform/mpfs_hal/startup_gcc/newlib_stubs.c ****  */
  76:../src/platform/mpfs_hal/startup_gcc/newlib_stubs.c **** int _close(int file);
  77:../src/platform/mpfs_hal/startup_gcc/newlib_stubs.c **** int _close(int file)
  78:../src/platform/mpfs_hal/startup_gcc/newlib_stubs.c **** {
  30              		.loc 1 78 1
  31              		.cfi_startproc
  32 0000 0111     		addi	sp,sp,-32
  33              		.cfi_def_cfa_offset 32
  34 0002 22EC     		sd	s0,24(sp)
  35              		.cfi_offset 8, -8
  36 0004 0010     		addi	s0,sp,32
  37              		.cfi_def_cfa 8, 0
  38 0006 AA87     		mv	a5,a0
  39 0008 2326F4FE 		sw	a5,-20(s0)
  79:../src/platform/mpfs_hal/startup_gcc/newlib_stubs.c ****     (void)file;
  80:../src/platform/mpfs_hal/startup_gcc/newlib_stubs.c ****     return -1;
  40              		.loc 1 80 12
  41 000c FD57     		li	a5,-1
  81:../src/platform/mpfs_hal/startup_gcc/newlib_stubs.c **** }
  42              		.loc 1 81 1
  43 000e 3E85     		mv	a0,a5
  44 0010 6264     		ld	s0,24(sp)
  45              		.cfi_restore 8
  46              		.cfi_def_cfa 2, 32
  47 0012 0561     		addi	sp,sp,32
  48              		.cfi_def_cfa_offset 0
  49 0014 8280     		jr	ra
  50              		.cfi_endproc
  51              	.LFE19:
  53              		.section	.text._execve,"ax",@progbits
  54              		.align	1
  55              		.globl	_execve
  57              	_execve:
  58              	.LFB20:
  82:../src/platform/mpfs_hal/startup_gcc/newlib_stubs.c **** 
  83:../src/platform/mpfs_hal/startup_gcc/newlib_stubs.c **** /*==============================================================================
  84:../src/platform/mpfs_hal/startup_gcc/newlib_stubs.c ****  * Transfer control to a new process.
  85:../src/platform/mpfs_hal/startup_gcc/newlib_stubs.c ****  */
  86:../src/platform/mpfs_hal/startup_gcc/newlib_stubs.c **** int _execve(char *name, char **argv, char **env);
  87:../src/platform/mpfs_hal/startup_gcc/newlib_stubs.c **** int _execve(char *name, char **argv, char **env)
  88:../src/platform/mpfs_hal/startup_gcc/newlib_stubs.c **** {
  59              		.loc 1 88 1
  60              		.cfi_startproc
  61 0000 7971     		addi	sp,sp,-48
  62              		.cfi_def_cfa_offset 48
  63 0002 06F4     		sd	ra,40(sp)
  64 0004 22F0     		sd	s0,32(sp)
  65              		.cfi_offset 1, -8
  66              		.cfi_offset 8, -16
  67 0006 0018     		addi	s0,sp,48
  68              		.cfi_def_cfa 8, 0
  69 0008 2334A4FE 		sd	a0,-24(s0)
  70 000c 2330B4FE 		sd	a1,-32(s0)
  71 0010 233CC4FC 		sd	a2,-40(s0)
  89:../src/platform/mpfs_hal/startup_gcc/newlib_stubs.c ****     (void)name;
  90:../src/platform/mpfs_hal/startup_gcc/newlib_stubs.c ****     (void)argv;
  91:../src/platform/mpfs_hal/startup_gcc/newlib_stubs.c ****     (void)env;
  92:../src/platform/mpfs_hal/startup_gcc/newlib_stubs.c ****     errno = ENOMEM;
  72              		.loc 1 92 5
  73 0014 97000000 		call	__errno
  73      E7800000 
  74 001c 2A87     		mv	a4,a0
  75              		.loc 1 92 11
  76 001e B147     		li	a5,12
  77 0020 1CC3     		sw	a5,0(a4)
  93:../src/platform/mpfs_hal/startup_gcc/newlib_stubs.c ****     return -1;
  78              		.loc 1 93 12
  79 0022 FD57     		li	a5,-1
  94:../src/platform/mpfs_hal/startup_gcc/newlib_stubs.c **** }
  80              		.loc 1 94 1
  81 0024 3E85     		mv	a0,a5
  82 0026 A270     		ld	ra,40(sp)
  83              		.cfi_restore 1
  84 0028 0274     		ld	s0,32(sp)
  85              		.cfi_restore 8
  86              		.cfi_def_cfa 2, 48
  87 002a 4561     		addi	sp,sp,48
  88              		.cfi_def_cfa_offset 0
  89 002c 8280     		jr	ra
  90              		.cfi_endproc
  91              	.LFE20:
  93              		.section	.text._exit,"ax",@progbits
  94              		.align	1
  95              		.globl	_exit
  97              	_exit:
  98              	.LFB21:
  95:../src/platform/mpfs_hal/startup_gcc/newlib_stubs.c **** 
  96:../src/platform/mpfs_hal/startup_gcc/newlib_stubs.c **** /*==============================================================================
  97:../src/platform/mpfs_hal/startup_gcc/newlib_stubs.c ****  * Exit a program without cleaning up files.
  98:../src/platform/mpfs_hal/startup_gcc/newlib_stubs.c ****  */
  99:../src/platform/mpfs_hal/startup_gcc/newlib_stubs.c **** void _exit( int code )
 100:../src/platform/mpfs_hal/startup_gcc/newlib_stubs.c **** {
  99              		.loc 1 100 1
 100              		.cfi_startproc
 101 0000 0111     		addi	sp,sp,-32
 102              		.cfi_def_cfa_offset 32
 103 0002 22EC     		sd	s0,24(sp)
 104              		.cfi_offset 8, -8
 105 0004 0010     		addi	s0,sp,32
 106              		.cfi_def_cfa 8, 0
 107 0006 AA87     		mv	a5,a0
 108 0008 2326F4FE 		sw	a5,-20(s0)
 109              	.L6:
 101:../src/platform/mpfs_hal/startup_gcc/newlib_stubs.c ****     (void)code;
 102:../src/platform/mpfs_hal/startup_gcc/newlib_stubs.c ****     /* Should we force a system reset? */
 103:../src/platform/mpfs_hal/startup_gcc/newlib_stubs.c ****     while( 1 )
 110              		.loc 1 103 10 discriminator 1
 111 000c 01A0     		j	.L6
 112              		.cfi_endproc
 113              	.LFE21:
 115              		.section	.text._fork,"ax",@progbits
 116              		.align	1
 117              		.globl	_fork
 119              	_fork:
 120              	.LFB22:
 104:../src/platform/mpfs_hal/startup_gcc/newlib_stubs.c ****     {
 105:../src/platform/mpfs_hal/startup_gcc/newlib_stubs.c ****         ;
 106:../src/platform/mpfs_hal/startup_gcc/newlib_stubs.c ****     }
 107:../src/platform/mpfs_hal/startup_gcc/newlib_stubs.c **** }
 108:../src/platform/mpfs_hal/startup_gcc/newlib_stubs.c **** 
 109:../src/platform/mpfs_hal/startup_gcc/newlib_stubs.c **** /*==============================================================================
 110:../src/platform/mpfs_hal/startup_gcc/newlib_stubs.c ****  * Create a new process.
 111:../src/platform/mpfs_hal/startup_gcc/newlib_stubs.c ****  */
 112:../src/platform/mpfs_hal/startup_gcc/newlib_stubs.c **** int _fork(void);
 113:../src/platform/mpfs_hal/startup_gcc/newlib_stubs.c **** int _fork(void)
 114:../src/platform/mpfs_hal/startup_gcc/newlib_stubs.c **** {
 121              		.loc 1 114 1
 122              		.cfi_startproc
 123 0000 4111     		addi	sp,sp,-16
 124              		.cfi_def_cfa_offset 16
 125 0002 06E4     		sd	ra,8(sp)
 126 0004 22E0     		sd	s0,0(sp)
 127              		.cfi_offset 1, -8
 128              		.cfi_offset 8, -16
 129 0006 0008     		addi	s0,sp,16
 130              		.cfi_def_cfa 8, 0
 115:../src/platform/mpfs_hal/startup_gcc/newlib_stubs.c ****     errno = EAGAIN;
 131              		.loc 1 115 5
 132 0008 97000000 		call	__errno
 132      E7800000 
 133 0010 2A87     		mv	a4,a0
 134              		.loc 1 115 11
 135 0012 AD47     		li	a5,11
 136 0014 1CC3     		sw	a5,0(a4)
 116:../src/platform/mpfs_hal/startup_gcc/newlib_stubs.c ****     return -1;
 137              		.loc 1 116 12
 138 0016 FD57     		li	a5,-1
 117:../src/platform/mpfs_hal/startup_gcc/newlib_stubs.c **** }
 139              		.loc 1 117 1
 140 0018 3E85     		mv	a0,a5
 141 001a A260     		ld	ra,8(sp)
 142              		.cfi_restore 1
 143 001c 0264     		ld	s0,0(sp)
 144              		.cfi_restore 8
 145              		.cfi_def_cfa 2, 16
 146 001e 4101     		addi	sp,sp,16
 147              		.cfi_def_cfa_offset 0
 148 0020 8280     		jr	ra
 149              		.cfi_endproc
 150              	.LFE22:
 152              		.section	.text._fstat,"ax",@progbits
 153              		.align	1
 154              		.globl	_fstat
 156              	_fstat:
 157              	.LFB23:
 118:../src/platform/mpfs_hal/startup_gcc/newlib_stubs.c **** 
 119:../src/platform/mpfs_hal/startup_gcc/newlib_stubs.c **** /*==============================================================================
 120:../src/platform/mpfs_hal/startup_gcc/newlib_stubs.c ****  * Status of an open file.
 121:../src/platform/mpfs_hal/startup_gcc/newlib_stubs.c ****  */
 122:../src/platform/mpfs_hal/startup_gcc/newlib_stubs.c **** int _fstat(int file, struct stat *st);
 123:../src/platform/mpfs_hal/startup_gcc/newlib_stubs.c **** int _fstat(int file, struct stat *st)
 124:../src/platform/mpfs_hal/startup_gcc/newlib_stubs.c **** {
 158              		.loc 1 124 1
 159              		.cfi_startproc
 160 0000 0111     		addi	sp,sp,-32
 161              		.cfi_def_cfa_offset 32
 162 0002 22EC     		sd	s0,24(sp)
 163              		.cfi_offset 8, -8
 164 0004 0010     		addi	s0,sp,32
 165              		.cfi_def_cfa 8, 0
 166 0006 AA87     		mv	a5,a0
 167 0008 2330B4FE 		sd	a1,-32(s0)
 168 000c 2326F4FE 		sw	a5,-20(s0)
 125:../src/platform/mpfs_hal/startup_gcc/newlib_stubs.c ****     (void)file;
 126:../src/platform/mpfs_hal/startup_gcc/newlib_stubs.c ****     st->st_mode = S_IFCHR;
 169              		.loc 1 126 17
 170 0010 833704FE 		ld	a5,-32(s0)
 171 0014 0967     		li	a4,8192
 172 0016 D8C3     		sw	a4,4(a5)
 127:../src/platform/mpfs_hal/startup_gcc/newlib_stubs.c ****     return (0);
 173              		.loc 1 127 12
 174 0018 8147     		li	a5,0
 128:../src/platform/mpfs_hal/startup_gcc/newlib_stubs.c **** }
 175              		.loc 1 128 1
 176 001a 3E85     		mv	a0,a5
 177 001c 6264     		ld	s0,24(sp)
 178              		.cfi_restore 8
 179              		.cfi_def_cfa 2, 32
 180 001e 0561     		addi	sp,sp,32
 181              		.cfi_def_cfa_offset 0
 182 0020 8280     		jr	ra
 183              		.cfi_endproc
 184              	.LFE23:
 186              		.section	.text._getpid,"ax",@progbits
 187              		.align	1
 188              		.globl	_getpid
 190              	_getpid:
 191              	.LFB24:
 129:../src/platform/mpfs_hal/startup_gcc/newlib_stubs.c **** 
 130:../src/platform/mpfs_hal/startup_gcc/newlib_stubs.c **** /*==============================================================================
 131:../src/platform/mpfs_hal/startup_gcc/newlib_stubs.c ****  * Process-ID
 132:../src/platform/mpfs_hal/startup_gcc/newlib_stubs.c ****  */
 133:../src/platform/mpfs_hal/startup_gcc/newlib_stubs.c **** int _getpid(void);
 134:../src/platform/mpfs_hal/startup_gcc/newlib_stubs.c **** int _getpid(void)
 135:../src/platform/mpfs_hal/startup_gcc/newlib_stubs.c **** {
 192              		.loc 1 135 1
 193              		.cfi_startproc
 194 0000 4111     		addi	sp,sp,-16
 195              		.cfi_def_cfa_offset 16
 196 0002 22E4     		sd	s0,8(sp)
 197              		.cfi_offset 8, -8
 198 0004 0008     		addi	s0,sp,16
 199              		.cfi_def_cfa 8, 0
 136:../src/platform/mpfs_hal/startup_gcc/newlib_stubs.c ****     return (1);
 200              		.loc 1 136 12
 201 0006 8547     		li	a5,1
 137:../src/platform/mpfs_hal/startup_gcc/newlib_stubs.c **** }
 202              		.loc 1 137 1
 203 0008 3E85     		mv	a0,a5
 204 000a 2264     		ld	s0,8(sp)
 205              		.cfi_restore 8
 206              		.cfi_def_cfa 2, 16
 207 000c 4101     		addi	sp,sp,16
 208              		.cfi_def_cfa_offset 0
 209 000e 8280     		jr	ra
 210              		.cfi_endproc
 211              	.LFE24:
 213              		.section	.text._isatty,"ax",@progbits
 214              		.align	1
 215              		.globl	_isatty
 217              	_isatty:
 218              	.LFB25:
 138:../src/platform/mpfs_hal/startup_gcc/newlib_stubs.c **** 
 139:../src/platform/mpfs_hal/startup_gcc/newlib_stubs.c **** /*==============================================================================
 140:../src/platform/mpfs_hal/startup_gcc/newlib_stubs.c ****  * Query whether output stream is a terminal.
 141:../src/platform/mpfs_hal/startup_gcc/newlib_stubs.c ****  */
 142:../src/platform/mpfs_hal/startup_gcc/newlib_stubs.c **** int _isatty(int file);
 143:../src/platform/mpfs_hal/startup_gcc/newlib_stubs.c **** int _isatty(int file)
 144:../src/platform/mpfs_hal/startup_gcc/newlib_stubs.c **** {
 219              		.loc 1 144 1
 220              		.cfi_startproc
 221 0000 0111     		addi	sp,sp,-32
 222              		.cfi_def_cfa_offset 32
 223 0002 22EC     		sd	s0,24(sp)
 224              		.cfi_offset 8, -8
 225 0004 0010     		addi	s0,sp,32
 226              		.cfi_def_cfa 8, 0
 227 0006 AA87     		mv	a5,a0
 228 0008 2326F4FE 		sw	a5,-20(s0)
 145:../src/platform/mpfs_hal/startup_gcc/newlib_stubs.c ****     (void)file;
 146:../src/platform/mpfs_hal/startup_gcc/newlib_stubs.c ****     return (1);
 229              		.loc 1 146 12
 230 000c 8547     		li	a5,1
 147:../src/platform/mpfs_hal/startup_gcc/newlib_stubs.c **** }
 231              		.loc 1 147 1
 232 000e 3E85     		mv	a0,a5
 233 0010 6264     		ld	s0,24(sp)
 234              		.cfi_restore 8
 235              		.cfi_def_cfa 2, 32
 236 0012 0561     		addi	sp,sp,32
 237              		.cfi_def_cfa_offset 0
 238 0014 8280     		jr	ra
 239              		.cfi_endproc
 240              	.LFE25:
 242              		.section	.text._kill,"ax",@progbits
 243              		.align	1
 244              		.globl	_kill
 246              	_kill:
 247              	.LFB26:
 148:../src/platform/mpfs_hal/startup_gcc/newlib_stubs.c **** 
 149:../src/platform/mpfs_hal/startup_gcc/newlib_stubs.c **** /*==============================================================================
 150:../src/platform/mpfs_hal/startup_gcc/newlib_stubs.c ****  * Send a signal.
 151:../src/platform/mpfs_hal/startup_gcc/newlib_stubs.c ****  */
 152:../src/platform/mpfs_hal/startup_gcc/newlib_stubs.c **** int _kill(int pid, int sig);
 153:../src/platform/mpfs_hal/startup_gcc/newlib_stubs.c **** int _kill(int pid, int sig)
 154:../src/platform/mpfs_hal/startup_gcc/newlib_stubs.c **** {
 248              		.loc 1 154 1
 249              		.cfi_startproc
 250 0000 0111     		addi	sp,sp,-32
 251              		.cfi_def_cfa_offset 32
 252 0002 06EC     		sd	ra,24(sp)
 253 0004 22E8     		sd	s0,16(sp)
 254              		.cfi_offset 1, -8
 255              		.cfi_offset 8, -16
 256 0006 0010     		addi	s0,sp,32
 257              		.cfi_def_cfa 8, 0
 258 0008 AA87     		mv	a5,a0
 259 000a 2E87     		mv	a4,a1
 260 000c 2326F4FE 		sw	a5,-20(s0)
 261 0010 BA87     		mv	a5,a4
 262 0012 2324F4FE 		sw	a5,-24(s0)
 155:../src/platform/mpfs_hal/startup_gcc/newlib_stubs.c ****     (void)pid;
 156:../src/platform/mpfs_hal/startup_gcc/newlib_stubs.c ****     (void)sig;
 157:../src/platform/mpfs_hal/startup_gcc/newlib_stubs.c ****     errno = EINVAL;
 263              		.loc 1 157 5
 264 0016 97000000 		call	__errno
 264      E7800000 
 265 001e 2A87     		mv	a4,a0
 266              		.loc 1 157 11
 267 0020 D947     		li	a5,22
 268 0022 1CC3     		sw	a5,0(a4)
 158:../src/platform/mpfs_hal/startup_gcc/newlib_stubs.c ****     return (-1);
 269              		.loc 1 158 12
 270 0024 FD57     		li	a5,-1
 159:../src/platform/mpfs_hal/startup_gcc/newlib_stubs.c **** }
 271              		.loc 1 159 1
 272 0026 3E85     		mv	a0,a5
 273 0028 E260     		ld	ra,24(sp)
 274              		.cfi_restore 1
 275 002a 4264     		ld	s0,16(sp)
 276              		.cfi_restore 8
 277              		.cfi_def_cfa 2, 32
 278 002c 0561     		addi	sp,sp,32
 279              		.cfi_def_cfa_offset 0
 280 002e 8280     		jr	ra
 281              		.cfi_endproc
 282              	.LFE26:
 284              		.section	.text._link,"ax",@progbits
 285              		.align	1
 286              		.globl	_link
 288              	_link:
 289              	.LFB27:
 160:../src/platform/mpfs_hal/startup_gcc/newlib_stubs.c **** 
 161:../src/platform/mpfs_hal/startup_gcc/newlib_stubs.c **** /*==============================================================================
 162:../src/platform/mpfs_hal/startup_gcc/newlib_stubs.c ****  * Establish a new name for an existing file.
 163:../src/platform/mpfs_hal/startup_gcc/newlib_stubs.c ****  */
 164:../src/platform/mpfs_hal/startup_gcc/newlib_stubs.c **** int _link(char *old, char *new);
 165:../src/platform/mpfs_hal/startup_gcc/newlib_stubs.c **** int _link(char *old, char *new)
 166:../src/platform/mpfs_hal/startup_gcc/newlib_stubs.c **** {
 290              		.loc 1 166 1
 291              		.cfi_startproc
 292 0000 0111     		addi	sp,sp,-32
 293              		.cfi_def_cfa_offset 32
 294 0002 06EC     		sd	ra,24(sp)
 295 0004 22E8     		sd	s0,16(sp)
 296              		.cfi_offset 1, -8
 297              		.cfi_offset 8, -16
 298 0006 0010     		addi	s0,sp,32
 299              		.cfi_def_cfa 8, 0
 300 0008 2334A4FE 		sd	a0,-24(s0)
 301 000c 2330B4FE 		sd	a1,-32(s0)
 167:../src/platform/mpfs_hal/startup_gcc/newlib_stubs.c ****     (void)old;
 168:../src/platform/mpfs_hal/startup_gcc/newlib_stubs.c ****     (void)new;
 169:../src/platform/mpfs_hal/startup_gcc/newlib_stubs.c ****     errno = EMLINK;
 302              		.loc 1 169 5
 303 0010 97000000 		call	__errno
 303      E7800000 
 304 0018 2A87     		mv	a4,a0
 305              		.loc 1 169 11
 306 001a FD47     		li	a5,31
 307 001c 1CC3     		sw	a5,0(a4)
 170:../src/platform/mpfs_hal/startup_gcc/newlib_stubs.c ****     return (-1);
 308              		.loc 1 170 12
 309 001e FD57     		li	a5,-1
 171:../src/platform/mpfs_hal/startup_gcc/newlib_stubs.c **** }
 310              		.loc 1 171 1
 311 0020 3E85     		mv	a0,a5
 312 0022 E260     		ld	ra,24(sp)
 313              		.cfi_restore 1
 314 0024 4264     		ld	s0,16(sp)
 315              		.cfi_restore 8
 316              		.cfi_def_cfa 2, 32
 317 0026 0561     		addi	sp,sp,32
 318              		.cfi_def_cfa_offset 0
 319 0028 8280     		jr	ra
 320              		.cfi_endproc
 321              	.LFE27:
 323              		.section	.text._lseek,"ax",@progbits
 324              		.align	1
 325              		.globl	_lseek
 327              	_lseek:
 328              	.LFB28:
 172:../src/platform/mpfs_hal/startup_gcc/newlib_stubs.c **** 
 173:../src/platform/mpfs_hal/startup_gcc/newlib_stubs.c **** /*==============================================================================
 174:../src/platform/mpfs_hal/startup_gcc/newlib_stubs.c ****  * Set position in a file.
 175:../src/platform/mpfs_hal/startup_gcc/newlib_stubs.c ****  */
 176:../src/platform/mpfs_hal/startup_gcc/newlib_stubs.c **** int _lseek(int file, int ptr, int dir);
 177:../src/platform/mpfs_hal/startup_gcc/newlib_stubs.c **** int _lseek(int file, int ptr, int dir)
 178:../src/platform/mpfs_hal/startup_gcc/newlib_stubs.c **** {
 329              		.loc 1 178 1
 330              		.cfi_startproc
 331 0000 0111     		addi	sp,sp,-32
 332              		.cfi_def_cfa_offset 32
 333 0002 22EC     		sd	s0,24(sp)
 334              		.cfi_offset 8, -8
 335 0004 0010     		addi	s0,sp,32
 336              		.cfi_def_cfa 8, 0
 337 0006 AA87     		mv	a5,a0
 338 0008 AE86     		mv	a3,a1
 339 000a 3287     		mv	a4,a2
 340 000c 2326F4FE 		sw	a5,-20(s0)
 341 0010 B687     		mv	a5,a3
 342 0012 2324F4FE 		sw	a5,-24(s0)
 343 0016 BA87     		mv	a5,a4
 344 0018 2322F4FE 		sw	a5,-28(s0)
 179:../src/platform/mpfs_hal/startup_gcc/newlib_stubs.c ****     (void)file;
 180:../src/platform/mpfs_hal/startup_gcc/newlib_stubs.c ****     (void)ptr;
 181:../src/platform/mpfs_hal/startup_gcc/newlib_stubs.c ****     (void)dir;
 182:../src/platform/mpfs_hal/startup_gcc/newlib_stubs.c ****     return (0);
 345              		.loc 1 182 12
 346 001c 8147     		li	a5,0
 183:../src/platform/mpfs_hal/startup_gcc/newlib_stubs.c **** }
 347              		.loc 1 183 1
 348 001e 3E85     		mv	a0,a5
 349 0020 6264     		ld	s0,24(sp)
 350              		.cfi_restore 8
 351              		.cfi_def_cfa 2, 32
 352 0022 0561     		addi	sp,sp,32
 353              		.cfi_def_cfa_offset 0
 354 0024 8280     		jr	ra
 355              		.cfi_endproc
 356              	.LFE28:
 358              		.section	.text._open,"ax",@progbits
 359              		.align	1
 360              		.globl	_open
 362              	_open:
 363              	.LFB29:
 184:../src/platform/mpfs_hal/startup_gcc/newlib_stubs.c **** 
 185:../src/platform/mpfs_hal/startup_gcc/newlib_stubs.c **** /*==============================================================================
 186:../src/platform/mpfs_hal/startup_gcc/newlib_stubs.c ****  * Open a file.
 187:../src/platform/mpfs_hal/startup_gcc/newlib_stubs.c ****  */
 188:../src/platform/mpfs_hal/startup_gcc/newlib_stubs.c **** int _open(const char *name, int flags, int mode);
 189:../src/platform/mpfs_hal/startup_gcc/newlib_stubs.c **** int _open(const char *name, int flags, int mode)
 190:../src/platform/mpfs_hal/startup_gcc/newlib_stubs.c **** {
 364              		.loc 1 190 1
 365              		.cfi_startproc
 366 0000 0111     		addi	sp,sp,-32
 367              		.cfi_def_cfa_offset 32
 368 0002 22EC     		sd	s0,24(sp)
 369              		.cfi_offset 8, -8
 370 0004 0010     		addi	s0,sp,32
 371              		.cfi_def_cfa 8, 0
 372 0006 2334A4FE 		sd	a0,-24(s0)
 373 000a AE87     		mv	a5,a1
 374 000c 3287     		mv	a4,a2
 375 000e 2322F4FE 		sw	a5,-28(s0)
 376 0012 BA87     		mv	a5,a4
 377 0014 2320F4FE 		sw	a5,-32(s0)
 191:../src/platform/mpfs_hal/startup_gcc/newlib_stubs.c ****     (void)name;
 192:../src/platform/mpfs_hal/startup_gcc/newlib_stubs.c ****     (void)flags;
 193:../src/platform/mpfs_hal/startup_gcc/newlib_stubs.c ****     (void)mode;
 194:../src/platform/mpfs_hal/startup_gcc/newlib_stubs.c ****     return (-1);
 378              		.loc 1 194 12
 379 0018 FD57     		li	a5,-1
 195:../src/platform/mpfs_hal/startup_gcc/newlib_stubs.c **** }
 380              		.loc 1 195 1
 381 001a 3E85     		mv	a0,a5
 382 001c 6264     		ld	s0,24(sp)
 383              		.cfi_restore 8
 384              		.cfi_def_cfa 2, 32
 385 001e 0561     		addi	sp,sp,32
 386              		.cfi_def_cfa_offset 0
 387 0020 8280     		jr	ra
 388              		.cfi_endproc
 389              	.LFE29:
 391              		.section	.text._read,"ax",@progbits
 392              		.align	1
 393              		.globl	_read
 395              	_read:
 396              	.LFB30:
 196:../src/platform/mpfs_hal/startup_gcc/newlib_stubs.c **** 
 197:../src/platform/mpfs_hal/startup_gcc/newlib_stubs.c **** /*==============================================================================
 198:../src/platform/mpfs_hal/startup_gcc/newlib_stubs.c ****  * Read from a file.
 199:../src/platform/mpfs_hal/startup_gcc/newlib_stubs.c ****  */
 200:../src/platform/mpfs_hal/startup_gcc/newlib_stubs.c **** int _read(int file, char *ptr, int len);
 201:../src/platform/mpfs_hal/startup_gcc/newlib_stubs.c **** int _read(int file, char *ptr, int len)
 202:../src/platform/mpfs_hal/startup_gcc/newlib_stubs.c **** {
 397              		.loc 1 202 1
 398              		.cfi_startproc
 399 0000 0111     		addi	sp,sp,-32
 400              		.cfi_def_cfa_offset 32
 401 0002 22EC     		sd	s0,24(sp)
 402              		.cfi_offset 8, -8
 403 0004 0010     		addi	s0,sp,32
 404              		.cfi_def_cfa 8, 0
 405 0006 AA87     		mv	a5,a0
 406 0008 2330B4FE 		sd	a1,-32(s0)
 407 000c 3287     		mv	a4,a2
 408 000e 2326F4FE 		sw	a5,-20(s0)
 409 0012 BA87     		mv	a5,a4
 410 0014 2324F4FE 		sw	a5,-24(s0)
 203:../src/platform/mpfs_hal/startup_gcc/newlib_stubs.c ****     (void)file;
 204:../src/platform/mpfs_hal/startup_gcc/newlib_stubs.c ****     (void)ptr;
 205:../src/platform/mpfs_hal/startup_gcc/newlib_stubs.c ****     (void)len;
 206:../src/platform/mpfs_hal/startup_gcc/newlib_stubs.c ****     return (0);
 411              		.loc 1 206 12
 412 0018 8147     		li	a5,0
 207:../src/platform/mpfs_hal/startup_gcc/newlib_stubs.c **** }
 413              		.loc 1 207 1
 414 001a 3E85     		mv	a0,a5
 415 001c 6264     		ld	s0,24(sp)
 416              		.cfi_restore 8
 417              		.cfi_def_cfa 2, 32
 418 001e 0561     		addi	sp,sp,32
 419              		.cfi_def_cfa_offset 0
 420 0020 8280     		jr	ra
 421              		.cfi_endproc
 422              	.LFE30:
 424              		.section	.text._write_r,"ax",@progbits
 425              		.align	1
 426              		.globl	_write_r
 428              	_write_r:
 429              	.LFB31:
 208:../src/platform/mpfs_hal/startup_gcc/newlib_stubs.c **** 
 209:../src/platform/mpfs_hal/startup_gcc/newlib_stubs.c **** /*==============================================================================
 210:../src/platform/mpfs_hal/startup_gcc/newlib_stubs.c ****  * Write to a file. libc subroutines will use this system routine for output to
 211:../src/platform/mpfs_hal/startup_gcc/newlib_stubs.c ****  * all files, including stdout so if you need to generate any output, for
 212:../src/platform/mpfs_hal/startup_gcc/newlib_stubs.c ****  * example to a serial port for debugging, you should make your minimal write
 213:../src/platform/mpfs_hal/startup_gcc/newlib_stubs.c ****  * capable of doing this.
 214:../src/platform/mpfs_hal/startup_gcc/newlib_stubs.c ****  */
 215:../src/platform/mpfs_hal/startup_gcc/newlib_stubs.c **** int _write_r( void * reent, int file, char * ptr, int len );
 216:../src/platform/mpfs_hal/startup_gcc/newlib_stubs.c **** int _write_r( void * reent, int file, char * ptr, int len )
 217:../src/platform/mpfs_hal/startup_gcc/newlib_stubs.c **** {
 430              		.loc 1 217 1
 431              		.cfi_startproc
 432 0000 7971     		addi	sp,sp,-48
 433              		.cfi_def_cfa_offset 48
 434 0002 22F4     		sd	s0,40(sp)
 435              		.cfi_offset 8, -8
 436 0004 0018     		addi	s0,sp,48
 437              		.cfi_def_cfa 8, 0
 438 0006 2334A4FE 		sd	a0,-24(s0)
 439 000a AE87     		mv	a5,a1
 440 000c 233CC4FC 		sd	a2,-40(s0)
 441 0010 3687     		mv	a4,a3
 442 0012 2322F4FE 		sw	a5,-28(s0)
 443 0016 BA87     		mv	a5,a4
 444 0018 2320F4FE 		sw	a5,-32(s0)
 218:../src/platform/mpfs_hal/startup_gcc/newlib_stubs.c ****     (void)reent;
 219:../src/platform/mpfs_hal/startup_gcc/newlib_stubs.c ****     (void)file;
 220:../src/platform/mpfs_hal/startup_gcc/newlib_stubs.c ****     (void)ptr;
 221:../src/platform/mpfs_hal/startup_gcc/newlib_stubs.c ****     (void)len;
 222:../src/platform/mpfs_hal/startup_gcc/newlib_stubs.c **** #ifdef MICROCHIP_STDIO_THRU_MMUARTX
 223:../src/platform/mpfs_hal/startup_gcc/newlib_stubs.c ****     /*--------------------------------------------------------------------------
 224:../src/platform/mpfs_hal/startup_gcc/newlib_stubs.c ****      * Initialize the UART driver if it is the first time this function is
 225:../src/platform/mpfs_hal/startup_gcc/newlib_stubs.c ****      * called.
 226:../src/platform/mpfs_hal/startup_gcc/newlib_stubs.c ****      */
 227:../src/platform/mpfs_hal/startup_gcc/newlib_stubs.c ****     if(!g_stdio_uart_init_done)
 228:../src/platform/mpfs_hal/startup_gcc/newlib_stubs.c ****     {
 229:../src/platform/mpfs_hal/startup_gcc/newlib_stubs.c ****         MSS_UART_init(gp_my_uart,
 230:../src/platform/mpfs_hal/startup_gcc/newlib_stubs.c ****                       MICROCHIP_STDIO_BAUD_RATE,
 231:../src/platform/mpfs_hal/startup_gcc/newlib_stubs.c ****                       MSS_UART_DATA_8_BITS | MSS_UART_NO_PARITY);
 232:../src/platform/mpfs_hal/startup_gcc/newlib_stubs.c **** 
 233:../src/platform/mpfs_hal/startup_gcc/newlib_stubs.c ****         g_stdio_uart_init_done = 1;
 234:../src/platform/mpfs_hal/startup_gcc/newlib_stubs.c ****     }
 235:../src/platform/mpfs_hal/startup_gcc/newlib_stubs.c **** 
 236:../src/platform/mpfs_hal/startup_gcc/newlib_stubs.c ****     /*--------------------------------------------------------------------------
 237:../src/platform/mpfs_hal/startup_gcc/newlib_stubs.c ****      * Output text to the UART.
 238:../src/platform/mpfs_hal/startup_gcc/newlib_stubs.c ****      */
 239:../src/platform/mpfs_hal/startup_gcc/newlib_stubs.c ****     MSS_UART_polled_tx(gp_my_uart, (uint8_t *)ptr, len);
 240:../src/platform/mpfs_hal/startup_gcc/newlib_stubs.c **** 
 241:../src/platform/mpfs_hal/startup_gcc/newlib_stubs.c ****     return len;
 242:../src/platform/mpfs_hal/startup_gcc/newlib_stubs.c **** #else   /* MICROCHIP_STDIO_THRU_MMUARTX */
 243:../src/platform/mpfs_hal/startup_gcc/newlib_stubs.c ****     return (0);
 445              		.loc 1 243 12
 446 001c 8147     		li	a5,0
 244:../src/platform/mpfs_hal/startup_gcc/newlib_stubs.c **** #endif  /* MICROCHIP_STDIO_THRU_MMUARTX */
 245:../src/platform/mpfs_hal/startup_gcc/newlib_stubs.c **** }
 447              		.loc 1 245 1
 448 001e 3E85     		mv	a0,a5
 449 0020 2274     		ld	s0,40(sp)
 450              		.cfi_restore 8
 451              		.cfi_def_cfa 2, 48
 452 0022 4561     		addi	sp,sp,48
 453              		.cfi_def_cfa_offset 0
 454 0024 8280     		jr	ra
 455              		.cfi_endproc
 456              	.LFE31:
 458              		.section	.sbss.heap_end.13780,"aw",@nobits
 459              		.align	3
 462              	heap_end.13780:
 463 0000 00000000 		.zero	8
 463      00000000 
 464              		.section	.text._sbrk,"ax",@progbits
 465              		.align	1
 466              		.globl	_sbrk
 468              	_sbrk:
 469              	.LFB32:
 246:../src/platform/mpfs_hal/startup_gcc/newlib_stubs.c **** 
 247:../src/platform/mpfs_hal/startup_gcc/newlib_stubs.c **** /*==============================================================================
 248:../src/platform/mpfs_hal/startup_gcc/newlib_stubs.c ****  * Increase program data space. As malloc and related functions depend on this,
 249:../src/platform/mpfs_hal/startup_gcc/newlib_stubs.c ****  * it is useful to have a working implementation. The following suffices for a
 250:../src/platform/mpfs_hal/startup_gcc/newlib_stubs.c ****  * standalone system; it exploits the symbol _end automatically defined by the
 251:../src/platform/mpfs_hal/startup_gcc/newlib_stubs.c ****  * GNU linker.
 252:../src/platform/mpfs_hal/startup_gcc/newlib_stubs.c ****  */
 253:../src/platform/mpfs_hal/startup_gcc/newlib_stubs.c **** caddr_t _sbrk(int incr);
 254:../src/platform/mpfs_hal/startup_gcc/newlib_stubs.c **** caddr_t _sbrk(int incr)
 255:../src/platform/mpfs_hal/startup_gcc/newlib_stubs.c **** {
 470              		.loc 1 255 1
 471              		.cfi_startproc
 472 0000 7971     		addi	sp,sp,-48
 473              		.cfi_def_cfa_offset 48
 474 0002 22F4     		sd	s0,40(sp)
 475              		.cfi_offset 8, -8
 476 0004 0018     		addi	s0,sp,48
 477              		.cfi_def_cfa 8, 0
 478 0006 AA87     		mv	a5,a0
 479 0008 232EF4FC 		sw	a5,-36(s0)
 256:../src/platform/mpfs_hal/startup_gcc/newlib_stubs.c ****     extern char _end;       /* Defined by the linker */
 257:../src/platform/mpfs_hal/startup_gcc/newlib_stubs.c ****     extern char __heap_start;
 258:../src/platform/mpfs_hal/startup_gcc/newlib_stubs.c ****     extern char __heap_end;
 259:../src/platform/mpfs_hal/startup_gcc/newlib_stubs.c ****     static char *heap_end;
 260:../src/platform/mpfs_hal/startup_gcc/newlib_stubs.c ****     char *prev_heap_end;
 261:../src/platform/mpfs_hal/startup_gcc/newlib_stubs.c **** 
 262:../src/platform/mpfs_hal/startup_gcc/newlib_stubs.c ****     (void)__heap_start;
 263:../src/platform/mpfs_hal/startup_gcc/newlib_stubs.c ****     (void)__heap_end;
 264:../src/platform/mpfs_hal/startup_gcc/newlib_stubs.c **** #ifdef DEBUG_HEAP_SIZE
 265:../src/platform/mpfs_hal/startup_gcc/newlib_stubs.c ****     char * stack_ptr = NULL;
 266:../src/platform/mpfs_hal/startup_gcc/newlib_stubs.c **** #endif
 267:../src/platform/mpfs_hal/startup_gcc/newlib_stubs.c **** 
 268:../src/platform/mpfs_hal/startup_gcc/newlib_stubs.c ****     /*
 269:../src/platform/mpfs_hal/startup_gcc/newlib_stubs.c ****      * Did we allocated memory for the heap in the linker script?
 270:../src/platform/mpfs_hal/startup_gcc/newlib_stubs.c ****      * You need to set HEAP_SIZE to a non-zero value in your linker script if
 271:../src/platform/mpfs_hal/startup_gcc/newlib_stubs.c ****      * the following assertion fires.
 272:../src/platform/mpfs_hal/startup_gcc/newlib_stubs.c ****      */
 273:../src/platform/mpfs_hal/startup_gcc/newlib_stubs.c ****     ASSERT(&__heap_end > &__heap_start);
 480              		.loc 1 273 5
 481 000c 17070000 		lla	a4,__heap_end
 481      13070700 
 482 0014 97070000 		lla	a5,__heap_start
 482      93870700 
 483 001c 63E3E700 		bgtu	a4,a5,.L28
 484              		.loc 1 273 5 is_stmt 0 discriminator 1
 485              	 #APP
 486              	# 273 "../src/platform/mpfs_hal/startup_gcc/newlib_stubs.c" 1
 274              	
 487              		ebreak
 488              	# 0 "" 2
 489              	 #NO_APP
 490              	.L28:
 275:../src/platform/mpfs_hal/startup_gcc/newlib_stubs.c ****     if (heap_end == NULL)
 491              		.loc 1 275 18 is_stmt 1
 492 0022 97070000 		lla	a5,heap_end.13780
 492      93870700 
 493 002a 9C63     		ld	a5,0(a5)
 494              		.loc 1 275 8
 495 002c 91EB     		bne	a5,zero,.L29
 276:../src/platform/mpfs_hal/startup_gcc/newlib_stubs.c ****     {
 277:../src/platform/mpfs_hal/startup_gcc/newlib_stubs.c ****       heap_end = &_end;
 496              		.loc 1 277 16
 497 002e 97070000 		lla	a5,heap_end.13780
 497      93870700 
 498 0036 17070000 		lla	a4,_end
 498      13070700 
 499 003e 98E3     		sd	a4,0(a5)
 500              	.L29:
 278:../src/platform/mpfs_hal/startup_gcc/newlib_stubs.c ****     }
 279:../src/platform/mpfs_hal/startup_gcc/newlib_stubs.c **** 
 280:../src/platform/mpfs_hal/startup_gcc/newlib_stubs.c ****     prev_heap_end = heap_end;
 501              		.loc 1 280 19
 502 0040 97070000 		lla	a5,heap_end.13780
 502      93870700 
 503 0048 9C63     		ld	a5,0(a5)
 504 004a 2334F4FE 		sd	a5,-24(s0)
 281:../src/platform/mpfs_hal/startup_gcc/newlib_stubs.c **** 
 282:../src/platform/mpfs_hal/startup_gcc/newlib_stubs.c **** #ifdef DEBUG_HEAP_SIZE          /* add this define if you want to debug crash due to overflow of  h
 283:../src/platform/mpfs_hal/startup_gcc/newlib_stubs.c ****     /* fixme- this test needs to be reworked to take account of multiple harts and TLS */
 284:../src/platform/mpfs_hal/startup_gcc/newlib_stubs.c ****     stack_ptr = read_csr(sp);
 285:../src/platform/mpfs_hal/startup_gcc/newlib_stubs.c ****     /* stack_ptr has just been placed on the stack, so its address in currently pointing to the sta
 286:../src/platform/mpfs_hal/startup_gcc/newlib_stubs.c ****     if(heap_end < stack_ptr)
 287:../src/platform/mpfs_hal/startup_gcc/newlib_stubs.c ****     {
 288:../src/platform/mpfs_hal/startup_gcc/newlib_stubs.c ****         /*
 289:../src/platform/mpfs_hal/startup_gcc/newlib_stubs.c ****          * Heap is at an address below the stack, growing up toward the stack.
 290:../src/platform/mpfs_hal/startup_gcc/newlib_stubs.c ****          * The stack is above the heap, growing down towards the heap.
 291:../src/platform/mpfs_hal/startup_gcc/newlib_stubs.c ****          * Make sure the stack and heap do not run into each other.
 292:../src/platform/mpfs_hal/startup_gcc/newlib_stubs.c ****          */
 293:../src/platform/mpfs_hal/startup_gcc/newlib_stubs.c ****         if (heap_end + incr > stack_ptr)
 294:../src/platform/mpfs_hal/startup_gcc/newlib_stubs.c ****         {
 295:../src/platform/mpfs_hal/startup_gcc/newlib_stubs.c ****           _write_r ((void *)0, 1, "Heap and stack collision\n", 25);
 296:../src/platform/mpfs_hal/startup_gcc/newlib_stubs.c ****           _exit (1);
 297:../src/platform/mpfs_hal/startup_gcc/newlib_stubs.c ****         }
 298:../src/platform/mpfs_hal/startup_gcc/newlib_stubs.c ****     }
 299:../src/platform/mpfs_hal/startup_gcc/newlib_stubs.c ****     else
 300:../src/platform/mpfs_hal/startup_gcc/newlib_stubs.c ****     {
 301:../src/platform/mpfs_hal/startup_gcc/newlib_stubs.c ****         /*
 302:../src/platform/mpfs_hal/startup_gcc/newlib_stubs.c ****          * If the heap and stack are not growing towards each other then use the
 303:../src/platform/mpfs_hal/startup_gcc/newlib_stubs.c ****          * _eheap linker script symbol to figure out if there is room left on
 304:../src/platform/mpfs_hal/startup_gcc/newlib_stubs.c ****          * the heap.
 305:../src/platform/mpfs_hal/startup_gcc/newlib_stubs.c ****          * Please note that this use case makes sense when the stack is located
 306:../src/platform/mpfs_hal/startup_gcc/newlib_stubs.c ****          * in internal eSRAM in the 0x20000000 address range and the heap is
 307:../src/platform/mpfs_hal/startup_gcc/newlib_stubs.c ****          * located in the external memory in the 0xA0000000 memory range.
 308:../src/platform/mpfs_hal/startup_gcc/newlib_stubs.c ****          * Please note that external memory should not be accessed using the
 309:../src/platform/mpfs_hal/startup_gcc/newlib_stubs.c ****          * 0x00000000 memory range to read/write variables/data because of the
 310:../src/platform/mpfs_hal/startup_gcc/newlib_stubs.c ****          * SmartFusion2 cache design.
 311:../src/platform/mpfs_hal/startup_gcc/newlib_stubs.c ****          */
 312:../src/platform/mpfs_hal/startup_gcc/newlib_stubs.c ****         extern char _heap_end;     /* Defined by the linker */
 313:../src/platform/mpfs_hal/startup_gcc/newlib_stubs.c ****         char *top_of_heap;
 314:../src/platform/mpfs_hal/startup_gcc/newlib_stubs.c **** 
 315:../src/platform/mpfs_hal/startup_gcc/newlib_stubs.c ****         top_of_heap = &_heap_end;
 316:../src/platform/mpfs_hal/startup_gcc/newlib_stubs.c ****         if(heap_end + incr  > top_of_heap)
 317:../src/platform/mpfs_hal/startup_gcc/newlib_stubs.c ****         {
 318:../src/platform/mpfs_hal/startup_gcc/newlib_stubs.c ****           _write_r ((void *)0, 1, "Out of heap memory\n", 25);
 319:../src/platform/mpfs_hal/startup_gcc/newlib_stubs.c ****           _exit (1);
 320:../src/platform/mpfs_hal/startup_gcc/newlib_stubs.c ****         }
 321:../src/platform/mpfs_hal/startup_gcc/newlib_stubs.c ****     }
 322:../src/platform/mpfs_hal/startup_gcc/newlib_stubs.c **** #endif
 323:../src/platform/mpfs_hal/startup_gcc/newlib_stubs.c ****     heap_end += incr;
 505              		.loc 1 323 14
 506 004e 97070000 		lla	a5,heap_end.13780
 506      93870700 
 507 0056 9863     		ld	a4,0(a5)
 508 0058 8327C4FD 		lw	a5,-36(s0)
 509 005c 3E97     		add	a4,a4,a5
 510 005e 97070000 		lla	a5,heap_end.13780
 510      93870700 
 511 0066 98E3     		sd	a4,0(a5)
 324:../src/platform/mpfs_hal/startup_gcc/newlib_stubs.c **** 
 325:../src/platform/mpfs_hal/startup_gcc/newlib_stubs.c ****     /*
 326:../src/platform/mpfs_hal/startup_gcc/newlib_stubs.c ****      * Did we run out of heap?
 327:../src/platform/mpfs_hal/startup_gcc/newlib_stubs.c ****      * You need to increase the heap size in the linker script if the following
 328:../src/platform/mpfs_hal/startup_gcc/newlib_stubs.c ****      * assertion fires.
 329:../src/platform/mpfs_hal/startup_gcc/newlib_stubs.c ****      * */
 330:../src/platform/mpfs_hal/startup_gcc/newlib_stubs.c ****     ASSERT(heap_end <= &__heap_end);
 512              		.loc 1 330 5
 513 0068 97070000 		lla	a5,heap_end.13780
 513      93870700 
 514 0070 9863     		ld	a4,0(a5)
 515 0072 97070000 		lla	a5,__heap_end
 515      93870700 
 516 007a 63F3E700 		bleu	a4,a5,.L30
 517              		.loc 1 330 5 is_stmt 0 discriminator 1
 518              	 #APP
 519              	# 330 "../src/platform/mpfs_hal/startup_gcc/newlib_stubs.c" 1
 331              	
 520              		ebreak
 521              	# 0 "" 2
 522              	 #NO_APP
 523              	.L30:
 332:../src/platform/mpfs_hal/startup_gcc/newlib_stubs.c ****     return ((caddr_t) prev_heap_end);
 524              		.loc 1 332 13 is_stmt 1
 525 0080 833784FE 		ld	a5,-24(s0)
 333:../src/platform/mpfs_hal/startup_gcc/newlib_stubs.c **** }
 526              		.loc 1 333 1
 527 0084 3E85     		mv	a0,a5
 528 0086 2274     		ld	s0,40(sp)
 529              		.cfi_restore 8
 530              		.cfi_def_cfa 2, 48
 531 0088 4561     		addi	sp,sp,48
 532              		.cfi_def_cfa_offset 0
 533 008a 8280     		jr	ra
 534              		.cfi_endproc
 535              	.LFE32:
 537              		.section	.text._stat,"ax",@progbits
 538              		.align	1
 539              		.globl	_stat
 541              	_stat:
 542              	.LFB33:
 334:../src/platform/mpfs_hal/startup_gcc/newlib_stubs.c **** 
 335:../src/platform/mpfs_hal/startup_gcc/newlib_stubs.c **** /*==============================================================================
 336:../src/platform/mpfs_hal/startup_gcc/newlib_stubs.c ****  * Status of a file (by name).
 337:../src/platform/mpfs_hal/startup_gcc/newlib_stubs.c ****  */
 338:../src/platform/mpfs_hal/startup_gcc/newlib_stubs.c **** int _stat(char *file, struct stat *st);
 339:../src/platform/mpfs_hal/startup_gcc/newlib_stubs.c **** int _stat(char *file, struct stat *st)
 340:../src/platform/mpfs_hal/startup_gcc/newlib_stubs.c **** {
 543              		.loc 1 340 1
 544              		.cfi_startproc
 545 0000 0111     		addi	sp,sp,-32
 546              		.cfi_def_cfa_offset 32
 547 0002 22EC     		sd	s0,24(sp)
 548              		.cfi_offset 8, -8
 549 0004 0010     		addi	s0,sp,32
 550              		.cfi_def_cfa 8, 0
 551 0006 2334A4FE 		sd	a0,-24(s0)
 552 000a 2330B4FE 		sd	a1,-32(s0)
 341:../src/platform/mpfs_hal/startup_gcc/newlib_stubs.c ****     (void)file;
 342:../src/platform/mpfs_hal/startup_gcc/newlib_stubs.c ****     st->st_mode = S_IFCHR;
 553              		.loc 1 342 17
 554 000e 833704FE 		ld	a5,-32(s0)
 555 0012 0967     		li	a4,8192
 556 0014 D8C3     		sw	a4,4(a5)
 343:../src/platform/mpfs_hal/startup_gcc/newlib_stubs.c ****     return 0;
 557              		.loc 1 343 12
 558 0016 8147     		li	a5,0
 344:../src/platform/mpfs_hal/startup_gcc/newlib_stubs.c **** }
 559              		.loc 1 344 1
 560 0018 3E85     		mv	a0,a5
 561 001a 6264     		ld	s0,24(sp)
 562              		.cfi_restore 8
 563              		.cfi_def_cfa 2, 32
 564 001c 0561     		addi	sp,sp,32
 565              		.cfi_def_cfa_offset 0
 566 001e 8280     		jr	ra
 567              		.cfi_endproc
 568              	.LFE33:
 570              		.section	.text._times,"ax",@progbits
 571              		.align	1
 572              		.globl	_times
 574              	_times:
 575              	.LFB34:
 345:../src/platform/mpfs_hal/startup_gcc/newlib_stubs.c **** 
 346:../src/platform/mpfs_hal/startup_gcc/newlib_stubs.c **** /*==============================================================================
 347:../src/platform/mpfs_hal/startup_gcc/newlib_stubs.c ****  * Timing information for current process.
 348:../src/platform/mpfs_hal/startup_gcc/newlib_stubs.c ****  */
 349:../src/platform/mpfs_hal/startup_gcc/newlib_stubs.c **** int _times(struct tms *buf);
 350:../src/platform/mpfs_hal/startup_gcc/newlib_stubs.c **** int _times(struct tms *buf)
 351:../src/platform/mpfs_hal/startup_gcc/newlib_stubs.c **** {
 576              		.loc 1 351 1
 577              		.cfi_startproc
 578 0000 0111     		addi	sp,sp,-32
 579              		.cfi_def_cfa_offset 32
 580 0002 22EC     		sd	s0,24(sp)
 581              		.cfi_offset 8, -8
 582 0004 0010     		addi	s0,sp,32
 583              		.cfi_def_cfa 8, 0
 584 0006 2334A4FE 		sd	a0,-24(s0)
 352:../src/platform/mpfs_hal/startup_gcc/newlib_stubs.c ****     (void)buf;
 353:../src/platform/mpfs_hal/startup_gcc/newlib_stubs.c ****     return (-1);
 585              		.loc 1 353 12
 586 000a FD57     		li	a5,-1
 354:../src/platform/mpfs_hal/startup_gcc/newlib_stubs.c **** }
 587              		.loc 1 354 1
 588 000c 3E85     		mv	a0,a5
 589 000e 6264     		ld	s0,24(sp)
 590              		.cfi_restore 8
 591              		.cfi_def_cfa 2, 32
 592 0010 0561     		addi	sp,sp,32
 593              		.cfi_def_cfa_offset 0
 594 0012 8280     		jr	ra
 595              		.cfi_endproc
 596              	.LFE34:
 598              		.section	.text._unlink,"ax",@progbits
 599              		.align	1
 600              		.globl	_unlink
 602              	_unlink:
 603              	.LFB35:
 355:../src/platform/mpfs_hal/startup_gcc/newlib_stubs.c **** 
 356:../src/platform/mpfs_hal/startup_gcc/newlib_stubs.c **** /*==============================================================================
 357:../src/platform/mpfs_hal/startup_gcc/newlib_stubs.c ****  * Remove a file's directory entry.
 358:../src/platform/mpfs_hal/startup_gcc/newlib_stubs.c ****  */
 359:../src/platform/mpfs_hal/startup_gcc/newlib_stubs.c **** int _unlink(char *name);
 360:../src/platform/mpfs_hal/startup_gcc/newlib_stubs.c **** int _unlink(char *name)
 361:../src/platform/mpfs_hal/startup_gcc/newlib_stubs.c **** {
 604              		.loc 1 361 1
 605              		.cfi_startproc
 606 0000 0111     		addi	sp,sp,-32
 607              		.cfi_def_cfa_offset 32
 608 0002 06EC     		sd	ra,24(sp)
 609 0004 22E8     		sd	s0,16(sp)
 610              		.cfi_offset 1, -8
 611              		.cfi_offset 8, -16
 612 0006 0010     		addi	s0,sp,32
 613              		.cfi_def_cfa 8, 0
 614 0008 2334A4FE 		sd	a0,-24(s0)
 362:../src/platform/mpfs_hal/startup_gcc/newlib_stubs.c ****     (void)name;
 363:../src/platform/mpfs_hal/startup_gcc/newlib_stubs.c ****     errno = ENOENT;
 615              		.loc 1 363 5
 616 000c 97000000 		call	__errno
 616      E7800000 
 617 0014 2A87     		mv	a4,a0
 618              		.loc 1 363 11
 619 0016 8947     		li	a5,2
 620 0018 1CC3     		sw	a5,0(a4)
 364:../src/platform/mpfs_hal/startup_gcc/newlib_stubs.c ****     return (-1);
 621              		.loc 1 364 12
 622 001a FD57     		li	a5,-1
 365:../src/platform/mpfs_hal/startup_gcc/newlib_stubs.c **** }
 623              		.loc 1 365 1
 624 001c 3E85     		mv	a0,a5
 625 001e E260     		ld	ra,24(sp)
 626              		.cfi_restore 1
 627 0020 4264     		ld	s0,16(sp)
 628              		.cfi_restore 8
 629              		.cfi_def_cfa 2, 32
 630 0022 0561     		addi	sp,sp,32
 631              		.cfi_def_cfa_offset 0
 632 0024 8280     		jr	ra
 633              		.cfi_endproc
 634              	.LFE35:
 636              		.section	.text._wait,"ax",@progbits
 637              		.align	1
 638              		.globl	_wait
 640              	_wait:
 641              	.LFB36:
 366:../src/platform/mpfs_hal/startup_gcc/newlib_stubs.c **** 
 367:../src/platform/mpfs_hal/startup_gcc/newlib_stubs.c **** /*==============================================================================
 368:../src/platform/mpfs_hal/startup_gcc/newlib_stubs.c ****  * Wait for a child process.
 369:../src/platform/mpfs_hal/startup_gcc/newlib_stubs.c ****  */
 370:../src/platform/mpfs_hal/startup_gcc/newlib_stubs.c **** int _wait(int *status);
 371:../src/platform/mpfs_hal/startup_gcc/newlib_stubs.c **** int _wait(int *status)
 372:../src/platform/mpfs_hal/startup_gcc/newlib_stubs.c **** {
 642              		.loc 1 372 1
 643              		.cfi_startproc
 644 0000 0111     		addi	sp,sp,-32
 645              		.cfi_def_cfa_offset 32
 646 0002 06EC     		sd	ra,24(sp)
 647 0004 22E8     		sd	s0,16(sp)
 648              		.cfi_offset 1, -8
 649              		.cfi_offset 8, -16
 650 0006 0010     		addi	s0,sp,32
 651              		.cfi_def_cfa 8, 0
 652 0008 2334A4FE 		sd	a0,-24(s0)
 373:../src/platform/mpfs_hal/startup_gcc/newlib_stubs.c ****     (void)status;
 374:../src/platform/mpfs_hal/startup_gcc/newlib_stubs.c ****     errno = ECHILD;
 653              		.loc 1 374 5
 654 000c 97000000 		call	__errno
 654      E7800000 
 655 0014 2A87     		mv	a4,a0
 656              		.loc 1 374 11
 657 0016 A947     		li	a5,10
 658 0018 1CC3     		sw	a5,0(a4)
 375:../src/platform/mpfs_hal/startup_gcc/newlib_stubs.c ****     return (-1);
 659              		.loc 1 375 12
 660 001a FD57     		li	a5,-1
 376:../src/platform/mpfs_hal/startup_gcc/newlib_stubs.c **** }
 661              		.loc 1 376 1
 662 001c 3E85     		mv	a0,a5
 663 001e E260     		ld	ra,24(sp)
 664              		.cfi_restore 1
 665 0020 4264     		ld	s0,16(sp)
 666              		.cfi_restore 8
 667              		.cfi_def_cfa 2, 32
 668 0022 0561     		addi	sp,sp,32
 669              		.cfi_def_cfa_offset 0
 670 0024 8280     		jr	ra
 671              		.cfi_endproc
 672              	.LFE36:
 674              		.text
 675              	.Letext0:
 676              		.file 2 "/home/vinay/Desktop/soft_console/SoftConsole-v2022.2-RISC-V-747/riscv-unknown-elf-gcc/lib
 677              		.file 3 "/home/vinay/Desktop/soft_console/SoftConsole-v2022.2-RISC-V-747/riscv-unknown-elf-gcc/ris
 678              		.file 4 "/home/vinay/Desktop/soft_console/SoftConsole-v2022.2-RISC-V-747/riscv-unknown-elf-gcc/ris
 679              		.file 5 "/home/vinay/Desktop/soft_console/SoftConsole-v2022.2-RISC-V-747/riscv-unknown-elf-gcc/ris
 680              		.file 6 "/home/vinay/Desktop/soft_console/SoftConsole-v2022.2-RISC-V-747/riscv-unknown-elf-gcc/ris
 681              		.file 7 "/home/vinay/Desktop/soft_console/SoftConsole-v2022.2-RISC-V-747/riscv-unknown-elf-gcc/ris
 682              		.file 8 "/home/vinay/Desktop/soft_console/SoftConsole-v2022.2-RISC-V-747/riscv-unknown-elf-gcc/ris
 683              		.file 9 "/home/vinay/Desktop/soft_console/SoftConsole-v2022.2-RISC-V-747/riscv-unknown-elf-gcc/ris
 684              		.file 10 "/home/vinay/Desktop/soft_console/SoftConsole-v2022.2-RISC-V-747/riscv-unknown-elf-gcc/ri
 685              		.file 11 "/home/vinay/Desktop/soft_console/SoftConsole-v2022.2-RISC-V-747/riscv-unknown-elf-gcc/ri
 686              		.file 12 "/home/vinay/Desktop/soft_console/SoftConsole-v2022.2-RISC-V-747/riscv-unknown-elf-gcc/ri
 687              		.file 13 "/home/vinay/Desktop/soft_console/SoftConsole-v2022.2-RISC-V-747/riscv-unknown-elf-gcc/ri
 688              		.file 14 "/home/vinay/Desktop/soft_console/SoftConsole-v2022.2-RISC-V-747/riscv-unknown-elf-gcc/ri
 689              		.file 15 "../src/platform/mpfs_hal/startup_gcc/../common/nwc/mss_ddr_sgmii_phy_defs.h"
 690              		.file 16 "../src/platform/mpfs_hal/startup_gcc/../common/nwc/mss_ddr_sgmii_regs.h"
 691              		.file 17 "../src/platform/mpfs_hal/startup_gcc/../common/nwc/mss_scb_nwc_regs.h"
 692              		.file 18 "../src/platform/mpfs_hal/startup_gcc/../common/mss_mpu.h"
 693              		.file 19 "../src/platform/mpfs_hal/startup_gcc/../common/mss_plic.h"
 694              		.file 20 "../src/platform/mpfs_hal/startup_gcc/../startup_gcc/system_startup.h"