   1              		.file	"system_startup.c"
   2              		.option nopic
   3              		.attribute arch, "rv64i2p0_m2p0_a2p0_f2p0_d2p0_c2p0"
   4              		.attribute unaligned_access, 0
   5              		.attribute stack_align, 16
   6              		.text
   7              	.Ltext0:
   8              		.cfi_sections	.debug_frame
   9              		.section	.text.raise_soft_interrupt,"ax",@progbits
  10              		.align	1
  12              	raise_soft_interrupt:
  13              	.LFB0:
  14              		.file 1 "/home/vinay/Desktop/softconsole_watershed/Water-shed/src/platform/mpfs_hal/common/mss_cli
   1:/home/vinay/Desktop/softconsole_watershed/Water-shed/src/platform/mpfs_hal/common/mss_clint.h **** /*******************************************************************************
   2:/home/vinay/Desktop/softconsole_watershed/Water-shed/src/platform/mpfs_hal/common/mss_clint.h ****  * Copyright 2019-2022 Microchip FPGA Embedded Systems Solutions.
   3:/home/vinay/Desktop/softconsole_watershed/Water-shed/src/platform/mpfs_hal/common/mss_clint.h ****  *
   4:/home/vinay/Desktop/softconsole_watershed/Water-shed/src/platform/mpfs_hal/common/mss_clint.h ****  * SPDX-License-Identifier: MIT
   5:/home/vinay/Desktop/softconsole_watershed/Water-shed/src/platform/mpfs_hal/common/mss_clint.h ****  *
   6:/home/vinay/Desktop/softconsole_watershed/Water-shed/src/platform/mpfs_hal/common/mss_clint.h ****  * MPFS HAL Embedded Software
   7:/home/vinay/Desktop/softconsole_watershed/Water-shed/src/platform/mpfs_hal/common/mss_clint.h ****  *
   8:/home/vinay/Desktop/softconsole_watershed/Water-shed/src/platform/mpfs_hal/common/mss_clint.h ****  */
   9:/home/vinay/Desktop/softconsole_watershed/Water-shed/src/platform/mpfs_hal/common/mss_clint.h **** 
  10:/home/vinay/Desktop/softconsole_watershed/Water-shed/src/platform/mpfs_hal/common/mss_clint.h **** /*******************************************************************************
  11:/home/vinay/Desktop/softconsole_watershed/Water-shed/src/platform/mpfs_hal/common/mss_clint.h ****  *
  12:/home/vinay/Desktop/softconsole_watershed/Water-shed/src/platform/mpfs_hal/common/mss_clint.h ****  * @file mss_clint.h
  13:/home/vinay/Desktop/softconsole_watershed/Water-shed/src/platform/mpfs_hal/common/mss_clint.h ****  * @author Microchip-FPGA Embedded Systems Solutions
  14:/home/vinay/Desktop/softconsole_watershed/Water-shed/src/platform/mpfs_hal/common/mss_clint.h ****  * @brief CLINT access data structures and functions.
  15:/home/vinay/Desktop/softconsole_watershed/Water-shed/src/platform/mpfs_hal/common/mss_clint.h ****  *
  16:/home/vinay/Desktop/softconsole_watershed/Water-shed/src/platform/mpfs_hal/common/mss_clint.h ****  */
  17:/home/vinay/Desktop/softconsole_watershed/Water-shed/src/platform/mpfs_hal/common/mss_clint.h **** #ifndef MSS_CLINT_H
  18:/home/vinay/Desktop/softconsole_watershed/Water-shed/src/platform/mpfs_hal/common/mss_clint.h **** #define MSS_CLINT_H
  19:/home/vinay/Desktop/softconsole_watershed/Water-shed/src/platform/mpfs_hal/common/mss_clint.h **** 
  20:/home/vinay/Desktop/softconsole_watershed/Water-shed/src/platform/mpfs_hal/common/mss_clint.h **** #include <stdint.h>
  21:/home/vinay/Desktop/softconsole_watershed/Water-shed/src/platform/mpfs_hal/common/mss_clint.h **** #include "encoding.h"
  22:/home/vinay/Desktop/softconsole_watershed/Water-shed/src/platform/mpfs_hal/common/mss_clint.h **** #include "atomic.h"
  23:/home/vinay/Desktop/softconsole_watershed/Water-shed/src/platform/mpfs_hal/common/mss_clint.h **** 
  24:/home/vinay/Desktop/softconsole_watershed/Water-shed/src/platform/mpfs_hal/common/mss_clint.h **** #ifdef __cplusplus
  25:/home/vinay/Desktop/softconsole_watershed/Water-shed/src/platform/mpfs_hal/common/mss_clint.h **** extern "C" {
  26:/home/vinay/Desktop/softconsole_watershed/Water-shed/src/platform/mpfs_hal/common/mss_clint.h **** #endif
  27:/home/vinay/Desktop/softconsole_watershed/Water-shed/src/platform/mpfs_hal/common/mss_clint.h **** 
  28:/home/vinay/Desktop/softconsole_watershed/Water-shed/src/platform/mpfs_hal/common/mss_clint.h **** #define RTC_PRESCALER 100U
  29:/home/vinay/Desktop/softconsole_watershed/Water-shed/src/platform/mpfs_hal/common/mss_clint.h **** #define SUCCESS 0U
  30:/home/vinay/Desktop/softconsole_watershed/Water-shed/src/platform/mpfs_hal/common/mss_clint.h **** #define ERROR   1U
  31:/home/vinay/Desktop/softconsole_watershed/Water-shed/src/platform/mpfs_hal/common/mss_clint.h **** 
  32:/home/vinay/Desktop/softconsole_watershed/Water-shed/src/platform/mpfs_hal/common/mss_clint.h **** 
  33:/home/vinay/Desktop/softconsole_watershed/Water-shed/src/platform/mpfs_hal/common/mss_clint.h **** /*==============================================================================
  34:/home/vinay/Desktop/softconsole_watershed/Water-shed/src/platform/mpfs_hal/common/mss_clint.h ****  * CLINT: Core Local Interrupter
  35:/home/vinay/Desktop/softconsole_watershed/Water-shed/src/platform/mpfs_hal/common/mss_clint.h ****  */
  36:/home/vinay/Desktop/softconsole_watershed/Water-shed/src/platform/mpfs_hal/common/mss_clint.h **** typedef struct CLINT_Type_t
  37:/home/vinay/Desktop/softconsole_watershed/Water-shed/src/platform/mpfs_hal/common/mss_clint.h **** {
  38:/home/vinay/Desktop/softconsole_watershed/Water-shed/src/platform/mpfs_hal/common/mss_clint.h ****     volatile uint32_t MSIP[5];
  39:/home/vinay/Desktop/softconsole_watershed/Water-shed/src/platform/mpfs_hal/common/mss_clint.h ****     volatile uint32_t reserved1[(0x4000U - 0x14U)/4U];
  40:/home/vinay/Desktop/softconsole_watershed/Water-shed/src/platform/mpfs_hal/common/mss_clint.h ****     volatile uint64_t MTIMECMP[5];  /* mtime compare value for each hart. When mtime equals this va
  41:/home/vinay/Desktop/softconsole_watershed/Water-shed/src/platform/mpfs_hal/common/mss_clint.h ****     volatile uint32_t reserved2[((0xbff8U - 0x4028U)/4U)];
  42:/home/vinay/Desktop/softconsole_watershed/Water-shed/src/platform/mpfs_hal/common/mss_clint.h ****     volatile uint64_t MTIME;    /* contains the current mtime value */
  43:/home/vinay/Desktop/softconsole_watershed/Water-shed/src/platform/mpfs_hal/common/mss_clint.h **** } CLINT_Type;
  44:/home/vinay/Desktop/softconsole_watershed/Water-shed/src/platform/mpfs_hal/common/mss_clint.h **** 
  45:/home/vinay/Desktop/softconsole_watershed/Water-shed/src/platform/mpfs_hal/common/mss_clint.h **** #define CLINT    ((CLINT_Type *)CLINT_BASE)
  46:/home/vinay/Desktop/softconsole_watershed/Water-shed/src/platform/mpfs_hal/common/mss_clint.h **** 
  47:/home/vinay/Desktop/softconsole_watershed/Water-shed/src/platform/mpfs_hal/common/mss_clint.h **** 
  48:/home/vinay/Desktop/softconsole_watershed/Water-shed/src/platform/mpfs_hal/common/mss_clint.h **** /*==============================================================================
  49:/home/vinay/Desktop/softconsole_watershed/Water-shed/src/platform/mpfs_hal/common/mss_clint.h ****  * The function raise_soft_interrupt() raises a synchronous software interrupt by
  50:/home/vinay/Desktop/softconsole_watershed/Water-shed/src/platform/mpfs_hal/common/mss_clint.h ****  * writing into the MSIP register.
  51:/home/vinay/Desktop/softconsole_watershed/Water-shed/src/platform/mpfs_hal/common/mss_clint.h ****  */
  52:/home/vinay/Desktop/softconsole_watershed/Water-shed/src/platform/mpfs_hal/common/mss_clint.h **** static inline void raise_soft_interrupt(unsigned long hart_id)
  53:/home/vinay/Desktop/softconsole_watershed/Water-shed/src/platform/mpfs_hal/common/mss_clint.h **** {
  15              		.loc 1 53 1
  16              		.cfi_startproc
  17 0000 0111     		addi	sp,sp,-32
  18              		.cfi_def_cfa_offset 32
  19 0002 22EC     		sd	s0,24(sp)
  20              		.cfi_offset 8, -8
  21 0004 0010     		addi	s0,sp,32
  22              		.cfi_def_cfa 8, 0
  23 0006 2334A4FE 		sd	a0,-24(s0)
  54:/home/vinay/Desktop/softconsole_watershed/Water-shed/src/platform/mpfs_hal/common/mss_clint.h ****     /*You need to make sure that the global interrupt is enabled*/
  55:/home/vinay/Desktop/softconsole_watershed/Water-shed/src/platform/mpfs_hal/common/mss_clint.h ****     /*Note:  set_csr(mie, MIP_MSIP) needs to be set on hart you are setting sw interrupt */
  56:/home/vinay/Desktop/softconsole_watershed/Water-shed/src/platform/mpfs_hal/common/mss_clint.h ****     CLINT->MSIP[hart_id] = 0x01U;   /*raise soft interrupt for hart(x) where x== hart ID*/
  24              		.loc 1 56 10
  25 000a 37070002 		li	a4,33554432
  26              		.loc 1 56 26
  27 000e 833784FE 		ld	a5,-24(s0)
  28 0012 8A07     		slli	a5,a5,2
  29 0014 BA97     		add	a5,a4,a5
  30 0016 0547     		li	a4,1
  31 0018 98C3     		sw	a4,0(a5)
  57:/home/vinay/Desktop/softconsole_watershed/Water-shed/src/platform/mpfs_hal/common/mss_clint.h ****     mb();
  32              		.loc 1 57 5
  33              	 #APP
  34              	# 57 "/home/vinay/Desktop/softconsole_watershed/Water-shed/src/platform/mpfs_hal/common/mss_clint.h
  58              	}
  35              		fence
  36              	# 0 "" 2
  37              		.loc 1 58 1
  38              	 #NO_APP
  39 001e 0100     		nop
  40 0020 6264     		ld	s0,24(sp)
  41              		.cfi_restore 8
  42              		.cfi_def_cfa 2, 32
  43 0022 0561     		addi	sp,sp,32
  44              		.cfi_def_cfa_offset 0
  45 0024 8280     		jr	ra
  46              		.cfi_endproc
  47              	.LFE0:
  49              		.section	.text.PLIC_ClaimIRQ,"ax",@progbits
  50              		.align	1
  52              	PLIC_ClaimIRQ:
  53              	.LFB12:
  54              		.file 2 "/home/vinay/Desktop/softconsole_watershed/Water-shed/src/platform/mpfs_hal/common/mss_pli
   1:/home/vinay/Desktop/softconsole_watershed/Water-shed/src/platform/mpfs_hal/common/mss_plic.h **** /*******************************************************************************
   2:/home/vinay/Desktop/softconsole_watershed/Water-shed/src/platform/mpfs_hal/common/mss_plic.h ****  * Copyright 2019-2022 Microchip FPGA Embedded Systems Solutions.
   3:/home/vinay/Desktop/softconsole_watershed/Water-shed/src/platform/mpfs_hal/common/mss_plic.h ****  *
   4:/home/vinay/Desktop/softconsole_watershed/Water-shed/src/platform/mpfs_hal/common/mss_plic.h ****  * SPDX-License-Identifier: MIT
   5:/home/vinay/Desktop/softconsole_watershed/Water-shed/src/platform/mpfs_hal/common/mss_plic.h ****  *
   6:/home/vinay/Desktop/softconsole_watershed/Water-shed/src/platform/mpfs_hal/common/mss_plic.h ****  * MPFS HAL Embedded Software
   7:/home/vinay/Desktop/softconsole_watershed/Water-shed/src/platform/mpfs_hal/common/mss_plic.h ****  *
   8:/home/vinay/Desktop/softconsole_watershed/Water-shed/src/platform/mpfs_hal/common/mss_plic.h ****  */
   9:/home/vinay/Desktop/softconsole_watershed/Water-shed/src/platform/mpfs_hal/common/mss_plic.h **** 
  10:/home/vinay/Desktop/softconsole_watershed/Water-shed/src/platform/mpfs_hal/common/mss_plic.h **** /*******************************************************************************
  11:/home/vinay/Desktop/softconsole_watershed/Water-shed/src/platform/mpfs_hal/common/mss_plic.h ****  *
  12:/home/vinay/Desktop/softconsole_watershed/Water-shed/src/platform/mpfs_hal/common/mss_plic.h ****  * @file mss_plic.h
  13:/home/vinay/Desktop/softconsole_watershed/Water-shed/src/platform/mpfs_hal/common/mss_plic.h ****  * @author Microchip-FPGA Embedded Systems Solutions
  14:/home/vinay/Desktop/softconsole_watershed/Water-shed/src/platform/mpfs_hal/common/mss_plic.h ****  * @brief PolarFire SoC MSS PLIC and PRCI access data structures and functions.
  15:/home/vinay/Desktop/softconsole_watershed/Water-shed/src/platform/mpfs_hal/common/mss_plic.h ****  *
  16:/home/vinay/Desktop/softconsole_watershed/Water-shed/src/platform/mpfs_hal/common/mss_plic.h ****  * Definitions and functions associated with PLIC interrupts.
  17:/home/vinay/Desktop/softconsole_watershed/Water-shed/src/platform/mpfs_hal/common/mss_plic.h ****  *
  18:/home/vinay/Desktop/softconsole_watershed/Water-shed/src/platform/mpfs_hal/common/mss_plic.h ****  */
  19:/home/vinay/Desktop/softconsole_watershed/Water-shed/src/platform/mpfs_hal/common/mss_plic.h **** #ifndef MSS_PLIC_H
  20:/home/vinay/Desktop/softconsole_watershed/Water-shed/src/platform/mpfs_hal/common/mss_plic.h **** #define MSS_PLIC_H
  21:/home/vinay/Desktop/softconsole_watershed/Water-shed/src/platform/mpfs_hal/common/mss_plic.h **** 
  22:/home/vinay/Desktop/softconsole_watershed/Water-shed/src/platform/mpfs_hal/common/mss_plic.h **** #include <stdint.h>
  23:/home/vinay/Desktop/softconsole_watershed/Water-shed/src/platform/mpfs_hal/common/mss_plic.h **** #ifndef CONFIG_OPENSBI
  24:/home/vinay/Desktop/softconsole_watershed/Water-shed/src/platform/mpfs_hal/common/mss_plic.h **** #include "encoding.h"
  25:/home/vinay/Desktop/softconsole_watershed/Water-shed/src/platform/mpfs_hal/common/mss_plic.h **** #endif
  26:/home/vinay/Desktop/softconsole_watershed/Water-shed/src/platform/mpfs_hal/common/mss_plic.h **** 
  27:/home/vinay/Desktop/softconsole_watershed/Water-shed/src/platform/mpfs_hal/common/mss_plic.h **** #include "mss_legacy_defines.h"
  28:/home/vinay/Desktop/softconsole_watershed/Water-shed/src/platform/mpfs_hal/common/mss_plic.h **** #include "mss_assert.h"
  29:/home/vinay/Desktop/softconsole_watershed/Water-shed/src/platform/mpfs_hal/common/mss_plic.h **** 
  30:/home/vinay/Desktop/softconsole_watershed/Water-shed/src/platform/mpfs_hal/common/mss_plic.h **** #ifdef __cplusplus
  31:/home/vinay/Desktop/softconsole_watershed/Water-shed/src/platform/mpfs_hal/common/mss_plic.h **** extern "C" {
  32:/home/vinay/Desktop/softconsole_watershed/Water-shed/src/platform/mpfs_hal/common/mss_plic.h **** #endif
  33:/home/vinay/Desktop/softconsole_watershed/Water-shed/src/platform/mpfs_hal/common/mss_plic.h **** 
  34:/home/vinay/Desktop/softconsole_watershed/Water-shed/src/platform/mpfs_hal/common/mss_plic.h **** /*
  35:/home/vinay/Desktop/softconsole_watershed/Water-shed/src/platform/mpfs_hal/common/mss_plic.h ****  *Return value from External IRQ handler. This will be used to disable the
  36:/home/vinay/Desktop/softconsole_watershed/Water-shed/src/platform/mpfs_hal/common/mss_plic.h ****  *Return External interrupt.
  37:/home/vinay/Desktop/softconsole_watershed/Water-shed/src/platform/mpfs_hal/common/mss_plic.h ****  */
  38:/home/vinay/Desktop/softconsole_watershed/Water-shed/src/platform/mpfs_hal/common/mss_plic.h **** #define EXT_IRQ_KEEP_ENABLED                                0U
  39:/home/vinay/Desktop/softconsole_watershed/Water-shed/src/platform/mpfs_hal/common/mss_plic.h **** #define EXT_IRQ_DISABLE                                     1U
  40:/home/vinay/Desktop/softconsole_watershed/Water-shed/src/platform/mpfs_hal/common/mss_plic.h **** 
  41:/home/vinay/Desktop/softconsole_watershed/Water-shed/src/platform/mpfs_hal/common/mss_plic.h **** /*------------------------------------------------------------------------------
  42:/home/vinay/Desktop/softconsole_watershed/Water-shed/src/platform/mpfs_hal/common/mss_plic.h ****  *
  43:/home/vinay/Desktop/softconsole_watershed/Water-shed/src/platform/mpfs_hal/common/mss_plic.h ****  */
  44:/home/vinay/Desktop/softconsole_watershed/Water-shed/src/platform/mpfs_hal/common/mss_plic.h **** uint8_t  PLIC_Invalid_IRQHandler(void);
  45:/home/vinay/Desktop/softconsole_watershed/Water-shed/src/platform/mpfs_hal/common/mss_plic.h **** uint8_t  PLIC_l2_metadata_corr_IRQHandler(void);
  46:/home/vinay/Desktop/softconsole_watershed/Water-shed/src/platform/mpfs_hal/common/mss_plic.h **** uint8_t  PLIC_l2_metadata_uncorr_IRQHandler(void);
  47:/home/vinay/Desktop/softconsole_watershed/Water-shed/src/platform/mpfs_hal/common/mss_plic.h **** uint8_t  PLIC_l2_data_corr_IRQHandler(void);
  48:/home/vinay/Desktop/softconsole_watershed/Water-shed/src/platform/mpfs_hal/common/mss_plic.h **** uint8_t  PLIC_l2_data_uncorr_IRQHandler(void);
  49:/home/vinay/Desktop/softconsole_watershed/Water-shed/src/platform/mpfs_hal/common/mss_plic.h **** uint8_t  PLIC_dma_ch0_DONE_IRQHandler(void);
  50:/home/vinay/Desktop/softconsole_watershed/Water-shed/src/platform/mpfs_hal/common/mss_plic.h **** uint8_t  PLIC_dma_ch0_ERR_IRQHandler(void);
  51:/home/vinay/Desktop/softconsole_watershed/Water-shed/src/platform/mpfs_hal/common/mss_plic.h **** uint8_t  PLIC_dma_ch1_DONE_IRQHandler(void);
  52:/home/vinay/Desktop/softconsole_watershed/Water-shed/src/platform/mpfs_hal/common/mss_plic.h **** uint8_t  PLIC_dma_ch1_ERR_IRQHandler(void);
  53:/home/vinay/Desktop/softconsole_watershed/Water-shed/src/platform/mpfs_hal/common/mss_plic.h **** uint8_t  PLIC_dma_ch2_DONE_IRQHandler(void);
  54:/home/vinay/Desktop/softconsole_watershed/Water-shed/src/platform/mpfs_hal/common/mss_plic.h **** uint8_t  PLIC_dma_ch2_ERR_IRQHandler(void);
  55:/home/vinay/Desktop/softconsole_watershed/Water-shed/src/platform/mpfs_hal/common/mss_plic.h **** uint8_t  PLIC_dma_ch3_DONE_IRQHandler(void);
  56:/home/vinay/Desktop/softconsole_watershed/Water-shed/src/platform/mpfs_hal/common/mss_plic.h **** uint8_t  PLIC_dma_ch3_ERR_IRQHandler(void);
  57:/home/vinay/Desktop/softconsole_watershed/Water-shed/src/platform/mpfs_hal/common/mss_plic.h **** uint8_t  PLIC_gpio0_bit0_or_gpio2_bit13_IRQHandler(void);
  58:/home/vinay/Desktop/softconsole_watershed/Water-shed/src/platform/mpfs_hal/common/mss_plic.h **** uint8_t  PLIC_gpio0_bit1_or_gpio2_bit13_IRQHandler(void);
  59:/home/vinay/Desktop/softconsole_watershed/Water-shed/src/platform/mpfs_hal/common/mss_plic.h **** uint8_t  PLIC_gpio0_bit2_or_gpio2_bit13_IRQHandler(void);
  60:/home/vinay/Desktop/softconsole_watershed/Water-shed/src/platform/mpfs_hal/common/mss_plic.h **** uint8_t  PLIC_gpio0_bit3_or_gpio2_bit13_IRQHandler(void);
  61:/home/vinay/Desktop/softconsole_watershed/Water-shed/src/platform/mpfs_hal/common/mss_plic.h **** uint8_t  PLIC_gpio0_bit4_or_gpio2_bit13_IRQHandler(void);
  62:/home/vinay/Desktop/softconsole_watershed/Water-shed/src/platform/mpfs_hal/common/mss_plic.h **** uint8_t  PLIC_gpio0_bit5_or_gpio2_bit13_IRQHandler(void);
  63:/home/vinay/Desktop/softconsole_watershed/Water-shed/src/platform/mpfs_hal/common/mss_plic.h **** uint8_t  PLIC_gpio0_bit6_or_gpio2_bit13_IRQHandler(void);
  64:/home/vinay/Desktop/softconsole_watershed/Water-shed/src/platform/mpfs_hal/common/mss_plic.h **** uint8_t  PLIC_gpio0_bit7_or_gpio2_bit13_IRQHandler(void);
  65:/home/vinay/Desktop/softconsole_watershed/Water-shed/src/platform/mpfs_hal/common/mss_plic.h **** uint8_t  PLIC_gpio0_bit8_or_gpio2_bit13_IRQHandler(void);
  66:/home/vinay/Desktop/softconsole_watershed/Water-shed/src/platform/mpfs_hal/common/mss_plic.h **** uint8_t  PLIC_gpio0_bit9_or_gpio2_bit13_IRQHandler(void);
  67:/home/vinay/Desktop/softconsole_watershed/Water-shed/src/platform/mpfs_hal/common/mss_plic.h **** uint8_t  PLIC_gpio0_bit10_or_gpio2_bit13_IRQHandler(void);
  68:/home/vinay/Desktop/softconsole_watershed/Water-shed/src/platform/mpfs_hal/common/mss_plic.h **** uint8_t  PLIC_gpio0_bit11_or_gpio2_bit13_IRQHandler(void);
  69:/home/vinay/Desktop/softconsole_watershed/Water-shed/src/platform/mpfs_hal/common/mss_plic.h **** uint8_t  PLIC_gpio0_bit12_or_gpio2_bit13_IRQHandler(void);
  70:/home/vinay/Desktop/softconsole_watershed/Water-shed/src/platform/mpfs_hal/common/mss_plic.h **** 
  71:/home/vinay/Desktop/softconsole_watershed/Water-shed/src/platform/mpfs_hal/common/mss_plic.h **** uint8_t  PLIC_gpio0_bit13_or_gpio2_bit13_IRQHandler(void);
  72:/home/vinay/Desktop/softconsole_watershed/Water-shed/src/platform/mpfs_hal/common/mss_plic.h **** uint8_t  PLIC_gpio1_bit0_or_gpio2_bit14_IRQHandler(void);
  73:/home/vinay/Desktop/softconsole_watershed/Water-shed/src/platform/mpfs_hal/common/mss_plic.h **** uint8_t  PLIC_gpio1_bit1_or_gpio2_bit15_IRQHandler(void);
  74:/home/vinay/Desktop/softconsole_watershed/Water-shed/src/platform/mpfs_hal/common/mss_plic.h **** uint8_t  PLIC_gpio1_bit2_or_gpio2_bit16_IRQHandler(void);
  75:/home/vinay/Desktop/softconsole_watershed/Water-shed/src/platform/mpfs_hal/common/mss_plic.h **** uint8_t  PLIC_gpio1_bit3_or_gpio2_bit17_IRQHandler(void);
  76:/home/vinay/Desktop/softconsole_watershed/Water-shed/src/platform/mpfs_hal/common/mss_plic.h **** uint8_t  PLIC_gpio1_bit4_or_gpio2_bit18_IRQHandler(void);
  77:/home/vinay/Desktop/softconsole_watershed/Water-shed/src/platform/mpfs_hal/common/mss_plic.h **** uint8_t  PLIC_gpio1_bit5_or_gpio2_bit19_IRQHandler(void);
  78:/home/vinay/Desktop/softconsole_watershed/Water-shed/src/platform/mpfs_hal/common/mss_plic.h **** uint8_t  PLIC_gpio1_bit6_or_gpio2_bit20_IRQHandler(void);
  79:/home/vinay/Desktop/softconsole_watershed/Water-shed/src/platform/mpfs_hal/common/mss_plic.h **** uint8_t  PLIC_gpio1_bit7_or_gpio2_bit21_IRQHandler(void);
  80:/home/vinay/Desktop/softconsole_watershed/Water-shed/src/platform/mpfs_hal/common/mss_plic.h **** uint8_t  PLIC_gpio1_bit8_or_gpio2_bit22_IRQHandler(void);
  81:/home/vinay/Desktop/softconsole_watershed/Water-shed/src/platform/mpfs_hal/common/mss_plic.h **** uint8_t  PLIC_gpio1_bit9_or_gpio2_bit23_IRQHandler(void);
  82:/home/vinay/Desktop/softconsole_watershed/Water-shed/src/platform/mpfs_hal/common/mss_plic.h **** uint8_t  PLIC_gpio1_bit10_or_gpio2_bit24_IRQHandler(void);
  83:/home/vinay/Desktop/softconsole_watershed/Water-shed/src/platform/mpfs_hal/common/mss_plic.h **** uint8_t  PLIC_gpio1_bit11_or_gpio2_bit25_IRQHandler(void);
  84:/home/vinay/Desktop/softconsole_watershed/Water-shed/src/platform/mpfs_hal/common/mss_plic.h **** uint8_t  PLIC_gpio1_bit12_or_gpio2_bit26_IRQHandler(void);
  85:/home/vinay/Desktop/softconsole_watershed/Water-shed/src/platform/mpfs_hal/common/mss_plic.h **** uint8_t  PLIC_gpio1_bit13_or_gpio2_bit27_IRQHandler(void);
  86:/home/vinay/Desktop/softconsole_watershed/Water-shed/src/platform/mpfs_hal/common/mss_plic.h **** 
  87:/home/vinay/Desktop/softconsole_watershed/Water-shed/src/platform/mpfs_hal/common/mss_plic.h **** uint8_t  PLIC_gpio1_bit14_or_gpio2_bit28_IRQHandler(void);
  88:/home/vinay/Desktop/softconsole_watershed/Water-shed/src/platform/mpfs_hal/common/mss_plic.h **** uint8_t  PLIC_gpio1_bit15_or_gpio2_bit29_IRQHandler(void);
  89:/home/vinay/Desktop/softconsole_watershed/Water-shed/src/platform/mpfs_hal/common/mss_plic.h **** uint8_t  PLIC_gpio1_bit16_or_gpio2_bit30_IRQHandler(void);
  90:/home/vinay/Desktop/softconsole_watershed/Water-shed/src/platform/mpfs_hal/common/mss_plic.h **** uint8_t  PLIC_gpio1_bit17_or_gpio2_bit31_IRQHandler(void);
  91:/home/vinay/Desktop/softconsole_watershed/Water-shed/src/platform/mpfs_hal/common/mss_plic.h **** 
  92:/home/vinay/Desktop/softconsole_watershed/Water-shed/src/platform/mpfs_hal/common/mss_plic.h **** uint8_t  PLIC_gpio1_bit18_IRQHandler(void);
  93:/home/vinay/Desktop/softconsole_watershed/Water-shed/src/platform/mpfs_hal/common/mss_plic.h **** uint8_t  PLIC_gpio1_bit19_IRQHandler(void);
  94:/home/vinay/Desktop/softconsole_watershed/Water-shed/src/platform/mpfs_hal/common/mss_plic.h **** uint8_t  PLIC_gpio1_bit20_IRQHandler(void);
  95:/home/vinay/Desktop/softconsole_watershed/Water-shed/src/platform/mpfs_hal/common/mss_plic.h **** uint8_t  PLIC_gpio1_bit21_IRQHandler(void);
  96:/home/vinay/Desktop/softconsole_watershed/Water-shed/src/platform/mpfs_hal/common/mss_plic.h **** uint8_t  PLIC_gpio1_bit22_IRQHandler(void);
  97:/home/vinay/Desktop/softconsole_watershed/Water-shed/src/platform/mpfs_hal/common/mss_plic.h **** uint8_t  PLIC_gpio1_bit23_IRQHandler(void);
  98:/home/vinay/Desktop/softconsole_watershed/Water-shed/src/platform/mpfs_hal/common/mss_plic.h **** 
  99:/home/vinay/Desktop/softconsole_watershed/Water-shed/src/platform/mpfs_hal/common/mss_plic.h **** uint8_t  PLIC_gpio0_non_direct_IRQHandler(void);
 100:/home/vinay/Desktop/softconsole_watershed/Water-shed/src/platform/mpfs_hal/common/mss_plic.h **** uint8_t  PLIC_gpio1_non_direct_IRQHandler(void);
 101:/home/vinay/Desktop/softconsole_watershed/Water-shed/src/platform/mpfs_hal/common/mss_plic.h **** uint8_t  PLIC_gpio2_non_direct_IRQHandler(void);
 102:/home/vinay/Desktop/softconsole_watershed/Water-shed/src/platform/mpfs_hal/common/mss_plic.h **** 
 103:/home/vinay/Desktop/softconsole_watershed/Water-shed/src/platform/mpfs_hal/common/mss_plic.h **** uint8_t  PLIC_spi0_IRQHandler(void);
 104:/home/vinay/Desktop/softconsole_watershed/Water-shed/src/platform/mpfs_hal/common/mss_plic.h **** uint8_t  PLIC_spi1_IRQHandler(void);
 105:/home/vinay/Desktop/softconsole_watershed/Water-shed/src/platform/mpfs_hal/common/mss_plic.h **** uint8_t  PLIC_external_can0_IRQHandler(void);
 106:/home/vinay/Desktop/softconsole_watershed/Water-shed/src/platform/mpfs_hal/common/mss_plic.h **** uint8_t  PLIC_can1_IRQHandler(void);
 107:/home/vinay/Desktop/softconsole_watershed/Water-shed/src/platform/mpfs_hal/common/mss_plic.h **** uint8_t  PLIC_External_i2c0_main_IRQHandler(void);
 108:/home/vinay/Desktop/softconsole_watershed/Water-shed/src/platform/mpfs_hal/common/mss_plic.h **** uint8_t  PLIC_External_i2c0_alert_IRQHandler(void);
 109:/home/vinay/Desktop/softconsole_watershed/Water-shed/src/platform/mpfs_hal/common/mss_plic.h **** uint8_t  PLIC_i2c0_sus_IRQHandler(void);
 110:/home/vinay/Desktop/softconsole_watershed/Water-shed/src/platform/mpfs_hal/common/mss_plic.h **** uint8_t  PLIC_i2c1_main_IRQHandler(void);
 111:/home/vinay/Desktop/softconsole_watershed/Water-shed/src/platform/mpfs_hal/common/mss_plic.h **** uint8_t  PLIC_i2c1_alert_IRQHandler(void);
 112:/home/vinay/Desktop/softconsole_watershed/Water-shed/src/platform/mpfs_hal/common/mss_plic.h **** uint8_t  PLIC_i2c1_sus_IRQHandler(void);
 113:/home/vinay/Desktop/softconsole_watershed/Water-shed/src/platform/mpfs_hal/common/mss_plic.h **** uint8_t  PLIC_mac0_int_IRQHandler(void);
 114:/home/vinay/Desktop/softconsole_watershed/Water-shed/src/platform/mpfs_hal/common/mss_plic.h **** uint8_t  PLIC_mac0_queue1_IRQHandler(void);
 115:/home/vinay/Desktop/softconsole_watershed/Water-shed/src/platform/mpfs_hal/common/mss_plic.h **** uint8_t  PLIC_mac0_queue2_IRQHandler(void);
 116:/home/vinay/Desktop/softconsole_watershed/Water-shed/src/platform/mpfs_hal/common/mss_plic.h **** uint8_t  PLIC_mac0_queue3_IRQHandler(void);
 117:/home/vinay/Desktop/softconsole_watershed/Water-shed/src/platform/mpfs_hal/common/mss_plic.h **** uint8_t  PLIC_mac0_emac_IRQHandler(void);
 118:/home/vinay/Desktop/softconsole_watershed/Water-shed/src/platform/mpfs_hal/common/mss_plic.h **** uint8_t  PLIC_mac0_mmsl_IRQHandler(void);
 119:/home/vinay/Desktop/softconsole_watershed/Water-shed/src/platform/mpfs_hal/common/mss_plic.h **** uint8_t  PLIC_mac1_int_IRQHandler(void);
 120:/home/vinay/Desktop/softconsole_watershed/Water-shed/src/platform/mpfs_hal/common/mss_plic.h **** uint8_t  PLIC_mac1_queue1_IRQHandler(void);
 121:/home/vinay/Desktop/softconsole_watershed/Water-shed/src/platform/mpfs_hal/common/mss_plic.h **** uint8_t  PLIC_mac1_queue2_IRQHandler(void);
 122:/home/vinay/Desktop/softconsole_watershed/Water-shed/src/platform/mpfs_hal/common/mss_plic.h **** uint8_t  PLIC_mac1_queue3_IRQHandler(void);
 123:/home/vinay/Desktop/softconsole_watershed/Water-shed/src/platform/mpfs_hal/common/mss_plic.h **** uint8_t  PLIC_mac1_emac_IRQHandler(void);
 124:/home/vinay/Desktop/softconsole_watershed/Water-shed/src/platform/mpfs_hal/common/mss_plic.h **** uint8_t  PLIC_mac1_mmsl_IRQHandler(void);
 125:/home/vinay/Desktop/softconsole_watershed/Water-shed/src/platform/mpfs_hal/common/mss_plic.h **** uint8_t  PLIC_ddrc_train_IRQHandler(void);
 126:/home/vinay/Desktop/softconsole_watershed/Water-shed/src/platform/mpfs_hal/common/mss_plic.h **** uint8_t  PLIC_scb_interrupt_IRQHandler(void);
 127:/home/vinay/Desktop/softconsole_watershed/Water-shed/src/platform/mpfs_hal/common/mss_plic.h **** uint8_t  PLIC_ecc_error_IRQHandler(void);
 128:/home/vinay/Desktop/softconsole_watershed/Water-shed/src/platform/mpfs_hal/common/mss_plic.h **** uint8_t  PLIC_ecc_correct_IRQHandler(void);
 129:/home/vinay/Desktop/softconsole_watershed/Water-shed/src/platform/mpfs_hal/common/mss_plic.h **** uint8_t  PLIC_rtc_wakeup_IRQHandler(void);
 130:/home/vinay/Desktop/softconsole_watershed/Water-shed/src/platform/mpfs_hal/common/mss_plic.h **** uint8_t  PLIC_rtc_match_IRQHandler(void);
 131:/home/vinay/Desktop/softconsole_watershed/Water-shed/src/platform/mpfs_hal/common/mss_plic.h **** uint8_t  PLIC_timer1_IRQHandler(void);
 132:/home/vinay/Desktop/softconsole_watershed/Water-shed/src/platform/mpfs_hal/common/mss_plic.h **** uint8_t  PLIC_timer2_IRQHandler(void);
 133:/home/vinay/Desktop/softconsole_watershed/Water-shed/src/platform/mpfs_hal/common/mss_plic.h **** uint8_t  PLIC_envm_IRQHandler(void);
 134:/home/vinay/Desktop/softconsole_watershed/Water-shed/src/platform/mpfs_hal/common/mss_plic.h **** uint8_t  PLIC_qspi_IRQHandler(void);
 135:/home/vinay/Desktop/softconsole_watershed/Water-shed/src/platform/mpfs_hal/common/mss_plic.h **** uint8_t  PLIC_usb_dma_IRQHandler(void);
 136:/home/vinay/Desktop/softconsole_watershed/Water-shed/src/platform/mpfs_hal/common/mss_plic.h **** uint8_t  PLIC_usb_mc_IRQHandler(void);
 137:/home/vinay/Desktop/softconsole_watershed/Water-shed/src/platform/mpfs_hal/common/mss_plic.h **** uint8_t  PLIC_mmc_main_IRQHandler(void);
 138:/home/vinay/Desktop/softconsole_watershed/Water-shed/src/platform/mpfs_hal/common/mss_plic.h **** uint8_t  PLIC_mmc_wakeup_IRQHandler(void);
 139:/home/vinay/Desktop/softconsole_watershed/Water-shed/src/platform/mpfs_hal/common/mss_plic.h **** uint8_t  PLIC_mmuart0_IRQHandler(void);
 140:/home/vinay/Desktop/softconsole_watershed/Water-shed/src/platform/mpfs_hal/common/mss_plic.h **** uint8_t  PLIC_mmuart1_IRQHandler(void);
 141:/home/vinay/Desktop/softconsole_watershed/Water-shed/src/platform/mpfs_hal/common/mss_plic.h **** uint8_t  PLIC_mmuart2_IRQHandler(void);
 142:/home/vinay/Desktop/softconsole_watershed/Water-shed/src/platform/mpfs_hal/common/mss_plic.h **** uint8_t  PLIC_mmuart3_IRQHandler(void);
 143:/home/vinay/Desktop/softconsole_watershed/Water-shed/src/platform/mpfs_hal/common/mss_plic.h **** uint8_t  PLIC_mmuart4_IRQHandler(void);
 144:/home/vinay/Desktop/softconsole_watershed/Water-shed/src/platform/mpfs_hal/common/mss_plic.h **** uint8_t  PLIC_devrst_IRQHandler(void);
 145:/home/vinay/Desktop/softconsole_watershed/Water-shed/src/platform/mpfs_hal/common/mss_plic.h **** uint8_t  PLIC_g5c_message_IRQHandler(void);
 146:/home/vinay/Desktop/softconsole_watershed/Water-shed/src/platform/mpfs_hal/common/mss_plic.h **** uint8_t  PLIC_usoc_vc_interrupt_IRQHandler(void);
 147:/home/vinay/Desktop/softconsole_watershed/Water-shed/src/platform/mpfs_hal/common/mss_plic.h **** uint8_t  PLIC_usoc_smb_interrupt_IRQHandler(void);
 148:/home/vinay/Desktop/softconsole_watershed/Water-shed/src/platform/mpfs_hal/common/mss_plic.h **** uint8_t  PLIC_E51_Maintence_IRQHandler(void);
 149:/home/vinay/Desktop/softconsole_watershed/Water-shed/src/platform/mpfs_hal/common/mss_plic.h **** 
 150:/home/vinay/Desktop/softconsole_watershed/Water-shed/src/platform/mpfs_hal/common/mss_plic.h **** uint8_t  PLIC_wdog0_mvrp_IRQHandler(void);
 151:/home/vinay/Desktop/softconsole_watershed/Water-shed/src/platform/mpfs_hal/common/mss_plic.h **** uint8_t  PLIC_wdog1_mvrp_IRQHandler(void);
 152:/home/vinay/Desktop/softconsole_watershed/Water-shed/src/platform/mpfs_hal/common/mss_plic.h **** uint8_t  PLIC_wdog2_mvrp_IRQHandler(void);
 153:/home/vinay/Desktop/softconsole_watershed/Water-shed/src/platform/mpfs_hal/common/mss_plic.h **** uint8_t  PLIC_wdog3_mvrp_IRQHandler(void);
 154:/home/vinay/Desktop/softconsole_watershed/Water-shed/src/platform/mpfs_hal/common/mss_plic.h **** uint8_t  PLIC_wdog4_mvrp_IRQHandler(void);
 155:/home/vinay/Desktop/softconsole_watershed/Water-shed/src/platform/mpfs_hal/common/mss_plic.h **** uint8_t  PLIC_wdog0_tout_IRQHandler(void);
 156:/home/vinay/Desktop/softconsole_watershed/Water-shed/src/platform/mpfs_hal/common/mss_plic.h **** uint8_t  PLIC_wdog1_tout_IRQHandler(void);
 157:/home/vinay/Desktop/softconsole_watershed/Water-shed/src/platform/mpfs_hal/common/mss_plic.h **** uint8_t  PLIC_wdog2_tout_IRQHandler(void);
 158:/home/vinay/Desktop/softconsole_watershed/Water-shed/src/platform/mpfs_hal/common/mss_plic.h **** uint8_t  PLIC_wdog3_tout_IRQHandler(void);
 159:/home/vinay/Desktop/softconsole_watershed/Water-shed/src/platform/mpfs_hal/common/mss_plic.h **** uint8_t  PLIC_wdog4_tout_IRQHandler(void);
 160:/home/vinay/Desktop/softconsole_watershed/Water-shed/src/platform/mpfs_hal/common/mss_plic.h **** uint8_t  PLIC_g5c_mss_spi_IRQHandler(void);
 161:/home/vinay/Desktop/softconsole_watershed/Water-shed/src/platform/mpfs_hal/common/mss_plic.h **** uint8_t  PLIC_volt_temp_alarm_IRQHandler(void);
 162:/home/vinay/Desktop/softconsole_watershed/Water-shed/src/platform/mpfs_hal/common/mss_plic.h **** 
 163:/home/vinay/Desktop/softconsole_watershed/Water-shed/src/platform/mpfs_hal/common/mss_plic.h **** uint8_t  PLIC_athena_complete_IRQHandler(void);
 164:/home/vinay/Desktop/softconsole_watershed/Water-shed/src/platform/mpfs_hal/common/mss_plic.h **** uint8_t  PLIC_athena_alarm_IRQHandler(void);
 165:/home/vinay/Desktop/softconsole_watershed/Water-shed/src/platform/mpfs_hal/common/mss_plic.h **** uint8_t  PLIC_athena_bus_error_IRQHandler(void);
 166:/home/vinay/Desktop/softconsole_watershed/Water-shed/src/platform/mpfs_hal/common/mss_plic.h **** uint8_t  PLIC_usoc_axic_us_IRQHandler(void);
 167:/home/vinay/Desktop/softconsole_watershed/Water-shed/src/platform/mpfs_hal/common/mss_plic.h **** uint8_t  PLIC_usoc_axic_ds_IRQHandler(void);
 168:/home/vinay/Desktop/softconsole_watershed/Water-shed/src/platform/mpfs_hal/common/mss_plic.h **** 
 169:/home/vinay/Desktop/softconsole_watershed/Water-shed/src/platform/mpfs_hal/common/mss_plic.h **** uint8_t  PLIC_reserved_104_IRQHandler(void);
 170:/home/vinay/Desktop/softconsole_watershed/Water-shed/src/platform/mpfs_hal/common/mss_plic.h **** 
 171:/home/vinay/Desktop/softconsole_watershed/Water-shed/src/platform/mpfs_hal/common/mss_plic.h **** uint8_t  PLIC_f2m_0_IRQHandler(void);
 172:/home/vinay/Desktop/softconsole_watershed/Water-shed/src/platform/mpfs_hal/common/mss_plic.h **** uint8_t  PLIC_f2m_1_IRQHandler(void);
 173:/home/vinay/Desktop/softconsole_watershed/Water-shed/src/platform/mpfs_hal/common/mss_plic.h **** uint8_t  PLIC_f2m_2_IRQHandler(void);
 174:/home/vinay/Desktop/softconsole_watershed/Water-shed/src/platform/mpfs_hal/common/mss_plic.h **** uint8_t  PLIC_f2m_3_IRQHandler(void);
 175:/home/vinay/Desktop/softconsole_watershed/Water-shed/src/platform/mpfs_hal/common/mss_plic.h **** uint8_t  PLIC_f2m_4_IRQHandler(void);
 176:/home/vinay/Desktop/softconsole_watershed/Water-shed/src/platform/mpfs_hal/common/mss_plic.h **** uint8_t  PLIC_f2m_5_IRQHandler(void);
 177:/home/vinay/Desktop/softconsole_watershed/Water-shed/src/platform/mpfs_hal/common/mss_plic.h **** uint8_t  PLIC_f2m_6_IRQHandler(void);
 178:/home/vinay/Desktop/softconsole_watershed/Water-shed/src/platform/mpfs_hal/common/mss_plic.h **** uint8_t  PLIC_f2m_7_IRQHandler(void);
 179:/home/vinay/Desktop/softconsole_watershed/Water-shed/src/platform/mpfs_hal/common/mss_plic.h **** uint8_t  PLIC_f2m_8_IRQHandler(void);
 180:/home/vinay/Desktop/softconsole_watershed/Water-shed/src/platform/mpfs_hal/common/mss_plic.h **** uint8_t  PLIC_f2m_9_IRQHandler(void);
 181:/home/vinay/Desktop/softconsole_watershed/Water-shed/src/platform/mpfs_hal/common/mss_plic.h **** 
 182:/home/vinay/Desktop/softconsole_watershed/Water-shed/src/platform/mpfs_hal/common/mss_plic.h **** uint8_t  PLIC_f2m_10_IRQHandler(void);
 183:/home/vinay/Desktop/softconsole_watershed/Water-shed/src/platform/mpfs_hal/common/mss_plic.h **** uint8_t  PLIC_f2m_11_IRQHandler(void);
 184:/home/vinay/Desktop/softconsole_watershed/Water-shed/src/platform/mpfs_hal/common/mss_plic.h **** uint8_t  PLIC_f2m_12_IRQHandler(void);
 185:/home/vinay/Desktop/softconsole_watershed/Water-shed/src/platform/mpfs_hal/common/mss_plic.h **** uint8_t  PLIC_f2m_13_IRQHandler(void);
 186:/home/vinay/Desktop/softconsole_watershed/Water-shed/src/platform/mpfs_hal/common/mss_plic.h **** uint8_t  PLIC_f2m_14_IRQHandler(void);
 187:/home/vinay/Desktop/softconsole_watershed/Water-shed/src/platform/mpfs_hal/common/mss_plic.h **** uint8_t  PLIC_f2m_15_IRQHandler(void);
 188:/home/vinay/Desktop/softconsole_watershed/Water-shed/src/platform/mpfs_hal/common/mss_plic.h **** uint8_t  PLIC_f2m_16_IRQHandler(void);
 189:/home/vinay/Desktop/softconsole_watershed/Water-shed/src/platform/mpfs_hal/common/mss_plic.h **** uint8_t  PLIC_f2m_17_IRQHandler(void);
 190:/home/vinay/Desktop/softconsole_watershed/Water-shed/src/platform/mpfs_hal/common/mss_plic.h **** uint8_t  PLIC_f2m_18_IRQHandler(void);
 191:/home/vinay/Desktop/softconsole_watershed/Water-shed/src/platform/mpfs_hal/common/mss_plic.h **** uint8_t  PLIC_f2m_19_IRQHandler(void);
 192:/home/vinay/Desktop/softconsole_watershed/Water-shed/src/platform/mpfs_hal/common/mss_plic.h **** 
 193:/home/vinay/Desktop/softconsole_watershed/Water-shed/src/platform/mpfs_hal/common/mss_plic.h **** uint8_t  PLIC_f2m_20_IRQHandler(void);
 194:/home/vinay/Desktop/softconsole_watershed/Water-shed/src/platform/mpfs_hal/common/mss_plic.h **** uint8_t  PLIC_f2m_21_IRQHandler(void);
 195:/home/vinay/Desktop/softconsole_watershed/Water-shed/src/platform/mpfs_hal/common/mss_plic.h **** uint8_t  PLIC_f2m_22_IRQHandler(void);
 196:/home/vinay/Desktop/softconsole_watershed/Water-shed/src/platform/mpfs_hal/common/mss_plic.h **** uint8_t  PLIC_f2m_23_IRQHandler(void);
 197:/home/vinay/Desktop/softconsole_watershed/Water-shed/src/platform/mpfs_hal/common/mss_plic.h **** uint8_t  PLIC_f2m_24_IRQHandler(void);
 198:/home/vinay/Desktop/softconsole_watershed/Water-shed/src/platform/mpfs_hal/common/mss_plic.h **** uint8_t  PLIC_f2m_25_IRQHandler(void);
 199:/home/vinay/Desktop/softconsole_watershed/Water-shed/src/platform/mpfs_hal/common/mss_plic.h **** uint8_t  PLIC_f2m_26_IRQHandler(void);
 200:/home/vinay/Desktop/softconsole_watershed/Water-shed/src/platform/mpfs_hal/common/mss_plic.h **** uint8_t  PLIC_f2m_27_IRQHandler(void);
 201:/home/vinay/Desktop/softconsole_watershed/Water-shed/src/platform/mpfs_hal/common/mss_plic.h **** uint8_t  PLIC_f2m_28_IRQHandler(void);
 202:/home/vinay/Desktop/softconsole_watershed/Water-shed/src/platform/mpfs_hal/common/mss_plic.h **** uint8_t  PLIC_f2m_29_IRQHandler(void);
 203:/home/vinay/Desktop/softconsole_watershed/Water-shed/src/platform/mpfs_hal/common/mss_plic.h **** 
 204:/home/vinay/Desktop/softconsole_watershed/Water-shed/src/platform/mpfs_hal/common/mss_plic.h **** uint8_t  PLIC_f2m_30_IRQHandler(void);
 205:/home/vinay/Desktop/softconsole_watershed/Water-shed/src/platform/mpfs_hal/common/mss_plic.h **** uint8_t  PLIC_f2m_31_IRQHandler(void);
 206:/home/vinay/Desktop/softconsole_watershed/Water-shed/src/platform/mpfs_hal/common/mss_plic.h **** 
 207:/home/vinay/Desktop/softconsole_watershed/Water-shed/src/platform/mpfs_hal/common/mss_plic.h **** uint8_t  PLIC_f2m_32_IRQHandler(void);
 208:/home/vinay/Desktop/softconsole_watershed/Water-shed/src/platform/mpfs_hal/common/mss_plic.h **** uint8_t  PLIC_f2m_33_IRQHandler(void);
 209:/home/vinay/Desktop/softconsole_watershed/Water-shed/src/platform/mpfs_hal/common/mss_plic.h **** uint8_t  PLIC_f2m_34_IRQHandler(void);
 210:/home/vinay/Desktop/softconsole_watershed/Water-shed/src/platform/mpfs_hal/common/mss_plic.h **** uint8_t  PLIC_f2m_35_IRQHandler(void);
 211:/home/vinay/Desktop/softconsole_watershed/Water-shed/src/platform/mpfs_hal/common/mss_plic.h **** uint8_t  PLIC_f2m_36_IRQHandler(void);
 212:/home/vinay/Desktop/softconsole_watershed/Water-shed/src/platform/mpfs_hal/common/mss_plic.h **** uint8_t  PLIC_f2m_37_IRQHandler(void);
 213:/home/vinay/Desktop/softconsole_watershed/Water-shed/src/platform/mpfs_hal/common/mss_plic.h **** uint8_t  PLIC_f2m_38_IRQHandler(void);
 214:/home/vinay/Desktop/softconsole_watershed/Water-shed/src/platform/mpfs_hal/common/mss_plic.h **** uint8_t  PLIC_f2m_39_IRQHandler(void);
 215:/home/vinay/Desktop/softconsole_watershed/Water-shed/src/platform/mpfs_hal/common/mss_plic.h **** uint8_t  PLIC_f2m_40_IRQHandler(void);
 216:/home/vinay/Desktop/softconsole_watershed/Water-shed/src/platform/mpfs_hal/common/mss_plic.h **** uint8_t  PLIC_f2m_41_IRQHandler(void);
 217:/home/vinay/Desktop/softconsole_watershed/Water-shed/src/platform/mpfs_hal/common/mss_plic.h **** 
 218:/home/vinay/Desktop/softconsole_watershed/Water-shed/src/platform/mpfs_hal/common/mss_plic.h **** uint8_t PLIC_f2m_42_IRQHandler(void);
 219:/home/vinay/Desktop/softconsole_watershed/Water-shed/src/platform/mpfs_hal/common/mss_plic.h **** uint8_t PLIC_f2m_43_IRQHandler(void);
 220:/home/vinay/Desktop/softconsole_watershed/Water-shed/src/platform/mpfs_hal/common/mss_plic.h **** uint8_t PLIC_f2m_44_IRQHandler(void);
 221:/home/vinay/Desktop/softconsole_watershed/Water-shed/src/platform/mpfs_hal/common/mss_plic.h **** uint8_t PLIC_f2m_45_IRQHandler(void);
 222:/home/vinay/Desktop/softconsole_watershed/Water-shed/src/platform/mpfs_hal/common/mss_plic.h **** uint8_t PLIC_f2m_46_IRQHandler(void);
 223:/home/vinay/Desktop/softconsole_watershed/Water-shed/src/platform/mpfs_hal/common/mss_plic.h **** uint8_t PLIC_f2m_47_IRQHandler(void);
 224:/home/vinay/Desktop/softconsole_watershed/Water-shed/src/platform/mpfs_hal/common/mss_plic.h **** uint8_t PLIC_f2m_48_IRQHandler(void);
 225:/home/vinay/Desktop/softconsole_watershed/Water-shed/src/platform/mpfs_hal/common/mss_plic.h **** uint8_t PLIC_f2m_49_IRQHandler(void);
 226:/home/vinay/Desktop/softconsole_watershed/Water-shed/src/platform/mpfs_hal/common/mss_plic.h **** uint8_t PLIC_f2m_50_IRQHandler(void);
 227:/home/vinay/Desktop/softconsole_watershed/Water-shed/src/platform/mpfs_hal/common/mss_plic.h **** uint8_t PLIC_f2m_51_IRQHandler(void);
 228:/home/vinay/Desktop/softconsole_watershed/Water-shed/src/platform/mpfs_hal/common/mss_plic.h **** 
 229:/home/vinay/Desktop/softconsole_watershed/Water-shed/src/platform/mpfs_hal/common/mss_plic.h **** uint8_t PLIC_f2m_52_IRQHandler(void);
 230:/home/vinay/Desktop/softconsole_watershed/Water-shed/src/platform/mpfs_hal/common/mss_plic.h **** uint8_t PLIC_f2m_53_IRQHandler(void);
 231:/home/vinay/Desktop/softconsole_watershed/Water-shed/src/platform/mpfs_hal/common/mss_plic.h **** uint8_t PLIC_f2m_54_IRQHandler(void);
 232:/home/vinay/Desktop/softconsole_watershed/Water-shed/src/platform/mpfs_hal/common/mss_plic.h **** uint8_t PLIC_f2m_55_IRQHandler(void);
 233:/home/vinay/Desktop/softconsole_watershed/Water-shed/src/platform/mpfs_hal/common/mss_plic.h **** uint8_t PLIC_f2m_56_IRQHandler(void);
 234:/home/vinay/Desktop/softconsole_watershed/Water-shed/src/platform/mpfs_hal/common/mss_plic.h **** uint8_t PLIC_f2m_57_IRQHandler(void);
 235:/home/vinay/Desktop/softconsole_watershed/Water-shed/src/platform/mpfs_hal/common/mss_plic.h **** uint8_t PLIC_f2m_58_IRQHandler(void);
 236:/home/vinay/Desktop/softconsole_watershed/Water-shed/src/platform/mpfs_hal/common/mss_plic.h **** uint8_t PLIC_f2m_59_IRQHandler(void);
 237:/home/vinay/Desktop/softconsole_watershed/Water-shed/src/platform/mpfs_hal/common/mss_plic.h **** uint8_t PLIC_f2m_60_IRQHandler(void);
 238:/home/vinay/Desktop/softconsole_watershed/Water-shed/src/platform/mpfs_hal/common/mss_plic.h **** uint8_t PLIC_f2m_61_IRQHandler(void);
 239:/home/vinay/Desktop/softconsole_watershed/Water-shed/src/platform/mpfs_hal/common/mss_plic.h **** 
 240:/home/vinay/Desktop/softconsole_watershed/Water-shed/src/platform/mpfs_hal/common/mss_plic.h **** uint8_t PLIC_f2m_62_IRQHandler(void);
 241:/home/vinay/Desktop/softconsole_watershed/Water-shed/src/platform/mpfs_hal/common/mss_plic.h **** uint8_t PLIC_f2m_63_IRQHandler(void);
 242:/home/vinay/Desktop/softconsole_watershed/Water-shed/src/platform/mpfs_hal/common/mss_plic.h **** 
 243:/home/vinay/Desktop/softconsole_watershed/Water-shed/src/platform/mpfs_hal/common/mss_plic.h **** uint8_t PLIC_E51_bus_error_unit_IRQHandler(void);
 244:/home/vinay/Desktop/softconsole_watershed/Water-shed/src/platform/mpfs_hal/common/mss_plic.h **** uint8_t PLIC_U54_1_bus_error_unit_IRQHandler(void);
 245:/home/vinay/Desktop/softconsole_watershed/Water-shed/src/platform/mpfs_hal/common/mss_plic.h **** uint8_t PLIC_U54_2_bus_error_unit_IRQHandler(void);
 246:/home/vinay/Desktop/softconsole_watershed/Water-shed/src/platform/mpfs_hal/common/mss_plic.h **** uint8_t PLIC_U54_3_bus_error_unit_IRQHandler(void);
 247:/home/vinay/Desktop/softconsole_watershed/Water-shed/src/platform/mpfs_hal/common/mss_plic.h **** uint8_t PLIC_U54_4_bus_error_unit_IRQHandler(void);
 248:/home/vinay/Desktop/softconsole_watershed/Water-shed/src/platform/mpfs_hal/common/mss_plic.h **** 
 249:/home/vinay/Desktop/softconsole_watershed/Water-shed/src/platform/mpfs_hal/common/mss_plic.h **** /***************************************************************************//**
 250:/home/vinay/Desktop/softconsole_watershed/Water-shed/src/platform/mpfs_hal/common/mss_plic.h ****  * PLIC source Interrupt numbers:
 251:/home/vinay/Desktop/softconsole_watershed/Water-shed/src/platform/mpfs_hal/common/mss_plic.h ****  */
 252:/home/vinay/Desktop/softconsole_watershed/Water-shed/src/platform/mpfs_hal/common/mss_plic.h **** /* See section on PLIC Interrupt Sources in User Guide */
 253:/home/vinay/Desktop/softconsole_watershed/Water-shed/src/platform/mpfs_hal/common/mss_plic.h **** #define OFFSET_TO_MSS_GLOBAL_INTS 13U
 254:/home/vinay/Desktop/softconsole_watershed/Water-shed/src/platform/mpfs_hal/common/mss_plic.h **** typedef enum
 255:/home/vinay/Desktop/softconsole_watershed/Water-shed/src/platform/mpfs_hal/common/mss_plic.h **** {
 256:/home/vinay/Desktop/softconsole_watershed/Water-shed/src/platform/mpfs_hal/common/mss_plic.h ****     PLIC_INVALID_INT_OFFSET                 = 0,
 257:/home/vinay/Desktop/softconsole_watershed/Water-shed/src/platform/mpfs_hal/common/mss_plic.h ****     PLIC_L2_METADATA_CORR_INT_OFFSET        = 1,
 258:/home/vinay/Desktop/softconsole_watershed/Water-shed/src/platform/mpfs_hal/common/mss_plic.h ****     PLIC_L2_METADAT_UNCORR_INT_OFFSET       = 2,
 259:/home/vinay/Desktop/softconsole_watershed/Water-shed/src/platform/mpfs_hal/common/mss_plic.h ****     PLIC_L2_DATA_CORR_INT_OFFSET            = 3,
 260:/home/vinay/Desktop/softconsole_watershed/Water-shed/src/platform/mpfs_hal/common/mss_plic.h ****     PLIC_L2_DATA_UNCORR_INT_OFFSET          = 4,
 261:/home/vinay/Desktop/softconsole_watershed/Water-shed/src/platform/mpfs_hal/common/mss_plic.h ****     PLIC_DMA_CH0_DONE_INT_OFFSET            = 5,
 262:/home/vinay/Desktop/softconsole_watershed/Water-shed/src/platform/mpfs_hal/common/mss_plic.h ****     PLIC_DMA_CH0_ERR_INT_OFFSET             = 6,
 263:/home/vinay/Desktop/softconsole_watershed/Water-shed/src/platform/mpfs_hal/common/mss_plic.h ****     PLIC_DMA_CH1_DONE_INT_OFFSET            = 7,
 264:/home/vinay/Desktop/softconsole_watershed/Water-shed/src/platform/mpfs_hal/common/mss_plic.h ****     PLIC_DMA_CH1_ERR_INT_OFFSET             = 8,
 265:/home/vinay/Desktop/softconsole_watershed/Water-shed/src/platform/mpfs_hal/common/mss_plic.h ****     PLIC_DMA_CH2_DONE_INT_OFFSET            = 9,
 266:/home/vinay/Desktop/softconsole_watershed/Water-shed/src/platform/mpfs_hal/common/mss_plic.h ****     PLIC_DMA_CH2_ERR_INT_OFFSET             = 10,
 267:/home/vinay/Desktop/softconsole_watershed/Water-shed/src/platform/mpfs_hal/common/mss_plic.h ****     PLIC_DMA_CH3_DONE_INT_OFFSET            = 11,
 268:/home/vinay/Desktop/softconsole_watershed/Water-shed/src/platform/mpfs_hal/common/mss_plic.h ****     PLIC_DMA_CH3_ERR_INT_OFFSET             = 12,
 269:/home/vinay/Desktop/softconsole_watershed/Water-shed/src/platform/mpfs_hal/common/mss_plic.h ****     /* see PLIC_I2C Interrupt Multiplexing in the User Guide */
 270:/home/vinay/Desktop/softconsole_watershed/Water-shed/src/platform/mpfs_hal/common/mss_plic.h ****     PLIC_GPIO0_BIT0_or_GPIO2_BIT0_INT_OFFSET         = 0 + OFFSET_TO_MSS_GLOBAL_INTS,
 271:/home/vinay/Desktop/softconsole_watershed/Water-shed/src/platform/mpfs_hal/common/mss_plic.h ****     PLIC_GPIO0_BIT1_or_GPIO2_BIT1_INT_OFFSET         = 1 + OFFSET_TO_MSS_GLOBAL_INTS,
 272:/home/vinay/Desktop/softconsole_watershed/Water-shed/src/platform/mpfs_hal/common/mss_plic.h ****     PLIC_GPIO0_BIT2_or_GPIO2_BIT2_INT_OFFSET         = 2 + OFFSET_TO_MSS_GLOBAL_INTS,
 273:/home/vinay/Desktop/softconsole_watershed/Water-shed/src/platform/mpfs_hal/common/mss_plic.h ****     PLIC_GPIO0_BIT3_or_GPIO2_BIT3_INT_OFFSET         = 3 + OFFSET_TO_MSS_GLOBAL_INTS,
 274:/home/vinay/Desktop/softconsole_watershed/Water-shed/src/platform/mpfs_hal/common/mss_plic.h ****     PLIC_GPIO0_BIT4_or_GPIO2_BIT4_INT_OFFSET         = 4 + OFFSET_TO_MSS_GLOBAL_INTS,
 275:/home/vinay/Desktop/softconsole_watershed/Water-shed/src/platform/mpfs_hal/common/mss_plic.h ****     PLIC_GPIO0_BIT5_or_GPIO2_BIT5_INT_OFFSET         = 5 + OFFSET_TO_MSS_GLOBAL_INTS,
 276:/home/vinay/Desktop/softconsole_watershed/Water-shed/src/platform/mpfs_hal/common/mss_plic.h ****     PLIC_GPIO0_BIT6_or_GPIO2_BIT6_INT_OFFSET         = 6 + OFFSET_TO_MSS_GLOBAL_INTS,
 277:/home/vinay/Desktop/softconsole_watershed/Water-shed/src/platform/mpfs_hal/common/mss_plic.h ****     PLIC_GPIO0_BIT7_or_GPIO2_BIT7_INT_OFFSET         = 7 + OFFSET_TO_MSS_GLOBAL_INTS,
 278:/home/vinay/Desktop/softconsole_watershed/Water-shed/src/platform/mpfs_hal/common/mss_plic.h ****     PLIC_GPIO0_BIT8_or_GPIO2_BIT8_INT_OFFSET         = 8 + OFFSET_TO_MSS_GLOBAL_INTS,
 279:/home/vinay/Desktop/softconsole_watershed/Water-shed/src/platform/mpfs_hal/common/mss_plic.h ****     PLIC_GPIO0_BIT9_or_GPIO2_BIT9_INT_OFFSET         = 9 + OFFSET_TO_MSS_GLOBAL_INTS,
 280:/home/vinay/Desktop/softconsole_watershed/Water-shed/src/platform/mpfs_hal/common/mss_plic.h ****     PLIC_GPIO0_BIT10_or_GPIO2_BIT10_INT_OFFSET      = 10 + OFFSET_TO_MSS_GLOBAL_INTS,
 281:/home/vinay/Desktop/softconsole_watershed/Water-shed/src/platform/mpfs_hal/common/mss_plic.h ****     PLIC_GPIO0_BIT11_or_GPIO2_BIT11_INT_OFFSET      = 11 + OFFSET_TO_MSS_GLOBAL_INTS,
 282:/home/vinay/Desktop/softconsole_watershed/Water-shed/src/platform/mpfs_hal/common/mss_plic.h ****     PLIC_GPIO0_BIT12_or_GPIO2_BIT12_INT_OFFSET      = 12 + OFFSET_TO_MSS_GLOBAL_INTS,
 283:/home/vinay/Desktop/softconsole_watershed/Water-shed/src/platform/mpfs_hal/common/mss_plic.h **** 
 284:/home/vinay/Desktop/softconsole_watershed/Water-shed/src/platform/mpfs_hal/common/mss_plic.h ****     PLIC_GPIO0_BIT13_or_GPIO2_BIT13_INT_OFFSET      = 13 + OFFSET_TO_MSS_GLOBAL_INTS,
 285:/home/vinay/Desktop/softconsole_watershed/Water-shed/src/platform/mpfs_hal/common/mss_plic.h ****     PLIC_GPIO1_BIT0_or_GPIO2_BIT14_INT_OFFSET       = 14 + OFFSET_TO_MSS_GLOBAL_INTS,
 286:/home/vinay/Desktop/softconsole_watershed/Water-shed/src/platform/mpfs_hal/common/mss_plic.h ****     PLIC_GPIO1_BIT1_or_GPIO2_BIT15_INT_OFFSET       = 15 + OFFSET_TO_MSS_GLOBAL_INTS,
 287:/home/vinay/Desktop/softconsole_watershed/Water-shed/src/platform/mpfs_hal/common/mss_plic.h ****     PLIC_GPIO1_BIT2_or_GPIO2_BIT16_INT_OFFSET       = 16 + OFFSET_TO_MSS_GLOBAL_INTS,
 288:/home/vinay/Desktop/softconsole_watershed/Water-shed/src/platform/mpfs_hal/common/mss_plic.h ****     PLIC_GPIO1_BIT3_or_GPIO2_BIT17_INT_OFFSET       = 17 + OFFSET_TO_MSS_GLOBAL_INTS,
 289:/home/vinay/Desktop/softconsole_watershed/Water-shed/src/platform/mpfs_hal/common/mss_plic.h ****     PLIC_GPIO1_BIT4_or_GPIO2_BIT18_INT_OFFSET       = 18 + OFFSET_TO_MSS_GLOBAL_INTS,
 290:/home/vinay/Desktop/softconsole_watershed/Water-shed/src/platform/mpfs_hal/common/mss_plic.h ****     PLIC_GPIO1_BIT5_or_GPIO2_BIT19_INT_OFFSET       = 19 + OFFSET_TO_MSS_GLOBAL_INTS,
 291:/home/vinay/Desktop/softconsole_watershed/Water-shed/src/platform/mpfs_hal/common/mss_plic.h ****     PLIC_GPIO1_BIT6_or_GPIO2_BIT20_INT_OFFSET       = 20 + OFFSET_TO_MSS_GLOBAL_INTS,
 292:/home/vinay/Desktop/softconsole_watershed/Water-shed/src/platform/mpfs_hal/common/mss_plic.h ****     PLIC_GPIO1_BIT7_or_GPIO2_BIT21_INT_OFFSET       = 21 + OFFSET_TO_MSS_GLOBAL_INTS,
 293:/home/vinay/Desktop/softconsole_watershed/Water-shed/src/platform/mpfs_hal/common/mss_plic.h ****     PLIC_GPIO1_BIT8_or_GPIO2_BIT22_INT_OFFSET       = 22 + OFFSET_TO_MSS_GLOBAL_INTS,
 294:/home/vinay/Desktop/softconsole_watershed/Water-shed/src/platform/mpfs_hal/common/mss_plic.h ****     PLIC_GPIO1_BIT9_or_GPIO2_BIT23_INT_OFFSET       = 23 + OFFSET_TO_MSS_GLOBAL_INTS,
 295:/home/vinay/Desktop/softconsole_watershed/Water-shed/src/platform/mpfs_hal/common/mss_plic.h ****     PLIC_GPIO1_BIT10_or_GPIO2_BIT24_INT_OFFSET      = 24 + OFFSET_TO_MSS_GLOBAL_INTS,
 296:/home/vinay/Desktop/softconsole_watershed/Water-shed/src/platform/mpfs_hal/common/mss_plic.h ****     PLIC_GPIO1_BIT11_or_GPIO2_BIT25_INT_OFFSET      = 25 + OFFSET_TO_MSS_GLOBAL_INTS,
 297:/home/vinay/Desktop/softconsole_watershed/Water-shed/src/platform/mpfs_hal/common/mss_plic.h ****     PLIC_GPIO1_BIT12_or_GPIO2_BIT26_INT_OFFSET      = 26 + OFFSET_TO_MSS_GLOBAL_INTS,
 298:/home/vinay/Desktop/softconsole_watershed/Water-shed/src/platform/mpfs_hal/common/mss_plic.h ****     PLIC_GPIO1_BIT13_or_GPIO2_BIT27_INT_OFFSET      = 27 + OFFSET_TO_MSS_GLOBAL_INTS,
 299:/home/vinay/Desktop/softconsole_watershed/Water-shed/src/platform/mpfs_hal/common/mss_plic.h **** 
 300:/home/vinay/Desktop/softconsole_watershed/Water-shed/src/platform/mpfs_hal/common/mss_plic.h ****     PLIC_GPIO1_BIT14_or_GPIO2_BIT28_INT_OFFSET       = 28 + OFFSET_TO_MSS_GLOBAL_INTS,
 301:/home/vinay/Desktop/softconsole_watershed/Water-shed/src/platform/mpfs_hal/common/mss_plic.h ****     PLIC_GPIO1_BIT15_or_GPIO2_BIT29_INT_OFFSET       = 29 + OFFSET_TO_MSS_GLOBAL_INTS,
 302:/home/vinay/Desktop/softconsole_watershed/Water-shed/src/platform/mpfs_hal/common/mss_plic.h ****     PLIC_GPIO1_BIT16_or_GPIO2_BIT30_INT_OFFSET       = 30 + OFFSET_TO_MSS_GLOBAL_INTS,
 303:/home/vinay/Desktop/softconsole_watershed/Water-shed/src/platform/mpfs_hal/common/mss_plic.h ****     PLIC_GPIO1_BIT17_or_GPIO2_BIT31_INT_OFFSET       = 31 + OFFSET_TO_MSS_GLOBAL_INTS,
 304:/home/vinay/Desktop/softconsole_watershed/Water-shed/src/platform/mpfs_hal/common/mss_plic.h **** 
 305:/home/vinay/Desktop/softconsole_watershed/Water-shed/src/platform/mpfs_hal/common/mss_plic.h ****     PLIC_GPIO1_BIT18_INT_OFFSET           = 32 + OFFSET_TO_MSS_GLOBAL_INTS,
 306:/home/vinay/Desktop/softconsole_watershed/Water-shed/src/platform/mpfs_hal/common/mss_plic.h ****     PLIC_GPIO1_BIT19_INT_OFFSET           = 33 + OFFSET_TO_MSS_GLOBAL_INTS,
 307:/home/vinay/Desktop/softconsole_watershed/Water-shed/src/platform/mpfs_hal/common/mss_plic.h ****     PLIC_GPIO1_BIT20_INT_OFFSET           = 34 + OFFSET_TO_MSS_GLOBAL_INTS,
 308:/home/vinay/Desktop/softconsole_watershed/Water-shed/src/platform/mpfs_hal/common/mss_plic.h ****     PLIC_GPIO1_BIT21_INT_OFFSET           = 35 + OFFSET_TO_MSS_GLOBAL_INTS,
 309:/home/vinay/Desktop/softconsole_watershed/Water-shed/src/platform/mpfs_hal/common/mss_plic.h ****     PLIC_GPIO1_BIT22_INT_OFFSET           = 36 + OFFSET_TO_MSS_GLOBAL_INTS,
 310:/home/vinay/Desktop/softconsole_watershed/Water-shed/src/platform/mpfs_hal/common/mss_plic.h ****     PLIC_GPIO1_BIT23_INT_OFFSET           = 37 + OFFSET_TO_MSS_GLOBAL_INTS,
 311:/home/vinay/Desktop/softconsole_watershed/Water-shed/src/platform/mpfs_hal/common/mss_plic.h **** 
 312:/home/vinay/Desktop/softconsole_watershed/Water-shed/src/platform/mpfs_hal/common/mss_plic.h ****     PLIC_GPIO0_NON_DIRECT_INT_OFFSET         = 38 + OFFSET_TO_MSS_GLOBAL_INTS,
 313:/home/vinay/Desktop/softconsole_watershed/Water-shed/src/platform/mpfs_hal/common/mss_plic.h ****     PLIC_GPIO1_NON_DIRECT_INT_OFFSET         = 39 + OFFSET_TO_MSS_GLOBAL_INTS,
 314:/home/vinay/Desktop/softconsole_watershed/Water-shed/src/platform/mpfs_hal/common/mss_plic.h ****     PLIC_GPIO2_NON_DIRECT_INT_OFFSET         = 40 + OFFSET_TO_MSS_GLOBAL_INTS,
 315:/home/vinay/Desktop/softconsole_watershed/Water-shed/src/platform/mpfs_hal/common/mss_plic.h **** 
 316:/home/vinay/Desktop/softconsole_watershed/Water-shed/src/platform/mpfs_hal/common/mss_plic.h ****     PLIC_SPI0_INT_OFFSET                    = 41 + OFFSET_TO_MSS_GLOBAL_INTS,
 317:/home/vinay/Desktop/softconsole_watershed/Water-shed/src/platform/mpfs_hal/common/mss_plic.h ****     PLIC_SPI1_INT_OFFSET                    = 42 + OFFSET_TO_MSS_GLOBAL_INTS,
 318:/home/vinay/Desktop/softconsole_watershed/Water-shed/src/platform/mpfs_hal/common/mss_plic.h ****     PLIC_CAN0_INT_OFFSET                    = 43 + OFFSET_TO_MSS_GLOBAL_INTS,
 319:/home/vinay/Desktop/softconsole_watershed/Water-shed/src/platform/mpfs_hal/common/mss_plic.h ****     PLIC_CAN1_INT_OFFSET                    = 44 + OFFSET_TO_MSS_GLOBAL_INTS,
 320:/home/vinay/Desktop/softconsole_watershed/Water-shed/src/platform/mpfs_hal/common/mss_plic.h ****     PLIC_I2C0_MAIN_INT_OFFSET               = 45 + OFFSET_TO_MSS_GLOBAL_INTS,
 321:/home/vinay/Desktop/softconsole_watershed/Water-shed/src/platform/mpfs_hal/common/mss_plic.h ****     PLIC_I2C0_ALERT_INT_OFFSET              = 46 + OFFSET_TO_MSS_GLOBAL_INTS,
 322:/home/vinay/Desktop/softconsole_watershed/Water-shed/src/platform/mpfs_hal/common/mss_plic.h ****     PLIC_I2C0_SUS_INT_OFFSET                = 47 + OFFSET_TO_MSS_GLOBAL_INTS,
 323:/home/vinay/Desktop/softconsole_watershed/Water-shed/src/platform/mpfs_hal/common/mss_plic.h ****     PLIC_I2C1_MAIN_INT_OFFSET               = 48 + OFFSET_TO_MSS_GLOBAL_INTS,
 324:/home/vinay/Desktop/softconsole_watershed/Water-shed/src/platform/mpfs_hal/common/mss_plic.h ****     PLIC_I2C1_ALERT_INT_OFFSET              = 49 + OFFSET_TO_MSS_GLOBAL_INTS,
 325:/home/vinay/Desktop/softconsole_watershed/Water-shed/src/platform/mpfs_hal/common/mss_plic.h ****     PLIC_I2C1_SUS_INT_OFFSET                = 50 + OFFSET_TO_MSS_GLOBAL_INTS,
 326:/home/vinay/Desktop/softconsole_watershed/Water-shed/src/platform/mpfs_hal/common/mss_plic.h ****     PLIC_MAC0_INT_INT_OFFSET                = 51 + OFFSET_TO_MSS_GLOBAL_INTS,
 327:/home/vinay/Desktop/softconsole_watershed/Water-shed/src/platform/mpfs_hal/common/mss_plic.h ****     PLIC_MAC0_QUEUE1_INT_OFFSET             = 52 + OFFSET_TO_MSS_GLOBAL_INTS,
 328:/home/vinay/Desktop/softconsole_watershed/Water-shed/src/platform/mpfs_hal/common/mss_plic.h ****     PLIC_MAC0_QUEUE2_INT_OFFSET             = 53 + OFFSET_TO_MSS_GLOBAL_INTS,
 329:/home/vinay/Desktop/softconsole_watershed/Water-shed/src/platform/mpfs_hal/common/mss_plic.h ****     PLIC_MAC0_QUEUE3_INT_OFFSET             = 54 + OFFSET_TO_MSS_GLOBAL_INTS,
 330:/home/vinay/Desktop/softconsole_watershed/Water-shed/src/platform/mpfs_hal/common/mss_plic.h ****     PLIC_MAC0_EMAC_INT_OFFSET               = 55 + OFFSET_TO_MSS_GLOBAL_INTS,
 331:/home/vinay/Desktop/softconsole_watershed/Water-shed/src/platform/mpfs_hal/common/mss_plic.h ****     PLIC_MAC0_MMSL_INT_OFFSET               = 56 + OFFSET_TO_MSS_GLOBAL_INTS,
 332:/home/vinay/Desktop/softconsole_watershed/Water-shed/src/platform/mpfs_hal/common/mss_plic.h ****     PLIC_MAC1_INT_INT_OFFSET                = 57 + OFFSET_TO_MSS_GLOBAL_INTS,
 333:/home/vinay/Desktop/softconsole_watershed/Water-shed/src/platform/mpfs_hal/common/mss_plic.h ****     PLIC_MAC1_QUEUE1_INT_OFFSET             = 58 + OFFSET_TO_MSS_GLOBAL_INTS,
 334:/home/vinay/Desktop/softconsole_watershed/Water-shed/src/platform/mpfs_hal/common/mss_plic.h ****     PLIC_MAC1_QUEUE2_INT_OFFSET             = 59 + OFFSET_TO_MSS_GLOBAL_INTS,
 335:/home/vinay/Desktop/softconsole_watershed/Water-shed/src/platform/mpfs_hal/common/mss_plic.h ****     PLIC_MAC1_QUEUE3_INT_OFFSET             = 60 + OFFSET_TO_MSS_GLOBAL_INTS,
 336:/home/vinay/Desktop/softconsole_watershed/Water-shed/src/platform/mpfs_hal/common/mss_plic.h ****     PLIC_MAC1_EMAC_INT_OFFSET               = 61 + OFFSET_TO_MSS_GLOBAL_INTS,
 337:/home/vinay/Desktop/softconsole_watershed/Water-shed/src/platform/mpfs_hal/common/mss_plic.h ****     PLIC_MAC1_MMSL_INT_OFFSET               = 62 + OFFSET_TO_MSS_GLOBAL_INTS,
 338:/home/vinay/Desktop/softconsole_watershed/Water-shed/src/platform/mpfs_hal/common/mss_plic.h ****     PLIC_DDRC_TRAIN_INT_OFFSET              = 63 + OFFSET_TO_MSS_GLOBAL_INTS,
 339:/home/vinay/Desktop/softconsole_watershed/Water-shed/src/platform/mpfs_hal/common/mss_plic.h ****     PLIC_SCB_INTERRUPT_INT_OFFSET           = 64 + OFFSET_TO_MSS_GLOBAL_INTS,
 340:/home/vinay/Desktop/softconsole_watershed/Water-shed/src/platform/mpfs_hal/common/mss_plic.h ****     PLIC_ECC_ERROR_INT_OFFSET               = 65 + OFFSET_TO_MSS_GLOBAL_INTS,
 341:/home/vinay/Desktop/softconsole_watershed/Water-shed/src/platform/mpfs_hal/common/mss_plic.h ****     PLIC_ECC_CORRECT_INT_OFFSET             = 66 + OFFSET_TO_MSS_GLOBAL_INTS,
 342:/home/vinay/Desktop/softconsole_watershed/Water-shed/src/platform/mpfs_hal/common/mss_plic.h ****     PLIC_RTC_WAKEUP_INT_OFFSET              = 67 + OFFSET_TO_MSS_GLOBAL_INTS,
 343:/home/vinay/Desktop/softconsole_watershed/Water-shed/src/platform/mpfs_hal/common/mss_plic.h ****     PLIC_RTC_MATCH_INT_OFFSET               = 68 + OFFSET_TO_MSS_GLOBAL_INTS,
 344:/home/vinay/Desktop/softconsole_watershed/Water-shed/src/platform/mpfs_hal/common/mss_plic.h ****     PLIC_TIMER1_INT_OFFSET                  = 69 + OFFSET_TO_MSS_GLOBAL_INTS,
 345:/home/vinay/Desktop/softconsole_watershed/Water-shed/src/platform/mpfs_hal/common/mss_plic.h ****     PLIC_TIMER2_INT_OFFSET                  = 70 + OFFSET_TO_MSS_GLOBAL_INTS,
 346:/home/vinay/Desktop/softconsole_watershed/Water-shed/src/platform/mpfs_hal/common/mss_plic.h ****     PLIC_ENVM_INT_OFFSET                    = 71 + OFFSET_TO_MSS_GLOBAL_INTS,
 347:/home/vinay/Desktop/softconsole_watershed/Water-shed/src/platform/mpfs_hal/common/mss_plic.h ****     PLIC_QSPI_INT_OFFSET                    = 72 + OFFSET_TO_MSS_GLOBAL_INTS,
 348:/home/vinay/Desktop/softconsole_watershed/Water-shed/src/platform/mpfs_hal/common/mss_plic.h ****     PLIC_USB_DMA_INT_OFFSET                 = 73 + OFFSET_TO_MSS_GLOBAL_INTS,
 349:/home/vinay/Desktop/softconsole_watershed/Water-shed/src/platform/mpfs_hal/common/mss_plic.h ****     PLIC_USB_MC_INT_OFFSET                  = 74 + OFFSET_TO_MSS_GLOBAL_INTS,
 350:/home/vinay/Desktop/softconsole_watershed/Water-shed/src/platform/mpfs_hal/common/mss_plic.h ****     PLIC_MMC_main_INT_OFFSET                = 75 + OFFSET_TO_MSS_GLOBAL_INTS,
 351:/home/vinay/Desktop/softconsole_watershed/Water-shed/src/platform/mpfs_hal/common/mss_plic.h ****     PLIC_MMC_wakeup_INT_OFFSET              = 76 + OFFSET_TO_MSS_GLOBAL_INTS,
 352:/home/vinay/Desktop/softconsole_watershed/Water-shed/src/platform/mpfs_hal/common/mss_plic.h ****     PLIC_MMUART0_INT_OFFSET                 = 77 + OFFSET_TO_MSS_GLOBAL_INTS,
 353:/home/vinay/Desktop/softconsole_watershed/Water-shed/src/platform/mpfs_hal/common/mss_plic.h ****     PLIC_MMUART1_INT_OFFSET                 = 78 + OFFSET_TO_MSS_GLOBAL_INTS,
 354:/home/vinay/Desktop/softconsole_watershed/Water-shed/src/platform/mpfs_hal/common/mss_plic.h ****     PLIC_MMUART2_INT_OFFSET                 = 79 + OFFSET_TO_MSS_GLOBAL_INTS,
 355:/home/vinay/Desktop/softconsole_watershed/Water-shed/src/platform/mpfs_hal/common/mss_plic.h ****     PLIC_MMUART3_INT_OFFSET                 = 80 + OFFSET_TO_MSS_GLOBAL_INTS,
 356:/home/vinay/Desktop/softconsole_watershed/Water-shed/src/platform/mpfs_hal/common/mss_plic.h ****     PLIC_MMUART4_INT_OFFSET                 = 81 + OFFSET_TO_MSS_GLOBAL_INTS,
 357:/home/vinay/Desktop/softconsole_watershed/Water-shed/src/platform/mpfs_hal/common/mss_plic.h **** 
 358:/home/vinay/Desktop/softconsole_watershed/Water-shed/src/platform/mpfs_hal/common/mss_plic.h ****     G5C_DEVRST_INT_OFFSET              = 82 + OFFSET_TO_MSS_GLOBAL_INTS,
 359:/home/vinay/Desktop/softconsole_watershed/Water-shed/src/platform/mpfs_hal/common/mss_plic.h ****     g5c_MESSAGE_INT_OFFSET             = 83 + OFFSET_TO_MSS_GLOBAL_INTS,
 360:/home/vinay/Desktop/softconsole_watershed/Water-shed/src/platform/mpfs_hal/common/mss_plic.h ****     USOC_VC_INTERRUPT_INT_OFFSET       = 84 + OFFSET_TO_MSS_GLOBAL_INTS,
 361:/home/vinay/Desktop/softconsole_watershed/Water-shed/src/platform/mpfs_hal/common/mss_plic.h ****     USOC_SMB_INTERRUPT_INT_OFFSET      = 85 + OFFSET_TO_MSS_GLOBAL_INTS,
 362:/home/vinay/Desktop/softconsole_watershed/Water-shed/src/platform/mpfs_hal/common/mss_plic.h ****     /* contains multiple interrupts- */
 363:/home/vinay/Desktop/softconsole_watershed/Water-shed/src/platform/mpfs_hal/common/mss_plic.h ****     E51_0_MAINTENACE_INT_OFFSET        = 86 + OFFSET_TO_MSS_GLOBAL_INTS,
 364:/home/vinay/Desktop/softconsole_watershed/Water-shed/src/platform/mpfs_hal/common/mss_plic.h **** 
 365:/home/vinay/Desktop/softconsole_watershed/Water-shed/src/platform/mpfs_hal/common/mss_plic.h ****     PLIC_WDOG0_MRVP_INT_OFFSET              = 87 + OFFSET_TO_MSS_GLOBAL_INTS,
 366:/home/vinay/Desktop/softconsole_watershed/Water-shed/src/platform/mpfs_hal/common/mss_plic.h ****     PLIC_WDOG1_MRVP_INT_OFFSET              = 88 + OFFSET_TO_MSS_GLOBAL_INTS,
 367:/home/vinay/Desktop/softconsole_watershed/Water-shed/src/platform/mpfs_hal/common/mss_plic.h ****     PLIC_WDOG2_MRVP_INT_OFFSET              = 89 + OFFSET_TO_MSS_GLOBAL_INTS,
 368:/home/vinay/Desktop/softconsole_watershed/Water-shed/src/platform/mpfs_hal/common/mss_plic.h ****     PLIC_WDOG3_MRVP_INT_OFFSET              = 90 + OFFSET_TO_MSS_GLOBAL_INTS,
 369:/home/vinay/Desktop/softconsole_watershed/Water-shed/src/platform/mpfs_hal/common/mss_plic.h ****     PLIC_WDOG4_MRVP_INT_OFFSET              = 91 + OFFSET_TO_MSS_GLOBAL_INTS,
 370:/home/vinay/Desktop/softconsole_watershed/Water-shed/src/platform/mpfs_hal/common/mss_plic.h ****     PLIC_WDOG0_TOUT_INT_OFFSET              = 92 + OFFSET_TO_MSS_GLOBAL_INTS,
 371:/home/vinay/Desktop/softconsole_watershed/Water-shed/src/platform/mpfs_hal/common/mss_plic.h ****     PLIC_WDOG1_TOUT_INT_OFFSET              = 93 + OFFSET_TO_MSS_GLOBAL_INTS,
 372:/home/vinay/Desktop/softconsole_watershed/Water-shed/src/platform/mpfs_hal/common/mss_plic.h ****     PLIC_WDOG2_TOUT_INT_OFFSET              = 94 + OFFSET_TO_MSS_GLOBAL_INTS,
 373:/home/vinay/Desktop/softconsole_watershed/Water-shed/src/platform/mpfs_hal/common/mss_plic.h ****     PLIC_WDOG3_TOUT_INT_OFFSET              = 95 + OFFSET_TO_MSS_GLOBAL_INTS,
 374:/home/vinay/Desktop/softconsole_watershed/Water-shed/src/platform/mpfs_hal/common/mss_plic.h ****     PLIC_WDOG4_TOUT_INT_OFFSET              = 96 + OFFSET_TO_MSS_GLOBAL_INTS,
 375:/home/vinay/Desktop/softconsole_watershed/Water-shed/src/platform/mpfs_hal/common/mss_plic.h ****     G5C_MSS_SPI_INT_OFFSET             = 97 + OFFSET_TO_MSS_GLOBAL_INTS,
 376:/home/vinay/Desktop/softconsole_watershed/Water-shed/src/platform/mpfs_hal/common/mss_plic.h ****     VOLT_TEMP_ALARM_INT_OFFSET         = 98 + OFFSET_TO_MSS_GLOBAL_INTS,
 377:/home/vinay/Desktop/softconsole_watershed/Water-shed/src/platform/mpfs_hal/common/mss_plic.h ****     ATHENA_COMPLETE_INT_OFFSET         = 99 + OFFSET_TO_MSS_GLOBAL_INTS,
 378:/home/vinay/Desktop/softconsole_watershed/Water-shed/src/platform/mpfs_hal/common/mss_plic.h ****     ATHENA_ALARM_INT_OFFSET            = 100 + OFFSET_TO_MSS_GLOBAL_INTS,
 379:/home/vinay/Desktop/softconsole_watershed/Water-shed/src/platform/mpfs_hal/common/mss_plic.h ****     ATHENA_BUS_ERROR_INT_OFFSET        = 101 + OFFSET_TO_MSS_GLOBAL_INTS,
 380:/home/vinay/Desktop/softconsole_watershed/Water-shed/src/platform/mpfs_hal/common/mss_plic.h ****     USOC_AXIC_US_INT_OFFSET            = 102 + OFFSET_TO_MSS_GLOBAL_INTS,
 381:/home/vinay/Desktop/softconsole_watershed/Water-shed/src/platform/mpfs_hal/common/mss_plic.h ****     USOC_AXIC_DS_INT_OFFSET            = 103 + OFFSET_TO_MSS_GLOBAL_INTS,
 382:/home/vinay/Desktop/softconsole_watershed/Water-shed/src/platform/mpfs_hal/common/mss_plic.h **** 
 383:/home/vinay/Desktop/softconsole_watershed/Water-shed/src/platform/mpfs_hal/common/mss_plic.h ****     PLIC_F2M_0_INT_OFFSET            = 105 + OFFSET_TO_MSS_GLOBAL_INTS,
 384:/home/vinay/Desktop/softconsole_watershed/Water-shed/src/platform/mpfs_hal/common/mss_plic.h ****     PLIC_F2M_1_INT_OFFSET            = 106 + OFFSET_TO_MSS_GLOBAL_INTS,
 385:/home/vinay/Desktop/softconsole_watershed/Water-shed/src/platform/mpfs_hal/common/mss_plic.h ****     PLIC_F2M_2_INT_OFFSET            = 107 + OFFSET_TO_MSS_GLOBAL_INTS,
 386:/home/vinay/Desktop/softconsole_watershed/Water-shed/src/platform/mpfs_hal/common/mss_plic.h ****     PLIC_F2M_3_INT_OFFSET            = 108 + OFFSET_TO_MSS_GLOBAL_INTS,
 387:/home/vinay/Desktop/softconsole_watershed/Water-shed/src/platform/mpfs_hal/common/mss_plic.h ****     PLIC_F2M_4_INT_OFFSET            = 109 + OFFSET_TO_MSS_GLOBAL_INTS,
 388:/home/vinay/Desktop/softconsole_watershed/Water-shed/src/platform/mpfs_hal/common/mss_plic.h ****     PLIC_F2M_5_INT_OFFSET            = 110 + OFFSET_TO_MSS_GLOBAL_INTS,
 389:/home/vinay/Desktop/softconsole_watershed/Water-shed/src/platform/mpfs_hal/common/mss_plic.h ****     PLIC_F2M_6_INT_OFFSET            = 111 + OFFSET_TO_MSS_GLOBAL_INTS,
 390:/home/vinay/Desktop/softconsole_watershed/Water-shed/src/platform/mpfs_hal/common/mss_plic.h ****     PLIC_F2M_7_INT_OFFSET            = 112 + OFFSET_TO_MSS_GLOBAL_INTS,
 391:/home/vinay/Desktop/softconsole_watershed/Water-shed/src/platform/mpfs_hal/common/mss_plic.h ****     PLIC_F2M_8_INT_OFFSET            = 113 + OFFSET_TO_MSS_GLOBAL_INTS,
 392:/home/vinay/Desktop/softconsole_watershed/Water-shed/src/platform/mpfs_hal/common/mss_plic.h ****     PLIC_F2M_9_INT_OFFSET            = 114 + OFFSET_TO_MSS_GLOBAL_INTS,
 393:/home/vinay/Desktop/softconsole_watershed/Water-shed/src/platform/mpfs_hal/common/mss_plic.h **** 
 394:/home/vinay/Desktop/softconsole_watershed/Water-shed/src/platform/mpfs_hal/common/mss_plic.h ****     PLIC_F2M_10_INT_OFFSET           = 115 + OFFSET_TO_MSS_GLOBAL_INTS,
 395:/home/vinay/Desktop/softconsole_watershed/Water-shed/src/platform/mpfs_hal/common/mss_plic.h ****     PLIC_F2M_11_INT_OFFSET           = 116 + OFFSET_TO_MSS_GLOBAL_INTS,
 396:/home/vinay/Desktop/softconsole_watershed/Water-shed/src/platform/mpfs_hal/common/mss_plic.h ****     PLIC_F2M_12_INT_OFFSET           = 117 + OFFSET_TO_MSS_GLOBAL_INTS,
 397:/home/vinay/Desktop/softconsole_watershed/Water-shed/src/platform/mpfs_hal/common/mss_plic.h ****     PLIC_F2M_13_INT_OFFSET           = 118 + OFFSET_TO_MSS_GLOBAL_INTS,
 398:/home/vinay/Desktop/softconsole_watershed/Water-shed/src/platform/mpfs_hal/common/mss_plic.h ****     PLIC_F2M_14_INT_OFFSET           = 119 + OFFSET_TO_MSS_GLOBAL_INTS,
 399:/home/vinay/Desktop/softconsole_watershed/Water-shed/src/platform/mpfs_hal/common/mss_plic.h ****     PLIC_F2M_15_INT_OFFSET           = 120 + OFFSET_TO_MSS_GLOBAL_INTS,
 400:/home/vinay/Desktop/softconsole_watershed/Water-shed/src/platform/mpfs_hal/common/mss_plic.h ****     PLIC_F2M_16_INT_OFFSET           = 121 + OFFSET_TO_MSS_GLOBAL_INTS,
 401:/home/vinay/Desktop/softconsole_watershed/Water-shed/src/platform/mpfs_hal/common/mss_plic.h ****     PLIC_F2M_17_INT_OFFSET           = 122 + OFFSET_TO_MSS_GLOBAL_INTS,
 402:/home/vinay/Desktop/softconsole_watershed/Water-shed/src/platform/mpfs_hal/common/mss_plic.h ****     PLIC_F2M_18_INT_OFFSET           = 123 + OFFSET_TO_MSS_GLOBAL_INTS,
 403:/home/vinay/Desktop/softconsole_watershed/Water-shed/src/platform/mpfs_hal/common/mss_plic.h ****     PLIC_F2M_19_INT_OFFSET           = 124 + OFFSET_TO_MSS_GLOBAL_INTS,
 404:/home/vinay/Desktop/softconsole_watershed/Water-shed/src/platform/mpfs_hal/common/mss_plic.h **** 
 405:/home/vinay/Desktop/softconsole_watershed/Water-shed/src/platform/mpfs_hal/common/mss_plic.h ****     PLIC_F2M_20_INT_OFFSET           = 125 + OFFSET_TO_MSS_GLOBAL_INTS,
 406:/home/vinay/Desktop/softconsole_watershed/Water-shed/src/platform/mpfs_hal/common/mss_plic.h ****     PLIC_F2M_21_INT_OFFSET           = 126 + OFFSET_TO_MSS_GLOBAL_INTS,
 407:/home/vinay/Desktop/softconsole_watershed/Water-shed/src/platform/mpfs_hal/common/mss_plic.h ****     PLIC_F2M_22_INT_OFFSET           = 127 + OFFSET_TO_MSS_GLOBAL_INTS,
 408:/home/vinay/Desktop/softconsole_watershed/Water-shed/src/platform/mpfs_hal/common/mss_plic.h ****     PLIC_F2M_23_INT_OFFSET           = 128 + OFFSET_TO_MSS_GLOBAL_INTS,
 409:/home/vinay/Desktop/softconsole_watershed/Water-shed/src/platform/mpfs_hal/common/mss_plic.h ****     PLIC_F2M_24_INT_OFFSET           = 129 + OFFSET_TO_MSS_GLOBAL_INTS,
 410:/home/vinay/Desktop/softconsole_watershed/Water-shed/src/platform/mpfs_hal/common/mss_plic.h ****     PLIC_F2M_25_INT_OFFSET           = 130 + OFFSET_TO_MSS_GLOBAL_INTS,
 411:/home/vinay/Desktop/softconsole_watershed/Water-shed/src/platform/mpfs_hal/common/mss_plic.h ****     PLIC_F2M_26_INT_OFFSET           = 131 + OFFSET_TO_MSS_GLOBAL_INTS,
 412:/home/vinay/Desktop/softconsole_watershed/Water-shed/src/platform/mpfs_hal/common/mss_plic.h ****     PLIC_F2M_27_INT_OFFSET           = 132 + OFFSET_TO_MSS_GLOBAL_INTS,
 413:/home/vinay/Desktop/softconsole_watershed/Water-shed/src/platform/mpfs_hal/common/mss_plic.h ****     PLIC_F2M_28_INT_OFFSET           = 133 + OFFSET_TO_MSS_GLOBAL_INTS,
 414:/home/vinay/Desktop/softconsole_watershed/Water-shed/src/platform/mpfs_hal/common/mss_plic.h ****     PLIC_F2M_29_INT_OFFSET           = 134 + OFFSET_TO_MSS_GLOBAL_INTS,
 415:/home/vinay/Desktop/softconsole_watershed/Water-shed/src/platform/mpfs_hal/common/mss_plic.h **** 
 416:/home/vinay/Desktop/softconsole_watershed/Water-shed/src/platform/mpfs_hal/common/mss_plic.h ****     PLIC_F2M_30_INT_OFFSET           = 135 + OFFSET_TO_MSS_GLOBAL_INTS,
 417:/home/vinay/Desktop/softconsole_watershed/Water-shed/src/platform/mpfs_hal/common/mss_plic.h ****     PLIC_F2M_31_INT_OFFSET           = 136 + OFFSET_TO_MSS_GLOBAL_INTS,
 418:/home/vinay/Desktop/softconsole_watershed/Water-shed/src/platform/mpfs_hal/common/mss_plic.h **** 
 419:/home/vinay/Desktop/softconsole_watershed/Water-shed/src/platform/mpfs_hal/common/mss_plic.h ****     PLIC_F2M_32_INT_OFFSET           = 137 + OFFSET_TO_MSS_GLOBAL_INTS,
 420:/home/vinay/Desktop/softconsole_watershed/Water-shed/src/platform/mpfs_hal/common/mss_plic.h ****     PLIC_F2M_33_INT_OFFSET           = 138 + OFFSET_TO_MSS_GLOBAL_INTS,
 421:/home/vinay/Desktop/softconsole_watershed/Water-shed/src/platform/mpfs_hal/common/mss_plic.h ****     PLIC_F2M_34_INT_OFFSET           = 139 + OFFSET_TO_MSS_GLOBAL_INTS,
 422:/home/vinay/Desktop/softconsole_watershed/Water-shed/src/platform/mpfs_hal/common/mss_plic.h ****     PLIC_F2M_35_INT_OFFSET           = 140 + OFFSET_TO_MSS_GLOBAL_INTS,
 423:/home/vinay/Desktop/softconsole_watershed/Water-shed/src/platform/mpfs_hal/common/mss_plic.h ****     PLIC_F2M_36_INT_OFFSET           = 141 + OFFSET_TO_MSS_GLOBAL_INTS,
 424:/home/vinay/Desktop/softconsole_watershed/Water-shed/src/platform/mpfs_hal/common/mss_plic.h ****     PLIC_F2M_37_INT_OFFSET           = 142 + OFFSET_TO_MSS_GLOBAL_INTS,
 425:/home/vinay/Desktop/softconsole_watershed/Water-shed/src/platform/mpfs_hal/common/mss_plic.h ****     PLIC_F2M_38_INT_OFFSET           = 143 + OFFSET_TO_MSS_GLOBAL_INTS,
 426:/home/vinay/Desktop/softconsole_watershed/Water-shed/src/platform/mpfs_hal/common/mss_plic.h ****     PLIC_F2M_39_INT_OFFSET           = 144 + OFFSET_TO_MSS_GLOBAL_INTS,
 427:/home/vinay/Desktop/softconsole_watershed/Water-shed/src/platform/mpfs_hal/common/mss_plic.h ****     PLIC_F2M_40_INT_OFFSET           = 145 + OFFSET_TO_MSS_GLOBAL_INTS,
 428:/home/vinay/Desktop/softconsole_watershed/Water-shed/src/platform/mpfs_hal/common/mss_plic.h ****     PLIC_F2M_41_INT_OFFSET           = 146 + OFFSET_TO_MSS_GLOBAL_INTS,
 429:/home/vinay/Desktop/softconsole_watershed/Water-shed/src/platform/mpfs_hal/common/mss_plic.h **** 
 430:/home/vinay/Desktop/softconsole_watershed/Water-shed/src/platform/mpfs_hal/common/mss_plic.h ****     PLIC_F2M_42_INT_OFFSET           = 147 + OFFSET_TO_MSS_GLOBAL_INTS,
 431:/home/vinay/Desktop/softconsole_watershed/Water-shed/src/platform/mpfs_hal/common/mss_plic.h ****     PLIC_F2M_43_INT_OFFSET           = 148 + OFFSET_TO_MSS_GLOBAL_INTS,
 432:/home/vinay/Desktop/softconsole_watershed/Water-shed/src/platform/mpfs_hal/common/mss_plic.h ****     PLIC_F2M_44_INT_OFFSET           = 149 + OFFSET_TO_MSS_GLOBAL_INTS,
 433:/home/vinay/Desktop/softconsole_watershed/Water-shed/src/platform/mpfs_hal/common/mss_plic.h ****     PLIC_F2M_45_INT_OFFSET           = 150 + OFFSET_TO_MSS_GLOBAL_INTS,
 434:/home/vinay/Desktop/softconsole_watershed/Water-shed/src/platform/mpfs_hal/common/mss_plic.h ****     PLIC_F2M_46_INT_OFFSET           = 151 + OFFSET_TO_MSS_GLOBAL_INTS,
 435:/home/vinay/Desktop/softconsole_watershed/Water-shed/src/platform/mpfs_hal/common/mss_plic.h ****     PLIC_F2M_47_INT_OFFSET           = 152 + OFFSET_TO_MSS_GLOBAL_INTS,
 436:/home/vinay/Desktop/softconsole_watershed/Water-shed/src/platform/mpfs_hal/common/mss_plic.h ****     PLIC_F2M_48_INT_OFFSET           = 153 + OFFSET_TO_MSS_GLOBAL_INTS,
 437:/home/vinay/Desktop/softconsole_watershed/Water-shed/src/platform/mpfs_hal/common/mss_plic.h ****     PLIC_F2M_49_INT_OFFSET           = 154 + OFFSET_TO_MSS_GLOBAL_INTS,
 438:/home/vinay/Desktop/softconsole_watershed/Water-shed/src/platform/mpfs_hal/common/mss_plic.h ****     PLIC_F2M_50_INT_OFFSET           = 155 + OFFSET_TO_MSS_GLOBAL_INTS,
 439:/home/vinay/Desktop/softconsole_watershed/Water-shed/src/platform/mpfs_hal/common/mss_plic.h ****     PLIC_F2M_51_INT_OFFSET           = 156 + OFFSET_TO_MSS_GLOBAL_INTS,
 440:/home/vinay/Desktop/softconsole_watershed/Water-shed/src/platform/mpfs_hal/common/mss_plic.h **** 
 441:/home/vinay/Desktop/softconsole_watershed/Water-shed/src/platform/mpfs_hal/common/mss_plic.h ****     PLIC_F2M_52_INT_OFFSET           = 157 + OFFSET_TO_MSS_GLOBAL_INTS,
 442:/home/vinay/Desktop/softconsole_watershed/Water-shed/src/platform/mpfs_hal/common/mss_plic.h ****     PLIC_F2M_53_INT_OFFSET           = 158 + OFFSET_TO_MSS_GLOBAL_INTS,
 443:/home/vinay/Desktop/softconsole_watershed/Water-shed/src/platform/mpfs_hal/common/mss_plic.h ****     PLIC_F2M_54_INT_OFFSET           = 159 + OFFSET_TO_MSS_GLOBAL_INTS,
 444:/home/vinay/Desktop/softconsole_watershed/Water-shed/src/platform/mpfs_hal/common/mss_plic.h ****     PLIC_F2M_55_INT_OFFSET           = 160 + OFFSET_TO_MSS_GLOBAL_INTS,
 445:/home/vinay/Desktop/softconsole_watershed/Water-shed/src/platform/mpfs_hal/common/mss_plic.h ****     PLIC_F2M_56_INT_OFFSET           = 161 + OFFSET_TO_MSS_GLOBAL_INTS,
 446:/home/vinay/Desktop/softconsole_watershed/Water-shed/src/platform/mpfs_hal/common/mss_plic.h ****     PLIC_F2M_57_INT_OFFSET           = 162 + OFFSET_TO_MSS_GLOBAL_INTS,
 447:/home/vinay/Desktop/softconsole_watershed/Water-shed/src/platform/mpfs_hal/common/mss_plic.h ****     PLIC_F2M_58_INT_OFFSET           = 163 + OFFSET_TO_MSS_GLOBAL_INTS,
 448:/home/vinay/Desktop/softconsole_watershed/Water-shed/src/platform/mpfs_hal/common/mss_plic.h ****     PLIC_F2M_59_INT_OFFSET           = 164 + OFFSET_TO_MSS_GLOBAL_INTS,
 449:/home/vinay/Desktop/softconsole_watershed/Water-shed/src/platform/mpfs_hal/common/mss_plic.h ****     PLIC_F2M_60_INT_OFFSET           = 165 + OFFSET_TO_MSS_GLOBAL_INTS,
 450:/home/vinay/Desktop/softconsole_watershed/Water-shed/src/platform/mpfs_hal/common/mss_plic.h ****     PLIC_F2M_61_INT_OFFSET           = 166 + OFFSET_TO_MSS_GLOBAL_INTS,
 451:/home/vinay/Desktop/softconsole_watershed/Water-shed/src/platform/mpfs_hal/common/mss_plic.h **** 
 452:/home/vinay/Desktop/softconsole_watershed/Water-shed/src/platform/mpfs_hal/common/mss_plic.h ****     PLIC_F2M_62_INT_OFFSET           = 167 + OFFSET_TO_MSS_GLOBAL_INTS,
 453:/home/vinay/Desktop/softconsole_watershed/Water-shed/src/platform/mpfs_hal/common/mss_plic.h ****     PLIC_F2M_63_INT_OFFSET           = 168 + OFFSET_TO_MSS_GLOBAL_INTS,
 454:/home/vinay/Desktop/softconsole_watershed/Water-shed/src/platform/mpfs_hal/common/mss_plic.h **** 
 455:/home/vinay/Desktop/softconsole_watershed/Water-shed/src/platform/mpfs_hal/common/mss_plic.h ****     PLIC_E51_BUS_ERROR_UNIT_OFFSET        = 182,
 456:/home/vinay/Desktop/softconsole_watershed/Water-shed/src/platform/mpfs_hal/common/mss_plic.h ****     PLIC_U54_1_BUS_ERROR_UNIT_OFFSET      = 183,
 457:/home/vinay/Desktop/softconsole_watershed/Water-shed/src/platform/mpfs_hal/common/mss_plic.h ****     PLIC_U54_2_BUS_ERROR_UNIT_OFFSET      = 184,
 458:/home/vinay/Desktop/softconsole_watershed/Water-shed/src/platform/mpfs_hal/common/mss_plic.h ****     PLIC_U54_3_BUS_ERROR_UNIT_OFFSET      = 185,
 459:/home/vinay/Desktop/softconsole_watershed/Water-shed/src/platform/mpfs_hal/common/mss_plic.h ****     PLIC_U54_4_BUS_ERROR_UNIT_OFFSET      = 186
 460:/home/vinay/Desktop/softconsole_watershed/Water-shed/src/platform/mpfs_hal/common/mss_plic.h **** 
 461:/home/vinay/Desktop/softconsole_watershed/Water-shed/src/platform/mpfs_hal/common/mss_plic.h **** } PLIC_IRQn_Type;
 462:/home/vinay/Desktop/softconsole_watershed/Water-shed/src/platform/mpfs_hal/common/mss_plic.h **** 
 463:/home/vinay/Desktop/softconsole_watershed/Water-shed/src/platform/mpfs_hal/common/mss_plic.h **** #define MAX_PLIC_INT PLIC_U54_4_BUS_ERROR_UNIT_OFFSET
 464:/home/vinay/Desktop/softconsole_watershed/Water-shed/src/platform/mpfs_hal/common/mss_plic.h **** 
 465:/home/vinay/Desktop/softconsole_watershed/Water-shed/src/platform/mpfs_hal/common/mss_plic.h **** typedef struct
 466:/home/vinay/Desktop/softconsole_watershed/Water-shed/src/platform/mpfs_hal/common/mss_plic.h **** {
 467:/home/vinay/Desktop/softconsole_watershed/Water-shed/src/platform/mpfs_hal/common/mss_plic.h ****     volatile uint32_t PRIORITY_THRESHOLD;
 468:/home/vinay/Desktop/softconsole_watershed/Water-shed/src/platform/mpfs_hal/common/mss_plic.h ****     volatile uint32_t CLAIM_COMPLETE;
 469:/home/vinay/Desktop/softconsole_watershed/Water-shed/src/platform/mpfs_hal/common/mss_plic.h ****     volatile uint32_t reserved[(0x1000/4)-2];
 470:/home/vinay/Desktop/softconsole_watershed/Water-shed/src/platform/mpfs_hal/common/mss_plic.h **** } IRQ_Target_Type;
 471:/home/vinay/Desktop/softconsole_watershed/Water-shed/src/platform/mpfs_hal/common/mss_plic.h **** 
 472:/home/vinay/Desktop/softconsole_watershed/Water-shed/src/platform/mpfs_hal/common/mss_plic.h **** typedef struct
 473:/home/vinay/Desktop/softconsole_watershed/Water-shed/src/platform/mpfs_hal/common/mss_plic.h **** {
 474:/home/vinay/Desktop/softconsole_watershed/Water-shed/src/platform/mpfs_hal/common/mss_plic.h ****     volatile uint32_t ENABLES[32U];
 475:/home/vinay/Desktop/softconsole_watershed/Water-shed/src/platform/mpfs_hal/common/mss_plic.h **** } Target_Enables_Type;
 476:/home/vinay/Desktop/softconsole_watershed/Water-shed/src/platform/mpfs_hal/common/mss_plic.h **** 
 477:/home/vinay/Desktop/softconsole_watershed/Water-shed/src/platform/mpfs_hal/common/mss_plic.h **** 
 478:/home/vinay/Desktop/softconsole_watershed/Water-shed/src/platform/mpfs_hal/common/mss_plic.h **** #define PLIC_SET_UP_REGISTERS 6U
 479:/home/vinay/Desktop/softconsole_watershed/Water-shed/src/platform/mpfs_hal/common/mss_plic.h **** 
 480:/home/vinay/Desktop/softconsole_watershed/Water-shed/src/platform/mpfs_hal/common/mss_plic.h **** #define PLIC_NUM_SOURCES 187U
 481:/home/vinay/Desktop/softconsole_watershed/Water-shed/src/platform/mpfs_hal/common/mss_plic.h **** 
 482:/home/vinay/Desktop/softconsole_watershed/Water-shed/src/platform/mpfs_hal/common/mss_plic.h **** #define PLIC_NUM_PRIORITIES 7U
 483:/home/vinay/Desktop/softconsole_watershed/Water-shed/src/platform/mpfs_hal/common/mss_plic.h **** #define NUM_CLAIM_REGS      9U
 484:/home/vinay/Desktop/softconsole_watershed/Water-shed/src/platform/mpfs_hal/common/mss_plic.h **** 
 485:/home/vinay/Desktop/softconsole_watershed/Water-shed/src/platform/mpfs_hal/common/mss_plic.h **** 
 486:/home/vinay/Desktop/softconsole_watershed/Water-shed/src/platform/mpfs_hal/common/mss_plic.h **** /* The FU540-C000 has 53 interrupt sources. */
 487:/home/vinay/Desktop/softconsole_watershed/Water-shed/src/platform/mpfs_hal/common/mss_plic.h ****  typedef struct
 488:/home/vinay/Desktop/softconsole_watershed/Water-shed/src/platform/mpfs_hal/common/mss_plic.h **** {
 489:/home/vinay/Desktop/softconsole_watershed/Water-shed/src/platform/mpfs_hal/common/mss_plic.h ****     volatile uint32_t RESERVED0;
 490:/home/vinay/Desktop/softconsole_watershed/Water-shed/src/platform/mpfs_hal/common/mss_plic.h ****     /*-------------------- Source Priority --------------------*/
 491:/home/vinay/Desktop/softconsole_watershed/Water-shed/src/platform/mpfs_hal/common/mss_plic.h ****     volatile uint32_t SOURCE_PRIORITY[PLIC_NUM_SOURCES];
 492:/home/vinay/Desktop/softconsole_watershed/Water-shed/src/platform/mpfs_hal/common/mss_plic.h ****     volatile uint32_t RESERVED1[(0x1000 / 4) - (PLIC_NUM_SOURCES + 1)];
 493:/home/vinay/Desktop/softconsole_watershed/Water-shed/src/platform/mpfs_hal/common/mss_plic.h ****     /*-------------------- Pending array --------------------*/
 494:/home/vinay/Desktop/softconsole_watershed/Water-shed/src/platform/mpfs_hal/common/mss_plic.h ****     volatile const uint32_t PENDING_ARRAY[PLIC_SET_UP_REGISTERS];
 495:/home/vinay/Desktop/softconsole_watershed/Water-shed/src/platform/mpfs_hal/common/mss_plic.h ****     volatile uint32_t RESERVED2[(0x1000/4) - PLIC_SET_UP_REGISTERS];
 496:/home/vinay/Desktop/softconsole_watershed/Water-shed/src/platform/mpfs_hal/common/mss_plic.h **** 
 497:/home/vinay/Desktop/softconsole_watershed/Water-shed/src/platform/mpfs_hal/common/mss_plic.h ****     /*-----------------Hart0 Mode Enables--------------------*/
 498:/home/vinay/Desktop/softconsole_watershed/Water-shed/src/platform/mpfs_hal/common/mss_plic.h ****     volatile uint32_t HART0_MMODE_ENA[PLIC_SET_UP_REGISTERS];
 499:/home/vinay/Desktop/softconsole_watershed/Water-shed/src/platform/mpfs_hal/common/mss_plic.h ****     volatile uint32_t RESERVED3[(0x80/4) - PLIC_SET_UP_REGISTERS];
 500:/home/vinay/Desktop/softconsole_watershed/Water-shed/src/platform/mpfs_hal/common/mss_plic.h **** 
 501:/home/vinay/Desktop/softconsole_watershed/Water-shed/src/platform/mpfs_hal/common/mss_plic.h ****     /*-----------------Hart1 Mode Enables--------------------*/
 502:/home/vinay/Desktop/softconsole_watershed/Water-shed/src/platform/mpfs_hal/common/mss_plic.h ****     volatile uint32_t HART1_MMODE_ENA[PLIC_SET_UP_REGISTERS];
 503:/home/vinay/Desktop/softconsole_watershed/Water-shed/src/platform/mpfs_hal/common/mss_plic.h ****     volatile uint32_t RESERVED4a[(0x80/4) - PLIC_SET_UP_REGISTERS];
 504:/home/vinay/Desktop/softconsole_watershed/Water-shed/src/platform/mpfs_hal/common/mss_plic.h ****     volatile uint32_t HART1_SMODE_ENA[PLIC_SET_UP_REGISTERS];
 505:/home/vinay/Desktop/softconsole_watershed/Water-shed/src/platform/mpfs_hal/common/mss_plic.h ****     volatile uint32_t RESERVED4[(0x80/4) - PLIC_SET_UP_REGISTERS];
 506:/home/vinay/Desktop/softconsole_watershed/Water-shed/src/platform/mpfs_hal/common/mss_plic.h **** 
 507:/home/vinay/Desktop/softconsole_watershed/Water-shed/src/platform/mpfs_hal/common/mss_plic.h ****     /*-----------------Hart2 Mode Enables--------------------*/
 508:/home/vinay/Desktop/softconsole_watershed/Water-shed/src/platform/mpfs_hal/common/mss_plic.h ****     volatile uint32_t HART2_MMODE_ENA[PLIC_SET_UP_REGISTERS];
 509:/home/vinay/Desktop/softconsole_watershed/Water-shed/src/platform/mpfs_hal/common/mss_plic.h ****     volatile uint32_t RESERVED5a[(0x80/4) - PLIC_SET_UP_REGISTERS];
 510:/home/vinay/Desktop/softconsole_watershed/Water-shed/src/platform/mpfs_hal/common/mss_plic.h ****     volatile uint32_t HART2_SMODE_ENA[PLIC_SET_UP_REGISTERS];
 511:/home/vinay/Desktop/softconsole_watershed/Water-shed/src/platform/mpfs_hal/common/mss_plic.h ****     volatile uint32_t RESERVED5[(0x80/4) - PLIC_SET_UP_REGISTERS];
 512:/home/vinay/Desktop/softconsole_watershed/Water-shed/src/platform/mpfs_hal/common/mss_plic.h **** 
 513:/home/vinay/Desktop/softconsole_watershed/Water-shed/src/platform/mpfs_hal/common/mss_plic.h ****     /*-----------------Hart3 Mode Enables--------------------*/
 514:/home/vinay/Desktop/softconsole_watershed/Water-shed/src/platform/mpfs_hal/common/mss_plic.h ****     volatile uint32_t HART3_MMODE_ENA[PLIC_SET_UP_REGISTERS];
 515:/home/vinay/Desktop/softconsole_watershed/Water-shed/src/platform/mpfs_hal/common/mss_plic.h ****     volatile uint32_t RESERVED6a[(0x80/4) - PLIC_SET_UP_REGISTERS];
 516:/home/vinay/Desktop/softconsole_watershed/Water-shed/src/platform/mpfs_hal/common/mss_plic.h ****     volatile uint32_t HART3_SMODE_ENA[PLIC_SET_UP_REGISTERS];
 517:/home/vinay/Desktop/softconsole_watershed/Water-shed/src/platform/mpfs_hal/common/mss_plic.h ****     volatile uint32_t RESERVED6[(0x80/4) - PLIC_SET_UP_REGISTERS];
 518:/home/vinay/Desktop/softconsole_watershed/Water-shed/src/platform/mpfs_hal/common/mss_plic.h **** 
 519:/home/vinay/Desktop/softconsole_watershed/Water-shed/src/platform/mpfs_hal/common/mss_plic.h ****     /*-----------------Hart4 Mode Enables--------------------*/
 520:/home/vinay/Desktop/softconsole_watershed/Water-shed/src/platform/mpfs_hal/common/mss_plic.h ****     volatile uint32_t HART4_MMODE_ENA[PLIC_SET_UP_REGISTERS];
 521:/home/vinay/Desktop/softconsole_watershed/Water-shed/src/platform/mpfs_hal/common/mss_plic.h ****     volatile uint32_t RESERVED7a[(0x80/4) - PLIC_SET_UP_REGISTERS];
 522:/home/vinay/Desktop/softconsole_watershed/Water-shed/src/platform/mpfs_hal/common/mss_plic.h ****     volatile uint32_t HART4_SMODE_ENA[PLIC_SET_UP_REGISTERS];
 523:/home/vinay/Desktop/softconsole_watershed/Water-shed/src/platform/mpfs_hal/common/mss_plic.h ****     volatile uint32_t RESERVED7[(0x80/4) - PLIC_SET_UP_REGISTERS];
 524:/home/vinay/Desktop/softconsole_watershed/Water-shed/src/platform/mpfs_hal/common/mss_plic.h **** 
 525:/home/vinay/Desktop/softconsole_watershed/Water-shed/src/platform/mpfs_hal/common/mss_plic.h ****     volatile uint32_t RESERVED8[(0x0C200000 - 0x0C002480)/4];
 526:/home/vinay/Desktop/softconsole_watershed/Water-shed/src/platform/mpfs_hal/common/mss_plic.h **** 
 527:/home/vinay/Desktop/softconsole_watershed/Water-shed/src/platform/mpfs_hal/common/mss_plic.h ****     /*--- Target Priority threshold and claim/complete---------*/
 528:/home/vinay/Desktop/softconsole_watershed/Water-shed/src/platform/mpfs_hal/common/mss_plic.h ****     IRQ_Target_Type TARGET[NUM_CLAIM_REGS];   /* See PLIC Register Map or
 529:/home/vinay/Desktop/softconsole_watershed/Water-shed/src/platform/mpfs_hal/common/mss_plic.h ****                                                  TARGET_OFFSET defines below
 530:/home/vinay/Desktop/softconsole_watershed/Water-shed/src/platform/mpfs_hal/common/mss_plic.h ****                                                  for offset details */
 531:/home/vinay/Desktop/softconsole_watershed/Water-shed/src/platform/mpfs_hal/common/mss_plic.h **** 
 532:/home/vinay/Desktop/softconsole_watershed/Water-shed/src/platform/mpfs_hal/common/mss_plic.h **** } PLIC_Type;
 533:/home/vinay/Desktop/softconsole_watershed/Water-shed/src/platform/mpfs_hal/common/mss_plic.h **** 
 534:/home/vinay/Desktop/softconsole_watershed/Water-shed/src/platform/mpfs_hal/common/mss_plic.h **** #define TARGET_OFFSET_HART0_M 0U
 535:/home/vinay/Desktop/softconsole_watershed/Water-shed/src/platform/mpfs_hal/common/mss_plic.h **** #define TARGET_OFFSET_HART1_M 1U
 536:/home/vinay/Desktop/softconsole_watershed/Water-shed/src/platform/mpfs_hal/common/mss_plic.h **** #define TARGET_OFFSET_HART1_S 2U
 537:/home/vinay/Desktop/softconsole_watershed/Water-shed/src/platform/mpfs_hal/common/mss_plic.h **** #define TARGET_OFFSET_HART2_M 3U
 538:/home/vinay/Desktop/softconsole_watershed/Water-shed/src/platform/mpfs_hal/common/mss_plic.h **** #define TARGET_OFFSET_HART2_S 4U
 539:/home/vinay/Desktop/softconsole_watershed/Water-shed/src/platform/mpfs_hal/common/mss_plic.h **** #define TARGET_OFFSET_HART3_M 5U
 540:/home/vinay/Desktop/softconsole_watershed/Water-shed/src/platform/mpfs_hal/common/mss_plic.h **** #define TARGET_OFFSET_HART3_S 6U
 541:/home/vinay/Desktop/softconsole_watershed/Water-shed/src/platform/mpfs_hal/common/mss_plic.h **** #define TARGET_OFFSET_HART4_M 7U
 542:/home/vinay/Desktop/softconsole_watershed/Water-shed/src/platform/mpfs_hal/common/mss_plic.h **** #define TARGET_OFFSET_HART4_S 8U
 543:/home/vinay/Desktop/softconsole_watershed/Water-shed/src/platform/mpfs_hal/common/mss_plic.h **** 
 544:/home/vinay/Desktop/softconsole_watershed/Water-shed/src/platform/mpfs_hal/common/mss_plic.h **** extern const unsigned long plic_hart_lookup[5U];
 545:/home/vinay/Desktop/softconsole_watershed/Water-shed/src/platform/mpfs_hal/common/mss_plic.h **** 
 546:/home/vinay/Desktop/softconsole_watershed/Water-shed/src/platform/mpfs_hal/common/mss_plic.h **** /***************************************************************************//**
 547:/home/vinay/Desktop/softconsole_watershed/Water-shed/src/platform/mpfs_hal/common/mss_plic.h ****  * PLIC: Platform Level Interrupt Controller
 548:/home/vinay/Desktop/softconsole_watershed/Water-shed/src/platform/mpfs_hal/common/mss_plic.h ****  */
 549:/home/vinay/Desktop/softconsole_watershed/Water-shed/src/platform/mpfs_hal/common/mss_plic.h **** #define PLIC_BASE_ADDR 0x0C000000UL
 550:/home/vinay/Desktop/softconsole_watershed/Water-shed/src/platform/mpfs_hal/common/mss_plic.h **** 
 551:/home/vinay/Desktop/softconsole_watershed/Water-shed/src/platform/mpfs_hal/common/mss_plic.h **** #define PLIC    ((PLIC_Type * const)PLIC_BASE_ADDR)
 552:/home/vinay/Desktop/softconsole_watershed/Water-shed/src/platform/mpfs_hal/common/mss_plic.h **** 
 553:/home/vinay/Desktop/softconsole_watershed/Water-shed/src/platform/mpfs_hal/common/mss_plic.h **** /*-------------------------------------------------------------------------*//**
 554:/home/vinay/Desktop/softconsole_watershed/Water-shed/src/platform/mpfs_hal/common/mss_plic.h ****  * The function PLIC_init() initializes the PLIC controller and enables the
 555:/home/vinay/Desktop/softconsole_watershed/Water-shed/src/platform/mpfs_hal/common/mss_plic.h ****  * global external interrupt bit.
 556:/home/vinay/Desktop/softconsole_watershed/Water-shed/src/platform/mpfs_hal/common/mss_plic.h ****  */
 557:/home/vinay/Desktop/softconsole_watershed/Water-shed/src/platform/mpfs_hal/common/mss_plic.h **** 
 558:/home/vinay/Desktop/softconsole_watershed/Water-shed/src/platform/mpfs_hal/common/mss_plic.h **** /*-----------------Hart Mode Enables--------------------*/
 559:/home/vinay/Desktop/softconsole_watershed/Water-shed/src/platform/mpfs_hal/common/mss_plic.h **** 
 560:/home/vinay/Desktop/softconsole_watershed/Water-shed/src/platform/mpfs_hal/common/mss_plic.h **** static inline void PLIC_init(void)
 561:/home/vinay/Desktop/softconsole_watershed/Water-shed/src/platform/mpfs_hal/common/mss_plic.h **** {
 562:/home/vinay/Desktop/softconsole_watershed/Water-shed/src/platform/mpfs_hal/common/mss_plic.h ****     uint32_t inc;
 563:/home/vinay/Desktop/softconsole_watershed/Water-shed/src/platform/mpfs_hal/common/mss_plic.h ****     uint64_t hart_id  = read_csr(mhartid);
 564:/home/vinay/Desktop/softconsole_watershed/Water-shed/src/platform/mpfs_hal/common/mss_plic.h **** 
 565:/home/vinay/Desktop/softconsole_watershed/Water-shed/src/platform/mpfs_hal/common/mss_plic.h ****     /* Disable all interrupts for the current hart. */
 566:/home/vinay/Desktop/softconsole_watershed/Water-shed/src/platform/mpfs_hal/common/mss_plic.h ****     switch(hart_id)
 567:/home/vinay/Desktop/softconsole_watershed/Water-shed/src/platform/mpfs_hal/common/mss_plic.h ****     {
 568:/home/vinay/Desktop/softconsole_watershed/Water-shed/src/platform/mpfs_hal/common/mss_plic.h ****         case 0:
 569:/home/vinay/Desktop/softconsole_watershed/Water-shed/src/platform/mpfs_hal/common/mss_plic.h ****             for(inc = 0UL; inc < PLIC_SET_UP_REGISTERS; inc++)
 570:/home/vinay/Desktop/softconsole_watershed/Water-shed/src/platform/mpfs_hal/common/mss_plic.h ****             {
 571:/home/vinay/Desktop/softconsole_watershed/Water-shed/src/platform/mpfs_hal/common/mss_plic.h ****                 PLIC->HART0_MMODE_ENA[inc] = 0U;
 572:/home/vinay/Desktop/softconsole_watershed/Water-shed/src/platform/mpfs_hal/common/mss_plic.h ****             }
 573:/home/vinay/Desktop/softconsole_watershed/Water-shed/src/platform/mpfs_hal/common/mss_plic.h **** 
 574:/home/vinay/Desktop/softconsole_watershed/Water-shed/src/platform/mpfs_hal/common/mss_plic.h ****             /* Set the threshold to zero.
 575:/home/vinay/Desktop/softconsole_watershed/Water-shed/src/platform/mpfs_hal/common/mss_plic.h ****              * PLIC provides context based threshold register for the settings of a
 576:/home/vinay/Desktop/softconsole_watershed/Water-shed/src/platform/mpfs_hal/common/mss_plic.h ****              * interrupt priority threshold of each context. The threshold register
 577:/home/vinay/Desktop/softconsole_watershed/Water-shed/src/platform/mpfs_hal/common/mss_plic.h ****              * is a WARL field. The PLIC will mask all PLIC interrupts of a priority
 578:/home/vinay/Desktop/softconsole_watershed/Water-shed/src/platform/mpfs_hal/common/mss_plic.h ****              * less than or equal to threshold. For example, a threshold value of zero
 579:/home/vinay/Desktop/softconsole_watershed/Water-shed/src/platform/mpfs_hal/common/mss_plic.h ****              * permits all interrupts with non-zero priority.*/
 580:/home/vinay/Desktop/softconsole_watershed/Water-shed/src/platform/mpfs_hal/common/mss_plic.h **** 
 581:/home/vinay/Desktop/softconsole_watershed/Water-shed/src/platform/mpfs_hal/common/mss_plic.h ****             PLIC->TARGET[TARGET_OFFSET_HART0_M].PRIORITY_THRESHOLD  = 0U;
 582:/home/vinay/Desktop/softconsole_watershed/Water-shed/src/platform/mpfs_hal/common/mss_plic.h ****             break;
 583:/home/vinay/Desktop/softconsole_watershed/Water-shed/src/platform/mpfs_hal/common/mss_plic.h ****         case 1:
 584:/home/vinay/Desktop/softconsole_watershed/Water-shed/src/platform/mpfs_hal/common/mss_plic.h ****             for(inc = 0UL; inc < PLIC_SET_UP_REGISTERS; inc++)
 585:/home/vinay/Desktop/softconsole_watershed/Water-shed/src/platform/mpfs_hal/common/mss_plic.h ****             {
 586:/home/vinay/Desktop/softconsole_watershed/Water-shed/src/platform/mpfs_hal/common/mss_plic.h ****                 PLIC->HART1_MMODE_ENA[inc] = 0U;
 587:/home/vinay/Desktop/softconsole_watershed/Water-shed/src/platform/mpfs_hal/common/mss_plic.h ****                 PLIC->HART1_SMODE_ENA[inc] = 0U;
 588:/home/vinay/Desktop/softconsole_watershed/Water-shed/src/platform/mpfs_hal/common/mss_plic.h ****             }
 589:/home/vinay/Desktop/softconsole_watershed/Water-shed/src/platform/mpfs_hal/common/mss_plic.h **** 
 590:/home/vinay/Desktop/softconsole_watershed/Water-shed/src/platform/mpfs_hal/common/mss_plic.h ****             PLIC->TARGET[TARGET_OFFSET_HART1_M].PRIORITY_THRESHOLD  = 0U;
 591:/home/vinay/Desktop/softconsole_watershed/Water-shed/src/platform/mpfs_hal/common/mss_plic.h ****             /* Disable supervisor level */
 592:/home/vinay/Desktop/softconsole_watershed/Water-shed/src/platform/mpfs_hal/common/mss_plic.h ****             PLIC->TARGET[TARGET_OFFSET_HART1_S].PRIORITY_THRESHOLD  = 7U;
 593:/home/vinay/Desktop/softconsole_watershed/Water-shed/src/platform/mpfs_hal/common/mss_plic.h ****             break;
 594:/home/vinay/Desktop/softconsole_watershed/Water-shed/src/platform/mpfs_hal/common/mss_plic.h ****         case 2:
 595:/home/vinay/Desktop/softconsole_watershed/Water-shed/src/platform/mpfs_hal/common/mss_plic.h ****             for(inc = 0UL; inc < PLIC_SET_UP_REGISTERS; inc++)
 596:/home/vinay/Desktop/softconsole_watershed/Water-shed/src/platform/mpfs_hal/common/mss_plic.h ****             {
 597:/home/vinay/Desktop/softconsole_watershed/Water-shed/src/platform/mpfs_hal/common/mss_plic.h ****                 PLIC->HART2_MMODE_ENA[inc] = 0U;
 598:/home/vinay/Desktop/softconsole_watershed/Water-shed/src/platform/mpfs_hal/common/mss_plic.h ****                 PLIC->HART2_SMODE_ENA[inc] = 0U;
 599:/home/vinay/Desktop/softconsole_watershed/Water-shed/src/platform/mpfs_hal/common/mss_plic.h ****             }
 600:/home/vinay/Desktop/softconsole_watershed/Water-shed/src/platform/mpfs_hal/common/mss_plic.h **** 
 601:/home/vinay/Desktop/softconsole_watershed/Water-shed/src/platform/mpfs_hal/common/mss_plic.h ****             PLIC->TARGET[TARGET_OFFSET_HART2_M].PRIORITY_THRESHOLD  = 0U;
 602:/home/vinay/Desktop/softconsole_watershed/Water-shed/src/platform/mpfs_hal/common/mss_plic.h ****             /* Disable supervisor level */
 603:/home/vinay/Desktop/softconsole_watershed/Water-shed/src/platform/mpfs_hal/common/mss_plic.h ****             PLIC->TARGET[TARGET_OFFSET_HART2_S].PRIORITY_THRESHOLD  = 7U;
 604:/home/vinay/Desktop/softconsole_watershed/Water-shed/src/platform/mpfs_hal/common/mss_plic.h ****             break;
 605:/home/vinay/Desktop/softconsole_watershed/Water-shed/src/platform/mpfs_hal/common/mss_plic.h ****         case 3:
 606:/home/vinay/Desktop/softconsole_watershed/Water-shed/src/platform/mpfs_hal/common/mss_plic.h ****             for(inc = 0UL; inc < PLIC_SET_UP_REGISTERS; inc++)
 607:/home/vinay/Desktop/softconsole_watershed/Water-shed/src/platform/mpfs_hal/common/mss_plic.h ****             {
 608:/home/vinay/Desktop/softconsole_watershed/Water-shed/src/platform/mpfs_hal/common/mss_plic.h ****                 PLIC->HART3_MMODE_ENA[inc] = 0U;
 609:/home/vinay/Desktop/softconsole_watershed/Water-shed/src/platform/mpfs_hal/common/mss_plic.h ****                 PLIC->HART3_SMODE_ENA[inc] = 0U;
 610:/home/vinay/Desktop/softconsole_watershed/Water-shed/src/platform/mpfs_hal/common/mss_plic.h ****             }
 611:/home/vinay/Desktop/softconsole_watershed/Water-shed/src/platform/mpfs_hal/common/mss_plic.h **** 
 612:/home/vinay/Desktop/softconsole_watershed/Water-shed/src/platform/mpfs_hal/common/mss_plic.h ****             PLIC->TARGET[TARGET_OFFSET_HART3_M].PRIORITY_THRESHOLD  = 0U;
 613:/home/vinay/Desktop/softconsole_watershed/Water-shed/src/platform/mpfs_hal/common/mss_plic.h ****             /* Disable supervisor level */
 614:/home/vinay/Desktop/softconsole_watershed/Water-shed/src/platform/mpfs_hal/common/mss_plic.h ****             PLIC->TARGET[TARGET_OFFSET_HART3_S].PRIORITY_THRESHOLD  = 7U;
 615:/home/vinay/Desktop/softconsole_watershed/Water-shed/src/platform/mpfs_hal/common/mss_plic.h ****             break;
 616:/home/vinay/Desktop/softconsole_watershed/Water-shed/src/platform/mpfs_hal/common/mss_plic.h ****         case 4:
 617:/home/vinay/Desktop/softconsole_watershed/Water-shed/src/platform/mpfs_hal/common/mss_plic.h ****             for(inc = 0UL; inc < PLIC_SET_UP_REGISTERS; inc++)
 618:/home/vinay/Desktop/softconsole_watershed/Water-shed/src/platform/mpfs_hal/common/mss_plic.h ****             {
 619:/home/vinay/Desktop/softconsole_watershed/Water-shed/src/platform/mpfs_hal/common/mss_plic.h ****                 PLIC->HART4_MMODE_ENA[inc] = 0U;
 620:/home/vinay/Desktop/softconsole_watershed/Water-shed/src/platform/mpfs_hal/common/mss_plic.h ****                 PLIC->HART4_SMODE_ENA[inc] = 0U;
 621:/home/vinay/Desktop/softconsole_watershed/Water-shed/src/platform/mpfs_hal/common/mss_plic.h ****             }
 622:/home/vinay/Desktop/softconsole_watershed/Water-shed/src/platform/mpfs_hal/common/mss_plic.h **** 
 623:/home/vinay/Desktop/softconsole_watershed/Water-shed/src/platform/mpfs_hal/common/mss_plic.h ****             PLIC->TARGET[TARGET_OFFSET_HART4_M].PRIORITY_THRESHOLD  = 0U;
 624:/home/vinay/Desktop/softconsole_watershed/Water-shed/src/platform/mpfs_hal/common/mss_plic.h ****             /* Disable supervisor level */
 625:/home/vinay/Desktop/softconsole_watershed/Water-shed/src/platform/mpfs_hal/common/mss_plic.h ****             PLIC->TARGET[TARGET_OFFSET_HART4_S].PRIORITY_THRESHOLD  = 7U;
 626:/home/vinay/Desktop/softconsole_watershed/Water-shed/src/platform/mpfs_hal/common/mss_plic.h ****             break;
 627:/home/vinay/Desktop/softconsole_watershed/Water-shed/src/platform/mpfs_hal/common/mss_plic.h ****         default:
 628:/home/vinay/Desktop/softconsole_watershed/Water-shed/src/platform/mpfs_hal/common/mss_plic.h ****             break;
 629:/home/vinay/Desktop/softconsole_watershed/Water-shed/src/platform/mpfs_hal/common/mss_plic.h ****     }
 630:/home/vinay/Desktop/softconsole_watershed/Water-shed/src/platform/mpfs_hal/common/mss_plic.h **** 
 631:/home/vinay/Desktop/softconsole_watershed/Water-shed/src/platform/mpfs_hal/common/mss_plic.h ****     /* Enable  PLIC_MMUARTine external interrupts. */
 632:/home/vinay/Desktop/softconsole_watershed/Water-shed/src/platform/mpfs_hal/common/mss_plic.h ****     set_csr(mie, MIP_MEIP);
 633:/home/vinay/Desktop/softconsole_watershed/Water-shed/src/platform/mpfs_hal/common/mss_plic.h **** }
 634:/home/vinay/Desktop/softconsole_watershed/Water-shed/src/platform/mpfs_hal/common/mss_plic.h **** 
 635:/home/vinay/Desktop/softconsole_watershed/Water-shed/src/platform/mpfs_hal/common/mss_plic.h **** 
 636:/home/vinay/Desktop/softconsole_watershed/Water-shed/src/platform/mpfs_hal/common/mss_plic.h **** 
 637:/home/vinay/Desktop/softconsole_watershed/Water-shed/src/platform/mpfs_hal/common/mss_plic.h **** /***************************************************************************//**
 638:/home/vinay/Desktop/softconsole_watershed/Water-shed/src/platform/mpfs_hal/common/mss_plic.h ****  * The function PLIC_EnableIRQ() enables the external interrupt for the
 639:/home/vinay/Desktop/softconsole_watershed/Water-shed/src/platform/mpfs_hal/common/mss_plic.h ****  * interrupt number indicated by the parameter IRQn.
 640:/home/vinay/Desktop/softconsole_watershed/Water-shed/src/platform/mpfs_hal/common/mss_plic.h ****  */
 641:/home/vinay/Desktop/softconsole_watershed/Water-shed/src/platform/mpfs_hal/common/mss_plic.h **** static inline void PLIC_EnableIRQ(PLIC_IRQn_Type IRQn)
 642:/home/vinay/Desktop/softconsole_watershed/Water-shed/src/platform/mpfs_hal/common/mss_plic.h **** {
 643:/home/vinay/Desktop/softconsole_watershed/Water-shed/src/platform/mpfs_hal/common/mss_plic.h ****     uint32_t current;
 644:/home/vinay/Desktop/softconsole_watershed/Water-shed/src/platform/mpfs_hal/common/mss_plic.h ****     uint64_t hart_id  = read_csr(mhartid);
 645:/home/vinay/Desktop/softconsole_watershed/Water-shed/src/platform/mpfs_hal/common/mss_plic.h **** 
 646:/home/vinay/Desktop/softconsole_watershed/Water-shed/src/platform/mpfs_hal/common/mss_plic.h ****     switch(hart_id)
 647:/home/vinay/Desktop/softconsole_watershed/Water-shed/src/platform/mpfs_hal/common/mss_plic.h ****     {
 648:/home/vinay/Desktop/softconsole_watershed/Water-shed/src/platform/mpfs_hal/common/mss_plic.h ****         case 0:
 649:/home/vinay/Desktop/softconsole_watershed/Water-shed/src/platform/mpfs_hal/common/mss_plic.h ****             current  = PLIC->HART0_MMODE_ENA[IRQn / 32U];
 650:/home/vinay/Desktop/softconsole_watershed/Water-shed/src/platform/mpfs_hal/common/mss_plic.h ****             current |= (uint32_t)1 << (IRQn % 32U);
 651:/home/vinay/Desktop/softconsole_watershed/Water-shed/src/platform/mpfs_hal/common/mss_plic.h ****             PLIC->HART0_MMODE_ENA[IRQn / 32U]  = current;
 652:/home/vinay/Desktop/softconsole_watershed/Water-shed/src/platform/mpfs_hal/common/mss_plic.h ****             break;
 653:/home/vinay/Desktop/softconsole_watershed/Water-shed/src/platform/mpfs_hal/common/mss_plic.h ****         case 1:
 654:/home/vinay/Desktop/softconsole_watershed/Water-shed/src/platform/mpfs_hal/common/mss_plic.h ****             current  = PLIC->HART1_MMODE_ENA[IRQn / 32U];
 655:/home/vinay/Desktop/softconsole_watershed/Water-shed/src/platform/mpfs_hal/common/mss_plic.h ****             current |= (uint32_t)1 << (IRQn % 32U);
 656:/home/vinay/Desktop/softconsole_watershed/Water-shed/src/platform/mpfs_hal/common/mss_plic.h ****             PLIC->HART1_MMODE_ENA[IRQn / 32U]  = current;
 657:/home/vinay/Desktop/softconsole_watershed/Water-shed/src/platform/mpfs_hal/common/mss_plic.h ****             break;
 658:/home/vinay/Desktop/softconsole_watershed/Water-shed/src/platform/mpfs_hal/common/mss_plic.h ****         case 2:
 659:/home/vinay/Desktop/softconsole_watershed/Water-shed/src/platform/mpfs_hal/common/mss_plic.h ****             current  = PLIC->HART2_MMODE_ENA[IRQn / 32U];
 660:/home/vinay/Desktop/softconsole_watershed/Water-shed/src/platform/mpfs_hal/common/mss_plic.h ****             current |= (uint32_t)1 << (IRQn % 32U);
 661:/home/vinay/Desktop/softconsole_watershed/Water-shed/src/platform/mpfs_hal/common/mss_plic.h ****             PLIC->HART2_MMODE_ENA[IRQn / 32U]  = current;
 662:/home/vinay/Desktop/softconsole_watershed/Water-shed/src/platform/mpfs_hal/common/mss_plic.h ****             break;
 663:/home/vinay/Desktop/softconsole_watershed/Water-shed/src/platform/mpfs_hal/common/mss_plic.h ****         case 3:
 664:/home/vinay/Desktop/softconsole_watershed/Water-shed/src/platform/mpfs_hal/common/mss_plic.h ****             current  = PLIC->HART3_MMODE_ENA[IRQn / 32U];
 665:/home/vinay/Desktop/softconsole_watershed/Water-shed/src/platform/mpfs_hal/common/mss_plic.h ****             current |= (uint32_t)1 << (IRQn % 32U);
 666:/home/vinay/Desktop/softconsole_watershed/Water-shed/src/platform/mpfs_hal/common/mss_plic.h ****             PLIC->HART3_MMODE_ENA[IRQn / 32U]  = current;
 667:/home/vinay/Desktop/softconsole_watershed/Water-shed/src/platform/mpfs_hal/common/mss_plic.h ****             break;
 668:/home/vinay/Desktop/softconsole_watershed/Water-shed/src/platform/mpfs_hal/common/mss_plic.h ****         case 4:
 669:/home/vinay/Desktop/softconsole_watershed/Water-shed/src/platform/mpfs_hal/common/mss_plic.h ****             current  = PLIC->HART4_MMODE_ENA[IRQn / 32U];
 670:/home/vinay/Desktop/softconsole_watershed/Water-shed/src/platform/mpfs_hal/common/mss_plic.h ****             current |= (uint32_t)1 << (IRQn % 32U);
 671:/home/vinay/Desktop/softconsole_watershed/Water-shed/src/platform/mpfs_hal/common/mss_plic.h ****             PLIC->HART4_MMODE_ENA[IRQn / 32U]  = current;
 672:/home/vinay/Desktop/softconsole_watershed/Water-shed/src/platform/mpfs_hal/common/mss_plic.h ****             break;
 673:/home/vinay/Desktop/softconsole_watershed/Water-shed/src/platform/mpfs_hal/common/mss_plic.h ****         default:
 674:/home/vinay/Desktop/softconsole_watershed/Water-shed/src/platform/mpfs_hal/common/mss_plic.h ****             break;
 675:/home/vinay/Desktop/softconsole_watershed/Water-shed/src/platform/mpfs_hal/common/mss_plic.h ****     }
 676:/home/vinay/Desktop/softconsole_watershed/Water-shed/src/platform/mpfs_hal/common/mss_plic.h **** }
 677:/home/vinay/Desktop/softconsole_watershed/Water-shed/src/platform/mpfs_hal/common/mss_plic.h **** 
 678:/home/vinay/Desktop/softconsole_watershed/Water-shed/src/platform/mpfs_hal/common/mss_plic.h **** /***************************************************************************//**
 679:/home/vinay/Desktop/softconsole_watershed/Water-shed/src/platform/mpfs_hal/common/mss_plic.h ****  * The function PLIC_DisableIRQ() disables the external interrupt for the
 680:/home/vinay/Desktop/softconsole_watershed/Water-shed/src/platform/mpfs_hal/common/mss_plic.h ****  * interrupt number indicated by the parameter IRQn.
 681:/home/vinay/Desktop/softconsole_watershed/Water-shed/src/platform/mpfs_hal/common/mss_plic.h **** 
 682:/home/vinay/Desktop/softconsole_watershed/Water-shed/src/platform/mpfs_hal/common/mss_plic.h ****  * NOTE:
 683:/home/vinay/Desktop/softconsole_watershed/Water-shed/src/platform/mpfs_hal/common/mss_plic.h ****  *     This function can be used to disable the external interrupt from outside
 684:/home/vinay/Desktop/softconsole_watershed/Water-shed/src/platform/mpfs_hal/common/mss_plic.h ****  *     external interrupt handler function.
 685:/home/vinay/Desktop/softconsole_watershed/Water-shed/src/platform/mpfs_hal/common/mss_plic.h ****  *     This function MUST NOT be used from within the External Interrupt
 686:/home/vinay/Desktop/softconsole_watershed/Water-shed/src/platform/mpfs_hal/common/mss_plic.h ****  *     handler.
 687:/home/vinay/Desktop/softconsole_watershed/Water-shed/src/platform/mpfs_hal/common/mss_plic.h ****  *     If you wish to disable the external interrupt while the interrupt handler
 688:/home/vinay/Desktop/softconsole_watershed/Water-shed/src/platform/mpfs_hal/common/mss_plic.h ****  *     for that external interrupt is executing then you must use the return
 689:/home/vinay/Desktop/softconsole_watershed/Water-shed/src/platform/mpfs_hal/common/mss_plic.h ****  *     value EXT_IRQ_DISABLE to return from the extern interrupt handler.
 690:/home/vinay/Desktop/softconsole_watershed/Water-shed/src/platform/mpfs_hal/common/mss_plic.h ****  */
 691:/home/vinay/Desktop/softconsole_watershed/Water-shed/src/platform/mpfs_hal/common/mss_plic.h **** static inline void PLIC_DisableIRQ(PLIC_IRQn_Type IRQn)
 692:/home/vinay/Desktop/softconsole_watershed/Water-shed/src/platform/mpfs_hal/common/mss_plic.h **** {
 693:/home/vinay/Desktop/softconsole_watershed/Water-shed/src/platform/mpfs_hal/common/mss_plic.h ****     uint32_t current;
 694:/home/vinay/Desktop/softconsole_watershed/Water-shed/src/platform/mpfs_hal/common/mss_plic.h ****     uint64_t hart_id  = read_csr(mhartid);
 695:/home/vinay/Desktop/softconsole_watershed/Water-shed/src/platform/mpfs_hal/common/mss_plic.h **** 
 696:/home/vinay/Desktop/softconsole_watershed/Water-shed/src/platform/mpfs_hal/common/mss_plic.h ****     switch(hart_id)
 697:/home/vinay/Desktop/softconsole_watershed/Water-shed/src/platform/mpfs_hal/common/mss_plic.h ****     {
 698:/home/vinay/Desktop/softconsole_watershed/Water-shed/src/platform/mpfs_hal/common/mss_plic.h ****         case 0:
 699:/home/vinay/Desktop/softconsole_watershed/Water-shed/src/platform/mpfs_hal/common/mss_plic.h ****             current = PLIC->HART0_MMODE_ENA[IRQn / 32U];
 700:/home/vinay/Desktop/softconsole_watershed/Water-shed/src/platform/mpfs_hal/common/mss_plic.h ****             current &= ~((uint32_t)1 << (IRQn % 32U));
 701:/home/vinay/Desktop/softconsole_watershed/Water-shed/src/platform/mpfs_hal/common/mss_plic.h ****             PLIC->HART0_MMODE_ENA[IRQn / 32U] = current;
 702:/home/vinay/Desktop/softconsole_watershed/Water-shed/src/platform/mpfs_hal/common/mss_plic.h ****             break;
 703:/home/vinay/Desktop/softconsole_watershed/Water-shed/src/platform/mpfs_hal/common/mss_plic.h ****         case 1:
 704:/home/vinay/Desktop/softconsole_watershed/Water-shed/src/platform/mpfs_hal/common/mss_plic.h ****             current = PLIC->HART1_MMODE_ENA[IRQn / 32U];
 705:/home/vinay/Desktop/softconsole_watershed/Water-shed/src/platform/mpfs_hal/common/mss_plic.h ****             current &= ~((uint32_t)1 << (IRQn % 32U));
 706:/home/vinay/Desktop/softconsole_watershed/Water-shed/src/platform/mpfs_hal/common/mss_plic.h ****             PLIC->HART1_MMODE_ENA[IRQn / 32U] = current;
 707:/home/vinay/Desktop/softconsole_watershed/Water-shed/src/platform/mpfs_hal/common/mss_plic.h ****             break;
 708:/home/vinay/Desktop/softconsole_watershed/Water-shed/src/platform/mpfs_hal/common/mss_plic.h ****         case 2:
 709:/home/vinay/Desktop/softconsole_watershed/Water-shed/src/platform/mpfs_hal/common/mss_plic.h ****             current = PLIC->HART2_MMODE_ENA[IRQn / 32U];
 710:/home/vinay/Desktop/softconsole_watershed/Water-shed/src/platform/mpfs_hal/common/mss_plic.h ****             current &= ~((uint32_t)1 << (IRQn % 32U));
 711:/home/vinay/Desktop/softconsole_watershed/Water-shed/src/platform/mpfs_hal/common/mss_plic.h ****             PLIC->HART2_MMODE_ENA[IRQn / 32U] = current;
 712:/home/vinay/Desktop/softconsole_watershed/Water-shed/src/platform/mpfs_hal/common/mss_plic.h ****             break;
 713:/home/vinay/Desktop/softconsole_watershed/Water-shed/src/platform/mpfs_hal/common/mss_plic.h ****         case 3:
 714:/home/vinay/Desktop/softconsole_watershed/Water-shed/src/platform/mpfs_hal/common/mss_plic.h ****             current = PLIC->HART3_MMODE_ENA[IRQn / 32U];
 715:/home/vinay/Desktop/softconsole_watershed/Water-shed/src/platform/mpfs_hal/common/mss_plic.h ****             current &= ~((uint32_t)1 << (IRQn % 32U));
 716:/home/vinay/Desktop/softconsole_watershed/Water-shed/src/platform/mpfs_hal/common/mss_plic.h ****             PLIC->HART3_MMODE_ENA[IRQn / 32U] = current;
 717:/home/vinay/Desktop/softconsole_watershed/Water-shed/src/platform/mpfs_hal/common/mss_plic.h ****             break;
 718:/home/vinay/Desktop/softconsole_watershed/Water-shed/src/platform/mpfs_hal/common/mss_plic.h ****         case 4:
 719:/home/vinay/Desktop/softconsole_watershed/Water-shed/src/platform/mpfs_hal/common/mss_plic.h ****             current = PLIC->HART4_MMODE_ENA[IRQn / 32U];
 720:/home/vinay/Desktop/softconsole_watershed/Water-shed/src/platform/mpfs_hal/common/mss_plic.h ****             current &= ~((uint32_t)1 << (IRQn % 32U));
 721:/home/vinay/Desktop/softconsole_watershed/Water-shed/src/platform/mpfs_hal/common/mss_plic.h ****             PLIC->HART4_MMODE_ENA[IRQn / 32U] = current;
 722:/home/vinay/Desktop/softconsole_watershed/Water-shed/src/platform/mpfs_hal/common/mss_plic.h ****             break;
 723:/home/vinay/Desktop/softconsole_watershed/Water-shed/src/platform/mpfs_hal/common/mss_plic.h ****         default:
 724:/home/vinay/Desktop/softconsole_watershed/Water-shed/src/platform/mpfs_hal/common/mss_plic.h ****             break;
 725:/home/vinay/Desktop/softconsole_watershed/Water-shed/src/platform/mpfs_hal/common/mss_plic.h ****     }
 726:/home/vinay/Desktop/softconsole_watershed/Water-shed/src/platform/mpfs_hal/common/mss_plic.h **** }
 727:/home/vinay/Desktop/softconsole_watershed/Water-shed/src/platform/mpfs_hal/common/mss_plic.h **** 
 728:/home/vinay/Desktop/softconsole_watershed/Water-shed/src/platform/mpfs_hal/common/mss_plic.h **** /***************************************************************************//**
 729:/home/vinay/Desktop/softconsole_watershed/Water-shed/src/platform/mpfs_hal/common/mss_plic.h ****  * The function PLIC_SetPriority() sets the priority for the external interrupt
 730:/home/vinay/Desktop/softconsole_watershed/Water-shed/src/platform/mpfs_hal/common/mss_plic.h ****  * for the interrupt number indicated by the parameter IRQn.
 731:/home/vinay/Desktop/softconsole_watershed/Water-shed/src/platform/mpfs_hal/common/mss_plic.h ****  */
 732:/home/vinay/Desktop/softconsole_watershed/Water-shed/src/platform/mpfs_hal/common/mss_plic.h **** static inline void PLIC_SetPriority(PLIC_IRQn_Type IRQn, uint32_t priority)
 733:/home/vinay/Desktop/softconsole_watershed/Water-shed/src/platform/mpfs_hal/common/mss_plic.h **** {
 734:/home/vinay/Desktop/softconsole_watershed/Water-shed/src/platform/mpfs_hal/common/mss_plic.h ****     if((IRQn > PLIC_INVALID_INT_OFFSET) && (IRQn < PLIC_NUM_SOURCES))
 735:/home/vinay/Desktop/softconsole_watershed/Water-shed/src/platform/mpfs_hal/common/mss_plic.h ****     {
 736:/home/vinay/Desktop/softconsole_watershed/Water-shed/src/platform/mpfs_hal/common/mss_plic.h ****         PLIC->SOURCE_PRIORITY[IRQn-1] = priority;
 737:/home/vinay/Desktop/softconsole_watershed/Water-shed/src/platform/mpfs_hal/common/mss_plic.h ****     }
 738:/home/vinay/Desktop/softconsole_watershed/Water-shed/src/platform/mpfs_hal/common/mss_plic.h **** }
 739:/home/vinay/Desktop/softconsole_watershed/Water-shed/src/platform/mpfs_hal/common/mss_plic.h **** 
 740:/home/vinay/Desktop/softconsole_watershed/Water-shed/src/platform/mpfs_hal/common/mss_plic.h **** /***************************************************************************//**
 741:/home/vinay/Desktop/softconsole_watershed/Water-shed/src/platform/mpfs_hal/common/mss_plic.h ****  * The function PLIC_GetPriority() returns the priority for the external
 742:/home/vinay/Desktop/softconsole_watershed/Water-shed/src/platform/mpfs_hal/common/mss_plic.h ****  * interrupt for the interrupt number indicated by the parameter IRQn.
 743:/home/vinay/Desktop/softconsole_watershed/Water-shed/src/platform/mpfs_hal/common/mss_plic.h ****  */
 744:/home/vinay/Desktop/softconsole_watershed/Water-shed/src/platform/mpfs_hal/common/mss_plic.h **** static inline uint32_t PLIC_GetPriority(PLIC_IRQn_Type IRQn)
 745:/home/vinay/Desktop/softconsole_watershed/Water-shed/src/platform/mpfs_hal/common/mss_plic.h **** {
 746:/home/vinay/Desktop/softconsole_watershed/Water-shed/src/platform/mpfs_hal/common/mss_plic.h ****     uint32_t ret_val = 0U;
 747:/home/vinay/Desktop/softconsole_watershed/Water-shed/src/platform/mpfs_hal/common/mss_plic.h **** 
 748:/home/vinay/Desktop/softconsole_watershed/Water-shed/src/platform/mpfs_hal/common/mss_plic.h ****     if((IRQn > PLIC_INVALID_INT_OFFSET) && (IRQn < PLIC_NUM_SOURCES))
 749:/home/vinay/Desktop/softconsole_watershed/Water-shed/src/platform/mpfs_hal/common/mss_plic.h ****     {
 750:/home/vinay/Desktop/softconsole_watershed/Water-shed/src/platform/mpfs_hal/common/mss_plic.h ****         ret_val = PLIC->SOURCE_PRIORITY[IRQn-1];
 751:/home/vinay/Desktop/softconsole_watershed/Water-shed/src/platform/mpfs_hal/common/mss_plic.h ****     }
 752:/home/vinay/Desktop/softconsole_watershed/Water-shed/src/platform/mpfs_hal/common/mss_plic.h **** 
 753:/home/vinay/Desktop/softconsole_watershed/Water-shed/src/platform/mpfs_hal/common/mss_plic.h ****     return(ret_val);
 754:/home/vinay/Desktop/softconsole_watershed/Water-shed/src/platform/mpfs_hal/common/mss_plic.h **** }
 755:/home/vinay/Desktop/softconsole_watershed/Water-shed/src/platform/mpfs_hal/common/mss_plic.h **** 
 756:/home/vinay/Desktop/softconsole_watershed/Water-shed/src/platform/mpfs_hal/common/mss_plic.h **** 
 757:/home/vinay/Desktop/softconsole_watershed/Water-shed/src/platform/mpfs_hal/common/mss_plic.h **** static inline uint32_t PLIC_pending(PLIC_IRQn_Type IRQn)
 758:/home/vinay/Desktop/softconsole_watershed/Water-shed/src/platform/mpfs_hal/common/mss_plic.h **** {
 759:/home/vinay/Desktop/softconsole_watershed/Water-shed/src/platform/mpfs_hal/common/mss_plic.h ****     return (PLIC->PENDING_ARRAY[IRQn/32U] & (0x01U<<(IRQn%32U)));
 760:/home/vinay/Desktop/softconsole_watershed/Water-shed/src/platform/mpfs_hal/common/mss_plic.h **** }
 761:/home/vinay/Desktop/softconsole_watershed/Water-shed/src/platform/mpfs_hal/common/mss_plic.h **** 
 762:/home/vinay/Desktop/softconsole_watershed/Water-shed/src/platform/mpfs_hal/common/mss_plic.h **** /***************************************************************************//**
 763:/home/vinay/Desktop/softconsole_watershed/Water-shed/src/platform/mpfs_hal/common/mss_plic.h ****  * The function PLIC_ClaimIRQ() claims the interrupt from the PLIC controller.
 764:/home/vinay/Desktop/softconsole_watershed/Water-shed/src/platform/mpfs_hal/common/mss_plic.h ****  */
 765:/home/vinay/Desktop/softconsole_watershed/Water-shed/src/platform/mpfs_hal/common/mss_plic.h **** static inline uint32_t PLIC_ClaimIRQ(void)
 766:/home/vinay/Desktop/softconsole_watershed/Water-shed/src/platform/mpfs_hal/common/mss_plic.h **** {
  55              		.loc 2 766 1
  56              		.cfi_startproc
  57 0000 0111     		addi	sp,sp,-32
  58              		.cfi_def_cfa_offset 32
  59 0002 22EC     		sd	s0,24(sp)
  60              		.cfi_offset 8, -8
  61 0004 0010     		addi	s0,sp,32
  62              		.cfi_def_cfa 8, 0
  63              	.LBB2:
 767:/home/vinay/Desktop/softconsole_watershed/Water-shed/src/platform/mpfs_hal/common/mss_plic.h ****     uint64_t hart_id  = read_csr(mhartid);
  64              		.loc 2 767 25
  65              	 #APP
  66              	# 767 "/home/vinay/Desktop/softconsole_watershed/Water-shed/src/platform/mpfs_hal/common/mss_plic.h
 768              	
  67              		csrr a5, mhartid
  68              	# 0 "" 2
  69              	 #NO_APP
  70 000a 2334F4FE 		sd	a5,-24(s0)
  71 000e 833784FE 		ld	a5,-24(s0)
  72              	.LBE2:
 767:/home/vinay/Desktop/softconsole_watershed/Water-shed/src/platform/mpfs_hal/common/mss_plic.h ****     uint64_t hart_id  = read_csr(mhartid);
  73              		.loc 2 767 14
  74 0012 2330F4FE 		sd	a5,-32(s0)
 769:/home/vinay/Desktop/softconsole_watershed/Water-shed/src/platform/mpfs_hal/common/mss_plic.h ****     return (PLIC->TARGET[plic_hart_lookup[hart_id]].CLAIM_COMPLETE);
  75              		.loc 2 769 17
  76 0016 3707000C 		li	a4,201326592
  77              		.loc 2 769 42
  78 001a 97060000 		lla	a3,plic_hart_lookup
  78      93860600 
  79 0022 833704FE 		ld	a5,-32(s0)
  80 0026 8E07     		slli	a5,a5,3
  81 0028 B697     		add	a5,a3,a5
  82 002a 9C63     		ld	a5,0(a5)
  83              		.loc 2 769 52
  84 002c 93870720 		addi	a5,a5,512
  85 0030 B207     		slli	a5,a5,12
  86 0032 BA97     		add	a5,a4,a5
  87 0034 DC43     		lw	a5,4(a5)
  88 0036 8127     		sext.w	a5,a5
 770:/home/vinay/Desktop/softconsole_watershed/Water-shed/src/platform/mpfs_hal/common/mss_plic.h **** }
  89              		.loc 2 770 1
  90 0038 3E85     		mv	a0,a5
  91 003a 6264     		ld	s0,24(sp)
  92              		.cfi_restore 8
  93              		.cfi_def_cfa 2, 32
  94 003c 0561     		addi	sp,sp,32
  95              		.cfi_def_cfa_offset 0
  96 003e 8280     		jr	ra
  97              		.cfi_endproc
  98              	.LFE12:
 100              		.section	.text.PLIC_CompleteIRQ,"ax",@progbits
 101              		.align	1
 103              	PLIC_CompleteIRQ:
 104              	.LFB13:
 771:/home/vinay/Desktop/softconsole_watershed/Water-shed/src/platform/mpfs_hal/common/mss_plic.h **** 
 772:/home/vinay/Desktop/softconsole_watershed/Water-shed/src/platform/mpfs_hal/common/mss_plic.h **** /***************************************************************************//**
 773:/home/vinay/Desktop/softconsole_watershed/Water-shed/src/platform/mpfs_hal/common/mss_plic.h ****  * The function PLIC_CompleteIRQ() indicates to the PLIC controller the
 774:/home/vinay/Desktop/softconsole_watershed/Water-shed/src/platform/mpfs_hal/common/mss_plic.h ****  * interrupt is processed and claim is complete.
 775:/home/vinay/Desktop/softconsole_watershed/Water-shed/src/platform/mpfs_hal/common/mss_plic.h ****  */
 776:/home/vinay/Desktop/softconsole_watershed/Water-shed/src/platform/mpfs_hal/common/mss_plic.h **** static inline void PLIC_CompleteIRQ(uint32_t source)
 777:/home/vinay/Desktop/softconsole_watershed/Water-shed/src/platform/mpfs_hal/common/mss_plic.h **** {
 105              		.loc 2 777 1
 106              		.cfi_startproc
 107 0000 7971     		addi	sp,sp,-48
 108              		.cfi_def_cfa_offset 48
 109 0002 22F4     		sd	s0,40(sp)
 110              		.cfi_offset 8, -8
 111 0004 0018     		addi	s0,sp,48
 112              		.cfi_def_cfa 8, 0
 113 0006 AA87     		mv	a5,a0
 114 0008 232EF4FC 		sw	a5,-36(s0)
 115              	.LBB3:
 778:/home/vinay/Desktop/softconsole_watershed/Water-shed/src/platform/mpfs_hal/common/mss_plic.h ****     uint64_t hart_id  = read_csr(mhartid);
 116              		.loc 2 778 25
 117              	 #APP
 118              	# 778 "/home/vinay/Desktop/softconsole_watershed/Water-shed/src/platform/mpfs_hal/common/mss_plic.h
 779              	
 119              		csrr a5, mhartid
 120              	# 0 "" 2
 121              	 #NO_APP
 122 0010 2334F4FE 		sd	a5,-24(s0)
 123 0014 833784FE 		ld	a5,-24(s0)
 124              	.LBE3:
 778:/home/vinay/Desktop/softconsole_watershed/Water-shed/src/platform/mpfs_hal/common/mss_plic.h ****     uint64_t hart_id  = read_csr(mhartid);
 125              		.loc 2 778 14
 126 0018 2330F4FE 		sd	a5,-32(s0)
 780:/home/vinay/Desktop/softconsole_watershed/Water-shed/src/platform/mpfs_hal/common/mss_plic.h ****     ASSERT(source <= MAX_PLIC_INT);
 127              		.loc 2 780 5
 128 001c 8327C4FD 		lw	a5,-36(s0)
 129 0020 1B870700 		sext.w	a4,a5
 130 0024 9307A00B 		li	a5,186
 131 0028 63F3E700 		bleu	a4,a5,.L5
 132              		.loc 2 780 5 is_stmt 0 discriminator 1
 133              	 #APP
 134              	# 780 "/home/vinay/Desktop/softconsole_watershed/Water-shed/src/platform/mpfs_hal/common/mss_plic.h
 781              	
 135              		ebreak
 136              	# 0 "" 2
 137              	 #NO_APP
 138              	.L5:
 782:/home/vinay/Desktop/softconsole_watershed/Water-shed/src/platform/mpfs_hal/common/mss_plic.h ****     PLIC->TARGET[plic_hart_lookup[hart_id]].CLAIM_COMPLETE  = source;
 139              		.loc 2 782 9 is_stmt 1
 140 002e 3707000C 		li	a4,201326592
 141              		.loc 2 782 34
 142 0032 97060000 		lla	a3,plic_hart_lookup
 142      93860600 
 143 003a 833704FE 		ld	a5,-32(s0)
 144 003e 8E07     		slli	a5,a5,3
 145 0040 B697     		add	a5,a3,a5
 146 0042 9C63     		ld	a5,0(a5)
 147              		.loc 2 782 61
 148 0044 93870720 		addi	a5,a5,512
 149 0048 B207     		slli	a5,a5,12
 150 004a BA97     		add	a5,a4,a5
 151 004c 0327C4FD 		lw	a4,-36(s0)
 152 0050 D8C3     		sw	a4,4(a5)
 783:/home/vinay/Desktop/softconsole_watershed/Water-shed/src/platform/mpfs_hal/common/mss_plic.h **** }
 153              		.loc 2 783 1
 154 0052 0100     		nop
 155 0054 2274     		ld	s0,40(sp)
 156              		.cfi_restore 8
 157              		.cfi_def_cfa 2, 48
 158 0056 4561     		addi	sp,sp,48
 159              		.cfi_def_cfa_offset 0
 160 0058 8280     		jr	ra
 161              		.cfi_endproc
 162              	.LFE13:
 164              		.section	.text.PLIC_ClearPendingIRQ,"ax",@progbits
 165              		.align	1
 167              	PLIC_ClearPendingIRQ:
 168              	.LFB15:
 784:/home/vinay/Desktop/softconsole_watershed/Water-shed/src/platform/mpfs_hal/common/mss_plic.h **** 
 785:/home/vinay/Desktop/softconsole_watershed/Water-shed/src/platform/mpfs_hal/common/mss_plic.h **** /***************************************************************************//**
 786:/home/vinay/Desktop/softconsole_watershed/Water-shed/src/platform/mpfs_hal/common/mss_plic.h ****  *
 787:/home/vinay/Desktop/softconsole_watershed/Water-shed/src/platform/mpfs_hal/common/mss_plic.h ****  * The function PLIC_SetPriority_Threshold() sets the threshold for a particular
 788:/home/vinay/Desktop/softconsole_watershed/Water-shed/src/platform/mpfs_hal/common/mss_plic.h ****  * hart. The default threshold on reset is 0.
 789:/home/vinay/Desktop/softconsole_watershed/Water-shed/src/platform/mpfs_hal/common/mss_plic.h ****  * The PFSoC Core Complex supports setting of an interrupt priority threshold
 790:/home/vinay/Desktop/softconsole_watershed/Water-shed/src/platform/mpfs_hal/common/mss_plic.h ****  * via the threshold register. The threshold is a WARL field, where the PFSoC
 791:/home/vinay/Desktop/softconsole_watershed/Water-shed/src/platform/mpfs_hal/common/mss_plic.h ****  * Core Complex supports a maximum threshold of 7.
 792:/home/vinay/Desktop/softconsole_watershed/Water-shed/src/platform/mpfs_hal/common/mss_plic.h ****  * The PFSoC Core Complex will mask all PLIC interrupts of a priority less than
 793:/home/vinay/Desktop/softconsole_watershed/Water-shed/src/platform/mpfs_hal/common/mss_plic.h ****  * or equal to threshold. For example, a threshold value of zero permits all
 794:/home/vinay/Desktop/softconsole_watershed/Water-shed/src/platform/mpfs_hal/common/mss_plic.h ****  * interrupts with non-zero priority, whereas a value of 7 masks all
 795:/home/vinay/Desktop/softconsole_watershed/Water-shed/src/platform/mpfs_hal/common/mss_plic.h ****  * interrupts.
 796:/home/vinay/Desktop/softconsole_watershed/Water-shed/src/platform/mpfs_hal/common/mss_plic.h ****  */
 797:/home/vinay/Desktop/softconsole_watershed/Water-shed/src/platform/mpfs_hal/common/mss_plic.h **** static inline void PLIC_SetPriority_Threshold(uint32_t threshold)
 798:/home/vinay/Desktop/softconsole_watershed/Water-shed/src/platform/mpfs_hal/common/mss_plic.h **** {
 799:/home/vinay/Desktop/softconsole_watershed/Water-shed/src/platform/mpfs_hal/common/mss_plic.h ****     uint64_t hart_id  = read_csr(mhartid);
 800:/home/vinay/Desktop/softconsole_watershed/Water-shed/src/platform/mpfs_hal/common/mss_plic.h **** 
 801:/home/vinay/Desktop/softconsole_watershed/Water-shed/src/platform/mpfs_hal/common/mss_plic.h ****     ASSERT(threshold <= 7);
 802:/home/vinay/Desktop/softconsole_watershed/Water-shed/src/platform/mpfs_hal/common/mss_plic.h **** 
 803:/home/vinay/Desktop/softconsole_watershed/Water-shed/src/platform/mpfs_hal/common/mss_plic.h ****     PLIC->TARGET[plic_hart_lookup[hart_id]].PRIORITY_THRESHOLD  = threshold;
 804:/home/vinay/Desktop/softconsole_watershed/Water-shed/src/platform/mpfs_hal/common/mss_plic.h **** }
 805:/home/vinay/Desktop/softconsole_watershed/Water-shed/src/platform/mpfs_hal/common/mss_plic.h **** 
 806:/home/vinay/Desktop/softconsole_watershed/Water-shed/src/platform/mpfs_hal/common/mss_plic.h **** /***************************************************************************//**
 807:/home/vinay/Desktop/softconsole_watershed/Water-shed/src/platform/mpfs_hal/common/mss_plic.h ****  *  PLIC_ClearPendingIRQ(void)
 808:/home/vinay/Desktop/softconsole_watershed/Water-shed/src/platform/mpfs_hal/common/mss_plic.h ****  *  This is only called by the startup hart and only once
 809:/home/vinay/Desktop/softconsole_watershed/Water-shed/src/platform/mpfs_hal/common/mss_plic.h ****  *  Clears any pending interrupts as PLIC can be in unknown state on startup
 810:/home/vinay/Desktop/softconsole_watershed/Water-shed/src/platform/mpfs_hal/common/mss_plic.h ****  */
 811:/home/vinay/Desktop/softconsole_watershed/Water-shed/src/platform/mpfs_hal/common/mss_plic.h **** static inline void PLIC_ClearPendingIRQ(void)
 812:/home/vinay/Desktop/softconsole_watershed/Water-shed/src/platform/mpfs_hal/common/mss_plic.h **** {
 169              		.loc 2 812 1
 170              		.cfi_startproc
 171 0000 0111     		addi	sp,sp,-32
 172              		.cfi_def_cfa_offset 32
 173 0002 06EC     		sd	ra,24(sp)
 174 0004 22E8     		sd	s0,16(sp)
 175              		.cfi_offset 1, -8
 176              		.cfi_offset 8, -16
 177 0006 0010     		addi	s0,sp,32
 178              		.cfi_def_cfa 8, 0
 813:/home/vinay/Desktop/softconsole_watershed/Water-shed/src/platform/mpfs_hal/common/mss_plic.h ****     volatile uint32_t int_num  = PLIC_ClaimIRQ();
 179              		.loc 2 813 34
 180 0008 97000000 		call	PLIC_ClaimIRQ
 180      E7800000 
 181 0010 AA87     		mv	a5,a0
 182 0012 8127     		sext.w	a5,a5
 183              		.loc 2 813 23
 184 0014 2326F4FE 		sw	a5,-20(s0)
 814:/home/vinay/Desktop/softconsole_watershed/Water-shed/src/platform/mpfs_hal/common/mss_plic.h ****     volatile int32_t wait_possible_int;
 815:/home/vinay/Desktop/softconsole_watershed/Water-shed/src/platform/mpfs_hal/common/mss_plic.h **** 
 816:/home/vinay/Desktop/softconsole_watershed/Water-shed/src/platform/mpfs_hal/common/mss_plic.h ****     while ( int_num != PLIC_INVALID_INT_OFFSET)
 185              		.loc 2 816 11
 186 0018 81A0     		j	.L7
 187              	.L10:
 817:/home/vinay/Desktop/softconsole_watershed/Water-shed/src/platform/mpfs_hal/common/mss_plic.h ****     {
 818:/home/vinay/Desktop/softconsole_watershed/Water-shed/src/platform/mpfs_hal/common/mss_plic.h ****         PLIC_CompleteIRQ(int_num);
 188              		.loc 2 818 9
 189 001a 8327C4FE 		lw	a5,-20(s0)
 190 001e 8127     		sext.w	a5,a5
 191 0020 3E85     		mv	a0,a5
 192 0022 97000000 		call	PLIC_CompleteIRQ
 192      E7800000 
 819:/home/vinay/Desktop/softconsole_watershed/Water-shed/src/platform/mpfs_hal/common/mss_plic.h ****         wait_possible_int = 0xFU;
 193              		.loc 2 819 27
 194 002a BD47     		li	a5,15
 195 002c 2324F4FE 		sw	a5,-24(s0)
 820:/home/vinay/Desktop/softconsole_watershed/Water-shed/src/platform/mpfs_hal/common/mss_plic.h ****         while (wait_possible_int)
 196              		.loc 2 820 15
 197 0030 01A8     		j	.L8
 198              	.L9:
 821:/home/vinay/Desktop/softconsole_watershed/Water-shed/src/platform/mpfs_hal/common/mss_plic.h ****         {
 822:/home/vinay/Desktop/softconsole_watershed/Water-shed/src/platform/mpfs_hal/common/mss_plic.h ****             wait_possible_int--;
 199              		.loc 2 822 30
 200 0032 832784FE 		lw	a5,-24(s0)
 201 0036 8127     		sext.w	a5,a5
 202 0038 FD37     		addiw	a5,a5,-1
 203 003a 8127     		sext.w	a5,a5
 204 003c 2324F4FE 		sw	a5,-24(s0)
 205              	.L8:
 820:/home/vinay/Desktop/softconsole_watershed/Water-shed/src/platform/mpfs_hal/common/mss_plic.h ****         while (wait_possible_int)
 206              		.loc 2 820 16
 207 0040 832784FE 		lw	a5,-24(s0)
 208 0044 8127     		sext.w	a5,a5
 820:/home/vinay/Desktop/softconsole_watershed/Water-shed/src/platform/mpfs_hal/common/mss_plic.h ****         while (wait_possible_int)
 209              		.loc 2 820 15
 210 0046 F5F7     		bne	a5,zero,.L9
 823:/home/vinay/Desktop/softconsole_watershed/Water-shed/src/platform/mpfs_hal/common/mss_plic.h ****         }
 824:/home/vinay/Desktop/softconsole_watershed/Water-shed/src/platform/mpfs_hal/common/mss_plic.h ****         int_num  = PLIC_ClaimIRQ(); /* obtain interrupt, auto clears  */
 211              		.loc 2 824 20
 212 0048 97000000 		call	PLIC_ClaimIRQ
 212      E7800000 
 213 0050 AA87     		mv	a5,a0
 214 0052 8127     		sext.w	a5,a5
 215              		.loc 2 824 18
 216 0054 2326F4FE 		sw	a5,-20(s0)
 217              	.L7:
 816:/home/vinay/Desktop/softconsole_watershed/Water-shed/src/platform/mpfs_hal/common/mss_plic.h ****     {
 218              		.loc 2 816 21
 219 0058 8327C4FE 		lw	a5,-20(s0)
 220 005c 8127     		sext.w	a5,a5
 816:/home/vinay/Desktop/softconsole_watershed/Water-shed/src/platform/mpfs_hal/common/mss_plic.h ****     {
 221              		.loc 2 816 11
 222 005e D5FF     		bne	a5,zero,.L10
 825:/home/vinay/Desktop/softconsole_watershed/Water-shed/src/platform/mpfs_hal/common/mss_plic.h ****     }
 826:/home/vinay/Desktop/softconsole_watershed/Water-shed/src/platform/mpfs_hal/common/mss_plic.h **** }
 223              		.loc 2 826 1
 224 0060 0100     		nop
 225 0062 E260     		ld	ra,24(sp)
 226              		.cfi_restore 1
 227 0064 4264     		ld	s0,16(sp)
 228              		.cfi_restore 8
 229              		.cfi_def_cfa 2, 32
 230 0066 0561     		addi	sp,sp,32
 231              		.cfi_def_cfa_offset 0
 232 0068 8280     		jr	ra
 233              		.cfi_endproc
 234              	.LFE15:
 236              		.section	.text.PLIC_init_on_reset,"ax",@progbits
 237              		.align	1
 239              	PLIC_init_on_reset:
 240              	.LFB16:
 827:/home/vinay/Desktop/softconsole_watershed/Water-shed/src/platform/mpfs_hal/common/mss_plic.h **** 
 828:/home/vinay/Desktop/softconsole_watershed/Water-shed/src/platform/mpfs_hal/common/mss_plic.h **** /***************************************************************************//**
 829:/home/vinay/Desktop/softconsole_watershed/Water-shed/src/platform/mpfs_hal/common/mss_plic.h ****  * This function is only called from one hart on startup
 830:/home/vinay/Desktop/softconsole_watershed/Water-shed/src/platform/mpfs_hal/common/mss_plic.h ****  */
 831:/home/vinay/Desktop/softconsole_watershed/Water-shed/src/platform/mpfs_hal/common/mss_plic.h **** static inline void PLIC_init_on_reset(void)
 832:/home/vinay/Desktop/softconsole_watershed/Water-shed/src/platform/mpfs_hal/common/mss_plic.h **** {
 241              		.loc 2 832 1
 242              		.cfi_startproc
 243 0000 0111     		addi	sp,sp,-32
 244              		.cfi_def_cfa_offset 32
 245 0002 06EC     		sd	ra,24(sp)
 246 0004 22E8     		sd	s0,16(sp)
 247              		.cfi_offset 1, -8
 248              		.cfi_offset 8, -16
 249 0006 0010     		addi	s0,sp,32
 250              		.cfi_def_cfa 8, 0
 833:/home/vinay/Desktop/softconsole_watershed/Water-shed/src/platform/mpfs_hal/common/mss_plic.h ****     uint32_t inc;
 834:/home/vinay/Desktop/softconsole_watershed/Water-shed/src/platform/mpfs_hal/common/mss_plic.h **** 
 835:/home/vinay/Desktop/softconsole_watershed/Water-shed/src/platform/mpfs_hal/common/mss_plic.h ****     /* default all priorities so effectively disabled */
 836:/home/vinay/Desktop/softconsole_watershed/Water-shed/src/platform/mpfs_hal/common/mss_plic.h ****     for(inc = 0U; inc < PLIC_NUM_SOURCES; ++inc)
 251              		.loc 2 836 13
 252 0008 232604FE 		sw	zero,-20(s0)
 253              		.loc 2 836 5
 254 000c 31A8     		j	.L12
 255              	.L13:
 837:/home/vinay/Desktop/softconsole_watershed/Water-shed/src/platform/mpfs_hal/common/mss_plic.h ****     {
 838:/home/vinay/Desktop/softconsole_watershed/Water-shed/src/platform/mpfs_hal/common/mss_plic.h ****         /* priority must be greater than threshold to be enabled, so setting to
 839:/home/vinay/Desktop/softconsole_watershed/Water-shed/src/platform/mpfs_hal/common/mss_plic.h ****          * 7 disables */
 840:/home/vinay/Desktop/softconsole_watershed/Water-shed/src/platform/mpfs_hal/common/mss_plic.h ****         PLIC->SOURCE_PRIORITY[inc]  = 0U;
 256              		.loc 2 840 13 discriminator 3
 257 000e 3707000C 		li	a4,201326592
 258              		.loc 2 840 37 discriminator 3
 259 0012 8367C4FE 		lwu	a5,-20(s0)
 260 0016 8A07     		slli	a5,a5,2
 261 0018 BA97     		add	a5,a4,a5
 262 001a 23A20700 		sw	zero,4(a5)
 836:/home/vinay/Desktop/softconsole_watershed/Water-shed/src/platform/mpfs_hal/common/mss_plic.h ****     {
 263              		.loc 2 836 43 discriminator 3
 264 001e 8327C4FE 		lw	a5,-20(s0)
 265 0022 8527     		addiw	a5,a5,1
 266 0024 2326F4FE 		sw	a5,-20(s0)
 267              	.L12:
 836:/home/vinay/Desktop/softconsole_watershed/Water-shed/src/platform/mpfs_hal/common/mss_plic.h ****     {
 268              		.loc 2 836 5 discriminator 1
 269 0028 8327C4FE 		lw	a5,-20(s0)
 270 002c 1B870700 		sext.w	a4,a5
 271 0030 9307A00B 		li	a5,186
 272 0034 E3FDE7FC 		bleu	a4,a5,.L13
 841:/home/vinay/Desktop/softconsole_watershed/Water-shed/src/platform/mpfs_hal/common/mss_plic.h ****     }
 842:/home/vinay/Desktop/softconsole_watershed/Water-shed/src/platform/mpfs_hal/common/mss_plic.h **** 
 843:/home/vinay/Desktop/softconsole_watershed/Water-shed/src/platform/mpfs_hal/common/mss_plic.h ****     for(inc = 0U; inc < NUM_CLAIM_REGS; ++inc)
 273              		.loc 2 843 13
 274 0038 232604FE 		sw	zero,-20(s0)
 275              		.loc 2 843 5
 276 003c 05A0     		j	.L14
 277              	.L15:
 844:/home/vinay/Desktop/softconsole_watershed/Water-shed/src/platform/mpfs_hal/common/mss_plic.h ****     {
 845:/home/vinay/Desktop/softconsole_watershed/Water-shed/src/platform/mpfs_hal/common/mss_plic.h ****         PLIC->TARGET[inc].PRIORITY_THRESHOLD  = 7U;
 278              		.loc 2 845 13 discriminator 3
 279 003e 3707000C 		li	a4,201326592
 280              		.loc 2 845 47 discriminator 3
 281 0042 8367C4FE 		lwu	a5,-20(s0)
 282 0046 93870720 		addi	a5,a5,512
 283 004a B207     		slli	a5,a5,12
 284 004c BA97     		add	a5,a4,a5
 285 004e 1D47     		li	a4,7
 286 0050 98C3     		sw	a4,0(a5)
 843:/home/vinay/Desktop/softconsole_watershed/Water-shed/src/platform/mpfs_hal/common/mss_plic.h ****     {
 287              		.loc 2 843 41 discriminator 3
 288 0052 8327C4FE 		lw	a5,-20(s0)
 289 0056 8527     		addiw	a5,a5,1
 290 0058 2326F4FE 		sw	a5,-20(s0)
 291              	.L14:
 843:/home/vinay/Desktop/softconsole_watershed/Water-shed/src/platform/mpfs_hal/common/mss_plic.h ****     {
 292              		.loc 2 843 5 discriminator 1
 293 005c 8327C4FE 		lw	a5,-20(s0)
 294 0060 1B870700 		sext.w	a4,a5
 295 0064 A147     		li	a5,8
 296 0066 E3FCE7FC 		bleu	a4,a5,.L15
 846:/home/vinay/Desktop/softconsole_watershed/Water-shed/src/platform/mpfs_hal/common/mss_plic.h ****     }
 847:/home/vinay/Desktop/softconsole_watershed/Water-shed/src/platform/mpfs_hal/common/mss_plic.h **** 
 848:/home/vinay/Desktop/softconsole_watershed/Water-shed/src/platform/mpfs_hal/common/mss_plic.h ****     /* and clear all the enables */
 849:/home/vinay/Desktop/softconsole_watershed/Water-shed/src/platform/mpfs_hal/common/mss_plic.h ****     for(inc = 0UL; inc < PLIC_SET_UP_REGISTERS; inc++)
 297              		.loc 2 849 13
 298 006a 232604FE 		sw	zero,-20(s0)
 299              		.loc 2 849 5
 300 006e D5A0     		j	.L16
 301              	.L17:
 850:/home/vinay/Desktop/softconsole_watershed/Water-shed/src/platform/mpfs_hal/common/mss_plic.h ****     {
 851:/home/vinay/Desktop/softconsole_watershed/Water-shed/src/platform/mpfs_hal/common/mss_plic.h ****         PLIC->HART0_MMODE_ENA[inc] = 0U;
 302              		.loc 2 851 13 discriminator 3
 303 0070 3707000C 		li	a4,201326592
 304              		.loc 2 851 36 discriminator 3
 305 0074 8366C4FE 		lwu	a3,-20(s0)
 306 0078 8567     		li	a5,4096
 307 007a 93870780 		addi	a5,a5,-2048
 308 007e B697     		add	a5,a3,a5
 309 0080 8A07     		slli	a5,a5,2
 310 0082 BA97     		add	a5,a4,a5
 311 0084 23A00700 		sw	zero,0(a5)
 852:/home/vinay/Desktop/softconsole_watershed/Water-shed/src/platform/mpfs_hal/common/mss_plic.h ****         PLIC->HART1_MMODE_ENA[inc] = 0U;
 312              		.loc 2 852 13 discriminator 3
 313 0088 3707000C 		li	a4,201326592
 314              		.loc 2 852 36 discriminator 3
 315 008c 8366C4FE 		lwu	a3,-20(s0)
 316 0090 8567     		li	a5,4096
 317 0092 93870782 		addi	a5,a5,-2016
 318 0096 B697     		add	a5,a3,a5
 319 0098 8A07     		slli	a5,a5,2
 320 009a BA97     		add	a5,a4,a5
 321 009c 23A00700 		sw	zero,0(a5)
 853:/home/vinay/Desktop/softconsole_watershed/Water-shed/src/platform/mpfs_hal/common/mss_plic.h ****         PLIC->HART1_SMODE_ENA[inc] = 0U;
 322              		.loc 2 853 13 discriminator 3
 323 00a0 3707000C 		li	a4,201326592
 324              		.loc 2 853 36 discriminator 3
 325 00a4 8366C4FE 		lwu	a3,-20(s0)
 326 00a8 8567     		li	a5,4096
 327 00aa 93870784 		addi	a5,a5,-1984
 328 00ae B697     		add	a5,a3,a5
 329 00b0 8A07     		slli	a5,a5,2
 330 00b2 BA97     		add	a5,a4,a5
 331 00b4 23A00700 		sw	zero,0(a5)
 854:/home/vinay/Desktop/softconsole_watershed/Water-shed/src/platform/mpfs_hal/common/mss_plic.h ****         PLIC->HART2_MMODE_ENA[inc] = 0U;
 332              		.loc 2 854 13 discriminator 3
 333 00b8 3707000C 		li	a4,201326592
 334              		.loc 2 854 36 discriminator 3
 335 00bc 8366C4FE 		lwu	a3,-20(s0)
 336 00c0 8567     		li	a5,4096
 337 00c2 93870786 		addi	a5,a5,-1952
 338 00c6 B697     		add	a5,a3,a5
 339 00c8 8A07     		slli	a5,a5,2
 340 00ca BA97     		add	a5,a4,a5
 341 00cc 23A00700 		sw	zero,0(a5)
 855:/home/vinay/Desktop/softconsole_watershed/Water-shed/src/platform/mpfs_hal/common/mss_plic.h ****         PLIC->HART2_SMODE_ENA[inc] = 0U;
 342              		.loc 2 855 13 discriminator 3
 343 00d0 3707000C 		li	a4,201326592
 344              		.loc 2 855 36 discriminator 3
 345 00d4 8366C4FE 		lwu	a3,-20(s0)
 346 00d8 8567     		li	a5,4096
 347 00da 93870788 		addi	a5,a5,-1920
 348 00de B697     		add	a5,a3,a5
 349 00e0 8A07     		slli	a5,a5,2
 350 00e2 BA97     		add	a5,a4,a5
 351 00e4 23A00700 		sw	zero,0(a5)
 856:/home/vinay/Desktop/softconsole_watershed/Water-shed/src/platform/mpfs_hal/common/mss_plic.h ****         PLIC->HART3_MMODE_ENA[inc] = 0U;
 352              		.loc 2 856 13 discriminator 3
 353 00e8 3707000C 		li	a4,201326592
 354              		.loc 2 856 36 discriminator 3
 355 00ec 8366C4FE 		lwu	a3,-20(s0)
 356 00f0 8567     		li	a5,4096
 357 00f2 9387078A 		addi	a5,a5,-1888
 358 00f6 B697     		add	a5,a3,a5
 359 00f8 8A07     		slli	a5,a5,2
 360 00fa BA97     		add	a5,a4,a5
 361 00fc 23A00700 		sw	zero,0(a5)
 857:/home/vinay/Desktop/softconsole_watershed/Water-shed/src/platform/mpfs_hal/common/mss_plic.h ****         PLIC->HART3_SMODE_ENA[inc] = 0U;
 362              		.loc 2 857 13 discriminator 3
 363 0100 3707000C 		li	a4,201326592
 364              		.loc 2 857 36 discriminator 3
 365 0104 8366C4FE 		lwu	a3,-20(s0)
 366 0108 8567     		li	a5,4096
 367 010a 9387078C 		addi	a5,a5,-1856
 368 010e B697     		add	a5,a3,a5
 369 0110 8A07     		slli	a5,a5,2
 370 0112 BA97     		add	a5,a4,a5
 371 0114 23A00700 		sw	zero,0(a5)
 858:/home/vinay/Desktop/softconsole_watershed/Water-shed/src/platform/mpfs_hal/common/mss_plic.h ****         PLIC->HART4_MMODE_ENA[inc] = 0U;
 372              		.loc 2 858 13 discriminator 3
 373 0118 3707000C 		li	a4,201326592
 374              		.loc 2 858 36 discriminator 3
 375 011c 8366C4FE 		lwu	a3,-20(s0)
 376 0120 8567     		li	a5,4096
 377 0122 9387078E 		addi	a5,a5,-1824
 378 0126 B697     		add	a5,a3,a5
 379 0128 8A07     		slli	a5,a5,2
 380 012a BA97     		add	a5,a4,a5
 381 012c 23A00700 		sw	zero,0(a5)
 859:/home/vinay/Desktop/softconsole_watershed/Water-shed/src/platform/mpfs_hal/common/mss_plic.h ****         PLIC->HART4_SMODE_ENA[inc] = 0U;
 382              		.loc 2 859 13 discriminator 3
 383 0130 3707000C 		li	a4,201326592
 384              		.loc 2 859 36 discriminator 3
 385 0134 8366C4FE 		lwu	a3,-20(s0)
 386 0138 8567     		li	a5,4096
 387 013a 93870790 		addi	a5,a5,-1792
 388 013e B697     		add	a5,a3,a5
 389 0140 8A07     		slli	a5,a5,2
 390 0142 BA97     		add	a5,a4,a5
 391 0144 23A00700 		sw	zero,0(a5)
 849:/home/vinay/Desktop/softconsole_watershed/Water-shed/src/platform/mpfs_hal/common/mss_plic.h ****     {
 392              		.loc 2 849 52 discriminator 3
 393 0148 8327C4FE 		lw	a5,-20(s0)
 394 014c 8527     		addiw	a5,a5,1
 395 014e 2326F4FE 		sw	a5,-20(s0)
 396              	.L16:
 849:/home/vinay/Desktop/softconsole_watershed/Water-shed/src/platform/mpfs_hal/common/mss_plic.h ****     {
 397              		.loc 2 849 5 discriminator 1
 398 0152 8327C4FE 		lw	a5,-20(s0)
 399 0156 1B870700 		sext.w	a4,a5
 400 015a 9547     		li	a5,5
 401 015c E3FAE7F0 		bleu	a4,a5,.L17
 860:/home/vinay/Desktop/softconsole_watershed/Water-shed/src/platform/mpfs_hal/common/mss_plic.h ****     }
 861:/home/vinay/Desktop/softconsole_watershed/Water-shed/src/platform/mpfs_hal/common/mss_plic.h **** 
 862:/home/vinay/Desktop/softconsole_watershed/Water-shed/src/platform/mpfs_hal/common/mss_plic.h ****     /* clear any pending interrupts- in case already there */
 863:/home/vinay/Desktop/softconsole_watershed/Water-shed/src/platform/mpfs_hal/common/mss_plic.h ****     PLIC_ClearPendingIRQ();
 402              		.loc 2 863 5
 403 0160 97000000 		call	PLIC_ClearPendingIRQ
 403      E7800000 
 864:/home/vinay/Desktop/softconsole_watershed/Water-shed/src/platform/mpfs_hal/common/mss_plic.h **** }
 404              		.loc 2 864 1
 405 0168 0100     		nop
 406 016a E260     		ld	ra,24(sp)
 407              		.cfi_restore 1
 408 016c 4264     		ld	s0,16(sp)
 409              		.cfi_restore 8
 410              		.cfi_def_cfa 2, 32
 411 016e 0561     		addi	sp,sp,32
 412              		.cfi_def_cfa_offset 0
 413 0170 8280     		jr	ra
 414              		.cfi_endproc
 415              	.LFE16:
 417              		.section	.text.main_first_hart,"ax",@progbits
 418              		.align	1
 419              		.weak	main_first_hart
 421              	main_first_hart:
 422              	.LFB20:
 423              		.file 3 "../src/platform/mpfs_hal/startup_gcc/system_startup.c"
   1:../src/platform/mpfs_hal/startup_gcc/system_startup.c **** /******************************************************************************************
   2:../src/platform/mpfs_hal/startup_gcc/system_startup.c ****  * Copyright 2019-2022 Microchip FPGA Embedded Systems Solutions.
   3:../src/platform/mpfs_hal/startup_gcc/system_startup.c ****  *
   4:../src/platform/mpfs_hal/startup_gcc/system_startup.c ****  * SPDX-License-Identifier: MIT
   5:../src/platform/mpfs_hal/startup_gcc/system_startup.c ****  *
   6:../src/platform/mpfs_hal/startup_gcc/system_startup.c ****  * Permission is hereby granted, free of charge, to any person obtaining a copy
   7:../src/platform/mpfs_hal/startup_gcc/system_startup.c ****  * of this software and associated documentation files (the "Software"), to
   8:../src/platform/mpfs_hal/startup_gcc/system_startup.c ****  * deal in the Software without restriction, including without limitation the
   9:../src/platform/mpfs_hal/startup_gcc/system_startup.c ****  * rights to use, copy, modify, merge, publish, distribute, sublicense, and/or
  10:../src/platform/mpfs_hal/startup_gcc/system_startup.c ****  * sell copies of the Software, and to permit persons to whom the Software is
  11:../src/platform/mpfs_hal/startup_gcc/system_startup.c ****  * furnished to do so, subject to the following conditions:
  12:../src/platform/mpfs_hal/startup_gcc/system_startup.c ****  *
  13:../src/platform/mpfs_hal/startup_gcc/system_startup.c ****  * The above copyright notice and this permission notice shall be included in
  14:../src/platform/mpfs_hal/startup_gcc/system_startup.c ****  * all copies or substantial portions of the Software.
  15:../src/platform/mpfs_hal/startup_gcc/system_startup.c ****  *
  16:../src/platform/mpfs_hal/startup_gcc/system_startup.c ****  * THE SOFTWARE IS PROVIDED "AS IS", WITHOUT WARRANTY OF ANY KIND, EXPRESS OR
  17:../src/platform/mpfs_hal/startup_gcc/system_startup.c ****  * IMPLIED, INCLUDING BUT NOT LIMITED TO THE WARRANTIES OF MERCHANTABILITY,
  18:../src/platform/mpfs_hal/startup_gcc/system_startup.c ****  * FITNESS FOR A PARTICULAR PURPOSE AND NONINFRINGEMENT. IN NO EVENT SHALL THE
  19:../src/platform/mpfs_hal/startup_gcc/system_startup.c ****  * AUTHORS OR COPYRIGHT HOLDERS BE LIABLE FOR ANY CLAIM, DAMAGES OR OTHER
  20:../src/platform/mpfs_hal/startup_gcc/system_startup.c ****  * LIABILITY, WHETHER IN AN ACTION OF CONTRACT, TORT OR OTHERWISE, ARISING
  21:../src/platform/mpfs_hal/startup_gcc/system_startup.c ****  * FROM, OUT OF OR IN CONNECTION WITH THE SOFTWARE OR THE USE OR OTHER DEALINGS
  22:../src/platform/mpfs_hal/startup_gcc/system_startup.c ****  * IN THE SOFTWARE.
  23:../src/platform/mpfs_hal/startup_gcc/system_startup.c ****  */
  24:../src/platform/mpfs_hal/startup_gcc/system_startup.c **** /***************************************************************************
  25:../src/platform/mpfs_hal/startup_gcc/system_startup.c ****  * @file system_startup.c
  26:../src/platform/mpfs_hal/startup_gcc/system_startup.c ****  * @author Microchip-FPGA Embedded Systems Solutions
  27:../src/platform/mpfs_hal/startup_gcc/system_startup.c ****  * @brief first C code called on startup. Will call user code created outside
  28:../src/platform/mpfs_hal/startup_gcc/system_startup.c ****  * the HAL.
  29:../src/platform/mpfs_hal/startup_gcc/system_startup.c ****  */
  30:../src/platform/mpfs_hal/startup_gcc/system_startup.c **** #include <stddef.h>
  31:../src/platform/mpfs_hal/startup_gcc/system_startup.c **** #include <stdbool.h>
  32:../src/platform/mpfs_hal/startup_gcc/system_startup.c **** #include "mpfs_hal/mss_hal.h"
  33:../src/platform/mpfs_hal/startup_gcc/system_startup.c **** #ifdef  MPFS_HAL_HW_CONFIG
  34:../src/platform/mpfs_hal/startup_gcc/system_startup.c **** #include "../common/nwc/mss_nwc_init.h"
  35:../src/platform/mpfs_hal/startup_gcc/system_startup.c **** #endif
  36:../src/platform/mpfs_hal/startup_gcc/system_startup.c **** #include "system_startup_defs.h"
  37:../src/platform/mpfs_hal/startup_gcc/system_startup.c **** 
  38:../src/platform/mpfs_hal/startup_gcc/system_startup.c **** 
  39:../src/platform/mpfs_hal/startup_gcc/system_startup.c **** /*==============================================================================
  40:../src/platform/mpfs_hal/startup_gcc/system_startup.c ****  * This function is called by the lowest enabled hart (MPFS_HAL_FIRST_HART) in
  41:../src/platform/mpfs_hal/startup_gcc/system_startup.c ****  * the configuration file :
  42:../src/platform/mpfs_hal/startup_gcc/system_startup.c ****  * (src/boards/<my-board/platform_config/mpfs_hal_config/mss_sw_config.h )
  43:../src/platform/mpfs_hal/startup_gcc/system_startup.c ****  *
  44:../src/platform/mpfs_hal/startup_gcc/system_startup.c ****  * The other harts up to MPFS_HAL_LAST_HART are placed in wfi at this point.
  45:../src/platform/mpfs_hal/startup_gcc/system_startup.c ****  * This function brings them out of wfi in sequence.
  46:../src/platform/mpfs_hal/startup_gcc/system_startup.c ****  * If you need to modify this function, create your own one in a user directory
  47:../src/platform/mpfs_hal/startup_gcc/system_startup.c ****  * space
  48:../src/platform/mpfs_hal/startup_gcc/system_startup.c ****  * e.g. /hart0/e51.c
  49:../src/platform/mpfs_hal/startup_gcc/system_startup.c ****  */
  50:../src/platform/mpfs_hal/startup_gcc/system_startup.c **** #if (IMAGE_LOADED_BY_BOOTLOADER == 0)
  51:../src/platform/mpfs_hal/startup_gcc/system_startup.c **** __attribute__((weak)) int main_first_hart(HLS_DATA* hls)
  52:../src/platform/mpfs_hal/startup_gcc/system_startup.c **** {
 424              		.loc 3 52 1
 425              		.cfi_startproc
 426 0000 5D71     		addi	sp,sp,-80
 427              		.cfi_def_cfa_offset 80
 428 0002 86E4     		sd	ra,72(sp)
 429 0004 A2E0     		sd	s0,64(sp)
 430              		.cfi_offset 1, -8
 431              		.cfi_offset 8, -16
 432 0006 8008     		addi	s0,sp,80
 433              		.cfi_def_cfa 8, 0
 434 0008 233CA4FA 		sd	a0,-72(s0)
 435              	.LBB4:
  53:../src/platform/mpfs_hal/startup_gcc/system_startup.c ****     uint64_t hartid = read_csr(mhartid);
 436              		.loc 3 53 23
 437              	 #APP
 438              	# 53 "../src/platform/mpfs_hal/startup_gcc/system_startup.c" 1
  54              	
 439              		csrr a5, mhartid
 440              	# 0 "" 2
 441              	 #NO_APP
 442 0010 2338F4FC 		sd	a5,-48(s0)
 443 0014 833704FD 		ld	a5,-48(s0)
 444              	.LBE4:
  53:../src/platform/mpfs_hal/startup_gcc/system_startup.c ****     uint64_t hartid = read_csr(mhartid);
 445              		.loc 3 53 14
 446 0018 2334F4FC 		sd	a5,-56(s0)
  55:../src/platform/mpfs_hal/startup_gcc/system_startup.c ****     if(hartid == MPFS_HAL_FIRST_HART)
 447              		.loc 3 55 7
 448 001c 833784FC 		ld	a5,-56(s0)
 449 0020 639A0728 		bne	a5,zero,.L19
 450              	.LBB5:
  56:../src/platform/mpfs_hal/startup_gcc/system_startup.c ****     {
  57:../src/platform/mpfs_hal/startup_gcc/system_startup.c ****         uint8_t hart_id;
  58:../src/platform/mpfs_hal/startup_gcc/system_startup.c ****         ptrdiff_t stack_top;
  59:../src/platform/mpfs_hal/startup_gcc/system_startup.c **** 
  60:../src/platform/mpfs_hal/startup_gcc/system_startup.c ****         /*
  61:../src/platform/mpfs_hal/startup_gcc/system_startup.c ****          * We only use code within the conditional compile
  62:../src/platform/mpfs_hal/startup_gcc/system_startup.c ****          * #ifdef MPFS_HAL_HW_CONFIG
  63:../src/platform/mpfs_hal/startup_gcc/system_startup.c ****          * if this program is used as part of the initial board bring-up
  64:../src/platform/mpfs_hal/startup_gcc/system_startup.c ****          * Please comment/uncomment MPFS_HAL_HW_CONFIG define in
  65:../src/platform/mpfs_hal/startup_gcc/system_startup.c ****          * src/boards/<my-board/platform_config/mpfs_hal_config/sw_config.h
  66:../src/platform/mpfs_hal/startup_gcc/system_startup.c ****          * as required.
  67:../src/platform/mpfs_hal/startup_gcc/system_startup.c ****          */
  68:../src/platform/mpfs_hal/startup_gcc/system_startup.c **** #ifdef  MPFS_HAL_HW_CONFIG
  69:../src/platform/mpfs_hal/startup_gcc/system_startup.c ****         config_l2_cache();
 451              		.loc 3 69 9
 452 0024 97000000 		call	config_l2_cache
 452      E7800000 
  70:../src/platform/mpfs_hal/startup_gcc/system_startup.c **** #endif  /* MPFS_HAL_HW_CONFIG */
  71:../src/platform/mpfs_hal/startup_gcc/system_startup.c **** 
  72:../src/platform/mpfs_hal/startup_gcc/system_startup.c ****         init_memory();
 453              		.loc 3 72 9
 454 002c 97000000 		call	init_memory
 454      E7800000 
  73:../src/platform/mpfs_hal/startup_gcc/system_startup.c **** #ifndef MPFS_HAL_HW_CONFIG
  74:../src/platform/mpfs_hal/startup_gcc/system_startup.c ****         hls->my_hart_id = MPFS_HAL_FIRST_HART;
  75:../src/platform/mpfs_hal/startup_gcc/system_startup.c **** #endif
  76:../src/platform/mpfs_hal/startup_gcc/system_startup.c **** #ifdef  MPFS_HAL_HW_CONFIG
  77:../src/platform/mpfs_hal/startup_gcc/system_startup.c ****         load_virtual_rom();
 455              		.loc 3 77 9
 456 0034 97000000 		call	load_virtual_rom
 456      E7800000 
  78:../src/platform/mpfs_hal/startup_gcc/system_startup.c ****         (void)init_bus_error_unit();
 457              		.loc 3 78 15
 458 003c 97000000 		call	init_bus_error_unit
 458      E7800000 
  79:../src/platform/mpfs_hal/startup_gcc/system_startup.c ****         (void)init_mem_protection_unit();
 459              		.loc 3 79 15
 460 0044 97000000 		call	init_mem_protection_unit
 460      E7800000 
  80:../src/platform/mpfs_hal/startup_gcc/system_startup.c ****         (void)init_pmp((uint8_t)MPFS_HAL_FIRST_HART);
 461              		.loc 3 80 15
 462 004c 0145     		li	a0,0
 463 004e 97000000 		call	init_pmp
 463      E7800000 
  81:../src/platform/mpfs_hal/startup_gcc/system_startup.c ****         (void)mss_set_apb_bus_cr((uint32_t)LIBERO_SETTING_APBBUS_CR);
 464              		.loc 3 81 9
 465 0056 0145     		li	a0,0
 466 0058 97000000 		call	mss_set_apb_bus_cr
 466      E7800000 
  82:../src/platform/mpfs_hal/startup_gcc/system_startup.c ****         (void)mss_set_gpio_interrupt_fab_cr((uint32_t)LIBERO_SETTING_GPIO_INTERRUPT_FAB_CR);
 467              		.loc 3 82 9
 468 0060 0145     		li	a0,0
 469 0062 97000000 		call	mss_set_gpio_interrupt_fab_cr
 469      E7800000 
  83:../src/platform/mpfs_hal/startup_gcc/system_startup.c **** #endif  /* MPFS_HAL_HW_CONFIG */
  84:../src/platform/mpfs_hal/startup_gcc/system_startup.c ****         /*
  85:../src/platform/mpfs_hal/startup_gcc/system_startup.c ****          * Initialise NWC
  86:../src/platform/mpfs_hal/startup_gcc/system_startup.c ****          *      Clocks
  87:../src/platform/mpfs_hal/startup_gcc/system_startup.c ****          *      SGMII
  88:../src/platform/mpfs_hal/startup_gcc/system_startup.c ****          *      DDR
  89:../src/platform/mpfs_hal/startup_gcc/system_startup.c ****          *      IOMUX
  90:../src/platform/mpfs_hal/startup_gcc/system_startup.c ****          */
  91:../src/platform/mpfs_hal/startup_gcc/system_startup.c **** #ifdef  MPFS_HAL_HW_CONFIG
  92:../src/platform/mpfs_hal/startup_gcc/system_startup.c ****         (void)mss_nwc_init();
 470              		.loc 3 92 15
 471 006a 97000000 		call	mss_nwc_init
 471      E7800000 
  93:../src/platform/mpfs_hal/startup_gcc/system_startup.c ****         (void)mss_nwc_init_ddr();
 472              		.loc 3 93 15
 473 0072 97000000 		call	mss_nwc_init_ddr
 473      E7800000 
  94:../src/platform/mpfs_hal/startup_gcc/system_startup.c **** 
  95:../src/platform/mpfs_hal/startup_gcc/system_startup.c ****         /* main hart init's the PLIC */
  96:../src/platform/mpfs_hal/startup_gcc/system_startup.c ****         PLIC_init_on_reset();
 474              		.loc 3 96 9
 475 007a 97000000 		call	PLIC_init_on_reset
 475      E7800000 
  97:../src/platform/mpfs_hal/startup_gcc/system_startup.c ****         /*
  98:../src/platform/mpfs_hal/startup_gcc/system_startup.c ****          * Start the other harts. They are put in wfi in entry.S
  99:../src/platform/mpfs_hal/startup_gcc/system_startup.c ****          * When debugging, harts are released from reset separately,
 100:../src/platform/mpfs_hal/startup_gcc/system_startup.c ****          * so we need to make sure hart is in wfi before we try and release.
 101:../src/platform/mpfs_hal/startup_gcc/system_startup.c ****         */
 102:../src/platform/mpfs_hal/startup_gcc/system_startup.c ****         stack_top = (ptrdiff_t)((uint8_t*)&__stack_top_h0$);
 476              		.loc 3 102 19
 477 0082 97070000 		lla	a5,__stack_top_h0$
 477      93870700 
 478 008a 2330F4FE 		sd	a5,-32(s0)
 103:../src/platform/mpfs_hal/startup_gcc/system_startup.c ****         hls = (HLS_DATA*)(stack_top - HLS_DEBUG_AREA_SIZE);
 479              		.loc 3 103 37
 480 008e 833704FE 		ld	a5,-32(s0)
 481 0092 938707FC 		addi	a5,a5,-64
 482              		.loc 3 103 13
 483 0096 233CF4FA 		sd	a5,-72(s0)
 104:../src/platform/mpfs_hal/startup_gcc/system_startup.c ****         hls->in_wfi_indicator = HLS_MAIN_HART_STARTED;
 484              		.loc 3 104 31
 485 009a 833784FB 		ld	a5,-72(s0)
 486 009e 37473412 		li	a4,305414144
 487 00a2 13071732 		addi	a4,a4,801
 488 00a6 98C3     		sw	a4,0(a5)
 105:../src/platform/mpfs_hal/startup_gcc/system_startup.c ****         hls->my_hart_id = MPFS_HAL_FIRST_HART;
 489              		.loc 3 105 25
 490 00a8 833784FB 		ld	a5,-72(s0)
 491 00ac 23A20700 		sw	zero,4(a5)
 106:../src/platform/mpfs_hal/startup_gcc/system_startup.c ****         WFI_SM sm_check_thread = INIT_THREAD_PR;
 492              		.loc 3 106 16
 493 00b0 232E04FC 		sw	zero,-36(s0)
 107:../src/platform/mpfs_hal/startup_gcc/system_startup.c ****         hart_id = MPFS_HAL_FIRST_HART + 1U;
 494              		.loc 3 107 17
 495 00b4 8547     		li	a5,1
 496 00b6 A307F4FE 		sb	a5,-17(s0)
 108:../src/platform/mpfs_hal/startup_gcc/system_startup.c ****         while( hart_id <= MPFS_HAL_LAST_HART)
 497              		.loc 3 108 14
 498 00ba 8DAA     		j	.L20
 499              	.L33:
 500              	.LBB6:
 109:../src/platform/mpfs_hal/startup_gcc/system_startup.c ****         {
 110:../src/platform/mpfs_hal/startup_gcc/system_startup.c ****             uint32_t wait_count = 0U;
 501              		.loc 3 110 22
 502 00bc 232204FC 		sw	zero,-60(s0)
 111:../src/platform/mpfs_hal/startup_gcc/system_startup.c **** 
 112:../src/platform/mpfs_hal/startup_gcc/system_startup.c ****             switch(sm_check_thread)
 503              		.loc 3 112 13
 504 00c0 8327C4FD 		lw	a5,-36(s0)
 505 00c4 1B870700 		sext.w	a4,a5
 506 00c8 8947     		li	a5,2
 507 00ca 6300F70C 		beq	a4,a5,.L21
 508 00ce 8327C4FD 		lw	a5,-36(s0)
 509 00d2 1B870700 		sext.w	a4,a5
 510 00d6 8D47     		li	a5,3
 511 00d8 630DF70C 		beq	a4,a5,.L22
 512 00dc 8327C4FD 		lw	a5,-36(s0)
 513 00e0 1B870700 		sext.w	a4,a5
 514 00e4 8547     		li	a5,1
 515 00e6 6303F708 		beq	a4,a5,.L23
 113:../src/platform/mpfs_hal/startup_gcc/system_startup.c ****             {
 114:../src/platform/mpfs_hal/startup_gcc/system_startup.c ****                 default:
 115:../src/platform/mpfs_hal/startup_gcc/system_startup.c ****                 case INIT_THREAD_PR:
 116:../src/platform/mpfs_hal/startup_gcc/system_startup.c **** 
 117:../src/platform/mpfs_hal/startup_gcc/system_startup.c ****                     switch (hart_id)
 516              		.loc 3 117 21
 517 00ea 8347F4FE 		lbu	a5,-17(s0)
 518 00ee 8127     		sext.w	a5,a5
 519 00f0 BE86     		mv	a3,a5
 520 00f2 0947     		li	a4,2
 521 00f4 638BE602 		beq	a3,a4,.L24
 522 00f8 BE86     		mv	a3,a5
 523 00fa 0947     		li	a4,2
 524 00fc 6347D700 		bgt	a3,a4,.L25
 525 0100 3E87     		mv	a4,a5
 526 0102 8547     		li	a5,1
 527 0104 630CF700 		beq	a4,a5,.L26
 528 0108 B1A0     		j	.L27
 529              	.L25:
 530 010a BE86     		mv	a3,a5
 531 010c 0D47     		li	a4,3
 532 010e 6385E602 		beq	a3,a4,.L28
 533 0112 3E87     		mv	a4,a5
 534 0114 9147     		li	a5,4
 535 0116 6308F702 		beq	a4,a5,.L29
 536 011a 2DA8     		j	.L27
 537              	.L26:
 118:../src/platform/mpfs_hal/startup_gcc/system_startup.c ****                     {
 119:../src/platform/mpfs_hal/startup_gcc/system_startup.c ****                         case 1:
 120:../src/platform/mpfs_hal/startup_gcc/system_startup.c ****                             stack_top = (ptrdiff_t)((uint8_t*)&__stack_top_h1$);
 538              		.loc 3 120 39
 539 011c 97070000 		lla	a5,__stack_top_h1$
 539      93870700 
 540 0124 2330F4FE 		sd	a5,-32(s0)
 121:../src/platform/mpfs_hal/startup_gcc/system_startup.c ****                             break;
 541              		.loc 3 121 29
 542 0128 35A0     		j	.L27
 543              	.L24:
 122:../src/platform/mpfs_hal/startup_gcc/system_startup.c ****                         case 2:
 123:../src/platform/mpfs_hal/startup_gcc/system_startup.c ****                             stack_top = (ptrdiff_t)((uint8_t*)&__stack_top_h2$);
 544              		.loc 3 123 39
 545 012a 97070000 		lla	a5,__stack_top_h2$
 545      93870700 
 546 0132 2330F4FE 		sd	a5,-32(s0)
 124:../src/platform/mpfs_hal/startup_gcc/system_startup.c ****                             break;
 547              		.loc 3 124 29
 548 0136 39A8     		j	.L27
 549              	.L28:
 125:../src/platform/mpfs_hal/startup_gcc/system_startup.c ****                         case 3:
 126:../src/platform/mpfs_hal/startup_gcc/system_startup.c ****                             stack_top = (ptrdiff_t)((uint8_t*)&__stack_top_h3$);
 550              		.loc 3 126 39
 551 0138 97070000 		lla	a5,__stack_top_h3$
 551      93870700 
 552 0140 2330F4FE 		sd	a5,-32(s0)
 127:../src/platform/mpfs_hal/startup_gcc/system_startup.c ****                             break;
 553              		.loc 3 127 29
 554 0144 01A8     		j	.L27
 555              	.L29:
 128:../src/platform/mpfs_hal/startup_gcc/system_startup.c ****                         case 4:
 129:../src/platform/mpfs_hal/startup_gcc/system_startup.c ****                             stack_top = (ptrdiff_t)((uint8_t*)&__stack_top_h4$);
 556              		.loc 3 129 39
 557 0146 97070000 		lla	a5,__stack_top_h4$
 557      93870700 
 558 014e 2330F4FE 		sd	a5,-32(s0)
 130:../src/platform/mpfs_hal/startup_gcc/system_startup.c ****                             break;
 559              		.loc 3 130 29
 560 0152 0100     		nop
 561              	.L27:
 131:../src/platform/mpfs_hal/startup_gcc/system_startup.c ****                     }
 132:../src/platform/mpfs_hal/startup_gcc/system_startup.c ****                     hls = (HLS_DATA*)(stack_top - HLS_DEBUG_AREA_SIZE);
 562              		.loc 3 132 49
 563 0154 833704FE 		ld	a5,-32(s0)
 564 0158 938707FC 		addi	a5,a5,-64
 565              		.loc 3 132 25
 566 015c 233CF4FA 		sd	a5,-72(s0)
 133:../src/platform/mpfs_hal/startup_gcc/system_startup.c ****                     sm_check_thread = CHECK_WFI;
 567              		.loc 3 133 37
 568 0160 8547     		li	a5,1
 569 0162 232EF4FC 		sw	a5,-36(s0)
 134:../src/platform/mpfs_hal/startup_gcc/system_startup.c ****                     wait_count = 0U;
 570              		.loc 3 134 32
 571 0166 232204FC 		sw	zero,-60(s0)
 135:../src/platform/mpfs_hal/startup_gcc/system_startup.c ****                     break;
 572              		.loc 3 135 21
 573 016a C9A0     		j	.L20
 574              	.L23:
 136:../src/platform/mpfs_hal/startup_gcc/system_startup.c **** 
 137:../src/platform/mpfs_hal/startup_gcc/system_startup.c ****                 case CHECK_WFI:
 138:../src/platform/mpfs_hal/startup_gcc/system_startup.c ****                     if( hls->in_wfi_indicator == HLS_OTHER_HART_IN_WFI )
 575              		.loc 3 138 28
 576 016c 833784FB 		ld	a5,-72(s0)
 577 0170 9C43     		lw	a5,0(a5)
 578 0172 8127     		sext.w	a5,a5
 579              		.loc 3 138 23
 580 0174 3E87     		mv	a4,a5
 581 0176 B7573412 		li	a5,305418240
 582 017a 93878767 		addi	a5,a5,1656
 583 017e 6317F70A 		bne	a4,a5,.L20
 139:../src/platform/mpfs_hal/startup_gcc/system_startup.c ****                     {
 140:../src/platform/mpfs_hal/startup_gcc/system_startup.c ****                         /* Separate state- to add a little delay */
 141:../src/platform/mpfs_hal/startup_gcc/system_startup.c ****                         sm_check_thread = SEND_WFI;
 584              		.loc 3 141 41
 585 0182 8947     		li	a5,2
 586 0184 232EF4FC 		sw	a5,-36(s0)
 142:../src/platform/mpfs_hal/startup_gcc/system_startup.c ****                     }
 143:../src/platform/mpfs_hal/startup_gcc/system_startup.c ****                     break;
 587              		.loc 3 143 21
 588 0188 55A0     		j	.L20
 589              	.L21:
 144:../src/platform/mpfs_hal/startup_gcc/system_startup.c **** 
 145:../src/platform/mpfs_hal/startup_gcc/system_startup.c ****                 case SEND_WFI:
 146:../src/platform/mpfs_hal/startup_gcc/system_startup.c ****                     hls->my_hart_id = hart_id; /* record hartid locally */
 590              		.loc 3 146 37
 591 018a 8347F4FE 		lbu	a5,-17(s0)
 592 018e 1B870700 		sext.w	a4,a5
 593 0192 833784FB 		ld	a5,-72(s0)
 594 0196 D8C3     		sw	a4,4(a5)
 147:../src/platform/mpfs_hal/startup_gcc/system_startup.c ****                     raise_soft_interrupt(hart_id);
 595              		.loc 3 147 21
 596 0198 8347F4FE 		lbu	a5,-17(s0)
 597 019c 3E85     		mv	a0,a5
 598 019e 97000000 		call	raise_soft_interrupt
 598      E7800000 
 148:../src/platform/mpfs_hal/startup_gcc/system_startup.c ****                     sm_check_thread = CHECK_WAKE;
 599              		.loc 3 148 37
 600 01a6 8D47     		li	a5,3
 601 01a8 232EF4FC 		sw	a5,-36(s0)
 149:../src/platform/mpfs_hal/startup_gcc/system_startup.c ****                     wait_count = 0UL;
 602              		.loc 3 149 32
 603 01ac 232204FC 		sw	zero,-60(s0)
 150:../src/platform/mpfs_hal/startup_gcc/system_startup.c ****                     break;
 604              		.loc 3 150 21
 605 01b0 B5A8     		j	.L20
 606              	.L22:
 151:../src/platform/mpfs_hal/startup_gcc/system_startup.c **** 
 152:../src/platform/mpfs_hal/startup_gcc/system_startup.c ****                 case CHECK_WAKE:
 153:../src/platform/mpfs_hal/startup_gcc/system_startup.c ****                     if( hls->in_wfi_indicator == HLS_OTHER_HART_PASSED_WFI )
 607              		.loc 3 153 28
 608 01b2 833784FB 		ld	a5,-72(s0)
 609 01b6 9C43     		lw	a5,0(a5)
 610 01b8 8127     		sext.w	a5,a5
 611              		.loc 3 153 23
 612 01ba 3E87     		mv	a4,a5
 613 01bc B7476587 		li	a5,-2023407616
 614 01c0 93871732 		addi	a5,a5,801
 615 01c4 631CF700 		bne	a4,a5,.L31
 154:../src/platform/mpfs_hal/startup_gcc/system_startup.c ****                     {
 155:../src/platform/mpfs_hal/startup_gcc/system_startup.c ****                         sm_check_thread = INIT_THREAD_PR;
 616              		.loc 3 155 41
 617 01c8 232E04FC 		sw	zero,-36(s0)
 156:../src/platform/mpfs_hal/startup_gcc/system_startup.c ****                         hart_id++;
 618              		.loc 3 156 32
 619 01cc 8347F4FE 		lbu	a5,-17(s0)
 620 01d0 8527     		addiw	a5,a5,1
 621 01d2 A307F4FE 		sb	a5,-17(s0)
 157:../src/platform/mpfs_hal/startup_gcc/system_startup.c ****                         wait_count = 0UL;
 622              		.loc 3 157 36
 623 01d6 232204FC 		sw	zero,-60(s0)
 624 01da 81A8     		j	.L34
 625              	.L31:
 158:../src/platform/mpfs_hal/startup_gcc/system_startup.c ****                     }
 159:../src/platform/mpfs_hal/startup_gcc/system_startup.c ****                     else
 160:../src/platform/mpfs_hal/startup_gcc/system_startup.c ****                     {
 161:../src/platform/mpfs_hal/startup_gcc/system_startup.c ****                         wait_count++;
 626              		.loc 3 161 35
 627 01dc 832744FC 		lw	a5,-60(s0)
 628 01e0 8527     		addiw	a5,a5,1
 629 01e2 2322F4FC 		sw	a5,-60(s0)
 162:../src/platform/mpfs_hal/startup_gcc/system_startup.c ****                         if(wait_count > 0x10U)
 630              		.loc 3 162 27
 631 01e6 832744FC 		lw	a5,-60(s0)
 632 01ea 1B870700 		sext.w	a4,a5
 633 01ee C147     		li	a5,16
 634 01f0 63FDE702 		bleu	a4,a5,.L34
 163:../src/platform/mpfs_hal/startup_gcc/system_startup.c ****                         {
 164:../src/platform/mpfs_hal/startup_gcc/system_startup.c ****                             if( hls->in_wfi_indicator == HLS_OTHER_HART_IN_WFI )
 635              		.loc 3 164 36
 636 01f4 833784FB 		ld	a5,-72(s0)
 637 01f8 9C43     		lw	a5,0(a5)
 638 01fa 8127     		sext.w	a5,a5
 639              		.loc 3 164 31
 640 01fc 3E87     		mv	a4,a5
 641 01fe B7573412 		li	a5,305418240
 642 0202 93878767 		addi	a5,a5,1656
 643 0206 6312F702 		bne	a4,a5,.L34
 165:../src/platform/mpfs_hal/startup_gcc/system_startup.c ****                             {
 166:../src/platform/mpfs_hal/startup_gcc/system_startup.c ****                                 hls->my_hart_id = hart_id; /* record hartid locally */
 644              		.loc 3 166 49
 645 020a 8347F4FE 		lbu	a5,-17(s0)
 646 020e 1B870700 		sext.w	a4,a5
 647 0212 833784FB 		ld	a5,-72(s0)
 648 0216 D8C3     		sw	a4,4(a5)
 167:../src/platform/mpfs_hal/startup_gcc/system_startup.c ****                                 raise_soft_interrupt(hart_id);
 649              		.loc 3 167 33
 650 0218 8347F4FE 		lbu	a5,-17(s0)
 651 021c 3E85     		mv	a0,a5
 652 021e 97000000 		call	raise_soft_interrupt
 652      E7800000 
 168:../src/platform/mpfs_hal/startup_gcc/system_startup.c ****                                 wait_count = 0UL;
 653              		.loc 3 168 44
 654 0226 232204FC 		sw	zero,-60(s0)
 655              	.L34:
 169:../src/platform/mpfs_hal/startup_gcc/system_startup.c ****                             }
 170:../src/platform/mpfs_hal/startup_gcc/system_startup.c ****                         }
 171:../src/platform/mpfs_hal/startup_gcc/system_startup.c ****                     }
 172:../src/platform/mpfs_hal/startup_gcc/system_startup.c ****                     break;
 656              		.loc 3 172 21
 657 022a 0100     		nop
 658              	.L20:
 659              	.LBE6:
 108:../src/platform/mpfs_hal/startup_gcc/system_startup.c ****         {
 660              		.loc 3 108 14
 661 022c 8347F4FE 		lbu	a5,-17(s0)
 662 0230 13F7F70F 		andi	a4,a5,0xff
 663 0234 9147     		li	a5,4
 664 0236 E3F3E7E8 		bleu	a4,a5,.L33
 173:../src/platform/mpfs_hal/startup_gcc/system_startup.c ****             }
 174:../src/platform/mpfs_hal/startup_gcc/system_startup.c ****         }
 175:../src/platform/mpfs_hal/startup_gcc/system_startup.c ****         stack_top = (ptrdiff_t)((uint8_t*)&__stack_top_h0$);
 665              		.loc 3 175 19
 666 023a 97070000 		lla	a5,__stack_top_h0$
 666      93870700 
 667 0242 2330F4FE 		sd	a5,-32(s0)
 176:../src/platform/mpfs_hal/startup_gcc/system_startup.c ****         hls = (HLS_DATA*)(stack_top - HLS_DEBUG_AREA_SIZE);
 668              		.loc 3 176 37
 669 0246 833704FE 		ld	a5,-32(s0)
 670 024a 938707FC 		addi	a5,a5,-64
 671              		.loc 3 176 13
 672 024e 233CF4FA 		sd	a5,-72(s0)
 177:../src/platform/mpfs_hal/startup_gcc/system_startup.c ****         hls->in_wfi_indicator = HLS_MAIN_HART_FIN_INIT;
 673              		.loc 3 177 31
 674 0252 833784FB 		ld	a5,-72(s0)
 675 0256 37575555 		li	a4,1431654400
 676 025a 13075755 		addi	a4,a4,1365
 677 025e 98C3     		sw	a4,0(a5)
 178:../src/platform/mpfs_hal/startup_gcc/system_startup.c **** 
 179:../src/platform/mpfs_hal/startup_gcc/system_startup.c ****         /*
 180:../src/platform/mpfs_hal/startup_gcc/system_startup.c ****          * Turn on fic interfaces by default. Drivers will turn on/off other MSS
 181:../src/platform/mpfs_hal/startup_gcc/system_startup.c ****          * peripherals as required.
 182:../src/platform/mpfs_hal/startup_gcc/system_startup.c ****          */
 183:../src/platform/mpfs_hal/startup_gcc/system_startup.c ****         (void)mss_config_clk_rst(MSS_PERIPH_FIC0, (uint8_t)MPFS_HAL_FIRST_HART, PERIPHERAL_ON);
 678              		.loc 3 183 15
 679 0260 0146     		li	a2,0
 680 0262 8145     		li	a1,0
 681 0264 13050002 		li	a0,32
 682 0268 97000000 		call	mss_config_clk_rst
 682      E7800000 
 184:../src/platform/mpfs_hal/startup_gcc/system_startup.c ****         (void)mss_config_clk_rst(MSS_PERIPH_FIC1, (uint8_t)MPFS_HAL_FIRST_HART, PERIPHERAL_ON);
 683              		.loc 3 184 15
 684 0270 0146     		li	a2,0
 685 0272 8145     		li	a1,0
 686 0274 13051002 		li	a0,33
 687 0278 97000000 		call	mss_config_clk_rst
 687      E7800000 
 185:../src/platform/mpfs_hal/startup_gcc/system_startup.c ****         (void)mss_config_clk_rst(MSS_PERIPH_FIC2, (uint8_t)MPFS_HAL_FIRST_HART, PERIPHERAL_ON);
 688              		.loc 3 185 15
 689 0280 0146     		li	a2,0
 690 0282 8145     		li	a1,0
 691 0284 13052002 		li	a0,34
 692 0288 97000000 		call	mss_config_clk_rst
 692      E7800000 
 186:../src/platform/mpfs_hal/startup_gcc/system_startup.c ****         (void)mss_config_clk_rst(MSS_PERIPH_FIC3, (uint8_t)MPFS_HAL_FIRST_HART, PERIPHERAL_ON);
 693              		.loc 3 186 15
 694 0290 0146     		li	a2,0
 695 0292 8145     		li	a1,0
 696 0294 13053002 		li	a0,35
 697 0298 97000000 		call	mss_config_clk_rst
 697      E7800000 
 187:../src/platform/mpfs_hal/startup_gcc/system_startup.c ****         /* enable the fabric */
 188:../src/platform/mpfs_hal/startup_gcc/system_startup.c ****         mss_enable_fabric();
 698              		.loc 3 188 9
 699 02a0 97000000 		call	mss_enable_fabric
 699      E7800000 
 189:../src/platform/mpfs_hal/startup_gcc/system_startup.c **** 
 190:../src/platform/mpfs_hal/startup_gcc/system_startup.c **** #endif /* MPFS_HAL_HW_CONFIG */
 191:../src/platform/mpfs_hal/startup_gcc/system_startup.c ****         (void)main_other_hart(hls);
 700              		.loc 3 191 15
 701 02a8 033584FB 		ld	a0,-72(s0)
 702 02ac 97000000 		call	main_other_hart
 702      E7800000 
 703              	.L19:
 704              	.LBE5:
 705              		.cfi_endproc
 706              	.LFE20:
 708              		.section	.text.main_other_hart,"ax",@progbits
 709              		.align	1
 710              		.weak	main_other_hart
 712              	main_other_hart:
 713              	.LFB21:
 192:../src/platform/mpfs_hal/startup_gcc/system_startup.c ****     }
 193:../src/platform/mpfs_hal/startup_gcc/system_startup.c **** 
 194:../src/platform/mpfs_hal/startup_gcc/system_startup.c ****     __builtin_unreachable();
 195:../src/platform/mpfs_hal/startup_gcc/system_startup.c ****     /* should never get here */
 196:../src/platform/mpfs_hal/startup_gcc/system_startup.c ****     while(true)
 197:../src/platform/mpfs_hal/startup_gcc/system_startup.c ****     {
 198:../src/platform/mpfs_hal/startup_gcc/system_startup.c ****        static volatile uint64_t counter = 0U;
 199:../src/platform/mpfs_hal/startup_gcc/system_startup.c ****        /* Added some code as debugger hangs if in loop doing nothing */
 200:../src/platform/mpfs_hal/startup_gcc/system_startup.c ****        counter = counter + 1U;
 201:../src/platform/mpfs_hal/startup_gcc/system_startup.c ****     }
 202:../src/platform/mpfs_hal/startup_gcc/system_startup.c **** 
 203:../src/platform/mpfs_hal/startup_gcc/system_startup.c ****     return (0);
 204:../src/platform/mpfs_hal/startup_gcc/system_startup.c **** }
 205:../src/platform/mpfs_hal/startup_gcc/system_startup.c **** #endif
 206:../src/platform/mpfs_hal/startup_gcc/system_startup.c **** 
 207:../src/platform/mpfs_hal/startup_gcc/system_startup.c **** /*==============================================================================
 208:../src/platform/mpfs_hal/startup_gcc/system_startup.c ****  * This function is called by the lowest enabled hart (MPFS_HAL_FIRST_HART) in
 209:../src/platform/mpfs_hal/startup_gcc/system_startup.c ****  * the configuration file :
 210:../src/platform/mpfs_hal/startup_gcc/system_startup.c ****  * (src/boards/<my-board/platform_config/mpfs_hal_config/mss_sw_config.h )
 211:../src/platform/mpfs_hal/startup_gcc/system_startup.c ****  *
 212:../src/platform/mpfs_hal/startup_gcc/system_startup.c ****  * The other harts up to MPFS_HAL_LAST_HART are placed in wfi at this point.
 213:../src/platform/mpfs_hal/startup_gcc/system_startup.c ****  * This function brings them out of wfi in sequence.
 214:../src/platform/mpfs_hal/startup_gcc/system_startup.c ****  * If you need to modify this function, create your own one in a user directory
 215:../src/platform/mpfs_hal/startup_gcc/system_startup.c ****  * space
 216:../src/platform/mpfs_hal/startup_gcc/system_startup.c ****  * e.g. /hart0/e51.c
 217:../src/platform/mpfs_hal/startup_gcc/system_startup.c ****  */
 218:../src/platform/mpfs_hal/startup_gcc/system_startup.c **** #if (IMAGE_LOADED_BY_BOOTLOADER == 1)
 219:../src/platform/mpfs_hal/startup_gcc/system_startup.c **** 
 220:../src/platform/mpfs_hal/startup_gcc/system_startup.c **** __attribute__((weak)) int main_first_hart_app(HLS_DATA* hls)
 221:../src/platform/mpfs_hal/startup_gcc/system_startup.c **** {
 222:../src/platform/mpfs_hal/startup_gcc/system_startup.c ****     uint64_t hartid = read_csr(mhartid);
 223:../src/platform/mpfs_hal/startup_gcc/system_startup.c **** 
 224:../src/platform/mpfs_hal/startup_gcc/system_startup.c ****     if(hartid == MPFS_HAL_FIRST_HART)
 225:../src/platform/mpfs_hal/startup_gcc/system_startup.c ****     {
 226:../src/platform/mpfs_hal/startup_gcc/system_startup.c ****         uint8_t hart_id;
 227:../src/platform/mpfs_hal/startup_gcc/system_startup.c ****         ptrdiff_t stack_top;
 228:../src/platform/mpfs_hal/startup_gcc/system_startup.c **** 
 229:../src/platform/mpfs_hal/startup_gcc/system_startup.c ****         init_memory();
 230:../src/platform/mpfs_hal/startup_gcc/system_startup.c **** 
 231:../src/platform/mpfs_hal/startup_gcc/system_startup.c ****         hls->my_hart_id = MPFS_HAL_FIRST_HART;
 232:../src/platform/mpfs_hal/startup_gcc/system_startup.c ****         hls->in_wfi_indicator = HLS_MAIN_HART_STARTED;
 233:../src/platform/mpfs_hal/startup_gcc/system_startup.c ****         WFI_SM sm_check_thread = INIT_THREAD_PR;
 234:../src/platform/mpfs_hal/startup_gcc/system_startup.c ****         hart_id = MPFS_HAL_FIRST_HART + 1U;
 235:../src/platform/mpfs_hal/startup_gcc/system_startup.c ****         while( hart_id <= MPFS_HAL_LAST_HART)
 236:../src/platform/mpfs_hal/startup_gcc/system_startup.c ****         {
 237:../src/platform/mpfs_hal/startup_gcc/system_startup.c ****             uint32_t wait_count = 0U;
 238:../src/platform/mpfs_hal/startup_gcc/system_startup.c **** 
 239:../src/platform/mpfs_hal/startup_gcc/system_startup.c ****             switch(sm_check_thread)
 240:../src/platform/mpfs_hal/startup_gcc/system_startup.c ****             {
 241:../src/platform/mpfs_hal/startup_gcc/system_startup.c ****                 default:
 242:../src/platform/mpfs_hal/startup_gcc/system_startup.c ****                 case INIT_THREAD_PR:
 243:../src/platform/mpfs_hal/startup_gcc/system_startup.c **** 
 244:../src/platform/mpfs_hal/startup_gcc/system_startup.c ****                     switch (hart_id)
 245:../src/platform/mpfs_hal/startup_gcc/system_startup.c ****                     {
 246:../src/platform/mpfs_hal/startup_gcc/system_startup.c ****                         case 1:
 247:../src/platform/mpfs_hal/startup_gcc/system_startup.c ****                             stack_top = (ptrdiff_t)((uint8_t*)&__stack_top_h1$);
 248:../src/platform/mpfs_hal/startup_gcc/system_startup.c ****                             break;
 249:../src/platform/mpfs_hal/startup_gcc/system_startup.c ****                         case 2:
 250:../src/platform/mpfs_hal/startup_gcc/system_startup.c ****                             stack_top = (ptrdiff_t)((uint8_t*)&__stack_top_h2$);
 251:../src/platform/mpfs_hal/startup_gcc/system_startup.c ****                             break;
 252:../src/platform/mpfs_hal/startup_gcc/system_startup.c ****                         case 3:
 253:../src/platform/mpfs_hal/startup_gcc/system_startup.c ****                             stack_top = (ptrdiff_t)((uint8_t*)&__stack_top_h3$);
 254:../src/platform/mpfs_hal/startup_gcc/system_startup.c ****                             break;
 255:../src/platform/mpfs_hal/startup_gcc/system_startup.c ****                         case 4:
 256:../src/platform/mpfs_hal/startup_gcc/system_startup.c ****                             stack_top = (ptrdiff_t)((uint8_t*)&__stack_top_h4$);
 257:../src/platform/mpfs_hal/startup_gcc/system_startup.c ****                             break;
 258:../src/platform/mpfs_hal/startup_gcc/system_startup.c ****                     }
 259:../src/platform/mpfs_hal/startup_gcc/system_startup.c ****                     hls = (HLS_DATA*)(stack_top - HLS_DEBUG_AREA_SIZE);
 260:../src/platform/mpfs_hal/startup_gcc/system_startup.c ****                     sm_check_thread = CHECK_WFI;
 261:../src/platform/mpfs_hal/startup_gcc/system_startup.c ****                     wait_count = 0U;
 262:../src/platform/mpfs_hal/startup_gcc/system_startup.c ****                     break;
 263:../src/platform/mpfs_hal/startup_gcc/system_startup.c **** 
 264:../src/platform/mpfs_hal/startup_gcc/system_startup.c ****                 case CHECK_WFI:
 265:../src/platform/mpfs_hal/startup_gcc/system_startup.c ****                     if( hls->in_wfi_indicator == HLS_OTHER_HART_IN_WFI )
 266:../src/platform/mpfs_hal/startup_gcc/system_startup.c ****                     {
 267:../src/platform/mpfs_hal/startup_gcc/system_startup.c ****                         /* Separate state- to add a little delay */
 268:../src/platform/mpfs_hal/startup_gcc/system_startup.c ****                         sm_check_thread = SEND_WFI;
 269:../src/platform/mpfs_hal/startup_gcc/system_startup.c ****                     }
 270:../src/platform/mpfs_hal/startup_gcc/system_startup.c ****                     break;
 271:../src/platform/mpfs_hal/startup_gcc/system_startup.c **** 
 272:../src/platform/mpfs_hal/startup_gcc/system_startup.c ****                 case SEND_WFI:
 273:../src/platform/mpfs_hal/startup_gcc/system_startup.c ****                     hls->my_hart_id = hart_id; /* record hartid locally */
 274:../src/platform/mpfs_hal/startup_gcc/system_startup.c ****                     raise_soft_interrupt(hart_id);
 275:../src/platform/mpfs_hal/startup_gcc/system_startup.c ****                     sm_check_thread = CHECK_WAKE;
 276:../src/platform/mpfs_hal/startup_gcc/system_startup.c ****                     wait_count = 0UL;
 277:../src/platform/mpfs_hal/startup_gcc/system_startup.c ****                     break;
 278:../src/platform/mpfs_hal/startup_gcc/system_startup.c **** 
 279:../src/platform/mpfs_hal/startup_gcc/system_startup.c ****                 case CHECK_WAKE:
 280:../src/platform/mpfs_hal/startup_gcc/system_startup.c ****                     if( hls->in_wfi_indicator == HLS_OTHER_HART_PASSED_WFI )
 281:../src/platform/mpfs_hal/startup_gcc/system_startup.c ****                     {
 282:../src/platform/mpfs_hal/startup_gcc/system_startup.c ****                         sm_check_thread = INIT_THREAD_PR;
 283:../src/platform/mpfs_hal/startup_gcc/system_startup.c ****                         hart_id++;
 284:../src/platform/mpfs_hal/startup_gcc/system_startup.c ****                         wait_count = 0UL;
 285:../src/platform/mpfs_hal/startup_gcc/system_startup.c ****                     }
 286:../src/platform/mpfs_hal/startup_gcc/system_startup.c ****                     else
 287:../src/platform/mpfs_hal/startup_gcc/system_startup.c ****                     {
 288:../src/platform/mpfs_hal/startup_gcc/system_startup.c ****                         wait_count++;
 289:../src/platform/mpfs_hal/startup_gcc/system_startup.c ****                         if(wait_count > 0x10U)
 290:../src/platform/mpfs_hal/startup_gcc/system_startup.c ****                         {
 291:../src/platform/mpfs_hal/startup_gcc/system_startup.c ****                             if( hls->in_wfi_indicator == HLS_OTHER_HART_IN_WFI )
 292:../src/platform/mpfs_hal/startup_gcc/system_startup.c ****                             {
 293:../src/platform/mpfs_hal/startup_gcc/system_startup.c ****                                 hls->my_hart_id = hart_id; /* record hartid locally */
 294:../src/platform/mpfs_hal/startup_gcc/system_startup.c ****                                 raise_soft_interrupt(hart_id);
 295:../src/platform/mpfs_hal/startup_gcc/system_startup.c ****                                 wait_count = 0UL;
 296:../src/platform/mpfs_hal/startup_gcc/system_startup.c ****                             }
 297:../src/platform/mpfs_hal/startup_gcc/system_startup.c ****                         }
 298:../src/platform/mpfs_hal/startup_gcc/system_startup.c ****                     }
 299:../src/platform/mpfs_hal/startup_gcc/system_startup.c ****                     break;
 300:../src/platform/mpfs_hal/startup_gcc/system_startup.c ****             }
 301:../src/platform/mpfs_hal/startup_gcc/system_startup.c ****         }
 302:../src/platform/mpfs_hal/startup_gcc/system_startup.c ****         stack_top = (ptrdiff_t)((uint8_t*)&__stack_top_h1$);
 303:../src/platform/mpfs_hal/startup_gcc/system_startup.c ****         hls = (HLS_DATA*)(stack_top - HLS_DEBUG_AREA_SIZE);
 304:../src/platform/mpfs_hal/startup_gcc/system_startup.c ****         hls->in_wfi_indicator = HLS_MAIN_HART_FIN_INIT;
 305:../src/platform/mpfs_hal/startup_gcc/system_startup.c ****         (void)main_other_hart(hls);
 306:../src/platform/mpfs_hal/startup_gcc/system_startup.c ****     }
 307:../src/platform/mpfs_hal/startup_gcc/system_startup.c **** 
 308:../src/platform/mpfs_hal/startup_gcc/system_startup.c ****     __builtin_unreachable();
 309:../src/platform/mpfs_hal/startup_gcc/system_startup.c ****     /* should never get here */
 310:../src/platform/mpfs_hal/startup_gcc/system_startup.c ****     while(true)
 311:../src/platform/mpfs_hal/startup_gcc/system_startup.c ****     {
 312:../src/platform/mpfs_hal/startup_gcc/system_startup.c ****        static volatile uint64_t counter = 0U;
 313:../src/platform/mpfs_hal/startup_gcc/system_startup.c ****        /* Added some code as debugger hangs if in loop doing nothing */
 314:../src/platform/mpfs_hal/startup_gcc/system_startup.c ****        counter = counter + 1U;
 315:../src/platform/mpfs_hal/startup_gcc/system_startup.c ****     }
 316:../src/platform/mpfs_hal/startup_gcc/system_startup.c **** 
 317:../src/platform/mpfs_hal/startup_gcc/system_startup.c ****     return (0);
 318:../src/platform/mpfs_hal/startup_gcc/system_startup.c **** }
 319:../src/platform/mpfs_hal/startup_gcc/system_startup.c **** #endif
 320:../src/platform/mpfs_hal/startup_gcc/system_startup.c **** 
 321:../src/platform/mpfs_hal/startup_gcc/system_startup.c **** /*==============================================================================
 322:../src/platform/mpfs_hal/startup_gcc/system_startup.c ****  * U54s startup.
 323:../src/platform/mpfs_hal/startup_gcc/system_startup.c ****  * This is called from entry.S
 324:../src/platform/mpfs_hal/startup_gcc/system_startup.c ****  * If you need to modify this function, create your own one in a user directory
 325:../src/platform/mpfs_hal/startup_gcc/system_startup.c ****  * space.
 326:../src/platform/mpfs_hal/startup_gcc/system_startup.c ****  *
 327:../src/platform/mpfs_hal/startup_gcc/system_startup.c ****  * Please note: harts MPFS_HAL_FIRST_FIRST + 1 to MPFS_HAL_FIRST_LAST will wait
 328:../src/platform/mpfs_hal/startup_gcc/system_startup.c ****  * in startup code in entry.S as they run the wfi (wait for interrupt)
 329:../src/platform/mpfs_hal/startup_gcc/system_startup.c ****  * instruction.
 330:../src/platform/mpfs_hal/startup_gcc/system_startup.c ****  * They are woken up as required by the the MPFS_HAL_FIRST_HART, in the function
 331:../src/platform/mpfs_hal/startup_gcc/system_startup.c ****  * main_first_hart().
 332:../src/platform/mpfs_hal/startup_gcc/system_startup.c ****  * ( It triggers a software interrupt on the particular hart to be woken up )
 333:../src/platform/mpfs_hal/startup_gcc/system_startup.c ****  */
 334:../src/platform/mpfs_hal/startup_gcc/system_startup.c **** __attribute__((weak)) int main_other_hart(HLS_DATA* hls)
 335:../src/platform/mpfs_hal/startup_gcc/system_startup.c **** {
 714              		.loc 3 335 1
 715              		.cfi_startproc
 716 0000 5D71     		addi	sp,sp,-80
 717              		.cfi_def_cfa_offset 80
 718 0002 86E4     		sd	ra,72(sp)
 719 0004 A2E0     		sd	s0,64(sp)
 720              		.cfi_offset 1, -8
 721              		.cfi_offset 8, -16
 722 0006 8008     		addi	s0,sp,80
 723              		.cfi_def_cfa 8, 0
 724 0008 233CA4FA 		sd	a0,-72(s0)
 336:../src/platform/mpfs_hal/startup_gcc/system_startup.c **** #if (IMAGE_LOADED_BY_BOOTLOADER == 0)   // This also means no hardware init is required
 337:../src/platform/mpfs_hal/startup_gcc/system_startup.c ****     extern char __app_stack_top_h0;
 338:../src/platform/mpfs_hal/startup_gcc/system_startup.c ****     extern char __app_stack_top_h1;
 339:../src/platform/mpfs_hal/startup_gcc/system_startup.c ****     extern char __app_stack_top_h2;
 340:../src/platform/mpfs_hal/startup_gcc/system_startup.c ****     extern char __app_stack_top_h3;
 341:../src/platform/mpfs_hal/startup_gcc/system_startup.c ****     extern char __app_stack_top_h4;
 342:../src/platform/mpfs_hal/startup_gcc/system_startup.c **** 
 343:../src/platform/mpfs_hal/startup_gcc/system_startup.c ****     const uint64_t app_stack_top_h0 = (const uint64_t)&__app_stack_top_h0 - (HLS_DEBUG_AREA_SIZE);
 725              		.loc 3 343 39
 726 000c 97070000 		lla	a5,__app_stack_top_h0
 726      93870700 
 727              		.loc 3 343 20
 728 0014 938707FC 		addi	a5,a5,-64
 729 0018 2334F4FE 		sd	a5,-24(s0)
 344:../src/platform/mpfs_hal/startup_gcc/system_startup.c ****     const uint64_t app_stack_top_h1 = (const uint64_t)&__app_stack_top_h1 - (HLS_DEBUG_AREA_SIZE);
 730              		.loc 3 344 39
 731 001c 97070000 		lla	a5,__app_stack_top_h1
 731      93870700 
 732              		.loc 3 344 20
 733 0024 938707FC 		addi	a5,a5,-64
 734 0028 2330F4FE 		sd	a5,-32(s0)
 345:../src/platform/mpfs_hal/startup_gcc/system_startup.c ****     const uint64_t app_stack_top_h2 = (const uint64_t)&__app_stack_top_h2 - (HLS_DEBUG_AREA_SIZE);
 735              		.loc 3 345 39
 736 002c 97070000 		lla	a5,__app_stack_top_h2
 736      93870700 
 737              		.loc 3 345 20
 738 0034 938707FC 		addi	a5,a5,-64
 739 0038 233CF4FC 		sd	a5,-40(s0)
 346:../src/platform/mpfs_hal/startup_gcc/system_startup.c ****     const uint64_t app_stack_top_h3 = (const uint64_t)&__app_stack_top_h3 - (HLS_DEBUG_AREA_SIZE);
 740              		.loc 3 346 39
 741 003c 97070000 		lla	a5,__app_stack_top_h3
 741      93870700 
 742              		.loc 3 346 20
 743 0044 938707FC 		addi	a5,a5,-64
 744 0048 2338F4FC 		sd	a5,-48(s0)
 347:../src/platform/mpfs_hal/startup_gcc/system_startup.c ****     const uint64_t app_stack_top_h4 = (const uint64_t)&__app_stack_top_h4 - (HLS_DEBUG_AREA_SIZE);
 745              		.loc 3 347 39
 746 004c 97070000 		lla	a5,__app_stack_top_h4
 746      93870700 
 747              		.loc 3 347 20
 748 0054 938707FC 		addi	a5,a5,-64
 749 0058 2334F4FC 		sd	a5,-56(s0)
 348:../src/platform/mpfs_hal/startup_gcc/system_startup.c **** 
 349:../src/platform/mpfs_hal/startup_gcc/system_startup.c **** #ifdef  MPFS_HAL_HW_CONFIG
 350:../src/platform/mpfs_hal/startup_gcc/system_startup.c **** #ifdef  MPFS_HAL_SHARED_MEM_ENABLED
 351:../src/platform/mpfs_hal/startup_gcc/system_startup.c ****     /*
 352:../src/platform/mpfs_hal/startup_gcc/system_startup.c ****      * If we are a boot-loader, and shared memory enabled (MPFS_HAL_SHARED_MEM_ENABLED)
 353:../src/platform/mpfs_hal/startup_gcc/system_startup.c ****      * sets the pointer in each harts HLS to the shared memory.
 354:../src/platform/mpfs_hal/startup_gcc/system_startup.c ****      * This allows access to this shared memory across all harts.
 355:../src/platform/mpfs_hal/startup_gcc/system_startup.c ****      */
 356:../src/platform/mpfs_hal/startup_gcc/system_startup.c ****     const uint64_t app_hart_common_start = (const uint64_t)&__app_hart_common_start;
 357:../src/platform/mpfs_hal/startup_gcc/system_startup.c ****     hls->shared_mem = (uint64_t *)app_hart_common_start;
 358:../src/platform/mpfs_hal/startup_gcc/system_startup.c ****     hls->shared_mem_marker = SHARED_MEM_INITALISED_MARKER;
 359:../src/platform/mpfs_hal/startup_gcc/system_startup.c ****     hls->shared_mem_status = SHARED_MEM_DEFAULT_STATUS;
 360:../src/platform/mpfs_hal/startup_gcc/system_startup.c **** #endif
 361:../src/platform/mpfs_hal/startup_gcc/system_startup.c **** #else
 362:../src/platform/mpfs_hal/startup_gcc/system_startup.c **** #ifdef  MPFS_HAL_SHARED_MEM_ENABLED
 363:../src/platform/mpfs_hal/startup_gcc/system_startup.c ****     /* make sure each harts Harts Local Storage has pointer to common memory if enabled */
 364:../src/platform/mpfs_hal/startup_gcc/system_startup.c ****     /* store the value here received from boot-loader */
 365:../src/platform/mpfs_hal/startup_gcc/system_startup.c ****     /* a1 will contain pointer to the start of shared memory */
 366:../src/platform/mpfs_hal/startup_gcc/system_startup.c ****     //hls->shared_mem = (uint64_t *)__uninit_bottom$;
 367:../src/platform/mpfs_hal/startup_gcc/system_startup.c **** #else
 368:../src/platform/mpfs_hal/startup_gcc/system_startup.c ****     /*
 369:../src/platform/mpfs_hal/startup_gcc/system_startup.c ****      * We are not using shared memory
 370:../src/platform/mpfs_hal/startup_gcc/system_startup.c ****      */
 371:../src/platform/mpfs_hal/startup_gcc/system_startup.c ****     hls->shared_mem = (uint64_t *)NULL;
 372:../src/platform/mpfs_hal/startup_gcc/system_startup.c **** #endif
 373:../src/platform/mpfs_hal/startup_gcc/system_startup.c **** #endif
 374:../src/platform/mpfs_hal/startup_gcc/system_startup.c **** 
 375:../src/platform/mpfs_hal/startup_gcc/system_startup.c ****     volatile uint64_t dummy;
 376:../src/platform/mpfs_hal/startup_gcc/system_startup.c **** 
 377:../src/platform/mpfs_hal/startup_gcc/system_startup.c ****     switch(hls->my_hart_id)
 750              		.loc 3 377 15
 751 005c 833784FB 		ld	a5,-72(s0)
 752 0060 DC43     		lw	a5,4(a5)
 753 0062 8127     		sext.w	a5,a5
 754              		.loc 3 377 5
 755 0064 BE86     		mv	a3,a5
 756 0066 1147     		li	a4,4
 757 0068 636DD70A 		bgtu	a3,a4,.L45
 758 006c 13972700 		slli	a4,a5,2
 759 0070 97070000 		lla	a5,.L38
 759      93870700 
 760 0078 BA97     		add	a5,a4,a5
 761 007a 9C43     		lw	a5,0(a5)
 762 007c 1B870700 		sext.w	a4,a5
 763 0080 97070000 		lla	a5,.L38
 763      93870700 
 764 0088 BA97     		add	a5,a4,a5
 765 008a 8287     		jr	a5
 766              		.section	.rodata.main_other_hart,"a",@progbits
 767              		.align	2
 768              		.align	2
 769              	.L38:
 770 0000 00000000 		.word	.L42-.L38
 771 0004 00000000 		.word	.L41-.L38
 772 0008 00000000 		.word	.L40-.L38
 773 000c 00000000 		.word	.L39-.L38
 774 0010 00000000 		.word	.L37-.L38
 775              		.section	.text.main_other_hart
 776              	.L42:
 378:../src/platform/mpfs_hal/startup_gcc/system_startup.c ****     {
 379:../src/platform/mpfs_hal/startup_gcc/system_startup.c **** 
 380:../src/platform/mpfs_hal/startup_gcc/system_startup.c ****     case 0U:
 381:../src/platform/mpfs_hal/startup_gcc/system_startup.c ****         __asm volatile ("add sp, x0, %1" : "=r"(dummy) : "r"(app_stack_top_h0));
 777              		.loc 3 381 9
 778 008c 833784FE 		ld	a5,-24(s0)
 779              	 #APP
 780              	# 381 "../src/platform/mpfs_hal/startup_gcc/system_startup.c" 1
 382              	        e51();
 781              		add sp, x0, a5
 782              	# 0 "" 2
 783              	 #NO_APP
 784 0094 2330F4FC 		sd	a5,-64(s0)
 785              		.loc 3 382 9
 786 0098 97000000 		call	e51
 786      E7800000 
 383:../src/platform/mpfs_hal/startup_gcc/system_startup.c ****         break;
 787              		.loc 3 383 9
 788 00a0 51A0     		j	.L44
 789              	.L41:
 384:../src/platform/mpfs_hal/startup_gcc/system_startup.c **** 
 385:../src/platform/mpfs_hal/startup_gcc/system_startup.c ****     case 1U:
 386:../src/platform/mpfs_hal/startup_gcc/system_startup.c ****         (void)init_pmp((uint8_t)1);
 790              		.loc 3 386 15
 791 00a2 0545     		li	a0,1
 792 00a4 97000000 		call	init_pmp
 792      E7800000 
 387:../src/platform/mpfs_hal/startup_gcc/system_startup.c ****         __asm volatile ("add sp, x0, %1" : "=r"(dummy) : "r"(app_stack_top_h1));
 793              		.loc 3 387 9
 794 00ac 833704FE 		ld	a5,-32(s0)
 795              	 #APP
 796              	# 387 "../src/platform/mpfs_hal/startup_gcc/system_startup.c" 1
 388              	        u54_1();
 797              		add sp, x0, a5
 798              	# 0 "" 2
 799              	 #NO_APP
 800 00b4 2330F4FC 		sd	a5,-64(s0)
 801              		.loc 3 388 9
 802 00b8 97000000 		call	u54_1
 802      E7800000 
 389:../src/platform/mpfs_hal/startup_gcc/system_startup.c ****         break;
 803              		.loc 3 389 9
 804 00c0 95A0     		j	.L44
 805              	.L40:
 390:../src/platform/mpfs_hal/startup_gcc/system_startup.c **** 
 391:../src/platform/mpfs_hal/startup_gcc/system_startup.c ****     case 2U:
 392:../src/platform/mpfs_hal/startup_gcc/system_startup.c ****         (void)init_pmp((uint8_t)2);
 806              		.loc 3 392 15
 807 00c2 0945     		li	a0,2
 808 00c4 97000000 		call	init_pmp
 808      E7800000 
 393:../src/platform/mpfs_hal/startup_gcc/system_startup.c ****         __asm volatile ("add sp, x0, %1" : "=r"(dummy) : "r"(app_stack_top_h2));
 809              		.loc 3 393 9
 810 00cc 833784FD 		ld	a5,-40(s0)
 811              	 #APP
 812              	# 393 "../src/platform/mpfs_hal/startup_gcc/system_startup.c" 1
 394              	        u54_2();
 813              		add sp, x0, a5
 814              	# 0 "" 2
 815              	 #NO_APP
 816 00d4 2330F4FC 		sd	a5,-64(s0)
 817              		.loc 3 394 9
 818 00d8 97000000 		call	u54_2
 818      E7800000 
 395:../src/platform/mpfs_hal/startup_gcc/system_startup.c ****         break;
 819              		.loc 3 395 9
 820 00e0 91A0     		j	.L44
 821              	.L39:
 396:../src/platform/mpfs_hal/startup_gcc/system_startup.c **** 
 397:../src/platform/mpfs_hal/startup_gcc/system_startup.c ****     case 3U:
 398:../src/platform/mpfs_hal/startup_gcc/system_startup.c ****         (void)init_pmp((uint8_t)3);
 822              		.loc 3 398 15
 823 00e2 0D45     		li	a0,3
 824 00e4 97000000 		call	init_pmp
 824      E7800000 
 399:../src/platform/mpfs_hal/startup_gcc/system_startup.c ****         __asm volatile ("add sp, x0, %1" : "=r"(dummy) : "r"(app_stack_top_h3));
 825              		.loc 3 399 9
 826 00ec 833704FD 		ld	a5,-48(s0)
 827              	 #APP
 828              	# 399 "../src/platform/mpfs_hal/startup_gcc/system_startup.c" 1
 400              	        u54_3();
 829              		add sp, x0, a5
 830              	# 0 "" 2
 831              	 #NO_APP
 832 00f4 2330F4FC 		sd	a5,-64(s0)
 833              		.loc 3 400 9
 834 00f8 97000000 		call	u54_3
 834      E7800000 
 401:../src/platform/mpfs_hal/startup_gcc/system_startup.c ****         break;
 835              		.loc 3 401 9
 836 0100 15A0     		j	.L44
 837              	.L37:
 402:../src/platform/mpfs_hal/startup_gcc/system_startup.c **** 
 403:../src/platform/mpfs_hal/startup_gcc/system_startup.c ****     case 4U:
 404:../src/platform/mpfs_hal/startup_gcc/system_startup.c ****         (void)init_pmp((uint8_t)4);
 838              		.loc 3 404 15
 839 0102 1145     		li	a0,4
 840 0104 97000000 		call	init_pmp
 840      E7800000 
 405:../src/platform/mpfs_hal/startup_gcc/system_startup.c ****         __asm volatile ("add sp, x0, %1" : "=r"(dummy) : "r"(app_stack_top_h4));
 841              		.loc 3 405 9
 842 010c 833784FC 		ld	a5,-56(s0)
 843              	 #APP
 844              	# 405 "../src/platform/mpfs_hal/startup_gcc/system_startup.c" 1
 406              	        u54_4();
 845              		add sp, x0, a5
 846              	# 0 "" 2
 847              	 #NO_APP
 848 0114 2330F4FC 		sd	a5,-64(s0)
 849              		.loc 3 406 9
 850 0118 97000000 		call	u54_4
 850      E7800000 
 407:../src/platform/mpfs_hal/startup_gcc/system_startup.c ****         break;
 851              		.loc 3 407 9
 852 0120 11A0     		j	.L44
 853              	.L45:
 408:../src/platform/mpfs_hal/startup_gcc/system_startup.c **** 
 409:../src/platform/mpfs_hal/startup_gcc/system_startup.c ****     default:
 410:../src/platform/mpfs_hal/startup_gcc/system_startup.c ****         /* no more harts */
 411:../src/platform/mpfs_hal/startup_gcc/system_startup.c ****         break;
 854              		.loc 3 411 9
 855 0122 0100     		nop
 856              	.L44:
 857              	.LBB7:
 412:../src/platform/mpfs_hal/startup_gcc/system_startup.c ****     }
 413:../src/platform/mpfs_hal/startup_gcc/system_startup.c **** 
 414:../src/platform/mpfs_hal/startup_gcc/system_startup.c ****     /* should never get here */
 415:../src/platform/mpfs_hal/startup_gcc/system_startup.c ****     while(true)
 416:../src/platform/mpfs_hal/startup_gcc/system_startup.c ****     {
 417:../src/platform/mpfs_hal/startup_gcc/system_startup.c ****        static volatile uint64_t counter = 0U;
 418:../src/platform/mpfs_hal/startup_gcc/system_startup.c ****        /* Added some code as debugger hangs if in loop doing nothing */
 419:../src/platform/mpfs_hal/startup_gcc/system_startup.c ****        counter = counter + 1U;
 858              		.loc 3 419 26 discriminator 1
 859 0124 97070000 		lla	a5,counter.12995
 859      93870700 
 860 012c 9C63     		ld	a5,0(a5)
 861 012e 13871700 		addi	a4,a5,1
 862              		.loc 3 419 16 discriminator 1
 863 0132 97070000 		lla	a5,counter.12995
 863      93870700 
 864 013a 98E3     		sd	a4,0(a5)
 865              	.LBE7:
 416:../src/platform/mpfs_hal/startup_gcc/system_startup.c ****        static volatile uint64_t counter = 0U;
 866              		.loc 3 416 5 discriminator 1
 867 013c E5B7     		j	.L44
 868              		.cfi_endproc
 869              	.LFE21:
 871              		.globl	rom
 872              		.section	.rodata.rom,"a"
 873              		.align	3
 876              	rom:
 877 0000 13050000 		.word	1299
 878 0004 73104534 		.word	876941427
 879 0008 73005010 		.word	273678451
 880 000c 6FF05FFF 		.word	-10489745
 881 0010 6FF01FFF 		.word	-14684049
 882 0014 6FF0DFFE 		.word	-18878353
 883 0018 6FF09FFE 		.word	-23072657
 884 001c 6FF05FFE 		.word	-27266961
 885              		.section	.text.load_virtual_rom,"ax",@progbits
 886              		.align	1
 887              		.globl	load_virtual_rom
 889              	load_virtual_rom:
 890              	.LFB22:
 420:../src/platform/mpfs_hal/startup_gcc/system_startup.c ****     }
 421:../src/platform/mpfs_hal/startup_gcc/system_startup.c **** #else /* (IMAGE_LOADED_BY_BOOTLOADER == 0) */
 422:../src/platform/mpfs_hal/startup_gcc/system_startup.c **** 
 423:../src/platform/mpfs_hal/startup_gcc/system_startup.c **** 
 424:../src/platform/mpfs_hal/startup_gcc/system_startup.c ****     uint64_t hartid = read_csr(mhartid);
 425:../src/platform/mpfs_hal/startup_gcc/system_startup.c **** 
 426:../src/platform/mpfs_hal/startup_gcc/system_startup.c ****     switch(hartid)
 427:../src/platform/mpfs_hal/startup_gcc/system_startup.c ****     {
 428:../src/platform/mpfs_hal/startup_gcc/system_startup.c **** 
 429:../src/platform/mpfs_hal/startup_gcc/system_startup.c ****     case 0U:
 430:../src/platform/mpfs_hal/startup_gcc/system_startup.c ****         e51();
 431:../src/platform/mpfs_hal/startup_gcc/system_startup.c ****         break;
 432:../src/platform/mpfs_hal/startup_gcc/system_startup.c **** 
 433:../src/platform/mpfs_hal/startup_gcc/system_startup.c ****     case 1U:
 434:../src/platform/mpfs_hal/startup_gcc/system_startup.c ****         u54_1();
 435:../src/platform/mpfs_hal/startup_gcc/system_startup.c ****         break;
 436:../src/platform/mpfs_hal/startup_gcc/system_startup.c **** 
 437:../src/platform/mpfs_hal/startup_gcc/system_startup.c ****     case 2U:
 438:../src/platform/mpfs_hal/startup_gcc/system_startup.c ****         u54_2();
 439:../src/platform/mpfs_hal/startup_gcc/system_startup.c ****         break;
 440:../src/platform/mpfs_hal/startup_gcc/system_startup.c **** 
 441:../src/platform/mpfs_hal/startup_gcc/system_startup.c ****     case 3U:
 442:../src/platform/mpfs_hal/startup_gcc/system_startup.c ****         u54_3();
 443:../src/platform/mpfs_hal/startup_gcc/system_startup.c ****         break;
 444:../src/platform/mpfs_hal/startup_gcc/system_startup.c **** 
 445:../src/platform/mpfs_hal/startup_gcc/system_startup.c ****     case 4U:
 446:../src/platform/mpfs_hal/startup_gcc/system_startup.c ****         u54_4();
 447:../src/platform/mpfs_hal/startup_gcc/system_startup.c ****         break;
 448:../src/platform/mpfs_hal/startup_gcc/system_startup.c **** 
 449:../src/platform/mpfs_hal/startup_gcc/system_startup.c ****     default:
 450:../src/platform/mpfs_hal/startup_gcc/system_startup.c ****         /* no more harts */
 451:../src/platform/mpfs_hal/startup_gcc/system_startup.c ****         break;
 452:../src/platform/mpfs_hal/startup_gcc/system_startup.c ****     }
 453:../src/platform/mpfs_hal/startup_gcc/system_startup.c **** #endif
 454:../src/platform/mpfs_hal/startup_gcc/system_startup.c **** 
 455:../src/platform/mpfs_hal/startup_gcc/system_startup.c ****   return (0);
 456:../src/platform/mpfs_hal/startup_gcc/system_startup.c **** 
 457:../src/platform/mpfs_hal/startup_gcc/system_startup.c **** }
 458:../src/platform/mpfs_hal/startup_gcc/system_startup.c **** 
 459:../src/platform/mpfs_hal/startup_gcc/system_startup.c **** /*==============================================================================
 460:../src/platform/mpfs_hal/startup_gcc/system_startup.c ****  * Load the virtual ROM located at address 0x20003120 within the SCB system
 461:../src/platform/mpfs_hal/startup_gcc/system_startup.c ****  * registers with an executable allowing to park a hart in an infinite loop.
 462:../src/platform/mpfs_hal/startup_gcc/system_startup.c ****  */
 463:../src/platform/mpfs_hal/startup_gcc/system_startup.c **** #ifdef  MPFS_HAL_HW_CONFIG
 464:../src/platform/mpfs_hal/startup_gcc/system_startup.c **** #define VIRTUAL_BOOTROM_BASE_ADDR   0x20003120UL
 465:../src/platform/mpfs_hal/startup_gcc/system_startup.c **** #define NB_BOOT_ROM_WORDS           8U
 466:../src/platform/mpfs_hal/startup_gcc/system_startup.c **** const uint32_t rom[NB_BOOT_ROM_WORDS] =
 467:../src/platform/mpfs_hal/startup_gcc/system_startup.c **** {
 468:../src/platform/mpfs_hal/startup_gcc/system_startup.c ****     0x00000513U,    /* li a0, 0 */
 469:../src/platform/mpfs_hal/startup_gcc/system_startup.c ****     0x34451073U,    /* csrw mip, a0 */
 470:../src/platform/mpfs_hal/startup_gcc/system_startup.c ****     0x10500073U,    /* wfi */
 471:../src/platform/mpfs_hal/startup_gcc/system_startup.c ****     0xFF5FF06FU,    /* j 0x20003120 */
 472:../src/platform/mpfs_hal/startup_gcc/system_startup.c ****     0xFF1FF06FU,    /* j 0x20003120 */
 473:../src/platform/mpfs_hal/startup_gcc/system_startup.c ****     0xFEDFF06FU,    /* j 0x20003120 */
 474:../src/platform/mpfs_hal/startup_gcc/system_startup.c ****     0xFE9FF06FU,    /* j 0x20003120 */
 475:../src/platform/mpfs_hal/startup_gcc/system_startup.c ****     0xFE5FF06FU     /* j 0x20003120 */
 476:../src/platform/mpfs_hal/startup_gcc/system_startup.c **** };
 477:../src/platform/mpfs_hal/startup_gcc/system_startup.c **** 
 478:../src/platform/mpfs_hal/startup_gcc/system_startup.c **** void load_virtual_rom(void)
 479:../src/platform/mpfs_hal/startup_gcc/system_startup.c **** {
 891              		.loc 3 479 1
 892              		.cfi_startproc
 893 0000 0111     		addi	sp,sp,-32
 894              		.cfi_def_cfa_offset 32
 895 0002 06EC     		sd	ra,24(sp)
 896 0004 22E8     		sd	s0,16(sp)
 897              		.cfi_offset 1, -8
 898              		.cfi_offset 8, -16
 899 0006 0010     		addi	s0,sp,32
 900              		.cfi_def_cfa 8, 0
 480:../src/platform/mpfs_hal/startup_gcc/system_startup.c ****     volatile uint32_t * p_virtual_bootrom = (uint32_t *)VIRTUAL_BOOTROM_BASE_ADDR;
 901              		.loc 3 480 25
 902 0008 B7370020 		li	a5,536883200
 903 000c 93870712 		addi	a5,a5,288
 904 0010 2334F4FE 		sd	a5,-24(s0)
 481:../src/platform/mpfs_hal/startup_gcc/system_startup.c ****     config_copy( (void *)p_virtual_bootrom, (void *)rom,sizeof(rom[NB_BOOT_ROM_WORDS]));
 905              		.loc 3 481 5
 906 0014 1146     		li	a2,4
 907 0016 97050000 		lla	a1,rom
 907      93850500 
 908 001e 033584FE 		ld	a0,-24(s0)
 909 0022 97000000 		call	config_copy
 909      E7800000 
 482:../src/platform/mpfs_hal/startup_gcc/system_startup.c **** }
 910              		.loc 3 482 1
 911 002a 0100     		nop
 912 002c E260     		ld	ra,24(sp)
 913              		.cfi_restore 1
 914 002e 4264     		ld	s0,16(sp)
 915              		.cfi_restore 8
 916              		.cfi_def_cfa 2, 32
 917 0030 0561     		addi	sp,sp,32
 918              		.cfi_def_cfa_offset 0
 919 0032 8280     		jr	ra
 920              		.cfi_endproc
 921              	.LFE22:
 923              		.section	.text.park_hart,"ax",@progbits
 924              		.align	1
 926              	park_hart:
 927              	.LFB23:
 483:../src/platform/mpfs_hal/startup_gcc/system_startup.c **** #endif  /* MPFS_HAL_HW_CONFIG */
 484:../src/platform/mpfs_hal/startup_gcc/system_startup.c **** 
 485:../src/platform/mpfs_hal/startup_gcc/system_startup.c **** /*==============================================================================
 486:../src/platform/mpfs_hal/startup_gcc/system_startup.c ****  * Put the hart executing this code into an infinite loop executing from the
 487:../src/platform/mpfs_hal/startup_gcc/system_startup.c ****  * SCB system register memory space.
 488:../src/platform/mpfs_hal/startup_gcc/system_startup.c ****  * This allows preventing a hart from accessing memory regardless of memory
 489:../src/platform/mpfs_hal/startup_gcc/system_startup.c ****  * hierarchy configuration or compiler/linker settings.
 490:../src/platform/mpfs_hal/startup_gcc/system_startup.c ****  * This function relies on load_virtual_rom() having been called previously to
 491:../src/platform/mpfs_hal/startup_gcc/system_startup.c ****  * populate the virtual ROM with a suitable executable.
 492:../src/platform/mpfs_hal/startup_gcc/system_startup.c ****  */
 493:../src/platform/mpfs_hal/startup_gcc/system_startup.c **** static void park_hart(void)
 494:../src/platform/mpfs_hal/startup_gcc/system_startup.c **** {
 928              		.loc 3 494 1
 929              		.cfi_startproc
 930 0000 0111     		addi	sp,sp,-32
 931              		.cfi_def_cfa_offset 32
 932 0002 22EC     		sd	s0,24(sp)
 933              		.cfi_offset 8, -8
 934 0004 0010     		addi	s0,sp,32
 935              		.cfi_def_cfa 8, 0
 936              	.LBB8:
 495:../src/platform/mpfs_hal/startup_gcc/system_startup.c ****     clear_csr(mstatus, MSTATUS_MIE);
 937              		.loc 3 495 5
 938              	 #APP
 939              	# 495 "../src/platform/mpfs_hal/startup_gcc/system_startup.c" 1
 496              	    __asm volatile("fence.i");
 940              		csrrc a5, mstatus, 8
 941              	# 0 "" 2
 942              	 #NO_APP
 943 000a 2334F4FE 		sd	a5,-24(s0)
 944              	.LBE8:
 945              		.loc 3 496 5
 946              	 #APP
 947              	# 496 "../src/platform/mpfs_hal/startup_gcc/system_startup.c" 1
 497              	    __asm volatile("li ra,0x20003120");
 948              		fence.i
 949              	# 0 "" 2
 950              		.loc 3 497 5
 951              	# 497 "../src/platform/mpfs_hal/startup_gcc/system_startup.c" 1
 498              	    __asm volatile("ret");
 952              		li ra,0x20003120
 953              	# 0 "" 2
 954              		.loc 3 498 5
 955              	# 498 "../src/platform/mpfs_hal/startup_gcc/system_startup.c" 1
 499              	}
 956              		ret
 957              	# 0 "" 2
 958              		.loc 3 499 1
 959              	 #NO_APP
 960 001c 0100     		nop
 961 001e 6264     		ld	s0,24(sp)
 962              		.cfi_restore 8
 963              		.cfi_def_cfa 2, 32
 964 0020 0561     		addi	sp,sp,32
 965              		.cfi_def_cfa_offset 0
 966 0022 8280     		jr	ra
 967              		.cfi_endproc
 968              	.LFE23:
 970              		.section	.text.e51,"ax",@progbits
 971              		.align	1
 972              		.weak	e51
 974              	e51:
 975              	.LFB24:
 500:../src/platform/mpfs_hal/startup_gcc/system_startup.c **** 
 501:../src/platform/mpfs_hal/startup_gcc/system_startup.c **** /*==============================================================================
 502:../src/platform/mpfs_hal/startup_gcc/system_startup.c ****  * E51 code executing after system startup.
 503:../src/platform/mpfs_hal/startup_gcc/system_startup.c ****  * In absence of an application function of this name with strong linkage, this
 504:../src/platform/mpfs_hal/startup_gcc/system_startup.c ****  * function will get linked.
 505:../src/platform/mpfs_hal/startup_gcc/system_startup.c ****  * This default implementation is for illustration purpose only. If you need to
 506:../src/platform/mpfs_hal/startup_gcc/system_startup.c ****  * modify this function, create your own one in an application directory space.
 507:../src/platform/mpfs_hal/startup_gcc/system_startup.c ****  */
 508:../src/platform/mpfs_hal/startup_gcc/system_startup.c **** __attribute__((weak)) void e51(void)
 509:../src/platform/mpfs_hal/startup_gcc/system_startup.c **** {
 976              		.loc 3 509 1
 977              		.cfi_startproc
 978 0000 4111     		addi	sp,sp,-16
 979              		.cfi_def_cfa_offset 16
 980 0002 06E4     		sd	ra,8(sp)
 981 0004 22E0     		sd	s0,0(sp)
 982              		.cfi_offset 1, -8
 983              		.cfi_offset 8, -16
 984 0006 0008     		addi	s0,sp,16
 985              		.cfi_def_cfa 8, 0
 510:../src/platform/mpfs_hal/startup_gcc/system_startup.c ****     /* Put hart in safe infinite WFI loop. */
 511:../src/platform/mpfs_hal/startup_gcc/system_startup.c ****      park_hart();
 986              		.loc 3 511 6
 987 0008 97000000 		call	park_hart
 987      E7800000 
 512:../src/platform/mpfs_hal/startup_gcc/system_startup.c **** }
 988              		.loc 3 512 1
 989 0010 0100     		nop
 990 0012 A260     		ld	ra,8(sp)
 991              		.cfi_restore 1
 992 0014 0264     		ld	s0,0(sp)
 993              		.cfi_restore 8
 994              		.cfi_def_cfa 2, 16
 995 0016 4101     		addi	sp,sp,16
 996              		.cfi_def_cfa_offset 0
 997 0018 8280     		jr	ra
 998              		.cfi_endproc
 999              	.LFE24:
 1001              		.section	.text.u54_1,"ax",@progbits
 1002              		.align	1
 1003              		.weak	u54_1
 1005              	u54_1:
 1006              	.LFB25:
 513:../src/platform/mpfs_hal/startup_gcc/system_startup.c **** 
 514:../src/platform/mpfs_hal/startup_gcc/system_startup.c **** /*==============================================================================
 515:../src/platform/mpfs_hal/startup_gcc/system_startup.c ****  * First U54.
 516:../src/platform/mpfs_hal/startup_gcc/system_startup.c ****  * In absence of an application function of this name with strong linkage, this
 517:../src/platform/mpfs_hal/startup_gcc/system_startup.c ****  * function will get linked.
 518:../src/platform/mpfs_hal/startup_gcc/system_startup.c ****  * This default implementation is for illustration purpose only. If you need to
 519:../src/platform/mpfs_hal/startup_gcc/system_startup.c ****  * modify this function, create your own one in an application directory space.
 520:../src/platform/mpfs_hal/startup_gcc/system_startup.c ****   */
 521:../src/platform/mpfs_hal/startup_gcc/system_startup.c **** __attribute__((weak)) void u54_1(void)
 522:../src/platform/mpfs_hal/startup_gcc/system_startup.c **** {
 1007              		.loc 3 522 1
 1008              		.cfi_startproc
 1009 0000 4111     		addi	sp,sp,-16
 1010              		.cfi_def_cfa_offset 16
 1011 0002 06E4     		sd	ra,8(sp)
 1012 0004 22E0     		sd	s0,0(sp)
 1013              		.cfi_offset 1, -8
 1014              		.cfi_offset 8, -16
 1015 0006 0008     		addi	s0,sp,16
 1016              		.cfi_def_cfa 8, 0
 523:../src/platform/mpfs_hal/startup_gcc/system_startup.c ****     /* Put hart in safe infinite WFI loop. */
 524:../src/platform/mpfs_hal/startup_gcc/system_startup.c ****      park_hart();
 1017              		.loc 3 524 6
 1018 0008 97000000 		call	park_hart
 1018      E7800000 
 525:../src/platform/mpfs_hal/startup_gcc/system_startup.c **** }
 1019              		.loc 3 525 1
 1020 0010 0100     		nop
 1021 0012 A260     		ld	ra,8(sp)
 1022              		.cfi_restore 1
 1023 0014 0264     		ld	s0,0(sp)
 1024              		.cfi_restore 8
 1025              		.cfi_def_cfa 2, 16
 1026 0016 4101     		addi	sp,sp,16
 1027              		.cfi_def_cfa_offset 0
 1028 0018 8280     		jr	ra
 1029              		.cfi_endproc
 1030              	.LFE25:
 1032              		.section	.text.u54_2,"ax",@progbits
 1033              		.align	1
 1034              		.weak	u54_2
 1036              	u54_2:
 1037              	.LFB26:
 526:../src/platform/mpfs_hal/startup_gcc/system_startup.c **** 
 527:../src/platform/mpfs_hal/startup_gcc/system_startup.c **** 
 528:../src/platform/mpfs_hal/startup_gcc/system_startup.c **** /*==============================================================================
 529:../src/platform/mpfs_hal/startup_gcc/system_startup.c ****  * Second U54.
 530:../src/platform/mpfs_hal/startup_gcc/system_startup.c ****  * In absence of an application function of this name with strong linkage, this
 531:../src/platform/mpfs_hal/startup_gcc/system_startup.c ****  * function will get linked.
 532:../src/platform/mpfs_hal/startup_gcc/system_startup.c ****  * This default implementation is for illustration purpose only. If you need to
 533:../src/platform/mpfs_hal/startup_gcc/system_startup.c ****  * modify this function, create your own one in an application directory space.
 534:../src/platform/mpfs_hal/startup_gcc/system_startup.c ****  */
 535:../src/platform/mpfs_hal/startup_gcc/system_startup.c **** __attribute__((weak)) void u54_2(void)
 536:../src/platform/mpfs_hal/startup_gcc/system_startup.c **** {
 1038              		.loc 3 536 1
 1039              		.cfi_startproc
 1040 0000 4111     		addi	sp,sp,-16
 1041              		.cfi_def_cfa_offset 16
 1042 0002 06E4     		sd	ra,8(sp)
 1043 0004 22E0     		sd	s0,0(sp)
 1044              		.cfi_offset 1, -8
 1045              		.cfi_offset 8, -16
 1046 0006 0008     		addi	s0,sp,16
 1047              		.cfi_def_cfa 8, 0
 537:../src/platform/mpfs_hal/startup_gcc/system_startup.c ****     /* Put hart in safe infinite WFI loop. */
 538:../src/platform/mpfs_hal/startup_gcc/system_startup.c ****     park_hart();
 1048              		.loc 3 538 5
 1049 0008 97000000 		call	park_hart
 1049      E7800000 
 539:../src/platform/mpfs_hal/startup_gcc/system_startup.c **** }
 1050              		.loc 3 539 1
 1051 0010 0100     		nop
 1052 0012 A260     		ld	ra,8(sp)
 1053              		.cfi_restore 1
 1054 0014 0264     		ld	s0,0(sp)
 1055              		.cfi_restore 8
 1056              		.cfi_def_cfa 2, 16
 1057 0016 4101     		addi	sp,sp,16
 1058              		.cfi_def_cfa_offset 0
 1059 0018 8280     		jr	ra
 1060              		.cfi_endproc
 1061              	.LFE26:
 1063              		.section	.text.u54_3,"ax",@progbits
 1064              		.align	1
 1065              		.weak	u54_3
 1067              	u54_3:
 1068              	.LFB27:
 540:../src/platform/mpfs_hal/startup_gcc/system_startup.c **** 
 541:../src/platform/mpfs_hal/startup_gcc/system_startup.c **** /*==============================================================================
 542:../src/platform/mpfs_hal/startup_gcc/system_startup.c ****  * Third U54.
 543:../src/platform/mpfs_hal/startup_gcc/system_startup.c ****  * In absence of an application function of this name with strong linkage, this
 544:../src/platform/mpfs_hal/startup_gcc/system_startup.c ****  * function will get linked.
 545:../src/platform/mpfs_hal/startup_gcc/system_startup.c ****  * This default implementation is for illustration purpose only. If you need to
 546:../src/platform/mpfs_hal/startup_gcc/system_startup.c ****  * modify this function, create your own one in an application directory space.
 547:../src/platform/mpfs_hal/startup_gcc/system_startup.c ****  */
 548:../src/platform/mpfs_hal/startup_gcc/system_startup.c **** __attribute__((weak)) void u54_3(void)
 549:../src/platform/mpfs_hal/startup_gcc/system_startup.c **** {
 1069              		.loc 3 549 1
 1070              		.cfi_startproc
 1071 0000 4111     		addi	sp,sp,-16
 1072              		.cfi_def_cfa_offset 16
 1073 0002 06E4     		sd	ra,8(sp)
 1074 0004 22E0     		sd	s0,0(sp)
 1075              		.cfi_offset 1, -8
 1076              		.cfi_offset 8, -16
 1077 0006 0008     		addi	s0,sp,16
 1078              		.cfi_def_cfa 8, 0
 550:../src/platform/mpfs_hal/startup_gcc/system_startup.c ****     /* Put hart in safe infinite WFI loop. */
 551:../src/platform/mpfs_hal/startup_gcc/system_startup.c ****      park_hart();
 1079              		.loc 3 551 6
 1080 0008 97000000 		call	park_hart
 1080      E7800000 
 552:../src/platform/mpfs_hal/startup_gcc/system_startup.c **** }
 1081              		.loc 3 552 1
 1082 0010 0100     		nop
 1083 0012 A260     		ld	ra,8(sp)
 1084              		.cfi_restore 1
 1085 0014 0264     		ld	s0,0(sp)
 1086              		.cfi_restore 8
 1087              		.cfi_def_cfa 2, 16
 1088 0016 4101     		addi	sp,sp,16
 1089              		.cfi_def_cfa_offset 0
 1090 0018 8280     		jr	ra
 1091              		.cfi_endproc
 1092              	.LFE27:
 1094              		.section	.text.u54_4,"ax",@progbits
 1095              		.align	1
 1096              		.weak	u54_4
 1098              	u54_4:
 1099              	.LFB28:
 553:../src/platform/mpfs_hal/startup_gcc/system_startup.c **** 
 554:../src/platform/mpfs_hal/startup_gcc/system_startup.c **** /*==============================================================================
 555:../src/platform/mpfs_hal/startup_gcc/system_startup.c ****  * Fourth U54.
 556:../src/platform/mpfs_hal/startup_gcc/system_startup.c ****  * In absence of an application function of this name with strong linkage, this
 557:../src/platform/mpfs_hal/startup_gcc/system_startup.c ****  * function will get linked.
 558:../src/platform/mpfs_hal/startup_gcc/system_startup.c ****  * This default implementation is for illustration purpose only. If you need to
 559:../src/platform/mpfs_hal/startup_gcc/system_startup.c ****  * modify this function, create your own one in an application directory space.
 560:../src/platform/mpfs_hal/startup_gcc/system_startup.c ****  */
 561:../src/platform/mpfs_hal/startup_gcc/system_startup.c **** __attribute__((weak)) void u54_4(void)
 562:../src/platform/mpfs_hal/startup_gcc/system_startup.c **** {
 1100              		.loc 3 562 1
 1101              		.cfi_startproc
 1102 0000 4111     		addi	sp,sp,-16
 1103              		.cfi_def_cfa_offset 16
 1104 0002 06E4     		sd	ra,8(sp)
 1105 0004 22E0     		sd	s0,0(sp)
 1106              		.cfi_offset 1, -8
 1107              		.cfi_offset 8, -16
 1108 0006 0008     		addi	s0,sp,16
 1109              		.cfi_def_cfa 8, 0
 563:../src/platform/mpfs_hal/startup_gcc/system_startup.c ****     /* Put hart in safe infinite WFI loop. */
 564:../src/platform/mpfs_hal/startup_gcc/system_startup.c ****      park_hart();
 1110              		.loc 3 564 6
 1111 0008 97000000 		call	park_hart
 1111      E7800000 
 565:../src/platform/mpfs_hal/startup_gcc/system_startup.c **** }
 1112              		.loc 3 565 1
 1113 0010 0100     		nop
 1114 0012 A260     		ld	ra,8(sp)
 1115              		.cfi_restore 1
 1116 0014 0264     		ld	s0,0(sp)
 1117              		.cfi_restore 8
 1118              		.cfi_def_cfa 2, 16
 1119 0016 4101     		addi	sp,sp,16
 1120              		.cfi_def_cfa_offset 0
 1121 0018 8280     		jr	ra
 1122              		.cfi_endproc
 1123              	.LFE28:
 1125              		.section	.text.init_memory,"ax",@progbits
 1126              		.align	1
 1127              		.weak	init_memory
 1129              	init_memory:
 1130              	.LFB29:
 566:../src/platform/mpfs_hal/startup_gcc/system_startup.c **** 
 567:../src/platform/mpfs_hal/startup_gcc/system_startup.c ****  /*-----------------------------------------------------------------------------
 568:../src/platform/mpfs_hal/startup_gcc/system_startup.c ****   * _start() function called invoked
 569:../src/platform/mpfs_hal/startup_gcc/system_startup.c ****   * This function is called on power up and warm reset.
 570:../src/platform/mpfs_hal/startup_gcc/system_startup.c ****   */
 571:../src/platform/mpfs_hal/startup_gcc/system_startup.c ****  __attribute__((weak)) void init_memory( void)
 572:../src/platform/mpfs_hal/startup_gcc/system_startup.c ****  {
 1131              		.loc 3 572 2
 1132              		.cfi_startproc
 1133 0000 4111     		addi	sp,sp,-16
 1134              		.cfi_def_cfa_offset 16
 1135 0002 06E4     		sd	ra,8(sp)
 1136 0004 22E0     		sd	s0,0(sp)
 1137              		.cfi_offset 1, -8
 1138              		.cfi_offset 8, -16
 1139 0006 0008     		addi	s0,sp,16
 1140              		.cfi_def_cfa 8, 0
 573:../src/platform/mpfs_hal/startup_gcc/system_startup.c ****     copy_section(&__text_load, &__text_start, &__text_end);
 1141              		.loc 3 573 5
 1142 0008 17060000 		lla	a2,__text_end
 1142      13060600 
 1143 0010 97050000 		lla	a1,__text_start
 1143      93850500 
 1144 0018 17050000 		lla	a0,__text_load
 1144      13050500 
 1145 0020 97000000 		call	copy_section
 1145      E7800000 
 574:../src/platform/mpfs_hal/startup_gcc/system_startup.c ****     copy_section(&__sdata_load, &__sdata_start, &__sdata_end);
 1146              		.loc 3 574 5
 1147 0028 17060000 		lla	a2,__sdata_end
 1147      13060600 
 1148 0030 97050000 		lla	a1,__sdata_start
 1148      93850500 
 1149 0038 17050000 		lla	a0,__sdata_load
 1149      13050500 
 1150 0040 97000000 		call	copy_section
 1150      E7800000 
 575:../src/platform/mpfs_hal/startup_gcc/system_startup.c ****     copy_section(&__data_load, &__data_start, &__data_end);
 1151              		.loc 3 575 5
 1152 0048 17060000 		lla	a2,__data_end
 1152      13060600 
 1153 0050 97050000 		lla	a1,__data_start
 1153      93850500 
 1154 0058 17050000 		lla	a0,__data_load
 1154      13050500 
 1155 0060 97000000 		call	copy_section
 1155      E7800000 
 576:../src/platform/mpfs_hal/startup_gcc/system_startup.c **** 
 577:../src/platform/mpfs_hal/startup_gcc/system_startup.c ****     zero_section(&__sbss_start, &__sbss_end);
 1156              		.loc 3 577 5
 1157 0068 97050000 		lla	a1,__sbss_end
 1157      93850500 
 1158 0070 17050000 		lla	a0,__sbss_start
 1158      13050500 
 1159 0078 97000000 		call	zero_section
 1159      E7800000 
 578:../src/platform/mpfs_hal/startup_gcc/system_startup.c ****     zero_section(&__bss_start, &__bss_end);
 1160              		.loc 3 578 5
 1161 0080 97050000 		lla	a1,__bss_end
 1161      93850500 
 1162 0088 17050000 		lla	a0,__bss_start
 1162      13050500 
 1163 0090 97000000 		call	zero_section
 1163      E7800000 
 579:../src/platform/mpfs_hal/startup_gcc/system_startup.c **** 
 580:../src/platform/mpfs_hal/startup_gcc/system_startup.c ****     __disable_all_irqs();      /* disables local and global interrupt enable */
 1164              		.loc 3 580 5
 1165 0098 97000000 		call	__disable_all_irqs
 1165      E7800000 
 581:../src/platform/mpfs_hal/startup_gcc/system_startup.c ****  }
 1166              		.loc 3 581 2
 1167 00a0 0100     		nop
 1168 00a2 A260     		ld	ra,8(sp)
 1169              		.cfi_restore 1
 1170 00a4 0264     		ld	s0,0(sp)
 1171              		.cfi_restore 8
 1172              		.cfi_def_cfa 2, 16
 1173 00a6 4101     		addi	sp,sp,16
 1174              		.cfi_def_cfa_offset 0
 1175 00a8 8280     		jr	ra
 1176              		.cfi_endproc
 1177              	.LFE29:
 1179              		.section	.text.init_ddr,"ax",@progbits
 1180              		.align	1
 1181              		.weak	init_ddr
 1183              	init_ddr:
 1184              	.LFB30:
 582:../src/platform/mpfs_hal/startup_gcc/system_startup.c **** 
 583:../src/platform/mpfs_hal/startup_gcc/system_startup.c ****  /*-----------------------------------------------------------------------------
 584:../src/platform/mpfs_hal/startup_gcc/system_startup.c ****    * _start() function called invoked
 585:../src/platform/mpfs_hal/startup_gcc/system_startup.c ****    * This function is called on power up and warm reset.
 586:../src/platform/mpfs_hal/startup_gcc/system_startup.c ****    */
 587:../src/platform/mpfs_hal/startup_gcc/system_startup.c ****   __attribute__((weak)) void init_ddr(void)
 588:../src/platform/mpfs_hal/startup_gcc/system_startup.c ****   {
 1185              		.loc 3 588 3
 1186              		.cfi_startproc
 1187 0000 0111     		addi	sp,sp,-32
 1188              		.cfi_def_cfa_offset 32
 1189 0002 06EC     		sd	ra,24(sp)
 1190 0004 22E8     		sd	s0,16(sp)
 1191              		.cfi_offset 1, -8
 1192              		.cfi_offset 8, -16
 1193 0006 0010     		addi	s0,sp,32
 1194              		.cfi_def_cfa 8, 0
 1195              	.LBB9:
 589:../src/platform/mpfs_hal/startup_gcc/system_startup.c ****     if ((LIBERO_SETTING_DDRPHY_MODE & DDRPHY_MODE_MASK) != DDR_OFF_MODE) {
 590:../src/platform/mpfs_hal/startup_gcc/system_startup.c **** #ifdef DDR_SUPPORT
 591:../src/platform/mpfs_hal/startup_gcc/system_startup.c ****         uint64_t end_address;
 592:../src/platform/mpfs_hal/startup_gcc/system_startup.c **** 
 593:../src/platform/mpfs_hal/startup_gcc/system_startup.c **** #if 0 /* enable to init cache to zero using 64 bit writes */
 594:../src/platform/mpfs_hal/startup_gcc/system_startup.c ****         end_address = LIBERO_SETTING_DDR_64_NON_CACHE + LIBERO_SETTING_CFG_AXI_END_ADDRESS_AXI2_0 +
 595:../src/platform/mpfs_hal/startup_gcc/system_startup.c ****         zero_section((uint64_t *)LIBERO_SETTING_DDR_64_NON_CACHE, (uint64_t *)end_address);
 596:../src/platform/mpfs_hal/startup_gcc/system_startup.c **** #endif
 597:../src/platform/mpfs_hal/startup_gcc/system_startup.c **** 
 598:../src/platform/mpfs_hal/startup_gcc/system_startup.c ****         end_address = LIBERO_SETTING_DDR_64_CACHE + LIBERO_SETTING_CFG_AXI_END_ADDRESS_AXI1_0 + LIB
 1196              		.loc 3 598 21
 1197 0008 93071002 		li	a5,33
 1198 000c FE07     		slli	a5,a5,31
 1199 000e FD17     		addi	a5,a5,-1
 1200 0010 2334F4FE 		sd	a5,-24(s0)
 599:../src/platform/mpfs_hal/startup_gcc/system_startup.c ****         zero_section((uint64_t *)LIBERO_SETTING_DDR_64_CACHE, (uint64_t *)end_address);
 1201              		.loc 3 599 9
 1202 0014 833784FE 		ld	a5,-24(s0)
 1203 0018 BE85     		mv	a1,a5
 1204 001a 8547     		li	a5,1
 1205 001c 13954702 		slli	a0,a5,36
 1206 0020 97000000 		call	zero_section
 1206      E7800000 
 1207              	.LBE9:
 600:../src/platform/mpfs_hal/startup_gcc/system_startup.c **** #endif
 601:../src/platform/mpfs_hal/startup_gcc/system_startup.c ****     }
 602:../src/platform/mpfs_hal/startup_gcc/system_startup.c ****   }
 1208              		.loc 3 602 3
 1209 0028 0100     		nop
 1210 002a E260     		ld	ra,24(sp)
 1211              		.cfi_restore 1
 1212 002c 4264     		ld	s0,16(sp)
 1213              		.cfi_restore 8
 1214              		.cfi_def_cfa 2, 32
 1215 002e 0561     		addi	sp,sp,32
 1216              		.cfi_def_cfa_offset 0
 1217 0030 8280     		jr	ra
 1218              		.cfi_endproc
 1219              	.LFE30:
 1221              		.section	.text.init_bus_error_unit,"ax",@progbits
 1222              		.align	1
 1223              		.weak	init_bus_error_unit
 1225              	init_bus_error_unit:
 1226              	.LFB31:
 603:../src/platform/mpfs_hal/startup_gcc/system_startup.c **** 
 604:../src/platform/mpfs_hal/startup_gcc/system_startup.c ****  /**
 605:../src/platform/mpfs_hal/startup_gcc/system_startup.c ****   * This function is configured by editing parameters in
 606:../src/platform/mpfs_hal/startup_gcc/system_startup.c ****   * mss_sw_config.h as required.
 607:../src/platform/mpfs_hal/startup_gcc/system_startup.c ****   * @return
 608:../src/platform/mpfs_hal/startup_gcc/system_startup.c ****   */
 609:../src/platform/mpfs_hal/startup_gcc/system_startup.c **** 
 610:../src/platform/mpfs_hal/startup_gcc/system_startup.c **** __attribute__((weak)) uint8_t init_bus_error_unit(void)
 611:../src/platform/mpfs_hal/startup_gcc/system_startup.c **** {
 1227              		.loc 3 611 1
 1228              		.cfi_startproc
 1229 0000 0111     		addi	sp,sp,-32
 1230              		.cfi_def_cfa_offset 32
 1231 0002 22EC     		sd	s0,24(sp)
 1232              		.cfi_offset 8, -8
 1233 0004 0010     		addi	s0,sp,32
 1234              		.cfi_def_cfa 8, 0
 612:../src/platform/mpfs_hal/startup_gcc/system_startup.c ****     uint8_t hart_id;
 613:../src/platform/mpfs_hal/startup_gcc/system_startup.c ****     /* Init BEU in all harts - enable local interrupt */
 614:../src/platform/mpfs_hal/startup_gcc/system_startup.c ****     for(hart_id = MPFS_HAL_FIRST_HART; hart_id <= MPFS_HAL_LAST_HART; hart_id++)
 1235              		.loc 3 614 17
 1236 0006 A30704FE 		sb	zero,-17(s0)
 1237              		.loc 3 614 5
 1238 000a A5A8     		j	.L56
 1239              	.L57:
 615:../src/platform/mpfs_hal/startup_gcc/system_startup.c ****     {
 616:../src/platform/mpfs_hal/startup_gcc/system_startup.c ****         BEU->regs[hart_id].ENABLE      = (uint64_t)BEU_ENABLE;
 1240              		.loc 3 616 12 discriminator 3
 1241 000c 37077001 		li	a4,24117248
 1242              		.loc 3 616 27 discriminator 3
 1243 0010 8347F4FE 		lbu	a5,-17(s0)
 1244 0014 8127     		sext.w	a5,a5
 1245              		.loc 3 616 40 discriminator 3
 1246 0016 B207     		slli	a5,a5,12
 1247 0018 BA97     		add	a5,a4,a5
 1248 001a 23B80700 		sd	zero,16(a5)
 617:../src/platform/mpfs_hal/startup_gcc/system_startup.c ****         BEU->regs[hart_id].PLIC_INT    = (uint64_t)BEU_PLIC_INT;
 1249              		.loc 3 617 12 discriminator 3
 1250 001e 37077001 		li	a4,24117248
 1251              		.loc 3 617 27 discriminator 3
 1252 0022 8347F4FE 		lbu	a5,-17(s0)
 1253 0026 8127     		sext.w	a5,a5
 1254              		.loc 3 617 40 discriminator 3
 1255 0028 B207     		slli	a5,a5,12
 1256 002a BA97     		add	a5,a4,a5
 1257 002c 23BC0700 		sd	zero,24(a5)
 618:../src/platform/mpfs_hal/startup_gcc/system_startup.c ****         BEU->regs[hart_id].LOCAL_INT   = (uint64_t)BEU_LOCAL_INT;
 1258              		.loc 3 618 12 discriminator 3
 1259 0030 37077001 		li	a4,24117248
 1260              		.loc 3 618 27 discriminator 3
 1261 0034 8347F4FE 		lbu	a5,-17(s0)
 1262 0038 8127     		sext.w	a5,a5
 1263              		.loc 3 618 40 discriminator 3
 1264 003a B207     		slli	a5,a5,12
 1265 003c BA97     		add	a5,a4,a5
 1266 003e 23B40702 		sd	zero,40(a5)
 619:../src/platform/mpfs_hal/startup_gcc/system_startup.c ****         BEU->regs[hart_id].CAUSE       = 0ULL;
 1267              		.loc 3 619 12 discriminator 3
 1268 0042 37077001 		li	a4,24117248
 1269              		.loc 3 619 27 discriminator 3
 1270 0046 8347F4FE 		lbu	a5,-17(s0)
 1271 004a 8127     		sext.w	a5,a5
 1272              		.loc 3 619 40 discriminator 3
 1273 004c B207     		slli	a5,a5,12
 1274 004e BA97     		add	a5,a4,a5
 1275 0050 23B00700 		sd	zero,0(a5)
 620:../src/platform/mpfs_hal/startup_gcc/system_startup.c ****         BEU->regs[hart_id].ACCRUED     = 0ULL;
 1276              		.loc 3 620 12 discriminator 3
 1277 0054 37077001 		li	a4,24117248
 1278              		.loc 3 620 27 discriminator 3
 1279 0058 8347F4FE 		lbu	a5,-17(s0)
 1280 005c 8127     		sext.w	a5,a5
 1281              		.loc 3 620 40 discriminator 3
 1282 005e B207     		slli	a5,a5,12
 1283 0060 BA97     		add	a5,a4,a5
 1284 0062 23B00702 		sd	zero,32(a5)
 621:../src/platform/mpfs_hal/startup_gcc/system_startup.c ****         BEU->regs[hart_id].VALUE       = 0ULL;
 1285              		.loc 3 621 12 discriminator 3
 1286 0066 37077001 		li	a4,24117248
 1287              		.loc 3 621 27 discriminator 3
 1288 006a 8347F4FE 		lbu	a5,-17(s0)
 1289 006e 8127     		sext.w	a5,a5
 1290              		.loc 3 621 40 discriminator 3
 1291 0070 B207     		slli	a5,a5,12
 1292 0072 BA97     		add	a5,a4,a5
 1293 0074 23B40700 		sd	zero,8(a5)
 614:../src/platform/mpfs_hal/startup_gcc/system_startup.c ****     {
 1294              		.loc 3 614 78 discriminator 3
 1295 0078 8347F4FE 		lbu	a5,-17(s0)
 1296 007c 8527     		addiw	a5,a5,1
 1297 007e A307F4FE 		sb	a5,-17(s0)
 1298              	.L56:
 614:../src/platform/mpfs_hal/startup_gcc/system_startup.c ****     {
 1299              		.loc 3 614 5 discriminator 1
 1300 0082 8347F4FE 		lbu	a5,-17(s0)
 1301 0086 13F7F70F 		andi	a4,a5,0xff
 1302 008a 9147     		li	a5,4
 1303 008c E3F0E7F8 		bleu	a4,a5,.L57
 622:../src/platform/mpfs_hal/startup_gcc/system_startup.c ****     }
 623:../src/platform/mpfs_hal/startup_gcc/system_startup.c ****     return (0U);
 1304              		.loc 3 623 12
 1305 0090 8147     		li	a5,0
 624:../src/platform/mpfs_hal/startup_gcc/system_startup.c **** }
 1306              		.loc 3 624 1
 1307 0092 3E85     		mv	a0,a5
 1308 0094 6264     		ld	s0,24(sp)
 1309              		.cfi_restore 8
 1310              		.cfi_def_cfa 2, 32
 1311 0096 0561     		addi	sp,sp,32
 1312              		.cfi_def_cfa_offset 0
 1313 0098 8280     		jr	ra
 1314              		.cfi_endproc
 1315              	.LFE31:
 1317              		.section	.text.init_mem_protection_unit,"ax",@progbits
 1318              		.align	1
 1319              		.weak	init_mem_protection_unit
 1321              	init_mem_protection_unit:
 1322              	.LFB32:
 625:../src/platform/mpfs_hal/startup_gcc/system_startup.c **** 
 626:../src/platform/mpfs_hal/startup_gcc/system_startup.c **** /**
 627:../src/platform/mpfs_hal/startup_gcc/system_startup.c ****  * init_mem_protection_unit(void)
 628:../src/platform/mpfs_hal/startup_gcc/system_startup.c ****  * add this function to you code and configure as required
 629:../src/platform/mpfs_hal/startup_gcc/system_startup.c ****  * @return
 630:../src/platform/mpfs_hal/startup_gcc/system_startup.c ****  */
 631:../src/platform/mpfs_hal/startup_gcc/system_startup.c **** __attribute__((weak)) uint8_t init_mem_protection_unit(void)
 632:../src/platform/mpfs_hal/startup_gcc/system_startup.c **** {
 1323              		.loc 3 632 1
 1324              		.cfi_startproc
 1325 0000 4111     		addi	sp,sp,-16
 1326              		.cfi_def_cfa_offset 16
 1327 0002 06E4     		sd	ra,8(sp)
 1328 0004 22E0     		sd	s0,0(sp)
 1329              		.cfi_offset 1, -8
 1330              		.cfi_offset 8, -16
 1331 0006 0008     		addi	s0,sp,16
 1332              		.cfi_def_cfa 8, 0
 633:../src/platform/mpfs_hal/startup_gcc/system_startup.c ****     mpu_configure();
 1333              		.loc 3 633 5
 1334 0008 97000000 		call	mpu_configure
 1334      E7800000 
 634:../src/platform/mpfs_hal/startup_gcc/system_startup.c ****     return (0U);
 1335              		.loc 3 634 12
 1336 0010 8147     		li	a5,0
 635:../src/platform/mpfs_hal/startup_gcc/system_startup.c **** }
 1337              		.loc 3 635 1
 1338 0012 3E85     		mv	a0,a5
 1339 0014 A260     		ld	ra,8(sp)
 1340              		.cfi_restore 1
 1341 0016 0264     		ld	s0,0(sp)
 1342              		.cfi_restore 8
 1343              		.cfi_def_cfa 2, 16
 1344 0018 4101     		addi	sp,sp,16
 1345              		.cfi_def_cfa_offset 0
 1346 001a 8280     		jr	ra
 1347              		.cfi_endproc
 1348              	.LFE32:
 1350              		.section	.text.init_pmp,"ax",@progbits
 1351              		.align	1
 1352              		.weak	init_pmp
 1354              	init_pmp:
 1355              	.LFB33:
 636:../src/platform/mpfs_hal/startup_gcc/system_startup.c **** 
 637:../src/platform/mpfs_hal/startup_gcc/system_startup.c **** /**
 638:../src/platform/mpfs_hal/startup_gcc/system_startup.c ****  * init_pmp(void)
 639:../src/platform/mpfs_hal/startup_gcc/system_startup.c ****  * add this function to you code and configure as required
 640:../src/platform/mpfs_hal/startup_gcc/system_startup.c ****  * @return
 641:../src/platform/mpfs_hal/startup_gcc/system_startup.c ****  */
 642:../src/platform/mpfs_hal/startup_gcc/system_startup.c **** __attribute__((weak)) uint8_t init_pmp(uint8_t hart_id)
 643:../src/platform/mpfs_hal/startup_gcc/system_startup.c **** {
 1356              		.loc 3 643 1
 1357              		.cfi_startproc
 1358 0000 0111     		addi	sp,sp,-32
 1359              		.cfi_def_cfa_offset 32
 1360 0002 06EC     		sd	ra,24(sp)
 1361 0004 22E8     		sd	s0,16(sp)
 1362              		.cfi_offset 1, -8
 1363              		.cfi_offset 8, -16
 1364 0006 0010     		addi	s0,sp,32
 1365              		.cfi_def_cfa 8, 0
 1366 0008 AA87     		mv	a5,a0
 1367 000a A307F4FE 		sb	a5,-17(s0)
 644:../src/platform/mpfs_hal/startup_gcc/system_startup.c ****     pmp_configure(hart_id);
 1368              		.loc 3 644 5
 1369 000e 8347F4FE 		lbu	a5,-17(s0)
 1370 0012 3E85     		mv	a0,a5
 1371 0014 97000000 		call	pmp_configure
 1371      E7800000 
 645:../src/platform/mpfs_hal/startup_gcc/system_startup.c ****     return (0U);
 1372              		.loc 3 645 12
 1373 001c 8147     		li	a5,0
 646:../src/platform/mpfs_hal/startup_gcc/system_startup.c **** }
 1374              		.loc 3 646 1
 1375 001e 3E85     		mv	a0,a5
 1376 0020 E260     		ld	ra,24(sp)
 1377              		.cfi_restore 1
 1378 0022 4264     		ld	s0,16(sp)
 1379              		.cfi_restore 8
 1380              		.cfi_def_cfa 2, 32
 1381 0024 0561     		addi	sp,sp,32
 1382              		.cfi_def_cfa_offset 0
 1383 0026 8280     		jr	ra
 1384              		.cfi_endproc
 1385              	.LFE33:
 1387              		.section	.sbss.counter.12972,"aw",@nobits
 1388              		.align	3
 1391              	counter.12972:
 1392 0000 00000000 		.zero	8
 1392      00000000 
 1393              		.section	.sbss.counter.12995,"aw",@nobits
 1394              		.align	3
 1397              	counter.12995:
 1398 0000 00000000 		.zero	8
 1398      00000000 
 1399              		.text
 1400              	.Letext0:
 1401              		.file 4 "/home/vinay/Desktop/soft_console/SoftConsole-v2022.2-RISC-V-747/riscv-unknown-elf-gcc/lib
 1402              		.file 5 "/home/vinay/Desktop/soft_console/SoftConsole-v2022.2-RISC-V-747/riscv-unknown-elf-gcc/ris
 1403              		.file 6 "/home/vinay/Desktop/soft_console/SoftConsole-v2022.2-RISC-V-747/riscv-unknown-elf-gcc/ris
