   1              		.file	"system_startup.c"
   2              		.option nopic
   3              		.attribute arch, "rv64i2p0_m2p0_a2p0_f2p0_d2p0_c2p0"
   4              		.attribute unaligned_access, 0
   5              		.attribute stack_align, 16
   6              		.text
   7              	.Ltext0:
   8              		.cfi_sections	.debug_frame
   9              		.section	.text.raise_soft_interrupt,"ax",@progbits
  10              		.align	1
  12              	raise_soft_interrupt:
  13              	.LFB0:
  14              		.file 1 "/home/vinay/Desktop/softconsole_watershed/Water-shed/src/platform/mpfs_hal/common/mss_cli
   1:/home/vinay/Desktop/softconsole_watershed/Water-shed/src/platform/mpfs_hal/common/mss_clint.h **** /*******************************************************************************
   2:/home/vinay/Desktop/softconsole_watershed/Water-shed/src/platform/mpfs_hal/common/mss_clint.h ****  * Copyright 2019-2022 Microchip FPGA Embedded Systems Solutions.
   3:/home/vinay/Desktop/softconsole_watershed/Water-shed/src/platform/mpfs_hal/common/mss_clint.h ****  *
   4:/home/vinay/Desktop/softconsole_watershed/Water-shed/src/platform/mpfs_hal/common/mss_clint.h ****  * SPDX-License-Identifier: MIT
   5:/home/vinay/Desktop/softconsole_watershed/Water-shed/src/platform/mpfs_hal/common/mss_clint.h ****  *
   6:/home/vinay/Desktop/softconsole_watershed/Water-shed/src/platform/mpfs_hal/common/mss_clint.h ****  * MPFS HAL Embedded Software
   7:/home/vinay/Desktop/softconsole_watershed/Water-shed/src/platform/mpfs_hal/common/mss_clint.h ****  *
   8:/home/vinay/Desktop/softconsole_watershed/Water-shed/src/platform/mpfs_hal/common/mss_clint.h ****  */
   9:/home/vinay/Desktop/softconsole_watershed/Water-shed/src/platform/mpfs_hal/common/mss_clint.h **** 
  10:/home/vinay/Desktop/softconsole_watershed/Water-shed/src/platform/mpfs_hal/common/mss_clint.h **** /*******************************************************************************
  11:/home/vinay/Desktop/softconsole_watershed/Water-shed/src/platform/mpfs_hal/common/mss_clint.h ****  *
  12:/home/vinay/Desktop/softconsole_watershed/Water-shed/src/platform/mpfs_hal/common/mss_clint.h ****  * @file mss_clint.h
  13:/home/vinay/Desktop/softconsole_watershed/Water-shed/src/platform/mpfs_hal/common/mss_clint.h ****  * @author Microchip-FPGA Embedded Systems Solutions
  14:/home/vinay/Desktop/softconsole_watershed/Water-shed/src/platform/mpfs_hal/common/mss_clint.h ****  * @brief CLINT access data structures and functions.
  15:/home/vinay/Desktop/softconsole_watershed/Water-shed/src/platform/mpfs_hal/common/mss_clint.h ****  *
  16:/home/vinay/Desktop/softconsole_watershed/Water-shed/src/platform/mpfs_hal/common/mss_clint.h ****  */
  17:/home/vinay/Desktop/softconsole_watershed/Water-shed/src/platform/mpfs_hal/common/mss_clint.h **** #ifndef MSS_CLINT_H
  18:/home/vinay/Desktop/softconsole_watershed/Water-shed/src/platform/mpfs_hal/common/mss_clint.h **** #define MSS_CLINT_H
  19:/home/vinay/Desktop/softconsole_watershed/Water-shed/src/platform/mpfs_hal/common/mss_clint.h **** 
  20:/home/vinay/Desktop/softconsole_watershed/Water-shed/src/platform/mpfs_hal/common/mss_clint.h **** #include <stdint.h>
  21:/home/vinay/Desktop/softconsole_watershed/Water-shed/src/platform/mpfs_hal/common/mss_clint.h **** #include "encoding.h"
  22:/home/vinay/Desktop/softconsole_watershed/Water-shed/src/platform/mpfs_hal/common/mss_clint.h **** #include "atomic.h"
  23:/home/vinay/Desktop/softconsole_watershed/Water-shed/src/platform/mpfs_hal/common/mss_clint.h **** 
  24:/home/vinay/Desktop/softconsole_watershed/Water-shed/src/platform/mpfs_hal/common/mss_clint.h **** #ifdef __cplusplus
  25:/home/vinay/Desktop/softconsole_watershed/Water-shed/src/platform/mpfs_hal/common/mss_clint.h **** extern "C" {
  26:/home/vinay/Desktop/softconsole_watershed/Water-shed/src/platform/mpfs_hal/common/mss_clint.h **** #endif
  27:/home/vinay/Desktop/softconsole_watershed/Water-shed/src/platform/mpfs_hal/common/mss_clint.h **** 
  28:/home/vinay/Desktop/softconsole_watershed/Water-shed/src/platform/mpfs_hal/common/mss_clint.h **** #define RTC_PRESCALER 100U
  29:/home/vinay/Desktop/softconsole_watershed/Water-shed/src/platform/mpfs_hal/common/mss_clint.h **** #define SUCCESS 0U
  30:/home/vinay/Desktop/softconsole_watershed/Water-shed/src/platform/mpfs_hal/common/mss_clint.h **** #define ERROR   1U
  31:/home/vinay/Desktop/softconsole_watershed/Water-shed/src/platform/mpfs_hal/common/mss_clint.h **** 
  32:/home/vinay/Desktop/softconsole_watershed/Water-shed/src/platform/mpfs_hal/common/mss_clint.h **** 
  33:/home/vinay/Desktop/softconsole_watershed/Water-shed/src/platform/mpfs_hal/common/mss_clint.h **** /*==============================================================================
  34:/home/vinay/Desktop/softconsole_watershed/Water-shed/src/platform/mpfs_hal/common/mss_clint.h ****  * CLINT: Core Local Interrupter
  35:/home/vinay/Desktop/softconsole_watershed/Water-shed/src/platform/mpfs_hal/common/mss_clint.h ****  */
  36:/home/vinay/Desktop/softconsole_watershed/Water-shed/src/platform/mpfs_hal/common/mss_clint.h **** typedef struct CLINT_Type_t
  37:/home/vinay/Desktop/softconsole_watershed/Water-shed/src/platform/mpfs_hal/common/mss_clint.h **** {
  38:/home/vinay/Desktop/softconsole_watershed/Water-shed/src/platform/mpfs_hal/common/mss_clint.h ****     volatile uint32_t MSIP[5];
  39:/home/vinay/Desktop/softconsole_watershed/Water-shed/src/platform/mpfs_hal/common/mss_clint.h ****     volatile uint32_t reserved1[(0x4000U - 0x14U)/4U];
  40:/home/vinay/Desktop/softconsole_watershed/Water-shed/src/platform/mpfs_hal/common/mss_clint.h ****     volatile uint64_t MTIMECMP[5];  /* mtime compare value for each hart. When mtime equals this va
  41:/home/vinay/Desktop/softconsole_watershed/Water-shed/src/platform/mpfs_hal/common/mss_clint.h ****     volatile uint32_t reserved2[((0xbff8U - 0x4028U)/4U)];
  42:/home/vinay/Desktop/softconsole_watershed/Water-shed/src/platform/mpfs_hal/common/mss_clint.h ****     volatile uint64_t MTIME;    /* contains the current mtime value */
  43:/home/vinay/Desktop/softconsole_watershed/Water-shed/src/platform/mpfs_hal/common/mss_clint.h **** } CLINT_Type;
  44:/home/vinay/Desktop/softconsole_watershed/Water-shed/src/platform/mpfs_hal/common/mss_clint.h **** 
  45:/home/vinay/Desktop/softconsole_watershed/Water-shed/src/platform/mpfs_hal/common/mss_clint.h **** #define CLINT    ((CLINT_Type *)CLINT_BASE)
  46:/home/vinay/Desktop/softconsole_watershed/Water-shed/src/platform/mpfs_hal/common/mss_clint.h **** 
  47:/home/vinay/Desktop/softconsole_watershed/Water-shed/src/platform/mpfs_hal/common/mss_clint.h **** 
  48:/home/vinay/Desktop/softconsole_watershed/Water-shed/src/platform/mpfs_hal/common/mss_clint.h **** /*==============================================================================
  49:/home/vinay/Desktop/softconsole_watershed/Water-shed/src/platform/mpfs_hal/common/mss_clint.h ****  * The function raise_soft_interrupt() raises a synchronous software interrupt by
  50:/home/vinay/Desktop/softconsole_watershed/Water-shed/src/platform/mpfs_hal/common/mss_clint.h ****  * writing into the MSIP register.
  51:/home/vinay/Desktop/softconsole_watershed/Water-shed/src/platform/mpfs_hal/common/mss_clint.h ****  */
  52:/home/vinay/Desktop/softconsole_watershed/Water-shed/src/platform/mpfs_hal/common/mss_clint.h **** static inline void raise_soft_interrupt(unsigned long hart_id)
  53:/home/vinay/Desktop/softconsole_watershed/Water-shed/src/platform/mpfs_hal/common/mss_clint.h **** {
  15              		.loc 1 53 1
  16              		.cfi_startproc
  17 0000 0111     		addi	sp,sp,-32
  18              		.cfi_def_cfa_offset 32
  19 0002 22EC     		sd	s0,24(sp)
  20              		.cfi_offset 8, -8
  21 0004 0010     		addi	s0,sp,32
  22              		.cfi_def_cfa 8, 0
  23 0006 2334A4FE 		sd	a0,-24(s0)
  54:/home/vinay/Desktop/softconsole_watershed/Water-shed/src/platform/mpfs_hal/common/mss_clint.h ****     /*You need to make sure that the global interrupt is enabled*/
  55:/home/vinay/Desktop/softconsole_watershed/Water-shed/src/platform/mpfs_hal/common/mss_clint.h ****     /*Note:  set_csr(mie, MIP_MSIP) needs to be set on hart you are setting sw interrupt */
  56:/home/vinay/Desktop/softconsole_watershed/Water-shed/src/platform/mpfs_hal/common/mss_clint.h ****     CLINT->MSIP[hart_id] = 0x01U;   /*raise soft interrupt for hart(x) where x== hart ID*/
  24              		.loc 1 56 10
  25 000a 37070002 		li	a4,33554432
  26              		.loc 1 56 26
  27 000e 833784FE 		ld	a5,-24(s0)
  28 0012 8A07     		slli	a5,a5,2
  29 0014 BA97     		add	a5,a4,a5
  30 0016 0547     		li	a4,1
  31 0018 98C3     		sw	a4,0(a5)
  57:/home/vinay/Desktop/softconsole_watershed/Water-shed/src/platform/mpfs_hal/common/mss_clint.h ****     mb();
  32              		.loc 1 57 5
  33              	 #APP
  34              	# 57 "/home/vinay/Desktop/softconsole_watershed/Water-shed/src/platform/mpfs_hal/common/mss_clint.h
  58              	}
  35              		fence
  36              	# 0 "" 2
  37              		.loc 1 58 1
  38              	 #NO_APP
  39 001e 0100     		nop
  40 0020 6264     		ld	s0,24(sp)
  41              		.cfi_restore 8
  42              		.cfi_def_cfa 2, 32
  43 0022 0561     		addi	sp,sp,32
  44              		.cfi_def_cfa_offset 0
  45 0024 8280     		jr	ra
  46              		.cfi_endproc
  47              	.LFE0:
  49              		.section	.text.PLIC_ClaimIRQ,"ax",@progbits
  50              		.align	1
  52              	PLIC_ClaimIRQ:
  53              	.LFB12:
  54              		.file 2 "/home/vinay/Desktop/softconsole_watershed/Water-shed/src/platform/mpfs_hal/common/mss_pli
   1:/home/vinay/Desktop/softconsole_watershed/Water-shed/src/platform/mpfs_hal/common/mss_plic.h **** /*******************************************************************************
   2:/home/vinay/Desktop/softconsole_watershed/Water-shed/src/platform/mpfs_hal/common/mss_plic.h ****  * Copyright 2019-2022 Microchip FPGA Embedded Systems Solutions.
   3:/home/vinay/Desktop/softconsole_watershed/Water-shed/src/platform/mpfs_hal/common/mss_plic.h ****  *
   4:/home/vinay/Desktop/softconsole_watershed/Water-shed/src/platform/mpfs_hal/common/mss_plic.h ****  * SPDX-License-Identifier: MIT
   5:/home/vinay/Desktop/softconsole_watershed/Water-shed/src/platform/mpfs_hal/common/mss_plic.h ****  *
   6:/home/vinay/Desktop/softconsole_watershed/Water-shed/src/platform/mpfs_hal/common/mss_plic.h ****  * MPFS HAL Embedded Software
   7:/home/vinay/Desktop/softconsole_watershed/Water-shed/src/platform/mpfs_hal/common/mss_plic.h ****  *
   8:/home/vinay/Desktop/softconsole_watershed/Water-shed/src/platform/mpfs_hal/common/mss_plic.h ****  */
   9:/home/vinay/Desktop/softconsole_watershed/Water-shed/src/platform/mpfs_hal/common/mss_plic.h **** 
  10:/home/vinay/Desktop/softconsole_watershed/Water-shed/src/platform/mpfs_hal/common/mss_plic.h **** /*******************************************************************************
  11:/home/vinay/Desktop/softconsole_watershed/Water-shed/src/platform/mpfs_hal/common/mss_plic.h ****  *
  12:/home/vinay/Desktop/softconsole_watershed/Water-shed/src/platform/mpfs_hal/common/mss_plic.h ****  * @file mss_plic.h
  13:/home/vinay/Desktop/softconsole_watershed/Water-shed/src/platform/mpfs_hal/common/mss_plic.h ****  * @author Microchip-FPGA Embedded Systems Solutions
  14:/home/vinay/Desktop/softconsole_watershed/Water-shed/src/platform/mpfs_hal/common/mss_plic.h ****  * @brief PolarFire SoC MSS PLIC and PRCI access data structures and functions.
  15:/home/vinay/Desktop/softconsole_watershed/Water-shed/src/platform/mpfs_hal/common/mss_plic.h ****  *
  16:/home/vinay/Desktop/softconsole_watershed/Water-shed/src/platform/mpfs_hal/common/mss_plic.h ****  * Definitions and functions associated with PLIC interrupts.
  17:/home/vinay/Desktop/softconsole_watershed/Water-shed/src/platform/mpfs_hal/common/mss_plic.h ****  *
  18:/home/vinay/Desktop/softconsole_watershed/Water-shed/src/platform/mpfs_hal/common/mss_plic.h ****  */
  19:/home/vinay/Desktop/softconsole_watershed/Water-shed/src/platform/mpfs_hal/common/mss_plic.h **** #ifndef MSS_PLIC_H
  20:/home/vinay/Desktop/softconsole_watershed/Water-shed/src/platform/mpfs_hal/common/mss_plic.h **** #define MSS_PLIC_H
  21:/home/vinay/Desktop/softconsole_watershed/Water-shed/src/platform/mpfs_hal/common/mss_plic.h **** 
  22:/home/vinay/Desktop/softconsole_watershed/Water-shed/src/platform/mpfs_hal/common/mss_plic.h **** #include <stdint.h>
  23:/home/vinay/Desktop/softconsole_watershed/Water-shed/src/platform/mpfs_hal/common/mss_plic.h **** #ifndef CONFIG_OPENSBI
  24:/home/vinay/Desktop/softconsole_watershed/Water-shed/src/platform/mpfs_hal/common/mss_plic.h **** #include "encoding.h"
  25:/home/vinay/Desktop/softconsole_watershed/Water-shed/src/platform/mpfs_hal/common/mss_plic.h **** #endif
  26:/home/vinay/Desktop/softconsole_watershed/Water-shed/src/platform/mpfs_hal/common/mss_plic.h **** 
  27:/home/vinay/Desktop/softconsole_watershed/Water-shed/src/platform/mpfs_hal/common/mss_plic.h **** #include "mss_legacy_defines.h"
  28:/home/vinay/Desktop/softconsole_watershed/Water-shed/src/platform/mpfs_hal/common/mss_plic.h **** #include "mss_assert.h"
  29:/home/vinay/Desktop/softconsole_watershed/Water-shed/src/platform/mpfs_hal/common/mss_plic.h **** 
  30:/home/vinay/Desktop/softconsole_watershed/Water-shed/src/platform/mpfs_hal/common/mss_plic.h **** #ifdef __cplusplus
  31:/home/vinay/Desktop/softconsole_watershed/Water-shed/src/platform/mpfs_hal/common/mss_plic.h **** extern "C" {
  32:/home/vinay/Desktop/softconsole_watershed/Water-shed/src/platform/mpfs_hal/common/mss_plic.h **** #endif
  33:/home/vinay/Desktop/softconsole_watershed/Water-shed/src/platform/mpfs_hal/common/mss_plic.h **** 
  34:/home/vinay/Desktop/softconsole_watershed/Water-shed/src/platform/mpfs_hal/common/mss_plic.h **** /*
  35:/home/vinay/Desktop/softconsole_watershed/Water-shed/src/platform/mpfs_hal/common/mss_plic.h ****  *Return value from External IRQ handler. This will be used to disable the
  36:/home/vinay/Desktop/softconsole_watershed/Water-shed/src/platform/mpfs_hal/common/mss_plic.h ****  *Return External interrupt.
  37:/home/vinay/Desktop/softconsole_watershed/Water-shed/src/platform/mpfs_hal/common/mss_plic.h ****  */
  38:/home/vinay/Desktop/softconsole_watershed/Water-shed/src/platform/mpfs_hal/common/mss_plic.h **** #define EXT_IRQ_KEEP_ENABLED                                0U
  39:/home/vinay/Desktop/softconsole_watershed/Water-shed/src/platform/mpfs_hal/common/mss_plic.h **** #define EXT_IRQ_DISABLE                                     1U
  40:/home/vinay/Desktop/softconsole_watershed/Water-shed/src/platform/mpfs_hal/common/mss_plic.h **** 
  41:/home/vinay/Desktop/softconsole_watershed/Water-shed/src/platform/mpfs_hal/common/mss_plic.h **** /*------------------------------------------------------------------------------
  42:/home/vinay/Desktop/softconsole_watershed/Water-shed/src/platform/mpfs_hal/common/mss_plic.h ****  *
  43:/home/vinay/Desktop/softconsole_watershed/Water-shed/src/platform/mpfs_hal/common/mss_plic.h ****  */
  44:/home/vinay/Desktop/softconsole_watershed/Water-shed/src/platform/mpfs_hal/common/mss_plic.h **** uint8_t  PLIC_Invalid_IRQHandler(void);
  45:/home/vinay/Desktop/softconsole_watershed/Water-shed/src/platform/mpfs_hal/common/mss_plic.h **** uint8_t  PLIC_l2_metadata_corr_IRQHandler(void);
  46:/home/vinay/Desktop/softconsole_watershed/Water-shed/src/platform/mpfs_hal/common/mss_plic.h **** uint8_t  PLIC_l2_metadata_uncorr_IRQHandler(void);
  47:/home/vinay/Desktop/softconsole_watershed/Water-shed/src/platform/mpfs_hal/common/mss_plic.h **** uint8_t  PLIC_l2_data_corr_IRQHandler(void);
  48:/home/vinay/Desktop/softconsole_watershed/Water-shed/src/platform/mpfs_hal/common/mss_plic.h **** uint8_t  PLIC_l2_data_uncorr_IRQHandler(void);
  49:/home/vinay/Desktop/softconsole_watershed/Water-shed/src/platform/mpfs_hal/common/mss_plic.h **** uint8_t  PLIC_dma_ch0_DONE_IRQHandler(void);
  50:/home/vinay/Desktop/softconsole_watershed/Water-shed/src/platform/mpfs_hal/common/mss_plic.h **** uint8_t  PLIC_dma_ch0_ERR_IRQHandler(void);
  51:/home/vinay/Desktop/softconsole_watershed/Water-shed/src/platform/mpfs_hal/common/mss_plic.h **** uint8_t  PLIC_dma_ch1_DONE_IRQHandler(void);
  52:/home/vinay/Desktop/softconsole_watershed/Water-shed/src/platform/mpfs_hal/common/mss_plic.h **** uint8_t  PLIC_dma_ch1_ERR_IRQHandler(void);
  53:/home/vinay/Desktop/softconsole_watershed/Water-shed/src/platform/mpfs_hal/common/mss_plic.h **** uint8_t  PLIC_dma_ch2_DONE_IRQHandler(void);
  54:/home/vinay/Desktop/softconsole_watershed/Water-shed/src/platform/mpfs_hal/common/mss_plic.h **** uint8_t  PLIC_dma_ch2_ERR_IRQHandler(void);
  55:/home/vinay/Desktop/softconsole_watershed/Water-shed/src/platform/mpfs_hal/common/mss_plic.h **** uint8_t  PLIC_dma_ch3_DONE_IRQHandler(void);
  56:/home/vinay/Desktop/softconsole_watershed/Water-shed/src/platform/mpfs_hal/common/mss_plic.h **** uint8_t  PLIC_dma_ch3_ERR_IRQHandler(void);
  57:/home/vinay/Desktop/softconsole_watershed/Water-shed/src/platform/mpfs_hal/common/mss_plic.h **** uint8_t  PLIC_gpio0_bit0_or_gpio2_bit13_IRQHandler(void);
  58:/home/vinay/Desktop/softconsole_watershed/Water-shed/src/platform/mpfs_hal/common/mss_plic.h **** uint8_t  PLIC_gpio0_bit1_or_gpio2_bit13_IRQHandler(void);
  59:/home/vinay/Desktop/softconsole_watershed/Water-shed/src/platform/mpfs_hal/common/mss_plic.h **** uint8_t  PLIC_gpio0_bit2_or_gpio2_bit13_IRQHandler(void);
  60:/home/vinay/Desktop/softconsole_watershed/Water-shed/src/platform/mpfs_hal/common/mss_plic.h **** uint8_t  PLIC_gpio0_bit3_or_gpio2_bit13_IRQHandler(void);
  61:/home/vinay/Desktop/softconsole_watershed/Water-shed/src/platform/mpfs_hal/common/mss_plic.h **** uint8_t  PLIC_gpio0_bit4_or_gpio2_bit13_IRQHandler(void);
  62:/home/vinay/Desktop/softconsole_watershed/Water-shed/src/platform/mpfs_hal/common/mss_plic.h **** uint8_t  PLIC_gpio0_bit5_or_gpio2_bit13_IRQHandler(void);
  63:/home/vinay/Desktop/softconsole_watershed/Water-shed/src/platform/mpfs_hal/common/mss_plic.h **** uint8_t  PLIC_gpio0_bit6_or_gpio2_bit13_IRQHandler(void);
  64:/home/vinay/Desktop/softconsole_watershed/Water-shed/src/platform/mpfs_hal/common/mss_plic.h **** uint8_t  PLIC_gpio0_bit7_or_gpio2_bit13_IRQHandler(void);
  65:/home/vinay/Desktop/softconsole_watershed/Water-shed/src/platform/mpfs_hal/common/mss_plic.h **** uint8_t  PLIC_gpio0_bit8_or_gpio2_bit13_IRQHandler(void);
  66:/home/vinay/Desktop/softconsole_watershed/Water-shed/src/platform/mpfs_hal/common/mss_plic.h **** uint8_t  PLIC_gpio0_bit9_or_gpio2_bit13_IRQHandler(void);
  67:/home/vinay/Desktop/softconsole_watershed/Water-shed/src/platform/mpfs_hal/common/mss_plic.h **** uint8_t  PLIC_gpio0_bit10_or_gpio2_bit13_IRQHandler(void);
  68:/home/vinay/Desktop/softconsole_watershed/Water-shed/src/platform/mpfs_hal/common/mss_plic.h **** uint8_t  PLIC_gpio0_bit11_or_gpio2_bit13_IRQHandler(void);
  69:/home/vinay/Desktop/softconsole_watershed/Water-shed/src/platform/mpfs_hal/common/mss_plic.h **** uint8_t  PLIC_gpio0_bit12_or_gpio2_bit13_IRQHandler(void);
  70:/home/vinay/Desktop/softconsole_watershed/Water-shed/src/platform/mpfs_hal/common/mss_plic.h **** 
  71:/home/vinay/Desktop/softconsole_watershed/Water-shed/src/platform/mpfs_hal/common/mss_plic.h **** uint8_t  PLIC_gpio0_bit13_or_gpio2_bit13_IRQHandler(void);
  72:/home/vinay/Desktop/softconsole_watershed/Water-shed/src/platform/mpfs_hal/common/mss_plic.h **** uint8_t  PLIC_gpio1_bit0_or_gpio2_bit14_IRQHandler(void);
  73:/home/vinay/Desktop/softconsole_watershed/Water-shed/src/platform/mpfs_hal/common/mss_plic.h **** uint8_t  PLIC_gpio1_bit1_or_gpio2_bit15_IRQHandler(void);
  74:/home/vinay/Desktop/softconsole_watershed/Water-shed/src/platform/mpfs_hal/common/mss_plic.h **** uint8_t  PLIC_gpio1_bit2_or_gpio2_bit16_IRQHandler(void);
  75:/home/vinay/Desktop/softconsole_watershed/Water-shed/src/platform/mpfs_hal/common/mss_plic.h **** uint8_t  PLIC_gpio1_bit3_or_gpio2_bit17_IRQHandler(void);
  76:/home/vinay/Desktop/softconsole_watershed/Water-shed/src/platform/mpfs_hal/common/mss_plic.h **** uint8_t  PLIC_gpio1_bit4_or_gpio2_bit18_IRQHandler(void);
  77:/home/vinay/Desktop/softconsole_watershed/Water-shed/src/platform/mpfs_hal/common/mss_plic.h **** uint8_t  PLIC_gpio1_bit5_or_gpio2_bit19_IRQHandler(void);
  78:/home/vinay/Desktop/softconsole_watershed/Water-shed/src/platform/mpfs_hal/common/mss_plic.h **** uint8_t  PLIC_gpio1_bit6_or_gpio2_bit20_IRQHandler(void);
  79:/home/vinay/Desktop/softconsole_watershed/Water-shed/src/platform/mpfs_hal/common/mss_plic.h **** uint8_t  PLIC_gpio1_bit7_or_gpio2_bit21_IRQHandler(void);
  80:/home/vinay/Desktop/softconsole_watershed/Water-shed/src/platform/mpfs_hal/common/mss_plic.h **** uint8_t  PLIC_gpio1_bit8_or_gpio2_bit22_IRQHandler(void);
  81:/home/vinay/Desktop/softconsole_watershed/Water-shed/src/platform/mpfs_hal/common/mss_plic.h **** uint8_t  PLIC_gpio1_bit9_or_gpio2_bit23_IRQHandler(void);
  82:/home/vinay/Desktop/softconsole_watershed/Water-shed/src/platform/mpfs_hal/common/mss_plic.h **** uint8_t  PLIC_gpio1_bit10_or_gpio2_bit24_IRQHandler(void);
  83:/home/vinay/Desktop/softconsole_watershed/Water-shed/src/platform/mpfs_hal/common/mss_plic.h **** uint8_t  PLIC_gpio1_bit11_or_gpio2_bit25_IRQHandler(void);
  84:/home/vinay/Desktop/softconsole_watershed/Water-shed/src/platform/mpfs_hal/common/mss_plic.h **** uint8_t  PLIC_gpio1_bit12_or_gpio2_bit26_IRQHandler(void);
  85:/home/vinay/Desktop/softconsole_watershed/Water-shed/src/platform/mpfs_hal/common/mss_plic.h **** uint8_t  PLIC_gpio1_bit13_or_gpio2_bit27_IRQHandler(void);
  86:/home/vinay/Desktop/softconsole_watershed/Water-shed/src/platform/mpfs_hal/common/mss_plic.h **** 
  87:/home/vinay/Desktop/softconsole_watershed/Water-shed/src/platform/mpfs_hal/common/mss_plic.h **** uint8_t  PLIC_gpio1_bit14_or_gpio2_bit28_IRQHandler(void);
  88:/home/vinay/Desktop/softconsole_watershed/Water-shed/src/platform/mpfs_hal/common/mss_plic.h **** uint8_t  PLIC_gpio1_bit15_or_gpio2_bit29_IRQHandler(void);
  89:/home/vinay/Desktop/softconsole_watershed/Water-shed/src/platform/mpfs_hal/common/mss_plic.h **** uint8_t  PLIC_gpio1_bit16_or_gpio2_bit30_IRQHandler(void);
  90:/home/vinay/Desktop/softconsole_watershed/Water-shed/src/platform/mpfs_hal/common/mss_plic.h **** uint8_t  PLIC_gpio1_bit17_or_gpio2_bit31_IRQHandler(void);
  91:/home/vinay/Desktop/softconsole_watershed/Water-shed/src/platform/mpfs_hal/common/mss_plic.h **** 
  92:/home/vinay/Desktop/softconsole_watershed/Water-shed/src/platform/mpfs_hal/common/mss_plic.h **** uint8_t  PLIC_gpio1_bit18_IRQHandler(void);
  93:/home/vinay/Desktop/softconsole_watershed/Water-shed/src/platform/mpfs_hal/common/mss_plic.h **** uint8_t  PLIC_gpio1_bit19_IRQHandler(void);
  94:/home/vinay/Desktop/softconsole_watershed/Water-shed/src/platform/mpfs_hal/common/mss_plic.h **** uint8_t  PLIC_gpio1_bit20_IRQHandler(void);
  95:/home/vinay/Desktop/softconsole_watershed/Water-shed/src/platform/mpfs_hal/common/mss_plic.h **** uint8_t  PLIC_gpio1_bit21_IRQHandler(void);
  96:/home/vinay/Desktop/softconsole_watershed/Water-shed/src/platform/mpfs_hal/common/mss_plic.h **** uint8_t  PLIC_gpio1_bit22_IRQHandler(void);
  97:/home/vinay/Desktop/softconsole_watershed/Water-shed/src/platform/mpfs_hal/common/mss_plic.h **** uint8_t  PLIC_gpio1_bit23_IRQHandler(void);
  98:/home/vinay/Desktop/softconsole_watershed/Water-shed/src/platform/mpfs_hal/common/mss_plic.h **** 
  99:/home/vinay/Desktop/softconsole_watershed/Water-shed/src/platform/mpfs_hal/common/mss_plic.h **** uint8_t  PLIC_gpio0_non_direct_IRQHandler(void);
 100:/home/vinay/Desktop/softconsole_watershed/Water-shed/src/platform/mpfs_hal/common/mss_plic.h **** uint8_t  PLIC_gpio1_non_direct_IRQHandler(void);
 101:/home/vinay/Desktop/softconsole_watershed/Water-shed/src/platform/mpfs_hal/common/mss_plic.h **** uint8_t  PLIC_gpio2_non_direct_IRQHandler(void);
 102:/home/vinay/Desktop/softconsole_watershed/Water-shed/src/platform/mpfs_hal/common/mss_plic.h **** 
 103:/home/vinay/Desktop/softconsole_watershed/Water-shed/src/platform/mpfs_hal/common/mss_plic.h **** uint8_t  PLIC_spi0_IRQHandler(void);
 104:/home/vinay/Desktop/softconsole_watershed/Water-shed/src/platform/mpfs_hal/common/mss_plic.h **** uint8_t  PLIC_spi1_IRQHandler(void);
 105:/home/vinay/Desktop/softconsole_watershed/Water-shed/src/platform/mpfs_hal/common/mss_plic.h **** uint8_t  PLIC_external_can0_IRQHandler(void);
 106:/home/vinay/Desktop/softconsole_watershed/Water-shed/src/platform/mpfs_hal/common/mss_plic.h **** uint8_t  PLIC_can1_IRQHandler(void);
 107:/home/vinay/Desktop/softconsole_watershed/Water-shed/src/platform/mpfs_hal/common/mss_plic.h **** uint8_t  PLIC_External_i2c0_main_IRQHandler(void);
 108:/home/vinay/Desktop/softconsole_watershed/Water-shed/src/platform/mpfs_hal/common/mss_plic.h **** uint8_t  PLIC_External_i2c0_alert_IRQHandler(void);
 109:/home/vinay/Desktop/softconsole_watershed/Water-shed/src/platform/mpfs_hal/common/mss_plic.h **** uint8_t  PLIC_i2c0_sus_IRQHandler(void);
 110:/home/vinay/Desktop/softconsole_watershed/Water-shed/src/platform/mpfs_hal/common/mss_plic.h **** uint8_t  PLIC_i2c1_main_IRQHandler(void);
 111:/home/vinay/Desktop/softconsole_watershed/Water-shed/src/platform/mpfs_hal/common/mss_plic.h **** uint8_t  PLIC_i2c1_alert_IRQHandler(void);
 112:/home/vinay/Desktop/softconsole_watershed/Water-shed/src/platform/mpfs_hal/common/mss_plic.h **** uint8_t  PLIC_i2c1_sus_IRQHandler(void);
 113:/home/vinay/Desktop/softconsole_watershed/Water-shed/src/platform/mpfs_hal/common/mss_plic.h **** uint8_t  PLIC_mac0_int_IRQHandler(void);
 114:/home/vinay/Desktop/softconsole_watershed/Water-shed/src/platform/mpfs_hal/common/mss_plic.h **** uint8_t  PLIC_mac0_queue1_IRQHandler(void);
 115:/home/vinay/Desktop/softconsole_watershed/Water-shed/src/platform/mpfs_hal/common/mss_plic.h **** uint8_t  PLIC_mac0_queue2_IRQHandler(void);
 116:/home/vinay/Desktop/softconsole_watershed/Water-shed/src/platform/mpfs_hal/common/mss_plic.h **** uint8_t  PLIC_mac0_queue3_IRQHandler(void);
 117:/home/vinay/Desktop/softconsole_watershed/Water-shed/src/platform/mpfs_hal/common/mss_plic.h **** uint8_t  PLIC_mac0_emac_IRQHandler(void);
 118:/home/vinay/Desktop/softconsole_watershed/Water-shed/src/platform/mpfs_hal/common/mss_plic.h **** uint8_t  PLIC_mac0_mmsl_IRQHandler(void);
 119:/home/vinay/Desktop/softconsole_watershed/Water-shed/src/platform/mpfs_hal/common/mss_plic.h **** uint8_t  PLIC_mac1_int_IRQHandler(void);
 120:/home/vinay/Desktop/softconsole_watershed/Water-shed/src/platform/mpfs_hal/common/mss_plic.h **** uint8_t  PLIC_mac1_queue1_IRQHandler(void);
 121:/home/vinay/Desktop/softconsole_watershed/Water-shed/src/platform/mpfs_hal/common/mss_plic.h **** uint8_t  PLIC_mac1_queue2_IRQHandler(void);
 122:/home/vinay/Desktop/softconsole_watershed/Water-shed/src/platform/mpfs_hal/common/mss_plic.h **** uint8_t  PLIC_mac1_queue3_IRQHandler(void);
 123:/home/vinay/Desktop/softconsole_watershed/Water-shed/src/platform/mpfs_hal/common/mss_plic.h **** uint8_t  PLIC_mac1_emac_IRQHandler(void);
 124:/home/vinay/Desktop/softconsole_watershed/Water-shed/src/platform/mpfs_hal/common/mss_plic.h **** uint8_t  PLIC_mac1_mmsl_IRQHandler(void);
 125:/home/vinay/Desktop/softconsole_watershed/Water-shed/src/platform/mpfs_hal/common/mss_plic.h **** uint8_t  PLIC_ddrc_train_IRQHandler(void);
 126:/home/vinay/Desktop/softconsole_watershed/Water-shed/src/platform/mpfs_hal/common/mss_plic.h **** uint8_t  PLIC_scb_interrupt_IRQHandler(void);
 127:/home/vinay/Desktop/softconsole_watershed/Water-shed/src/platform/mpfs_hal/common/mss_plic.h **** uint8_t  PLIC_ecc_error_IRQHandler(void);
 128:/home/vinay/Desktop/softconsole_watershed/Water-shed/src/platform/mpfs_hal/common/mss_plic.h **** uint8_t  PLIC_ecc_correct_IRQHandler(void);
 129:/home/vinay/Desktop/softconsole_watershed/Water-shed/src/platform/mpfs_hal/common/mss_plic.h **** uint8_t  PLIC_rtc_wakeup_IRQHandler(void);
 130:/home/vinay/Desktop/softconsole_watershed/Water-shed/src/platform/mpfs_hal/common/mss_plic.h **** uint8_t  PLIC_rtc_match_IRQHandler(void);
 131:/home/vinay/Desktop/softconsole_watershed/Water-shed/src/platform/mpfs_hal/common/mss_plic.h **** uint8_t  PLIC_timer1_IRQHandler(void);
 132:/home/vinay/Desktop/softconsole_watershed/Water-shed/src/platform/mpfs_hal/common/mss_plic.h **** uint8_t  PLIC_timer2_IRQHandler(void);
 133:/home/vinay/Desktop/softconsole_watershed/Water-shed/src/platform/mpfs_hal/common/mss_plic.h **** uint8_t  PLIC_envm_IRQHandler(void);
 134:/home/vinay/Desktop/softconsole_watershed/Water-shed/src/platform/mpfs_hal/common/mss_plic.h **** uint8_t  PLIC_qspi_IRQHandler(void);
 135:/home/vinay/Desktop/softconsole_watershed/Water-shed/src/platform/mpfs_hal/common/mss_plic.h **** uint8_t  PLIC_usb_dma_IRQHandler(void);
 136:/home/vinay/Desktop/softconsole_watershed/Water-shed/src/platform/mpfs_hal/common/mss_plic.h **** uint8_t  PLIC_usb_mc_IRQHandler(void);
 137:/home/vinay/Desktop/softconsole_watershed/Water-shed/src/platform/mpfs_hal/common/mss_plic.h **** uint8_t  PLIC_mmc_main_IRQHandler(void);
 138:/home/vinay/Desktop/softconsole_watershed/Water-shed/src/platform/mpfs_hal/common/mss_plic.h **** uint8_t  PLIC_mmc_wakeup_IRQHandler(void);
 139:/home/vinay/Desktop/softconsole_watershed/Water-shed/src/platform/mpfs_hal/common/mss_plic.h **** uint8_t  PLIC_mmuart0_IRQHandler(void);
 140:/home/vinay/Desktop/softconsole_watershed/Water-shed/src/platform/mpfs_hal/common/mss_plic.h **** uint8_t  PLIC_mmuart1_IRQHandler(void);
 141:/home/vinay/Desktop/softconsole_watershed/Water-shed/src/platform/mpfs_hal/common/mss_plic.h **** uint8_t  PLIC_mmuart2_IRQHandler(void);
 142:/home/vinay/Desktop/softconsole_watershed/Water-shed/src/platform/mpfs_hal/common/mss_plic.h **** uint8_t  PLIC_mmuart3_IRQHandler(void);
 143:/home/vinay/Desktop/softconsole_watershed/Water-shed/src/platform/mpfs_hal/common/mss_plic.h **** uint8_t  PLIC_mmuart4_IRQHandler(void);
 144:/home/vinay/Desktop/softconsole_watershed/Water-shed/src/platform/mpfs_hal/common/mss_plic.h **** uint8_t  PLIC_devrst_IRQHandler(void);
 145:/home/vinay/Desktop/softconsole_watershed/Water-shed/src/platform/mpfs_hal/common/mss_plic.h **** uint8_t  PLIC_g5c_message_IRQHandler(void);
 146:/home/vinay/Desktop/softconsole_watershed/Water-shed/src/platform/mpfs_hal/common/mss_plic.h **** uint8_t  PLIC_usoc_vc_interrupt_IRQHandler(void);
 147:/home/vinay/Desktop/softconsole_watershed/Water-shed/src/platform/mpfs_hal/common/mss_plic.h **** uint8_t  PLIC_usoc_smb_interrupt_IRQHandler(void);
 148:/home/vinay/Desktop/softconsole_watershed/Water-shed/src/platform/mpfs_hal/common/mss_plic.h **** uint8_t  PLIC_E51_Maintence_IRQHandler(void);
 149:/home/vinay/Desktop/softconsole_watershed/Water-shed/src/platform/mpfs_hal/common/mss_plic.h **** 
 150:/home/vinay/Desktop/softconsole_watershed/Water-shed/src/platform/mpfs_hal/common/mss_plic.h **** uint8_t  PLIC_wdog0_mvrp_IRQHandler(void);
 151:/home/vinay/Desktop/softconsole_watershed/Water-shed/src/platform/mpfs_hal/common/mss_plic.h **** uint8_t  PLIC_wdog1_mvrp_IRQHandler(void);
 152:/home/vinay/Desktop/softconsole_watershed/Water-shed/src/platform/mpfs_hal/common/mss_plic.h **** uint8_t  PLIC_wdog2_mvrp_IRQHandler(void);
 153:/home/vinay/Desktop/softconsole_watershed/Water-shed/src/platform/mpfs_hal/common/mss_plic.h **** uint8_t  PLIC_wdog3_mvrp_IRQHandler(void);
 154:/home/vinay/Desktop/softconsole_watershed/Water-shed/src/platform/mpfs_hal/common/mss_plic.h **** uint8_t  PLIC_wdog4_mvrp_IRQHandler(void);
 155:/home/vinay/Desktop/softconsole_watershed/Water-shed/src/platform/mpfs_hal/common/mss_plic.h **** uint8_t  PLIC_wdog0_tout_IRQHandler(void);
 156:/home/vinay/Desktop/softconsole_watershed/Water-shed/src/platform/mpfs_hal/common/mss_plic.h **** uint8_t  PLIC_wdog1_tout_IRQHandler(void);
 157:/home/vinay/Desktop/softconsole_watershed/Water-shed/src/platform/mpfs_hal/common/mss_plic.h **** uint8_t  PLIC_wdog2_tout_IRQHandler(void);
 158:/home/vinay/Desktop/softconsole_watershed/Water-shed/src/platform/mpfs_hal/common/mss_plic.h **** uint8_t  PLIC_wdog3_tout_IRQHandler(void);
 159:/home/vinay/Desktop/softconsole_watershed/Water-shed/src/platform/mpfs_hal/common/mss_plic.h **** uint8_t  PLIC_wdog4_tout_IRQHandler(void);
 160:/home/vinay/Desktop/softconsole_watershed/Water-shed/src/platform/mpfs_hal/common/mss_plic.h **** uint8_t  PLIC_g5c_mss_spi_IRQHandler(void);
 161:/home/vinay/Desktop/softconsole_watershed/Water-shed/src/platform/mpfs_hal/common/mss_plic.h **** uint8_t  PLIC_volt_temp_alarm_IRQHandler(void);
 162:/home/vinay/Desktop/softconsole_watershed/Water-shed/src/platform/mpfs_hal/common/mss_plic.h **** 
 163:/home/vinay/Desktop/softconsole_watershed/Water-shed/src/platform/mpfs_hal/common/mss_plic.h **** uint8_t  PLIC_athena_complete_IRQHandler(void);
 164:/home/vinay/Desktop/softconsole_watershed/Water-shed/src/platform/mpfs_hal/common/mss_plic.h **** uint8_t  PLIC_athena_alarm_IRQHandler(void);
 165:/home/vinay/Desktop/softconsole_watershed/Water-shed/src/platform/mpfs_hal/common/mss_plic.h **** uint8_t  PLIC_athena_bus_error_IRQHandler(void);
 166:/home/vinay/Desktop/softconsole_watershed/Water-shed/src/platform/mpfs_hal/common/mss_plic.h **** uint8_t  PLIC_usoc_axic_us_IRQHandler(void);
 167:/home/vinay/Desktop/softconsole_watershed/Water-shed/src/platform/mpfs_hal/common/mss_plic.h **** uint8_t  PLIC_usoc_axic_ds_IRQHandler(void);
 168:/home/vinay/Desktop/softconsole_watershed/Water-shed/src/platform/mpfs_hal/common/mss_plic.h **** 
 169:/home/vinay/Desktop/softconsole_watershed/Water-shed/src/platform/mpfs_hal/common/mss_plic.h **** uint8_t  PLIC_reserved_104_IRQHandler(void);
 170:/home/vinay/Desktop/softconsole_watershed/Water-shed/src/platform/mpfs_hal/common/mss_plic.h **** 
 171:/home/vinay/Desktop/softconsole_watershed/Water-shed/src/platform/mpfs_hal/common/mss_plic.h **** uint8_t  PLIC_f2m_0_IRQHandler(void);
 172:/home/vinay/Desktop/softconsole_watershed/Water-shed/src/platform/mpfs_hal/common/mss_plic.h **** uint8_t  PLIC_f2m_1_IRQHandler(void);
 173:/home/vinay/Desktop/softconsole_watershed/Water-shed/src/platform/mpfs_hal/common/mss_plic.h **** uint8_t  PLIC_f2m_2_IRQHandler(void);
 174:/home/vinay/Desktop/softconsole_watershed/Water-shed/src/platform/mpfs_hal/common/mss_plic.h **** uint8_t  PLIC_f2m_3_IRQHandler(void);
 175:/home/vinay/Desktop/softconsole_watershed/Water-shed/src/platform/mpfs_hal/common/mss_plic.h **** uint8_t  PLIC_f2m_4_IRQHandler(void);
 176:/home/vinay/Desktop/softconsole_watershed/Water-shed/src/platform/mpfs_hal/common/mss_plic.h **** uint8_t  PLIC_f2m_5_IRQHandler(void);
 177:/home/vinay/Desktop/softconsole_watershed/Water-shed/src/platform/mpfs_hal/common/mss_plic.h **** uint8_t  PLIC_f2m_6_IRQHandler(void);
 178:/home/vinay/Desktop/softconsole_watershed/Water-shed/src/platform/mpfs_hal/common/mss_plic.h **** uint8_t  PLIC_f2m_7_IRQHandler(void);
 179:/home/vinay/Desktop/softconsole_watershed/Water-shed/src/platform/mpfs_hal/common/mss_plic.h **** uint8_t  PLIC_f2m_8_IRQHandler(void);
 180:/home/vinay/Desktop/softconsole_watershed/Water-shed/src/platform/mpfs_hal/common/mss_plic.h **** uint8_t  PLIC_f2m_9_IRQHandler(void);
 181:/home/vinay/Desktop/softconsole_watershed/Water-shed/src/platform/mpfs_hal/common/mss_plic.h **** 
 182:/home/vinay/Desktop/softconsole_watershed/Water-shed/src/platform/mpfs_hal/common/mss_plic.h **** uint8_t  PLIC_f2m_10_IRQHandler(void);
 183:/home/vinay/Desktop/softconsole_watershed/Water-shed/src/platform/mpfs_hal/common/mss_plic.h **** uint8_t  PLIC_f2m_11_IRQHandler(void);
 184:/home/vinay/Desktop/softconsole_watershed/Water-shed/src/platform/mpfs_hal/common/mss_plic.h **** uint8_t  PLIC_f2m_12_IRQHandler(void);
 185:/home/vinay/Desktop/softconsole_watershed/Water-shed/src/platform/mpfs_hal/common/mss_plic.h **** uint8_t  PLIC_f2m_13_IRQHandler(void);
 186:/home/vinay/Desktop/softconsole_watershed/Water-shed/src/platform/mpfs_hal/common/mss_plic.h **** uint8_t  PLIC_f2m_14_IRQHandler(void);
 187:/home/vinay/Desktop/softconsole_watershed/Water-shed/src/platform/mpfs_hal/common/mss_plic.h **** uint8_t  PLIC_f2m_15_IRQHandler(void);
 188:/home/vinay/Desktop/softconsole_watershed/Water-shed/src/platform/mpfs_hal/common/mss_plic.h **** uint8_t  PLIC_f2m_16_IRQHandler(void);
 189:/home/vinay/Desktop/softconsole_watershed/Water-shed/src/platform/mpfs_hal/common/mss_plic.h **** uint8_t  PLIC_f2m_17_IRQHandler(void);
 190:/home/vinay/Desktop/softconsole_watershed/Water-shed/src/platform/mpfs_hal/common/mss_plic.h **** uint8_t  PLIC_f2m_18_IRQHandler(void);
 191:/home/vinay/Desktop/softconsole_watershed/Water-shed/src/platform/mpfs_hal/common/mss_plic.h **** uint8_t  PLIC_f2m_19_IRQHandler(void);
 192:/home/vinay/Desktop/softconsole_watershed/Water-shed/src/platform/mpfs_hal/common/mss_plic.h **** 
 193:/home/vinay/Desktop/softconsole_watershed/Water-shed/src/platform/mpfs_hal/common/mss_plic.h **** uint8_t  PLIC_f2m_20_IRQHandler(void);
 194:/home/vinay/Desktop/softconsole_watershed/Water-shed/src/platform/mpfs_hal/common/mss_plic.h **** uint8_t  PLIC_f2m_21_IRQHandler(void);
 195:/home/vinay/Desktop/softconsole_watershed/Water-shed/src/platform/mpfs_hal/common/mss_plic.h **** uint8_t  PLIC_f2m_22_IRQHandler(void);
 196:/home/vinay/Desktop/softconsole_watershed/Water-shed/src/platform/mpfs_hal/common/mss_plic.h **** uint8_t  PLIC_f2m_23_IRQHandler(void);
 197:/home/vinay/Desktop/softconsole_watershed/Water-shed/src/platform/mpfs_hal/common/mss_plic.h **** uint8_t  PLIC_f2m_24_IRQHandler(void);
 198:/home/vinay/Desktop/softconsole_watershed/Water-shed/src/platform/mpfs_hal/common/mss_plic.h **** uint8_t  PLIC_f2m_25_IRQHandler(void);
 199:/home/vinay/Desktop/softconsole_watershed/Water-shed/src/platform/mpfs_hal/common/mss_plic.h **** uint8_t  PLIC_f2m_26_IRQHandler(void);
 200:/home/vinay/Desktop/softconsole_watershed/Water-shed/src/platform/mpfs_hal/common/mss_plic.h **** uint8_t  PLIC_f2m_27_IRQHandler(void);
 201:/home/vinay/Desktop/softconsole_watershed/Water-shed/src/platform/mpfs_hal/common/mss_plic.h **** uint8_t  PLIC_f2m_28_IRQHandler(void);
 202:/home/vinay/Desktop/softconsole_watershed/Water-shed/src/platform/mpfs_hal/common/mss_plic.h **** uint8_t  PLIC_f2m_29_IRQHandler(void);
 203:/home/vinay/Desktop/softconsole_watershed/Water-shed/src/platform/mpfs_hal/common/mss_plic.h **** 
 204:/home/vinay/Desktop/softconsole_watershed/Water-shed/src/platform/mpfs_hal/common/mss_plic.h **** uint8_t  PLIC_f2m_30_IRQHandler(void);
 205:/home/vinay/Desktop/softconsole_watershed/Water-shed/src/platform/mpfs_hal/common/mss_plic.h **** uint8_t  PLIC_f2m_31_IRQHandler(void);
 206:/home/vinay/Desktop/softconsole_watershed/Water-shed/src/platform/mpfs_hal/common/mss_plic.h **** 
 207:/home/vinay/Desktop/softconsole_watershed/Water-shed/src/platform/mpfs_hal/common/mss_plic.h **** uint8_t  PLIC_f2m_32_IRQHandler(void);
 208:/home/vinay/Desktop/softconsole_watershed/Water-shed/src/platform/mpfs_hal/common/mss_plic.h **** uint8_t  PLIC_f2m_33_IRQHandler(void);
 209:/home/vinay/Desktop/softconsole_watershed/Water-shed/src/platform/mpfs_hal/common/mss_plic.h **** uint8_t  PLIC_f2m_34_IRQHandler(void);
 210:/home/vinay/Desktop/softconsole_watershed/Water-shed/src/platform/mpfs_hal/common/mss_plic.h **** uint8_t  PLIC_f2m_35_IRQHandler(void);
 211:/home/vinay/Desktop/softconsole_watershed/Water-shed/src/platform/mpfs_hal/common/mss_plic.h **** uint8_t  PLIC_f2m_36_IRQHandler(void);
 212:/home/vinay/Desktop/softconsole_watershed/Water-shed/src/platform/mpfs_hal/common/mss_plic.h **** uint8_t  PLIC_f2m_37_IRQHandler(void);
 213:/home/vinay/Desktop/softconsole_watershed/Water-shed/src/platform/mpfs_hal/common/mss_plic.h **** uint8_t  PLIC_f2m_38_IRQHandler(void);
 214:/home/vinay/Desktop/softconsole_watershed/Water-shed/src/platform/mpfs_hal/common/mss_plic.h **** uint8_t  PLIC_f2m_39_IRQHandler(void);
 215:/home/vinay/Desktop/softconsole_watershed/Water-shed/src/platform/mpfs_hal/common/mss_plic.h **** uint8_t  PLIC_f2m_40_IRQHandler(void);
 216:/home/vinay/Desktop/softconsole_watershed/Water-shed/src/platform/mpfs_hal/common/mss_plic.h **** uint8_t  PLIC_f2m_41_IRQHandler(void);
 217:/home/vinay/Desktop/softconsole_watershed/Water-shed/src/platform/mpfs_hal/common/mss_plic.h **** 
 218:/home/vinay/Desktop/softconsole_watershed/Water-shed/src/platform/mpfs_hal/common/mss_plic.h **** uint8_t PLIC_f2m_42_IRQHandler(void);
 219:/home/vinay/Desktop/softconsole_watershed/Water-shed/src/platform/mpfs_hal/common/mss_plic.h **** uint8_t PLIC_f2m_43_IRQHandler(void);
 220:/home/vinay/Desktop/softconsole_watershed/Water-shed/src/platform/mpfs_hal/common/mss_plic.h **** uint8_t PLIC_f2m_44_IRQHandler(void);
 221:/home/vinay/Desktop/softconsole_watershed/Water-shed/src/platform/mpfs_hal/common/mss_plic.h **** uint8_t PLIC_f2m_45_IRQHandler(void);
 222:/home/vinay/Desktop/softconsole_watershed/Water-shed/src/platform/mpfs_hal/common/mss_plic.h **** uint8_t PLIC_f2m_46_IRQHandler(void);
 223:/home/vinay/Desktop/softconsole_watershed/Water-shed/src/platform/mpfs_hal/common/mss_plic.h **** uint8_t PLIC_f2m_47_IRQHandler(void);
 224:/home/vinay/Desktop/softconsole_watershed/Water-shed/src/platform/mpfs_hal/common/mss_plic.h **** uint8_t PLIC_f2m_48_IRQHandler(void);
 225:/home/vinay/Desktop/softconsole_watershed/Water-shed/src/platform/mpfs_hal/common/mss_plic.h **** uint8_t PLIC_f2m_49_IRQHandler(void);
 226:/home/vinay/Desktop/softconsole_watershed/Water-shed/src/platform/mpfs_hal/common/mss_plic.h **** uint8_t PLIC_f2m_50_IRQHandler(void);
 227:/home/vinay/Desktop/softconsole_watershed/Water-shed/src/platform/mpfs_hal/common/mss_plic.h **** uint8_t PLIC_f2m_51_IRQHandler(void);
 228:/home/vinay/Desktop/softconsole_watershed/Water-shed/src/platform/mpfs_hal/common/mss_plic.h **** 
 229:/home/vinay/Desktop/softconsole_watershed/Water-shed/src/platform/mpfs_hal/common/mss_plic.h **** uint8_t PLIC_f2m_52_IRQHandler(void);
 230:/home/vinay/Desktop/softconsole_watershed/Water-shed/src/platform/mpfs_hal/common/mss_plic.h **** uint8_t PLIC_f2m_53_IRQHandler(void);
 231:/home/vinay/Desktop/softconsole_watershed/Water-shed/src/platform/mpfs_hal/common/mss_plic.h **** uint8_t PLIC_f2m_54_IRQHandler(void);
 232:/home/vinay/Desktop/softconsole_watershed/Water-shed/src/platform/mpfs_hal/common/mss_plic.h **** uint8_t PLIC_f2m_55_IRQHandler(void);
 233:/home/vinay/Desktop/softconsole_watershed/Water-shed/src/platform/mpfs_hal/common/mss_plic.h **** uint8_t PLIC_f2m_56_IRQHandler(void);
 234:/home/vinay/Desktop/softconsole_watershed/Water-shed/src/platform/mpfs_hal/common/mss_plic.h **** uint8_t PLIC_f2m_57_IRQHandler(void);
 235:/home/vinay/Desktop/softconsole_watershed/Water-shed/src/platform/mpfs_hal/common/mss_plic.h **** uint8_t PLIC_f2m_58_IRQHandler(void);
 236:/home/vinay/Desktop/softconsole_watershed/Water-shed/src/platform/mpfs_hal/common/mss_plic.h **** uint8_t PLIC_f2m_59_IRQHandler(void);
 237:/home/vinay/Desktop/softconsole_watershed/Water-shed/src/platform/mpfs_hal/common/mss_plic.h **** uint8_t PLIC_f2m_60_IRQHandler(void);
 238:/home/vinay/Desktop/softconsole_watershed/Water-shed/src/platform/mpfs_hal/common/mss_plic.h **** uint8_t PLIC_f2m_61_IRQHandler(void);
 239:/home/vinay/Desktop/softconsole_watershed/Water-shed/src/platform/mpfs_hal/common/mss_plic.h **** 
 240:/home/vinay/Desktop/softconsole_watershed/Water-shed/src/platform/mpfs_hal/common/mss_plic.h **** uint8_t PLIC_f2m_62_IRQHandler(void);
 241:/home/vinay/Desktop/softconsole_watershed/Water-shed/src/platform/mpfs_hal/common/mss_plic.h **** uint8_t PLIC_f2m_63_IRQHandler(void);
 242:/home/vinay/Desktop/softconsole_watershed/Water-shed/src/platform/mpfs_hal/common/mss_plic.h **** 
 243:/home/vinay/Desktop/softconsole_watershed/Water-shed/src/platform/mpfs_hal/common/mss_plic.h **** uint8_t PLIC_E51_bus_error_unit_IRQHandler(void);
 244:/home/vinay/Desktop/softconsole_watershed/Water-shed/src/platform/mpfs_hal/common/mss_plic.h **** uint8_t PLIC_U54_1_bus_error_unit_IRQHandler(void);
 245:/home/vinay/Desktop/softconsole_watershed/Water-shed/src/platform/mpfs_hal/common/mss_plic.h **** uint8_t PLIC_U54_2_bus_error_unit_IRQHandler(void);
 246:/home/vinay/Desktop/softconsole_watershed/Water-shed/src/platform/mpfs_hal/common/mss_plic.h **** uint8_t PLIC_U54_3_bus_error_unit_IRQHandler(void);
 247:/home/vinay/Desktop/softconsole_watershed/Water-shed/src/platform/mpfs_hal/common/mss_plic.h **** uint8_t PLIC_U54_4_bus_error_unit_IRQHandler(void);
 248:/home/vinay/Desktop/softconsole_watershed/Water-shed/src/platform/mpfs_hal/common/mss_plic.h **** 
 249:/home/vinay/Desktop/softconsole_watershed/Water-shed/src/platform/mpfs_hal/common/mss_plic.h **** /***************************************************************************//**
 250:/home/vinay/Desktop/softconsole_watershed/Water-shed/src/platform/mpfs_hal/common/mss_plic.h ****  * PLIC source Interrupt numbers:
 251:/home/vinay/Desktop/softconsole_watershed/Water-shed/src/platform/mpfs_hal/common/mss_plic.h ****  */
 252:/home/vinay/Desktop/softconsole_watershed/Water-shed/src/platform/mpfs_hal/common/mss_plic.h **** /* See section on PLIC Interrupt Sources in User Guide */
 253:/home/vinay/Desktop/softconsole_watershed/Water-shed/src/platform/mpfs_hal/common/mss_plic.h **** #define OFFSET_TO_MSS_GLOBAL_INTS 13U
 254:/home/vinay/Desktop/softconsole_watershed/Water-shed/src/platform/mpfs_hal/common/mss_plic.h **** typedef enum
 255:/home/vinay/Desktop/softconsole_watershed/Water-shed/src/platform/mpfs_hal/common/mss_plic.h **** {
 256:/home/vinay/Desktop/softconsole_watershed/Water-shed/src/platform/mpfs_hal/common/mss_plic.h ****     PLIC_INVALID_INT_OFFSET                 = 0,
 257:/home/vinay/Desktop/softconsole_watershed/Water-shed/src/platform/mpfs_hal/common/mss_plic.h ****     PLIC_L2_METADATA_CORR_INT_OFFSET        = 1,
 258:/home/vinay/Desktop/softconsole_watershed/Water-shed/src/platform/mpfs_hal/common/mss_plic.h ****     PLIC_L2_METADAT_UNCORR_INT_OFFSET       = 2,
 259:/home/vinay/Desktop/softconsole_watershed/Water-shed/src/platform/mpfs_hal/common/mss_plic.h ****     PLIC_L2_DATA_CORR_INT_OFFSET            = 3,
 260:/home/vinay/Desktop/softconsole_watershed/Water-shed/src/platform/mpfs_hal/common/mss_plic.h ****     PLIC_L2_DATA_UNCORR_INT_OFFSET          = 4,
 261:/home/vinay/Desktop/softconsole_watershed/Water-shed/src/platform/mpfs_hal/common/mss_plic.h ****     PLIC_DMA_CH0_DONE_INT_OFFSET            = 5,
 262:/home/vinay/Desktop/softconsole_watershed/Water-shed/src/platform/mpfs_hal/common/mss_plic.h ****     PLIC_DMA_CH0_ERR_INT_OFFSET             = 6,
 263:/home/vinay/Desktop/softconsole_watershed/Water-shed/src/platform/mpfs_hal/common/mss_plic.h ****     PLIC_DMA_CH1_DONE_INT_OFFSET            = 7,
 264:/home/vinay/Desktop/softconsole_watershed/Water-shed/src/platform/mpfs_hal/common/mss_plic.h ****     PLIC_DMA_CH1_ERR_INT_OFFSET             = 8,
 265:/home/vinay/Desktop/softconsole_watershed/Water-shed/src/platform/mpfs_hal/common/mss_plic.h ****     PLIC_DMA_CH2_DONE_INT_OFFSET            = 9,
 266:/home/vinay/Desktop/softconsole_watershed/Water-shed/src/platform/mpfs_hal/common/mss_plic.h ****     PLIC_DMA_CH2_ERR_INT_OFFSET             = 10,
 267:/home/vinay/Desktop/softconsole_watershed/Water-shed/src/platform/mpfs_hal/common/mss_plic.h ****     PLIC_DMA_CH3_DONE_INT_OFFSET            = 11,
 268:/home/vinay/Desktop/softconsole_watershed/Water-shed/src/platform/mpfs_hal/common/mss_plic.h ****     PLIC_DMA_CH3_ERR_INT_OFFSET             = 12,
 269:/home/vinay/Desktop/softconsole_watershed/Water-shed/src/platform/mpfs_hal/common/mss_plic.h ****     /* see PLIC_I2C Interrupt Multiplexing in the User Guide */
 270:/home/vinay/Desktop/softconsole_watershed/Water-shed/src/platform/mpfs_hal/common/mss_plic.h ****     PLIC_GPIO0_BIT0_or_GPIO2_BIT0_INT_OFFSET         = 0 + OFFSET_TO_MSS_GLOBAL_INTS,
 271:/home/vinay/Desktop/softconsole_watershed/Water-shed/src/platform/mpfs_hal/common/mss_plic.h ****     PLIC_GPIO0_BIT1_or_GPIO2_BIT1_INT_OFFSET         = 1 + OFFSET_TO_MSS_GLOBAL_INTS,
 272:/home/vinay/Desktop/softconsole_watershed/Water-shed/src/platform/mpfs_hal/common/mss_plic.h ****     PLIC_GPIO0_BIT2_or_GPIO2_BIT2_INT_OFFSET         = 2 + OFFSET_TO_MSS_GLOBAL_INTS,
 273:/home/vinay/Desktop/softconsole_watershed/Water-shed/src/platform/mpfs_hal/common/mss_plic.h ****     PLIC_GPIO0_BIT3_or_GPIO2_BIT3_INT_OFFSET         = 3 + OFFSET_TO_MSS_GLOBAL_INTS,
 274:/home/vinay/Desktop/softconsole_watershed/Water-shed/src/platform/mpfs_hal/common/mss_plic.h ****     PLIC_GPIO0_BIT4_or_GPIO2_BIT4_INT_OFFSET         = 4 + OFFSET_TO_MSS_GLOBAL_INTS,
 275:/home/vinay/Desktop/softconsole_watershed/Water-shed/src/platform/mpfs_hal/common/mss_plic.h ****     PLIC_GPIO0_BIT5_or_GPIO2_BIT5_INT_OFFSET         = 5 + OFFSET_TO_MSS_GLOBAL_INTS,
 276:/home/vinay/Desktop/softconsole_watershed/Water-shed/src/platform/mpfs_hal/common/mss_plic.h ****     PLIC_GPIO0_BIT6_or_GPIO2_BIT6_INT_OFFSET         = 6 + OFFSET_TO_MSS_GLOBAL_INTS,
 277:/home/vinay/Desktop/softconsole_watershed/Water-shed/src/platform/mpfs_hal/common/mss_plic.h ****     PLIC_GPIO0_BIT7_or_GPIO2_BIT7_INT_OFFSET         = 7 + OFFSET_TO_MSS_GLOBAL_INTS,
 278:/home/vinay/Desktop/softconsole_watershed/Water-shed/src/platform/mpfs_hal/common/mss_plic.h ****     PLIC_GPIO0_BIT8_or_GPIO2_BIT8_INT_OFFSET         = 8 + OFFSET_TO_MSS_GLOBAL_INTS,
 279:/home/vinay/Desktop/softconsole_watershed/Water-shed/src/platform/mpfs_hal/common/mss_plic.h ****     PLIC_GPIO0_BIT9_or_GPIO2_BIT9_INT_OFFSET         = 9 + OFFSET_TO_MSS_GLOBAL_INTS,
 280:/home/vinay/Desktop/softconsole_watershed/Water-shed/src/platform/mpfs_hal/common/mss_plic.h ****     PLIC_GPIO0_BIT10_or_GPIO2_BIT10_INT_OFFSET      = 10 + OFFSET_TO_MSS_GLOBAL_INTS,
 281:/home/vinay/Desktop/softconsole_watershed/Water-shed/src/platform/mpfs_hal/common/mss_plic.h ****     PLIC_GPIO0_BIT11_or_GPIO2_BIT11_INT_OFFSET      = 11 + OFFSET_TO_MSS_GLOBAL_INTS,
 282:/home/vinay/Desktop/softconsole_watershed/Water-shed/src/platform/mpfs_hal/common/mss_plic.h ****     PLIC_GPIO0_BIT12_or_GPIO2_BIT12_INT_OFFSET      = 12 + OFFSET_TO_MSS_GLOBAL_INTS,
 283:/home/vinay/Desktop/softconsole_watershed/Water-shed/src/platform/mpfs_hal/common/mss_plic.h **** 
 284:/home/vinay/Desktop/softconsole_watershed/Water-shed/src/platform/mpfs_hal/common/mss_plic.h ****     PLIC_GPIO0_BIT13_or_GPIO2_BIT13_INT_OFFSET      = 13 + OFFSET_TO_MSS_GLOBAL_INTS,
 285:/home/vinay/Desktop/softconsole_watershed/Water-shed/src/platform/mpfs_hal/common/mss_plic.h ****     PLIC_GPIO1_BIT0_or_GPIO2_BIT14_INT_OFFSET       = 14 + OFFSET_TO_MSS_GLOBAL_INTS,
 286:/home/vinay/Desktop/softconsole_watershed/Water-shed/src/platform/mpfs_hal/common/mss_plic.h ****     PLIC_GPIO1_BIT1_or_GPIO2_BIT15_INT_OFFSET       = 15 + OFFSET_TO_MSS_GLOBAL_INTS,
 287:/home/vinay/Desktop/softconsole_watershed/Water-shed/src/platform/mpfs_hal/common/mss_plic.h ****     PLIC_GPIO1_BIT2_or_GPIO2_BIT16_INT_OFFSET       = 16 + OFFSET_TO_MSS_GLOBAL_INTS,
 288:/home/vinay/Desktop/softconsole_watershed/Water-shed/src/platform/mpfs_hal/common/mss_plic.h ****     PLIC_GPIO1_BIT3_or_GPIO2_BIT17_INT_OFFSET       = 17 + OFFSET_TO_MSS_GLOBAL_INTS,
 289:/home/vinay/Desktop/softconsole_watershed/Water-shed/src/platform/mpfs_hal/common/mss_plic.h ****     PLIC_GPIO1_BIT4_or_GPIO2_BIT18_INT_OFFSET       = 18 + OFFSET_TO_MSS_GLOBAL_INTS,
 290:/home/vinay/Desktop/softconsole_watershed/Water-shed/src/platform/mpfs_hal/common/mss_plic.h ****     PLIC_GPIO1_BIT5_or_GPIO2_BIT19_INT_OFFSET       = 19 + OFFSET_TO_MSS_GLOBAL_INTS,
 291:/home/vinay/Desktop/softconsole_watershed/Water-shed/src/platform/mpfs_hal/common/mss_plic.h ****     PLIC_GPIO1_BIT6_or_GPIO2_BIT20_INT_OFFSET       = 20 + OFFSET_TO_MSS_GLOBAL_INTS,
 292:/home/vinay/Desktop/softconsole_watershed/Water-shed/src/platform/mpfs_hal/common/mss_plic.h ****     PLIC_GPIO1_BIT7_or_GPIO2_BIT21_INT_OFFSET       = 21 + OFFSET_TO_MSS_GLOBAL_INTS,
 293:/home/vinay/Desktop/softconsole_watershed/Water-shed/src/platform/mpfs_hal/common/mss_plic.h ****     PLIC_GPIO1_BIT8_or_GPIO2_BIT22_INT_OFFSET       = 22 + OFFSET_TO_MSS_GLOBAL_INTS,
 294:/home/vinay/Desktop/softconsole_watershed/Water-shed/src/platform/mpfs_hal/common/mss_plic.h ****     PLIC_GPIO1_BIT9_or_GPIO2_BIT23_INT_OFFSET       = 23 + OFFSET_TO_MSS_GLOBAL_INTS,
 295:/home/vinay/Desktop/softconsole_watershed/Water-shed/src/platform/mpfs_hal/common/mss_plic.h ****     PLIC_GPIO1_BIT10_or_GPIO2_BIT24_INT_OFFSET      = 24 + OFFSET_TO_MSS_GLOBAL_INTS,
 296:/home/vinay/Desktop/softconsole_watershed/Water-shed/src/platform/mpfs_hal/common/mss_plic.h ****     PLIC_GPIO1_BIT11_or_GPIO2_BIT25_INT_OFFSET      = 25 + OFFSET_TO_MSS_GLOBAL_INTS,
 297:/home/vinay/Desktop/softconsole_watershed/Water-shed/src/platform/mpfs_hal/common/mss_plic.h ****     PLIC_GPIO1_BIT12_or_GPIO2_BIT26_INT_OFFSET      = 26 + OFFSET_TO_MSS_GLOBAL_INTS,
 298:/home/vinay/Desktop/softconsole_watershed/Water-shed/src/platform/mpfs_hal/common/mss_plic.h ****     PLIC_GPIO1_BIT13_or_GPIO2_BIT27_INT_OFFSET      = 27 + OFFSET_TO_MSS_GLOBAL_INTS,
 299:/home/vinay/Desktop/softconsole_watershed/Water-shed/src/platform/mpfs_hal/common/mss_plic.h **** 
 300:/home/vinay/Desktop/softconsole_watershed/Water-shed/src/platform/mpfs_hal/common/mss_plic.h ****     PLIC_GPIO1_BIT14_or_GPIO2_BIT28_INT_OFFSET       = 28 + OFFSET_TO_MSS_GLOBAL_INTS,
 301:/home/vinay/Desktop/softconsole_watershed/Water-shed/src/platform/mpfs_hal/common/mss_plic.h ****     PLIC_GPIO1_BIT15_or_GPIO2_BIT29_INT_OFFSET       = 29 + OFFSET_TO_MSS_GLOBAL_INTS,
 302:/home/vinay/Desktop/softconsole_watershed/Water-shed/src/platform/mpfs_hal/common/mss_plic.h ****     PLIC_GPIO1_BIT16_or_GPIO2_BIT30_INT_OFFSET       = 30 + OFFSET_TO_MSS_GLOBAL_INTS,
 303:/home/vinay/Desktop/softconsole_watershed/Water-shed/src/platform/mpfs_hal/common/mss_plic.h ****     PLIC_GPIO1_BIT17_or_GPIO2_BIT31_INT_OFFSET       = 31 + OFFSET_TO_MSS_GLOBAL_INTS,
 304:/home/vinay/Desktop/softconsole_watershed/Water-shed/src/platform/mpfs_hal/common/mss_plic.h **** 
 305:/home/vinay/Desktop/softconsole_watershed/Water-shed/src/platform/mpfs_hal/common/mss_plic.h ****     PLIC_GPIO1_BIT18_INT_OFFSET           = 32 + OFFSET_TO_MSS_GLOBAL_INTS,
 306:/home/vinay/Desktop/softconsole_watershed/Water-shed/src/platform/mpfs_hal/common/mss_plic.h ****     PLIC_GPIO1_BIT19_INT_OFFSET           = 33 + OFFSET_TO_MSS_GLOBAL_INTS,
 307:/home/vinay/Desktop/softconsole_watershed/Water-shed/src/platform/mpfs_hal/common/mss_plic.h ****     PLIC_GPIO1_BIT20_INT_OFFSET           = 34 + OFFSET_TO_MSS_GLOBAL_INTS,
 308:/home/vinay/Desktop/softconsole_watershed/Water-shed/src/platform/mpfs_hal/common/mss_plic.h ****     PLIC_GPIO1_BIT21_INT_OFFSET           = 35 + OFFSET_TO_MSS_GLOBAL_INTS,
 309:/home/vinay/Desktop/softconsole_watershed/Water-shed/src/platform/mpfs_hal/common/mss_plic.h ****     PLIC_GPIO1_BIT22_INT_OFFSET           = 36 + OFFSET_TO_MSS_GLOBAL_INTS,
 310:/home/vinay/Desktop/softconsole_watershed/Water-shed/src/platform/mpfs_hal/common/mss_plic.h ****     PLIC_GPIO1_BIT23_INT_OFFSET           = 37 + OFFSET_TO_MSS_GLOBAL_INTS,
 311:/home/vinay/Desktop/softconsole_watershed/Water-shed/src/platform/mpfs_hal/common/mss_plic.h **** 
 312:/home/vinay/Desktop/softconsole_watershed/Water-shed/src/platform/mpfs_hal/common/mss_plic.h ****     PLIC_GPIO0_NON_DIRECT_INT_OFFSET         = 38 + OFFSET_TO_MSS_GLOBAL_INTS,
 313:/home/vinay/Desktop/softconsole_watershed/Water-shed/src/platform/mpfs_hal/common/mss_plic.h ****     PLIC_GPIO1_NON_DIRECT_INT_OFFSET         = 39 + OFFSET_TO_MSS_GLOBAL_INTS,
 314:/home/vinay/Desktop/softconsole_watershed/Water-shed/src/platform/mpfs_hal/common/mss_plic.h ****     PLIC_GPIO2_NON_DIRECT_INT_OFFSET         = 40 + OFFSET_TO_MSS_GLOBAL_INTS,
 315:/home/vinay/Desktop/softconsole_watershed/Water-shed/src/platform/mpfs_hal/common/mss_plic.h **** 
 316:/home/vinay/Desktop/softconsole_watershed/Water-shed/src/platform/mpfs_hal/common/mss_plic.h ****     PLIC_SPI0_INT_OFFSET                    = 41 + OFFSET_TO_MSS_GLOBAL_INTS,
 317:/home/vinay/Desktop/softconsole_watershed/Water-shed/src/platform/mpfs_hal/common/mss_plic.h ****     PLIC_SPI1_INT_OFFSET                    = 42 + OFFSET_TO_MSS_GLOBAL_INTS,
 318:/home/vinay/Desktop/softconsole_watershed/Water-shed/src/platform/mpfs_hal/common/mss_plic.h ****     PLIC_CAN0_INT_OFFSET                    = 43 + OFFSET_TO_MSS_GLOBAL_INTS,
 319:/home/vinay/Desktop/softconsole_watershed/Water-shed/src/platform/mpfs_hal/common/mss_plic.h ****     PLIC_CAN1_INT_OFFSET                    = 44 + OFFSET_TO_MSS_GLOBAL_INTS,
 320:/home/vinay/Desktop/softconsole_watershed/Water-shed/src/platform/mpfs_hal/common/mss_plic.h ****     PLIC_I2C0_MAIN_INT_OFFSET               = 45 + OFFSET_TO_MSS_GLOBAL_INTS,
 321:/home/vinay/Desktop/softconsole_watershed/Water-shed/src/platform/mpfs_hal/common/mss_plic.h ****     PLIC_I2C0_ALERT_INT_OFFSET              = 46 + OFFSET_TO_MSS_GLOBAL_INTS,
 322:/home/vinay/Desktop/softconsole_watershed/Water-shed/src/platform/mpfs_hal/common/mss_plic.h ****     PLIC_I2C0_SUS_INT_OFFSET                = 47 + OFFSET_TO_MSS_GLOBAL_INTS,
 323:/home/vinay/Desktop/softconsole_watershed/Water-shed/src/platform/mpfs_hal/common/mss_plic.h ****     PLIC_I2C1_MAIN_INT_OFFSET               = 48 + OFFSET_TO_MSS_GLOBAL_INTS,
 324:/home/vinay/Desktop/softconsole_watershed/Water-shed/src/platform/mpfs_hal/common/mss_plic.h ****     PLIC_I2C1_ALERT_INT_OFFSET              = 49 + OFFSET_TO_MSS_GLOBAL_INTS,
 325:/home/vinay/Desktop/softconsole_watershed/Water-shed/src/platform/mpfs_hal/common/mss_plic.h ****     PLIC_I2C1_SUS_INT_OFFSET                = 50 + OFFSET_TO_MSS_GLOBAL_INTS,
 326:/home/vinay/Desktop/softconsole_watershed/Water-shed/src/platform/mpfs_hal/common/mss_plic.h ****     PLIC_MAC0_INT_INT_OFFSET                = 51 + OFFSET_TO_MSS_GLOBAL_INTS,
 327:/home/vinay/Desktop/softconsole_watershed/Water-shed/src/platform/mpfs_hal/common/mss_plic.h ****     PLIC_MAC0_QUEUE1_INT_OFFSET             = 52 + OFFSET_TO_MSS_GLOBAL_INTS,
 328:/home/vinay/Desktop/softconsole_watershed/Water-shed/src/platform/mpfs_hal/common/mss_plic.h ****     PLIC_MAC0_QUEUE2_INT_OFFSET             = 53 + OFFSET_TO_MSS_GLOBAL_INTS,
 329:/home/vinay/Desktop/softconsole_watershed/Water-shed/src/platform/mpfs_hal/common/mss_plic.h ****     PLIC_MAC0_QUEUE3_INT_OFFSET             = 54 + OFFSET_TO_MSS_GLOBAL_INTS,
 330:/home/vinay/Desktop/softconsole_watershed/Water-shed/src/platform/mpfs_hal/common/mss_plic.h ****     PLIC_MAC0_EMAC_INT_OFFSET               = 55 + OFFSET_TO_MSS_GLOBAL_INTS,
 331:/home/vinay/Desktop/softconsole_watershed/Water-shed/src/platform/mpfs_hal/common/mss_plic.h ****     PLIC_MAC0_MMSL_INT_OFFSET               = 56 + OFFSET_TO_MSS_GLOBAL_INTS,
 332:/home/vinay/Desktop/softconsole_watershed/Water-shed/src/platform/mpfs_hal/common/mss_plic.h ****     PLIC_MAC1_INT_INT_OFFSET                = 57 + OFFSET_TO_MSS_GLOBAL_INTS,
 333:/home/vinay/Desktop/softconsole_watershed/Water-shed/src/platform/mpfs_hal/common/mss_plic.h ****     PLIC_MAC1_QUEUE1_INT_OFFSET             = 58 + OFFSET_TO_MSS_GLOBAL_INTS,
 334:/home/vinay/Desktop/softconsole_watershed/Water-shed/src/platform/mpfs_hal/common/mss_plic.h ****     PLIC_MAC1_QUEUE2_INT_OFFSET             = 59 + OFFSET_TO_MSS_GLOBAL_INTS,
 335:/home/vinay/Desktop/softconsole_watershed/Water-shed/src/platform/mpfs_hal/common/mss_plic.h ****     PLIC_MAC1_QUEUE3_INT_OFFSET             = 60 + OFFSET_TO_MSS_GLOBAL_INTS,
 336:/home/vinay/Desktop/softconsole_watershed/Water-shed/src/platform/mpfs_hal/common/mss_plic.h ****     PLIC_MAC1_EMAC_INT_OFFSET               = 61 + OFFSET_TO_MSS_GLOBAL_INTS,
 337:/home/vinay/Desktop/softconsole_watershed/Water-shed/src/platform/mpfs_hal/common/mss_plic.h ****     PLIC_MAC1_MMSL_INT_OFFSET               = 62 + OFFSET_TO_MSS_GLOBAL_INTS,
 338:/home/vinay/Desktop/softconsole_watershed/Water-shed/src/platform/mpfs_hal/common/mss_plic.h ****     PLIC_DDRC_TRAIN_INT_OFFSET              = 63 + OFFSET_TO_MSS_GLOBAL_INTS,
 339:/home/vinay/Desktop/softconsole_watershed/Water-shed/src/platform/mpfs_hal/common/mss_plic.h ****     PLIC_SCB_INTERRUPT_INT_OFFSET           = 64 + OFFSET_TO_MSS_GLOBAL_INTS,
 340:/home/vinay/Desktop/softconsole_watershed/Water-shed/src/platform/mpfs_hal/common/mss_plic.h ****     PLIC_ECC_ERROR_INT_OFFSET               = 65 + OFFSET_TO_MSS_GLOBAL_INTS,
 341:/home/vinay/Desktop/softconsole_watershed/Water-shed/src/platform/mpfs_hal/common/mss_plic.h ****     PLIC_ECC_CORRECT_INT_OFFSET             = 66 + OFFSET_TO_MSS_GLOBAL_INTS,
 342:/home/vinay/Desktop/softconsole_watershed/Water-shed/src/platform/mpfs_hal/common/mss_plic.h ****     PLIC_RTC_WAKEUP_INT_OFFSET              = 67 + OFFSET_TO_MSS_GLOBAL_INTS,
 343:/home/vinay/Desktop/softconsole_watershed/Water-shed/src/platform/mpfs_hal/common/mss_plic.h ****     PLIC_RTC_MATCH_INT_OFFSET               = 68 + OFFSET_TO_MSS_GLOBAL_INTS,
 344:/home/vinay/Desktop/softconsole_watershed/Water-shed/src/platform/mpfs_hal/common/mss_plic.h ****     PLIC_TIMER1_INT_OFFSET                  = 69 + OFFSET_TO_MSS_GLOBAL_INTS,
 345:/home/vinay/Desktop/softconsole_watershed/Water-shed/src/platform/mpfs_hal/common/mss_plic.h ****     PLIC_TIMER2_INT_OFFSET                  = 70 + OFFSET_TO_MSS_GLOBAL_INTS,
 346:/home/vinay/Desktop/softconsole_watershed/Water-shed/src/platform/mpfs_hal/common/mss_plic.h ****     PLIC_ENVM_INT_OFFSET                    = 71 + OFFSET_TO_MSS_GLOBAL_INTS,
 347:/home/vinay/Desktop/softconsole_watershed/Water-shed/src/platform/mpfs_hal/common/mss_plic.h ****     PLIC_QSPI_INT_OFFSET                    = 72 + OFFSET_TO_MSS_GLOBAL_INTS,
 348:/home/vinay/Desktop/softconsole_watershed/Water-shed/src/platform/mpfs_hal/common/mss_plic.h ****     PLIC_USB_DMA_INT_OFFSET                 = 73 + OFFSET_TO_MSS_GLOBAL_INTS,
 349:/home/vinay/Desktop/softconsole_watershed/Water-shed/src/platform/mpfs_hal/common/mss_plic.h ****     PLIC_USB_MC_INT_OFFSET                  = 74 + OFFSET_TO_MSS_GLOBAL_INTS,
 350:/home/vinay/Desktop/softconsole_watershed/Water-shed/src/platform/mpfs_hal/common/mss_plic.h ****     PLIC_MMC_main_INT_OFFSET                = 75 + OFFSET_TO_MSS_GLOBAL_INTS,
 351:/home/vinay/Desktop/softconsole_watershed/Water-shed/src/platform/mpfs_hal/common/mss_plic.h ****     PLIC_MMC_wakeup_INT_OFFSET              = 76 + OFFSET_TO_MSS_GLOBAL_INTS,
 352:/home/vinay/Desktop/softconsole_watershed/Water-shed/src/platform/mpfs_hal/common/mss_plic.h ****     PLIC_MMUART0_INT_OFFSET                 = 77 + OFFSET_TO_MSS_GLOBAL_INTS,
 353:/home/vinay/Desktop/softconsole_watershed/Water-shed/src/platform/mpfs_hal/common/mss_plic.h ****     PLIC_MMUART1_INT_OFFSET                 = 78 + OFFSET_TO_MSS_GLOBAL_INTS,
 354:/home/vinay/Desktop/softconsole_watershed/Water-shed/src/platform/mpfs_hal/common/mss_plic.h ****     PLIC_MMUART2_INT_OFFSET                 = 79 + OFFSET_TO_MSS_GLOBAL_INTS,
 355:/home/vinay/Desktop/softconsole_watershed/Water-shed/src/platform/mpfs_hal/common/mss_plic.h ****     PLIC_MMUART3_INT_OFFSET                 = 80 + OFFSET_TO_MSS_GLOBAL_INTS,
 356:/home/vinay/Desktop/softconsole_watershed/Water-shed/src/platform/mpfs_hal/common/mss_plic.h ****     PLIC_MMUART4_INT_OFFSET                 = 81 + OFFSET_TO_MSS_GLOBAL_INTS,
 357:/home/vinay/Desktop/softconsole_watershed/Water-shed/src/platform/mpfs_hal/common/mss_plic.h **** 
 358:/home/vinay/Desktop/softconsole_watershed/Water-shed/src/platform/mpfs_hal/common/mss_plic.h ****     G5C_DEVRST_INT_OFFSET              = 82 + OFFSET_TO_MSS_GLOBAL_INTS,
 359:/home/vinay/Desktop/softconsole_watershed/Water-shed/src/platform/mpfs_hal/common/mss_plic.h ****     g5c_MESSAGE_INT_OFFSET             = 83 + OFFSET_TO_MSS_GLOBAL_INTS,
 360:/home/vinay/Desktop/softconsole_watershed/Water-shed/src/platform/mpfs_hal/common/mss_plic.h ****     USOC_VC_INTERRUPT_INT_OFFSET       = 84 + OFFSET_TO_MSS_GLOBAL_INTS,
 361:/home/vinay/Desktop/softconsole_watershed/Water-shed/src/platform/mpfs_hal/common/mss_plic.h ****     USOC_SMB_INTERRUPT_INT_OFFSET      = 85 + OFFSET_TO_MSS_GLOBAL_INTS,
 362:/home/vinay/Desktop/softconsole_watershed/Water-shed/src/platform/mpfs_hal/common/mss_plic.h ****     /* contains multiple interrupts- */
 363:/home/vinay/Desktop/softconsole_watershed/Water-shed/src/platform/mpfs_hal/common/mss_plic.h ****     E51_0_MAINTENACE_INT_OFFSET        = 86 + OFFSET_TO_MSS_GLOBAL_INTS,
 364:/home/vinay/Desktop/softconsole_watershed/Water-shed/src/platform/mpfs_hal/common/mss_plic.h **** 
 365:/home/vinay/Desktop/softconsole_watershed/Water-shed/src/platform/mpfs_hal/common/mss_plic.h ****     PLIC_WDOG0_MRVP_INT_OFFSET              = 87 + OFFSET_TO_MSS_GLOBAL_INTS,
 366:/home/vinay/Desktop/softconsole_watershed/Water-shed/src/platform/mpfs_hal/common/mss_plic.h ****     PLIC_WDOG1_MRVP_INT_OFFSET              = 88 + OFFSET_TO_MSS_GLOBAL_INTS,
 367:/home/vinay/Desktop/softconsole_watershed/Water-shed/src/platform/mpfs_hal/common/mss_plic.h ****     PLIC_WDOG2_MRVP_INT_OFFSET              = 89 + OFFSET_TO_MSS_GLOBAL_INTS,
 368:/home/vinay/Desktop/softconsole_watershed/Water-shed/src/platform/mpfs_hal/common/mss_plic.h ****     PLIC_WDOG3_MRVP_INT_OFFSET              = 90 + OFFSET_TO_MSS_GLOBAL_INTS,
 369:/home/vinay/Desktop/softconsole_watershed/Water-shed/src/platform/mpfs_hal/common/mss_plic.h ****     PLIC_WDOG4_MRVP_INT_OFFSET              = 91 + OFFSET_TO_MSS_GLOBAL_INTS,
 370:/home/vinay/Desktop/softconsole_watershed/Water-shed/src/platform/mpfs_hal/common/mss_plic.h ****     PLIC_WDOG0_TOUT_INT_OFFSET              = 92 + OFFSET_TO_MSS_GLOBAL_INTS,
 371:/home/vinay/Desktop/softconsole_watershed/Water-shed/src/platform/mpfs_hal/common/mss_plic.h ****     PLIC_WDOG1_TOUT_INT_OFFSET              = 93 + OFFSET_TO_MSS_GLOBAL_INTS,
 372:/home/vinay/Desktop/softconsole_watershed/Water-shed/src/platform/mpfs_hal/common/mss_plic.h ****     PLIC_WDOG2_TOUT_INT_OFFSET              = 94 + OFFSET_TO_MSS_GLOBAL_INTS,
 373:/home/vinay/Desktop/softconsole_watershed/Water-shed/src/platform/mpfs_hal/common/mss_plic.h ****     PLIC_WDOG3_TOUT_INT_OFFSET              = 95 + OFFSET_TO_MSS_GLOBAL_INTS,
 374:/home/vinay/Desktop/softconsole_watershed/Water-shed/src/platform/mpfs_hal/common/mss_plic.h ****     PLIC_WDOG4_TOUT_INT_OFFSET              = 96 + OFFSET_TO_MSS_GLOBAL_INTS,
 375:/home/vinay/Desktop/softconsole_watershed/Water-shed/src/platform/mpfs_hal/common/mss_plic.h ****     G5C_MSS_SPI_INT_OFFSET             = 97 + OFFSET_TO_MSS_GLOBAL_INTS,
 376:/home/vinay/Desktop/softconsole_watershed/Water-shed/src/platform/mpfs_hal/common/mss_plic.h ****     VOLT_TEMP_ALARM_INT_OFFSET         = 98 + OFFSET_TO_MSS_GLOBAL_INTS,
 377:/home/vinay/Desktop/softconsole_watershed/Water-shed/src/platform/mpfs_hal/common/mss_plic.h ****     ATHENA_COMPLETE_INT_OFFSET         = 99 + OFFSET_TO_MSS_GLOBAL_INTS,
 378:/home/vinay/Desktop/softconsole_watershed/Water-shed/src/platform/mpfs_hal/common/mss_plic.h ****     ATHENA_ALARM_INT_OFFSET            = 100 + OFFSET_TO_MSS_GLOBAL_INTS,
 379:/home/vinay/Desktop/softconsole_watershed/Water-shed/src/platform/mpfs_hal/common/mss_plic.h ****     ATHENA_BUS_ERROR_INT_OFFSET        = 101 + OFFSET_TO_MSS_GLOBAL_INTS,
 380:/home/vinay/Desktop/softconsole_watershed/Water-shed/src/platform/mpfs_hal/common/mss_plic.h ****     USOC_AXIC_US_INT_OFFSET            = 102 + OFFSET_TO_MSS_GLOBAL_INTS,
 381:/home/vinay/Desktop/softconsole_watershed/Water-shed/src/platform/mpfs_hal/common/mss_plic.h ****     USOC_AXIC_DS_INT_OFFSET            = 103 + OFFSET_TO_MSS_GLOBAL_INTS,
 382:/home/vinay/Desktop/softconsole_watershed/Water-shed/src/platform/mpfs_hal/common/mss_plic.h **** 
 383:/home/vinay/Desktop/softconsole_watershed/Water-shed/src/platform/mpfs_hal/common/mss_plic.h ****     PLIC_F2M_0_INT_OFFSET            = 105 + OFFSET_TO_MSS_GLOBAL_INTS,
 384:/home/vinay/Desktop/softconsole_watershed/Water-shed/src/platform/mpfs_hal/common/mss_plic.h ****     PLIC_F2M_1_INT_OFFSET            = 106 + OFFSET_TO_MSS_GLOBAL_INTS,
 385:/home/vinay/Desktop/softconsole_watershed/Water-shed/src/platform/mpfs_hal/common/mss_plic.h ****     PLIC_F2M_2_INT_OFFSET            = 107 + OFFSET_TO_MSS_GLOBAL_INTS,
 386:/home/vinay/Desktop/softconsole_watershed/Water-shed/src/platform/mpfs_hal/common/mss_plic.h ****     PLIC_F2M_3_INT_OFFSET            = 108 + OFFSET_TO_MSS_GLOBAL_INTS,
 387:/home/vinay/Desktop/softconsole_watershed/Water-shed/src/platform/mpfs_hal/common/mss_plic.h ****     PLIC_F2M_4_INT_OFFSET            = 109 + OFFSET_TO_MSS_GLOBAL_INTS,
 388:/home/vinay/Desktop/softconsole_watershed/Water-shed/src/platform/mpfs_hal/common/mss_plic.h ****     PLIC_F2M_5_INT_OFFSET            = 110 + OFFSET_TO_MSS_GLOBAL_INTS,
 389:/home/vinay/Desktop/softconsole_watershed/Water-shed/src/platform/mpfs_hal/common/mss_plic.h ****     PLIC_F2M_6_INT_OFFSET            = 111 + OFFSET_TO_MSS_GLOBAL_INTS,
 390:/home/vinay/Desktop/softconsole_watershed/Water-shed/src/platform/mpfs_hal/common/mss_plic.h ****     PLIC_F2M_7_INT_OFFSET            = 112 + OFFSET_TO_MSS_GLOBAL_INTS,
 391:/home/vinay/Desktop/softconsole_watershed/Water-shed/src/platform/mpfs_hal/common/mss_plic.h ****     PLIC_F2M_8_INT_OFFSET            = 113 + OFFSET_TO_MSS_GLOBAL_INTS,
 392:/home/vinay/Desktop/softconsole_watershed/Water-shed/src/platform/mpfs_hal/common/mss_plic.h ****     PLIC_F2M_9_INT_OFFSET            = 114 + OFFSET_TO_MSS_GLOBAL_INTS,
 393:/home/vinay/Desktop/softconsole_watershed/Water-shed/src/platform/mpfs_hal/common/mss_plic.h **** 
 394:/home/vinay/Desktop/softconsole_watershed/Water-shed/src/platform/mpfs_hal/common/mss_plic.h ****     PLIC_F2M_10_INT_OFFSET           = 115 + OFFSET_TO_MSS_GLOBAL_INTS,
 395:/home/vinay/Desktop/softconsole_watershed/Water-shed/src/platform/mpfs_hal/common/mss_plic.h ****     PLIC_F2M_11_INT_OFFSET           = 116 + OFFSET_TO_MSS_GLOBAL_INTS,
 396:/home/vinay/Desktop/softconsole_watershed/Water-shed/src/platform/mpfs_hal/common/mss_plic.h ****     PLIC_F2M_12_INT_OFFSET           = 117 + OFFSET_TO_MSS_GLOBAL_INTS,
 397:/home/vinay/Desktop/softconsole_watershed/Water-shed/src/platform/mpfs_hal/common/mss_plic.h ****     PLIC_F2M_13_INT_OFFSET           = 118 + OFFSET_TO_MSS_GLOBAL_INTS,
 398:/home/vinay/Desktop/softconsole_watershed/Water-shed/src/platform/mpfs_hal/common/mss_plic.h ****     PLIC_F2M_14_INT_OFFSET           = 119 + OFFSET_TO_MSS_GLOBAL_INTS,
 399:/home/vinay/Desktop/softconsole_watershed/Water-shed/src/platform/mpfs_hal/common/mss_plic.h ****     PLIC_F2M_15_INT_OFFSET           = 120 + OFFSET_TO_MSS_GLOBAL_INTS,
 400:/home/vinay/Desktop/softconsole_watershed/Water-shed/src/platform/mpfs_hal/common/mss_plic.h ****     PLIC_F2M_16_INT_OFFSET           = 121 + OFFSET_TO_MSS_GLOBAL_INTS,
 401:/home/vinay/Desktop/softconsole_watershed/Water-shed/src/platform/mpfs_hal/common/mss_plic.h ****     PLIC_F2M_17_INT_OFFSET           = 122 + OFFSET_TO_MSS_GLOBAL_INTS,
 402:/home/vinay/Desktop/softconsole_watershed/Water-shed/src/platform/mpfs_hal/common/mss_plic.h ****     PLIC_F2M_18_INT_OFFSET           = 123 + OFFSET_TO_MSS_GLOBAL_INTS,
 403:/home/vinay/Desktop/softconsole_watershed/Water-shed/src/platform/mpfs_hal/common/mss_plic.h ****     PLIC_F2M_19_INT_OFFSET           = 124 + OFFSET_TO_MSS_GLOBAL_INTS,
 404:/home/vinay/Desktop/softconsole_watershed/Water-shed/src/platform/mpfs_hal/common/mss_plic.h **** 
 405:/home/vinay/Desktop/softconsole_watershed/Water-shed/src/platform/mpfs_hal/common/mss_plic.h ****     PLIC_F2M_20_INT_OFFSET           = 125 + OFFSET_TO_MSS_GLOBAL_INTS,
 406:/home/vinay/Desktop/softconsole_watershed/Water-shed/src/platform/mpfs_hal/common/mss_plic.h ****     PLIC_F2M_21_INT_OFFSET           = 126 + OFFSET_TO_MSS_GLOBAL_INTS,
 407:/home/vinay/Desktop/softconsole_watershed/Water-shed/src/platform/mpfs_hal/common/mss_plic.h ****     PLIC_F2M_22_INT_OFFSET           = 127 + OFFSET_TO_MSS_GLOBAL_INTS,
 408:/home/vinay/Desktop/softconsole_watershed/Water-shed/src/platform/mpfs_hal/common/mss_plic.h ****     PLIC_F2M_23_INT_OFFSET           = 128 + OFFSET_TO_MSS_GLOBAL_INTS,
 409:/home/vinay/Desktop/softconsole_watershed/Water-shed/src/platform/mpfs_hal/common/mss_plic.h ****     PLIC_F2M_24_INT_OFFSET           = 129 + OFFSET_TO_MSS_GLOBAL_INTS,
 410:/home/vinay/Desktop/softconsole_watershed/Water-shed/src/platform/mpfs_hal/common/mss_plic.h ****     PLIC_F2M_25_INT_OFFSET           = 130 + OFFSET_TO_MSS_GLOBAL_INTS,
 411:/home/vinay/Desktop/softconsole_watershed/Water-shed/src/platform/mpfs_hal/common/mss_plic.h ****     PLIC_F2M_26_INT_OFFSET           = 131 + OFFSET_TO_MSS_GLOBAL_INTS,
 412:/home/vinay/Desktop/softconsole_watershed/Water-shed/src/platform/mpfs_hal/common/mss_plic.h ****     PLIC_F2M_27_INT_OFFSET           = 132 + OFFSET_TO_MSS_GLOBAL_INTS,
 413:/home/vinay/Desktop/softconsole_watershed/Water-shed/src/platform/mpfs_hal/common/mss_plic.h ****     PLIC_F2M_28_INT_OFFSET           = 133 + OFFSET_TO_MSS_GLOBAL_INTS,
 414:/home/vinay/Desktop/softconsole_watershed/Water-shed/src/platform/mpfs_hal/common/mss_plic.h ****     PLIC_F2M_29_INT_OFFSET           = 134 + OFFSET_TO_MSS_GLOBAL_INTS,
 415:/home/vinay/Desktop/softconsole_watershed/Water-shed/src/platform/mpfs_hal/common/mss_plic.h **** 
 416:/home/vinay/Desktop/softconsole_watershed/Water-shed/src/platform/mpfs_hal/common/mss_plic.h ****     PLIC_F2M_30_INT_OFFSET           = 135 + OFFSET_TO_MSS_GLOBAL_INTS,
 417:/home/vinay/Desktop/softconsole_watershed/Water-shed/src/platform/mpfs_hal/common/mss_plic.h ****     PLIC_F2M_31_INT_OFFSET           = 136 + OFFSET_TO_MSS_GLOBAL_INTS,
 418:/home/vinay/Desktop/softconsole_watershed/Water-shed/src/platform/mpfs_hal/common/mss_plic.h **** 
 419:/home/vinay/Desktop/softconsole_watershed/Water-shed/src/platform/mpfs_hal/common/mss_plic.h ****     PLIC_F2M_32_INT_OFFSET           = 137 + OFFSET_TO_MSS_GLOBAL_INTS,
 420:/home/vinay/Desktop/softconsole_watershed/Water-shed/src/platform/mpfs_hal/common/mss_plic.h ****     PLIC_F2M_33_INT_OFFSET           = 138 + OFFSET_TO_MSS_GLOBAL_INTS,
 421:/home/vinay/Desktop/softconsole_watershed/Water-shed/src/platform/mpfs_hal/common/mss_plic.h ****     PLIC_F2M_34_INT_OFFSET           = 139 + OFFSET_TO_MSS_GLOBAL_INTS,
 422:/home/vinay/Desktop/softconsole_watershed/Water-shed/src/platform/mpfs_hal/common/mss_plic.h ****     PLIC_F2M_35_INT_OFFSET           = 140 + OFFSET_TO_MSS_GLOBAL_INTS,
 423:/home/vinay/Desktop/softconsole_watershed/Water-shed/src/platform/mpfs_hal/common/mss_plic.h ****     PLIC_F2M_36_INT_OFFSET           = 141 + OFFSET_TO_MSS_GLOBAL_INTS,
 424:/home/vinay/Desktop/softconsole_watershed/Water-shed/src/platform/mpfs_hal/common/mss_plic.h ****     PLIC_F2M_37_INT_OFFSET           = 142 + OFFSET_TO_MSS_GLOBAL_INTS,
 425:/home/vinay/Desktop/softconsole_watershed/Water-shed/src/platform/mpfs_hal/common/mss_plic.h ****     PLIC_F2M_38_INT_OFFSET           = 143 + OFFSET_TO_MSS_GLOBAL_INTS,
 426:/home/vinay/Desktop/softconsole_watershed/Water-shed/src/platform/mpfs_hal/common/mss_plic.h ****     PLIC_F2M_39_INT_OFFSET           = 144 + OFFSET_TO_MSS_GLOBAL_INTS,
 427:/home/vinay/Desktop/softconsole_watershed/Water-shed/src/platform/mpfs_hal/common/mss_plic.h ****     PLIC_F2M_40_INT_OFFSET           = 145 + OFFSET_TO_MSS_GLOBAL_INTS,
 428:/home/vinay/Desktop/softconsole_watershed/Water-shed/src/platform/mpfs_hal/common/mss_plic.h ****     PLIC_F2M_41_INT_OFFSET           = 146 + OFFSET_TO_MSS_GLOBAL_INTS,
 429:/home/vinay/Desktop/softconsole_watershed/Water-shed/src/platform/mpfs_hal/common/mss_plic.h **** 
 430:/home/vinay/Desktop/softconsole_watershed/Water-shed/src/platform/mpfs_hal/common/mss_plic.h ****     PLIC_F2M_42_INT_OFFSET           = 147 + OFFSET_TO_MSS_GLOBAL_INTS,
 431:/home/vinay/Desktop/softconsole_watershed/Water-shed/src/platform/mpfs_hal/common/mss_plic.h ****     PLIC_F2M_43_INT_OFFSET           = 148 + OFFSET_TO_MSS_GLOBAL_INTS,
 432:/home/vinay/Desktop/softconsole_watershed/Water-shed/src/platform/mpfs_hal/common/mss_plic.h ****     PLIC_F2M_44_INT_OFFSET           = 149 + OFFSET_TO_MSS_GLOBAL_INTS,
 433:/home/vinay/Desktop/softconsole_watershed/Water-shed/src/platform/mpfs_hal/common/mss_plic.h ****     PLIC_F2M_45_INT_OFFSET           = 150 + OFFSET_TO_MSS_GLOBAL_INTS,
 434:/home/vinay/Desktop/softconsole_watershed/Water-shed/src/platform/mpfs_hal/common/mss_plic.h ****     PLIC_F2M_46_INT_OFFSET           = 151 + OFFSET_TO_MSS_GLOBAL_INTS,
 435:/home/vinay/Desktop/softconsole_watershed/Water-shed/src/platform/mpfs_hal/common/mss_plic.h ****     PLIC_F2M_47_INT_OFFSET           = 152 + OFFSET_TO_MSS_GLOBAL_INTS,
 436:/home/vinay/Desktop/softconsole_watershed/Water-shed/src/platform/mpfs_hal/common/mss_plic.h ****     PLIC_F2M_48_INT_OFFSET           = 153 + OFFSET_TO_MSS_GLOBAL_INTS,
 437:/home/vinay/Desktop/softconsole_watershed/Water-shed/src/platform/mpfs_hal/common/mss_plic.h ****     PLIC_F2M_49_INT_OFFSET           = 154 + OFFSET_TO_MSS_GLOBAL_INTS,
 438:/home/vinay/Desktop/softconsole_watershed/Water-shed/src/platform/mpfs_hal/common/mss_plic.h ****     PLIC_F2M_50_INT_OFFSET           = 155 + OFFSET_TO_MSS_GLOBAL_INTS,
 439:/home/vinay/Desktop/softconsole_watershed/Water-shed/src/platform/mpfs_hal/common/mss_plic.h ****     PLIC_F2M_51_INT_OFFSET           = 156 + OFFSET_TO_MSS_GLOBAL_INTS,
 440:/home/vinay/Desktop/softconsole_watershed/Water-shed/src/platform/mpfs_hal/common/mss_plic.h **** 
 441:/home/vinay/Desktop/softconsole_watershed/Water-shed/src/platform/mpfs_hal/common/mss_plic.h ****     PLIC_F2M_52_INT_OFFSET           = 157 + OFFSET_TO_MSS_GLOBAL_INTS,
 442:/home/vinay/Desktop/softconsole_watershed/Water-shed/src/platform/mpfs_hal/common/mss_plic.h ****     PLIC_F2M_53_INT_OFFSET           = 158 + OFFSET_TO_MSS_GLOBAL_INTS,
 443:/home/vinay/Desktop/softconsole_watershed/Water-shed/src/platform/mpfs_hal/common/mss_plic.h ****     PLIC_F2M_54_INT_OFFSET           = 159 + OFFSET_TO_MSS_GLOBAL_INTS,
 444:/home/vinay/Desktop/softconsole_watershed/Water-shed/src/platform/mpfs_hal/common/mss_plic.h ****     PLIC_F2M_55_INT_OFFSET           = 160 + OFFSET_TO_MSS_GLOBAL_INTS,
 445:/home/vinay/Desktop/softconsole_watershed/Water-shed/src/platform/mpfs_hal/common/mss_plic.h ****     PLIC_F2M_56_INT_OFFSET           = 161 + OFFSET_TO_MSS_GLOBAL_INTS,
 446:/home/vinay/Desktop/softconsole_watershed/Water-shed/src/platform/mpfs_hal/common/mss_plic.h ****     PLIC_F2M_57_INT_OFFSET           = 162 + OFFSET_TO_MSS_GLOBAL_INTS,
 447:/home/vinay/Desktop/softconsole_watershed/Water-shed/src/platform/mpfs_hal/common/mss_plic.h ****     PLIC_F2M_58_INT_OFFSET           = 163 + OFFSET_TO_MSS_GLOBAL_INTS,
 448:/home/vinay/Desktop/softconsole_watershed/Water-shed/src/platform/mpfs_hal/common/mss_plic.h ****     PLIC_F2M_59_INT_OFFSET           = 164 + OFFSET_TO_MSS_GLOBAL_INTS,
 449:/home/vinay/Desktop/softconsole_watershed/Water-shed/src/platform/mpfs_hal/common/mss_plic.h ****     PLIC_F2M_60_INT_OFFSET           = 165 + OFFSET_TO_MSS_GLOBAL_INTS,
 450:/home/vinay/Desktop/softconsole_watershed/Water-shed/src/platform/mpfs_hal/common/mss_plic.h ****     PLIC_F2M_61_INT_OFFSET           = 166 + OFFSET_TO_MSS_GLOBAL_INTS,
 451:/home/vinay/Desktop/softconsole_watershed/Water-shed/src/platform/mpfs_hal/common/mss_plic.h **** 
 452:/home/vinay/Desktop/softconsole_watershed/Water-shed/src/platform/mpfs_hal/common/mss_plic.h ****     PLIC_F2M_62_INT_OFFSET           = 167 + OFFSET_TO_MSS_GLOBAL_INTS,
 453:/home/vinay/Desktop/softconsole_watershed/Water-shed/src/platform/mpfs_hal/common/mss_plic.h ****     PLIC_F2M_63_INT_OFFSET           = 168 + OFFSET_TO_MSS_GLOBAL_INTS,
 454:/home/vinay/Desktop/softconsole_watershed/Water-shed/src/platform/mpfs_hal/common/mss_plic.h **** 
 455:/home/vinay/Desktop/softconsole_watershed/Water-shed/src/platform/mpfs_hal/common/mss_plic.h ****     PLIC_E51_BUS_ERROR_UNIT_OFFSET        = 182,
 456:/home/vinay/Desktop/softconsole_watershed/Water-shed/src/platform/mpfs_hal/common/mss_plic.h ****     PLIC_U54_1_BUS_ERROR_UNIT_OFFSET      = 183,
 457:/home/vinay/Desktop/softconsole_watershed/Water-shed/src/platform/mpfs_hal/common/mss_plic.h ****     PLIC_U54_2_BUS_ERROR_UNIT_OFFSET      = 184,
 458:/home/vinay/Desktop/softconsole_watershed/Water-shed/src/platform/mpfs_hal/common/mss_plic.h ****     PLIC_U54_3_BUS_ERROR_UNIT_OFFSET      = 185,
 459:/home/vinay/Desktop/softconsole_watershed/Water-shed/src/platform/mpfs_hal/common/mss_plic.h ****     PLIC_U54_4_BUS_ERROR_UNIT_OFFSET      = 186
 460:/home/vinay/Desktop/softconsole_watershed/Water-shed/src/platform/mpfs_hal/common/mss_plic.h **** 
 461:/home/vinay/Desktop/softconsole_watershed/Water-shed/src/platform/mpfs_hal/common/mss_plic.h **** } PLIC_IRQn_Type;
 462:/home/vinay/Desktop/softconsole_watershed/Water-shed/src/platform/mpfs_hal/common/mss_plic.h **** 
 463:/home/vinay/Desktop/softconsole_watershed/Water-shed/src/platform/mpfs_hal/common/mss_plic.h **** #define MAX_PLIC_INT PLIC_U54_4_BUS_ERROR_UNIT_OFFSET
 464:/home/vinay/Desktop/softconsole_watershed/Water-shed/src/platform/mpfs_hal/common/mss_plic.h **** 
 465:/home/vinay/Desktop/softconsole_watershed/Water-shed/src/platform/mpfs_hal/common/mss_plic.h **** typedef struct
 466:/home/vinay/Desktop/softconsole_watershed/Water-shed/src/platform/mpfs_hal/common/mss_plic.h **** {
 467:/home/vinay/Desktop/softconsole_watershed/Water-shed/src/platform/mpfs_hal/common/mss_plic.h ****     volatile uint32_t PRIORITY_THRESHOLD;
 468:/home/vinay/Desktop/softconsole_watershed/Water-shed/src/platform/mpfs_hal/common/mss_plic.h ****     volatile uint32_t CLAIM_COMPLETE;
 469:/home/vinay/Desktop/softconsole_watershed/Water-shed/src/platform/mpfs_hal/common/mss_plic.h ****     volatile uint32_t reserved[(0x1000/4)-2];
 470:/home/vinay/Desktop/softconsole_watershed/Water-shed/src/platform/mpfs_hal/common/mss_plic.h **** } IRQ_Target_Type;
 471:/home/vinay/Desktop/softconsole_watershed/Water-shed/src/platform/mpfs_hal/common/mss_plic.h **** 
 472:/home/vinay/Desktop/softconsole_watershed/Water-shed/src/platform/mpfs_hal/common/mss_plic.h **** typedef struct
 473:/home/vinay/Desktop/softconsole_watershed/Water-shed/src/platform/mpfs_hal/common/mss_plic.h **** {
 474:/home/vinay/Desktop/softconsole_watershed/Water-shed/src/platform/mpfs_hal/common/mss_plic.h ****     volatile uint32_t ENABLES[32U];
 475:/home/vinay/Desktop/softconsole_watershed/Water-shed/src/platform/mpfs_hal/common/mss_plic.h **** } Target_Enables_Type;
 476:/home/vinay/Desktop/softconsole_watershed/Water-shed/src/platform/mpfs_hal/common/mss_plic.h **** 
 477:/home/vinay/Desktop/softconsole_watershed/Water-shed/src/platform/mpfs_hal/common/mss_plic.h **** 
 478:/home/vinay/Desktop/softconsole_watershed/Water-shed/src/platform/mpfs_hal/common/mss_plic.h **** #define PLIC_SET_UP_REGISTERS 6U
 479:/home/vinay/Desktop/softconsole_watershed/Water-shed/src/platform/mpfs_hal/common/mss_plic.h **** 
 480:/home/vinay/Desktop/softconsole_watershed/Water-shed/src/platform/mpfs_hal/common/mss_plic.h **** #define PLIC_NUM_SOURCES 187U
 481:/home/vinay/Desktop/softconsole_watershed/Water-shed/src/platform/mpfs_hal/common/mss_plic.h **** 
 482:/home/vinay/Desktop/softconsole_watershed/Water-shed/src/platform/mpfs_hal/common/mss_plic.h **** #define PLIC_NUM_PRIORITIES 7U
 483:/home/vinay/Desktop/softconsole_watershed/Water-shed/src/platform/mpfs_hal/common/mss_plic.h **** #define NUM_CLAIM_REGS      9U
 484:/home/vinay/Desktop/softconsole_watershed/Water-shed/src/platform/mpfs_hal/common/mss_plic.h **** 
 485:/home/vinay/Desktop/softconsole_watershed/Water-shed/src/platform/mpfs_hal/common/mss_plic.h **** 
 486:/home/vinay/Desktop/softconsole_watershed/Water-shed/src/platform/mpfs_hal/common/mss_plic.h **** /* The FU540-C000 has 53 interrupt sources. */
 487:/home/vinay/Desktop/softconsole_watershed/Water-shed/src/platform/mpfs_hal/common/mss_plic.h ****  typedef struct
 488:/home/vinay/Desktop/softconsole_watershed/Water-shed/src/platform/mpfs_hal/common/mss_plic.h **** {
 489:/home/vinay/Desktop/softconsole_watershed/Water-shed/src/platform/mpfs_hal/common/mss_plic.h ****     volatile uint32_t RESERVED0;
 490:/home/vinay/Desktop/softconsole_watershed/Water-shed/src/platform/mpfs_hal/common/mss_plic.h ****     /*-------------------- Source Priority --------------------*/
 491:/home/vinay/Desktop/softconsole_watershed/Water-shed/src/platform/mpfs_hal/common/mss_plic.h ****     volatile uint32_t SOURCE_PRIORITY[PLIC_NUM_SOURCES];
 492:/home/vinay/Desktop/softconsole_watershed/Water-shed/src/platform/mpfs_hal/common/mss_plic.h ****     volatile uint32_t RESERVED1[(0x1000 / 4) - (PLIC_NUM_SOURCES + 1)];
 493:/home/vinay/Desktop/softconsole_watershed/Water-shed/src/platform/mpfs_hal/common/mss_plic.h ****     /*-------------------- Pending array --------------------*/
 494:/home/vinay/Desktop/softconsole_watershed/Water-shed/src/platform/mpfs_hal/common/mss_plic.h ****     volatile const uint32_t PENDING_ARRAY[PLIC_SET_UP_REGISTERS];
 495:/home/vinay/Desktop/softconsole_watershed/Water-shed/src/platform/mpfs_hal/common/mss_plic.h ****     volatile uint32_t RESERVED2[(0x1000/4) - PLIC_SET_UP_REGISTERS];
 496:/home/vinay/Desktop/softconsole_watershed/Water-shed/src/platform/mpfs_hal/common/mss_plic.h **** 
 497:/home/vinay/Desktop/softconsole_watershed/Water-shed/src/platform/mpfs_hal/common/mss_plic.h ****     /*-----------------Hart0 Mode Enables--------------------*/
 498:/home/vinay/Desktop/softconsole_watershed/Water-shed/src/platform/mpfs_hal/common/mss_plic.h ****     volatile uint32_t HART0_MMODE_ENA[PLIC_SET_UP_REGISTERS];
 499:/home/vinay/Desktop/softconsole_watershed/Water-shed/src/platform/mpfs_hal/common/mss_plic.h ****     volatile uint32_t RESERVED3[(0x80/4) - PLIC_SET_UP_REGISTERS];
 500:/home/vinay/Desktop/softconsole_watershed/Water-shed/src/platform/mpfs_hal/common/mss_plic.h **** 
 501:/home/vinay/Desktop/softconsole_watershed/Water-shed/src/platform/mpfs_hal/common/mss_plic.h ****     /*-----------------Hart1 Mode Enables--------------------*/
 502:/home/vinay/Desktop/softconsole_watershed/Water-shed/src/platform/mpfs_hal/common/mss_plic.h ****     volatile uint32_t HART1_MMODE_ENA[PLIC_SET_UP_REGISTERS];
 503:/home/vinay/Desktop/softconsole_watershed/Water-shed/src/platform/mpfs_hal/common/mss_plic.h ****     volatile uint32_t RESERVED4a[(0x80/4) - PLIC_SET_UP_REGISTERS];
 504:/home/vinay/Desktop/softconsole_watershed/Water-shed/src/platform/mpfs_hal/common/mss_plic.h ****     volatile uint32_t HART1_SMODE_ENA[PLIC_SET_UP_REGISTERS];
 505:/home/vinay/Desktop/softconsole_watershed/Water-shed/src/platform/mpfs_hal/common/mss_plic.h ****     volatile uint32_t RESERVED4[(0x80/4) - PLIC_SET_UP_REGISTERS];
 506:/home/vinay/Desktop/softconsole_watershed/Water-shed/src/platform/mpfs_hal/common/mss_plic.h **** 
 507:/home/vinay/Desktop/softconsole_watershed/Water-shed/src/platform/mpfs_hal/common/mss_plic.h ****     /*-----------------Hart2 Mode Enables--------------------*/
 508:/home/vinay/Desktop/softconsole_watershed/Water-shed/src/platform/mpfs_hal/common/mss_plic.h ****     volatile uint32_t HART2_MMODE_ENA[PLIC_SET_UP_REGISTERS];
 509:/home/vinay/Desktop/softconsole_watershed/Water-shed/src/platform/mpfs_hal/common/mss_plic.h ****     volatile uint32_t RESERVED5a[(0x80/4) - PLIC_SET_UP_REGISTERS];
 510:/home/vinay/Desktop/softconsole_watershed/Water-shed/src/platform/mpfs_hal/common/mss_plic.h ****     volatile uint32_t HART2_SMODE_ENA[PLIC_SET_UP_REGISTERS];
 511:/home/vinay/Desktop/softconsole_watershed/Water-shed/src/platform/mpfs_hal/common/mss_plic.h ****     volatile uint32_t RESERVED5[(0x80/4) - PLIC_SET_UP_REGISTERS];
 512:/home/vinay/Desktop/softconsole_watershed/Water-shed/src/platform/mpfs_hal/common/mss_plic.h **** 
 513:/home/vinay/Desktop/softconsole_watershed/Water-shed/src/platform/mpfs_hal/common/mss_plic.h ****     /*-----------------Hart3 Mode Enables--------------------*/
 514:/home/vinay/Desktop/softconsole_watershed/Water-shed/src/platform/mpfs_hal/common/mss_plic.h ****     volatile uint32_t HART3_MMODE_ENA[PLIC_SET_UP_REGISTERS];
 515:/home/vinay/Desktop/softconsole_watershed/Water-shed/src/platform/mpfs_hal/common/mss_plic.h ****     volatile uint32_t RESERVED6a[(0x80/4) - PLIC_SET_UP_REGISTERS];
 516:/home/vinay/Desktop/softconsole_watershed/Water-shed/src/platform/mpfs_hal/common/mss_plic.h ****     volatile uint32_t HART3_SMODE_ENA[PLIC_SET_UP_REGISTERS];
 517:/home/vinay/Desktop/softconsole_watershed/Water-shed/src/platform/mpfs_hal/common/mss_plic.h ****     volatile uint32_t RESERVED6[(0x80/4) - PLIC_SET_UP_REGISTERS];
 518:/home/vinay/Desktop/softconsole_watershed/Water-shed/src/platform/mpfs_hal/common/mss_plic.h **** 
 519:/home/vinay/Desktop/softconsole_watershed/Water-shed/src/platform/mpfs_hal/common/mss_plic.h ****     /*-----------------Hart4 Mode Enables--------------------*/
 520:/home/vinay/Desktop/softconsole_watershed/Water-shed/src/platform/mpfs_hal/common/mss_plic.h ****     volatile uint32_t HART4_MMODE_ENA[PLIC_SET_UP_REGISTERS];
 521:/home/vinay/Desktop/softconsole_watershed/Water-shed/src/platform/mpfs_hal/common/mss_plic.h ****     volatile uint32_t RESERVED7a[(0x80/4) - PLIC_SET_UP_REGISTERS];
 522:/home/vinay/Desktop/softconsole_watershed/Water-shed/src/platform/mpfs_hal/common/mss_plic.h ****     volatile uint32_t HART4_SMODE_ENA[PLIC_SET_UP_REGISTERS];
 523:/home/vinay/Desktop/softconsole_watershed/Water-shed/src/platform/mpfs_hal/common/mss_plic.h ****     volatile uint32_t RESERVED7[(0x80/4) - PLIC_SET_UP_REGISTERS];
 524:/home/vinay/Desktop/softconsole_watershed/Water-shed/src/platform/mpfs_hal/common/mss_plic.h **** 
 525:/home/vinay/Desktop/softconsole_watershed/Water-shed/src/platform/mpfs_hal/common/mss_plic.h ****     volatile uint32_t RESERVED8[(0x0C200000 - 0x0C002480)/4];
 526:/home/vinay/Desktop/softconsole_watershed/Water-shed/src/platform/mpfs_hal/common/mss_plic.h **** 
 527:/home/vinay/Desktop/softconsole_watershed/Water-shed/src/platform/mpfs_hal/common/mss_plic.h ****     /*--- Target Priority threshold and claim/complete---------*/
 528:/home/vinay/Desktop/softconsole_watershed/Water-shed/src/platform/mpfs_hal/common/mss_plic.h ****     IRQ_Target_Type TARGET[NUM_CLAIM_REGS];   /* See PLIC Register Map or
 529:/home/vinay/Desktop/softconsole_watershed/Water-shed/src/platform/mpfs_hal/common/mss_plic.h ****                                                  TARGET_OFFSET defines below
 530:/home/vinay/Desktop/softconsole_watershed/Water-shed/src/platform/mpfs_hal/common/mss_plic.h ****                                                  for offset details */
 531:/home/vinay/Desktop/softconsole_watershed/Water-shed/src/platform/mpfs_hal/common/mss_plic.h **** 
 532:/home/vinay/Desktop/softconsole_watershed/Water-shed/src/platform/mpfs_hal/common/mss_plic.h **** } PLIC_Type;
 533:/home/vinay/Desktop/softconsole_watershed/Water-shed/src/platform/mpfs_hal/common/mss_plic.h **** 
 534:/home/vinay/Desktop/softconsole_watershed/Water-shed/src/platform/mpfs_hal/common/mss_plic.h **** #define TARGET_OFFSET_HART0_M 0U
 535:/home/vinay/Desktop/softconsole_watershed/Water-shed/src/platform/mpfs_hal/common/mss_plic.h **** #define TARGET_OFFSET_HART1_M 1U
 536:/home/vinay/Desktop/softconsole_watershed/Water-shed/src/platform/mpfs_hal/common/mss_plic.h **** #define TARGET_OFFSET_HART1_S 2U
 537:/home/vinay/Desktop/softconsole_watershed/Water-shed/src/platform/mpfs_hal/common/mss_plic.h **** #define TARGET_OFFSET_HART2_M 3U
 538:/home/vinay/Desktop/softconsole_watershed/Water-shed/src/platform/mpfs_hal/common/mss_plic.h **** #define TARGET_OFFSET_HART2_S 4U
 539:/home/vinay/Desktop/softconsole_watershed/Water-shed/src/platform/mpfs_hal/common/mss_plic.h **** #define TARGET_OFFSET_HART3_M 5U
 540:/home/vinay/Desktop/softconsole_watershed/Water-shed/src/platform/mpfs_hal/common/mss_plic.h **** #define TARGET_OFFSET_HART3_S 6U
 541:/home/vinay/Desktop/softconsole_watershed/Water-shed/src/platform/mpfs_hal/common/mss_plic.h **** #define TARGET_OFFSET_HART4_M 7U
 542:/home/vinay/Desktop/softconsole_watershed/Water-shed/src/platform/mpfs_hal/common/mss_plic.h **** #define TARGET_OFFSET_HART4_S 8U
 543:/home/vinay/Desktop/softconsole_watershed/Water-shed/src/platform/mpfs_hal/common/mss_plic.h **** 
 544:/home/vinay/Desktop/softconsole_watershed/Water-shed/src/platform/mpfs_hal/common/mss_plic.h **** extern const unsigned long plic_hart_lookup[5U];
 545:/home/vinay/Desktop/softconsole_watershed/Water-shed/src/platform/mpfs_hal/common/mss_plic.h **** 
 546:/home/vinay/Desktop/softconsole_watershed/Water-shed/src/platform/mpfs_hal/common/mss_plic.h **** /***************************************************************************//**
 547:/home/vinay/Desktop/softconsole_watershed/Water-shed/src/platform/mpfs_hal/common/mss_plic.h ****  * PLIC: Platform Level Interrupt Controller
 548:/home/vinay/Desktop/softconsole_watershed/Water-shed/src/platform/mpfs_hal/common/mss_plic.h ****  */
 549:/home/vinay/Desktop/softconsole_watershed/Water-shed/src/platform/mpfs_hal/common/mss_plic.h **** #define PLIC_BASE_ADDR 0x0C000000UL
 550:/home/vinay/Desktop/softconsole_watershed/Water-shed/src/platform/mpfs_hal/common/mss_plic.h **** 
 551:/home/vinay/Desktop/softconsole_watershed/Water-shed/src/platform/mpfs_hal/common/mss_plic.h **** #define PLIC    ((PLIC_Type * const)PLIC_BASE_ADDR)
 552:/home/vinay/Desktop/softconsole_watershed/Water-shed/src/platform/mpfs_hal/common/mss_plic.h **** 
 553:/home/vinay/Desktop/softconsole_watershed/Water-shed/src/platform/mpfs_hal/common/mss_plic.h **** /*-------------------------------------------------------------------------*//**
 554:/home/vinay/Desktop/softconsole_watershed/Water-shed/src/platform/mpfs_hal/common/mss_plic.h ****  * The function PLIC_init() initializes the PLIC controller and enables the
 555:/home/vinay/Desktop/softconsole_watershed/Water-shed/src/platform/mpfs_hal/common/mss_plic.h ****  * global external interrupt bit.
 556:/home/vinay/Desktop/softconsole_watershed/Water-shed/src/platform/mpfs_hal/common/mss_plic.h ****  */
 557:/home/vinay/Desktop/softconsole_watershed/Water-shed/src/platform/mpfs_hal/common/mss_plic.h **** 
 558:/home/vinay/Desktop/softconsole_watershed/Water-shed/src/platform/mpfs_hal/common/mss_plic.h **** /*-----------------Hart Mode Enables--------------------*/
 559:/home/vinay/Desktop/softconsole_watershed/Water-shed/src/platform/mpfs_hal/common/mss_plic.h **** 
 560:/home/vinay/Desktop/softconsole_watershed/Water-shed/src/platform/mpfs_hal/common/mss_plic.h **** static inline void PLIC_init(void)
 561:/home/vinay/Desktop/softconsole_watershed/Water-shed/src/platform/mpfs_hal/common/mss_plic.h **** {
 562:/home/vinay/Desktop/softconsole_watershed/Water-shed/src/platform/mpfs_hal/common/mss_plic.h ****     uint32_t inc;
 563:/home/vinay/Desktop/softconsole_watershed/Water-shed/src/platform/mpfs_hal/common/mss_plic.h ****     uint64_t hart_id  = read_csr(mhartid);
 564:/home/vinay/Desktop/softconsole_watershed/Water-shed/src/platform/mpfs_hal/common/mss_plic.h **** 
 565:/home/vinay/Desktop/softconsole_watershed/Water-shed/src/platform/mpfs_hal/common/mss_plic.h ****     /* Disable all interrupts for the current hart. */
 566:/home/vinay/Desktop/softconsole_watershed/Water-shed/src/platform/mpfs_hal/common/mss_plic.h ****     switch(hart_id)
 567:/home/vinay/Desktop/softconsole_watershed/Water-shed/src/platform/mpfs_hal/common/mss_plic.h ****     {
 568:/home/vinay/Desktop/softconsole_watershed/Water-shed/src/platform/mpfs_hal/common/mss_plic.h ****         case 0:
 569:/home/vinay/Desktop/softconsole_watershed/Water-shed/src/platform/mpfs_hal/common/mss_plic.h ****             for(inc = 0UL; inc < PLIC_SET_UP_REGISTERS; inc++)
 570:/home/vinay/Desktop/softconsole_watershed/Water-shed/src/platform/mpfs_hal/common/mss_plic.h ****             {
 571:/home/vinay/Desktop/softconsole_watershed/Water-shed/src/platform/mpfs_hal/common/mss_plic.h ****                 PLIC->HART0_MMODE_ENA[inc] = 0U;
 572:/home/vinay/Desktop/softconsole_watershed/Water-shed/src/platform/mpfs_hal/common/mss_plic.h ****             }
 573:/home/vinay/Desktop/softconsole_watershed/Water-shed/src/platform/mpfs_hal/common/mss_plic.h **** 
 574:/home/vinay/Desktop/softconsole_watershed/Water-shed/src/platform/mpfs_hal/common/mss_plic.h ****             /* Set the threshold to zero.
 575:/home/vinay/Desktop/softconsole_watershed/Water-shed/src/platform/mpfs_hal/common/mss_plic.h ****              * PLIC provides context based threshold register for the settings of a
 576:/home/vinay/Desktop/softconsole_watershed/Water-shed/src/platform/mpfs_hal/common/mss_plic.h ****              * interrupt priority threshold of each context. The threshold register
 577:/home/vinay/Desktop/softconsole_watershed/Water-shed/src/platform/mpfs_hal/common/mss_plic.h ****              * is a WARL field. The PLIC will mask all PLIC interrupts of a priority
 578:/home/vinay/Desktop/softconsole_watershed/Water-shed/src/platform/mpfs_hal/common/mss_plic.h ****              * less than or equal to threshold. For example, a threshold value of zero
 579:/home/vinay/Desktop/softconsole_watershed/Water-shed/src/platform/mpfs_hal/common/mss_plic.h ****              * permits all interrupts with non-zero priority.*/
 580:/home/vinay/Desktop/softconsole_watershed/Water-shed/src/platform/mpfs_hal/common/mss_plic.h **** 
 581:/home/vinay/Desktop/softconsole_watershed/Water-shed/src/platform/mpfs_hal/common/mss_plic.h ****             PLIC->TARGET[TARGET_OFFSET_HART0_M].PRIORITY_THRESHOLD  = 0U;
 582:/home/vinay/Desktop/softconsole_watershed/Water-shed/src/platform/mpfs_hal/common/mss_plic.h ****             break;
 583:/home/vinay/Desktop/softconsole_watershed/Water-shed/src/platform/mpfs_hal/common/mss_plic.h ****         case 1:
 584:/home/vinay/Desktop/softconsole_watershed/Water-shed/src/platform/mpfs_hal/common/mss_plic.h ****             for(inc = 0UL; inc < PLIC_SET_UP_REGISTERS; inc++)
 585:/home/vinay/Desktop/softconsole_watershed/Water-shed/src/platform/mpfs_hal/common/mss_plic.h ****             {
 586:/home/vinay/Desktop/softconsole_watershed/Water-shed/src/platform/mpfs_hal/common/mss_plic.h ****                 PLIC->HART1_MMODE_ENA[inc] = 0U;
 587:/home/vinay/Desktop/softconsole_watershed/Water-shed/src/platform/mpfs_hal/common/mss_plic.h ****                 PLIC->HART1_SMODE_ENA[inc] = 0U;
 588:/home/vinay/Desktop/softconsole_watershed/Water-shed/src/platform/mpfs_hal/common/mss_plic.h ****             }
 589:/home/vinay/Desktop/softconsole_watershed/Water-shed/src/platform/mpfs_hal/common/mss_plic.h **** 
 590:/home/vinay/Desktop/softconsole_watershed/Water-shed/src/platform/mpfs_hal/common/mss_plic.h ****             PLIC->TARGET[TARGET_OFFSET_HART1_M].PRIORITY_THRESHOLD  = 0U;
 591:/home/vinay/Desktop/softconsole_watershed/Water-shed/src/platform/mpfs_hal/common/mss_plic.h ****             /* Disable supervisor level */
 592:/home/vinay/Desktop/softconsole_watershed/Water-shed/src/platform/mpfs_hal/common/mss_plic.h ****             PLIC->TARGET[TARGET_OFFSET_HART1_S].PRIORITY_THRESHOLD  = 7U;
 593:/home/vinay/Desktop/softconsole_watershed/Water-shed/src/platform/mpfs_hal/common/mss_plic.h ****             break;
 594:/home/vinay/Desktop/softconsole_watershed/Water-shed/src/platform/mpfs_hal/common/mss_plic.h ****         case 2:
 595:/home/vinay/Desktop/softconsole_watershed/Water-shed/src/platform/mpfs_hal/common/mss_plic.h ****             for(inc = 0UL; inc < PLIC_SET_UP_REGISTERS; inc++)
 596:/home/vinay/Desktop/softconsole_watershed/Water-shed/src/platform/mpfs_hal/common/mss_plic.h ****             {
 597:/home/vinay/Desktop/softconsole_watershed/Water-shed/src/platform/mpfs_hal/common/mss_plic.h ****                 PLIC->HART2_MMODE_ENA[inc] = 0U;
 598:/home/vinay/Desktop/softconsole_watershed/Water-shed/src/platform/mpfs_hal/common/mss_plic.h ****                 PLIC->HART2_SMODE_ENA[inc] = 0U;
 599:/home/vinay/Desktop/softconsole_watershed/Water-shed/src/platform/mpfs_hal/common/mss_plic.h ****             }
 600:/home/vinay/Desktop/softconsole_watershed/Water-shed/src/platform/mpfs_hal/common/mss_plic.h **** 
 601:/home/vinay/Desktop/softconsole_watershed/Water-shed/src/platform/mpfs_hal/common/mss_plic.h ****             PLIC->TARGET[TARGET_OFFSET_HART2_M].PRIORITY_THRESHOLD  = 0U;
 602:/home/vinay/Desktop/softconsole_watershed/Water-shed/src/platform/mpfs_hal/common/mss_plic.h ****             /* Disable supervisor level */
 603:/home/vinay/Desktop/softconsole_watershed/Water-shed/src/platform/mpfs_hal/common/mss_plic.h ****             PLIC->TARGET[TARGET_OFFSET_HART2_S].PRIORITY_THRESHOLD  = 7U;
 604:/home/vinay/Desktop/softconsole_watershed/Water-shed/src/platform/mpfs_hal/common/mss_plic.h ****             break;
 605:/home/vinay/Desktop/softconsole_watershed/Water-shed/src/platform/mpfs_hal/common/mss_plic.h ****         case 3:
 606:/home/vinay/Desktop/softconsole_watershed/Water-shed/src/platform/mpfs_hal/common/mss_plic.h ****             for(inc = 0UL; inc < PLIC_SET_UP_REGISTERS; inc++)
 607:/home/vinay/Desktop/softconsole_watershed/Water-shed/src/platform/mpfs_hal/common/mss_plic.h ****             {
 608:/home/vinay/Desktop/softconsole_watershed/Water-shed/src/platform/mpfs_hal/common/mss_plic.h ****                 PLIC->HART3_MMODE_ENA[inc] = 0U;
 609:/home/vinay/Desktop/softconsole_watershed/Water-shed/src/platform/mpfs_hal/common/mss_plic.h ****                 PLIC->HART3_SMODE_ENA[inc] = 0U;
 610:/home/vinay/Desktop/softconsole_watershed/Water-shed/src/platform/mpfs_hal/common/mss_plic.h ****             }
 611:/home/vinay/Desktop/softconsole_watershed/Water-shed/src/platform/mpfs_hal/common/mss_plic.h **** 
 612:/home/vinay/Desktop/softconsole_watershed/Water-shed/src/platform/mpfs_hal/common/mss_plic.h ****             PLIC->TARGET[TARGET_OFFSET_HART3_M].PRIORITY_THRESHOLD  = 0U;
 613:/home/vinay/Desktop/softconsole_watershed/Water-shed/src/platform/mpfs_hal/common/mss_plic.h ****             /* Disable supervisor level */
 614:/home/vinay/Desktop/softconsole_watershed/Water-shed/src/platform/mpfs_hal/common/mss_plic.h ****             PLIC->TARGET[TARGET_OFFSET_HART3_S].PRIORITY_THRESHOLD  = 7U;
 615:/home/vinay/Desktop/softconsole_watershed/Water-shed/src/platform/mpfs_hal/common/mss_plic.h ****             break;
 616:/home/vinay/Desktop/softconsole_watershed/Water-shed/src/platform/mpfs_hal/common/mss_plic.h ****         case 4:
 617:/home/vinay/Desktop/softconsole_watershed/Water-shed/src/platform/mpfs_hal/common/mss_plic.h ****             for(inc = 0UL; inc < PLIC_SET_UP_REGISTERS; inc++)
 618:/home/vinay/Desktop/softconsole_watershed/Water-shed/src/platform/mpfs_hal/common/mss_plic.h ****             {
 619:/home/vinay/Desktop/softconsole_watershed/Water-shed/src/platform/mpfs_hal/common/mss_plic.h ****                 PLIC->HART4_MMODE_ENA[inc] = 0U;
 620:/home/vinay/Desktop/softconsole_watershed/Water-shed/src/platform/mpfs_hal/common/mss_plic.h ****                 PLIC->HART4_SMODE_ENA[inc] = 0U;
 621:/home/vinay/Desktop/softconsole_watershed/Water-shed/src/platform/mpfs_hal/common/mss_plic.h ****             }
 622:/home/vinay/Desktop/softconsole_watershed/Water-shed/src/platform/mpfs_hal/common/mss_plic.h **** 
 623:/home/vinay/Desktop/softconsole_watershed/Water-shed/src/platform/mpfs_hal/common/mss_plic.h ****             PLIC->TARGET[TARGET_OFFSET_HART4_M].PRIORITY_THRESHOLD  = 0U;
 624:/home/vinay/Desktop/softconsole_watershed/Water-shed/src/platform/mpfs_hal/common/mss_plic.h ****             /* Disable supervisor level */
 625:/home/vinay/Desktop/softconsole_watershed/Water-shed/src/platform/mpfs_hal/common/mss_plic.h ****             PLIC->TARGET[TARGET_OFFSET_HART4_S].PRIORITY_THRESHOLD  = 7U;
 626:/home/vinay/Desktop/softconsole_watershed/Water-shed/src/platform/mpfs_hal/common/mss_plic.h ****             break;
 627:/home/vinay/Desktop/softconsole_watershed/Water-shed/src/platform/mpfs_hal/common/mss_plic.h ****         default:
 628:/home/vinay/Desktop/softconsole_watershed/Water-shed/src/platform/mpfs_hal/common/mss_plic.h ****             break;
 629:/home/vinay/Desktop/softconsole_watershed/Water-shed/src/platform/mpfs_hal/common/mss_plic.h ****     }
 630:/home/vinay/Desktop/softconsole_watershed/Water-shed/src/platform/mpfs_hal/common/mss_plic.h **** 
 631:/home/vinay/Desktop/softconsole_watershed/Water-shed/src/platform/mpfs_hal/common/mss_plic.h ****     /* Enable  PLIC_MMUARTine external interrupts. */
 632:/home/vinay/Desktop/softconsole_watershed/Water-shed/src/platform/mpfs_hal/common/mss_plic.h ****     set_csr(mie, MIP_MEIP);
 633:/home/vinay/Desktop/softconsole_watershed/Water-shed/src/platform/mpfs_hal/common/mss_plic.h **** }
 634:/home/vinay/Desktop/softconsole_watershed/Water-shed/src/platform/mpfs_hal/common/mss_plic.h **** 
 635:/home/vinay/Desktop/softconsole_watershed/Water-shed/src/platform/mpfs_hal/common/mss_plic.h **** 
 636:/home/vinay/Desktop/softconsole_watershed/Water-shed/src/platform/mpfs_hal/common/mss_plic.h **** 
 637:/home/vinay/Desktop/softconsole_watershed/Water-shed/src/platform/mpfs_hal/common/mss_plic.h **** /***************************************************************************//**
 638:/home/vinay/Desktop/softconsole_watershed/Water-shed/src/platform/mpfs_hal/common/mss_plic.h ****  * The function PLIC_EnableIRQ() enables the external interrupt for the
 639:/home/vinay/Desktop/softconsole_watershed/Water-shed/src/platform/mpfs_hal/common/mss_plic.h ****  * interrupt number indicated by the parameter IRQn.
 640:/home/vinay/Desktop/softconsole_watershed/Water-shed/src/platform/mpfs_hal/common/mss_plic.h ****  */
 641:/home/vinay/Desktop/softconsole_watershed/Water-shed/src/platform/mpfs_hal/common/mss_plic.h **** static inline void PLIC_EnableIRQ(PLIC_IRQn_Type IRQn)
 642:/home/vinay/Desktop/softconsole_watershed/Water-shed/src/platform/mpfs_hal/common/mss_plic.h **** {
 643:/home/vinay/Desktop/softconsole_watershed/Water-shed/src/platform/mpfs_hal/common/mss_plic.h ****     uint32_t current;
 644:/home/vinay/Desktop/softconsole_watershed/Water-shed/src/platform/mpfs_hal/common/mss_plic.h ****     uint64_t hart_id  = read_csr(mhartid);
 645:/home/vinay/Desktop/softconsole_watershed/Water-shed/src/platform/mpfs_hal/common/mss_plic.h **** 
 646:/home/vinay/Desktop/softconsole_watershed/Water-shed/src/platform/mpfs_hal/common/mss_plic.h ****     switch(hart_id)
 647:/home/vinay/Desktop/softconsole_watershed/Water-shed/src/platform/mpfs_hal/common/mss_plic.h ****     {
 648:/home/vinay/Desktop/softconsole_watershed/Water-shed/src/platform/mpfs_hal/common/mss_plic.h ****         case 0:
 649:/home/vinay/Desktop/softconsole_watershed/Water-shed/src/platform/mpfs_hal/common/mss_plic.h ****             current  = PLIC->HART0_MMODE_ENA[IRQn / 32U];
 650:/home/vinay/Desktop/softconsole_watershed/Water-shed/src/platform/mpfs_hal/common/mss_plic.h ****             current |= (uint32_t)1 << (IRQn % 32U);
 651:/home/vinay/Desktop/softconsole_watershed/Water-shed/src/platform/mpfs_hal/common/mss_plic.h ****             PLIC->HART0_MMODE_ENA[IRQn / 32U]  = current;
 652:/home/vinay/Desktop/softconsole_watershed/Water-shed/src/platform/mpfs_hal/common/mss_plic.h ****             break;
 653:/home/vinay/Desktop/softconsole_watershed/Water-shed/src/platform/mpfs_hal/common/mss_plic.h ****         case 1:
 654:/home/vinay/Desktop/softconsole_watershed/Water-shed/src/platform/mpfs_hal/common/mss_plic.h ****             current  = PLIC->HART1_MMODE_ENA[IRQn / 32U];
 655:/home/vinay/Desktop/softconsole_watershed/Water-shed/src/platform/mpfs_hal/common/mss_plic.h ****             current |= (uint32_t)1 << (IRQn % 32U);
 656:/home/vinay/Desktop/softconsole_watershed/Water-shed/src/platform/mpfs_hal/common/mss_plic.h ****             PLIC->HART1_MMODE_ENA[IRQn / 32U]  = current;
 657:/home/vinay/Desktop/softconsole_watershed/Water-shed/src/platform/mpfs_hal/common/mss_plic.h ****             break;
 658:/home/vinay/Desktop/softconsole_watershed/Water-shed/src/platform/mpfs_hal/common/mss_plic.h ****         case 2:
 659:/home/vinay/Desktop/softconsole_watershed/Water-shed/src/platform/mpfs_hal/common/mss_plic.h ****             current  = PLIC->HART2_MMODE_ENA[IRQn / 32U];
 660:/home/vinay/Desktop/softconsole_watershed/Water-shed/src/platform/mpfs_hal/common/mss_plic.h ****             current |= (uint32_t)1 << (IRQn % 32U);
 661:/home/vinay/Desktop/softconsole_watershed/Water-shed/src/platform/mpfs_hal/common/mss_plic.h ****             PLIC->HART2_MMODE_ENA[IRQn / 32U]  = current;
 662:/home/vinay/Desktop/softconsole_watershed/Water-shed/src/platform/mpfs_hal/common/mss_plic.h ****             break;
 663:/home/vinay/Desktop/softconsole_watershed/Water-shed/src/platform/mpfs_hal/common/mss_plic.h ****         case 3:
 664:/home/vinay/Desktop/softconsole_watershed/Water-shed/src/platform/mpfs_hal/common/mss_plic.h ****             current  = PLIC->HART3_MMODE_ENA[IRQn / 32U];
 665:/home/vinay/Desktop/softconsole_watershed/Water-shed/src/platform/mpfs_hal/common/mss_plic.h ****             current |= (uint32_t)1 << (IRQn % 32U);
 666:/home/vinay/Desktop/softconsole_watershed/Water-shed/src/platform/mpfs_hal/common/mss_plic.h ****             PLIC->HART3_MMODE_ENA[IRQn / 32U]  = current;
 667:/home/vinay/Desktop/softconsole_watershed/Water-shed/src/platform/mpfs_hal/common/mss_plic.h ****             break;
 668:/home/vinay/Desktop/softconsole_watershed/Water-shed/src/platform/mpfs_hal/common/mss_plic.h ****         case 4:
 669:/home/vinay/Desktop/softconsole_watershed/Water-shed/src/platform/mpfs_hal/common/mss_plic.h ****             current  = PLIC->HART4_MMODE_ENA[IRQn / 32U];
 670:/home/vinay/Desktop/softconsole_watershed/Water-shed/src/platform/mpfs_hal/common/mss_plic.h ****             current |= (uint32_t)1 << (IRQn % 32U);
 671:/home/vinay/Desktop/softconsole_watershed/Water-shed/src/platform/mpfs_hal/common/mss_plic.h ****             PLIC->HART4_MMODE_ENA[IRQn / 32U]  = current;
 672:/home/vinay/Desktop/softconsole_watershed/Water-shed/src/platform/mpfs_hal/common/mss_plic.h ****             break;
 673:/home/vinay/Desktop/softconsole_watershed/Water-shed/src/platform/mpfs_hal/common/mss_plic.h ****         default:
 674:/home/vinay/Desktop/softconsole_watershed/Water-shed/src/platform/mpfs_hal/common/mss_plic.h ****             break;
 675:/home/vinay/Desktop/softconsole_watershed/Water-shed/src/platform/mpfs_hal/common/mss_plic.h ****     }
 676:/home/vinay/Desktop/softconsole_watershed/Water-shed/src/platform/mpfs_hal/common/mss_plic.h **** }
 677:/home/vinay/Desktop/softconsole_watershed/Water-shed/src/platform/mpfs_hal/common/mss_plic.h **** 
 678:/home/vinay/Desktop/softconsole_watershed/Water-shed/src/platform/mpfs_hal/common/mss_plic.h **** /***************************************************************************//**
 679:/home/vinay/Desktop/softconsole_watershed/Water-shed/src/platform/mpfs_hal/common/mss_plic.h ****  * The function PLIC_DisableIRQ() disables the external interrupt for the
 680:/home/vinay/Desktop/softconsole_watershed/Water-shed/src/platform/mpfs_hal/common/mss_plic.h ****  * interrupt number indicated by the parameter IRQn.
 681:/home/vinay/Desktop/softconsole_watershed/Water-shed/src/platform/mpfs_hal/common/mss_plic.h **** 
 682:/home/vinay/Desktop/softconsole_watershed/Water-shed/src/platform/mpfs_hal/common/mss_plic.h ****  * NOTE:
 683:/home/vinay/Desktop/softconsole_watershed/Water-shed/src/platform/mpfs_hal/common/mss_plic.h ****  *     This function can be used to disable the external interrupt from outside
 684:/home/vinay/Desktop/softconsole_watershed/Water-shed/src/platform/mpfs_hal/common/mss_plic.h ****  *     external interrupt handler function.
 685:/home/vinay/Desktop/softconsole_watershed/Water-shed/src/platform/mpfs_hal/common/mss_plic.h ****  *     This function MUST NOT be used from within the External Interrupt
 686:/home/vinay/Desktop/softconsole_watershed/Water-shed/src/platform/mpfs_hal/common/mss_plic.h ****  *     handler.
 687:/home/vinay/Desktop/softconsole_watershed/Water-shed/src/platform/mpfs_hal/common/mss_plic.h ****  *     If you wish to disable the external interrupt while the interrupt handler
 688:/home/vinay/Desktop/softconsole_watershed/Water-shed/src/platform/mpfs_hal/common/mss_plic.h ****  *     for that external interrupt is executing then you must use the return
 689:/home/vinay/Desktop/softconsole_watershed/Water-shed/src/platform/mpfs_hal/common/mss_plic.h ****  *     value EXT_IRQ_DISABLE to return from the extern interrupt handler.
 690:/home/vinay/Desktop/softconsole_watershed/Water-shed/src/platform/mpfs_hal/common/mss_plic.h ****  */
 691:/home/vinay/Desktop/softconsole_watershed/Water-shed/src/platform/mpfs_hal/common/mss_plic.h **** static inline void PLIC_DisableIRQ(PLIC_IRQn_Type IRQn)
 692:/home/vinay/Desktop/softconsole_watershed/Water-shed/src/platform/mpfs_hal/common/mss_plic.h **** {
 693:/home/vinay/Desktop/softconsole_watershed/Water-shed/src/platform/mpfs_hal/common/mss_plic.h ****     uint32_t current;
 694:/home/vinay/Desktop/softconsole_watershed/Water-shed/src/platform/mpfs_hal/common/mss_plic.h ****     uint64_t hart_id  = read_csr(mhartid);
 695:/home/vinay/Desktop/softconsole_watershed/Water-shed/src/platform/mpfs_hal/common/mss_plic.h **** 
 696:/home/vinay/Desktop/softconsole_watershed/Water-shed/src/platform/mpfs_hal/common/mss_plic.h ****     switch(hart_id)
 697:/home/vinay/Desktop/softconsole_watershed/Water-shed/src/platform/mpfs_hal/common/mss_plic.h ****     {
 698:/home/vinay/Desktop/softconsole_watershed/Water-shed/src/platform/mpfs_hal/common/mss_plic.h ****         case 0:
 699:/home/vinay/Desktop/softconsole_watershed/Water-shed/src/platform/mpfs_hal/common/mss_plic.h ****             current = PLIC->HART0_MMODE_ENA[IRQn / 32U];
 700:/home/vinay/Desktop/softconsole_watershed/Water-shed/src/platform/mpfs_hal/common/mss_plic.h ****             current &= ~((uint32_t)1 << (IRQn % 32U));
 701:/home/vinay/Desktop/softconsole_watershed/Water-shed/src/platform/mpfs_hal/common/mss_plic.h ****             PLIC->HART0_MMODE_ENA[IRQn / 32U] = current;
 702:/home/vinay/Desktop/softconsole_watershed/Water-shed/src/platform/mpfs_hal/common/mss_plic.h ****             break;
 703:/home/vinay/Desktop/softconsole_watershed/Water-shed/src/platform/mpfs_hal/common/mss_plic.h ****         case 1:
 704:/home/vinay/Desktop/softconsole_watershed/Water-shed/src/platform/mpfs_hal/common/mss_plic.h ****             current = PLIC->HART1_MMODE_ENA[IRQn / 32U];
 705:/home/vinay/Desktop/softconsole_watershed/Water-shed/src/platform/mpfs_hal/common/mss_plic.h ****             current &= ~((uint32_t)1 << (IRQn % 32U));
 706:/home/vinay/Desktop/softconsole_watershed/Water-shed/src/platform/mpfs_hal/common/mss_plic.h ****             PLIC->HART1_MMODE_ENA[IRQn / 32U] = current;
 707:/home/vinay/Desktop/softconsole_watershed/Water-shed/src/platform/mpfs_hal/common/mss_plic.h ****             break;
 708:/home/vinay/Desktop/softconsole_watershed/Water-shed/src/platform/mpfs_hal/common/mss_plic.h ****         case 2:
 709:/home/vinay/Desktop/softconsole_watershed/Water-shed/src/platform/mpfs_hal/common/mss_plic.h ****             current = PLIC->HART2_MMODE_ENA[IRQn / 32U];
 710:/home/vinay/Desktop/softconsole_watershed/Water-shed/src/platform/mpfs_hal/common/mss_plic.h ****             current &= ~((uint32_t)1 << (IRQn % 32U));
 711:/home/vinay/Desktop/softconsole_watershed/Water-shed/src/platform/mpfs_hal/common/mss_plic.h ****             PLIC->HART2_MMODE_ENA[IRQn / 32U] = current;
 712:/home/vinay/Desktop/softconsole_watershed/Water-shed/src/platform/mpfs_hal/common/mss_plic.h ****             break;
 713:/home/vinay/Desktop/softconsole_watershed/Water-shed/src/platform/mpfs_hal/common/mss_plic.h ****         case 3:
 714:/home/vinay/Desktop/softconsole_watershed/Water-shed/src/platform/mpfs_hal/common/mss_plic.h ****             current = PLIC->HART3_MMODE_ENA[IRQn / 32U];
 715:/home/vinay/Desktop/softconsole_watershed/Water-shed/src/platform/mpfs_hal/common/mss_plic.h ****             current &= ~((uint32_t)1 << (IRQn % 32U));
 716:/home/vinay/Desktop/softconsole_watershed/Water-shed/src/platform/mpfs_hal/common/mss_plic.h ****             PLIC->HART3_MMODE_ENA[IRQn / 32U] = current;
 717:/home/vinay/Desktop/softconsole_watershed/Water-shed/src/platform/mpfs_hal/common/mss_plic.h ****             break;
 718:/home/vinay/Desktop/softconsole_watershed/Water-shed/src/platform/mpfs_hal/common/mss_plic.h ****         case 4:
 719:/home/vinay/Desktop/softconsole_watershed/Water-shed/src/platform/mpfs_hal/common/mss_plic.h ****             current = PLIC->HART4_MMODE_ENA[IRQn / 32U];
 720:/home/vinay/Desktop/softconsole_watershed/Water-shed/src/platform/mpfs_hal/common/mss_plic.h ****             current &= ~((uint32_t)1 << (IRQn % 32U));
 721:/home/vinay/Desktop/softconsole_watershed/Water-shed/src/platform/mpfs_hal/common/mss_plic.h ****             PLIC->HART4_MMODE_ENA[IRQn / 32U] = current;
 722:/home/vinay/Desktop/softconsole_watershed/Water-shed/src/platform/mpfs_hal/common/mss_plic.h ****             break;
 723:/home/vinay/Desktop/softconsole_watershed/Water-shed/src/platform/mpfs_hal/common/mss_plic.h ****         default:
 724:/home/vinay/Desktop/softconsole_watershed/Water-shed/src/platform/mpfs_hal/common/mss_plic.h ****             break;
 725:/home/vinay/Desktop/softconsole_watershed/Water-shed/src/platform/mpfs_hal/common/mss_plic.h ****     }
 726:/home/vinay/Desktop/softconsole_watershed/Water-shed/src/platform/mpfs_hal/common/mss_plic.h **** }
 727:/home/vinay/Desktop/softconsole_watershed/Water-shed/src/platform/mpfs_hal/common/mss_plic.h **** 
 728:/home/vinay/Desktop/softconsole_watershed/Water-shed/src/platform/mpfs_hal/common/mss_plic.h **** /***************************************************************************//**
 729:/home/vinay/Desktop/softconsole_watershed/Water-shed/src/platform/mpfs_hal/common/mss_plic.h ****  * The function PLIC_SetPriority() sets the priority for the external interrupt
 730:/home/vinay/Desktop/softconsole_watershed/Water-shed/src/platform/mpfs_hal/common/mss_plic.h ****  * for the interrupt number indicated by the parameter IRQn.
 731:/home/vinay/Desktop/softconsole_watershed/Water-shed/src/platform/mpfs_hal/common/mss_plic.h ****  */
 732:/home/vinay/Desktop/softconsole_watershed/Water-shed/src/platform/mpfs_hal/common/mss_plic.h **** static inline void PLIC_SetPriority(PLIC_IRQn_Type IRQn, uint32_t priority)
 733:/home/vinay/Desktop/softconsole_watershed/Water-shed/src/platform/mpfs_hal/common/mss_plic.h **** {
 734:/home/vinay/Desktop/softconsole_watershed/Water-shed/src/platform/mpfs_hal/common/mss_plic.h ****     if((IRQn > PLIC_INVALID_INT_OFFSET) && (IRQn < PLIC_NUM_SOURCES))
 735:/home/vinay/Desktop/softconsole_watershed/Water-shed/src/platform/mpfs_hal/common/mss_plic.h ****     {
 736:/home/vinay/Desktop/softconsole_watershed/Water-shed/src/platform/mpfs_hal/common/mss_plic.h ****         PLIC->SOURCE_PRIORITY[IRQn-1] = priority;
 737:/home/vinay/Desktop/softconsole_watershed/Water-shed/src/platform/mpfs_hal/common/mss_plic.h ****     }
 738:/home/vinay/Desktop/softconsole_watershed/Water-shed/src/platform/mpfs_hal/common/mss_plic.h **** }
 739:/home/vinay/Desktop/softconsole_watershed/Water-shed/src/platform/mpfs_hal/common/mss_plic.h **** 
 740:/home/vinay/Desktop/softconsole_watershed/Water-shed/src/platform/mpfs_hal/common/mss_plic.h **** /***************************************************************************//**
 741:/home/vinay/Desktop/softconsole_watershed/Water-shed/src/platform/mpfs_hal/common/mss_plic.h ****  * The function PLIC_GetPriority() returns the priority for the external
 742:/home/vinay/Desktop/softconsole_watershed/Water-shed/src/platform/mpfs_hal/common/mss_plic.h ****  * interrupt for the interrupt number indicated by the parameter IRQn.
 743:/home/vinay/Desktop/softconsole_watershed/Water-shed/src/platform/mpfs_hal/common/mss_plic.h ****  */
 744:/home/vinay/Desktop/softconsole_watershed/Water-shed/src/platform/mpfs_hal/common/mss_plic.h **** static inline uint32_t PLIC_GetPriority(PLIC_IRQn_Type IRQn)
 745:/home/vinay/Desktop/softconsole_watershed/Water-shed/src/platform/mpfs_hal/common/mss_plic.h **** {
 746:/home/vinay/Desktop/softconsole_watershed/Water-shed/src/platform/mpfs_hal/common/mss_plic.h ****     uint32_t ret_val = 0U;
 747:/home/vinay/Desktop/softconsole_watershed/Water-shed/src/platform/mpfs_hal/common/mss_plic.h **** 
 748:/home/vinay/Desktop/softconsole_watershed/Water-shed/src/platform/mpfs_hal/common/mss_plic.h ****     if((IRQn > PLIC_INVALID_INT_OFFSET) && (IRQn < PLIC_NUM_SOURCES))
 749:/home/vinay/Desktop/softconsole_watershed/Water-shed/src/platform/mpfs_hal/common/mss_plic.h ****     {
 750:/home/vinay/Desktop/softconsole_watershed/Water-shed/src/platform/mpfs_hal/common/mss_plic.h ****         ret_val = PLIC->SOURCE_PRIORITY[IRQn-1];
 751:/home/vinay/Desktop/softconsole_watershed/Water-shed/src/platform/mpfs_hal/common/mss_plic.h ****     }
 752:/home/vinay/Desktop/softconsole_watershed/Water-shed/src/platform/mpfs_hal/common/mss_plic.h **** 
 753:/home/vinay/Desktop/softconsole_watershed/Water-shed/src/platform/mpfs_hal/common/mss_plic.h ****     return(ret_val);
 754:/home/vinay/Desktop/softconsole_watershed/Water-shed/src/platform/mpfs_hal/common/mss_plic.h **** }
 755:/home/vinay/Desktop/softconsole_watershed/Water-shed/src/platform/mpfs_hal/common/mss_plic.h **** 
 756:/home/vinay/Desktop/softconsole_watershed/Water-shed/src/platform/mpfs_hal/common/mss_plic.h **** 
 757:/home/vinay/Desktop/softconsole_watershed/Water-shed/src/platform/mpfs_hal/common/mss_plic.h **** static inline uint32_t PLIC_pending(PLIC_IRQn_Type IRQn)
 758:/home/vinay/Desktop/softconsole_watershed/Water-shed/src/platform/mpfs_hal/common/mss_plic.h **** {
 759:/home/vinay/Desktop/softconsole_watershed/Water-shed/src/platform/mpfs_hal/common/mss_plic.h ****     return (PLIC->PENDING_ARRAY[IRQn/32U] & (0x01U<<(IRQn%32U)));
 760:/home/vinay/Desktop/softconsole_watershed/Water-shed/src/platform/mpfs_hal/common/mss_plic.h **** }
 761:/home/vinay/Desktop/softconsole_watershed/Water-shed/src/platform/mpfs_hal/common/mss_plic.h **** 
 762:/home/vinay/Desktop/softconsole_watershed/Water-shed/src/platform/mpfs_hal/common/mss_plic.h **** /***************************************************************************//**
 763:/home/vinay/Desktop/softconsole_watershed/Water-shed/src/platform/mpfs_hal/common/mss_plic.h ****  * The function PLIC_ClaimIRQ() claims the interrupt from the PLIC controller.
 764:/home/vinay/Desktop/softconsole_watershed/Water-shed/src/platform/mpfs_hal/common/mss_plic.h ****  */
 765:/home/vinay/Desktop/softconsole_watershed/Water-shed/src/platform/mpfs_hal/common/mss_plic.h **** static inline uint32_t PLIC_ClaimIRQ(void)
 766:/home/vinay/Desktop/softconsole_watershed/Water-shed/src/platform/mpfs_hal/common/mss_plic.h **** {
  55              		.loc 2 766 1
  56              		.cfi_startproc
  57 0000 0111     		addi	sp,sp,-32
  58              		.cfi_def_cfa_offset 32
  59 0002 22EC     		sd	s0,24(sp)
  60              		.cfi_offset 8, -8
  61 0004 0010     		addi	s0,sp,32
  62              		.cfi_def_cfa 8, 0
  63              	.LBB2:
 767:/home/vinay/Desktop/softconsole_watershed/Water-shed/src/platform/mpfs_hal/common/mss_plic.h ****     uint64_t hart_id  = read_csr(mhartid);
  64              		.loc 2 767 25
  65              	 #APP
  66              	# 767 "/home/vinay/Desktop/softconsole_watershed/Water-shed/src/platform/mpfs_hal/common/mss_plic.h
 768              	
  67              		csrr a5, mhartid
  68              	# 0 "" 2
  69              	 #NO_APP
  70 000a 2334F4FE 		sd	a5,-24(s0)
  71 000e 833784FE 		ld	a5,-24(s0)
  72              	.LBE2:
 767:/home/vinay/Desktop/softconsole_watershed/Water-shed/src/platform/mpfs_hal/common/mss_plic.h ****     uint64_t hart_id  = read_csr(mhartid);
  73              		.loc 2 767 14
  74 0012 2330F4FE 		sd	a5,-32(s0)
 769:/home/vinay/Desktop/softconsole_watershed/Water-shed/src/platform/mpfs_hal/common/mss_plic.h ****     return (PLIC->TARGET[plic_hart_lookup[hart_id]].CLAIM_COMPLETE);
  75              		.loc 2 769 17
  76 0016 3707000C 		li	a4,201326592
  77              		.loc 2 769 42
  78 001a 97060000 		lla	a3,plic_hart_lookup
  78      93860600 
  79 0022 833704FE 		ld	a5,-32(s0)
  80 0026 8E07     		slli	a5,a5,3
  81 0028 B697     		add	a5,a3,a5
  82 002a 9C63     		ld	a5,0(a5)
  83              		.loc 2 769 52
  84 002c 93870720 		addi	a5,a5,512
  85 0030 B207     		slli	a5,a5,12
  86 0032 BA97     		add	a5,a4,a5
  87 0034 DC43     		lw	a5,4(a5)
  88 0036 8127     		sext.w	a5,a5
 770:/home/vinay/Desktop/softconsole_watershed/Water-shed/src/platform/mpfs_hal/common/mss_plic.h **** }
  89              		.loc 2 770 1
  90 0038 3E85     		mv	a0,a5
  91 003a 6264     		ld	s0,24(sp)
  92              		.cfi_restore 8
  93              		.cfi_def_cfa 2, 32
  94 003c 0561     		addi	sp,sp,32
  95              		.cfi_def_cfa_offset 0
  96 003e 8280     		jr	ra
  97              		.cfi_endproc
  98              	.LFE12:
 100              		.section	.text.PLIC_CompleteIRQ,"ax",@progbits
 101              		.align	1
 103              	PLIC_CompleteIRQ:
 104              	.LFB13:
 771:/home/vinay/Desktop/softconsole_watershed/Water-shed/src/platform/mpfs_hal/common/mss_plic.h **** 
 772:/home/vinay/Desktop/softconsole_watershed/Water-shed/src/platform/mpfs_hal/common/mss_plic.h **** /***************************************************************************//**
 773:/home/vinay/Desktop/softconsole_watershed/Water-shed/src/platform/mpfs_hal/common/mss_plic.h ****  * The function PLIC_CompleteIRQ() indicates to the PLIC controller the
 774:/home/vinay/Desktop/softconsole_watershed/Water-shed/src/platform/mpfs_hal/common/mss_plic.h ****  * interrupt is processed and claim is complete.
 775:/home/vinay/Desktop/softconsole_watershed/Water-shed/src/platform/mpfs_hal/common/mss_plic.h ****  */
 776:/home/vinay/Desktop/softconsole_watershed/Water-shed/src/platform/mpfs_hal/common/mss_plic.h **** static inline void PLIC_CompleteIRQ(uint32_t source)
 777:/home/vinay/Desktop/softconsole_watershed/Water-shed/src/platform/mpfs_hal/common/mss_plic.h **** {
 105              		.loc 2 777 1
 106              		.cfi_startproc
 107 0000 7971     		addi	sp,sp,-48
 108              		.cfi_def_cfa_offset 48
 109 0002 22F4     		sd	s0,40(sp)
 110              		.cfi_offset 8, -8
 111 0004 0018     		addi	s0,sp,48
 112              		.cfi_def_cfa 8, 0
 113 0006 AA87     		mv	a5,a0
 114 0008 232EF4FC 		sw	a5,-36(s0)
 115              	.LBB3:
 778:/home/vinay/Desktop/softconsole_watershed/Water-shed/src/platform/mpfs_hal/common/mss_plic.h ****     uint64_t hart_id  = read_csr(mhartid);
 116              		.loc 2 778 25
 117              	 #APP
 118              	# 778 "/home/vinay/Desktop/softconsole_watershed/Water-shed/src/platform/mpfs_hal/common/mss_plic.h
 779              	
 119              		csrr a5, mhartid
 120              	# 0 "" 2
 121              	 #NO_APP
 122 0010 2334F4FE 		sd	a5,-24(s0)
 123 0014 833784FE 		ld	a5,-24(s0)
 124              	.LBE3:
 778:/home/vinay/Desktop/softconsole_watershed/Water-shed/src/platform/mpfs_hal/common/mss_plic.h ****     uint64_t hart_id  = read_csr(mhartid);
 125              		.loc 2 778 14
 126 0018 2330F4FE 		sd	a5,-32(s0)
 780:/home/vinay/Desktop/softconsole_watershed/Water-shed/src/platform/mpfs_hal/common/mss_plic.h ****     ASSERT(source <= MAX_PLIC_INT);
 127              		.loc 2 780 5
 128 001c 8327C4FD 		lw	a5,-36(s0)
 129 0020 1B870700 		sext.w	a4,a5
 130 0024 9307A00B 		li	a5,186
 131 0028 63F3E700 		bleu	a4,a5,.L5
 132              		.loc 2 780 5 is_stmt 0 discriminator 1
 133              	 #APP
 134              	# 780 "/home/vinay/Desktop/softconsole_watershed/Water-shed/src/platform/mpfs_hal/common/mss_plic.h
 781              	
 135              		ebreak
 136              	# 0 "" 2
 137              	 #NO_APP
 138              	.L5:
 782:/home/vinay/Desktop/softconsole_watershed/Water-shed/src/platform/mpfs_hal/common/mss_plic.h ****     PLIC->TARGET[plic_hart_lookup[hart_id]].CLAIM_COMPLETE  = source;
 139              		.loc 2 782 9 is_stmt 1
 140 002e 3707000C 		li	a4,201326592
 141              		.loc 2 782 34
 142 0032 97060000 		lla	a3,plic_hart_lookup
 142      93860600 
 143 003a 833704FE 		ld	a5,-32(s0)
 144 003e 8E07     		slli	a5,a5,3
 145 0040 B697     		add	a5,a3,a5
 146 0042 9C63     		ld	a5,0(a5)
 147              		.loc 2 782 61
 148 0044 93870720 		addi	a5,a5,512
 149 0048 B207     		slli	a5,a5,12
 150 004a BA97     		add	a5,a4,a5
 151 004c 0327C4FD 		lw	a4,-36(s0)
 152 0050 D8C3     		sw	a4,4(a5)
 783:/home/vinay/Desktop/softconsole_watershed/Water-shed/src/platform/mpfs_hal/common/mss_plic.h **** }
 153              		.loc 2 783 1
 154 0052 0100     		nop
 155 0054 2274     		ld	s0,40(sp)
 156              		.cfi_restore 8
 157              		.cfi_def_cfa 2, 48
 158 0056 4561     		addi	sp,sp,48
 159              		.cfi_def_cfa_offset 0
 160 0058 8280     		jr	ra
 161              		.cfi_endproc
 162              	.LFE13:
 164              		.section	.text.PLIC_ClearPendingIRQ,"ax",@progbits
 165              		.align	1
 167              	PLIC_ClearPendingIRQ:
 168              	.LFB15:
 784:/home/vinay/Desktop/softconsole_watershed/Water-shed/src/platform/mpfs_hal/common/mss_plic.h **** 
 785:/home/vinay/Desktop/softconsole_watershed/Water-shed/src/platform/mpfs_hal/common/mss_plic.h **** /***************************************************************************//**
 786:/home/vinay/Desktop/softconsole_watershed/Water-shed/src/platform/mpfs_hal/common/mss_plic.h ****  *
 787:/home/vinay/Desktop/softconsole_watershed/Water-shed/src/platform/mpfs_hal/common/mss_plic.h ****  * The function PLIC_SetPriority_Threshold() sets the threshold for a particular
 788:/home/vinay/Desktop/softconsole_watershed/Water-shed/src/platform/mpfs_hal/common/mss_plic.h ****  * hart. The default threshold on reset is 0.
 789:/home/vinay/Desktop/softconsole_watershed/Water-shed/src/platform/mpfs_hal/common/mss_plic.h ****  * The PFSoC Core Complex supports setting of an interrupt priority threshold
 790:/home/vinay/Desktop/softconsole_watershed/Water-shed/src/platform/mpfs_hal/common/mss_plic.h ****  * via the threshold register. The threshold is a WARL field, where the PFSoC
 791:/home/vinay/Desktop/softconsole_watershed/Water-shed/src/platform/mpfs_hal/common/mss_plic.h ****  * Core Complex supports a maximum threshold of 7.
 792:/home/vinay/Desktop/softconsole_watershed/Water-shed/src/platform/mpfs_hal/common/mss_plic.h ****  * The PFSoC Core Complex will mask all PLIC interrupts of a priority less than
 793:/home/vinay/Desktop/softconsole_watershed/Water-shed/src/platform/mpfs_hal/common/mss_plic.h ****  * or equal to threshold. For example, a threshold value of zero permits all
 794:/home/vinay/Desktop/softconsole_watershed/Water-shed/src/platform/mpfs_hal/common/mss_plic.h ****  * interrupts with non-zero priority, whereas a value of 7 masks all
 795:/home/vinay/Desktop/softconsole_watershed/Water-shed/src/platform/mpfs_hal/common/mss_plic.h ****  * interrupts.
 796:/home/vinay/Desktop/softconsole_watershed/Water-shed/src/platform/mpfs_hal/common/mss_plic.h ****  */
 797:/home/vinay/Desktop/softconsole_watershed/Water-shed/src/platform/mpfs_hal/common/mss_plic.h **** static inline void PLIC_SetPriority_Threshold(uint32_t threshold)
 798:/home/vinay/Desktop/softconsole_watershed/Water-shed/src/platform/mpfs_hal/common/mss_plic.h **** {
 799:/home/vinay/Desktop/softconsole_watershed/Water-shed/src/platform/mpfs_hal/common/mss_plic.h ****     uint64_t hart_id  = read_csr(mhartid);
 800:/home/vinay/Desktop/softconsole_watershed/Water-shed/src/platform/mpfs_hal/common/mss_plic.h **** 
 801:/home/vinay/Desktop/softconsole_watershed/Water-shed/src/platform/mpfs_hal/common/mss_plic.h ****     ASSERT(threshold <= 7);
 802:/home/vinay/Desktop/softconsole_watershed/Water-shed/src/platform/mpfs_hal/common/mss_plic.h **** 
 803:/home/vinay/Desktop/softconsole_watershed/Water-shed/src/platform/mpfs_hal/common/mss_plic.h ****     PLIC->TARGET[plic_hart_lookup[hart_id]].PRIORITY_THRESHOLD  = threshold;
 804:/home/vinay/Desktop/softconsole_watershed/Water-shed/src/platform/mpfs_hal/common/mss_plic.h **** }
 805:/home/vinay/Desktop/softconsole_watershed/Water-shed/src/platform/mpfs_hal/common/mss_plic.h **** 
 806:/home/vinay/Desktop/softconsole_watershed/Water-shed/src/platform/mpfs_hal/common/mss_plic.h **** /***************************************************************************//**
 807:/home/vinay/Desktop/softconsole_watershed/Water-shed/src/platform/mpfs_hal/common/mss_plic.h ****  *  PLIC_ClearPendingIRQ(void)
 808:/home/vinay/Desktop/softconsole_watershed/Water-shed/src/platform/mpfs_hal/common/mss_plic.h ****  *  This is only called by the startup hart and only once
 809:/home/vinay/Desktop/softconsole_watershed/Water-shed/src/platform/mpfs_hal/common/mss_plic.h ****  *  Clears any pending interrupts as PLIC can be in unknown state on startup
 810:/home/vinay/Desktop/softconsole_watershed/Water-shed/src/platform/mpfs_hal/common/mss_plic.h ****  */
 811:/home/vinay/Desktop/softconsole_watershed/Water-shed/src/platform/mpfs_hal/common/mss_plic.h **** static inline void PLIC_ClearPendingIRQ(void)
 812:/home/vinay/Desktop/softconsole_watershed/Water-shed/src/platform/mpfs_hal/common/mss_plic.h **** {
 169              		.loc 2 812 1
 170              		.cfi_startproc
 171 0000 0111     		addi	sp,sp,-32
 172              		.cfi_def_cfa_offset 32
 173 0002 06EC     		sd	ra,24(sp)
 174 0004 22E8     		sd	s0,16(sp)
 175              		.cfi_offset 1, -8
 176              		.cfi_offset 8, -16
 177 0006 0010     		addi	s0,sp,32
 178              		.cfi_def_cfa 8, 0
 813:/home/vinay/Desktop/softconsole_watershed/Water-shed/src/platform/mpfs_hal/common/mss_plic.h ****     volatile uint32_t int_num  = PLIC_ClaimIRQ();
 179              		.loc 2 813 34
 180 0008 97000000 		call	PLIC_ClaimIRQ
 180      E7800000 
 181 0010 AA87     		mv	a5,a0
 182 0012 8127     		sext.w	a5,a5
 183              		.loc 2 813 23
 184 0014 2326F4FE 		sw	a5,-20(s0)
 814:/home/vinay/Desktop/softconsole_watershed/Water-shed/src/platform/mpfs_hal/common/mss_plic.h ****     volatile int32_t wait_possible_int;
 815:/home/vinay/Desktop/softconsole_watershed/Water-shed/src/platform/mpfs_hal/common/mss_plic.h **** 
 816:/home/vinay/Desktop/softconsole_watershed/Water-shed/src/platform/mpfs_hal/common/mss_plic.h ****     while ( int_num != PLIC_INVALID_INT_OFFSET)
 185              		.loc 2 816 11
 186 0018 81A0     		j	.L7
 187              	.L10:
 817:/home/vinay/Desktop/softconsole_watershed/Water-shed/src/platform/mpfs_hal/common/mss_plic.h ****     {
 818:/home/vinay/Desktop/softconsole_watershed/Water-shed/src/platform/mpfs_hal/common/mss_plic.h ****         PLIC_CompleteIRQ(int_num);
 188              		.loc 2 818 9
 189 001a 8327C4FE 		lw	a5,-20(s0)
 190 001e 8127     		sext.w	a5,a5
 191 0020 3E85     		mv	a0,a5
 192 0022 97000000 		call	PLIC_CompleteIRQ
 192      E7800000 
 819:/home/vinay/Desktop/softconsole_watershed/Water-shed/src/platform/mpfs_hal/common/mss_plic.h ****         wait_possible_int = 0xFU;
 193              		.loc 2 819 27
 194 002a BD47     		li	a5,15
 195 002c 2324F4FE 		sw	a5,-24(s0)
 820:/home/vinay/Desktop/softconsole_watershed/Water-shed/src/platform/mpfs_hal/common/mss_plic.h ****         while (wait_possible_int)
 196              		.loc 2 820 15
 197 0030 01A8     		j	.L8
 198              	.L9:
 821:/home/vinay/Desktop/softconsole_watershed/Water-shed/src/platform/mpfs_hal/common/mss_plic.h ****         {
 822:/home/vinay/Desktop/softconsole_watershed/Water-shed/src/platform/mpfs_hal/common/mss_plic.h ****             wait_possible_int--;
 199              		.loc 2 822 30
 200 0032 832784FE 		lw	a5,-24(s0)
 201 0036 8127     		sext.w	a5,a5
 202 0038 FD37     		addiw	a5,a5,-1
 203 003a 8127     		sext.w	a5,a5
 204 003c 2324F4FE 		sw	a5,-24(s0)
 205              	.L8:
 820:/home/vinay/Desktop/softconsole_watershed/Water-shed/src/platform/mpfs_hal/common/mss_plic.h ****         while (wait_possible_int)
 206              		.loc 2 820 16
 207 0040 832784FE 		lw	a5,-24(s0)
 208 0044 8127     		sext.w	a5,a5
 820:/home/vinay/Desktop/softconsole_watershed/Water-shed/src/platform/mpfs_hal/common/mss_plic.h ****         while (wait_possible_int)
 209              		.loc 2 820 15
 210 0046 F5F7     		bne	a5,zero,.L9
 823:/home/vinay/Desktop/softconsole_watershed/Water-shed/src/platform/mpfs_hal/common/mss_plic.h ****         }
 824:/home/vinay/Desktop/softconsole_watershed/Water-shed/src/platform/mpfs_hal/common/mss_plic.h ****         int_num  = PLIC_ClaimIRQ(); /* obtain interrupt, auto clears  */
 211              		.loc 2 824 20
 212 0048 97000000 		call	PLIC_ClaimIRQ
 212      E7800000 
 213 0050 AA87     		mv	a5,a0
 214 0052 8127     		sext.w	a5,a5
 215              		.loc 2 824 18
 216 0054 2326F4FE 		sw	a5,-20(s0)
 217              	.L7:
 816:/home/vinay/Desktop/softconsole_watershed/Water-shed/src/platform/mpfs_hal/common/mss_plic.h ****     {
 218              		.loc 2 816 21
 219 0058 8327C4FE 		lw	a5,-20(s0)
 220 005c 8127     		sext.w	a5,a5
 816:/home/vinay/Desktop/softconsole_watershed/Water-shed/src/platform/mpfs_hal/common/mss_plic.h ****     {
 221              		.loc 2 816 11
 222 005e D5FF     		bne	a5,zero,.L10
 825:/home/vinay/Desktop/softconsole_watershed/Water-shed/src/platform/mpfs_hal/common/mss_plic.h ****     }
 826:/home/vinay/Desktop/softconsole_watershed/Water-shed/src/platform/mpfs_hal/common/mss_plic.h **** }
 223              		.loc 2 826 1
 224 0060 0100     		nop
 225 0062 E260     		ld	ra,24(sp)
 226              		.cfi_restore 1
 227 0064 4264     		ld	s0,16(sp)
 228              		.cfi_restore 8
 229              		.cfi_def_cfa 2, 32
 230 0066 0561     		addi	sp,sp,32
 231              		.cfi_def_cfa_offset 0
 232 0068 8280     		jr	ra
 233              		.cfi_endproc
 234              	.LFE15:
 236              		.section	.text.PLIC_init_on_reset,"ax",@progbits
 237              		.align	1
 239              	PLIC_init_on_reset:
 240              	.LFB16:
 827:/home/vinay/Desktop/softconsole_watershed/Water-shed/src/platform/mpfs_hal/common/mss_plic.h **** 
 828:/home/vinay/Desktop/softconsole_watershed/Water-shed/src/platform/mpfs_hal/common/mss_plic.h **** /***************************************************************************//**
 829:/home/vinay/Desktop/softconsole_watershed/Water-shed/src/platform/mpfs_hal/common/mss_plic.h ****  * This function is only called from one hart on startup
 830:/home/vinay/Desktop/softconsole_watershed/Water-shed/src/platform/mpfs_hal/common/mss_plic.h ****  */
 831:/home/vinay/Desktop/softconsole_watershed/Water-shed/src/platform/mpfs_hal/common/mss_plic.h **** static inline void PLIC_init_on_reset(void)
 832:/home/vinay/Desktop/softconsole_watershed/Water-shed/src/platform/mpfs_hal/common/mss_plic.h **** {
 241              		.loc 2 832 1
 242              		.cfi_startproc
 243 0000 0111     		addi	sp,sp,-32
 244              		.cfi_def_cfa_offset 32
 245 0002 06EC     		sd	ra,24(sp)
 246 0004 22E8     		sd	s0,16(sp)
 247              		.cfi_offset 1, -8
 248              		.cfi_offset 8, -16
 249 0006 0010     		addi	s0,sp,32
 250              		.cfi_def_cfa 8, 0
 833:/home/vinay/Desktop/softconsole_watershed/Water-shed/src/platform/mpfs_hal/common/mss_plic.h ****     uint32_t inc;
 834:/home/vinay/Desktop/softconsole_watershed/Water-shed/src/platform/mpfs_hal/common/mss_plic.h **** 
 835:/home/vinay/Desktop/softconsole_watershed/Water-shed/src/platform/mpfs_hal/common/mss_plic.h ****     /* default all priorities so effectively disabled */
 836:/home/vinay/Desktop/softconsole_watershed/Water-shed/src/platform/mpfs_hal/common/mss_plic.h ****     for(inc = 0U; inc < PLIC_NUM_SOURCES; ++inc)
 251              		.loc 2 836 13
 252 0008 232604FE 		sw	zero,-20(s0)
 253              		.loc 2 836 5
 254 000c 31A8     		j	.L12
 255              	.L13:
 837:/home/vinay/Desktop/softconsole_watershed/Water-shed/src/platform/mpfs_hal/common/mss_plic.h ****     {
 838:/home/vinay/Desktop/softconsole_watershed/Water-shed/src/platform/mpfs_hal/common/mss_plic.h ****         /* priority must be greater than threshold to be enabled, so setting to
 839:/home/vinay/Desktop/softconsole_watershed/Water-shed/src/platform/mpfs_hal/common/mss_plic.h ****          * 7 disables */
 840:/home/vinay/Desktop/softconsole_watershed/Water-shed/src/platform/mpfs_hal/common/mss_plic.h ****         PLIC->SOURCE_PRIORITY[inc]  = 0U;
 256              		.loc 2 840 13 discriminator 3
 257 000e 3707000C 		li	a4,201326592
 258              		.loc 2 840 37 discriminator 3
 259 0012 8367C4FE 		lwu	a5,-20(s0)
 260 0016 8A07     		slli	a5,a5,2
 261 0018 BA97     		add	a5,a4,a5
 262 001a 23A20700 		sw	zero,4(a5)
 836:/home/vinay/Desktop/softconsole_watershed/Water-shed/src/platform/mpfs_hal/common/mss_plic.h ****     {
 263              		.loc 2 836 43 discriminator 3
 264 001e 8327C4FE 		lw	a5,-20(s0)
 265 0022 8527     		addiw	a5,a5,1
 266 0024 2326F4FE 		sw	a5,-20(s0)
 267              	.L12:
 836:/home/vinay/Desktop/softconsole_watershed/Water-shed/src/platform/mpfs_hal/common/mss_plic.h ****     {
 268              		.loc 2 836 5 discriminator 1
 269 0028 8327C4FE 		lw	a5,-20(s0)
 270 002c 1B870700 		sext.w	a4,a5
 271 0030 9307A00B 		li	a5,186
 272 0034 E3FDE7FC 		bleu	a4,a5,.L13
 841:/home/vinay/Desktop/softconsole_watershed/Water-shed/src/platform/mpfs_hal/common/mss_plic.h ****     }
 842:/home/vinay/Desktop/softconsole_watershed/Water-shed/src/platform/mpfs_hal/common/mss_plic.h **** 
 843:/home/vinay/Desktop/softconsole_watershed/Water-shed/src/platform/mpfs_hal/common/mss_plic.h ****     for(inc = 0U; inc < NUM_CLAIM_REGS; ++inc)
 273              		.loc 2 843 13
 274 0038 232604FE 		sw	zero,-20(s0)
 275              		.loc 2 843 5
 276 003c 05A0     		j	.L14
 277              	.L15:
 844:/home/vinay/Desktop/softconsole_watershed/Water-shed/src/platform/mpfs_hal/common/mss_plic.h ****     {
 845:/home/vinay/Desktop/softconsole_watershed/Water-shed/src/platform/mpfs_hal/common/mss_plic.h ****         PLIC->TARGET[inc].PRIORITY_THRESHOLD  = 7U;
 278              		.loc 2 845 13 discriminator 3
 279 003e 3707000C 		li	a4,201326592
 280              		.loc 2 845 47 discriminator 3
 281 0042 8367C4FE 		lwu	a5,-20(s0)
 282 0046 93870720 		addi	a5,a5,512
 283 004a B207     		slli	a5,a5,12
 284 004c BA97     		add	a5,a4,a5
 285 004e 1D47     		li	a4,7
 286 0050 98C3     		sw	a4,0(a5)
 843:/home/vinay/Desktop/softconsole_watershed/Water-shed/src/platform/mpfs_hal/common/mss_plic.h ****     {
 287              		.loc 2 843 41 discriminator 3
 288 0052 8327C4FE 		lw	a5,-20(s0)
 289 0056 8527     		addiw	a5,a5,1
 290 0058 2326F4FE 		sw	a5,-20(s0)
 291              	.L14:
 843:/home/vinay/Desktop/softconsole_watershed/Water-shed/src/platform/mpfs_hal/common/mss_plic.h ****     {
 292              		.loc 2 843 5 discriminator 1
 293 005c 8327C4FE 		lw	a5,-20(s0)
 294 0060 1B870700 		sext.w	a4,a5
 295 0064 A147     		li	a5,8
 296 0066 E3FCE7FC 		bleu	a4,a5,.L15
 846:/home/vinay/Desktop/softconsole_watershed/Water-shed/src/platform/mpfs_hal/common/mss_plic.h ****     }
 847:/home/vinay/Desktop/softconsole_watershed/Water-shed/src/platform/mpfs_hal/common/mss_plic.h **** 
 848:/home/vinay/Desktop/softconsole_watershed/Water-shed/src/platform/mpfs_hal/common/mss_plic.h ****     /* and clear all the enables */
 849:/home/vinay/Desktop/softconsole_watershed/Water-shed/src/platform/mpfs_hal/common/mss_plic.h ****     for(inc = 0UL; inc < PLIC_SET_UP_REGISTERS; inc++)
 297              		.loc 2 849 13
 298 006a 232604FE 		sw	zero,-20(s0)
 299              		.loc 2 849 5
 300 006e D5A0     		j	.L16
 301              	.L17:
 850:/home/vinay/Desktop/softconsole_watershed/Water-shed/src/platform/mpfs_hal/common/mss_plic.h ****     {
 851:/home/vinay/Desktop/softconsole_watershed/Water-shed/src/platform/mpfs_hal/common/mss_plic.h ****         PLIC->HART0_MMODE_ENA[inc] = 0U;
 302              		.loc 2 851 13 discriminator 3
 303 0070 3707000C 		li	a4,201326592
 304              		.loc 2 851 36 discriminator 3
 305 0074 8366C4FE 		lwu	a3,-20(s0)
 306 0078 8567     		li	a5,4096
 307 007a 93870780 		addi	a5,a5,-2048
 308 007e B697     		add	a5,a3,a5
 309 0080 8A07     		slli	a5,a5,2
 310 0082 BA97     		add	a5,a4,a5
 311 0084 23A00700 		sw	zero,0(a5)
 852:/home/vinay/Desktop/softconsole_watershed/Water-shed/src/platform/mpfs_hal/common/mss_plic.h ****         PLIC->HART1_MMODE_ENA[inc] = 0U;
 312              		.loc 2 852 13 discriminator 3
 313 0088 3707000C 		li	a4,201326592
 314              		.loc 2 852 36 discriminator 3
 315 008c 8366C4FE 		lwu	a3,-20(s0)
 316 0090 8567     		li	a5,4096
 317 0092 93870782 		addi	a5,a5,-2016
 318 0096 B697     		add	a5,a3,a5
 319 0098 8A07     		slli	a5,a5,2
 320 009a BA97     		add	a5,a4,a5
 321 009c 23A00700 		sw	zero,0(a5)
 853:/home/vinay/Desktop/softconsole_watershed/Water-shed/src/platform/mpfs_hal/common/mss_plic.h ****         PLIC->HART1_SMODE_ENA[inc] = 0U;
 322              		.loc 2 853 13 discriminator 3
 323 00a0 3707000C 		li	a4,201326592
 324              		.loc 2 853 36 discriminator 3
 325 00a4 8366C4FE 		lwu	a3,-20(s0)
 326 00a8 8567     		li	a5,4096
 327 00aa 93870784 		addi	a5,a5,-1984
 328 00ae B697     		add	a5,a3,a5
 329 00b0 8A07     		slli	a5,a5,2
 330 00b2 BA97     		add	a5,a4,a5
 331 00b4 23A00700 		sw	zero,0(a5)
 854:/home/vinay/Desktop/softconsole_watershed/Water-shed/src/platform/mpfs_hal/common/mss_plic.h ****         PLIC->HART2_MMODE_ENA[inc] = 0U;
 332              		.loc 2 854 13 discriminator 3
 333 00b8 3707000C 		li	a4,201326592
 334              		.loc 2 854 36 discriminator 3
 335 00bc 8366C4FE 		lwu	a3,-20(s0)
 336 00c0 8567     		li	a5,4096
 337 00c2 93870786 		addi	a5,a5,-1952
 338 00c6 B697     		add	a5,a3,a5
 339 00c8 8A07     		slli	a5,a5,2
 340 00ca BA97     		add	a5,a4,a5
 341 00cc 23A00700 		sw	zero,0(a5)
 855:/home/vinay/Desktop/softconsole_watershed/Water-shed/src/platform/mpfs_hal/common/mss_plic.h ****         PLIC->HART2_SMODE_ENA[inc] = 0U;
 342              		.loc 2 855 13 discriminator 3
 343 00d0 3707000C 		li	a4,201326592
 344              		.loc 2 855 36 discriminator 3
 345 00d4 8366C4FE 		lwu	a3,-20(s0)
 346 00d8 8567     		li	a5,4096
 347 00da 93870788 		addi	a5,a5,-1920
 348 00de B697     		add	a5,a3,a5
 349 00e0 8A07     		slli	a5,a5,2
 350 00e2 BA97     		add	a5,a4,a5
 351 00e4 23A00700 		sw	zero,0(a5)
 856:/home/vinay/Desktop/softconsole_watershed/Water-shed/src/platform/mpfs_hal/common/mss_plic.h ****         PLIC->HART3_MMODE_ENA[inc] = 0U;
 352              		.loc 2 856 13 discriminator 3
 353 00e8 3707000C 		li	a4,201326592
 354              		.loc 2 856 36 discriminator 3
 355 00ec 8366C4FE 		lwu	a3,-20(s0)
 356 00f0 8567     		li	a5,4096
 357 00f2 9387078A 		addi	a5,a5,-1888
 358 00f6 B697     		add	a5,a3,a5
 359 00f8 8A07     		slli	a5,a5,2
 360 00fa BA97     		add	a5,a4,a5
 361 00fc 23A00700 		sw	zero,0(a5)
 857:/home/vinay/Desktop/softconsole_watershed/Water-shed/src/platform/mpfs_hal/common/mss_plic.h ****         PLIC->HART3_SMODE_ENA[inc] = 0U;
 362              		.loc 2 857 13 discriminator 3
 363 0100 3707000C 		li	a4,201326592
 364              		.loc 2 857 36 discriminator 3
 365 0104 8366C4FE 		lwu	a3,-20(s0)
 366 0108 8567     		li	a5,4096
 367 010a 9387078C 		addi	a5,a5,-1856
 368 010e B697     		add	a5,a3,a5
 369 0110 8A07     		slli	a5,a5,2
 370 0112 BA97     		add	a5,a4,a5
 371 0114 23A00700 		sw	zero,0(a5)
 858:/home/vinay/Desktop/softconsole_watershed/Water-shed/src/platform/mpfs_hal/common/mss_plic.h ****         PLIC->HART4_MMODE_ENA[inc] = 0U;
 372              		.loc 2 858 13 discriminator 3
 373 0118 3707000C 		li	a4,201326592
 374              		.loc 2 858 36 discriminator 3
 375 011c 8366C4FE 		lwu	a3,-20(s0)
 376 0120 8567     		li	a5,4096
 377 0122 9387078E 		addi	a5,a5,-1824
 378 0126 B697     		add	a5,a3,a5
 379 0128 8A07     		slli	a5,a5,2
 380 012a BA97     		add	a5,a4,a5
 381 012c 23A00700 		sw	zero,0(a5)
 859:/home/vinay/Desktop/softconsole_watershed/Water-shed/src/platform/mpfs_hal/common/mss_plic.h ****         PLIC->HART4_SMODE_ENA[inc] = 0U;
 382              		.loc 2 859 13 discriminator 3
 383 0130 3707000C 		li	a4,201326592
 384              		.loc 2 859 36 discriminator 3
 385 0134 8366C4FE 		lwu	a3,-20(s0)
 386 0138 8567     		li	a5,4096
 387 013a 93870790 		addi	a5,a5,-1792
 388 013e B697     		add	a5,a3,a5
 389 0140 8A07     		slli	a5,a5,2
 390 0142 BA97     		add	a5,a4,a5
 391 0144 23A00700 		sw	zero,0(a5)
 849:/home/vinay/Desktop/softconsole_watershed/Water-shed/src/platform/mpfs_hal/common/mss_plic.h ****     {
 392              		.loc 2 849 52 discriminator 3
 393 0148 8327C4FE 		lw	a5,-20(s0)
 394 014c 8527     		addiw	a5,a5,1
 395 014e 2326F4FE 		sw	a5,-20(s0)
 396              	.L16:
 849:/home/vinay/Desktop/softconsole_watershed/Water-shed/src/platform/mpfs_hal/common/mss_plic.h ****     {
 397              		.loc 2 849 5 discriminator 1
 398 0152 8327C4FE 		lw	a5,-20(s0)
 399 0156 1B870700 		sext.w	a4,a5
 400 015a 9547     		li	a5,5
 401 015c E3FAE7F0 		bleu	a4,a5,.L17
 860:/home/vinay/Desktop/softconsole_watershed/Water-shed/src/platform/mpfs_hal/common/mss_plic.h ****     }
 861:/home/vinay/Desktop/softconsole_watershed/Water-shed/src/platform/mpfs_hal/common/mss_plic.h **** 
 862:/home/vinay/Desktop/softconsole_watershed/Water-shed/src/platform/mpfs_hal/common/mss_plic.h ****     /* clear any pending interrupts- in case already there */
 863:/home/vinay/Desktop/softconsole_watershed/Water-shed/src/platform/mpfs_hal/common/mss_plic.h ****     PLIC_ClearPendingIRQ();
 402              		.loc 2 863 5
 403 0160 97000000 		call	PLIC_ClearPendingIRQ
 403      E7800000 
 864:/home/vinay/Desktop/softconsole_watershed/Water-shed/src/platform/mpfs_hal/common/mss_plic.h **** }
 404              		.loc 2 864 1
 405 0168 0100     		nop
 406 016a E260     		ld	ra,24(sp)
 407              		.cfi_restore 1
 408 016c 4264     		ld	s0,16(sp)
 409              		.cfi_restore 8
 410              		.cfi_def_cfa 2, 32
 411 016e 0561     		addi	sp,sp,32
 412              		.cfi_def_cfa_offset 0
 413 0170 8280     		jr	ra
 414              		.cfi_endproc
 415              	.LFE16:
 417              		.section	.text.main_first_hart,"ax",@progbits
 418              		.align	1
 419              		.weak	main_first_hart
 421              	main_first_hart:
 422              	.LFB20:
 423              		.file 3 "../src/platform/mpfs_hal/startup_gcc/system_startup.c"
   1:../src/platform/mpfs_hal/startup_gcc/system_startup.c **** /******************************************************************************************
   2:../src/platform/mpfs_hal/startup_gcc/system_startup.c ****  * Copyright 2019-2022 Microchip FPGA Embedded Systems Solutions.
   3:../src/platform/mpfs_hal/startup_gcc/system_startup.c ****  *
   4:../src/platform/mpfs_hal/startup_gcc/system_startup.c ****  * SPDX-License-Identifier: MIT
   5:../src/platform/mpfs_hal/startup_gcc/system_startup.c ****  *
   6:../src/platform/mpfs_hal/startup_gcc/system_startup.c ****  * Permission is hereby granted, free of charge, to any person obtaining a copy
   7:../src/platform/mpfs_hal/startup_gcc/system_startup.c ****  * of this software and associated documentation files (the "Software"), to
   8:../src/platform/mpfs_hal/startup_gcc/system_startup.c ****  * deal in the Software without restriction, including without limitation the
   9:../src/platform/mpfs_hal/startup_gcc/system_startup.c ****  * rights to use, copy, modify, merge, publish, distribute, sublicense, and/or
  10:../src/platform/mpfs_hal/startup_gcc/system_startup.c ****  * sell copies of the Software, and to permit persons to whom the Software is
  11:../src/platform/mpfs_hal/startup_gcc/system_startup.c ****  * furnished to do so, subject to the following conditions:
  12:../src/platform/mpfs_hal/startup_gcc/system_startup.c ****  *
  13:../src/platform/mpfs_hal/startup_gcc/system_startup.c ****  * The above copyright notice and this permission notice shall be included in
  14:../src/platform/mpfs_hal/startup_gcc/system_startup.c ****  * all copies or substantial portions of the Software.
  15:../src/platform/mpfs_hal/startup_gcc/system_startup.c ****  *
  16:../src/platform/mpfs_hal/startup_gcc/system_startup.c ****  * THE SOFTWARE IS PROVIDED "AS IS", WITHOUT WARRANTY OF ANY KIND, EXPRESS OR
  17:../src/platform/mpfs_hal/startup_gcc/system_startup.c ****  * IMPLIED, INCLUDING BUT NOT LIMITED TO THE WARRANTIES OF MERCHANTABILITY,
  18:../src/platform/mpfs_hal/startup_gcc/system_startup.c ****  * FITNESS FOR A PARTICULAR PURPOSE AND NONINFRINGEMENT. IN NO EVENT SHALL THE
  19:../src/platform/mpfs_hal/startup_gcc/system_startup.c ****  * AUTHORS OR COPYRIGHT HOLDERS BE LIABLE FOR ANY CLAIM, DAMAGES OR OTHER
  20:../src/platform/mpfs_hal/startup_gcc/system_startup.c ****  * LIABILITY, WHETHER IN AN ACTION OF CONTRACT, TORT OR OTHERWISE, ARISING
  21:../src/platform/mpfs_hal/startup_gcc/system_startup.c ****  * FROM, OUT OF OR IN CONNECTION WITH THE SOFTWARE OR THE USE OR OTHER DEALINGS
  22:../src/platform/mpfs_hal/startup_gcc/system_startup.c ****  * IN THE SOFTWARE.
  23:../src/platform/mpfs_hal/startup_gcc/system_startup.c ****  */
  24:../src/platform/mpfs_hal/startup_gcc/system_startup.c **** /***************************************************************************
  25:../src/platform/mpfs_hal/startup_gcc/system_startup.c ****  * @file system_startup.c
  26:../src/platform/mpfs_hal/startup_gcc/system_startup.c ****  * @author Microchip-FPGA Embedded Systems Solutions
  27:../src/platform/mpfs_hal/startup_gcc/system_startup.c ****  * @brief first C code called on startup. Will call user code created outside
  28:../src/platform/mpfs_hal/startup_gcc/system_startup.c ****  * the HAL.
  29:../src/platform/mpfs_hal/startup_gcc/system_startup.c ****  */
  30:../src/platform/mpfs_hal/startup_gcc/system_startup.c **** #include <stddef.h>
  31:../src/platform/mpfs_hal/startup_gcc/system_startup.c **** #include <stdbool.h>
  32:../src/platform/mpfs_hal/startup_gcc/system_startup.c **** #include "mpfs_hal/mss_hal.h"
  33:../src/platform/mpfs_hal/startup_gcc/system_startup.c **** #ifdef  MPFS_HAL_HW_CONFIG
  34:../src/platform/mpfs_hal/startup_gcc/system_startup.c **** #include "../common/nwc/mss_nwc_init.h"
  35:../src/platform/mpfs_hal/startup_gcc/system_startup.c **** #endif
  36:../src/platform/mpfs_hal/startup_gcc/system_startup.c **** #include "system_startup_defs.h"
  37:../src/platform/mpfs_hal/startup_gcc/system_startup.c **** 
  38:../src/platform/mpfs_hal/startup_gcc/system_startup.c **** 
  39:../src/platform/mpfs_hal/startup_gcc/system_startup.c **** /*==============================================================================
  40:../src/platform/mpfs_hal/startup_gcc/system_startup.c ****  * This function is called by the lowest enabled hart (MPFS_HAL_FIRST_HART) in
  41:../src/platform/mpfs_hal/startup_gcc/system_startup.c ****  * the configuration file :
  42:../src/platform/mpfs_hal/startup_gcc/system_startup.c ****  * (src/boards/<my-board/platform_config/mpfs_hal_config/mss_sw_config.h )
  43:../src/platform/mpfs_hal/startup_gcc/system_startup.c ****  *
  44:../src/platform/mpfs_hal/startup_gcc/system_startup.c ****  * The other harts up to MPFS_HAL_LAST_HART are placed in wfi at this point.
  45:../src/platform/mpfs_hal/startup_gcc/system_startup.c ****  * This function brings them out of wfi in sequence.
  46:../src/platform/mpfs_hal/startup_gcc/system_startup.c ****  * If you need to modify this function, create your own one in a user directory
  47:../src/platform/mpfs_hal/startup_gcc/system_startup.c ****  * space
  48:../src/platform/mpfs_hal/startup_gcc/system_startup.c ****  * e.g. /hart0/e51.c
  49:../src/platform/mpfs_hal/startup_gcc/system_startup.c ****  */
  50:../src/platform/mpfs_hal/startup_gcc/system_startup.c **** #if (IMAGE_LOADED_BY_BOOTLOADER == 0)
  51:../src/platform/mpfs_hal/startup_gcc/system_startup.c **** __attribute__((weak)) int main_first_hart(HLS_DATA* hls)
  52:../src/platform/mpfs_hal/startup_gcc/system_startup.c **** {
 424              		.loc 3 52 1
 425              		.cfi_startproc
 426 0000 5D71     		addi	sp,sp,-80
 427              		.cfi_def_cfa_offset 80
 428 0002 86E4     		sd	ra,72(sp)
 429 0004 A2E0     		sd	s0,64(sp)
 430              		.cfi_offset 1, -8
 431              		.cfi_offset 8, -16
 432 0006 8008     		addi	s0,sp,80
 433              		.cfi_def_cfa 8, 0
 434 0008 233CA4FA 		sd	a0,-72(s0)
 435              	.LBB4:
  53:../src/platform/mpfs_hal/startup_gcc/system_startup.c ****     uint64_t hartid = read_csr(mhartid);
 436              		.loc 3 53 23
 437              	 #APP
 438              	# 53 "../src/platform/mpfs_hal/startup_gcc/system_startup.c" 1
  54              	
 439              		csrr a5, mhartid
 440              	# 0 "" 2
 441              	 #NO_APP
 442 0010 2338F4FC 		sd	a5,-48(s0)
 443 0014 833704FD 		ld	a5,-48(s0)
 444              	.LBE4:
  53:../src/platform/mpfs_hal/startup_gcc/system_startup.c ****     uint64_t hartid = read_csr(mhartid);
 445              		.loc 3 53 14
 446 0018 2334F4FC 		sd	a5,-56(s0)
  55:../src/platform/mpfs_hal/startup_gcc/system_startup.c ****     if(hartid == MPFS_HAL_FIRST_HART)
 447              		.loc 3 55 7
 448 001c 833784FC 		ld	a5,-56(s0)
 449 0020 639A0728 		bne	a5,zero,.L19
 450              	.LBB5:
  56:../src/platform/mpfs_hal/startup_gcc/system_startup.c ****     {
  57:../src/platform/mpfs_hal/startup_gcc/system_startup.c ****         uint8_t hart_id;
  58:../src/platform/mpfs_hal/startup_gcc/system_startup.c ****         ptrdiff_t stack_top;
  59:../src/platform/mpfs_hal/startup_gcc/system_startup.c **** 
  60:../src/platform/mpfs_hal/startup_gcc/system_startup.c ****         /*
  61:../src/platform/mpfs_hal/startup_gcc/system_startup.c ****          * We only use code within the conditional compile
  62:../src/platform/mpfs_hal/startup_gcc/system_startup.c ****          * #ifdef MPFS_HAL_HW_CONFIG
  63:../src/platform/mpfs_hal/startup_gcc/system_startup.c ****          * if this program is used as part of the initial board bring-up
  64:../src/platform/mpfs_hal/startup_gcc/system_startup.c ****          * Please comment/uncomment MPFS_HAL_HW_CONFIG define in
  65:../src/platform/mpfs_hal/startup_gcc/system_startup.c ****          * src/boards/<my-board/platform_config/mpfs_hal_config/sw_config.h
  66:../src/platform/mpfs_hal/startup_gcc/system_startup.c ****          * as required.
  67:../src/platform/mpfs_hal/startup_gcc/system_startup.c ****          */
  68:../src/platform/mpfs_hal/startup_gcc/system_startup.c **** #ifdef  MPFS_HAL_HW_CONFIG
  69:../src/platform/mpfs_hal/startup_gcc/system_startup.c ****         config_l2_cache();
 451              		.loc 3 69 9
 452 0024 97000000 		call	config_l2_cache
 452      E7800000 
  70:../src/platform/mpfs_hal/startup_gcc/system_startup.c **** #endif  /* MPFS_HAL_HW_CONFIG */
  71:../src/platform/mpfs_hal/startup_gcc/system_startup.c **** 
  72:../src/platform/mpfs_hal/startup_gcc/system_startup.c ****         init_memory();
 453              		.loc 3 72 9
 454 002c 97000000 		call	init_memory
 454      E7800000 
  73:../src/platform/mpfs_hal/startup_gcc/system_startup.c **** #ifndef MPFS_HAL_HW_CONFIG
  74:../src/platform/mpfs_hal/startup_gcc/system_startup.c ****         hls->my_hart_id = MPFS_HAL_FIRST_HART;
  75:../src/platform/mpfs_hal/startup_gcc/system_startup.c **** #endif
  76:../src/platform/mpfs_hal/startup_gcc/system_startup.c **** #ifdef  MPFS_HAL_HW_CONFIG
  77:../src/platform/mpfs_hal/startup_gcc/system_startup.c ****         load_virtual_rom();
 455              		.loc 3 77 9
 456 0034 97000000 		call	load_virtual_rom
 456      E7800000 
  78:../src/platform/mpfs_hal/startup_gcc/system_startup.c ****         (void)init_bus_error_unit();
 457              		.loc 3 78 15
 458 003c 97000000 		call	init_bus_error_unit
 458      E7800000 
  79:../src/platform/mpfs_hal/startup_gcc/system_startup.c ****         (void)init_mem_protection_unit();
 459              		.loc 3 79 15
 460 0044 97000000 		call	init_mem_protection_unit
 460      E7800000 
  80:../src/platform/mpfs_hal/startup_gcc/system_startup.c ****         (void)init_pmp((uint8_t)MPFS_HAL_FIRST_HART);
 461              		.loc 3 80 15
 462 004c 0145     		li	a0,0
 463 004e 97000000 		call	init_pmp
 463      E7800000 
  81:../src/platform/mpfs_hal/startup_gcc/system_startup.c ****         (void)mss_set_apb_bus_cr((uint32_t)LIBERO_SETTING_APBBUS_CR);
 464              		.loc 3 81 9
 465 0056 0145     		li	a0,0
 466 0058 97000000 		call	mss_set_apb_bus_cr
 466      E7800000 
  82:../src/platform/mpfs_hal/startup_gcc/system_startup.c ****         (void)mss_set_gpio_interrupt_fab_cr((uint32_t)LIBERO_SETTING_GPIO_INTERRUPT_FAB_CR);
 467              		.loc 3 82 9
 468 0060 0145     		li	a0,0
 469 0062 97000000 		call	mss_set_gpio_interrupt_fab_cr
 469      E7800000 
  83:../src/platform/mpfs_hal/startup_gcc/system_startup.c **** #endif  /* MPFS_HAL_HW_CONFIG */
  84:../src/platform/mpfs_hal/startup_gcc/system_startup.c ****         /*
  85:../src/platform/mpfs_hal/startup_gcc/system_startup.c ****          * Initialise NWC
  86:../src/platform/mpfs_hal/startup_gcc/system_startup.c ****          *      Clocks
  87:../src/platform/mpfs_hal/startup_gcc/system_startup.c ****          *      SGMII
  88:../src/platform/mpfs_hal/startup_gcc/system_startup.c ****          *      DDR
  89:../src/platform/mpfs_hal/startup_gcc/system_startup.c ****          *      IOMUX
  90:../src/platform/mpfs_hal/startup_gcc/system_startup.c ****          */
  91:../src/platform/mpfs_hal/startup_gcc/system_startup.c **** #ifdef  MPFS_HAL_HW_CONFIG
  92:../src/platform/mpfs_hal/startup_gcc/system_startup.c ****         (void)mss_nwc_init();
 470              		.loc 3 92 15
 471 006a 97000000 		call	mss_nwc_init
 471      E7800000 
  93:../src/platform/mpfs_hal/startup_gcc/system_startup.c ****         (void)mss_nwc_init_ddr();
 472              		.loc 3 93 15
 473 0072 97000000 		call	mss_nwc_init_ddr
 473      E7800000 
  94:../src/platform/mpfs_hal/startup_gcc/system_startup.c **** 
  95:../src/platform/mpfs_hal/startup_gcc/system_startup.c ****         /* main hart init's the PLIC */
  96:../src/platform/mpfs_hal/startup_gcc/system_startup.c ****         PLIC_init_on_reset();
 474              		.loc 3 96 9
 475 007a 97000000 		call	PLIC_init_on_reset
 475      E7800000 
  97:../src/platform/mpfs_hal/startup_gcc/system_startup.c ****         /*
  98:../src/platform/mpfs_hal/startup_gcc/system_startup.c ****          * Start the other harts. They are put in wfi in entry.S
  99:../src/platform/mpfs_hal/startup_gcc/system_startup.c ****          * When debugging, harts are released from reset separately,
 100:../src/platform/mpfs_hal/startup_gcc/system_startup.c ****          * so we need to make sure hart is in wfi before we try and release.
 101:../src/platform/mpfs_hal/startup_gcc/system_startup.c ****         */
 102:../src/platform/mpfs_hal/startup_gcc/system_startup.c ****         stack_top = (ptrdiff_t)((uint8_t*)&__stack_top_h0$);
 476              		.loc 3 102 19
 477 0082 97070000 		lla	a5,__stack_top_h0$
 477      93870700 
 478 008a 2330F4FE 		sd	a5,-32(s0)
 103:../src/platform/mpfs_hal/startup_gcc/system_startup.c ****         hls = (HLS_DATA*)(stack_top - HLS_DEBUG_AREA_SIZE);
 479              		.loc 3 103 37
 480 008e 833704FE 		ld	a5,-32(s0)
 481 0092 938707FC 		addi	a5,a5,-64
 482              		.loc 3 103 13
 483 0096 233CF4FA 		sd	a5,-72(s0)
 104:../src/platform/mpfs_hal/startup_gcc/system_startup.c ****         hls->in_wfi_indicator = HLS_MAIN_HART_STARTED;
 484              		.loc 3 104 31
 485 009a 833784FB 		ld	a5,-72(s0)
 486 009e 37473412 		li	a4,305414144
 487 00a2 13071732 		addi	a4,a4,801
 488 00a6 98C3     		sw	a4,0(a5)
 105:../src/platform/mpfs_hal/startup_gcc/system_startup.c ****         hls->my_hart_id = MPFS_HAL_FIRST_HART;
 489              		.loc 3 105 25
 490 00a8 833784FB 		ld	a5,-72(s0)
 491 00ac 23A20700 		sw	zero,4(a5)
 106:../src/platform/mpfs_hal/startup_gcc/system_startup.c ****         WFI_SM sm_check_thread = INIT_THREAD_PR;
 492              		.loc 3 106 16
 493 00b0 232E04FC 		sw	zero,-36(s0)
 107:../src/platform/mpfs_hal/startup_gcc/system_startup.c ****         hart_id = MPFS_HAL_FIRST_HART + 1U;
 494              		.loc 3 107 17
 495 00b4 8547     		li	a5,1
 496 00b6 A307F4FE 		sb	a5,-17(s0)
 108:../src/platform/mpfs_hal/startup_gcc/system_startup.c ****         while( hart_id <= MPFS_HAL_LAST_HART)
 497              		.loc 3 108 14
 498 00ba 8DAA     		j	.L20
 499              	.L33:
 500              	.LBB6:
 109:../src/platform/mpfs_hal/startup_gcc/system_startup.c ****         {
 110:../src/platform/mpfs_hal/startup_gcc/system_startup.c ****             uint32_t wait_count = 0U;
 501              		.loc 3 110 22
 502 00bc 232204FC 		sw	zero,-60(s0)
 111:../src/platform/mpfs_hal/startup_gcc/system_startup.c **** 
 112:../src/platform/mpfs_hal/startup_gcc/system_startup.c ****             switch(sm_check_thread)
 503              		.loc 3 112 13
 504 00c0 8327C4FD 		lw	a5,-36(s0)
 505 00c4 1B870700 		sext.w	a4,a5
 506 00c8 8947     		li	a5,2
 507 00ca 6300F70C 		beq	a4,a5,.L21
 508 00ce 8327C4FD 		lw	a5,-36(s0)
 509 00d2 1B870700 		sext.w	a4,a5
 510 00d6 8D47     		li	a5,3
 511 00d8 630DF70C 		beq	a4,a5,.L22
 512 00dc 8327C4FD 		lw	a5,-36(s0)
 513 00e0 1B870700 		sext.w	a4,a5
 514 00e4 8547     		li	a5,1
 515 00e6 6303F708 		beq	a4,a5,.L23
 113:../src/platform/mpfs_hal/startup_gcc/system_startup.c ****             {
 114:../src/platform/mpfs_hal/startup_gcc/system_startup.c ****                 default:
 115:../src/platform/mpfs_hal/startup_gcc/system_startup.c ****                 case INIT_THREAD_PR:
 116:../src/platform/mpfs_hal/startup_gcc/system_startup.c **** 
 117:../src/platform/mpfs_hal/startup_gcc/system_startup.c ****                     switch (hart_id)
 516              		.loc 3 117 21
 517 00ea 8347F4FE 		lbu	a5,-17(s0)
 518 00ee 8127     		sext.w	a5,a5
 519 00f0 BE86     		mv	a3,a5
 520 00f2 0947     		li	a4,2
 521 00f4 638BE602 		beq	a3,a4,.L24
 522 00f8 BE86     		mv	a3,a5
 523 00fa 0947     		li	a4,2
 524 00fc 6347D700 		bgt	a3,a4,.L25
 525 0100 3E87     		mv	a4,a5
 526 0102 8547     		li	a5,1
 527 0104 630CF700 		beq	a4,a5,.L26
 528 0108 B1A0     		j	.L27
 529              	.L25:
 530 010a BE86     		mv	a3,a5
 531 010c 0D47     		li	a4,3
 532 010e 6385E602 		beq	a3,a4,.L28
 533 0112 3E87     		mv	a4,a5
 534 0114 9147     		li	a5,4
 535 0116 6308F702 		beq	a4,a5,.L29
 536 011a 2DA8     		j	.L27
 537              	.L26:
 118:../src/platform/mpfs_hal/startup_gcc/system_startup.c ****                     {
 119:../src/platform/mpfs_hal/startup_gcc/system_startup.c ****                         case 1:
 120:../src/platform/mpfs_hal/startup_gcc/system_startup.c ****                             stack_top = (ptrdiff_t)((uint8_t*)&__stack_top_h1$);
 538              		.loc 3 120 39
 539 011c 97070000 		lla	a5,__stack_top_h1$
 539      93870700 
 540 0124 2330F4FE 		sd	a5,-32(s0)
 121:../src/platform/mpfs_hal/startup_gcc/system_startup.c ****                             break;
 541              		.loc 3 121 29
 542 0128 35A0     		j	.L27
 543              	.L24:
 122:../src/platform/mpfs_hal/startup_gcc/system_startup.c ****                         case 2:
 123:../src/platform/mpfs_hal/startup_gcc/system_startup.c ****                             stack_top = (ptrdiff_t)((uint8_t*)&__stack_top_h2$);
 544              		.loc 3 123 39
 545 012a 97070000 		lla	a5,__stack_top_h2$
 545      93870700 
 546 0132 2330F4FE 		sd	a5,-32(s0)
 124:../src/platform/mpfs_hal/startup_gcc/system_startup.c ****                             break;
 547              		.loc 3 124 29
 548 0136 39A8     		j	.L27
 549              	.L28:
 125:../src/platform/mpfs_hal/startup_gcc/system_startup.c ****                         case 3:
 126:../src/platform/mpfs_hal/startup_gcc/system_startup.c ****                             stack_top = (ptrdiff_t)((uint8_t*)&__stack_top_h3$);
 550              		.loc 3 126 39
 551 0138 97070000 		lla	a5,__stack_top_h3$
 551      93870700 
 552 0140 2330F4FE 		sd	a5,-32(s0)
 127:../src/platform/mpfs_hal/startup_gcc/system_startup.c ****                             break;
 553              		.loc 3 127 29
 554 0144 01A8     		j	.L27
 555              	.L29:
 128:../src/platform/mpfs_hal/startup_gcc/system_startup.c ****                         case 4:
 129:../src/platform/mpfs_hal/startup_gcc/system_startup.c ****                             stack_top = (ptrdiff_t)((uint8_t*)&__stack_top_h4$);
 556              		.loc 3 129 39
 557 0146 97070000 		lla	a5,__stack_top_h4$
 557      93870700 
 558 014e 2330F4FE 		sd	a5,-32(s0)
 130:../src/platform/mpfs_hal/startup_gcc/system_startup.c ****                             break;
 559              		.loc 3 130 29
 560 0152 0100     		nop
 561              	.L27:
 131:../src/platform/mpfs_hal/startup_gcc/system_startup.c ****                     }
 132:../src/platform/mpfs_hal/startup_gcc/system_startup.c ****                     hls = (HLS_DATA*)(stack_top - HLS_DEBUG_AREA_SIZE);
 562              		.loc 3 132 49
 563 0154 833704FE 		ld	a5,-32(s0)
 564 0158 938707FC 		addi	a5,a5,-64
 565              		.loc 3 132 25
 566 015c 233CF4FA 		sd	a5,-72(s0)
 133:../src/platform/mpfs_hal/startup_gcc/system_startup.c ****                     sm_check_thread = CHECK_WFI;
 567              		.loc 3 133 37
 568 0160 8547     		li	a5,1
 569 0162 232EF4FC 		sw	a5,-36(s0)
 134:../src/platform/mpfs_hal/startup_gcc/system_startup.c ****                     wait_count = 0U;
 570              		.loc 3 134 32
 571 0166 232204FC 		sw	zero,-60(s0)
 135:../src/platform/mpfs_hal/startup_gcc/system_startup.c ****                     break;
 572              		.loc 3 135 21
 573 016a C9A0     		j	.L20
 574              	.L23:
 136:../src/platform/mpfs_hal/startup_gcc/system_startup.c **** 
 137:../src/platform/mpfs_hal/startup_gcc/system_startup.c ****                 case CHECK_WFI:
 138:../src/platform/mpfs_hal/startup_gcc/system_startup.c ****                     if( hls->in_wfi_indicator == HLS_OTHER_HART_IN_WFI )
 575              		.loc 3 138 28
 576 016c 833784FB 		ld	a5,-72(s0)
 577 0170 9C43     		lw	a5,0(a5)
 578 0172 8127     		sext.w	a5,a5
 579              		.loc 3 138 23
 580 0174 3E87     		mv	a4,a5
 581 0176 B7573412 		li	a5,305418240
 582 017a 93878767 		addi	a5,a5,1656
 583 017e 6317F70A 		bne	a4,a5,.L20
 139:../src/platform/mpfs_hal/startup_gcc/system_startup.c ****                     {
 140:../src/platform/mpfs_hal/startup_gcc/system_startup.c ****                         /* Separate state- to add a little delay */
 141:../src/platform/mpfs_hal/startup_gcc/system_startup.c ****                         sm_check_thread = SEND_WFI;
 584              		.loc 3 141 41
 585 0182 8947     		li	a5,2
 586 0184 232EF4FC 		sw	a5,-36(s0)
 142:../src/platform/mpfs_hal/startup_gcc/system_startup.c ****                     }
 143:../src/platform/mpfs_hal/startup_gcc/system_startup.c ****                     break;
 587              		.loc 3 143 21
 588 0188 55A0     		j	.L20
 589              	.L21:
 144:../src/platform/mpfs_hal/startup_gcc/system_startup.c **** 
 145:../src/platform/mpfs_hal/startup_gcc/system_startup.c ****                 case SEND_WFI:
 146:../src/platform/mpfs_hal/startup_gcc/system_startup.c ****                     hls->my_hart_id = hart_id; /* record hartid locally */
 590              		.loc 3 146 37
 591 018a 8347F4FE 		lbu	a5,-17(s0)
 592 018e 1B870700 		sext.w	a4,a5
 593 0192 833784FB 		ld	a5,-72(s0)
 594 0196 D8C3     		sw	a4,4(a5)
 147:../src/platform/mpfs_hal/startup_gcc/system_startup.c ****                     raise_soft_interrupt(hart_id);
 595              		.loc 3 147 21
 596 0198 8347F4FE 		lbu	a5,-17(s0)
 597 019c 3E85     		mv	a0,a5
 598 019e 97000000 		call	raise_soft_interrupt
 598      E7800000 
 148:../src/platform/mpfs_hal/startup_gcc/system_startup.c ****                     sm_check_thread = CHECK_WAKE;
 599              		.loc 3 148 37
 600 01a6 8D47     		li	a5,3
 601 01a8 232EF4FC 		sw	a5,-36(s0)
 149:../src/platform/mpfs_hal/startup_gcc/system_startup.c ****                     wait_count = 0UL;
 602              		.loc 3 149 32
 603 01ac 232204FC 		sw	zero,-60(s0)
 150:../src/platform/mpfs_hal/startup_gcc/system_startup.c ****                     break;
 604              		.loc 3 150 21
 605 01b0 B5A8     		j	.L20
 606              	.L22:
 151:../src/platform/mpfs_hal/startup_gcc/system_startup.c **** 
 152:../src/platform/mpfs_hal/startup_gcc/system_startup.c ****                 case CHECK_WAKE:
 153:../src/platform/mpfs_hal/startup_gcc/system_startup.c ****                     if( hls->in_wfi_indicator == HLS_OTHER_HART_PASSED_WFI )
 607              		.loc 3 153 28
 608 01b2 833784FB 		ld	a5,-72(s0)
 609 01b6 9C43     		lw	a5,0(a5)
 610 01b8 8127     		sext.w	a5,a5
 611              		.loc 3 153 23
 612 01ba 3E87     		mv	a4,a5
 613 01bc B7476587 		li	a5,-2023407616
 614 01c0 93871732 		addi	a5,a5,801
 615 01c4 631CF700 		bne	a4,a5,.L31
 154:../src/platform/mpfs_hal/startup_gcc/system_startup.c ****                     {
 155:../src/platform/mpfs_hal/startup_gcc/system_startup.c ****                         sm_check_thread = INIT_THREAD_PR;
 616              		.loc 3 155 41
 617 01c8 232E04FC 		sw	zero,-36(s0)
 156:../src/platform/mpfs_hal/startup_gcc/system_startup.c ****                         hart_id++;
 618              		.loc 3 156 32
 619 01cc 8347F4FE 		lbu	a5,-17(s0)
 620 01d0 8527     		addiw	a5,a5,1
 621 01d2 A307F4FE 		sb	a5,-17(s0)
 157:../src/platform/mpfs_hal/startup_gcc/system_startup.c ****                         wait_count = 0UL;
 622              		.loc 3 157 36
 623 01d6 232204FC 		sw	zero,-60(s0)
 624 01da 81A8     		j	.L34
 625              	.L31:
 158:../src/platform/mpfs_hal/startup_gcc/system_startup.c ****                     }
 159:../src/platform/mpfs_hal/startup_gcc/system_startup.c ****                     else
 160:../src/platform/mpfs_hal/startup_gcc/system_startup.c ****                     {
 161:../src/platform/mpfs_hal/startup_gcc/system_startup.c ****                         wait_count++;
 626              		.loc 3 161 35
 627 01dc 832744FC 		lw	a5,-60(s0)
 628 01e0 8527     		addiw	a5,a5,1
 629 01e2 2322F4FC 		sw	a5,-60(s0)
 162:../src/platform/mpfs_hal/startup_gcc/system_startup.c ****                         if(wait_count > 0x10U)
 630              		.loc 3 162 27
 631 01e6 832744FC 		lw	a5,-60(s0)
 632 01ea 1B870700 		sext.w	a4,a5
 633 01ee C147     		li	a5,16
 634 01f0 63FDE702 		bleu	a4,a5,.L34
 163:../src/platform/mpfs_hal/startup_gcc/system_startup.c ****                         {
 164:../src/platform/mpfs_hal/startup_gcc/system_startup.c ****                             if( hls->in_wfi_indicator == HLS_OTHER_HART_IN_WFI )
 635              		.loc 3 164 36
 636 01f4 833784FB 		ld	a5,-72(s0)
 637 01f8 9C43     		lw	a5,0(a5)
 638 01fa 8127     		sext.w	a5,a5
 639              		.loc 3 164 31
 640 01fc 3E87     		mv	a4,a5
 641 01fe B7573412 		li	a5,305418240
 642 0202 93878767 		addi	a5,a5,1656
 643 0206 6312F702 		bne	a4,a5,.L34
 165:../src/platform/mpfs_hal/startup_gcc/system_startup.c ****                             {
 166:../src/platform/mpfs_hal/startup_gcc/system_startup.c ****                                 hls->my_hart_id = hart_id; /* record hartid locally */
 644              		.loc 3 166 49
 645 020a 8347F4FE 		lbu	a5,-17(s0)
 646 020e 1B870700 		sext.w	a4,a5
 647 0212 833784FB 		ld	a5,-72(s0)
 648 0216 D8C3     		sw	a4,4(a5)
 167:../src/platform/mpfs_hal/startup_gcc/system_startup.c ****                                 raise_soft_interrupt(hart_id);
 649              		.loc 3 167 33
 650 0218 8347F4FE 		lbu	a5,-17(s0)
 651 021c 3E85     		mv	a0,a5
 652 021e 97000000 		call	raise_soft_interrupt
 652      E7800000 
 168:../src/platform/mpfs_hal/startup_gcc/system_startup.c ****                                 wait_count = 0UL;
 653              		.loc 3 168 44
 654 0226 232204FC 		sw	zero,-60(s0)
 655              	.L34:
 169:../src/platform/mpfs_hal/startup_gcc/system_startup.c ****                             }
 170:../src/platform/mpfs_hal/startup_gcc/system_startup.c ****                         }
 171:../src/platform/mpfs_hal/startup_gcc/system_startup.c ****                     }
 172:../src/platform/mpfs_hal/startup_gcc/system_startup.c ****                     break;
 656              		.loc 3 172 21
 657 022a 0100     		nop
 658              	.L20:
 659              	.LBE6:
 108:../src/platform/mpfs_hal/startup_gcc/system_startup.c ****         {
 660              		.loc 3 108 14
 661 022c 8347F4FE 		lbu	a5,-17(s0)
 662 0230 13F7F70F 		andi	a4,a5,0xff
 663 0234 9147     		li	a5,4
 664 0236 E3F3E7E8 		bleu	a4,a5,.L33
 173:../src/platform/mpfs_hal/startup_gcc/system_startup.c ****             }
 174:../src/platform/mpfs_hal/startup_gcc/system_startup.c ****         }
 175:../src/platform/mpfs_hal/startup_gcc/system_startup.c ****         stack_top = (ptrdiff_t)((uint8_t*)&__stack_top_h0$);
 665              		.loc 3 175 19
 666 023a 97070000 		lla	a5,__stack_top_h0$
 666      93870700 
 667 0242 2330F4FE 		sd	a5,-32(s0)
 176:../src/platform/mpfs_hal/startup_gcc/system_startup.c ****         hls = (HLS_DATA*)(stack_top - HLS_DEBUG_AREA_SIZE);
 668              		.loc 3 176 37
 669 0246 833704FE 		ld	a5,-32(s0)
 670 024a 938707FC 		addi	a5,a5,-64
 671              		.loc 3 176 13
 672 024e 233CF4FA 		sd	a5,-72(s0)
 177:../src/platform/mpfs_hal/startup_gcc/system_startup.c ****         hls->in_wfi_indicator = HLS_MAIN_HART_FIN_INIT;
 673              		.loc 3 177 31
 674 0252 833784FB 		ld	a5,-72(s0)
 675 0256 37575555 		li	a4,1431654400
 676 025a 13075755 		addi	a4,a4,1365
 677 025e 98C3     		sw	a4,0(a5)
 178:../src/platform/mpfs_hal/startup_gcc/system_startup.c **** 
 179:../src/platform/mpfs_hal/startup_gcc/system_startup.c ****         /*
 180:../src/platform/mpfs_hal/startup_gcc/system_startup.c ****          * Turn on fic interfaces by default. Drivers will turn on/off other MSS
 181:../src/platform/mpfs_hal/startup_gcc/system_startup.c ****          * peripherals as required.
 182:../src/platform/mpfs_hal/startup_gcc/system_startup.c ****          */
 183:../src/platform/mpfs_hal/startup_gcc/system_startup.c ****         (void)mss_config_clk_rst(MSS_PERIPH_FIC0, (uint8_t)MPFS_HAL_FIRST_HART, PERIPHERAL_ON);
 678              		.loc 3 183 15
 679 0260 0146     		li	a2,0
 680 0262 8145     		li	a1,0
 681 0264 13050002 		li	a0,32
 682 0268 97000000 		call	mss_config_clk_rst
 682      E7800000 
 184:../src/platform/mpfs_hal/startup_gcc/system_startup.c ****         (void)mss_config_clk_rst(MSS_PERIPH_FIC1, (uint8_t)MPFS_HAL_FIRST_HART, PERIPHERAL_ON);
 683              		.loc 3 184 15
 684 0270 0146     		li	a2,0
 685 0272 8145     		li	a1,0
 686 0274 13051002 		li	a0,33
 687 0278 97000000 		call	mss_config_clk_rst
 687      E7800000 
 185:../src/platform/mpfs_hal/startup_gcc/system_startup.c ****         (void)mss_config_clk_rst(MSS_PERIPH_FIC2, (uint8_t)MPFS_HAL_FIRST_HART, PERIPHERAL_ON);
 688              		.loc 3 185 15
 689 0280 0146     		li	a2,0
 690 0282 8145     		li	a1,0
 691 0284 13052002 		li	a0,34
 692 0288 97000000 		call	mss_config_clk_rst
 692      E7800000 
 186:../src/platform/mpfs_hal/startup_gcc/system_startup.c ****         (void)mss_config_clk_rst(MSS_PERIPH_FIC3, (uint8_t)MPFS_HAL_FIRST_HART, PERIPHERAL_ON);
 693              		.loc 3 186 15
 694 0290 0146     		li	a2,0
 695 0292 8145     		li	a1,0
 696 0294 13053002 		li	a0,35
 697 0298 97000000 		call	mss_config_clk_rst
 697      E7800000 
 187:../src/platform/mpfs_hal/startup_gcc/system_startup.c ****         /* enable the fabric */
 188:../src/platform/mpfs_hal/startup_gcc/system_startup.c ****         mss_enable_fabric();
 698              		.loc 3 188 9
 699 02a0 97000000 		call	mss_enable_fabric
 699      E7800000 
 189:../src/platform/mpfs_hal/startup_gcc/system_startup.c **** 
 190:../src/platform/mpfs_hal/startup_gcc/system_startup.c **** #endif /* MPFS_HAL_HW_CONFIG */
 191:../src/platform/mpfs_hal/startup_gcc/system_startup.c ****         (void)main_other_hart(hls);
 700              		.loc 3 191 15
 701 02a8 033584FB 		ld	a0,-72(s0)
 702 02ac 97000000 		call	main_other_hart
 702      E7800000 
 703              	.L19:
 704              	.LBE5:
 705              		.cfi_endproc
 706              	.LFE20:
 708              		.section	.text.main_other_hart,"ax",@progbits
 709              		.align	1
 710              		.weak	main_other_hart
 712              	main_other_hart:
 713              	.LFB21:
 192:../src/platform/mpfs_hal/startup_gcc/system_startup.c ****     }
 193:../src/platform/mpfs_hal/startup_gcc/system_startup.c **** 
 194:../src/platform/mpfs_hal/startup_gcc/system_startup.c ****     __builtin_unreachable();
 195:../src/platform/mpfs_hal/startup_gcc/system_startup.c ****     /* should never get here */
 196:../src/platform/mpfs_hal/startup_gcc/system_startup.c ****     while(true)
 197:../src/platform/mpfs_hal/startup_gcc/system_startup.c ****     {
 198:../src/platform/mpfs_hal/startup_gcc/system_startup.c ****        static volatile uint64_t counter = 0U;
 199:../src/platform/mpfs_hal/startup_gcc/system_startup.c ****        /* Added some code as debugger hangs if in loop doing nothing */
 200:../src/platform/mpfs_hal/startup_gcc/system_startup.c ****        counter = counter + 1U;
 201:../src/platform/mpfs_hal/startup_gcc/system_startup.c ****     }
 202:../src/platform/mpfs_hal/startup_gcc/system_startup.c **** 
 203:../src/platform/mpfs_hal/startup_gcc/system_startup.c ****     return (0);
 204:../src/platform/mpfs_hal/startup_gcc/system_startup.c **** }
 205:../src/platform/mpfs_hal/startup_gcc/system_startup.c **** #endif
 206:../src/platform/mpfs_hal/startup_gcc/system_startup.c **** 
 207:../src/platform/mpfs_hal/startup_gcc/system_startup.c **** /*==============================================================================
 208:../src/platform/mpfs_hal/startup_gcc/system_startup.c ****  * This function is called by the lowest enabled hart (MPFS_HAL_FIRST_HART) in
 209:../src/platform/mpfs_hal/startup_gcc/system_startup.c ****  * the configuration file :
 210:../src/platform/mpfs_hal/startup_gcc/system_startup.c ****  * (src/boards/<my-board/platform_config/mpfs_hal_config/mss_sw_config.h )
 211:../src/platform/mpfs_hal/startup_gcc/system_startup.c ****  *
 212:../src/platform/mpfs_hal/startup_gcc/system_startup.c ****  * The other harts up to MPFS_HAL_LAST_HART are placed in wfi at this point.
 213:../src/platform/mpfs_hal/startup_gcc/system_startup.c ****  * This function brings them out of wfi in sequence.
 214:../src/platform/mpfs_hal/startup_gcc/system_startup.c ****  * If you need to modify this function, create your own one in a user directory
 215:../src/platform/mpfs_hal/startup_gcc/system_startup.c ****  * space
 216:../src/platform/mpfs_hal/startup_gcc/system_startup.c ****  * e.g. /hart0/e51.c
 217:../src/platform/mpfs_hal/startup_gcc/system_startup.c ****  */
 218:../src/platform/mpfs_hal/startup_gcc/system_startup.c **** #if (IMAGE_LOADED_BY_BOOTLOADER == 1)
 219:../src/platform/mpfs_hal/startup_gcc/system_startup.c **** 
 220:../src/platform/mpfs_hal/startup_gcc/system_startup.c **** __attribute__((weak)) int main_first_hart_app(HLS_DATA* hls)
 221:../src/platform/mpfs_hal/startup_gcc/system_startup.c **** {
 222:../src/platform/mpfs_hal/startup_gcc/system_startup.c ****     uint64_t hartid = read_csr(mhartid);
 223:../src/platform/mpfs_hal/startup_gcc/system_startup.c **** 
 224:../src/platform/mpfs_hal/startup_gcc/system_startup.c ****     if(hartid == MPFS_HAL_FIRST_HART)
 225:../src/platform/mpfs_hal/startup_gcc/system_startup.c ****     {
 226:../src/platform/mpfs_hal/startup_gcc/system_startup.c ****         uint8_t hart_id;
 227:../src/platform/mpfs_hal/startup_gcc/system_startup.c ****         ptrdiff_t stack_top;
 228:../src/platform/mpfs_hal/startup_gcc/system_startup.c **** 
 229:../src/platform/mpfs_hal/startup_gcc/system_startup.c ****         init_memory();
 230:../src/platform/mpfs_hal/startup_gcc/system_startup.c **** 
 231:../src/platform/mpfs_hal/startup_gcc/system_startup.c ****         hls->my_hart_id = MPFS_HAL_FIRST_HART;
 232:../src/platform/mpfs_hal/startup_gcc/system_startup.c ****         hls->in_wfi_indicator = HLS_MAIN_HART_STARTED;
 233:../src/platform/mpfs_hal/startup_gcc/system_startup.c ****         WFI_SM sm_check_thread = INIT_THREAD_PR;
 234:../src/platform/mpfs_hal/startup_gcc/system_startup.c ****         hart_id = MPFS_HAL_FIRST_HART + 1U;
 235:../src/platform/mpfs_hal/startup_gcc/system_startup.c ****         while( hart_id <= MPFS_HAL_LAST_HART)
 236:../src/platform/mpfs_hal/startup_gcc/system_startup.c ****         {
 237:../src/platform/mpfs_hal/startup_gcc/system_startup.c ****             uint32_t wait_count = 0U;
 238:../src/platform/mpfs_hal/startup_gcc/system_startup.c **** 
 239:../src/platform/mpfs_hal/startup_gcc/system_startup.c ****             switch(sm_check_thread)
 240:../src/platform/mpfs_hal/startup_gcc/system_startup.c ****             {
 241:../src/platform/mpfs_hal/startup_gcc/system_startup.c ****                 default:
 242:../src/platform/mpfs_hal/startup_gcc/system_startup.c ****                 case INIT_THREAD_PR:
 243:../src/platform/mpfs_hal/startup_gcc/system_startup.c **** 
 244:../src/platform/mpfs_hal/startup_gcc/system_startup.c ****                     switch (hart_id)
 245:../src/platform/mpfs_hal/startup_gcc/system_startup.c ****                     {
 246:../src/platform/mpfs_hal/startup_gcc/system_startup.c ****                         case 1:
 247:../src/platform/mpfs_hal/startup_gcc/system_startup.c ****                             stack_top = (ptrdiff_t)((uint8_t*)&__stack_top_h1$);
 248:../src/platform/mpfs_hal/startup_gcc/system_startup.c ****                             break;
 249:../src/platform/mpfs_hal/startup_gcc/system_startup.c ****                         case 2:
 250:../src/platform/mpfs_hal/startup_gcc/system_startup.c ****                             stack_top = (ptrdiff_t)((uint8_t*)&__stack_top_h2$);
 251:../src/platform/mpfs_hal/startup_gcc/system_startup.c ****                             break;
 252:../src/platform/mpfs_hal/startup_gcc/system_startup.c ****                         case 3:
 253:../src/platform/mpfs_hal/startup_gcc/system_startup.c ****                             stack_top = (ptrdiff_t)((uint8_t*)&__stack_top_h3$);
 254:../src/platform/mpfs_hal/startup_gcc/system_startup.c ****                             break;
 255:../src/platform/mpfs_hal/startup_gcc/system_startup.c ****                         case 4:
 256:../src/platform/mpfs_hal/startup_gcc/system_startup.c ****                             stack_top = (ptrdiff_t)((uint8_t*)&__stack_top_h4$);
 257:../src/platform/mpfs_hal/startup_gcc/system_startup.c ****                             break;
 258:../src/platform/mpfs_hal/startup_gcc/system_startup.c ****                     }
 259:../src/platform/mpfs_hal/startup_gcc/system_startup.c ****                     hls = (HLS_DATA*)(stack_top - HLS_DEBUG_AREA_SIZE);
 260:../src/platform/mpfs_hal/startup_gcc/system_startup.c ****                     sm_check_thread = CHECK_WFI;
 261:../src/platform/mpfs_hal/startup_gcc/system_startup.c ****                     wait_count = 0U;
 262:../src/platform/mpfs_hal/startup_gcc/system_startup.c ****                     break;
 263:../src/platform/mpfs_hal/startup_gcc/system_startup.c **** 
 264:../src/platform/mpfs_hal/startup_gcc/system_startup.c ****                 case CHECK_WFI:
 265:../src/platform/mpfs_hal/startup_gcc/system_startup.c ****                     if( hls->in_wfi_indicator == HLS_OTHER_HART_IN_WFI )
 266:../src/platform/mpfs_hal/startup_gcc/system_startup.c ****                     {
 267:../src/platform/mpfs_hal/startup_gcc/system_startup.c ****                         /* Separate state- to add a little delay */
 268:../src/platform/mpfs_hal/startup_gcc/system_startup.c ****                         sm_check_thread = SEND_WFI;
 269:../src/platform/mpfs_hal/startup_gcc/system_startup.c ****                     }
 270:../src/platform/mpfs_hal/startup_gcc/system_startup.c ****                     break;
 271:../src/platform/mpfs_hal/startup_gcc/system_startup.c **** 
 272:../src/platform/mpfs_hal/startup_gcc/system_startup.c ****                 case SEND_WFI:
 273:../src/platform/mpfs_hal/startup_gcc/system_startup.c ****                     hls->my_hart_id = hart_id; /* record hartid locally */
 274:../src/platform/mpfs_hal/startup_gcc/system_startup.c ****                     raise_soft_interrupt(hart_id);
 275:../src/platform/mpfs_hal/startup_gcc/system_startup.c ****                     sm_check_thread = CHECK_WAKE;
 276:../src/platform/mpfs_hal/startup_gcc/system_startup.c ****                     wait_count = 0UL;
 277:../src/platform/mpfs_hal/startup_gcc/system_startup.c ****                     break;
 278:../src/platform/mpfs_hal/startup_gcc/system_startup.c **** 
 279:../src/platform/mpfs_hal/startup_gcc/system_startup.c ****                 case CHECK_WAKE:
 280:../src/platform/mpfs_hal/startup_gcc/system_startup.c ****                     if( hls->in_wfi_indicator == HLS_OTHER_HART_PASSED_WFI )
 281:../src/platform/mpfs_hal/startup_gcc/system_startup.c ****                     {
 282:../src/platform/mpfs_hal/startup_gcc/system_startup.c ****                         sm_check_thread = INIT_THREAD_PR;
 283:../src/platform/mpfs_hal/startup_gcc/system_startup.c ****                         hart_id++;
 284:../src/platform/mpfs_hal/startup_gcc/system_startup.c ****                         wait_count = 0UL;
 285:../src/platform/mpfs_hal/startup_gcc/system_startup.c ****                     }
 286:../src/platform/mpfs_hal/startup_gcc/system_startup.c ****                     else
 287:../src/platform/mpfs_hal/startup_gcc/system_startup.c ****                     {
 288:../src/platform/mpfs_hal/startup_gcc/system_startup.c ****                         wait_count++;
 289:../src/platform/mpfs_hal/startup_gcc/system_startup.c ****                         if(wait_count > 0x10U)
 290:../src/platform/mpfs_hal/startup_gcc/system_startup.c ****                         {
 291:../src/platform/mpfs_hal/startup_gcc/system_startup.c ****                             if( hls->in_wfi_indicator == HLS_OTHER_HART_IN_WFI )
 292:../src/platform/mpfs_hal/startup_gcc/system_startup.c ****                             {
 293:../src/platform/mpfs_hal/startup_gcc/system_startup.c ****                                 hls->my_hart_id = hart_id; /* record hartid locally */
 294:../src/platform/mpfs_hal/startup_gcc/system_startup.c ****                                 raise_soft_interrupt(hart_id);
 295:../src/platform/mpfs_hal/startup_gcc/system_startup.c ****                                 wait_count = 0UL;
 296:../src/platform/mpfs_hal/startup_gcc/system_startup.c ****                             }
 297:../src/platform/mpfs_hal/startup_gcc/system_startup.c ****                         }
 298:../src/platform/mpfs_hal/startup_gcc/system_startup.c ****                     }
 299:../src/platform/mpfs_hal/startup_gcc/system_startup.c ****                     break;
 300:../src/platform/mpfs_hal/startup_gcc/system_startup.c ****             }
 301:../src/platform/mpfs_hal/startup_gcc/system_startup.c ****         }
 302:../src/platform/mpfs_hal/startup_gcc/system_startup.c ****         stack_top = (ptrdiff_t)((uint8_t*)&__stack_top_h1$);
 303:../src/platform/mpfs_hal/startup_gcc/system_startup.c ****         hls = (HLS_DATA*)(stack_top - HLS_DEBUG_AREA_SIZE);
 304:../src/platform/mpfs_hal/startup_gcc/system_startup.c ****         hls->in_wfi_indicator = HLS_MAIN_HART_FIN_INIT;
 305:../src/platform/mpfs_hal/startup_gcc/system_startup.c ****         (void)main_other_hart(hls);
 306:../src/platform/mpfs_hal/startup_gcc/system_startup.c ****     }
 307:../src/platform/mpfs_hal/startup_gcc/system_startup.c **** 
 308:../src/platform/mpfs_hal/startup_gcc/system_startup.c ****     __builtin_unreachable();
 309:../src/platform/mpfs_hal/startup_gcc/system_startup.c ****     /* should never get here */
 310:../src/platform/mpfs_hal/startup_gcc/system_startup.c ****     while(true)
 311:../src/platform/mpfs_hal/startup_gcc/system_startup.c ****     {
 312:../src/platform/mpfs_hal/startup_gcc/system_startup.c ****        static volatile uint64_t counter = 0U;
 313:../src/platform/mpfs_hal/startup_gcc/system_startup.c ****        /* Added some code as debugger hangs if in loop doing nothing */
 314:../src/platform/mpfs_hal/startup_gcc/system_startup.c ****        counter = counter + 1U;
 315:../src/platform/mpfs_hal/startup_gcc/system_startup.c ****     }
 316:../src/platform/mpfs_hal/startup_gcc/system_startup.c **** 
 317:../src/platform/mpfs_hal/startup_gcc/system_startup.c ****     return (0);
 318:../src/platform/mpfs_hal/startup_gcc/system_startup.c **** }
 319:../src/platform/mpfs_hal/startup_gcc/system_startup.c **** #endif
 320:../src/platform/mpfs_hal/startup_gcc/system_startup.c **** 
 321:../src/platform/mpfs_hal/startup_gcc/system_startup.c **** /*==============================================================================
 322:../src/platform/mpfs_hal/startup_gcc/system_startup.c ****  * U54s startup.
 323:../src/platform/mpfs_hal/startup_gcc/system_startup.c ****  * This is called from entry.S
 324:../src/platform/mpfs_hal/startup_gcc/system_startup.c ****  * If you need to modify this function, create your own one in a user directory
 325:../src/platform/mpfs_hal/startup_gcc/system_startup.c ****  * space.
 326:../src/platform/mpfs_hal/startup_gcc/system_startup.c ****  *
 327:../src/platform/mpfs_hal/startup_gcc/system_startup.c ****  * Please note: harts MPFS_HAL_FIRST_FIRST + 1 to MPFS_HAL_FIRST_LAST will wait
 328:../src/platform/mpfs_hal/startup_gcc/system_startup.c ****  * in startup code in entry.S as they run the wfi (wait for interrupt)
 329:../src/platform/mpfs_hal/startup_gcc/system_startup.c ****  * instruction.
 330:../src/platform/mpfs_hal/startup_gcc/system_startup.c ****  * They are woken up as required by the the MPFS_HAL_FIRST_HART, in the function
 331:../src/platform/mpfs_hal/startup_gcc/system_startup.c ****  * main_first_hart().
 332:../src/platform/mpfs_hal/startup_gcc/system_startup.c ****  * ( It triggers a software interrupt on the particular hart to be woken up )
 333:../src/platform/mpfs_hal/startup_gcc/system_startup.c ****  */
 334:../src/platform/mpfs_hal/startup_gcc/system_startup.c **** __attribute__((weak)) int main_other_hart(HLS_DATA* hls)
 335:../src/platform/mpfs_hal/startup_gcc/system_startup.c **** {
 714              		.loc 3 335 1
 715              		.cfi_startproc
 716 0000 5D71     		addi	sp,sp,-80
 717              		.cfi_def_cfa_offset 80
 718 0002 86E4     		sd	ra,72(sp)
 719 0004 A2E0     		sd	s0,64(sp)
 720              		.cfi_offset 1, -8
 721              		.cfi_offset 8, -16
 722 0006 8008     		addi	s0,sp,80
 723              		.cfi_def_cfa 8, 0
 724 0008 233CA4FA 		sd	a0,-72(s0)
 336:../src/platform/mpfs_hal/startup_gcc/system_startup.c **** #if (IMAGE_LOADED_BY_BOOTLOADER == 0)   // This also means no hardware init is required
 337:../src/platform/mpfs_hal/startup_gcc/system_startup.c ****     extern char __app_stack_top_h0;
 338:../src/platform/mpfs_hal/startup_gcc/system_startup.c ****     extern char __app_stack_top_h1;
 339:../src/platform/mpfs_hal/startup_gcc/system_startup.c ****     extern char __app_stack_top_h2;
 340:../src/platform/mpfs_hal/startup_gcc/system_startup.c ****     extern char __app_stack_top_h3;
 341:../src/platform/mpfs_hal/startup_gcc/system_startup.c ****     extern char __app_stack_top_h4;
 342:../src/platform/mpfs_hal/startup_gcc/system_startup.c **** 
 343:../src/platform/mpfs_hal/startup_gcc/system_startup.c ****     const uint64_t app_stack_top_h0 = (const uint64_t)&__app_stack_top_h0 - (HLS_DEBUG_AREA_SIZE);
 725              		.loc 3 343 39
 726 000c 97070000 		lla	a5,__app_stack_top_h0
 726      93870700 
 727              		.loc 3 343 20
 728 0014 938707FC 		addi	a5,a5,-64
 729 0018 2334F4FE 		sd	a5,-24(s0)
 344:../src/platform/mpfs_hal/startup_gcc/system_startup.c ****     const uint64_t app_stack_top_h1 = (const uint64_t)&__app_stack_top_h1 - (HLS_DEBUG_AREA_SIZE);
 730              		.loc 3 344 39
 731 001c 97070000 		lla	a5,__app_stack_top_h1
 731      93870700 
 732              		.loc 3 344 20
 733 0024 938707FC 		addi	a5,a5,-64
 734 0028 2330F4FE 		sd	a5,-32(s0)
 345:../src/platform/mpfs_hal/startup_gcc/system_startup.c ****     const uint64_t app_stack_top_h2 = (const uint64_t)&__app_stack_top_h2 - (HLS_DEBUG_AREA_SIZE);
 735              		.loc 3 345 39
 736 002c 97070000 		lla	a5,__app_stack_top_h2
 736      93870700 
 737              		.loc 3 345 20
 738 0034 938707FC 		addi	a5,a5,-64
 739 0038 233CF4FC 		sd	a5,-40(s0)
 346:../src/platform/mpfs_hal/startup_gcc/system_startup.c ****     const uint64_t app_stack_top_h3 = (const uint64_t)&__app_stack_top_h3 - (HLS_DEBUG_AREA_SIZE);
 740              		.loc 3 346 39
 741 003c 97070000 		lla	a5,__app_stack_top_h3
 741      93870700 
 742              		.loc 3 346 20
 743 0044 938707FC 		addi	a5,a5,-64
 744 0048 2338F4FC 		sd	a5,-48(s0)
 347:../src/platform/mpfs_hal/startup_gcc/system_startup.c ****     const uint64_t app_stack_top_h4 = (const uint64_t)&__app_stack_top_h4 - (HLS_DEBUG_AREA_SIZE);
 745              		.loc 3 347 39
 746 004c 97070000 		lla	a5,__app_stack_top_h4
 746      93870700 
 747              		.loc 3 347 20
 748 0054 938707FC 		addi	a5,a5,-64
 749 0058 2334F4FC 		sd	a5,-56(s0)
 348:../src/platform/mpfs_hal/startup_gcc/system_startup.c **** 
 349:../src/platform/mpfs_hal/startup_gcc/system_startup.c **** #ifdef  MPFS_HAL_HW_CONFIG
 350:../src/platform/mpfs_hal/startup_gcc/system_startup.c **** #ifdef  MPFS_HAL_SHARED_MEM_ENABLED
 351:../src/platform/mpfs_hal/startup_gcc/system_startup.c ****     /*
 352:../src/platform/mpfs_hal/startup_gcc/system_startup.c ****      * If we are a boot-loader, and shared memory enabled (MPFS_HAL_SHARED_MEM_ENABLED)
 353:../src/platform/mpfs_hal/startup_gcc/system_startup.c ****      * sets the pointer in each harts HLS to the shared memory.
 354:../src/platform/mpfs_hal/startup_gcc/system_startup.c ****      * This allows access to this shared memory across all harts.
 355:../src/platform/mpfs_hal/startup_gcc/system_startup.c ****      */
 356:../src/platform/mpfs_hal/startup_gcc/system_startup.c ****     const uint64_t app_hart_common_start = (const uint64_t)&__app_hart_common_start;
 357:../src/platform/mpfs_hal/startup_gcc/system_startup.c ****     hls->shared_mem = (uint64_t *)app_hart_common_start;
 358:../src/platform/mpfs_hal/startup_gcc/system_startup.c ****     hls->shared_mem_marker = SHARED_MEM_INITALISED_MARKER;
 359:../src/platform/mpfs_hal/startup_gcc/system_startup.c ****     hls->shared_mem_status = SHARED_MEM_DEFAULT_STATUS;
 360:../src/platform/mpfs_hal/startup_gcc/system_startup.c **** #endif
 361:../src/platform/mpfs_hal/startup_gcc/system_startup.c **** #else
 362:../src/platform/mpfs_hal/startup_gcc/system_startup.c **** #ifdef  MPFS_HAL_SHARED_MEM_ENABLED
 363:../src/platform/mpfs_hal/startup_gcc/system_startup.c ****     /* make sure each harts Harts Local Storage has pointer to common memory if enabled */
 364:../src/platform/mpfs_hal/startup_gcc/system_startup.c ****     /* store the value here received from boot-loader */
 365:../src/platform/mpfs_hal/startup_gcc/system_startup.c ****     /* a1 will contain pointer to the start of shared memory */
 366:../src/platform/mpfs_hal/startup_gcc/system_startup.c ****     //hls->shared_mem = (uint64_t *)__uninit_bottom$;
 367:../src/platform/mpfs_hal/startup_gcc/system_startup.c **** #else
 368:../src/platform/mpfs_hal/startup_gcc/system_startup.c ****     /*
 369:../src/platform/mpfs_hal/startup_gcc/system_startup.c ****      * We are not using shared memory
 370:../src/platform/mpfs_hal/startup_gcc/system_startup.c ****      */
 371:../src/platform/mpfs_hal/startup_gcc/system_startup.c ****     hls->shared_mem = (uint64_t *)NULL;
 372:../src/platform/mpfs_hal/startup_gcc/system_startup.c **** #endif
 373:../src/platform/mpfs_hal/startup_gcc/system_startup.c **** #endif
 374:../src/platform/mpfs_hal/startup_gcc/system_startup.c **** 
 375:../src/platform/mpfs_hal/startup_gcc/system_startup.c ****     volatile uint64_t dummy;
 376:../src/platform/mpfs_hal/startup_gcc/system_startup.c **** 
 377:../src/platform/mpfs_hal/startup_gcc/system_startup.c ****     switch(hls->my_hart_id)
 750              		.loc 3 377 15
 751 005c 833784FB 		ld	a5,-72(s0)
 752 0060 DC43     		lw	a5,4(a5)
 753 0062 8127     		sext.w	a5,a5
 754              		.loc 3 377 5
 755 0064 BE86     		mv	a3,a5
 756 0066 1147     		li	a4,4
 757 0068 636DD70A 		bgtu	a3,a4,.L45
 758 006c 13972700 		slli	a4,a5,2
 759 0070 97070000 		lla	a5,.L38
 759      93870700 
 760 0078 BA97     		add	a5,a4,a5
 761 007a 9C43     		lw	a5,0(a5)
 762 007c 1B870700 		sext.w	a4,a5
 763 0080 97070000 		lla	a5,.L38
 763      93870700 
 764 0088 BA97     		add	a5,a4,a5
 765 008a 8287     		jr	a5
 766              		.section	.rodata.main_other_hart,"a",@progbits
 767              		.align	2
 768              		.align	2
 769              	.L38:
 770 0000 00000000 		.word	.L42-.L38
 771 0004 00000000 		.word	.L41-.L38
 772 0008 00000000 		.word	.L40-.L38
 773 000c 00000000 		.word	.L39-.L38
 774 0010 00000000 		.word	.L37-.L38
 775              		.section	.text.main_other_hart
 776              	.L42:
 378:../src/platform/mpfs_hal/startup_gcc/system_startup.c ****     {
 379:../src/platform/mpfs_hal/startup_gcc/system_startup.c **** 
 380:../src/platform/mpfs_hal/startup_gcc/system_startup.c ****     case 0U:
 381:../src/platform/mpfs_hal/startup_gcc/system_startup.c ****         __asm volatile ("add sp, x0, %1" : "=r"(dummy) : "r"(app_stack_top_h0));
 777              		.loc 3 381 9
 778 008c 833784FE 		ld	a5,-24(s0)
 779              	 #APP
 780              	# 381 "../src/platform/mpfs_hal/startup_gcc/system_startup.c" 1
 382              	        e51();
 781              		add sp, x0, a5
 782              	# 0 "" 2
 783              	 #NO_APP
 784 0094 2330F4FC 		sd	a5,-64(s0)
 785              		.loc 3 382 9
 786 0098 97000000 		call	e51
 786      E7800000 
 383:../src/platform/mpfs_hal/startup_gcc/system_startup.c ****         break;
 787              		.loc 3 383 9
 788 00a0 51A0     		j	.L44
 789              	.L41:
 384:../src/platform/mpfs_hal/startup_gcc/system_startup.c **** 
 385:../src/platform/mpfs_hal/startup_gcc/system_startup.c ****     case 1U:
 386:../src/platform/mpfs_hal/startup_gcc/system_startup.c ****         (void)init_pmp((uint8_t)1);
 790              		.loc 3 386 15
 791 00a2 0545     		li	a0,1
 792 00a4 97000000 		call	init_pmp
 792      E7800000 
 387:../src/platform/mpfs_hal/startup_gcc/system_startup.c ****         __asm volatile ("add sp, x0, %1" : "=r"(dummy) : "r"(app_stack_top_h1));
 793              		.loc 3 387 9
 794 00ac 833704FE 		ld	a5,-32(s0)
 795              	 #APP
 796              	# 387 "../src/platform/mpfs_hal/startup_gcc/system_startup.c" 1
 388              	        u54_1();
 797              		add sp, x0, a5
 798              	# 0 "" 2
 799              	 #NO_APP
 800 00b4 2330F4FC 		sd	a5,-64(s0)
 801              		.loc 3 388 9
 802 00b8 97000000 		call	u54_1
 802      E7800000 
 389:../src/platform/mpfs_hal/startup_gcc/system_startup.c ****         break;
 803              		.loc 3 389 9
 804 00c0 95A0     		j	.L44
 805              	.L40:
 390:../src/platform/mpfs_hal/startup_gcc/system_startup.c **** 
 391:../src/platform/mpfs_hal/startup_gcc/system_startup.c ****     case 2U:
 392:../src/platform/mpfs_hal/startup_gcc/system_startup.c ****         (void)init_pmp((uint8_t)2);
 806              		.loc 3 392 15
 807 00c2 0945     		li	a0,2
 808 00c4 97000000 		call	init_pmp
 808      E7800000 
 393:../src/platform/mpfs_hal/startup_gcc/system_startup.c ****         __asm volatile ("add sp, x0, %1" : "=r"(dummy) : "r"(app_stack_top_h2));
 809              		.loc 3 393 9
 810 00cc 833784FD 		ld	a5,-40(s0)
 811              	 #APP
 812              	# 393 "../src/platform/mpfs_hal/startup_gcc/system_startup.c" 1
 394              	        u54_2();
 813              		add sp, x0, a5
 814              	# 0 "" 2
 815              	 #NO_APP
 816 00d4 2330F4FC 		sd	a5,-64(s0)
 817              		.loc 3 394 9
 818 00d8 97000000 		call	u54_2
 818      E7800000 
 395:../src/platform/mpfs_hal/startup_gcc/system_startup.c ****         break;
 819              		.loc 3 395 9
 820 00e0 91A0     		j	.L44
 821              	.L39:
 396:../src/platform/mpfs_hal/startup_gcc/system_startup.c **** 
 397:../src/platform/mpfs_hal/startup_gcc/system_startup.c ****     case 3U:
 398:../src/platform/mpfs_hal/startup_gcc/system_startup.c ****         (void)init_pmp((uint8_t)3);
 822              		.loc 3 398 15
 823 00e2 0D45     		li	a0,3
 824 00e4 97000000 		call	init_pmp
 824      E7800000 
 399:../src/platform/mpfs_hal/startup_gcc/system_startup.c ****         __asm volatile ("add sp, x0, %1" : "=r"(dummy) : "r"(app_stack_top_h3));
 825              		.loc 3 399 9
 826 00ec 833704FD 		ld	a5,-48(s0)
 827              	 #APP
 828              	# 399 "../src/platform/mpfs_hal/startup_gcc/system_startup.c" 1
 400              	        u54_3();
 829              		add sp, x0, a5
 830              	# 0 "" 2
 831              	 #NO_APP
 832 00f4 2330F4FC 		sd	a5,-64(s0)
 833              		.loc 3 400 9
 834 00f8 97000000 		call	u54_3
 834      E7800000 
 401:../src/platform/mpfs_hal/startup_gcc/system_startup.c ****         break;
 835              		.loc 3 401 9
 836 0100 15A0     		j	.L44
 837              	.L37:
 402:../src/platform/mpfs_hal/startup_gcc/system_startup.c **** 
 403:../src/platform/mpfs_hal/startup_gcc/system_startup.c ****     case 4U:
 404:../src/platform/mpfs_hal/startup_gcc/system_startup.c ****         (void)init_pmp((uint8_t)4);
 838              		.loc 3 404 15
 839 0102 1145     		li	a0,4
 840 0104 97000000 		call	init_pmp
 840      E7800000 
 405:../src/platform/mpfs_hal/startup_gcc/system_startup.c ****         __asm volatile ("add sp, x0, %1" : "=r"(dummy) : "r"(app_stack_top_h4));
 841              		.loc 3 405 9
 842 010c 833784FC 		ld	a5,-56(s0)
 843              	 #APP
 844              	# 405 "../src/platform/mpfs_hal/startup_gcc/system_startup.c" 1
 406              	        u54_4();
 845              		add sp, x0, a5
 846              	# 0 "" 2
 847              	 #NO_APP
 848 0114 2330F4FC 		sd	a5,-64(s0)
 849              		.loc 3 406 9
 850 0118 97000000 		call	u54_4
 850      E7800000 
 407:../src/platform/mpfs_hal/startup_gcc/system_startup.c ****         break;
 851              		.loc 3 407 9
 852 0120 11A0     		j	.L44
 853              	.L45:
 408:../src/platform/mpfs_hal/startup_gcc/system_startup.c **** 
 409:../src/platform/mpfs_hal/startup_gcc/system_startup.c ****     default:
 410:../src/platform/mpfs_hal/startup_gcc/system_startup.c ****         /* no more harts */
 411:../src/platform/mpfs_hal/startup_gcc/system_startup.c ****         break;
 854              		.loc 3 411 9
 855 0122 0100     		nop
 856              	.L44:
 857              	.LBB7:
 412:../src/platform/mpfs_hal/startup_gcc/system_startup.c ****     }
 413:../src/platform/mpfs_hal/startup_gcc/system_startup.c **** 
 414:../src/platform/mpfs_hal/startup_gcc/system_startup.c ****     /* should never get here */
 415:../src/platform/mpfs_hal/startup_gcc/system_startup.c ****     while(true)
 416:../src/platform/mpfs_hal/startup_gcc/system_startup.c ****     {
 417:../src/platform/mpfs_hal/startup_gcc/system_startup.c ****        static volatile uint64_t counter = 0U;
 418:../src/platform/mpfs_hal/startup_gcc/system_startup.c ****        /* Added some code as debugger hangs if in loop doing nothing */
 419:../src/platform/mpfs_hal/startup_gcc/system_startup.c ****        counter = counter + 1U;
 858              		.loc 3 419 26 discriminator 1
 859 0124 97070000 		lla	a5,counter.12995
 859      93870700 
 860 012c 9C63     		ld	a5,0(a5)
 861 012e 13871700 		addi	a4,a5,1
 862              		.loc 3 419 16 discriminator 1
 863 0132 97070000 		lla	a5,counter.12995
 863      93870700 
 864 013a 98E3     		sd	a4,0(a5)
 865              	.LBE7:
 416:../src/platform/mpfs_hal/startup_gcc/system_startup.c ****        static volatile uint64_t counter = 0U;
 866              		.loc 3 416 5 discriminator 1
 867 013c E5B7     		j	.L44
 868              		.cfi_endproc
 869              	.LFE21:
 871              		.globl	rom
 872              		.section	.rodata.rom,"a"
 873              		.align	3
 876              	rom:
 877 0000 13050000 		.word	1299
 878 0004 73104534 		.word	876941427
 879 0008 73005010 		.word	273678451
 880 000c 6FF05FFF 		.word	-10489745
 881 0010 6FF01FFF 		.word	-14684049
 882 0014 6FF0DFFE 		.word	-18878353
 883 0018 6FF09FFE 		.word	-23072657
 884 001c 6FF05FFE 		.word	-27266961
 885              		.section	.text.load_virtual_rom,"ax",@progbits
 886              		.align	1
 887              		.globl	load_virtual_rom
 889              	load_virtual_rom:
 890              	.LFB22:
 420:../src/platform/mpfs_hal/startup_gcc/system_startup.c ****     }
 421:../src/platform/mpfs_hal/startup_gcc/system_startup.c **** #else /* (IMAGE_LOADED_BY_BOOTLOADER == 0) */
 422:../src/platform/mpfs_hal/startup_gcc/system_startup.c **** 
 423:../src/platform/mpfs_hal/startup_gcc/system_startup.c **** 
 424:../src/platform/mpfs_hal/startup_gcc/system_startup.c ****     uint64_t hartid = read_csr(mhartid);
 425:../src/platform/mpfs_hal/startup_gcc/system_startup.c **** 
 426:../src/platform/mpfs_hal/startup_gcc/system_startup.c ****     switch(hartid)
 427:../src/platform/mpfs_hal/startup_gcc/system_startup.c ****     {
 428:../src/platform/mpfs_hal/startup_gcc/system_startup.c **** 
 429:../src/platform/mpfs_hal/startup_gcc/system_startup.c ****     case 0U:
 430:../src/platform/mpfs_hal/startup_gcc/system_startup.c ****         e51();
 431:../src/platform/mpfs_hal/startup_gcc/system_startup.c ****         break;
 432:../src/platform/mpfs_hal/startup_gcc/system_startup.c **** 
 433:../src/platform/mpfs_hal/startup_gcc/system_startup.c ****     case 1U:
 434:../src/platform/mpfs_hal/startup_gcc/system_startup.c ****         u54_1();
 435:../src/platform/mpfs_hal/startup_gcc/system_startup.c ****         break;
 436:../src/platform/mpfs_hal/startup_gcc/system_startup.c **** 
 437:../src/platform/mpfs_hal/startup_gcc/system_startup.c ****     case 2U:
 438:../src/platform/mpfs_hal/startup_gcc/system_startup.c ****         u54_2();
 439:../src/platform/mpfs_hal/startup_gcc/system_startup.c ****         break;
 440:../src/platform/mpfs_hal/startup_gcc/system_startup.c **** 
 441:../src/platform/mpfs_hal/startup_gcc/system_startup.c ****     case 3U:
 442:../src/platform/mpfs_hal/startup_gcc/system_startup.c ****         u54_3();
 443:../src/platform/mpfs_hal/startup_gcc/system_startup.c ****         break;
 444:../src/platform/mpfs_hal/startup_gcc/system_startup.c **** 
 445:../src/platform/mpfs_hal/startup_gcc/system_startup.c ****     case 4U:
 446:../src/platform/mpfs_hal/startup_gcc/system_startup.c ****         u54_4();
 447:../src/platform/mpfs_hal/startup_gcc/system_startup.c ****         break;
 448:../src/platform/mpfs_hal/startup_gcc/system_startup.c **** 
 449:../src/platform/mpfs_hal/startup_gcc/system_startup.c ****     default:
 450:../src/platform/mpfs_hal/startup_gcc/system_startup.c ****         /* no more harts */
 451:../src/platform/mpfs_hal/startup_gcc/system_startup.c ****         break;
 452:../src/platform/mpfs_hal/startup_gcc/system_startup.c ****     }
 453:../src/platform/mpfs_hal/startup_gcc/system_startup.c **** #endif
 454:../src/platform/mpfs_hal/startup_gcc/system_startup.c **** 
 455:../src/platform/mpfs_hal/startup_gcc/system_startup.c ****   return (0);
 456:../src/platform/mpfs_hal/startup_gcc/system_startup.c **** 
 457:../src/platform/mpfs_hal/startup_gcc/system_startup.c **** }
 458:../src/platform/mpfs_hal/startup_gcc/system_startup.c **** 
 459:../src/platform/mpfs_hal/startup_gcc/system_startup.c **** /*==============================================================================
 460:../src/platform/mpfs_hal/startup_gcc/system_startup.c ****  * Load the virtual ROM located at address 0x20003120 within the SCB system
 461:../src/platform/mpfs_hal/startup_gcc/system_startup.c ****  * registers with an executable allowing to park a hart in an infinite loop.
 462:../src/platform/mpfs_hal/startup_gcc/system_startup.c ****  */
 463:../src/platform/mpfs_hal/startup_gcc/system_startup.c **** #ifdef  MPFS_HAL_HW_CONFIG
 464:../src/platform/mpfs_hal/startup_gcc/system_startup.c **** #define VIRTUAL_BOOTROM_BASE_ADDR   0x20003120UL
 465:../src/platform/mpfs_hal/startup_gcc/system_startup.c **** #define NB_BOOT_ROM_WORDS           8U
 466:../src/platform/mpfs_hal/startup_gcc/system_startup.c **** const uint32_t rom[NB_BOOT_ROM_WORDS] =
 467:../src/platform/mpfs_hal/startup_gcc/system_startup.c **** {
 468:../src/platform/mpfs_hal/startup_gcc/system_startup.c ****     0x00000513U,    /* li a0, 0 */
 469:../src/platform/mpfs_hal/startup_gcc/system_startup.c ****     0x34451073U,    /* csrw mip, a0 */
 470:../src/platform/mpfs_hal/startup_gcc/system_startup.c ****     0x10500073U,    /* wfi */
 471:../src/platform/mpfs_hal/startup_gcc/system_startup.c ****     0xFF5FF06FU,    /* j 0x20003120 */
 472:../src/platform/mpfs_hal/startup_gcc/system_startup.c ****     0xFF1FF06FU,    /* j 0x20003120 */
 473:../src/platform/mpfs_hal/startup_gcc/system_startup.c ****     0xFEDFF06FU,    /* j 0x20003120 */
 474:../src/platform/mpfs_hal/startup_gcc/system_startup.c ****     0xFE9FF06FU,    /* j 0x20003120 */
 475:../src/platform/mpfs_hal/startup_gcc/system_startup.c ****     0xFE5FF06FU     /* j 0x20003120 */
 476:../src/platform/mpfs_hal/startup_gcc/system_startup.c **** };
 477:../src/platform/mpfs_hal/startup_gcc/system_startup.c **** 
 478:../src/platform/mpfs_hal/startup_gcc/system_startup.c **** void load_virtual_rom(void)
 479:../src/platform/mpfs_hal/startup_gcc/system_startup.c **** {
 891              		.loc 3 479 1
 892              		.cfi_startproc
 893 0000 0111     		addi	sp,sp,-32
 894              		.cfi_def_cfa_offset 32
 895 0002 06EC     		sd	ra,24(sp)
 896 0004 22E8     		sd	s0,16(sp)
 897              		.cfi_offset 1, -8
 898              		.cfi_offset 8, -16
 899 0006 0010     		addi	s0,sp,32
 900              		.cfi_def_cfa 8, 0
 480:../src/platform/mpfs_hal/startup_gcc/system_startup.c ****     volatile uint32_t * p_virtual_bootrom = (uint32_t *)VIRTUAL_BOOTROM_BASE_ADDR;
 901              		.loc 3 480 25
 902 0008 B7370020 		li	a5,536883200
 903 000c 93870712 		addi	a5,a5,288
 904 0010 2334F4FE 		sd	a5,-24(s0)
 481:../src/platform/mpfs_hal/startup_gcc/system_startup.c ****     config_copy( (void *)p_virtual_bootrom, (void *)rom,sizeof(rom[NB_BOOT_ROM_WORDS]));
 905              		.loc 3 481 5
 906 0014 1146     		li	a2,4
 907 0016 97050000 		lla	a1,rom
 907      93850500 
 908 001e 033584FE 		ld	a0,-24(s0)
 909 0022 97000000 		call	config_copy
 909      E7800000 
 482:../src/platform/mpfs_hal/startup_gcc/system_startup.c **** }
 910              		.loc 3 482 1
 911 002a 0100     		nop
 912 002c E260     		ld	ra,24(sp)
 913              		.cfi_restore 1
 914 002e 4264     		ld	s0,16(sp)
 915              		.cfi_restore 8
 916              		.cfi_def_cfa 2, 32
 917 0030 0561     		addi	sp,sp,32
 918              		.cfi_def_cfa_offset 0
 919 0032 8280     		jr	ra
 920              		.cfi_endproc
 921              	.LFE22:
 923              		.section	.text.park_hart,"ax",@progbits
 924              		.align	1
 926              	park_hart:
 927              	.LFB23:
 483:../src/platform/mpfs_hal/startup_gcc/system_startup.c **** #endif  /* MPFS_HAL_HW_CONFIG */
 484:../src/platform/mpfs_hal/startup_gcc/system_startup.c **** 
 485:../src/platform/mpfs_hal/startup_gcc/system_startup.c **** /*==============================================================================
 486:../src/platform/mpfs_hal/startup_gcc/system_startup.c ****  * Put the hart executing this code into an infinite loop executing from the
 487:../src/platform/mpfs_hal/startup_gcc/system_startup.c ****  * SCB system register memory space.
 488:../src/platform/mpfs_hal/startup_gcc/system_startup.c ****  * This allows preventing a hart from accessing memory regardless of memory
 489:../src/platform/mpfs_hal/startup_gcc/system_startup.c ****  * hierarchy configuration or compiler/linker settings.
 490:../src/platform/mpfs_hal/startup_gcc/system_startup.c ****  * This function relies on load_virtual_rom() having been called previously to
 491:../src/platform/mpfs_hal/startup_gcc/system_startup.c ****  * populate the virtual ROM with a suitable executable.
 492:../src/platform/mpfs_hal/startup_gcc/system_startup.c ****  */
 493:../src/platform/mpfs_hal/startup_gcc/system_startup.c **** static void park_hart(void)
 494:../src/platform/mpfs_hal/startup_gcc/system_startup.c **** {
 928              		.loc 3 494 1
 929              		.cfi_startproc
 930 0000 0111     		addi	sp,sp,-32
 931              		.cfi_def_cfa_offset 32
 932 0002 22EC     		sd	s0,24(sp)
 933              		.cfi_offset 8, -8
 934 0004 0010     		addi	s0,sp,32
 935              		.cfi_def_cfa 8, 0
 936              	.LBB8:
 495:../src/platform/mpfs_hal/startup_gcc/system_startup.c ****     clear_csr(mstatus, MSTATUS_MIE);
 937              		.loc 3 495 5
 938              	 #APP
 939              	# 495 "../src/platform/mpfs_hal/startup_gcc/system_startup.c" 1
 496              	    __asm volatile("fence.i");
 940              		csrrc a5, mstatus, 8
 941              	# 0 "" 2
 942              	 #NO_APP
 943 000a 2334F4FE 		sd	a5,-24(s0)
 944              	.LBE8:
 945              		.loc 3 496 5
 946              	 #APP
 947              	# 496 "../src/platform/mpfs_hal/startup_gcc/system_startup.c" 1
 497              	    __asm volatile("li ra,0x20003120");
 948              		fence.i
 949              	# 0 "" 2
 950              		.loc 3 497 5
 951              	# 497 "../src/platform/mpfs_hal/startup_gcc/system_startup.c" 1
 498              	    __asm volatile("ret");
 952              		li ra,0x20003120
 953              	# 0 "" 2
 954              		.loc 3 498 5
 955              	# 498 "../src/platform/mpfs_hal/startup_gcc/system_startup.c" 1
 499              	}
 956              		ret
 957              	# 0 "" 2
 958              		.loc 3 499 1
 959              	 #NO_APP
 960 001c 0100     		nop
 961 001e 6264     		ld	s0,24(sp)
 962              		.cfi_restore 8
 963              		.cfi_def_cfa 2, 32
 964 0020 0561     		addi	sp,sp,32
 965              		.cfi_def_cfa_offset 0
 966 0022 8280     		jr	ra
 967              		.cfi_endproc
 968              	.LFE23:
 970              		.section	.text.e51,"ax",@progbits
 971              		.align	1
 972              		.weak	e51
 974              	e51:
 975              	.LFB24:
 500:../src/platform/mpfs_hal/startup_gcc/system_startup.c **** 
 501:../src/platform/mpfs_hal/startup_gcc/system_startup.c **** /*==============================================================================
 502:../src/platform/mpfs_hal/startup_gcc/system_startup.c ****  * E51 code executing after system startup.
 503:../src/platform/mpfs_hal/startup_gcc/system_startup.c ****  * In absence of an application function of this name with strong linkage, this
 504:../src/platform/mpfs_hal/startup_gcc/system_startup.c ****  * function will get linked.
 505:../src/platform/mpfs_hal/startup_gcc/system_startup.c ****  * This default implementation is for illustration purpose only. If you need to
 506:../src/platform/mpfs_hal/startup_gcc/system_startup.c ****  * modify this function, create your own one in an application directory space.
 507:../src/platform/mpfs_hal/startup_gcc/system_startup.c ****  */
 508:../src/platform/mpfs_hal/startup_gcc/system_startup.c **** __attribute__((weak)) void e51(void)
 509:../src/platform/mpfs_hal/startup_gcc/system_startup.c **** {
 976              		.loc 3 509 1
 977              		.cfi_startproc
 978 0000 4111     		addi	sp,sp,-16
 979              		.cfi_def_cfa_offset 16
 980 0002 06E4     		sd	ra,8(sp)
 981 0004 22E0     		sd	s0,0(sp)
 982              		.cfi_offset 1, -8
 983              		.cfi_offset 8, -16
 984 0006 0008     		addi	s0,sp,16
 985              		.cfi_def_cfa 8, 0
 510:../src/platform/mpfs_hal/startup_gcc/system_startup.c ****     /* Put hart in safe infinite WFI loop. */
 511:../src/platform/mpfs_hal/startup_gcc/system_startup.c ****      park_hart();
 986              		.loc 3 511 6
 987 0008 97000000 		call	park_hart
 987      E7800000 
 512:../src/platform/mpfs_hal/startup_gcc/system_startup.c **** }
 988              		.loc 3 512 1
 989 0010 0100     		nop
 990 0012 A260     		ld	ra,8(sp)
 991              		.cfi_restore 1
 992 0014 0264     		ld	s0,0(sp)
 993              		.cfi_restore 8
 994              		.cfi_def_cfa 2, 16
 995 0016 4101     		addi	sp,sp,16
 996              		.cfi_def_cfa_offset 0
 997 0018 8280     		jr	ra
 998              		.cfi_endproc
 999              	.LFE24:
 1001              		.section	.text.u54_1,"ax",@progbits
 1002              		.align	1
 1003              		.weak	u54_1
 1005              	u54_1:
 1006              	.LFB25:
 513:../src/platform/mpfs_hal/startup_gcc/system_startup.c **** 
 514:../src/platform/mpfs_hal/startup_gcc/system_startup.c **** /*==============================================================================
 515:../src/platform/mpfs_hal/startup_gcc/system_startup.c ****  * First U54.
 516:../src/platform/mpfs_hal/startup_gcc/system_startup.c ****  * In absence of an application function of this name with strong linkage, this
 517:../src/platform/mpfs_hal/startup_gcc/system_startup.c ****  * function will get linked.
 518:../src/platform/mpfs_hal/startup_gcc/system_startup.c ****  * This default implementation is for illustration purpose only. If you need to
 519:../src/platform/mpfs_hal/startup_gcc/system_startup.c ****  * modify this function, create your own one in an application directory space.
 520:../src/platform/mpfs_hal/startup_gcc/system_startup.c ****   */
 521:../src/platform/mpfs_hal/startup_gcc/system_startup.c **** __attribute__((weak)) void u54_1(void)
 522:../src/platform/mpfs_hal/startup_gcc/system_startup.c **** {
 1007              		.loc 3 522 1
 1008              		.cfi_startproc
 1009 0000 4111     		addi	sp,sp,-16
 1010              		.cfi_def_cfa_offset 16
 1011 0002 06E4     		sd	ra,8(sp)
 1012 0004 22E0     		sd	s0,0(sp)
 1013              		.cfi_offset 1, -8
 1014              		.cfi_offset 8, -16
 1015 0006 0008     		addi	s0,sp,16
 1016              		.cfi_def_cfa 8, 0
 523:../src/platform/mpfs_hal/startup_gcc/system_startup.c ****     /* Put hart in safe infinite WFI loop. */
 524:../src/platform/mpfs_hal/startup_gcc/system_startup.c ****      park_hart();
 1017              		.loc 3 524 6
 1018 0008 97000000 		call	park_hart
 1018      E7800000 
 525:../src/platform/mpfs_hal/startup_gcc/system_startup.c **** }
 1019              		.loc 3 525 1
 1020 0010 0100     		nop
 1021 0012 A260     		ld	ra,8(sp)
 1022              		.cfi_restore 1
 1023 0014 0264     		ld	s0,0(sp)
 1024              		.cfi_restore 8
 1025              		.cfi_def_cfa 2, 16
 1026 0016 4101     		addi	sp,sp,16
 1027              		.cfi_def_cfa_offset 0
 1028 0018 8280     		jr	ra
 1029              		.cfi_endproc
 1030              	.LFE25:
 1032              		.section	.text.u54_2,"ax",@progbits
 1033              		.align	1
 1034              		.weak	u54_2
 1036              	u54_2:
 1037              	.LFB26:
 526:../src/platform/mpfs_hal/startup_gcc/system_startup.c **** 
 527:../src/platform/mpfs_hal/startup_gcc/system_startup.c **** 
 528:../src/platform/mpfs_hal/startup_gcc/system_startup.c **** /*==============================================================================
 529:../src/platform/mpfs_hal/startup_gcc/system_startup.c ****  * Second U54.
 530:../src/platform/mpfs_hal/startup_gcc/system_startup.c ****  * In absence of an application function of this name with strong linkage, this
 531:../src/platform/mpfs_hal/startup_gcc/system_startup.c ****  * function will get linked.
 532:../src/platform/mpfs_hal/startup_gcc/system_startup.c ****  * This default implementation is for illustration purpose only. If you need to
 533:../src/platform/mpfs_hal/startup_gcc/system_startup.c ****  * modify this function, create your own one in an application directory space.
 534:../src/platform/mpfs_hal/startup_gcc/system_startup.c ****  */
 535:../src/platform/mpfs_hal/startup_gcc/system_startup.c **** __attribute__((weak)) void u54_2(void)
 536:../src/platform/mpfs_hal/startup_gcc/system_startup.c **** {
 1038              		.loc 3 536 1
 1039              		.cfi_startproc
 1040 0000 4111     		addi	sp,sp,-16
 1041              		.cfi_def_cfa_offset 16
 1042 0002 06E4     		sd	ra,8(sp)
 1043 0004 22E0     		sd	s0,0(sp)
 1044              		.cfi_offset 1, -8
 1045              		.cfi_offset 8, -16
 1046 0006 0008     		addi	s0,sp,16
 1047              		.cfi_def_cfa 8, 0
 537:../src/platform/mpfs_hal/startup_gcc/system_startup.c ****     /* Put hart in safe infinite WFI loop. */
 538:../src/platform/mpfs_hal/startup_gcc/system_startup.c ****     park_hart();
 1048              		.loc 3 538 5
 1049 0008 97000000 		call	park_hart
 1049      E7800000 
 539:../src/platform/mpfs_hal/startup_gcc/system_startup.c **** }
 1050              		.loc 3 539 1
 1051 0010 0100     		nop
 1052 0012 A260     		ld	ra,8(sp)
 1053              		.cfi_restore 1
 1054 0014 0264     		ld	s0,0(sp)
 1055              		.cfi_restore 8
 1056              		.cfi_def_cfa 2, 16
 1057 0016 4101     		addi	sp,sp,16
 1058              		.cfi_def_cfa_offset 0
 1059 0018 8280     		jr	ra
 1060              		.cfi_endproc
 1061              	.LFE26:
 1063              		.section	.text.u54_3,"ax",@progbits
 1064              		.align	1
 1065              		.weak	u54_3
 1067              	u54_3:
 1068              	.LFB27:
 540:../src/platform/mpfs_hal/startup_gcc/system_startup.c **** 
 541:../src/platform/mpfs_hal/startup_gcc/system_startup.c **** /*==============================================================================
 542:../src/platform/mpfs_hal/startup_gcc/system_startup.c ****  * Third U54.
 543:../src/platform/mpfs_hal/startup_gcc/system_startup.c ****  * In absence of an application function of this name with strong linkage, this
 544:../src/platform/mpfs_hal/startup_gcc/system_startup.c ****  * function will get linked.
 545:../src/platform/mpfs_hal/startup_gcc/system_startup.c ****  * This default implementation is for illustration purpose only. If you need to
 546:../src/platform/mpfs_hal/startup_gcc/system_startup.c ****  * modify this function, create your own one in an application directory space.
 547:../src/platform/mpfs_hal/startup_gcc/system_startup.c ****  */
 548:../src/platform/mpfs_hal/startup_gcc/system_startup.c **** __attribute__((weak)) void u54_3(void)
 549:../src/platform/mpfs_hal/startup_gcc/system_startup.c **** {
 1069              		.loc 3 549 1
 1070              		.cfi_startproc
 1071 0000 4111     		addi	sp,sp,-16
 1072              		.cfi_def_cfa_offset 16
 1073 0002 06E4     		sd	ra,8(sp)
 1074 0004 22E0     		sd	s0,0(sp)
 1075              		.cfi_offset 1, -8
 1076              		.cfi_offset 8, -16
 1077 0006 0008     		addi	s0,sp,16
 1078              		.cfi_def_cfa 8, 0
 550:../src/platform/mpfs_hal/startup_gcc/system_startup.c ****     /* Put hart in safe infinite WFI loop. */
 551:../src/platform/mpfs_hal/startup_gcc/system_startup.c ****      park_hart();
 1079              		.loc 3 551 6
 1080 0008 97000000 		call	park_hart
 1080      E7800000 
 552:../src/platform/mpfs_hal/startup_gcc/system_startup.c **** }
 1081              		.loc 3 552 1
 1082 0010 0100     		nop
 1083 0012 A260     		ld	ra,8(sp)
 1084              		.cfi_restore 1
 1085 0014 0264     		ld	s0,0(sp)
 1086              		.cfi_restore 8
 1087              		.cfi_def_cfa 2, 16
 1088 0016 4101     		addi	sp,sp,16
 1089              		.cfi_def_cfa_offset 0
 1090 0018 8280     		jr	ra
 1091              		.cfi_endproc
 1092              	.LFE27:
 1094              		.section	.text.u54_4,"ax",@progbits
 1095              		.align	1
 1096              		.weak	u54_4
 1098              	u54_4:
 1099              	.LFB28:
 553:../src/platform/mpfs_hal/startup_gcc/system_startup.c **** 
 554:../src/platform/mpfs_hal/startup_gcc/system_startup.c **** /*==============================================================================
 555:../src/platform/mpfs_hal/startup_gcc/system_startup.c ****  * Fourth U54.
 556:../src/platform/mpfs_hal/startup_gcc/system_startup.c ****  * In absence of an application function of this name with strong linkage, this
 557:../src/platform/mpfs_hal/startup_gcc/system_startup.c ****  * function will get linked.
 558:../src/platform/mpfs_hal/startup_gcc/system_startup.c ****  * This default implementation is for illustration purpose only. If you need to
 559:../src/platform/mpfs_hal/startup_gcc/system_startup.c ****  * modify this function, create your own one in an application directory space.
 560:../src/platform/mpfs_hal/startup_gcc/system_startup.c ****  */
 561:../src/platform/mpfs_hal/startup_gcc/system_startup.c **** __attribute__((weak)) void u54_4(void)
 562:../src/platform/mpfs_hal/startup_gcc/system_startup.c **** {
 1100              		.loc 3 562 1
 1101              		.cfi_startproc
 1102 0000 4111     		addi	sp,sp,-16
 1103              		.cfi_def_cfa_offset 16
 1104 0002 06E4     		sd	ra,8(sp)
 1105 0004 22E0     		sd	s0,0(sp)
 1106              		.cfi_offset 1, -8
 1107              		.cfi_offset 8, -16
 1108 0006 0008     		addi	s0,sp,16
 1109              		.cfi_def_cfa 8, 0
 563:../src/platform/mpfs_hal/startup_gcc/system_startup.c ****     /* Put hart in safe infinite WFI loop. */
 564:../src/platform/mpfs_hal/startup_gcc/system_startup.c ****      park_hart();
 1110              		.loc 3 564 6
 1111 0008 97000000 		call	park_hart
 1111      E7800000 
 565:../src/platform/mpfs_hal/startup_gcc/system_startup.c **** }
 1112              		.loc 3 565 1
 1113 0010 0100     		nop
 1114 0012 A260     		ld	ra,8(sp)
 1115              		.cfi_restore 1
 1116 0014 0264     		ld	s0,0(sp)
 1117              		.cfi_restore 8
 1118              		.cfi_def_cfa 2, 16
 1119 0016 4101     		addi	sp,sp,16
 1120              		.cfi_def_cfa_offset 0
 1121 0018 8280     		jr	ra
 1122              		.cfi_endproc
 1123              	.LFE28:
 1125              		.section	.text.init_memory,"ax",@progbits
 1126              		.align	1
 1127              		.weak	init_memory
 1129              	init_memory:
 1130              	.LFB29:
 566:../src/platform/mpfs_hal/startup_gcc/system_startup.c **** 
 567:../src/platform/mpfs_hal/startup_gcc/system_startup.c ****  /*-----------------------------------------------------------------------------
 568:../src/platform/mpfs_hal/startup_gcc/system_startup.c ****   * _start() function called invoked
 569:../src/platform/mpfs_hal/startup_gcc/system_startup.c ****   * This function is called on power up and warm reset.
 570:../src/platform/mpfs_hal/startup_gcc/system_startup.c ****   */
 571:../src/platform/mpfs_hal/startup_gcc/system_startup.c ****  __attribute__((weak)) void init_memory( void)
 572:../src/platform/mpfs_hal/startup_gcc/system_startup.c ****  {
 1131              		.loc 3 572 2
 1132              		.cfi_startproc
 1133 0000 4111     		addi	sp,sp,-16
 1134              		.cfi_def_cfa_offset 16
 1135 0002 06E4     		sd	ra,8(sp)
 1136 0004 22E0     		sd	s0,0(sp)
 1137              		.cfi_offset 1, -8
 1138              		.cfi_offset 8, -16
 1139 0006 0008     		addi	s0,sp,16
 1140              		.cfi_def_cfa 8, 0
 573:../src/platform/mpfs_hal/startup_gcc/system_startup.c ****     copy_section(&__text_load, &__text_start, &__text_end);
 1141              		.loc 3 573 5
 1142 0008 17060000 		lla	a2,__text_end
 1142      13060600 
 1143 0010 97050000 		lla	a1,__text_start
 1143      93850500 
 1144 0018 17050000 		lla	a0,__text_load
 1144      13050500 
 1145 0020 97000000 		call	copy_section
 1145      E7800000 
 574:../src/platform/mpfs_hal/startup_gcc/system_startup.c ****     copy_section(&__sdata_load, &__sdata_start, &__sdata_end);
 1146              		.loc 3 574 5
 1147 0028 17060000 		lla	a2,__sdata_end
 1147      13060600 
 1148 0030 97050000 		lla	a1,__sdata_start
 1148      93850500 
 1149 0038 17050000 		lla	a0,__sdata_load
 1149      13050500 
 1150 0040 97000000 		call	copy_section
 1150      E7800000 
 575:../src/platform/mpfs_hal/startup_gcc/system_startup.c ****     copy_section(&__data_load, &__data_start, &__data_end);
 1151              		.loc 3 575 5
 1152 0048 17060000 		lla	a2,__data_end
 1152      13060600 
 1153 0050 97050000 		lla	a1,__data_start
 1153      93850500 
 1154 0058 17050000 		lla	a0,__data_load
 1154      13050500 
 1155 0060 97000000 		call	copy_section
 1155      E7800000 
 576:../src/platform/mpfs_hal/startup_gcc/system_startup.c **** 
 577:../src/platform/mpfs_hal/startup_gcc/system_startup.c ****     zero_section(&__sbss_start, &__sbss_end);
 1156              		.loc 3 577 5
 1157 0068 97050000 		lla	a1,__sbss_end
 1157      93850500 
 1158 0070 17050000 		lla	a0,__sbss_start
 1158      13050500 
 1159 0078 97000000 		call	zero_section
 1159      E7800000 
 578:../src/platform/mpfs_hal/startup_gcc/system_startup.c ****     zero_section(&__bss_start, &__bss_end);
 1160              		.loc 3 578 5
 1161 0080 97050000 		lla	a1,__bss_end
 1161      93850500 
 1162 0088 17050000 		lla	a0,__bss_start
 1162      13050500 
 1163 0090 97000000 		call	zero_section
 1163      E7800000 
 579:../src/platform/mpfs_hal/startup_gcc/system_startup.c **** 
 580:../src/platform/mpfs_hal/startup_gcc/system_startup.c ****     __disable_all_irqs();      /* disables local and global interrupt enable */
 1164              		.loc 3 580 5
 1165 0098 97000000 		call	__disable_all_irqs
 1165      E7800000 
 581:../src/platform/mpfs_hal/startup_gcc/system_startup.c ****  }
 1166              		.loc 3 581 2
 1167 00a0 0100     		nop
 1168 00a2 A260     		ld	ra,8(sp)
 1169              		.cfi_restore 1
 1170 00a4 0264     		ld	s0,0(sp)
 1171              		.cfi_restore 8
 1172              		.cfi_def_cfa 2, 16
 1173 00a6 4101     		addi	sp,sp,16
 1174              		.cfi_def_cfa_offset 0
 1175 00a8 8280     		jr	ra
 1176              		.cfi_endproc
 1177              	.LFE29:
 1179              		.section	.text.init_ddr,"ax",@progbits
 1180              		.align	1
 1181              		.weak	init_ddr
 1183              	init_ddr:
 1184              	.LFB30:
 582:../src/platform/mpfs_hal/startup_gcc/system_startup.c **** 
 583:../src/platform/mpfs_hal/startup_gcc/system_startup.c ****  /*-----------------------------------------------------------------------------
 584:../src/platform/mpfs_hal/startup_gcc/system_startup.c ****    * _start() function called invoked
 585:../src/platform/mpfs_hal/startup_gcc/system_startup.c ****    * This function is called on power up and warm reset.
 586:../src/platform/mpfs_hal/startup_gcc/system_startup.c ****    */
 587:../src/platform/mpfs_hal/startup_gcc/system_startup.c ****   __attribute__((weak)) void init_ddr(void)
 588:../src/platform/mpfs_hal/startup_gcc/system_startup.c ****   {
 1185              		.loc 3 588 3
 1186              		.cfi_startproc
 1187 0000 0111     		addi	sp,sp,-32
 1188              		.cfi_def_cfa_offset 32
 1189 0002 06EC     		sd	ra,24(sp)
 1190 0004 22E8     		sd	s0,16(sp)
 1191              		.cfi_offset 1, -8
 1192              		.cfi_offset 8, -16
 1193 0006 0010     		addi	s0,sp,32
 1194              		.cfi_def_cfa 8, 0
 1195              	.LBB9:
 589:../src/platform/mpfs_hal/startup_gcc/system_startup.c ****     if ((LIBERO_SETTING_DDRPHY_MODE & DDRPHY_MODE_MASK) != DDR_OFF_MODE) {
 590:../src/platform/mpfs_hal/startup_gcc/system_startup.c **** #ifdef DDR_SUPPORT
 591:../src/platform/mpfs_hal/startup_gcc/system_startup.c ****         uint64_t end_address;
 592:../src/platform/mpfs_hal/startup_gcc/system_startup.c **** 
 593:../src/platform/mpfs_hal/startup_gcc/system_startup.c **** #if 0 /* enable to init cache to zero using 64 bit writes */
 594:../src/platform/mpfs_hal/startup_gcc/system_startup.c ****         end_address = LIBERO_SETTING_DDR_64_NON_CACHE + LIBERO_SETTING_CFG_AXI_END_ADDRESS_AXI2_0 +
 595:../src/platform/mpfs_hal/startup_gcc/system_startup.c ****         zero_section((uint64_t *)LIBERO_SETTING_DDR_64_NON_CACHE, (uint64_t *)end_address);
 596:../src/platform/mpfs_hal/startup_gcc/system_startup.c **** #endif
 597:../src/platform/mpfs_hal/startup_gcc/system_startup.c **** 
 598:../src/platform/mpfs_hal/startup_gcc/system_startup.c ****         end_address = LIBERO_SETTING_DDR_64_CACHE + LIBERO_SETTING_CFG_AXI_END_ADDRESS_AXI1_0 + LIB
 1196              		.loc 3 598 21
 1197 0008 93071002 		li	a5,33
 1198 000c FE07     		slli	a5,a5,31
 1199 000e FD17     		addi	a5,a5,-1
 1200 0010 2334F4FE 		sd	a5,-24(s0)
 599:../src/platform/mpfs_hal/startup_gcc/system_startup.c ****         zero_section((uint64_t *)LIBERO_SETTING_DDR_64_CACHE, (uint64_t *)end_address);
 1201              		.loc 3 599 9
 1202 0014 833784FE 		ld	a5,-24(s0)
 1203 0018 BE85     		mv	a1,a5
 1204 001a 8547     		li	a5,1
 1205 001c 13954702 		slli	a0,a5,36
 1206 0020 97000000 		call	zero_section
 1206      E7800000 
 1207              	.LBE9:
 600:../src/platform/mpfs_hal/startup_gcc/system_startup.c **** #endif
 601:../src/platform/mpfs_hal/startup_gcc/system_startup.c ****     }
 602:../src/platform/mpfs_hal/startup_gcc/system_startup.c ****   }
 1208              		.loc 3 602 3
 1209 0028 0100     		nop
 1210 002a E260     		ld	ra,24(sp)
 1211              		.cfi_restore 1
 1212 002c 4264     		ld	s0,16(sp)
 1213              		.cfi_restore 8
 1214              		.cfi_def_cfa 2, 32
 1215 002e 0561     		addi	sp,sp,32
 1216              		.cfi_def_cfa_offset 0
 1217 0030 8280     		jr	ra
 1218              		.cfi_endproc
 1219              	.LFE30:
 1221              		.section	.text.init_bus_error_unit,"ax",@progbits
 1222              		.align	1
 1223              		.weak	init_bus_error_unit
 1225              	init_bus_error_unit:
 1226              	.LFB31:
 603:../src/platform/mpfs_hal/startup_gcc/system_startup.c **** 
 604:../src/platform/mpfs_hal/startup_gcc/system_startup.c ****  /**
 605:../src/platform/mpfs_hal/startup_gcc/system_startup.c ****   * This function is configured by editing parameters in
 606:../src/platform/mpfs_hal/startup_gcc/system_startup.c ****   * mss_sw_config.h as required.
 607:../src/platform/mpfs_hal/startup_gcc/system_startup.c ****   * @return
 608:../src/platform/mpfs_hal/startup_gcc/system_startup.c ****   */
 609:../src/platform/mpfs_hal/startup_gcc/system_startup.c **** 
 610:../src/platform/mpfs_hal/startup_gcc/system_startup.c **** __attribute__((weak)) uint8_t init_bus_error_unit(void)
 611:../src/platform/mpfs_hal/startup_gcc/system_startup.c **** {
 1227              		.loc 3 611 1
 1228              		.cfi_startproc
 1229 0000 0111     		addi	sp,sp,-32
 1230              		.cfi_def_cfa_offset 32
 1231 0002 22EC     		sd	s0,24(sp)
 1232              		.cfi_offset 8, -8
 1233 0004 0010     		addi	s0,sp,32
 1234              		.cfi_def_cfa 8, 0
 612:../src/platform/mpfs_hal/startup_gcc/system_startup.c ****     uint8_t hart_id;
 613:../src/platform/mpfs_hal/startup_gcc/system_startup.c ****     /* Init BEU in all harts - enable local interrupt */
 614:../src/platform/mpfs_hal/startup_gcc/system_startup.c ****     for(hart_id = MPFS_HAL_FIRST_HART; hart_id <= MPFS_HAL_LAST_HART; hart_id++)
 1235              		.loc 3 614 17
 1236 0006 A30704FE 		sb	zero,-17(s0)
 1237              		.loc 3 614 5
 1238 000a A5A8     		j	.L56
 1239              	.L57:
 615:../src/platform/mpfs_hal/startup_gcc/system_startup.c ****     {
 616:../src/platform/mpfs_hal/startup_gcc/system_startup.c ****         BEU->regs[hart_id].ENABLE      = (uint64_t)BEU_ENABLE;
 1240              		.loc 3 616 12 discriminator 3
 1241 000c 37077001 		li	a4,24117248
 1242              		.loc 3 616 27 discriminator 3
 1243 0010 8347F4FE 		lbu	a5,-17(s0)
 1244 0014 8127     		sext.w	a5,a5
 1245              		.loc 3 616 40 discriminator 3
 1246 0016 B207     		slli	a5,a5,12
 1247 0018 BA97     		add	a5,a4,a5
 1248 001a 23B80700 		sd	zero,16(a5)
 617:../src/platform/mpfs_hal/startup_gcc/system_startup.c ****         BEU->regs[hart_id].PLIC_INT    = (uint64_t)BEU_PLIC_INT;
 1249              		.loc 3 617 12 discriminator 3
 1250 001e 37077001 		li	a4,24117248
 1251              		.loc 3 617 27 discriminator 3
 1252 0022 8347F4FE 		lbu	a5,-17(s0)
 1253 0026 8127     		sext.w	a5,a5
 1254              		.loc 3 617 40 discriminator 3
 1255 0028 B207     		slli	a5,a5,12
 1256 002a BA97     		add	a5,a4,a5
 1257 002c 23BC0700 		sd	zero,24(a5)
 618:../src/platform/mpfs_hal/startup_gcc/system_startup.c ****         BEU->regs[hart_id].LOCAL_INT   = (uint64_t)BEU_LOCAL_INT;
 1258              		.loc 3 618 12 discriminator 3
 1259 0030 37077001 		li	a4,24117248
 1260              		.loc 3 618 27 discriminator 3
 1261 0034 8347F4FE 		lbu	a5,-17(s0)
 1262 0038 8127     		sext.w	a5,a5
 1263              		.loc 3 618 40 discriminator 3
 1264 003a B207     		slli	a5,a5,12
 1265 003c BA97     		add	a5,a4,a5
 1266 003e 23B40702 		sd	zero,40(a5)
 619:../src/platform/mpfs_hal/startup_gcc/system_startup.c ****         BEU->regs[hart_id].CAUSE       = 0ULL;
 1267              		.loc 3 619 12 discriminator 3
 1268 0042 37077001 		li	a4,24117248
 1269              		.loc 3 619 27 discriminator 3
 1270 0046 8347F4FE 		lbu	a5,-17(s0)
 1271 004a 8127     		sext.w	a5,a5
 1272              		.loc 3 619 40 discriminator 3
 1273 004c B207     		slli	a5,a5,12
 1274 004e BA97     		add	a5,a4,a5
 1275 0050 23B00700 		sd	zero,0(a5)
 620:../src/platform/mpfs_hal/startup_gcc/system_startup.c ****         BEU->regs[hart_id].ACCRUED     = 0ULL;
 1276              		.loc 3 620 12 discriminator 3
 1277 0054 37077001 		li	a4,24117248
 1278              		.loc 3 620 27 discriminator 3
 1279 0058 8347F4FE 		lbu	a5,-17(s0)
 1280 005c 8127     		sext.w	a5,a5
 1281              		.loc 3 620 40 discriminator 3
 1282 005e B207     		slli	a5,a5,12
 1283 0060 BA97     		add	a5,a4,a5
 1284 0062 23B00702 		sd	zero,32(a5)
 621:../src/platform/mpfs_hal/startup_gcc/system_startup.c ****         BEU->regs[hart_id].VALUE       = 0ULL;
 1285              		.loc 3 621 12 discriminator 3
 1286 0066 37077001 		li	a4,24117248
 1287              		.loc 3 621 27 discriminator 3
 1288 006a 8347F4FE 		lbu	a5,-17(s0)
 1289 006e 8127     		sext.w	a5,a5
 1290              		.loc 3 621 40 discriminator 3
 1291 0070 B207     		slli	a5,a5,12
 1292 0072 BA97     		add	a5,a4,a5
 1293 0074 23B40700 		sd	zero,8(a5)
 614:../src/platform/mpfs_hal/startup_gcc/system_startup.c ****     {
 1294              		.loc 3 614 78 discriminator 3
 1295 0078 8347F4FE 		lbu	a5,-17(s0)
 1296 007c 8527     		addiw	a5,a5,1
 1297 007e A307F4FE 		sb	a5,-17(s0)
 1298              	.L56:
 614:../src/platform/mpfs_hal/startup_gcc/system_startup.c ****     {
 1299              		.loc 3 614 5 discriminator 1
 1300 0082 8347F4FE 		lbu	a5,-17(s0)
 1301 0086 13F7F70F 		andi	a4,a5,0xff
 1302 008a 9147     		li	a5,4
 1303 008c E3F0E7F8 		bleu	a4,a5,.L57
 622:../src/platform/mpfs_hal/startup_gcc/system_startup.c ****     }
 623:../src/platform/mpfs_hal/startup_gcc/system_startup.c ****     return (0U);
 1304              		.loc 3 623 12
 1305 0090 8147     		li	a5,0
 624:../src/platform/mpfs_hal/startup_gcc/system_startup.c **** }
 1306              		.loc 3 624 1
 1307 0092 3E85     		mv	a0,a5
 1308 0094 6264     		ld	s0,24(sp)
 1309              		.cfi_restore 8
 1310              		.cfi_def_cfa 2, 32
 1311 0096 0561     		addi	sp,sp,32
 1312              		.cfi_def_cfa_offset 0
 1313 0098 8280     		jr	ra
 1314              		.cfi_endproc
 1315              	.LFE31:
 1317              		.section	.text.init_mem_protection_unit,"ax",@progbits
 1318              		.align	1
 1319              		.weak	init_mem_protection_unit
 1321              	init_mem_protection_unit:
 1322              	.LFB32:
 625:../src/platform/mpfs_hal/startup_gcc/system_startup.c **** 
 626:../src/platform/mpfs_hal/startup_gcc/system_startup.c **** /**
 627:../src/platform/mpfs_hal/startup_gcc/system_startup.c ****  * init_mem_protection_unit(void)
 628:../src/platform/mpfs_hal/startup_gcc/system_startup.c ****  * add this function to you code and configure as required
 629:../src/platform/mpfs_hal/startup_gcc/system_startup.c ****  * @return
 630:../src/platform/mpfs_hal/startup_gcc/system_startup.c ****  */
 631:../src/platform/mpfs_hal/startup_gcc/system_startup.c **** __attribute__((weak)) uint8_t init_mem_protection_unit(void)
 632:../src/platform/mpfs_hal/startup_gcc/system_startup.c **** {
 1323              		.loc 3 632 1
 1324              		.cfi_startproc
 1325 0000 4111     		addi	sp,sp,-16
 1326              		.cfi_def_cfa_offset 16
 1327 0002 06E4     		sd	ra,8(sp)
 1328 0004 22E0     		sd	s0,0(sp)
 1329              		.cfi_offset 1, -8
 1330              		.cfi_offset 8, -16
 1331 0006 0008     		addi	s0,sp,16
 1332              		.cfi_def_cfa 8, 0
 633:../src/platform/mpfs_hal/startup_gcc/system_startup.c ****     mpu_configure();
 1333              		.loc 3 633 5
 1334 0008 97000000 		call	mpu_configure
 1334      E7800000 
 634:../src/platform/mpfs_hal/startup_gcc/system_startup.c ****     return (0U);
 1335              		.loc 3 634 12
 1336 0010 8147     		li	a5,0
 635:../src/platform/mpfs_hal/startup_gcc/system_startup.c **** }
 1337              		.loc 3 635 1
 1338 0012 3E85     		mv	a0,a5
 1339 0014 A260     		ld	ra,8(sp)
 1340              		.cfi_restore 1
 1341 0016 0264     		ld	s0,0(sp)
 1342              		.cfi_restore 8
 1343              		.cfi_def_cfa 2, 16
 1344 0018 4101     		addi	sp,sp,16
 1345              		.cfi_def_cfa_offset 0
 1346 001a 8280     		jr	ra
 1347              		.cfi_endproc
 1348              	.LFE32:
 1350              		.section	.text.init_pmp,"ax",@progbits
 1351              		.align	1
 1352              		.weak	init_pmp
 1354              	init_pmp:
 1355              	.LFB33:
 636:../src/platform/mpfs_hal/startup_gcc/system_startup.c **** 
 637:../src/platform/mpfs_hal/startup_gcc/system_startup.c **** /**
 638:../src/platform/mpfs_hal/startup_gcc/system_startup.c ****  * init_pmp(void)
 639:../src/platform/mpfs_hal/startup_gcc/system_startup.c ****  * add this function to you code and configure as required
 640:../src/platform/mpfs_hal/startup_gcc/system_startup.c ****  * @return
 641:../src/platform/mpfs_hal/startup_gcc/system_startup.c ****  */
 642:../src/platform/mpfs_hal/startup_gcc/system_startup.c **** __attribute__((weak)) uint8_t init_pmp(uint8_t hart_id)
 643:../src/platform/mpfs_hal/startup_gcc/system_startup.c **** {
 1356              		.loc 3 643 1
 1357              		.cfi_startproc
 1358 0000 0111     		addi	sp,sp,-32
 1359              		.cfi_def_cfa_offset 32
 1360 0002 06EC     		sd	ra,24(sp)
 1361 0004 22E8     		sd	s0,16(sp)
 1362              		.cfi_offset 1, -8
 1363              		.cfi_offset 8, -16
 1364 0006 0010     		addi	s0,sp,32
 1365              		.cfi_def_cfa 8, 0
 1366 0008 AA87     		mv	a5,a0
 1367 000a A307F4FE 		sb	a5,-17(s0)
 644:../src/platform/mpfs_hal/startup_gcc/system_startup.c ****     pmp_configure(hart_id);
 1368              		.loc 3 644 5
 1369 000e 8347F4FE 		lbu	a5,-17(s0)
 1370 0012 3E85     		mv	a0,a5
 1371 0014 97000000 		call	pmp_configure
 1371      E7800000 
 645:../src/platform/mpfs_hal/startup_gcc/system_startup.c ****     return (0U);
 1372              		.loc 3 645 12
 1373 001c 8147     		li	a5,0
 646:../src/platform/mpfs_hal/startup_gcc/system_startup.c **** }
 1374              		.loc 3 646 1
 1375 001e 3E85     		mv	a0,a5
 1376 0020 E260     		ld	ra,24(sp)
 1377              		.cfi_restore 1
 1378 0022 4264     		ld	s0,16(sp)
 1379              		.cfi_restore 8
 1380              		.cfi_def_cfa 2, 32
 1381 0024 0561     		addi	sp,sp,32
 1382              		.cfi_def_cfa_offset 0
 1383 0026 8280     		jr	ra
 1384              		.cfi_endproc
 1385              	.LFE33:
 1387              		.section	.sbss.counter.12972,"aw",@nobits
 1388              		.align	3
 1391              	counter.12972:
 1392 0000 00000000 		.zero	8
 1392      00000000 
 1393              		.section	.sbss.counter.12995,"aw",@nobits
 1394              		.align	3
 1397              	counter.12995:
 1398 0000 00000000 		.zero	8
 1398      00000000 
 1399              		.text
 1400              	.Letext0:
 1401              		.file 4 "/home/vinay/Desktop/soft_console/SoftConsole-v2022.2-RISC-V-747/riscv-unknown-elf-gcc/lib
 1402              		.file 5 "/home/vinay/Desktop/soft_console/SoftConsole-v2022.2-RISC-V-747/riscv-unknown-elf-gcc/ris
 1403              		.file 6 "/home/vinay/Desktop/soft_console/SoftConsole-v2022.2-RISC-V-747/riscv-unknown-elf-gcc/ris
 1404              		.file 7 "/home/vinay/Desktop/softconsole_watershed/Water-shed/src/platform/mpfs_hal/common/nwc/mss
 1405              		.file 8 "/home/vinay/Desktop/softconsole_watershed/Water-shed/src/platform/mpfs_hal/common/nwc/mss
 1406              		.file 9 "/home/vinay/Desktop/softconsole_watershed/Water-shed/src/platform/mpfs_hal/common/nwc/mss
 1407              		.file 10 "/home/vinay/Desktop/softconsole_watershed/Water-shed/src/platform/mpfs_hal/common/mss_ha
 1408              		.file 11 "/home/vinay/Desktop/softconsole_watershed/Water-shed/src/platform/mpfs_hal/common/mss_mp
 1409              		.file 12 "/home/vinay/Desktop/softconsole_watershed/Water-shed/src/platform/mpfs_hal/common/nwc/ms
 1410              		.file 13 "/home/vinay/Desktop/softconsole_watershed/Water-shed/src/platform/mpfs_hal/common/mss_pe
 1411              		.file 14 "/home/vinay/Desktop/softconsole_watershed/Water-shed/src/platform/mpfs_hal/startup_gcc/s
DEFINED SYMBOLS
                            *ABS*:0000000000000000 system_startup.c
     /tmp/ccNzw1my.s:12     .text.raise_soft_interrupt:0000000000000000 raise_soft_interrupt
     /tmp/ccNzw1my.s:16     .text.raise_soft_interrupt:0000000000000000 .L0 
     /tmp/ccNzw1my.s:17     .text.raise_soft_interrupt:0000000000000000 .L0 
     /tmp/ccNzw1my.s:18     .text.raise_soft_interrupt:0000000000000002 .L0 
     /tmp/ccNzw1my.s:20     .text.raise_soft_interrupt:0000000000000004 .L0 
     /tmp/ccNzw1my.s:22     .text.raise_soft_interrupt:0000000000000006 .L0 
     /tmp/ccNzw1my.s:25     .text.raise_soft_interrupt:000000000000000a .L0 
     /tmp/ccNzw1my.s:27     .text.raise_soft_interrupt:000000000000000e .L0 
/home/vinay/Desktop/softconsole_watershed/Water-shed/src/platform/mpfs_hal/common/mss_clint.h:57     .text.raise_soft_interrupt:000000000000001a .L0 
     /tmp/ccNzw1my.s:39     .text.raise_soft_interrupt:000000000000001e .L0 
     /tmp/ccNzw1my.s:41     .text.raise_soft_interrupt:0000000000000022 .L0 
     /tmp/ccNzw1my.s:42     .text.raise_soft_interrupt:0000000000000022 .L0 
     /tmp/ccNzw1my.s:44     .text.raise_soft_interrupt:0000000000000024 .L0 
     /tmp/ccNzw1my.s:46     .text.raise_soft_interrupt:0000000000000026 .L0 
     /tmp/ccNzw1my.s:52     .text.PLIC_ClaimIRQ:0000000000000000 PLIC_ClaimIRQ
     /tmp/ccNzw1my.s:56     .text.PLIC_ClaimIRQ:0000000000000000 .L0 
     /tmp/ccNzw1my.s:57     .text.PLIC_ClaimIRQ:0000000000000000 .L0 
     /tmp/ccNzw1my.s:58     .text.PLIC_ClaimIRQ:0000000000000002 .L0 
     /tmp/ccNzw1my.s:60     .text.PLIC_ClaimIRQ:0000000000000004 .L0 
     /tmp/ccNzw1my.s:62     .text.PLIC_ClaimIRQ:0000000000000006 .L0 
/home/vinay/Desktop/softconsole_watershed/Water-shed/src/platform/mpfs_hal/common/mss_plic.h:767    .text.PLIC_ClaimIRQ:0000000000000006 .L0 
     /tmp/ccNzw1my.s:74     .text.PLIC_ClaimIRQ:0000000000000012 .L0 
     /tmp/ccNzw1my.s:76     .text.PLIC_ClaimIRQ:0000000000000016 .L0 
     /tmp/ccNzw1my.s:78     .text.PLIC_ClaimIRQ:000000000000001a .L0 
     /tmp/ccNzw1my.s:84     .text.PLIC_ClaimIRQ:000000000000002c .L0 
     /tmp/ccNzw1my.s:90     .text.PLIC_ClaimIRQ:0000000000000038 .L0 
     /tmp/ccNzw1my.s:92     .text.PLIC_ClaimIRQ:000000000000003c .L0 
     /tmp/ccNzw1my.s:93     .text.PLIC_ClaimIRQ:000000000000003c .L0 
     /tmp/ccNzw1my.s:95     .text.PLIC_ClaimIRQ:000000000000003e .L0 
     /tmp/ccNzw1my.s:97     .text.PLIC_ClaimIRQ:0000000000000040 .L0 
     /tmp/ccNzw1my.s:103    .text.PLIC_CompleteIRQ:0000000000000000 PLIC_CompleteIRQ
     /tmp/ccNzw1my.s:106    .text.PLIC_CompleteIRQ:0000000000000000 .L0 
     /tmp/ccNzw1my.s:107    .text.PLIC_CompleteIRQ:0000000000000000 .L0 
     /tmp/ccNzw1my.s:108    .text.PLIC_CompleteIRQ:0000000000000002 .L0 
     /tmp/ccNzw1my.s:110    .text.PLIC_CompleteIRQ:0000000000000004 .L0 
     /tmp/ccNzw1my.s:112    .text.PLIC_CompleteIRQ:0000000000000006 .L0 
/home/vinay/Desktop/softconsole_watershed/Water-shed/src/platform/mpfs_hal/common/mss_plic.h:778    .text.PLIC_CompleteIRQ:000000000000000c .L0 
     /tmp/ccNzw1my.s:126    .text.PLIC_CompleteIRQ:0000000000000018 .L0 
     /tmp/ccNzw1my.s:128    .text.PLIC_CompleteIRQ:000000000000001c .L0 
/home/vinay/Desktop/softconsole_watershed/Water-shed/src/platform/mpfs_hal/common/mss_plic.h:780    .text.PLIC_CompleteIRQ:000000000000002c .L0 
     /tmp/ccNzw1my.s:140    .text.PLIC_CompleteIRQ:000000000000002e .L0 
     /tmp/ccNzw1my.s:142    .text.PLIC_CompleteIRQ:0000000000000032 .L0 
     /tmp/ccNzw1my.s:148    .text.PLIC_CompleteIRQ:0000000000000044 .L0 
     /tmp/ccNzw1my.s:154    .text.PLIC_CompleteIRQ:0000000000000052 .L0 
     /tmp/ccNzw1my.s:156    .text.PLIC_CompleteIRQ:0000000000000056 .L0 
     /tmp/ccNzw1my.s:157    .text.PLIC_CompleteIRQ:0000000000000056 .L0 
     /tmp/ccNzw1my.s:159    .text.PLIC_CompleteIRQ:0000000000000058 .L0 
     /tmp/ccNzw1my.s:161    .text.PLIC_CompleteIRQ:000000000000005a .L0 
     /tmp/ccNzw1my.s:167    .text.PLIC_ClearPendingIRQ:0000000000000000 PLIC_ClearPendingIRQ
     /tmp/ccNzw1my.s:170    .text.PLIC_ClearPendingIRQ:0000000000000000 .L0 
     /tmp/ccNzw1my.s:171    .text.PLIC_ClearPendingIRQ:0000000000000000 .L0 
     /tmp/ccNzw1my.s:172    .text.PLIC_ClearPendingIRQ:0000000000000002 .L0 
     /tmp/ccNzw1my.s:175    .text.PLIC_ClearPendingIRQ:0000000000000006 .L0 
     /tmp/ccNzw1my.s:176    .text.PLIC_ClearPendingIRQ:0000000000000006 .L0 
     /tmp/ccNzw1my.s:178    .text.PLIC_ClearPendingIRQ:0000000000000008 .L0 
     /tmp/ccNzw1my.s:180    .text.PLIC_ClearPendingIRQ:0000000000000008 .L0 
     /tmp/ccNzw1my.s:184    .text.PLIC_ClearPendingIRQ:0000000000000014 .L0 
     /tmp/ccNzw1my.s:186    .text.PLIC_ClearPendingIRQ:0000000000000018 .L0 
     /tmp/ccNzw1my.s:189    .text.PLIC_ClearPendingIRQ:000000000000001a .L0 
     /tmp/ccNzw1my.s:194    .text.PLIC_ClearPendingIRQ:000000000000002a .L0 
     /tmp/ccNzw1my.s:197    .text.PLIC_ClearPendingIRQ:0000000000000030 .L0 
     /tmp/ccNzw1my.s:200    .text.PLIC_ClearPendingIRQ:0000000000000032 .L0 
     /tmp/ccNzw1my.s:207    .text.PLIC_ClearPendingIRQ:0000000000000040 .L0 
     /tmp/ccNzw1my.s:210    .text.PLIC_ClearPendingIRQ:0000000000000046 .L0 
     /tmp/ccNzw1my.s:212    .text.PLIC_ClearPendingIRQ:0000000000000048 .L0 
     /tmp/ccNzw1my.s:216    .text.PLIC_ClearPendingIRQ:0000000000000054 .L0 
     /tmp/ccNzw1my.s:219    .text.PLIC_ClearPendingIRQ:0000000000000058 .L0 
     /tmp/ccNzw1my.s:222    .text.PLIC_ClearPendingIRQ:000000000000005e .L0 
     /tmp/ccNzw1my.s:224    .text.PLIC_ClearPendingIRQ:0000000000000060 .L0 
     /tmp/ccNzw1my.s:226    .text.PLIC_ClearPendingIRQ:0000000000000064 .L0 
     /tmp/ccNzw1my.s:228    .text.PLIC_ClearPendingIRQ:0000000000000066 .L0 
     /tmp/ccNzw1my.s:229    .text.PLIC_ClearPendingIRQ:0000000000000066 .L0 
     /tmp/ccNzw1my.s:231    .text.PLIC_ClearPendingIRQ:0000000000000068 .L0 
     /tmp/ccNzw1my.s:233    .text.PLIC_ClearPendingIRQ:000000000000006a .L0 
     /tmp/ccNzw1my.s:239    .text.PLIC_init_on_reset:0000000000000000 PLIC_init_on_reset
     /tmp/ccNzw1my.s:242    .text.PLIC_init_on_reset:0000000000000000 .L0 
     /tmp/ccNzw1my.s:243    .text.PLIC_init_on_reset:0000000000000000 .L0 
     /tmp/ccNzw1my.s:244    .text.PLIC_init_on_reset:0000000000000002 .L0 
     /tmp/ccNzw1my.s:247    .text.PLIC_init_on_reset:0000000000000006 .L0 
     /tmp/ccNzw1my.s:248    .text.PLIC_init_on_reset:0000000000000006 .L0 
     /tmp/ccNzw1my.s:250    .text.PLIC_init_on_reset:0000000000000008 .L0 
     /tmp/ccNzw1my.s:252    .text.PLIC_init_on_reset:0000000000000008 .L0 
     /tmp/ccNzw1my.s:254    .text.PLIC_init_on_reset:000000000000000c .L0 
     /tmp/ccNzw1my.s:257    .text.PLIC_init_on_reset:000000000000000e .L0 
     /tmp/ccNzw1my.s:259    .text.PLIC_init_on_reset:0000000000000012 .L0 
     /tmp/ccNzw1my.s:264    .text.PLIC_init_on_reset:000000000000001e .L0 
     /tmp/ccNzw1my.s:269    .text.PLIC_init_on_reset:0000000000000028 .L0 
     /tmp/ccNzw1my.s:274    .text.PLIC_init_on_reset:0000000000000038 .L0 
     /tmp/ccNzw1my.s:276    .text.PLIC_init_on_reset:000000000000003c .L0 
     /tmp/ccNzw1my.s:279    .text.PLIC_init_on_reset:000000000000003e .L0 
     /tmp/ccNzw1my.s:281    .text.PLIC_init_on_reset:0000000000000042 .L0 
     /tmp/ccNzw1my.s:288    .text.PLIC_init_on_reset:0000000000000052 .L0 
     /tmp/ccNzw1my.s:293    .text.PLIC_init_on_reset:000000000000005c .L0 
     /tmp/ccNzw1my.s:298    .text.PLIC_init_on_reset:000000000000006a .L0 
     /tmp/ccNzw1my.s:300    .text.PLIC_init_on_reset:000000000000006e .L0 
     /tmp/ccNzw1my.s:303    .text.PLIC_init_on_reset:0000000000000070 .L0 
     /tmp/ccNzw1my.s:305    .text.PLIC_init_on_reset:0000000000000074 .L0 
     /tmp/ccNzw1my.s:313    .text.PLIC_init_on_reset:0000000000000088 .L0 
     /tmp/ccNzw1my.s:315    .text.PLIC_init_on_reset:000000000000008c .L0 
     /tmp/ccNzw1my.s:323    .text.PLIC_init_on_reset:00000000000000a0 .L0 
     /tmp/ccNzw1my.s:325    .text.PLIC_init_on_reset:00000000000000a4 .L0 
     /tmp/ccNzw1my.s:333    .text.PLIC_init_on_reset:00000000000000b8 .L0 
     /tmp/ccNzw1my.s:335    .text.PLIC_init_on_reset:00000000000000bc .L0 
     /tmp/ccNzw1my.s:343    .text.PLIC_init_on_reset:00000000000000d0 .L0 
     /tmp/ccNzw1my.s:345    .text.PLIC_init_on_reset:00000000000000d4 .L0 
     /tmp/ccNzw1my.s:353    .text.PLIC_init_on_reset:00000000000000e8 .L0 
     /tmp/ccNzw1my.s:355    .text.PLIC_init_on_reset:00000000000000ec .L0 
     /tmp/ccNzw1my.s:363    .text.PLIC_init_on_reset:0000000000000100 .L0 
     /tmp/ccNzw1my.s:365    .text.PLIC_init_on_reset:0000000000000104 .L0 
     /tmp/ccNzw1my.s:373    .text.PLIC_init_on_reset:0000000000000118 .L0 
     /tmp/ccNzw1my.s:375    .text.PLIC_init_on_reset:000000000000011c .L0 
     /tmp/ccNzw1my.s:383    .text.PLIC_init_on_reset:0000000000000130 .L0 
     /tmp/ccNzw1my.s:385    .text.PLIC_init_on_reset:0000000000000134 .L0 
     /tmp/ccNzw1my.s:393    .text.PLIC_init_on_reset:0000000000000148 .L0 
     /tmp/ccNzw1my.s:398    .text.PLIC_init_on_reset:0000000000000152 .L0 
     /tmp/ccNzw1my.s:403    .text.PLIC_init_on_reset:0000000000000160 .L0 
     /tmp/ccNzw1my.s:405    .text.PLIC_init_on_reset:0000000000000168 .L0 
     /tmp/ccNzw1my.s:407    .text.PLIC_init_on_reset:000000000000016c .L0 
     /tmp/ccNzw1my.s:409    .text.PLIC_init_on_reset:000000000000016e .L0 
     /tmp/ccNzw1my.s:410    .text.PLIC_init_on_reset:000000000000016e .L0 
     /tmp/ccNzw1my.s:412    .text.PLIC_init_on_reset:0000000000000170 .L0 
     /tmp/ccNzw1my.s:414    .text.PLIC_init_on_reset:0000000000000172 .L0 
     /tmp/ccNzw1my.s:421    .text.main_first_hart:0000000000000000 main_first_hart
     /tmp/ccNzw1my.s:425    .text.main_first_hart:0000000000000000 .L0 
     /tmp/ccNzw1my.s:426    .text.main_first_hart:0000000000000000 .L0 
     /tmp/ccNzw1my.s:427    .text.main_first_hart:0000000000000002 .L0 
     /tmp/ccNzw1my.s:430    .text.main_first_hart:0000000000000006 .L0 
     /tmp/ccNzw1my.s:431    .text.main_first_hart:0000000000000006 .L0 
     /tmp/ccNzw1my.s:433    .text.main_first_hart:0000000000000008 .L0 
../src/platform/mpfs_hal/startup_gcc/system_startup.c:53     .text.main_first_hart:000000000000000c .L0 
     /tmp/ccNzw1my.s:446    .text.main_first_hart:0000000000000018 .L0 
     /tmp/ccNzw1my.s:448    .text.main_first_hart:000000000000001c .L0 
     /tmp/ccNzw1my.s:452    .text.main_first_hart:0000000000000024 .L0 
     /tmp/ccNzw1my.s:1129   .text.init_memory:0000000000000000 init_memory
     /tmp/ccNzw1my.s:454    .text.main_first_hart:000000000000002c .L0 
     /tmp/ccNzw1my.s:889    .text.load_virtual_rom:0000000000000000 load_virtual_rom
     /tmp/ccNzw1my.s:456    .text.main_first_hart:0000000000000034 .L0 
     /tmp/ccNzw1my.s:1225   .text.init_bus_error_unit:0000000000000000 init_bus_error_unit
     /tmp/ccNzw1my.s:458    .text.main_first_hart:000000000000003c .L0 
     /tmp/ccNzw1my.s:1321   .text.init_mem_protection_unit:0000000000000000 init_mem_protection_unit
     /tmp/ccNzw1my.s:460    .text.main_first_hart:0000000000000044 .L0 
     /tmp/ccNzw1my.s:462    .text.main_first_hart:000000000000004c .L0 
     /tmp/ccNzw1my.s:1354   .text.init_pmp:0000000000000000 init_pmp
     /tmp/ccNzw1my.s:465    .text.main_first_hart:0000000000000056 .L0 
     /tmp/ccNzw1my.s:468    .text.main_first_hart:0000000000000060 .L0 
     /tmp/ccNzw1my.s:471    .text.main_first_hart:000000000000006a .L0 
     /tmp/ccNzw1my.s:473    .text.main_first_hart:0000000000000072 .L0 
     /tmp/ccNzw1my.s:475    .text.main_first_hart:000000000000007a .L0 
     /tmp/ccNzw1my.s:477    .text.main_first_hart:0000000000000082 .L0 
     /tmp/ccNzw1my.s:480    .text.main_first_hart:000000000000008e .L0 
     /tmp/ccNzw1my.s:483    .text.main_first_hart:0000000000000096 .L0 
     /tmp/ccNzw1my.s:485    .text.main_first_hart:000000000000009a .L0 
     /tmp/ccNzw1my.s:490    .text.main_first_hart:00000000000000a8 .L0 
     /tmp/ccNzw1my.s:493    .text.main_first_hart:00000000000000b0 .L0 
     /tmp/ccNzw1my.s:495    .text.main_first_hart:00000000000000b4 .L0 
     /tmp/ccNzw1my.s:498    .text.main_first_hart:00000000000000ba .L0 
     /tmp/ccNzw1my.s:502    .text.main_first_hart:00000000000000bc .L0 
     /tmp/ccNzw1my.s:504    .text.main_first_hart:00000000000000c0 .L0 
     /tmp/ccNzw1my.s:517    .text.main_first_hart:00000000000000ea .L0 
     /tmp/ccNzw1my.s:539    .text.main_first_hart:000000000000011c .L0 
     /tmp/ccNzw1my.s:542    .text.main_first_hart:0000000000000128 .L0 
     /tmp/ccNzw1my.s:545    .text.main_first_hart:000000000000012a .L0 
     /tmp/ccNzw1my.s:548    .text.main_first_hart:0000000000000136 .L0 
     /tmp/ccNzw1my.s:551    .text.main_first_hart:0000000000000138 .L0 
     /tmp/ccNzw1my.s:554    .text.main_first_hart:0000000000000144 .L0 
     /tmp/ccNzw1my.s:557    .text.main_first_hart:0000000000000146 .L0 
     /tmp/ccNzw1my.s:560    .text.main_first_hart:0000000000000152 .L0 
     /tmp/ccNzw1my.s:563    .text.main_first_hart:0000000000000154 .L0 
     /tmp/ccNzw1my.s:566    .text.main_first_hart:000000000000015c .L0 
     /tmp/ccNzw1my.s:568    .text.main_first_hart:0000000000000160 .L0 
     /tmp/ccNzw1my.s:571    .text.main_first_hart:0000000000000166 .L0 
     /tmp/ccNzw1my.s:573    .text.main_first_hart:000000000000016a .L0 
     /tmp/ccNzw1my.s:576    .text.main_first_hart:000000000000016c .L0 
     /tmp/ccNzw1my.s:580    .text.main_first_hart:0000000000000174 .L0 
     /tmp/ccNzw1my.s:585    .text.main_first_hart:0000000000000182 .L0 
     /tmp/ccNzw1my.s:588    .text.main_first_hart:0000000000000188 .L0 
     /tmp/ccNzw1my.s:591    .text.main_first_hart:000000000000018a .L0 
     /tmp/ccNzw1my.s:596    .text.main_first_hart:0000000000000198 .L0 
     /tmp/ccNzw1my.s:600    .text.main_first_hart:00000000000001a6 .L0 
     /tmp/ccNzw1my.s:603    .text.main_first_hart:00000000000001ac .L0 
     /tmp/ccNzw1my.s:605    .text.main_first_hart:00000000000001b0 .L0 
     /tmp/ccNzw1my.s:608    .text.main_first_hart:00000000000001b2 .L0 
     /tmp/ccNzw1my.s:612    .text.main_first_hart:00000000000001ba .L0 
     /tmp/ccNzw1my.s:617    .text.main_first_hart:00000000000001c8 .L0 
     /tmp/ccNzw1my.s:619    .text.main_first_hart:00000000000001cc .L0 
     /tmp/ccNzw1my.s:623    .text.main_first_hart:00000000000001d6 .L0 
     /tmp/ccNzw1my.s:627    .text.main_first_hart:00000000000001dc .L0 
     /tmp/ccNzw1my.s:631    .text.main_first_hart:00000000000001e6 .L0 
     /tmp/ccNzw1my.s:636    .text.main_first_hart:00000000000001f4 .L0 
     /tmp/ccNzw1my.s:640    .text.main_first_hart:00000000000001fc .L0 
     /tmp/ccNzw1my.s:645    .text.main_first_hart:000000000000020a .L0 
     /tmp/ccNzw1my.s:650    .text.main_first_hart:0000000000000218 .L0 
     /tmp/ccNzw1my.s:654    .text.main_first_hart:0000000000000226 .L0 
     /tmp/ccNzw1my.s:657    .text.main_first_hart:000000000000022a .L0 
     /tmp/ccNzw1my.s:661    .text.main_first_hart:000000000000022c .L0 
     /tmp/ccNzw1my.s:666    .text.main_first_hart:000000000000023a .L0 
     /tmp/ccNzw1my.s:669    .text.main_first_hart:0000000000000246 .L0 
     /tmp/ccNzw1my.s:672    .text.main_first_hart:000000000000024e .L0 
     /tmp/ccNzw1my.s:674    .text.main_first_hart:0000000000000252 .L0 
     /tmp/ccNzw1my.s:679    .text.main_first_hart:0000000000000260 .L0 
     /tmp/ccNzw1my.s:684    .text.main_first_hart:0000000000000270 .L0 
     /tmp/ccNzw1my.s:689    .text.main_first_hart:0000000000000280 .L0 
     /tmp/ccNzw1my.s:694    .text.main_first_hart:0000000000000290 .L0 
     /tmp/ccNzw1my.s:699    .text.main_first_hart:00000000000002a0 .L0 
     /tmp/ccNzw1my.s:701    .text.main_first_hart:00000000000002a8 .L0 
     /tmp/ccNzw1my.s:712    .text.main_other_hart:0000000000000000 main_other_hart
     /tmp/ccNzw1my.s:705    .text.main_first_hart:00000000000002b4 .L0 
     /tmp/ccNzw1my.s:715    .text.main_other_hart:0000000000000000 .L0 
     /tmp/ccNzw1my.s:716    .text.main_other_hart:0000000000000000 .L0 
     /tmp/ccNzw1my.s:717    .text.main_other_hart:0000000000000002 .L0 
     /tmp/ccNzw1my.s:720    .text.main_other_hart:0000000000000006 .L0 
     /tmp/ccNzw1my.s:721    .text.main_other_hart:0000000000000006 .L0 
     /tmp/ccNzw1my.s:723    .text.main_other_hart:0000000000000008 .L0 
     /tmp/ccNzw1my.s:726    .text.main_other_hart:000000000000000c .L0 
     /tmp/ccNzw1my.s:728    .text.main_other_hart:0000000000000014 .L0 
     /tmp/ccNzw1my.s:731    .text.main_other_hart:000000000000001c .L0 
     /tmp/ccNzw1my.s:733    .text.main_other_hart:0000000000000024 .L0 
     /tmp/ccNzw1my.s:736    .text.main_other_hart:000000000000002c .L0 
     /tmp/ccNzw1my.s:738    .text.main_other_hart:0000000000000034 .L0 
     /tmp/ccNzw1my.s:741    .text.main_other_hart:000000000000003c .L0 
     /tmp/ccNzw1my.s:743    .text.main_other_hart:0000000000000044 .L0 
     /tmp/ccNzw1my.s:746    .text.main_other_hart:000000000000004c .L0 
     /tmp/ccNzw1my.s:748    .text.main_other_hart:0000000000000054 .L0 
     /tmp/ccNzw1my.s:751    .text.main_other_hart:000000000000005c .L0 
     /tmp/ccNzw1my.s:755    .text.main_other_hart:0000000000000064 .L0 
     /tmp/ccNzw1my.s:778    .text.main_other_hart:000000000000008c .L0 
     /tmp/ccNzw1my.s:974    .text.e51:0000000000000000 e51
     /tmp/ccNzw1my.s:786    .text.main_other_hart:0000000000000098 .L0 
     /tmp/ccNzw1my.s:788    .text.main_other_hart:00000000000000a0 .L0 
     /tmp/ccNzw1my.s:791    .text.main_other_hart:00000000000000a2 .L0 
     /tmp/ccNzw1my.s:794    .text.main_other_hart:00000000000000ac .L0 
     /tmp/ccNzw1my.s:1005   .text.u54_1:0000000000000000 u54_1
     /tmp/ccNzw1my.s:802    .text.main_other_hart:00000000000000b8 .L0 
     /tmp/ccNzw1my.s:804    .text.main_other_hart:00000000000000c0 .L0 
     /tmp/ccNzw1my.s:807    .text.main_other_hart:00000000000000c2 .L0 
     /tmp/ccNzw1my.s:810    .text.main_other_hart:00000000000000cc .L0 
     /tmp/ccNzw1my.s:1036   .text.u54_2:0000000000000000 u54_2
     /tmp/ccNzw1my.s:818    .text.main_other_hart:00000000000000d8 .L0 
     /tmp/ccNzw1my.s:820    .text.main_other_hart:00000000000000e0 .L0 
     /tmp/ccNzw1my.s:823    .text.main_other_hart:00000000000000e2 .L0 
     /tmp/ccNzw1my.s:826    .text.main_other_hart:00000000000000ec .L0 
     /tmp/ccNzw1my.s:1067   .text.u54_3:0000000000000000 u54_3
     /tmp/ccNzw1my.s:834    .text.main_other_hart:00000000000000f8 .L0 
     /tmp/ccNzw1my.s:836    .text.main_other_hart:0000000000000100 .L0 
     /tmp/ccNzw1my.s:839    .text.main_other_hart:0000000000000102 .L0 
     /tmp/ccNzw1my.s:842    .text.main_other_hart:000000000000010c .L0 
     /tmp/ccNzw1my.s:1098   .text.u54_4:0000000000000000 u54_4
     /tmp/ccNzw1my.s:850    .text.main_other_hart:0000000000000118 .L0 
     /tmp/ccNzw1my.s:852    .text.main_other_hart:0000000000000120 .L0 
     /tmp/ccNzw1my.s:855    .text.main_other_hart:0000000000000122 .L0 
     /tmp/ccNzw1my.s:1397   .sbss.counter.12995:0000000000000000 counter.12995
     /tmp/ccNzw1my.s:859    .text.main_other_hart:0000000000000124 .L0 
     /tmp/ccNzw1my.s:863    .text.main_other_hart:0000000000000132 .L0 
     /tmp/ccNzw1my.s:867    .text.main_other_hart:000000000000013c .L0 
     /tmp/ccNzw1my.s:868    .text.main_other_hart:000000000000013e .L0 
     /tmp/ccNzw1my.s:876    .rodata.rom:0000000000000000 rom
     /tmp/ccNzw1my.s:892    .text.load_virtual_rom:0000000000000000 .L0 
     /tmp/ccNzw1my.s:893    .text.load_virtual_rom:0000000000000000 .L0 
     /tmp/ccNzw1my.s:894    .text.load_virtual_rom:0000000000000002 .L0 
     /tmp/ccNzw1my.s:897    .text.load_virtual_rom:0000000000000006 .L0 
     /tmp/ccNzw1my.s:898    .text.load_virtual_rom:0000000000000006 .L0 
     /tmp/ccNzw1my.s:900    .text.load_virtual_rom:0000000000000008 .L0 
     /tmp/ccNzw1my.s:902    .text.load_virtual_rom:0000000000000008 .L0 
     /tmp/ccNzw1my.s:906    .text.load_virtual_rom:0000000000000014 .L0 
     /tmp/ccNzw1my.s:911    .text.load_virtual_rom:000000000000002a .L0 
     /tmp/ccNzw1my.s:913    .text.load_virtual_rom:000000000000002e .L0 
     /tmp/ccNzw1my.s:915    .text.load_virtual_rom:0000000000000030 .L0 
     /tmp/ccNzw1my.s:916    .text.load_virtual_rom:0000000000000030 .L0 
     /tmp/ccNzw1my.s:918    .text.load_virtual_rom:0000000000000032 .L0 
     /tmp/ccNzw1my.s:920    .text.load_virtual_rom:0000000000000034 .L0 
     /tmp/ccNzw1my.s:926    .text.park_hart:0000000000000000 park_hart
     /tmp/ccNzw1my.s:929    .text.park_hart:0000000000000000 .L0 
     /tmp/ccNzw1my.s:930    .text.park_hart:0000000000000000 .L0 
     /tmp/ccNzw1my.s:931    .text.park_hart:0000000000000002 .L0 
     /tmp/ccNzw1my.s:933    .text.park_hart:0000000000000004 .L0 
     /tmp/ccNzw1my.s:935    .text.park_hart:0000000000000006 .L0 
../src/platform/mpfs_hal/startup_gcc/system_startup.c:495    .text.park_hart:0000000000000006 .L0 
../src/platform/mpfs_hal/startup_gcc/system_startup.c:496    .text.park_hart:000000000000000e .L0 
../src/platform/mpfs_hal/startup_gcc/system_startup.c:497    .text.park_hart:0000000000000012 .L0 
../src/platform/mpfs_hal/startup_gcc/system_startup.c:498    .text.park_hart:000000000000001a .L0 
     /tmp/ccNzw1my.s:960    .text.park_hart:000000000000001c .L0 
     /tmp/ccNzw1my.s:962    .text.park_hart:0000000000000020 .L0 
     /tmp/ccNzw1my.s:963    .text.park_hart:0000000000000020 .L0 
     /tmp/ccNzw1my.s:965    .text.park_hart:0000000000000022 .L0 
     /tmp/ccNzw1my.s:967    .text.park_hart:0000000000000024 .L0 
     /tmp/ccNzw1my.s:977    .text.e51:0000000000000000 .L0 
     /tmp/ccNzw1my.s:978    .text.e51:0000000000000000 .L0 
     /tmp/ccNzw1my.s:979    .text.e51:0000000000000002 .L0 
     /tmp/ccNzw1my.s:982    .text.e51:0000000000000006 .L0 
     /tmp/ccNzw1my.s:983    .text.e51:0000000000000006 .L0 
     /tmp/ccNzw1my.s:985    .text.e51:0000000000000008 .L0 
     /tmp/ccNzw1my.s:987    .text.e51:0000000000000008 .L0 
     /tmp/ccNzw1my.s:989    .text.e51:0000000000000010 .L0 
     /tmp/ccNzw1my.s:991    .text.e51:0000000000000014 .L0 
     /tmp/ccNzw1my.s:993    .text.e51:0000000000000016 .L0 
     /tmp/ccNzw1my.s:994    .text.e51:0000000000000016 .L0 
     /tmp/ccNzw1my.s:996    .text.e51:0000000000000018 .L0 
     /tmp/ccNzw1my.s:998    .text.e51:000000000000001a .L0 
     /tmp/ccNzw1my.s:1008   .text.u54_1:0000000000000000 .L0 
     /tmp/ccNzw1my.s:1009   .text.u54_1:0000000000000000 .L0 
     /tmp/ccNzw1my.s:1010   .text.u54_1:0000000000000002 .L0 
     /tmp/ccNzw1my.s:1013   .text.u54_1:0000000000000006 .L0 
     /tmp/ccNzw1my.s:1014   .text.u54_1:0000000000000006 .L0 
     /tmp/ccNzw1my.s:1016   .text.u54_1:0000000000000008 .L0 
     /tmp/ccNzw1my.s:1018   .text.u54_1:0000000000000008 .L0 
     /tmp/ccNzw1my.s:1020   .text.u54_1:0000000000000010 .L0 
     /tmp/ccNzw1my.s:1022   .text.u54_1:0000000000000014 .L0 
     /tmp/ccNzw1my.s:1024   .text.u54_1:0000000000000016 .L0 
     /tmp/ccNzw1my.s:1025   .text.u54_1:0000000000000016 .L0 
     /tmp/ccNzw1my.s:1027   .text.u54_1:0000000000000018 .L0 
     /tmp/ccNzw1my.s:1029   .text.u54_1:000000000000001a .L0 
     /tmp/ccNzw1my.s:1039   .text.u54_2:0000000000000000 .L0 
     /tmp/ccNzw1my.s:1040   .text.u54_2:0000000000000000 .L0 
     /tmp/ccNzw1my.s:1041   .text.u54_2:0000000000000002 .L0 
     /tmp/ccNzw1my.s:1044   .text.u54_2:0000000000000006 .L0 
     /tmp/ccNzw1my.s:1045   .text.u54_2:0000000000000006 .L0 
     /tmp/ccNzw1my.s:1047   .text.u54_2:0000000000000008 .L0 
     /tmp/ccNzw1my.s:1049   .text.u54_2:0000000000000008 .L0 
     /tmp/ccNzw1my.s:1051   .text.u54_2:0000000000000010 .L0 
     /tmp/ccNzw1my.s:1053   .text.u54_2:0000000000000014 .L0 
     /tmp/ccNzw1my.s:1055   .text.u54_2:0000000000000016 .L0 
     /tmp/ccNzw1my.s:1056   .text.u54_2:0000000000000016 .L0 
     /tmp/ccNzw1my.s:1058   .text.u54_2:0000000000000018 .L0 
     /tmp/ccNzw1my.s:1060   .text.u54_2:000000000000001a .L0 
     /tmp/ccNzw1my.s:1070   .text.u54_3:0000000000000000 .L0 
     /tmp/ccNzw1my.s:1071   .text.u54_3:0000000000000000 .L0 
     /tmp/ccNzw1my.s:1072   .text.u54_3:0000000000000002 .L0 
     /tmp/ccNzw1my.s:1075   .text.u54_3:0000000000000006 .L0 
     /tmp/ccNzw1my.s:1076   .text.u54_3:0000000000000006 .L0 
     /tmp/ccNzw1my.s:1078   .text.u54_3:0000000000000008 .L0 
     /tmp/ccNzw1my.s:1080   .text.u54_3:0000000000000008 .L0 
     /tmp/ccNzw1my.s:1082   .text.u54_3:0000000000000010 .L0 
     /tmp/ccNzw1my.s:1084   .text.u54_3:0000000000000014 .L0 
     /tmp/ccNzw1my.s:1086   .text.u54_3:0000000000000016 .L0 
     /tmp/ccNzw1my.s:1087   .text.u54_3:0000000000000016 .L0 
     /tmp/ccNzw1my.s:1089   .text.u54_3:0000000000000018 .L0 
     /tmp/ccNzw1my.s:1091   .text.u54_3:000000000000001a .L0 
     /tmp/ccNzw1my.s:1101   .text.u54_4:0000000000000000 .L0 
     /tmp/ccNzw1my.s:1102   .text.u54_4:0000000000000000 .L0 
     /tmp/ccNzw1my.s:1103   .text.u54_4:0000000000000002 .L0 
     /tmp/ccNzw1my.s:1106   .text.u54_4:0000000000000006 .L0 
     /tmp/ccNzw1my.s:1107   .text.u54_4:0000000000000006 .L0 
     /tmp/ccNzw1my.s:1109   .text.u54_4:0000000000000008 .L0 
     /tmp/ccNzw1my.s:1111   .text.u54_4:0000000000000008 .L0 
     /tmp/ccNzw1my.s:1113   .text.u54_4:0000000000000010 .L0 
     /tmp/ccNzw1my.s:1115   .text.u54_4:0000000000000014 .L0 
     /tmp/ccNzw1my.s:1117   .text.u54_4:0000000000000016 .L0 
     /tmp/ccNzw1my.s:1118   .text.u54_4:0000000000000016 .L0 
     /tmp/ccNzw1my.s:1120   .text.u54_4:0000000000000018 .L0 
     /tmp/ccNzw1my.s:1122   .text.u54_4:000000000000001a .L0 
     /tmp/ccNzw1my.s:1132   .text.init_memory:0000000000000000 .L0 
     /tmp/ccNzw1my.s:1133   .text.init_memory:0000000000000000 .L0 
     /tmp/ccNzw1my.s:1134   .text.init_memory:0000000000000002 .L0 
     /tmp/ccNzw1my.s:1137   .text.init_memory:0000000000000006 .L0 
     /tmp/ccNzw1my.s:1138   .text.init_memory:0000000000000006 .L0 
     /tmp/ccNzw1my.s:1140   .text.init_memory:0000000000000008 .L0 
     /tmp/ccNzw1my.s:1142   .text.init_memory:0000000000000008 .L0 
     /tmp/ccNzw1my.s:1147   .text.init_memory:0000000000000028 .L0 
     /tmp/ccNzw1my.s:1152   .text.init_memory:0000000000000048 .L0 
     /tmp/ccNzw1my.s:1157   .text.init_memory:0000000000000068 .L0 
     /tmp/ccNzw1my.s:1161   .text.init_memory:0000000000000080 .L0 
     /tmp/ccNzw1my.s:1165   .text.init_memory:0000000000000098 .L0 
     /tmp/ccNzw1my.s:1167   .text.init_memory:00000000000000a0 .L0 
     /tmp/ccNzw1my.s:1169   .text.init_memory:00000000000000a4 .L0 
     /tmp/ccNzw1my.s:1171   .text.init_memory:00000000000000a6 .L0 
     /tmp/ccNzw1my.s:1172   .text.init_memory:00000000000000a6 .L0 
     /tmp/ccNzw1my.s:1174   .text.init_memory:00000000000000a8 .L0 
     /tmp/ccNzw1my.s:1176   .text.init_memory:00000000000000aa .L0 
     /tmp/ccNzw1my.s:1183   .text.init_ddr:0000000000000000 init_ddr
     /tmp/ccNzw1my.s:1186   .text.init_ddr:0000000000000000 .L0 
     /tmp/ccNzw1my.s:1187   .text.init_ddr:0000000000000000 .L0 
     /tmp/ccNzw1my.s:1188   .text.init_ddr:0000000000000002 .L0 
     /tmp/ccNzw1my.s:1191   .text.init_ddr:0000000000000006 .L0 
     /tmp/ccNzw1my.s:1192   .text.init_ddr:0000000000000006 .L0 
     /tmp/ccNzw1my.s:1194   .text.init_ddr:0000000000000008 .L0 
     /tmp/ccNzw1my.s:1197   .text.init_ddr:0000000000000008 .L0 
     /tmp/ccNzw1my.s:1202   .text.init_ddr:0000000000000014 .L0 
     /tmp/ccNzw1my.s:1209   .text.init_ddr:0000000000000028 .L0 
     /tmp/ccNzw1my.s:1211   .text.init_ddr:000000000000002c .L0 
     /tmp/ccNzw1my.s:1213   .text.init_ddr:000000000000002e .L0 
     /tmp/ccNzw1my.s:1214   .text.init_ddr:000000000000002e .L0 
     /tmp/ccNzw1my.s:1216   .text.init_ddr:0000000000000030 .L0 
     /tmp/ccNzw1my.s:1218   .text.init_ddr:0000000000000032 .L0 
     /tmp/ccNzw1my.s:1228   .text.init_bus_error_unit:0000000000000000 .L0 
     /tmp/ccNzw1my.s:1229   .text.init_bus_error_unit:0000000000000000 .L0 
     /tmp/ccNzw1my.s:1230   .text.init_bus_error_unit:0000000000000002 .L0 
     /tmp/ccNzw1my.s:1232   .text.init_bus_error_unit:0000000000000004 .L0 
     /tmp/ccNzw1my.s:1234   .text.init_bus_error_unit:0000000000000006 .L0 
     /tmp/ccNzw1my.s:1236   .text.init_bus_error_unit:0000000000000006 .L0 
     /tmp/ccNzw1my.s:1238   .text.init_bus_error_unit:000000000000000a .L0 
     /tmp/ccNzw1my.s:1241   .text.init_bus_error_unit:000000000000000c .L0 
     /tmp/ccNzw1my.s:1243   .text.init_bus_error_unit:0000000000000010 .L0 
     /tmp/ccNzw1my.s:1246   .text.init_bus_error_unit:0000000000000016 .L0 
     /tmp/ccNzw1my.s:1250   .text.init_bus_error_unit:000000000000001e .L0 
     /tmp/ccNzw1my.s:1252   .text.init_bus_error_unit:0000000000000022 .L0 
     /tmp/ccNzw1my.s:1255   .text.init_bus_error_unit:0000000000000028 .L0 
     /tmp/ccNzw1my.s:1259   .text.init_bus_error_unit:0000000000000030 .L0 
     /tmp/ccNzw1my.s:1261   .text.init_bus_error_unit:0000000000000034 .L0 
     /tmp/ccNzw1my.s:1264   .text.init_bus_error_unit:000000000000003a .L0 
     /tmp/ccNzw1my.s:1268   .text.init_bus_error_unit:0000000000000042 .L0 
     /tmp/ccNzw1my.s:1270   .text.init_bus_error_unit:0000000000000046 .L0 
     /tmp/ccNzw1my.s:1273   .text.init_bus_error_unit:000000000000004c .L0 
     /tmp/ccNzw1my.s:1277   .text.init_bus_error_unit:0000000000000054 .L0 
     /tmp/ccNzw1my.s:1279   .text.init_bus_error_unit:0000000000000058 .L0 
     /tmp/ccNzw1my.s:1282   .text.init_bus_error_unit:000000000000005e .L0 
     /tmp/ccNzw1my.s:1286   .text.init_bus_error_unit:0000000000000066 .L0 
     /tmp/ccNzw1my.s:1288   .text.init_bus_error_unit:000000000000006a .L0 
     /tmp/ccNzw1my.s:1291   .text.init_bus_error_unit:0000000000000070 .L0 
     /tmp/ccNzw1my.s:1295   .text.init_bus_error_unit:0000000000000078 .L0 
     /tmp/ccNzw1my.s:1300   .text.init_bus_error_unit:0000000000000082 .L0 
     /tmp/ccNzw1my.s:1305   .text.init_bus_error_unit:0000000000000090 .L0 
     /tmp/ccNzw1my.s:1307   .text.init_bus_error_unit:0000000000000092 .L0 
     /tmp/ccNzw1my.s:1309   .text.init_bus_error_unit:0000000000000096 .L0 
     /tmp/ccNzw1my.s:1310   .text.init_bus_error_unit:0000000000000096 .L0 
     /tmp/ccNzw1my.s:1312   .text.init_bus_error_unit:0000000000000098 .L0 
     /tmp/ccNzw1my.s:1314   .text.init_bus_error_unit:000000000000009a .L0 
     /tmp/ccNzw1my.s:1324   .text.init_mem_protection_unit:0000000000000000 .L0 
     /tmp/ccNzw1my.s:1325   .text.init_mem_protection_unit:0000000000000000 .L0 
     /tmp/ccNzw1my.s:1326   .text.init_mem_protection_unit:0000000000000002 .L0 
     /tmp/ccNzw1my.s:1329   .text.init_mem_protection_unit:0000000000000006 .L0 
     /tmp/ccNzw1my.s:1330   .text.init_mem_protection_unit:0000000000000006 .L0 
     /tmp/ccNzw1my.s:1332   .text.init_mem_protection_unit:0000000000000008 .L0 
     /tmp/ccNzw1my.s:1334   .text.init_mem_protection_unit:0000000000000008 .L0 
     /tmp/ccNzw1my.s:1336   .text.init_mem_protection_unit:0000000000000010 .L0 
     /tmp/ccNzw1my.s:1338   .text.init_mem_protection_unit:0000000000000012 .L0 
     /tmp/ccNzw1my.s:1340   .text.init_mem_protection_unit:0000000000000016 .L0 
     /tmp/ccNzw1my.s:1342   .text.init_mem_protection_unit:0000000000000018 .L0 
     /tmp/ccNzw1my.s:1343   .text.init_mem_protection_unit:0000000000000018 .L0 
     /tmp/ccNzw1my.s:1345   .text.init_mem_protection_unit:000000000000001a .L0 
     /tmp/ccNzw1my.s:1347   .text.init_mem_protection_unit:000000000000001c .L0 
     /tmp/ccNzw1my.s:1357   .text.init_pmp:0000000000000000 .L0 
     /tmp/ccNzw1my.s:1358   .text.init_pmp:0000000000000000 .L0 
     /tmp/ccNzw1my.s:1359   .text.init_pmp:0000000000000002 .L0 
     /tmp/ccNzw1my.s:1362   .text.init_pmp:0000000000000006 .L0 
     /tmp/ccNzw1my.s:1363   .text.init_pmp:0000000000000006 .L0 
     /tmp/ccNzw1my.s:1365   .text.init_pmp:0000000000000008 .L0 
     /tmp/ccNzw1my.s:1369   .text.init_pmp:000000000000000e .L0 
     /tmp/ccNzw1my.s:1373   .text.init_pmp:000000000000001c .L0 
     /tmp/ccNzw1my.s:1375   .text.init_pmp:000000000000001e .L0 
     /tmp/ccNzw1my.s:1377   .text.init_pmp:0000000000000022 .L0 
     /tmp/ccNzw1my.s:1379   .text.init_pmp:0000000000000024 .L0 
     /tmp/ccNzw1my.s:1380   .text.init_pmp:0000000000000024 .L0 
     /tmp/ccNzw1my.s:1382   .text.init_pmp:0000000000000026 .L0 
     /tmp/ccNzw1my.s:1384   .text.init_pmp:0000000000000028 .L0 
     /tmp/ccNzw1my.s:1391   .sbss.counter.12972:0000000000000000 counter.12972
     /tmp/ccNzw1my.s:49     .text.raise_soft_interrupt:0000000000000026 .L0 
     /tmp/ccNzw1my.s:100    .text.PLIC_ClaimIRQ:0000000000000040 .L0 
     /tmp/ccNzw1my.s:164    .text.PLIC_CompleteIRQ:000000000000005a .L0 
     /tmp/ccNzw1my.s:236    .text.PLIC_ClearPendingIRQ:000000000000006a .L0 
     /tmp/ccNzw1my.s:417    .text.PLIC_init_on_reset:0000000000000172 .L0 
     /tmp/ccNzw1my.s:708    .text.main_first_hart:00000000000002b4 .L0 
     /tmp/ccNzw1my.s:872    .text.main_other_hart:000000000000013e .L0 
     /tmp/ccNzw1my.s:923    .text.load_virtual_rom:0000000000000034 .L0 
     /tmp/ccNzw1my.s:970    .text.park_hart:0000000000000024 .L0 
     /tmp/ccNzw1my.s:1001   .text.e51:000000000000001a .L0 
     /tmp/ccNzw1my.s:1032   .text.u54_1:000000000000001a .L0 
     /tmp/ccNzw1my.s:1063   .text.u54_2:000000000000001a .L0 
     /tmp/ccNzw1my.s:1094   .text.u54_3:000000000000001a .L0 
     /tmp/ccNzw1my.s:1125   .text.u54_4:000000000000001a .L0 
     /tmp/ccNzw1my.s:1179   .text.init_memory:00000000000000aa .L0 
     /tmp/ccNzw1my.s:1221   .text.init_ddr:0000000000000032 .L0 
     /tmp/ccNzw1my.s:1317   .text.init_bus_error_unit:000000000000009a .L0 
     /tmp/ccNzw1my.s:1350   .text.init_mem_protection_unit:000000000000001c .L0 
     /tmp/ccNzw1my.s:1387   .text.init_pmp:0000000000000028 .L0 
                     .debug_frame:0000000000000000 .L0 
     /tmp/ccNzw1my.s:78     .text.PLIC_ClaimIRQ:000000000000001a .L0 
     /tmp/ccNzw1my.s:142    .text.PLIC_CompleteIRQ:0000000000000032 .L0 
     /tmp/ccNzw1my.s:138    .text.PLIC_CompleteIRQ:000000000000002e .L5
     /tmp/ccNzw1my.s:217    .text.PLIC_ClearPendingIRQ:0000000000000058 .L7
     /tmp/ccNzw1my.s:205    .text.PLIC_ClearPendingIRQ:0000000000000040 .L8
     /tmp/ccNzw1my.s:198    .text.PLIC_ClearPendingIRQ:0000000000000032 .L9
     /tmp/ccNzw1my.s:187    .text.PLIC_ClearPendingIRQ:000000000000001a .L10
     /tmp/ccNzw1my.s:267    .text.PLIC_init_on_reset:0000000000000028 .L12
     /tmp/ccNzw1my.s:255    .text.PLIC_init_on_reset:000000000000000e .L13
     /tmp/ccNzw1my.s:291    .text.PLIC_init_on_reset:000000000000005c .L14
     /tmp/ccNzw1my.s:277    .text.PLIC_init_on_reset:000000000000003e .L15
     /tmp/ccNzw1my.s:396    .text.PLIC_init_on_reset:0000000000000152 .L16
     /tmp/ccNzw1my.s:301    .text.PLIC_init_on_reset:0000000000000070 .L17
     /tmp/ccNzw1my.s:477    .text.main_first_hart:0000000000000082 .L0 
     /tmp/ccNzw1my.s:539    .text.main_first_hart:000000000000011c .L0 
     /tmp/ccNzw1my.s:545    .text.main_first_hart:000000000000012a .L0 
     /tmp/ccNzw1my.s:551    .text.main_first_hart:0000000000000138 .L0 
     /tmp/ccNzw1my.s:557    .text.main_first_hart:0000000000000146 .L0 
     /tmp/ccNzw1my.s:666    .text.main_first_hart:000000000000023a .L0 
     /tmp/ccNzw1my.s:703    .text.main_first_hart:00000000000002b4 .L19
     /tmp/ccNzw1my.s:658    .text.main_first_hart:000000000000022c .L20
     /tmp/ccNzw1my.s:589    .text.main_first_hart:000000000000018a .L21
     /tmp/ccNzw1my.s:606    .text.main_first_hart:00000000000001b2 .L22
     /tmp/ccNzw1my.s:574    .text.main_first_hart:000000000000016c .L23
     /tmp/ccNzw1my.s:543    .text.main_first_hart:000000000000012a .L24
     /tmp/ccNzw1my.s:529    .text.main_first_hart:000000000000010a .L25
     /tmp/ccNzw1my.s:537    .text.main_first_hart:000000000000011c .L26
     /tmp/ccNzw1my.s:561    .text.main_first_hart:0000000000000154 .L27
     /tmp/ccNzw1my.s:549    .text.main_first_hart:0000000000000138 .L28
     /tmp/ccNzw1my.s:555    .text.main_first_hart:0000000000000146 .L29
     /tmp/ccNzw1my.s:625    .text.main_first_hart:00000000000001dc .L31
     /tmp/ccNzw1my.s:655    .text.main_first_hart:000000000000022a .L34
     /tmp/ccNzw1my.s:499    .text.main_first_hart:00000000000000bc .L33
     /tmp/ccNzw1my.s:726    .text.main_other_hart:000000000000000c .L0 
     /tmp/ccNzw1my.s:731    .text.main_other_hart:000000000000001c .L0 
     /tmp/ccNzw1my.s:736    .text.main_other_hart:000000000000002c .L0 
     /tmp/ccNzw1my.s:741    .text.main_other_hart:000000000000003c .L0 
     /tmp/ccNzw1my.s:746    .text.main_other_hart:000000000000004c .L0 
     /tmp/ccNzw1my.s:769    .rodata.main_other_hart:0000000000000000 .L38
     /tmp/ccNzw1my.s:759    .text.main_other_hart:0000000000000070 .L0 
     /tmp/ccNzw1my.s:763    .text.main_other_hart:0000000000000080 .L0 
     /tmp/ccNzw1my.s:859    .text.main_other_hart:0000000000000124 .L0 
     /tmp/ccNzw1my.s:863    .text.main_other_hart:0000000000000132 .L0 
     /tmp/ccNzw1my.s:853    .text.main_other_hart:0000000000000122 .L45
     /tmp/ccNzw1my.s:856    .text.main_other_hart:0000000000000124 .L44
     /tmp/ccNzw1my.s:776    .text.main_other_hart:000000000000008c .L42
     /tmp/ccNzw1my.s:789    .text.main_other_hart:00000000000000a2 .L41
     /tmp/ccNzw1my.s:805    .text.main_other_hart:00000000000000c2 .L40
     /tmp/ccNzw1my.s:821    .text.main_other_hart:00000000000000e2 .L39
     /tmp/ccNzw1my.s:837    .text.main_other_hart:0000000000000102 .L37
     /tmp/ccNzw1my.s:907    .text.load_virtual_rom:0000000000000016 .L0 
     /tmp/ccNzw1my.s:1142   .text.init_memory:0000000000000008 .L0 
     /tmp/ccNzw1my.s:1143   .text.init_memory:0000000000000010 .L0 
     /tmp/ccNzw1my.s:1144   .text.init_memory:0000000000000018 .L0 
     /tmp/ccNzw1my.s:1147   .text.init_memory:0000000000000028 .L0 
     /tmp/ccNzw1my.s:1148   .text.init_memory:0000000000000030 .L0 
     /tmp/ccNzw1my.s:1149   .text.init_memory:0000000000000038 .L0 
     /tmp/ccNzw1my.s:1152   .text.init_memory:0000000000000048 .L0 
     /tmp/ccNzw1my.s:1153   .text.init_memory:0000000000000050 .L0 
     /tmp/ccNzw1my.s:1154   .text.init_memory:0000000000000058 .L0 
     /tmp/ccNzw1my.s:1157   .text.init_memory:0000000000000068 .L0 
     /tmp/ccNzw1my.s:1158   .text.init_memory:0000000000000070 .L0 
     /tmp/ccNzw1my.s:1161   .text.init_memory:0000000000000080 .L0 
     /tmp/ccNzw1my.s:1162   .text.init_memory:0000000000000088 .L0 
     /tmp/ccNzw1my.s:1298   .text.init_bus_error_unit:0000000000000082 .L56
     /tmp/ccNzw1my.s:1239   .text.init_bus_error_unit:000000000000000c .L57
     /tmp/ccNzw1my.s:69324  .debug_abbrev:0000000000000000 .Ldebug_abbrev0
     /tmp/ccNzw1my.s:97063  .debug_str:0000000000023a02 .LASF9456
     /tmp/ccNzw1my.s:105731  .debug_str:0000000000046965 .LASF9457
     /tmp/ccNzw1my.s:107227  .debug_str:000000000004d13a .LASF9458
     /tmp/ccNzw1my.s:70434  .debug_ranges:0000000000000000 .Ldebug_ranges0
     /tmp/ccNzw1my.s:88435  .debug_line:0000000000000000 .Ldebug_line0
     /tmp/ccNzw1my.s:70476  .debug_macro:0000000000000000 .Ldebug_macro0
     /tmp/ccNzw1my.s:105791  .debug_str:0000000000046de6 .LASF5654
     /tmp/ccNzw1my.s:105883  .debug_str:0000000000047437 .LASF5649
     /tmp/ccNzw1my.s:94391  .debug_str:0000000000018420 .LASF5650
     /tmp/ccNzw1my.s:107179  .debug_str:000000000004cd22 .LASF5651
     /tmp/ccNzw1my.s:100295  .debug_str:00000000000308aa .LASF5652
     /tmp/ccNzw1my.s:105287  .debug_str:0000000000044c91 .LASF5653
     /tmp/ccNzw1my.s:89533  .debug_str:0000000000004c49 .LASF5655
     /tmp/ccNzw1my.s:93119  .debug_str:00000000000133ec .LASF5656
     /tmp/ccNzw1my.s:103525  .debug_str:000000000003d76a .LASF5657
     /tmp/ccNzw1my.s:99609  .debug_str:000000000002dc3a .LASF5658
     /tmp/ccNzw1my.s:98577  .debug_str:00000000000298d7 .LASF5659
     /tmp/ccNzw1my.s:96801  .debug_str:00000000000229a2 .LASF5660
     /tmp/ccNzw1my.s:89185  .debug_str:000000000000349b .LASF5661
     /tmp/ccNzw1my.s:89741  .debug_str:0000000000005aa0 .LASF5662
     /tmp/ccNzw1my.s:92515  .debug_str:0000000000010bbe .LASF5663
     /tmp/ccNzw1my.s:103185  .debug_str:000000000003c1b2 .LASF5664
     /tmp/ccNzw1my.s:105033  .debug_str:0000000000043bf0 .LASF5665
     /tmp/ccNzw1my.s:101485  .debug_str:000000000003584e .LASF5666
     /tmp/ccNzw1my.s:94317  .debug_str:0000000000017fa5 .LASF5667
     /tmp/ccNzw1my.s:105977  .debug_str:00000000000479e3 .LASF5668
     /tmp/ccNzw1my.s:92947  .debug_str:0000000000012832 .LASF5669
     /tmp/ccNzw1my.s:92305  .debug_str:000000000000feec .LASF5670
     /tmp/ccNzw1my.s:98665  .debug_str:0000000000029e40 .LASF5671
     /tmp/ccNzw1my.s:95941  .debug_str:000000000001eee4 .LASF5672
     /tmp/ccNzw1my.s:96529  .debug_str:0000000000021760 .LASF5673
     /tmp/ccNzw1my.s:90479  .debug_str:0000000000008c0e .LASF5674
     /tmp/ccNzw1my.s:89283  .debug_str:0000000000003ad8 .LASF5675
     /tmp/ccNzw1my.s:100183  .debug_str:00000000000301cc .LASF5676
     /tmp/ccNzw1my.s:98937  .debug_str:000000000002b029 .LASF5677
     /tmp/ccNzw1my.s:89323  .debug_str:0000000000003d21 .LASF5678
     /tmp/ccNzw1my.s:106649  .debug_str:000000000004a7f9 .LASF5679
     /tmp/ccNzw1my.s:103363  .debug_str:000000000003cd88 .LASF5680
     /tmp/ccNzw1my.s:99621  .debug_str:000000000002dd06 .LASF5681
     /tmp/ccNzw1my.s:88545  .debug_str:00000000000007cb .LASF5682
     /tmp/ccNzw1my.s:100383  .debug_str:0000000000030f81 .LASF5683
     /tmp/ccNzw1my.s:104939  .debug_str:0000000000043639 .LASF5684
     /tmp/ccNzw1my.s:94279  .debug_str:0000000000017db5 .LASF5685
     /tmp/ccNzw1my.s:100433  .debug_str:00000000000312f7 .LASF5686
     /tmp/ccNzw1my.s:100375  .debug_str:0000000000030f3a .LASF5687
     /tmp/ccNzw1my.s:96325  .debug_str:00000000000209f8 .LASF5688
     /tmp/ccNzw1my.s:100185  .debug_str:00000000000301e3 .LASF5689
     /tmp/ccNzw1my.s:100859  .debug_str:0000000000032dea .LASF5690
     /tmp/ccNzw1my.s:101073  .debug_str:0000000000033cea .LASF5691
     /tmp/ccNzw1my.s:100401  .debug_str:00000000000310b3 .LASF5692
     /tmp/ccNzw1my.s:106499  .debug_str:0000000000049d40 .LASF5693
     /tmp/ccNzw1my.s:102511  .debug_str:000000000003936d .LASF5694
     /tmp/ccNzw1my.s:93753  .debug_str:0000000000015acd .LASF5695
     /tmp/ccNzw1my.s:96301  .debug_str:0000000000020893 .LASF5696
     /tmp/ccNzw1my.s:89469  .debug_str:0000000000004791 .LASF5697
     /tmp/ccNzw1my.s:99335  .debug_str:000000000002c9dc .LASF5698
     /tmp/ccNzw1my.s:101123  .debug_str:0000000000033fef .LASF5699
     /tmp/ccNzw1my.s:98959  .debug_str:000000000002b21f .LASF5700
     /tmp/ccNzw1my.s:99635  .debug_str:000000000002de68 .LASF5701
     /tmp/ccNzw1my.s:100327  .debug_str:0000000000030b0c .LASF5702
     /tmp/ccNzw1my.s:99357  .debug_str:000000000002cb51 .LASF5703
     /tmp/ccNzw1my.s:105433  .debug_str:00000000000455c8 .LASF5704
     /tmp/ccNzw1my.s:90257  .debug_str:0000000000007c94 .LASF5705
     /tmp/ccNzw1my.s:92661  .debug_str:00000000000114fc .LASF5706
     /tmp/ccNzw1my.s:95189  .debug_str:000000000001bbd0 .LASF5707
     /tmp/ccNzw1my.s:88581  .debug_str:0000000000000a31 .LASF5708
     /tmp/ccNzw1my.s:102573  .debug_str:0000000000039810 .LASF5709
     /tmp/ccNzw1my.s:103923  .debug_str:000000000003f1ef .LASF5710
     /tmp/ccNzw1my.s:105703  .debug_str:000000000004678a .LASF5711
     /tmp/ccNzw1my.s:98319  .debug_str:00000000000288c0 .LASF5712
     /tmp/ccNzw1my.s:100419  .debug_str:0000000000031222 .LASF5713
     /tmp/ccNzw1my.s:88687  .debug_str:0000000000001183 .LASF5714
     /tmp/ccNzw1my.s:90793  .debug_str:000000000000a0bc .LASF5715
     /tmp/ccNzw1my.s:93555  .debug_str:0000000000014e29 .LASF5716
     /tmp/ccNzw1my.s:88775  .debug_str:000000000000171d .LASF5717
     /tmp/ccNzw1my.s:101831  .debug_str:0000000000036d17 .LASF5718
     /tmp/ccNzw1my.s:99659  .debug_str:000000000002e010 .LASF5719
     /tmp/ccNzw1my.s:93021  .debug_str:0000000000012e35 .LASF5720
     /tmp/ccNzw1my.s:106003  .debug_str:0000000000047b40 .LASF5721
     /tmp/ccNzw1my.s:88709  .debug_str:00000000000012db .LASF5722
     /tmp/ccNzw1my.s:96679  .debug_str:00000000000220ff .LASF5723
     /tmp/ccNzw1my.s:94127  .debug_str:00000000000173db .LASF5724
     /tmp/ccNzw1my.s:93287  .debug_str:0000000000013e61 .LASF5725
     /tmp/ccNzw1my.s:95389  .debug_str:000000000001c8be .LASF5726
     /tmp/ccNzw1my.s:99359  .debug_str:000000000002cb78 .LASF5727
     /tmp/ccNzw1my.s:106873  .debug_str:000000000004b8d6 .LASF5728
     /tmp/ccNzw1my.s:104743  .debug_str:0000000000042a2b .LASF5729
     /tmp/ccNzw1my.s:92619  .debug_str:0000000000011203 .LASF5730
     /tmp/ccNzw1my.s:103639  .debug_str:000000000003de9f .LASF5731
     /tmp/ccNzw1my.s:93941  .debug_str:00000000000166d1 .LASF5732
     /tmp/ccNzw1my.s:89557  .debug_str:0000000000004d7a .LASF5733
     /tmp/ccNzw1my.s:88623  .debug_str:0000000000000cd4 .LASF5734
     /tmp/ccNzw1my.s:94997  .debug_str:000000000001adb7 .LASF5735
     /tmp/ccNzw1my.s:105459  .debug_str:000000000004578b .LASF5736
     /tmp/ccNzw1my.s:106969  .debug_str:000000000004bfa8 .LASF5737
     /tmp/ccNzw1my.s:101873  .debug_str:0000000000036e9c .LASF5738
     /tmp/ccNzw1my.s:91459  .debug_str:000000000000cf66 .LASF5739
     /tmp/ccNzw1my.s:91641  .debug_str:000000000000d9c2 .LASF5740
     /tmp/ccNzw1my.s:106761  .debug_str:000000000004af6a .LASF5741
     /tmp/ccNzw1my.s:104457  .debug_str:0000000000041788 .LASF5742
     /tmp/ccNzw1my.s:106181  .debug_str:00000000000486da .LASF5743
     /tmp/ccNzw1my.s:89163  .debug_str:000000000000334e .LASF5744
     /tmp/ccNzw1my.s:107173  .debug_str:000000000004cce3 .LASF5745
     /tmp/ccNzw1my.s:93861  .debug_str:0000000000016220 .LASF5746
     /tmp/ccNzw1my.s:102825  .debug_str:000000000003a972 .LASF5747
     /tmp/ccNzw1my.s:100015  .debug_str:000000000002f782 .LASF5748
     /tmp/ccNzw1my.s:89687  .debug_str:00000000000056cf .LASF5749
     /tmp/ccNzw1my.s:89537  .debug_str:0000000000004c61 .LASF5750
     /tmp/ccNzw1my.s:101651  .debug_str:000000000003620d .LASF5751
     /tmp/ccNzw1my.s:102091  .debug_str:0000000000037a3c .LASF5752
     /tmp/ccNzw1my.s:89433  .debug_str:000000000000451b .LASF5753
     /tmp/ccNzw1my.s:98023  .debug_str:0000000000027542 .LASF5754
     /tmp/ccNzw1my.s:106319  .debug_str:0000000000049103 .LASF5755
     /tmp/ccNzw1my.s:98565  .debug_str:0000000000029820 .LASF5756
     /tmp/ccNzw1my.s:93713  .debug_str:000000000001583d .LASF5757
     /tmp/ccNzw1my.s:91941  .debug_str:000000000000ea50 .LASF5758
     /tmp/ccNzw1my.s:89721  .debug_str:000000000000597e .LASF5759
     /tmp/ccNzw1my.s:103965  .debug_str:000000000003f577 .LASF5760
     /tmp/ccNzw1my.s:102829  .debug_str:000000000003a9d3 .LASF5761
     /tmp/ccNzw1my.s:92403  .debug_str:0000000000010441 .LASF5762
     /tmp/ccNzw1my.s:91695  .debug_str:000000000000dd5b .LASF5763
     /tmp/ccNzw1my.s:96241  .debug_str:0000000000020451 .LASF5764
     /tmp/ccNzw1my.s:88939  .debug_str:00000000000022f9 .LASF5765
     /tmp/ccNzw1my.s:104373  .debug_str:00000000000410d7 .LASF5766
     /tmp/ccNzw1my.s:94241  .debug_str:0000000000017b23 .LASF5767
     /tmp/ccNzw1my.s:100525  .debug_str:000000000003194f .LASF5768
     /tmp/ccNzw1my.s:90637  .debug_str:00000000000096f0 .LASF5769
     /tmp/ccNzw1my.s:98433  .debug_str:000000000002903a .LASF5770
     /tmp/ccNzw1my.s:92427  .debug_str:00000000000105db .LASF5771
     /tmp/ccNzw1my.s:102917  .debug_str:000000000003afac .LASF5772
     /tmp/ccNzw1my.s:89083  .debug_str:0000000000002d50 .LASF5773
     /tmp/ccNzw1my.s:103867  .debug_str:000000000003ee25 .LASF5774
     /tmp/ccNzw1my.s:100843  .debug_str:0000000000032d13 .LASF5775
     /tmp/ccNzw1my.s:97147  .debug_str:0000000000023f39 .LASF5776
     /tmp/ccNzw1my.s:100845  .debug_str:0000000000032d1f .LASF5777
     /tmp/ccNzw1my.s:102237  .debug_str:000000000003817c .LASF5778
     /tmp/ccNzw1my.s:98693  .debug_str:000000000002a0e4 .LASF5779
     /tmp/ccNzw1my.s:95719  .debug_str:000000000001df06 .LASF5780
     /tmp/ccNzw1my.s:95829  .debug_str:000000000001e6fe .LASF5781
     /tmp/ccNzw1my.s:100089  .debug_str:000000000002fc0b .LASF5782
     /tmp/ccNzw1my.s:90579  .debug_str:0000000000009294 .LASF5783
     /tmp/ccNzw1my.s:95621  .debug_str:000000000001d8b9 .LASF5784
     /tmp/ccNzw1my.s:90759  .debug_str:0000000000009ee4 .LASF5785
     /tmp/ccNzw1my.s:95481  .debug_str:000000000001cf47 .LASF5786
     /tmp/ccNzw1my.s:90549  .debug_str:00000000000090e9 .LASF5787
     /tmp/ccNzw1my.s:98567  .debug_str:000000000002983c .LASF5788
     /tmp/ccNzw1my.s:95329  .debug_str:000000000001c49e .LASF5789
     /tmp/ccNzw1my.s:105659  .debug_str:00000000000464d2 .LASF5790
     /tmp/ccNzw1my.s:89967  .debug_str:0000000000006912 .LASF5791
     /tmp/ccNzw1my.s:101409  .debug_str:0000000000035335 .LASF5792
     /tmp/ccNzw1my.s:106383  .debug_str:0000000000049576 .LASF5793
     /tmp/ccNzw1my.s:106677  .debug_str:000000000004a991 .LASF5794
     /tmp/ccNzw1my.s:89411  .debug_str:000000000000440d .LASF5795
     /tmp/ccNzw1my.s:106691  .debug_str:000000000004aa51 .LASF5796
     /tmp/ccNzw1my.s:91179  .debug_str:000000000000bcac .LASF5797
     /tmp/ccNzw1my.s:96775  .debug_str:00000000000227ce .LASF5798
     /tmp/ccNzw1my.s:91685  .debug_str:000000000000dcf5 .LASF5799
     /tmp/ccNzw1my.s:96889  .debug_str:0000000000022eff .LASF5800
     /tmp/ccNzw1my.s:99175  .debug_str:000000000002bf3e .LASF5801
     /tmp/ccNzw1my.s:107007  .debug_str:000000000004c223 .LASF5802
     /tmp/ccNzw1my.s:96829  .debug_str:0000000000022b4d .LASF5803
     /tmp/ccNzw1my.s:99205  .debug_str:000000000002c0f4 .LASF5804
     /tmp/ccNzw1my.s:94421  .debug_str:0000000000018660 .LASF5805
     /tmp/ccNzw1my.s:94423  .debug_str:000000000001866f .LASF5806
     /tmp/ccNzw1my.s:94609  .debug_str:0000000000019301 .LASF5807
     /tmp/ccNzw1my.s:93729  .debug_str:0000000000015907 .LASF5808
     /tmp/ccNzw1my.s:100731  .debug_str:000000000003262c .LASF5809
     /tmp/ccNzw1my.s:95691  .debug_str:000000000001dd8d .LASF5810
     /tmp/ccNzw1my.s:92015  .debug_str:000000000000ee50 .LASF5811
     /tmp/ccNzw1my.s:92017  .debug_str:000000000000ee5f .LASF5812
     /tmp/ccNzw1my.s:94067  .debug_str:0000000000016ffe .LASF5813
     /tmp/ccNzw1my.s:97221  .debug_str:0000000000024321 .LASF5814
     /tmp/ccNzw1my.s:104175  .debug_str:00000000000403de .LASF5815
     /tmp/ccNzw1my.s:103615  .debug_str:000000000003dd4e .LASF5816
     /tmp/ccNzw1my.s:95693  .debug_str:000000000001dd97 .LASF5817
     /tmp/ccNzw1my.s:90381  .debug_str:0000000000008542 .LASF5818
     /tmp/ccNzw1my.s:97333  .debug_str:00000000000248a3 .LASF5819
     /tmp/ccNzw1my.s:105617  .debug_str:0000000000046204 .LASF5820
     /tmp/ccNzw1my.s:94899  .debug_str:000000000001a744 .LASF5821
     /tmp/ccNzw1my.s:97005  .debug_str:0000000000023749 .LASF5822
     /tmp/ccNzw1my.s:102147  .debug_str:0000000000037d06 .LASF5823
     /tmp/ccNzw1my.s:99479  .debug_str:000000000002d3ee .LASF5824
     /tmp/ccNzw1my.s:107163  .debug_str:000000000004cc0f .LASF5825
     /tmp/ccNzw1my.s:89369  .debug_str:00000000000040b5 .LASF5826
     /tmp/ccNzw1my.s:92331  .debug_str:000000000001010a .LASF5827
     /tmp/ccNzw1my.s:102311  .debug_str:0000000000038620 .LASF5828
     /tmp/ccNzw1my.s:105189  .debug_str:00000000000445be .LASF5829
     /tmp/ccNzw1my.s:96911  .debug_str:000000000002308f .LASF5830
     /tmp/ccNzw1my.s:103763  .debug_str:000000000003e65b .LASF5831
     /tmp/ccNzw1my.s:104689  .debug_str:000000000004261b .LASF5832
     /tmp/ccNzw1my.s:95293  .debug_str:000000000001c231 .LASF5833
     /tmp/ccNzw1my.s:107049  .debug_str:000000000004c4d7 .LASF5834
     /tmp/ccNzw1my.s:96343  .debug_str:0000000000020b73 .LASF5835
     /tmp/ccNzw1my.s:91675  .debug_str:000000000000dc5e .LASF5836
     /tmp/ccNzw1my.s:90915  .debug_str:000000000000a952 .LASF5837
     /tmp/ccNzw1my.s:89875  .debug_str:0000000000006304 .LASF5838
     /tmp/ccNzw1my.s:89749  .debug_str:0000000000005b03 .LASF5839
     /tmp/ccNzw1my.s:91447  .debug_str:000000000000cee2 .LASF5840
     /tmp/ccNzw1my.s:104695  .debug_str:00000000000426a8 .LASF5841
     /tmp/ccNzw1my.s:100511  .debug_str:000000000003186c .LASF5842
     /tmp/ccNzw1my.s:104397  .debug_str:0000000000041265 .LASF5843
     /tmp/ccNzw1my.s:105999  .debug_str:0000000000047afe .LASF5844
     /tmp/ccNzw1my.s:99051  .debug_str:000000000002b85a .LASF5845
     /tmp/ccNzw1my.s:105317  .debug_str:0000000000044e02 .LASF5846
     /tmp/ccNzw1my.s:106665  .debug_str:000000000004a8cd .LASF5847
     /tmp/ccNzw1my.s:101521  .debug_str:0000000000035a07 .LASF5848
     /tmp/ccNzw1my.s:98355  .debug_str:0000000000028b42 .LASF5849
     /tmp/ccNzw1my.s:98367  .debug_str:0000000000028be8 .LASF5850
     /tmp/ccNzw1my.s:91521  .debug_str:000000000000d355 .LASF5851
     /tmp/ccNzw1my.s:104883  .debug_str:00000000000432de .LASF5852
     /tmp/ccNzw1my.s:104657  .debug_str:0000000000042453 .LASF5853
     /tmp/ccNzw1my.s:104885  .debug_str:00000000000432e8 .LASF5854
     /tmp/ccNzw1my.s:93151  .debug_str:000000000001361a .LASF5855
     /tmp/ccNzw1my.s:104891  .debug_str:000000000004333a .LASF5856
     /tmp/ccNzw1my.s:104111  .debug_str:000000000003ff3f .LASF5857
     /tmp/ccNzw1my.s:103113  .debug_str:000000000003bcb7 .LASF5858
     /tmp/ccNzw1my.s:91261  .debug_str:000000000000c1f5 .LASF5859
     /tmp/ccNzw1my.s:100049  .debug_str:000000000002f9a5 .LASF5860
     /tmp/ccNzw1my.s:91687  .debug_str:000000000000dd04 .LASF5861
     /tmp/ccNzw1my.s:91689  .debug_str:000000000000dd0e .LASF5862
     /tmp/ccNzw1my.s:96413  .debug_str:0000000000021057 .LASF5863
     /tmp/ccNzw1my.s:91257  .debug_str:000000000000c18b .LASF5864
     /tmp/ccNzw1my.s:107139  .debug_str:000000000004cade .LASF5865
     /tmp/ccNzw1my.s:93039  .debug_str:0000000000012f48 .LASF5866
     /tmp/ccNzw1my.s:99083  .debug_str:000000000002b9fc .LASF5867
     /tmp/ccNzw1my.s:89071  .debug_str:0000000000002c88 .LASF5868
     /tmp/ccNzw1my.s:104897  .debug_str:0000000000043376 .LASF5869
     /tmp/ccNzw1my.s:93641  .debug_str:000000000001546b .LASF5870
     /tmp/ccNzw1my.s:101421  .debug_str:00000000000353e0 .LASF5871
     /tmp/ccNzw1my.s:91771  .debug_str:000000000000e25d .LASF5872
     /tmp/ccNzw1my.s:95911  .debug_str:000000000001ec7e .LASF5873
     /tmp/ccNzw1my.s:91773  .debug_str:000000000000e267 .LASF5874
     /tmp/ccNzw1my.s:88571  .debug_str:00000000000009a2 .LASF5875
     /tmp/ccNzw1my.s:92029  .debug_str:000000000000ef3b .LASF5876
     /tmp/ccNzw1my.s:102065  .debug_str:00000000000378bc .LASF5877
     /tmp/ccNzw1my.s:90745  .debug_str:0000000000009e25 .LASF5878
     /tmp/ccNzw1my.s:105043  .debug_str:0000000000043ca5 .LASF5879
     /tmp/ccNzw1my.s:103659  .debug_str:000000000003e00b .LASF5880
     /tmp/ccNzw1my.s:91777  .debug_str:000000000000e28a .LASF5881
     /tmp/ccNzw1my.s:91343  .debug_str:000000000000c7b3 .LASF5882
     /tmp/ccNzw1my.s:99095  .debug_str:000000000002ba92 .LASF5883
     /tmp/ccNzw1my.s:91779  .debug_str:000000000000e294 .LASF5884
     /tmp/ccNzw1my.s:90521  .debug_str:0000000000008ef8 .LASF5885
     /tmp/ccNzw1my.s:103673  .debug_str:000000000003e0c5 .LASF5886
     /tmp/ccNzw1my.s:107101  .debug_str:000000000004c897 .LASF5887
     /tmp/ccNzw1my.s:106211  .debug_str:00000000000489b7 .LASF5888
     /tmp/ccNzw1my.s:104251  .debug_str:0000000000040916 .LASF5889
     /tmp/ccNzw1my.s:90311  .debug_str:0000000000008091 .LASF5890
     /tmp/ccNzw1my.s:91781  .debug_str:000000000000e29e .LASF5891
     /tmp/ccNzw1my.s:106103  .debug_str:00000000000481e0 .LASF5892
     /tmp/ccNzw1my.s:91783  .debug_str:000000000000e2a8 .LASF5893
     /tmp/ccNzw1my.s:100501  .debug_str:00000000000317c0 .LASF5894
     /tmp/ccNzw1my.s:89313  .debug_str:0000000000003c94 .LASF5895
     /tmp/ccNzw1my.s:91785  .debug_str:000000000000e2b2 .LASF5896
     /tmp/ccNzw1my.s:98091  .debug_str:00000000000279ed .LASF5897
     /tmp/ccNzw1my.s:94587  .debug_str:000000000001916d .LASF5898
     /tmp/ccNzw1my.s:89973  .debug_str:000000000000697e .LASF5899
     /tmp/ccNzw1my.s:93627  .debug_str:00000000000153c3 .LASF5900
     /tmp/ccNzw1my.s:104601  .debug_str:000000000004207a .LASF5901
     /tmp/ccNzw1my.s:91787  .debug_str:000000000000e2bc .LASF5902
     /tmp/ccNzw1my.s:98333  .debug_str:00000000000289cb .LASF5903
     /tmp/ccNzw1my.s:93489  .debug_str:0000000000014a72 .LASF5904
     /tmp/ccNzw1my.s:105007  .debug_str:0000000000043a34 .LASF5905
     /tmp/ccNzw1my.s:105177  .debug_str:000000000004450b .LASF5906
     /tmp/ccNzw1my.s:94865  .debug_str:000000000001a525 .LASF5907
     /tmp/ccNzw1my.s:99417  .debug_str:000000000002cf89 .LASF5908
     /tmp/ccNzw1my.s:88647  .debug_str:0000000000000e8d .LASF5909
     /tmp/ccNzw1my.s:97899  .debug_str:0000000000026d01 .LASF5910
     /tmp/ccNzw1my.s:104003  .debug_str:000000000003f835 .LASF5911
     /tmp/ccNzw1my.s:98025  .debug_str:0000000000027585 .LASF5912
     /tmp/ccNzw1my.s:91959  .debug_str:000000000000ebb7 .LASF5913
     /tmp/ccNzw1my.s:104995  .debug_str:0000000000043956 .LASF5914
     /tmp/ccNzw1my.s:105267  .debug_str:0000000000044b08 .LASF5915
     /tmp/ccNzw1my.s:91849  .debug_str:000000000000e634 .LASF5916
     /tmp/ccNzw1my.s:90969  .debug_str:000000000000ad56 .LASF5917
     /tmp/ccNzw1my.s:90333  .debug_str:0000000000008217 .LASF5918
     /tmp/ccNzw1my.s:92945  .debug_str:000000000001282b .LASF5919
     /tmp/ccNzw1my.s:92825  .debug_str:000000000001204b .LASF5920
     /tmp/ccNzw1my.s:104699  .debug_str:00000000000426eb .LASF5921
     /tmp/ccNzw1my.s:103337  .debug_str:000000000003cb90 .LASF5922
     /tmp/ccNzw1my.s:98123  .debug_str:0000000000027c4a .LASF5923
     /tmp/ccNzw1my.s:98891  .debug_str:000000000002ad66 .LASF5924
     /tmp/ccNzw1my.s:104035  .debug_str:000000000003fa5a .LASF5925
     /tmp/ccNzw1my.s:95973  .debug_str:000000000001f189 .LASF5926
     /tmp/ccNzw1my.s:91591  .debug_str:000000000000d792 .LASF5927
     /tmp/ccNzw1my.s:106899  .debug_str:000000000004ba54 .LASF5928
     /tmp/ccNzw1my.s:93037  .debug_str:0000000000012f1e .LASF5929
     /tmp/ccNzw1my.s:92109  .debug_str:000000000000f434 .LASF5930
     /tmp/ccNzw1my.s:103463  .debug_str:000000000003d382 .LASF5931
     /tmp/ccNzw1my.s:98833  .debug_str:000000000002a9a7 .LASF5932
     /tmp/ccNzw1my.s:95311  .debug_str:000000000001c35d .LASF5933
     /tmp/ccNzw1my.s:98973  .debug_str:000000000002b2e1 .LASF5934
     /tmp/ccNzw1my.s:97901  .debug_str:0000000000026d1b .LASF5935
     /tmp/ccNzw1my.s:100041  .debug_str:000000000002f933 .LASF5936
     /tmp/ccNzw1my.s:88537  .debug_str:0000000000000762 .LASF5937
     /tmp/ccNzw1my.s:89201  .debug_str:0000000000003541 .LASF5938
     /tmp/ccNzw1my.s:106145  .debug_str:00000000000484ad .LASF5939
     /tmp/ccNzw1my.s:91735  .debug_str:000000000000dfe0 .LASF5940
     /tmp/ccNzw1my.s:91595  .debug_str:000000000000d7c6 .LASF5941
     /tmp/ccNzw1my.s:91597  .debug_str:000000000000d7d0 .LASF5942
     /tmp/ccNzw1my.s:94947  .debug_str:000000000001aa44 .LASF5943
     /tmp/ccNzw1my.s:104803  .debug_str:0000000000042dd0 .LASF5944
     /tmp/ccNzw1my.s:98777  .debug_str:000000000002a5d0 .LASF5945
     /tmp/ccNzw1my.s:100439  .debug_str:00000000000313a9 .LASF5946
     /tmp/ccNzw1my.s:97843  .debug_str:0000000000026948 .LASF5947
     /tmp/ccNzw1my.s:90755  .debug_str:0000000000009ec8 .LASF5948
     /tmp/ccNzw1my.s:104989  .debug_str:0000000000043918 .LASF5949
     /tmp/ccNzw1my.s:95213  .debug_str:000000000001bd83 .LASF5950
     /tmp/ccNzw1my.s:91715  .debug_str:000000000000debf .LASF5951
     /tmp/ccNzw1my.s:101907  .debug_str:0000000000037121 .LASF5952
     /tmp/ccNzw1my.s:98521  .debug_str:0000000000029558 .LASF5953
     /tmp/ccNzw1my.s:91157  .debug_str:000000000000bb4c .LASF5954
     /tmp/ccNzw1my.s:91925  .debug_str:000000000000e93b .LASF5955
     /tmp/ccNzw1my.s:102077  .debug_str:0000000000037963 .LASF5956
     /tmp/ccNzw1my.s:100253  .debug_str:00000000000305f8 .LASF5957
     /tmp/ccNzw1my.s:96355  .debug_str:0000000000020c67 .LASF5958
     /tmp/ccNzw1my.s:95633  .debug_str:000000000001d9a9 .LASF5959
     /tmp/ccNzw1my.s:90401  .debug_str:0000000000008691 .LASF5960
     /tmp/ccNzw1my.s:102745  .debug_str:000000000003a389 .LASF5961
     /tmp/ccNzw1my.s:95227  .debug_str:000000000001be18 .LASF5962
     /tmp/ccNzw1my.s:90739  .debug_str:0000000000009da2 .LASF5963
     /tmp/ccNzw1my.s:104647  .debug_str:00000000000423d9 .LASF5964
     /tmp/ccNzw1my.s:106109  .debug_str:0000000000048204 .LASF5965
     /tmp/ccNzw1my.s:102117  .debug_str:0000000000037b03 .LASF5966
     /tmp/ccNzw1my.s:95737  .debug_str:000000000001e034 .LASF5967
     /tmp/ccNzw1my.s:89837  .debug_str:00000000000060b0 .LASF5968
     /tmp/ccNzw1my.s:101093  .debug_str:0000000000033e23 .LASF5969
     /tmp/ccNzw1my.s:99097  .debug_str:000000000002ba9d .LASF5970
     /tmp/ccNzw1my.s:95959  .debug_str:000000000001f080 .LASF5971
     /tmp/ccNzw1my.s:88453  .debug_str:0000000000000132 .LASF5972
     /tmp/ccNzw1my.s:93479  .debug_str:0000000000014971 .LASF5973
     /tmp/ccNzw1my.s:96815  .debug_str:0000000000022a97 .LASF5974
     /tmp/ccNzw1my.s:90319  .debug_str:000000000000810b .LASF5975
     /tmp/ccNzw1my.s:105207  .debug_str:0000000000044678 .LASF5976
     /tmp/ccNzw1my.s:89643  .debug_str:0000000000005341 .LASF5977
     /tmp/ccNzw1my.s:104231  .debug_str:00000000000407fa .LASF5978
     /tmp/ccNzw1my.s:97689  .debug_str:0000000000025f0d .LASF5979
     /tmp/ccNzw1my.s:103353  .debug_str:000000000003ccdf .LASF5980
     /tmp/ccNzw1my.s:95865  .debug_str:000000000001e9c2 .LASF5981
     /tmp/ccNzw1my.s:90945  .debug_str:000000000000ab36 .LASF5982
     /tmp/ccNzw1my.s:100265  .debug_str:00000000000306ac .LASF5983
     /tmp/ccNzw1my.s:93789  .debug_str:0000000000015cf3 .LASF5984
     /tmp/ccNzw1my.s:107041  .debug_str:000000000004c478 .LASF5985
     /tmp/ccNzw1my.s:101795  .debug_str:0000000000036a8a .LASF5986
     /tmp/ccNzw1my.s:97603  .debug_str:0000000000025945 .LASF5987
     /tmp/ccNzw1my.s:98721  .debug_str:000000000002a2a1 .LASF5988
     /tmp/ccNzw1my.s:101389  .debug_str:000000000003523f .LASF5989
     /tmp/ccNzw1my.s:101563  .debug_str:0000000000035cc2 .LASF5990
     /tmp/ccNzw1my.s:98745  .debug_str:000000000002a441 .LASF5991
     /tmp/ccNzw1my.s:101407  .debug_str:0000000000035326 .LASF5992
     /tmp/ccNzw1my.s:89729  .debug_str:00000000000059d7 .LASF5993
     /tmp/ccNzw1my.s:98055  .debug_str:00000000000277af .LASF5994
     /tmp/ccNzw1my.s:95817  .debug_str:000000000001e64d .LASF5995
     /tmp/ccNzw1my.s:91857  .debug_str:000000000000e695 .LASF5996
     /tmp/ccNzw1my.s:91185  .debug_str:000000000000bcea .LASF5997
     /tmp/ccNzw1my.s:91217  .debug_str:000000000000bf10 .LASF5998
     /tmp/ccNzw1my.s:98741  .debug_str:000000000002a3fa .LASF5999
     /tmp/ccNzw1my.s:96649  .debug_str:0000000000021f95 .LASF6000
     /tmp/ccNzw1my.s:100431  .debug_str:00000000000312e3 .LASF6001
     /tmp/ccNzw1my.s:94447  .debug_str:00000000000187c7 .LASF6002
     /tmp/ccNzw1my.s:106613  .debug_str:000000000004a581 .LASF6003
     /tmp/ccNzw1my.s:104985  .debug_str:00000000000438c8 .LASF6004
     /tmp/ccNzw1my.s:98295  .debug_str:000000000002872b .LASF6005
     /tmp/ccNzw1my.s:94457  .debug_str:00000000000188a2 .LASF6006
     /tmp/ccNzw1my.s:99767  .debug_str:000000000002e6e9 .LASF6007
     /tmp/ccNzw1my.s:90925  .debug_str:000000000000aa07 .LASF6008
     /tmp/ccNzw1my.s:99161  .debug_str:000000000002be87 .LASF6009
     /tmp/ccNzw1my.s:93339  .debug_str:0000000000014184 .LASF6010
     /tmp/ccNzw1my.s:93397  .debug_str:0000000000014414 .LASF6011
     /tmp/ccNzw1my.s:103085  .debug_str:000000000003bb19 .LASF6012
     /tmp/ccNzw1my.s:98569  .debug_str:000000000002984c .LASF6013
     /tmp/ccNzw1my.s:98379  .debug_str:0000000000028ca0 .LASF6014
     /tmp/ccNzw1my.s:90371  .debug_str:0000000000008495 .LASF6015
     /tmp/ccNzw1my.s:97185  .debug_str:00000000000241a6 .LASF6016
     /tmp/ccNzw1my.s:91531  .debug_str:000000000000d3f9 .LASF6017
     /tmp/ccNzw1my.s:96493  .debug_str:00000000000215a0 .LASF6018
     /tmp/ccNzw1my.s:95853  .debug_str:000000000001e8bb .LASF6019
     /tmp/ccNzw1my.s:102219  .debug_str:000000000003809b .LASF6020
     /tmp/ccNzw1my.s:102215  .debug_str:0000000000038060 .LASF6021
     /tmp/ccNzw1my.s:100467  .debug_str:000000000003158c .LASF6022
     /tmp/ccNzw1my.s:91059  .debug_str:000000000000b415 .LASF6023
     /tmp/ccNzw1my.s:105151  .debug_str:0000000000044391 .LASF6024
     /tmp/ccNzw1my.s:90839  .debug_str:000000000000a45d .LASF6025
     /tmp/ccNzw1my.s:96317  .debug_str:0000000000020982 .LASF6026
     /tmp/ccNzw1my.s:94403  .debug_str:000000000001850a .LASF6027
     /tmp/ccNzw1my.s:96495  .debug_str:00000000000215a9 .LASF6028
     /tmp/ccNzw1my.s:101443  .debug_str:0000000000035571 .LASF6029
     /tmp/ccNzw1my.s:105341  .debug_str:0000000000044f93 .LASF6030
     /tmp/ccNzw1my.s:99639  .debug_str:000000000002deaf .LASF6031
     /tmp/ccNzw1my.s:103545  .debug_str:000000000003d899 .LASF6032
     /tmp/ccNzw1my.s:97813  .debug_str:000000000002670d .LASF6033
     /tmp/ccNzw1my.s:107115  .debug_str:000000000004c96f .LASF6034
     /tmp/ccNzw1my.s:96497  .debug_str:00000000000215b2 .LASF6035
     /tmp/ccNzw1my.s:102855  .debug_str:000000000003ab91 .LASF6036
     /tmp/ccNzw1my.s:103547  .debug_str:000000000003d8a7 .LASF6037
     /tmp/ccNzw1my.s:101027  .debug_str:000000000003397f .LASF6038
     /tmp/ccNzw1my.s:105765  .debug_str:0000000000046c27 .LASF6039
     /tmp/ccNzw1my.s:102665  .debug_str:0000000000039d98 .LASF6040
     /tmp/ccNzw1my.s:97971  .debug_str:000000000002716d .LASF6041
     /tmp/ccNzw1my.s:97959  .debug_str:00000000000270a8 .LASF6042
     /tmp/ccNzw1my.s:105479  .debug_str:0000000000045933 .LASF6043
     /tmp/ccNzw1my.s:97133  .debug_str:0000000000023e37 .LASF6044
     /tmp/ccNzw1my.s:91599  .debug_str:000000000000d7da .LASF6045
     /tmp/ccNzw1my.s:96499  .debug_str:00000000000215bb .LASF6046
     /tmp/ccNzw1my.s:96799  .debug_str:000000000002297f .LASF6047
     /tmp/ccNzw1my.s:96825  .debug_str:0000000000022b20 .LASF6048
     /tmp/ccNzw1my.s:91251  .debug_str:000000000000c130 .LASF6049
     /tmp/ccNzw1my.s:91029  .debug_str:000000000000b1ac .LASF6050
     /tmp/ccNzw1my.s:99863  .debug_str:000000000002ed45 .LASF6051
     /tmp/ccNzw1my.s:89023  .debug_str:000000000000294a .LASF6052
     /tmp/ccNzw1my.s:89945  .debug_str:00000000000067b3 .LASF6053
     /tmp/ccNzw1my.s:89275  .debug_str:0000000000003a69 .LASF6054
     /tmp/ccNzw1my.s:92259  .debug_str:000000000000fca1 .LASF6055
     /tmp/ccNzw1my.s:89825  .debug_str:0000000000005ff5 .LASF6056
     /tmp/ccNzw1my.s:98607  .debug_str:0000000000029b59 .LASF6057
     /tmp/ccNzw1my.s:103287  .debug_str:000000000003c84b .LASF6058
     /tmp/ccNzw1my.s:91601  .debug_str:000000000000d7e4 .LASF6059
     /tmp/ccNzw1my.s:96501  .debug_str:00000000000215c4 .LASF6060
     /tmp/ccNzw1my.s:90717  .debug_str:0000000000009c12 .LASF6061
     /tmp/ccNzw1my.s:104281  .debug_str:0000000000040a46 .LASF6062
     /tmp/ccNzw1my.s:104257  .debug_str:000000000004092a .LASF6063
     /tmp/ccNzw1my.s:106035  .debug_str:0000000000047d66 .LASF6064
     /tmp/ccNzw1my.s:106019  .debug_str:0000000000047c77 .LASF6065
     /tmp/ccNzw1my.s:91603  .debug_str:000000000000d7ee .LASF6066
     /tmp/ccNzw1my.s:96503  .debug_str:00000000000215cd .LASF6067
     /tmp/ccNzw1my.s:103747  .debug_str:000000000003e5af .LASF6068
     /tmp/ccNzw1my.s:96941  .debug_str:00000000000232e5 .LASF6069
     /tmp/ccNzw1my.s:107355  .debug_str:000000000004d9d2 .LASF6070
     /tmp/ccNzw1my.s:91605  .debug_str:000000000000d7f8 .LASF6071
     /tmp/ccNzw1my.s:96505  .debug_str:00000000000215d6 .LASF6072
     /tmp/ccNzw1my.s:94419  .debug_str:000000000001863d .LASF6073
     /tmp/ccNzw1my.s:89549  .debug_str:0000000000004d28 .LASF6074
     /tmp/ccNzw1my.s:105661  .debug_str:00000000000464e2 .LASF6075
     /tmp/ccNzw1my.s:97431  .debug_str:0000000000024dd1 .LASF6076
     /tmp/ccNzw1my.s:104723  .debug_str:00000000000428a9 .LASF6077
     /tmp/ccNzw1my.s:90887  .debug_str:000000000000a757 .LASF6078
     /tmp/ccNzw1my.s:94543  .debug_str:0000000000018e8e .LASF6079
     /tmp/ccNzw1my.s:93145  .debug_str:0000000000013596 .LASF6080
     /tmp/ccNzw1my.s:89195  .debug_str:00000000000034f7 .LASF6081
     /tmp/ccNzw1my.s:100207  .debug_str:000000000003035e .LASF6082
     /tmp/ccNzw1my.s:103047  .debug_str:000000000003b86e .LASF6083
     /tmp/ccNzw1my.s:90005  .debug_str:0000000000006c53 .LASF6084
     /tmp/ccNzw1my.s:89437  .debug_str:0000000000004575 .LASF6085
     /tmp/ccNzw1my.s:100905  .debug_str:00000000000331b2 .LASF6086
     /tmp/ccNzw1my.s:106373  .debug_str:00000000000494e7 .LASF6087
     /tmp/ccNzw1my.s:96083  .debug_str:000000000001fa7d .LASF6088
     /tmp/ccNzw1my.s:98083  .debug_str:000000000002796b .LASF6089
     /tmp/ccNzw1my.s:95209  .debug_str:000000000001bd36 .LASF6090
     /tmp/ccNzw1my.s:98107  .debug_str:0000000000027b23 .LASF6091
     /tmp/ccNzw1my.s:92581  .debug_str:0000000000010f4f .LASF6092
     /tmp/ccNzw1my.s:98361  .debug_str:0000000000028b9c .LASF6093
     /tmp/ccNzw1my.s:96611  .debug_str:0000000000021d0b .LASF6094
     /tmp/ccNzw1my.s:88561  .debug_str:00000000000008fa .LASF6095
     /tmp/ccNzw1my.s:106567  .debug_str:000000000004a1d4 .LASF6096
     /tmp/ccNzw1my.s:95489  .debug_str:000000000001cfc7 .LASF6097
     /tmp/ccNzw1my.s:104107  .debug_str:000000000003ff11 .LASF6098
     /tmp/ccNzw1my.s:106267  .debug_str:0000000000048d89 .LASF6099
     /tmp/ccNzw1my.s:90167  .debug_str:0000000000007729 .LASF6100
     /tmp/ccNzw1my.s:102411  .debug_str:0000000000038ce6 .LASF6101
     /tmp/ccNzw1my.s:97697  .debug_str:0000000000025f8f .LASF6102
     /tmp/ccNzw1my.s:104799  .debug_str:0000000000042dae .LASF6103
     /tmp/ccNzw1my.s:98325  .debug_str:0000000000028914 .LASF6104
     /tmp/ccNzw1my.s:104391  .debug_str:0000000000041231 .LASF6105
     /tmp/ccNzw1my.s:103215  .debug_str:000000000003c3a7 .LASF6106
     /tmp/ccNzw1my.s:95021  .debug_str:000000000001afd5 .LASF6107
     /tmp/ccNzw1my.s:97699  .debug_str:0000000000025f98 .LASF6108
     /tmp/ccNzw1my.s:105607  .debug_str:0000000000046176 .LASF6109
     /tmp/ccNzw1my.s:94675  .debug_str:0000000000019757 .LASF6110
     /tmp/ccNzw1my.s:101295  .debug_str:0000000000034be1 .LASF6111
     /tmp/ccNzw1my.s:96673  .debug_str:00000000000220bf .LASF6112
     /tmp/ccNzw1my.s:101785  .debug_str:00000000000369d1 .LASF6113
     /tmp/ccNzw1my.s:95673  .debug_str:000000000001dc4f .LASF6114
     /tmp/ccNzw1my.s:100329  .debug_str:0000000000030b4c .LASF6115
     /tmp/ccNzw1my.s:97701  .debug_str:0000000000025fa1 .LASF6116
     /tmp/ccNzw1my.s:96121  .debug_str:000000000001fc9b .LASF6117
     /tmp/ccNzw1my.s:91707  .debug_str:000000000000de2a .LASF6118
     /tmp/ccNzw1my.s:106403  .debug_str:00000000000496e2 .LASF6119
     /tmp/ccNzw1my.s:99557  .debug_str:000000000002d8cc .LASF6120
     /tmp/ccNzw1my.s:97703  .debug_str:0000000000025faa .LASF6121
     /tmp/ccNzw1my.s:89135  .debug_str:000000000000314a .LASF6122
     /tmp/ccNzw1my.s:91077  .debug_str:000000000000b565 .LASF6123
     /tmp/ccNzw1my.s:98373  .debug_str:0000000000028c44 .LASF6124
     /tmp/ccNzw1my.s:94583  .debug_str:000000000001914a .LASF6125
     /tmp/ccNzw1my.s:102303  .debug_str:00000000000385b0 .LASF6126
     /tmp/ccNzw1my.s:102593  .debug_str:0000000000039965 .LASF6127
     /tmp/ccNzw1my.s:93297  .debug_str:0000000000013ecf .LASF6128
     /tmp/ccNzw1my.s:95785  .debug_str:000000000001e41b .LASF6129
     /tmp/ccNzw1my.s:98421  .debug_str:0000000000028f81 .LASF6130
     /tmp/ccNzw1my.s:97707  .debug_str:0000000000025fcd .LASF6131
     /tmp/ccNzw1my.s:90071  .debug_str:000000000000714a .LASF6132
     /tmp/ccNzw1my.s:106995  .debug_str:000000000004c135 .LASF6133
     /tmp/ccNzw1my.s:99367  .debug_str:000000000002cc52 .LASF6134
     /tmp/ccNzw1my.s:100007  .debug_str:000000000002f716 .LASF6135
     /tmp/ccNzw1my.s:101393  .debug_str:000000000003527d .LASF6136
     /tmp/ccNzw1my.s:96201  .debug_str:0000000000020163 .LASF6137
     /tmp/ccNzw1my.s:93961  .debug_str:0000000000016882 .LASF6138
     /tmp/ccNzw1my.s:93759  .debug_str:0000000000015b4a .LASF6139
     /tmp/ccNzw1my.s:104221  .debug_str:0000000000040760 .LASF6140
     /tmp/ccNzw1my.s:90517  .debug_str:0000000000008e53 .LASF6141
     /tmp/ccNzw1my.s:105035  .debug_str:0000000000043bf9 .LASF6142
     /tmp/ccNzw1my.s:103407  .debug_str:000000000003cf95 .LASF6143
     /tmp/ccNzw1my.s:104169  .debug_str:00000000000403a7 .LASF6144
     /tmp/ccNzw1my.s:96169  .debug_str:000000000001ff56 .LASF6145
     /tmp/ccNzw1my.s:106283  .debug_str:0000000000048ed6 .LASF6146
     /tmp/ccNzw1my.s:97865  .debug_str:0000000000026a9a .LASF6147
     /tmp/ccNzw1my.s:91397  .debug_str:000000000000cb0c .LASF6148
     /tmp/ccNzw1my.s:99165  .debug_str:000000000002bea4 .LASF6149
     /tmp/ccNzw1my.s:90927  .debug_str:000000000000aa34 .LASF6150
     /tmp/ccNzw1my.s:105605  .debug_str:0000000000046153 .LASF6151
     /tmp/ccNzw1my.s:91499  .debug_str:000000000000d20d .LASF6152
     /tmp/ccNzw1my.s:100589  .debug_str:0000000000031d7a .LASF6153
     /tmp/ccNzw1my.s:100967  .debug_str:000000000003351d .LASF6154
     /tmp/ccNzw1my.s:97607  .debug_str:0000000000025988 .LASF6155
     /tmp/ccNzw1my.s:97275  .debug_str:0000000000024626 .LASF6156
     /tmp/ccNzw1my.s:99169  .debug_str:000000000002bee8 .LASF6157
     /tmp/ccNzw1my.s:88669  .debug_str:0000000000001010 .LASF6158
     /tmp/ccNzw1my.s:90531  .debug_str:0000000000008fce .LASF6159
     /tmp/ccNzw1my.s:103843  .debug_str:000000000003ec8f .LASF6160
     /tmp/ccNzw1my.s:102991  .debug_str:000000000003b4e9 .LASF6161
     /tmp/ccNzw1my.s:103371  .debug_str:000000000003ce25 .LASF6162
     /tmp/ccNzw1my.s:104971  .debug_str:00000000000437df .LASF6163
     /tmp/ccNzw1my.s:103985  .debug_str:000000000003f72f .LASF6164
     /tmp/ccNzw1my.s:106223  .debug_str:0000000000048a67 .LASF6165
     /tmp/ccNzw1my.s:100149  .debug_str:000000000002ff4f .LASF6166
     /tmp/ccNzw1my.s:102705  .debug_str:000000000003a0b9 .LASF6167
     /tmp/ccNzw1my.s:90143  .debug_str:00000000000075bd .LASF6168
     /tmp/ccNzw1my.s:95447  .debug_str:000000000001ccdb .LASF6169
     /tmp/ccNzw1my.s:90537  .debug_str:0000000000009016 .LASF6170
     /tmp/ccNzw1my.s:94489  .debug_str:0000000000018af5 .LASF6171
     /tmp/ccNzw1my.s:88619  .debug_str:0000000000000ca5 .LASF6172
     /tmp/ccNzw1my.s:104065  .debug_str:000000000003fbf6 .LASF6173
     /tmp/ccNzw1my.s:95965  .debug_str:000000000001f101 .LASF6174
     /tmp/ccNzw1my.s:104945  .debug_str:00000000000436a3 .LASF6175
     /tmp/ccNzw1my.s:107103  .debug_str:000000000004c8a8 .LASF6176
     /tmp/ccNzw1my.s:92769  .debug_str:0000000000011d00 .LASF6177
     /tmp/ccNzw1my.s:100293  .debug_str:0000000000030887 .LASF6178
     /tmp/ccNzw1my.s:91327  .debug_str:000000000000c697 .LASF6179
     /tmp/ccNzw1my.s:101757  .debug_str:0000000000036924 .LASF6180
     /tmp/ccNzw1my.s:95425  .debug_str:000000000001cb10 .LASF6181
     /tmp/ccNzw1my.s:98921  .debug_str:000000000002af17 .LASF6182
     /tmp/ccNzw1my.s:104607  .debug_str:00000000000420d4 .LASF6183
     /tmp/ccNzw1my.s:90671  .debug_str:000000000000996a .LASF6184
     /tmp/ccNzw1my.s:98923  .debug_str:000000000002af27 .LASF6185
     /tmp/ccNzw1my.s:88543  .debug_str:00000000000007c2 .LASF6186
     /tmp/ccNzw1my.s:105089  .debug_str:0000000000043fee .LASF6187
     /tmp/ccNzw1my.s:95231  .debug_str:000000000001be57 .LASF6188
     /tmp/ccNzw1my.s:92365  .debug_str:0000000000010294 .LASF6189
     /tmp/ccNzw1my.s:105517  .debug_str:0000000000045bb4 .LASF6190
     /tmp/ccNzw1my.s:100169  .debug_str:00000000000300fa .LASF6191
     /tmp/ccNzw1my.s:95299  .debug_str:000000000001c293 .LASF6192
     /tmp/ccNzw1my.s:100895  .debug_str:00000000000330bb .LASF6193
     /tmp/ccNzw1my.s:95145  .debug_str:000000000001b8a7 .LASF6194
     /tmp/ccNzw1my.s:94717  .debug_str:0000000000019a8a .LASF6195
     /tmp/ccNzw1my.s:97919  .debug_str:0000000000026e79 .LASF6196
     /tmp/ccNzw1my.s:101839  .debug_str:0000000000036d7d .LASF6197
     /tmp/ccNzw1my.s:97453  .debug_str:0000000000024f53 .LASF6198
     /tmp/ccNzw1my.s:90833  .debug_str:000000000000a3f0 .LASF6199
     /tmp/ccNzw1my.s:100681  .debug_str:0000000000032327 .LASF6200
     /tmp/ccNzw1my.s:94215  .debug_str:00000000000179b6 .LASF6201
     /tmp/ccNzw1my.s:106941  .debug_str:000000000004bd89 .LASF6202
     /tmp/ccNzw1my.s:100683  .debug_str:0000000000032333 .LASF6203
     /tmp/ccNzw1my.s:103387  .debug_str:000000000003cefd .LASF6204
     /tmp/ccNzw1my.s:100985  .debug_str:000000000003364f .LASF6205
     /tmp/ccNzw1my.s:100685  .debug_str:000000000003233f .LASF6206
     /tmp/ccNzw1my.s:103389  .debug_str:000000000003cf03 .LASF6207
     /tmp/ccNzw1my.s:94959  .debug_str:000000000001aad6 .LASF6208
     /tmp/ccNzw1my.s:98761  .debug_str:000000000002a542 .LASF6209
     /tmp/ccNzw1my.s:103997  .debug_str:000000000003f802 .LASF6210
     /tmp/ccNzw1my.s:103125  .debug_str:000000000003bdba .LASF6211
     /tmp/ccNzw1my.s:98763  .debug_str:000000000002a54c .LASF6212
     /tmp/ccNzw1my.s:103393  .debug_str:000000000003cf15 .LASF6213
     /tmp/ccNzw1my.s:101965  .debug_str:0000000000037386 .LASF6214
     /tmp/ccNzw1my.s:99771  .debug_str:000000000002e712 .LASF6215
     /tmp/ccNzw1my.s:103395  .debug_str:000000000003cf1b .LASF6216
     /tmp/ccNzw1my.s:95903  .debug_str:000000000001ebcf .LASF6217
     /tmp/ccNzw1my.s:98767  .debug_str:000000000002a56b .LASF6218
     /tmp/ccNzw1my.s:94233  .debug_str:0000000000017a96 .LASF6219
     /tmp/ccNzw1my.s:96581  .debug_str:0000000000021af9 .LASF6220
     /tmp/ccNzw1my.s:106713  .debug_str:000000000004ab96 .LASF6221
     /tmp/ccNzw1my.s:103399  .debug_str:000000000003cf37 .LASF6222
     /tmp/ccNzw1my.s:102907  .debug_str:000000000003aedc .LASF6223
     /tmp/ccNzw1my.s:103679  .debug_str:000000000003e118 .LASF6224
     /tmp/ccNzw1my.s:103401  .debug_str:000000000003cf3d .LASF6225
     /tmp/ccNzw1my.s:95377  .debug_str:000000000001c7cc .LASF6226
     /tmp/ccNzw1my.s:88997  .debug_str:000000000000273a .LASF6227
     /tmp/ccNzw1my.s:94285  .debug_str:0000000000017e4f .LASF6228
     /tmp/ccNzw1my.s:92637  .debug_str:000000000001135a .LASF6229
     /tmp/ccNzw1my.s:103683  .debug_str:000000000003e16e .LASF6230
     /tmp/ccNzw1my.s:94287  .debug_str:0000000000017e56 .LASF6231
     /tmp/ccNzw1my.s:105603  .debug_str:0000000000046132 .LASF6232
     /tmp/ccNzw1my.s:103197  .debug_str:000000000003c274 .LASF6233
     /tmp/ccNzw1my.s:94289  .debug_str:0000000000017e5d .LASF6234
     /tmp/ccNzw1my.s:104609  .debug_str:00000000000420dd .LASF6235
     /tmp/ccNzw1my.s:103199  .debug_str:000000000003c27d .LASF6236
     /tmp/ccNzw1my.s:94291  .debug_str:0000000000017e64 .LASF6237
     /tmp/ccNzw1my.s:93609  .debug_str:00000000000151c7 .LASF6238
     /tmp/ccNzw1my.s:103201  .debug_str:000000000003c286 .LASF6239
     /tmp/ccNzw1my.s:94293  .debug_str:0000000000017e6b .LASF6240
     /tmp/ccNzw1my.s:106515  .debug_str:0000000000049e4c .LASF6241
     /tmp/ccNzw1my.s:103203  .debug_str:000000000003c28f .LASF6242
     /tmp/ccNzw1my.s:93359  .debug_str:00000000000142a2 .LASF6243
     /tmp/ccNzw1my.s:100571  .debug_str:0000000000031c74 .LASF6244
     /tmp/ccNzw1my.s:103001  .debug_str:000000000003b5aa .LASF6245
     /tmp/ccNzw1my.s:93363  .debug_str:00000000000142d2 .LASF6246
     /tmp/ccNzw1my.s:94551  .debug_str:0000000000018efb .LASF6247
     /tmp/ccNzw1my.s:103793  .debug_str:000000000003e898 .LASF6248
     /tmp/ccNzw1my.s:101527  .debug_str:0000000000035a71 .LASF6249
     /tmp/ccNzw1my.s:90619  .debug_str:0000000000009592 .LASF6250
     /tmp/ccNzw1my.s:94203  .debug_str:00000000000178d6 .LASF6251
     /tmp/ccNzw1my.s:101529  .debug_str:0000000000035a77 .LASF6252
     /tmp/ccNzw1my.s:103643  .debug_str:000000000003deee .LASF6253
     /tmp/ccNzw1my.s:91867  .debug_str:000000000000e74e .LASF6254
     /tmp/ccNzw1my.s:101531  .debug_str:0000000000035a7d .LASF6255
     /tmp/ccNzw1my.s:97655  .debug_str:0000000000025cde .LASF6256
     /tmp/ccNzw1my.s:100659  .debug_str:000000000003214c .LASF6257
     /tmp/ccNzw1my.s:101589  .debug_str:0000000000035eb8 .LASF6258
     /tmp/ccNzw1my.s:101493  .debug_str:000000000003589c .LASF6259
     /tmp/ccNzw1my.s:88895  .debug_str:0000000000001faa .LASF6260
     /tmp/ccNzw1my.s:101591  .debug_str:0000000000035ebe .LASF6261
     /tmp/ccNzw1my.s:103661  .debug_str:000000000003e014 .LASF6262
     /tmp/ccNzw1my.s:104047  .debug_str:000000000003fb06 .LASF6263
     /tmp/ccNzw1my.s:101593  .debug_str:0000000000035ec4 .LASF6264
     /tmp/ccNzw1my.s:97675  .debug_str:0000000000025e49 .LASF6265
     /tmp/ccNzw1my.s:96167  .debug_str:000000000001ff48 .LASF6266
     /tmp/ccNzw1my.s:101595  .debug_str:0000000000035eca .LASF6267
     /tmp/ccNzw1my.s:91583  .debug_str:000000000000d72b .LASF6268
     /tmp/ccNzw1my.s:96171  .debug_str:000000000001ff79 .LASF6269
     /tmp/ccNzw1my.s:101597  .debug_str:0000000000035ed0 .LASF6270
     /tmp/ccNzw1my.s:104629  .debug_str:0000000000042279 .LASF6271
     /tmp/ccNzw1my.s:99313  .debug_str:000000000002c89b .LASF6272
     /tmp/ccNzw1my.s:101599  .debug_str:0000000000035ed6 .LASF6273
     /tmp/ccNzw1my.s:98685  .debug_str:000000000002a056 .LASF6274
     /tmp/ccNzw1my.s:106693  .debug_str:000000000004aa5a .LASF6275
     /tmp/ccNzw1my.s:101601  .debug_str:0000000000035edc .LASF6276
     /tmp/ccNzw1my.s:92613  .debug_str:00000000000111ad .LASF6277
     /tmp/ccNzw1my.s:100201  .debug_str:0000000000030326 .LASF6278
     /tmp/ccNzw1my.s:101603  .debug_str:0000000000035ee2 .LASF6279
     /tmp/ccNzw1my.s:106825  .debug_str:000000000004b51b .LASF6280
     /tmp/ccNzw1my.s:100617  .debug_str:0000000000031f6f .LASF6281
     /tmp/ccNzw1my.s:98641  .debug_str:0000000000029d13 .LASF6282
     /tmp/ccNzw1my.s:99633  .debug_str:000000000002de48 .LASF6283
     /tmp/ccNzw1my.s:93969  .debug_str:00000000000168c4 .LASF6284
     /tmp/ccNzw1my.s:101607  .debug_str:0000000000035f09 .LASF6285
     /tmp/ccNzw1my.s:93587  .debug_str:0000000000015084 .LASF6286
     /tmp/ccNzw1my.s:100585  .debug_str:0000000000031d43 .LASF6287
     /tmp/ccNzw1my.s:101685  .debug_str:00000000000364cd .LASF6288
     /tmp/ccNzw1my.s:105599  .debug_str:0000000000046109 .LASF6289
     /tmp/ccNzw1my.s:101411  .debug_str:0000000000035344 .LASF6290
     /tmp/ccNzw1my.s:101687  .debug_str:00000000000364d3 .LASF6291
     /tmp/ccNzw1my.s:99653  .debug_str:000000000002df95 .LASF6292
     /tmp/ccNzw1my.s:89285  .debug_str:0000000000003b14 .LASF6293
     /tmp/ccNzw1my.s:101689  .debug_str:00000000000364d9 .LASF6294
     /tmp/ccNzw1my.s:93607  .debug_str:00000000000151a7 .LASF6295
     /tmp/ccNzw1my.s:92405  .debug_str:000000000001045e .LASF6296
     /tmp/ccNzw1my.s:101691  .debug_str:00000000000364df .LASF6297
     /tmp/ccNzw1my.s:106511  .debug_str:0000000000049e16 .LASF6298
     /tmp/ccNzw1my.s:92407  .debug_str:0000000000010468 .LASF6299
     /tmp/ccNzw1my.s:101693  .debug_str:00000000000364e5 .LASF6300
     /tmp/ccNzw1my.s:89307  .debug_str:0000000000003c21 .LASF6301
     /tmp/ccNzw1my.s:98013  .debug_str:000000000002749b .LASF6302
     /tmp/ccNzw1my.s:98797  .debug_str:000000000002a710 .LASF6303
     /tmp/ccNzw1my.s:91549  .debug_str:000000000000d4e5 .LASF6304
     /tmp/ccNzw1my.s:106891  .debug_str:000000000004b9ce .LASF6305
     /tmp/ccNzw1my.s:101697  .debug_str:00000000000364fa .LASF6306
     /tmp/ccNzw1my.s:88549  .debug_str:0000000000000811 .LASF6307
     /tmp/ccNzw1my.s:106895  .debug_str:000000000004ba07 .LASF6308
     /tmp/ccNzw1my.s:101699  .debug_str:0000000000036500 .LASF6309
     /tmp/ccNzw1my.s:101509  .debug_str:0000000000035976 .LASF6310
     /tmp/ccNzw1my.s:92191  .debug_str:000000000000f923 .LASF6311
     /tmp/ccNzw1my.s:101701  .debug_str:0000000000036506 .LASF6312
     /tmp/ccNzw1my.s:95469  .debug_str:000000000001ce61 .LASF6313
     /tmp/ccNzw1my.s:107287  .debug_str:000000000004d56e .LASF6314
     /tmp/ccNzw1my.s:101703  .debug_str:000000000003650c .LASF6315
     /tmp/ccNzw1my.s:89461  .debug_str:00000000000046e3 .LASF6316
     /tmp/ccNzw1my.s:100595  .debug_str:0000000000031dd0 .LASF6317
     /tmp/ccNzw1my.s:101763  .debug_str:000000000003697b .LASF6318
     /tmp/ccNzw1my.s:101535  .debug_str:0000000000035aad .LASF6319
     /tmp/ccNzw1my.s:97755  .debug_str:00000000000262fa .LASF6320
     /tmp/ccNzw1my.s:101765  .debug_str:0000000000036981 .LASF6321
     /tmp/ccNzw1my.s:95491  .debug_str:000000000001cfd7 .LASF6322
     /tmp/ccNzw1my.s:89333  .debug_str:0000000000003dec .LASF6323
     /tmp/ccNzw1my.s:101767  .debug_str:0000000000036987 .LASF6324
     /tmp/ccNzw1my.s:89477  .debug_str:0000000000004869 .LASF6325
     /tmp/ccNzw1my.s:93635  .debug_str:000000000001541b .LASF6326
     /tmp/ccNzw1my.s:101769  .debug_str:000000000003698d .LASF6327
     /tmp/ccNzw1my.s:102549  .debug_str:00000000000395f7 .LASF6328
     /tmp/ccNzw1my.s:93637  .debug_str:0000000000015427 .LASF6329
     /tmp/ccNzw1my.s:101771  .debug_str:0000000000036993 .LASF6330
     /tmp/ccNzw1my.s:96479  .debug_str:0000000000021492 .LASF6331
     /tmp/ccNzw1my.s:93853  .debug_str:0000000000016192 .LASF6332
     /tmp/ccNzw1my.s:101773  .debug_str:0000000000036999 .LASF6333
     /tmp/ccNzw1my.s:90387  .debug_str:000000000000859b .LASF6334
     /tmp/ccNzw1my.s:89147  .debug_str:00000000000031f8 .LASF6335
     /tmp/ccNzw1my.s:101775  .debug_str:000000000003699f .LASF6336
     /tmp/ccNzw1my.s:103409  .debug_str:000000000003cfa0 .LASF6337
     /tmp/ccNzw1my.s:89151  .debug_str:0000000000003244 .LASF6338
     /tmp/ccNzw1my.s:101777  .debug_str:00000000000369a5 .LASF6339
     /tmp/ccNzw1my.s:97415  .debug_str:0000000000024c71 .LASF6340
     /tmp/ccNzw1my.s:97523  .debug_str:00000000000253ba .LASF6341
     /tmp/ccNzw1my.s:101779  .debug_str:00000000000369ab .LASF6342
     /tmp/ccNzw1my.s:91331  .debug_str:000000000000c6d6 .LASF6343
     /tmp/ccNzw1my.s:97027  .debug_str:00000000000238a7 .LASF6344
     /tmp/ccNzw1my.s:101781  .debug_str:00000000000369b1 .LASF6345
     /tmp/ccNzw1my.s:104363  .debug_str:000000000004100d .LASF6346
     /tmp/ccNzw1my.s:106961  .debug_str:000000000004bf16 .LASF6347
     /tmp/ccNzw1my.s:101845  .debug_str:0000000000036de0 .LASF6348
     /tmp/ccNzw1my.s:97437  .debug_str:0000000000024e56 .LASF6349
     /tmp/ccNzw1my.s:96637  .debug_str:0000000000021ed1 .LASF6350
     /tmp/ccNzw1my.s:99091  .debug_str:000000000002ba60 .LASF6351
     /tmp/ccNzw1my.s:91351  .debug_str:000000000000c83a .LASF6352
     /tmp/ccNzw1my.s:102517  .debug_str:00000000000393f8 .LASF6353
     /tmp/ccNzw1my.s:101849  .debug_str:0000000000036df1 .LASF6354
     /tmp/ccNzw1my.s:104389  .debug_str:0000000000041211 .LASF6355
     /tmp/ccNzw1my.s:95623  .debug_str:000000000001d8c1 .LASF6356
     /tmp/ccNzw1my.s:101851  .debug_str:0000000000036df7 .LASF6357
     /tmp/ccNzw1my.s:98419  .debug_str:0000000000028f61 .LASF6358
     /tmp/ccNzw1my.s:93721  .debug_str:00000000000158d3 .LASF6359
     /tmp/ccNzw1my.s:101853  .debug_str:0000000000036dfd .LASF6360
     /tmp/ccNzw1my.s:92333  .debug_str:0000000000010117 .LASF6361
     /tmp/ccNzw1my.s:93725  .debug_str:00000000000158f0 .LASF6362
     /tmp/ccNzw1my.s:101855  .debug_str:0000000000036e03 .LASF6363
     /tmp/ccNzw1my.s:105327  .debug_str:0000000000044e98 .LASF6364
     /tmp/ccNzw1my.s:103411  .debug_str:000000000003cfc0 .LASF6365
     /tmp/ccNzw1my.s:101857  .debug_str:0000000000036e09 .LASF6366
     /tmp/ccNzw1my.s:99399  .debug_str:000000000002ce48 .LASF6367
     /tmp/ccNzw1my.s:88631  .debug_str:0000000000000d6f .LASF6368
     /tmp/ccNzw1my.s:101859  .debug_str:0000000000036e0f .LASF6369
     /tmp/ccNzw1my.s:93335  .debug_str:000000000001412d .LASF6370
     /tmp/ccNzw1my.s:89227  .debug_str:00000000000036d6 .LASF6371
     /tmp/ccNzw1my.s:101861  .debug_str:0000000000036e15 .LASF6372
     /tmp/ccNzw1my.s:106245  .debug_str:0000000000048bf5 .LASF6373
     /tmp/ccNzw1my.s:100503  .debug_str:00000000000317c9 .LASF6374
     /tmp/ccNzw1my.s:99109  .debug_str:000000000002bb82 .LASF6375
     /tmp/ccNzw1my.s:100317  .debug_str:0000000000030a28 .LASF6376
     /tmp/ccNzw1my.s:98783  .debug_str:000000000002a633 .LASF6377
     /tmp/ccNzw1my.s:101941  .debug_str:000000000003730e .LASF6378
     /tmp/ccNzw1my.s:93521  .debug_str:0000000000014c3a .LASF6379
     /tmp/ccNzw1my.s:98785  .debug_str:000000000002a641 .LASF6380
     /tmp/ccNzw1my.s:101943  .debug_str:0000000000037314 .LASF6381
     /tmp/ccNzw1my.s:106437  .debug_str:0000000000049947 .LASF6382
     /tmp/ccNzw1my.s:92517  .debug_str:0000000000010bc6 .LASF6383
     /tmp/ccNzw1my.s:101945  .debug_str:000000000003731a .LASF6384
     /tmp/ccNzw1my.s:100495  .debug_str:0000000000031772 .LASF6385
     /tmp/ccNzw1my.s:94223  .debug_str:0000000000017a10 .LASF6386
     /tmp/ccNzw1my.s:101947  .debug_str:0000000000037320 .LASF6387
     /tmp/ccNzw1my.s:94459  .debug_str:00000000000188b2 .LASF6388
     /tmp/ccNzw1my.s:94227  .debug_str:0000000000017a58 .LASF6389
     /tmp/ccNzw1my.s:101949  .debug_str:0000000000037326 .LASF6390
     /tmp/ccNzw1my.s:88463  .debug_str:0000000000000201 .LASF6391
     /tmp/ccNzw1my.s:93787  .debug_str:0000000000015cdf .LASF6392
     /tmp/ccNzw1my.s:101951  .debug_str:000000000003732c .LASF6393
     /tmp/ccNzw1my.s:104037  .debug_str:000000000003fa5f .LASF6394
     /tmp/ccNzw1my.s:92179  .debug_str:000000000000f885 .LASF6395
     /tmp/ccNzw1my.s:101953  .debug_str:0000000000037332 .LASF6396
     /tmp/ccNzw1my.s:95413  .debug_str:000000000001ca34 .LASF6397
     /tmp/ccNzw1my.s:99789  .debug_str:000000000002e87a .LASF6398
     /tmp/ccNzw1my.s:101955  .debug_str:0000000000037338 .LASF6399
     /tmp/ccNzw1my.s:89383  .debug_str:00000000000041bc .LASF6400
     /tmp/ccNzw1my.s:105255  .debug_str:0000000000044a3c .LASF6401
     /tmp/ccNzw1my.s:101957  .debug_str:000000000003733e .LASF6402
     /tmp/ccNzw1my.s:102463  .debug_str:00000000000390a2 .LASF6403
     /tmp/ccNzw1my.s:106679  .debug_str:000000000004a996 .LASF6404
     /tmp/ccNzw1my.s:101959  .debug_str:0000000000037344 .LASF6405
     /tmp/ccNzw1my.s:96393  .debug_str:0000000000020f53 .LASF6406
     /tmp/ccNzw1my.s:96557  .debug_str:000000000002194f .LASF6407
     /tmp/ccNzw1my.s:102013  .debug_str:0000000000037686 .LASF6408
     /tmp/ccNzw1my.s:89405  .debug_str:00000000000043b0 .LASF6409
     /tmp/ccNzw1my.s:98615  .debug_str:0000000000029bc0 .LASF6410
     /tmp/ccNzw1my.s:102015  .debug_str:000000000003768c .LASF6411
     /tmp/ccNzw1my.s:102479  .debug_str:0000000000039147 .LASF6412
     /tmp/ccNzw1my.s:102977  .debug_str:000000000003b418 .LASF6413
     /tmp/ccNzw1my.s:102017  .debug_str:0000000000037692 .LASF6414
     /tmp/ccNzw1my.s:96409  .debug_str:0000000000021027 .LASF6415
     /tmp/ccNzw1my.s:102981  .debug_str:000000000003b43e .LASF6416
     /tmp/ccNzw1my.s:102019  .debug_str:0000000000037698 .LASF6417
     /tmp/ccNzw1my.s:90317  .debug_str:00000000000080eb .LASF6418
     /tmp/ccNzw1my.s:100941  .debug_str:000000000003338e .LASF6419
     /tmp/ccNzw1my.s:102021  .debug_str:000000000003769e .LASF6420
     /tmp/ccNzw1my.s:103327  .debug_str:000000000003caef .LASF6421
     /tmp/ccNzw1my.s:94869  .debug_str:000000000001a54b .LASF6422
     /tmp/ccNzw1my.s:102023  .debug_str:00000000000376a4 .LASF6423
     /tmp/ccNzw1my.s:97327  .debug_str:000000000002481e .LASF6424
     /tmp/ccNzw1my.s:94873  .debug_str:000000000001a58c .LASF6425
     /tmp/ccNzw1my.s:102025  .debug_str:00000000000376aa .LASF6426
     /tmp/ccNzw1my.s:91241  .debug_str:000000000000c0b8 .LASF6427
     /tmp/ccNzw1my.s:94853  .debug_str:000000000001a477 .LASF6428
     /tmp/ccNzw1my.s:102027  .debug_str:00000000000376b0 .LASF6429
     /tmp/ccNzw1my.s:104267  .debug_str:000000000004098f .LASF6430
     /tmp/ccNzw1my.s:88977  .debug_str:0000000000002578 .LASF6431
     /tmp/ccNzw1my.s:102029  .debug_str:00000000000376b6 .LASF6432
     /tmp/ccNzw1my.s:98321  .debug_str:00000000000288d9 .LASF6433
     /tmp/ccNzw1my.s:105309  .debug_str:0000000000044dc3 .LASF6434
     /tmp/ccNzw1my.s:102031  .debug_str:00000000000376bc .LASF6435
     /tmp/ccNzw1my.s:100127  .debug_str:000000000002fe13 .LASF6436
     /tmp/ccNzw1my.s:103655  .debug_str:000000000003dfc0 .LASF6437
     /tmp/ccNzw1my.s:102095  .debug_str:0000000000037aae .LASF6438
     /tmp/ccNzw1my.s:104301  .debug_str:0000000000040b67 .LASF6439
     /tmp/ccNzw1my.s:107161  .debug_str:000000000004cc02 .LASF6440
     /tmp/ccNzw1my.s:102097  .debug_str:0000000000037ab4 .LASF6441
     /tmp/ccNzw1my.s:98341  .debug_str:0000000000028a4c .LASF6442
     /tmp/ccNzw1my.s:103455  .debug_str:000000000003d2dc .LASF6443
     /tmp/ccNzw1my.s:102099  .debug_str:0000000000037aba .LASF6444
     /tmp/ccNzw1my.s:92255  .debug_str:000000000000fc63 .LASF6445
     /tmp/ccNzw1my.s:89755  .debug_str:0000000000005b5e .LASF6446
     /tmp/ccNzw1my.s:102101  .debug_str:0000000000037ac0 .LASF6447
     /tmp/ccNzw1my.s:105261  .debug_str:0000000000044a8b .LASF6448
     /tmp/ccNzw1my.s:98499  .debug_str:000000000002944d .LASF6449
     /tmp/ccNzw1my.s:102103  .debug_str:0000000000037ac6 .LASF6450
     /tmp/ccNzw1my.s:99327  .debug_str:000000000002c96e .LASF6451
     /tmp/ccNzw1my.s:101985  .debug_str:00000000000374e6 .LASF6452
     /tmp/ccNzw1my.s:102105  .debug_str:0000000000037acc .LASF6453
     /tmp/ccNzw1my.s:97021  .debug_str:0000000000023859 .LASF6454
     /tmp/ccNzw1my.s:97681  .debug_str:0000000000025eaa .LASF6455
     /tmp/ccNzw1my.s:102107  .debug_str:0000000000037ad2 .LASF6456
     /tmp/ccNzw1my.s:106163  .debug_str:000000000004858e .LASF6457
     /tmp/ccNzw1my.s:93963  .debug_str:0000000000016897 .LASF6458
     /tmp/ccNzw1my.s:102109  .debug_str:0000000000037ad8 .LASF6459
     /tmp/ccNzw1my.s:100235  .debug_str:000000000003050a .LASF6460
     /tmp/ccNzw1my.s:93967  .debug_str:00000000000168b8 .LASF6461
     /tmp/ccNzw1my.s:102111  .debug_str:0000000000037ade .LASF6462
     /tmp/ccNzw1my.s:94199  .debug_str:000000000001789b .LASF6463
     /tmp/ccNzw1my.s:97731  .debug_str:00000000000260f3 .LASF6464
     /tmp/ccNzw1my.s:102113  .debug_str:0000000000037ae4 .LASF6465
     /tmp/ccNzw1my.s:107147  .debug_str:000000000004cb26 .LASF6466
     /tmp/ccNzw1my.s:98035  .debug_str:000000000002763a .LASF6467
     /tmp/ccNzw1my.s:102179  .debug_str:0000000000037f11 .LASF6468
     /tmp/ccNzw1my.s:100257  .debug_str:0000000000030631 .LASF6469
     /tmp/ccNzw1my.s:101003  .debug_str:00000000000337e6 .LASF6470
     /tmp/ccNzw1my.s:102181  .debug_str:0000000000037f17 .LASF6471
     /tmp/ccNzw1my.s:94217  .debug_str:00000000000179bc .LASF6472
     /tmp/ccNzw1my.s:100315  .debug_str:0000000000030a1a .LASF6473
     /tmp/ccNzw1my.s:99715  .debug_str:000000000002e3b1 .LASF6474
     /tmp/ccNzw1my.s:94641  .debug_str:00000000000194e3 .LASF6475
     /tmp/ccNzw1my.s:103565  .debug_str:000000000003d9ea .LASF6476
     /tmp/ccNzw1my.s:102185  .debug_str:0000000000037f3a .LASF6477
     /tmp/ccNzw1my.s:101191  .debug_str:0000000000034507 .LASF6478
     /tmp/ccNzw1my.s:89217  .debug_str:000000000000363d .LASF6479
     /tmp/ccNzw1my.s:99721  .debug_str:000000000002e40a .LASF6480
     /tmp/ccNzw1my.s:95167  .debug_str:000000000001b9f6 .LASF6481
     /tmp/ccNzw1my.s:94791  .debug_str:000000000001a05b .LASF6482
     /tmp/ccNzw1my.s:102189  .debug_str:0000000000037f5e .LASF6483
     /tmp/ccNzw1my.s:89179  .debug_str:000000000000344f .LASF6484
     /tmp/ccNzw1my.s:93063  .debug_str:0000000000013047 .LASF6485
     /tmp/ccNzw1my.s:102191  .debug_str:0000000000037f64 .LASF6486
     /tmp/ccNzw1my.s:100441  .debug_str:00000000000313bc .LASF6487
     /tmp/ccNzw1my.s:103065  .debug_str:000000000003b999 .LASF6488
     /tmp/ccNzw1my.s:102193  .debug_str:0000000000037f6a .LASF6489
     /tmp/ccNzw1my.s:96149  .debug_str:000000000001fe29 .LASF6490
     /tmp/ccNzw1my.s:89133  .debug_str:000000000000313f .LASF6491
     /tmp/ccNzw1my.s:102195  .debug_str:0000000000037f70 .LASF6492
     /tmp/ccNzw1my.s:90075  .debug_str:000000000000716d .LASF6493
     /tmp/ccNzw1my.s:96975  .debug_str:0000000000023588 .LASF6494
     /tmp/ccNzw1my.s:102197  .debug_str:0000000000037f76 .LASF6495
     /tmp/ccNzw1my.s:103091  .debug_str:000000000003bb6e .LASF6496
     /tmp/ccNzw1my.s:101895  .debug_str:000000000003707c .LASF6497
     /tmp/ccNzw1my.s:91809  .debug_str:000000000000e42f .LASF6498
     /tmp/ccNzw1my.s:90041  .debug_str:0000000000006ece .LASF6499
     /tmp/ccNzw1my.s:101899  .debug_str:00000000000370c3 .LASF6500
     /tmp/ccNzw1my.s:93041  .debug_str:0000000000012f53 .LASF6501
     /tmp/ccNzw1my.s:103063  .debug_str:000000000003b978 .LASF6502
     /tmp/ccNzw1my.s:94649  .debug_str:0000000000019590 .LASF6503
     /tmp/ccNzw1my.s:93045  .debug_str:0000000000012f79 .LASF6504
     /tmp/ccNzw1my.s:94911  .debug_str:000000000001a815 .LASF6505
     /tmp/ccNzw1my.s:97361  .debug_str:0000000000024a9d .LASF6506
     /tmp/ccNzw1my.s:93049  .debug_str:0000000000012f88 .LASF6507
     /tmp/ccNzw1my.s:90949  .debug_str:000000000000ab8b .LASF6508
     /tmp/ccNzw1my.s:97363  .debug_str:0000000000024aac .LASF6509
     /tmp/ccNzw1my.s:91817  .debug_str:000000000000e4a8 .LASF6510
     /tmp/ccNzw1my.s:103967  .debug_str:000000000003f5b8 .LASF6511
     /tmp/ccNzw1my.s:96411  .debug_str:0000000000021047 .LASF6512
     /tmp/ccNzw1my.s:91819  .debug_str:000000000000e4af .LASF6513
     /tmp/ccNzw1my.s:97999  .debug_str:0000000000027357 .LASF6514
     /tmp/ccNzw1my.s:94263  .debug_str:0000000000017c9a .LASF6515
     /tmp/ccNzw1my.s:91821  .debug_str:000000000000e4b6 .LASF6516
     /tmp/ccNzw1my.s:91915  .debug_str:000000000000e8a3 .LASF6517
     /tmp/ccNzw1my.s:91085  .debug_str:000000000000b61d .LASF6518
     /tmp/ccNzw1my.s:91823  .debug_str:000000000000e4bd .LASF6519
     /tmp/ccNzw1my.s:104957  .debug_str:0000000000043724 .LASF6520
     /tmp/ccNzw1my.s:97579  .debug_str:00000000000257f4 .LASF6521
     /tmp/ccNzw1my.s:91825  .debug_str:000000000000e4c4 .LASF6522
     /tmp/ccNzw1my.s:98985  .debug_str:000000000002b386 .LASF6523
     /tmp/ccNzw1my.s:97581  .debug_str:0000000000025805 .LASF6524
     /tmp/ccNzw1my.s:91827  .debug_str:000000000000e4cb .LASF6525
     /tmp/ccNzw1my.s:92927  .debug_str:0000000000012704 .LASF6526
     /tmp/ccNzw1my.s:104343  .debug_str:0000000000040e99 .LASF6527
     /tmp/ccNzw1my.s:91883  .debug_str:000000000000e7bd .LASF6528
     /tmp/ccNzw1my.s:104979  .debug_str:000000000004387f .LASF6529
     /tmp/ccNzw1my.s:93081  .debug_str:00000000000131a5 .LASF6530
     /tmp/ccNzw1my.s:91885  .debug_str:000000000000e7c4 .LASF6531
     /tmp/ccNzw1my.s:99003  .debug_str:000000000002b498 .LASF6532
     /tmp/ccNzw1my.s:93083  .debug_str:00000000000131b6 .LASF6533
     /tmp/ccNzw1my.s:91887  .debug_str:000000000000e7cb .LASF6534
     /tmp/ccNzw1my.s:92943  .debug_str:000000000001280a .LASF6535
     /tmp/ccNzw1my.s:90131  .debug_str:00000000000074e7 .LASF6536
     /tmp/ccNzw1my.s:93203  .debug_str:0000000000013942 .LASF6537
     /tmp/ccNzw1my.s:105867  .debug_str:00000000000472f3 .LASF6538
     /tmp/ccNzw1my.s:100133  .debug_str:000000000002fe52 .LASF6539
     /tmp/ccNzw1my.s:91891  .debug_str:000000000000e7f6 .LASF6540
     /tmp/ccNzw1my.s:99941  .debug_str:000000000002f2f9 .LASF6541
     /tmp/ccNzw1my.s:100139  .debug_str:000000000002fe9b .LASF6542
     /tmp/ccNzw1my.s:91893  .debug_str:000000000000e7fd .LASF6543
     /tmp/ccNzw1my.s:93895  .debug_str:0000000000016432 .LASF6544
     /tmp/ccNzw1my.s:90693  .debug_str:0000000000009aa1 .LASF6545
     /tmp/ccNzw1my.s:91895  .debug_str:000000000000e804 .LASF6546
     /tmp/ccNzw1my.s:89397  .debug_str:0000000000004322 .LASF6547
     /tmp/ccNzw1my.s:88523  .debug_str:000000000000068d .LASF6548
     /tmp/ccNzw1my.s:91897  .debug_str:000000000000e80b .LASF6549
     /tmp/ccNzw1my.s:100885  .debug_str:0000000000032ffd .LASF6550
     /tmp/ccNzw1my.s:90231  .debug_str:0000000000007b19 .LASF6551
     /tmp/ccNzw1my.s:91899  .debug_str:000000000000e812 .LASF6552
     /tmp/ccNzw1my.s:94849  .debug_str:000000000001a44b .LASF6553
     /tmp/ccNzw1my.s:100181  .debug_str:00000000000301bb .LASF6554
     /tmp/ccNzw1my.s:91901  .debug_str:000000000000e819 .LASF6555
     /tmp/ccNzw1my.s:88829  .debug_str:0000000000001b4a .LASF6556
     /tmp/ccNzw1my.s:96025  .debug_str:000000000001f526 .LASF6557
     /tmp/ccNzw1my.s:91977  .debug_str:000000000000ecfc .LASF6558
     /tmp/ccNzw1my.s:100903  .debug_str:0000000000033191 .LASF6559
     /tmp/ccNzw1my.s:100275  .debug_str:0000000000030739 .LASF6560
     /tmp/ccNzw1my.s:91979  .debug_str:000000000000ed03 .LASF6561
     /tmp/ccNzw1my.s:93605  .debug_str:0000000000015186 .LASF6562
     /tmp/ccNzw1my.s:93365  .debug_str:00000000000142d9 .LASF6563
     /tmp/ccNzw1my.s:91981  .debug_str:000000000000ed0a .LASF6564
     /tmp/ccNzw1my.s:88849  .debug_str:0000000000001c9b .LASF6565
     /tmp/ccNzw1my.s:95743  .debug_str:000000000001e0a2 .LASF6566
     /tmp/ccNzw1my.s:91983  .debug_str:000000000000ed11 .LASF6567
     /tmp/ccNzw1my.s:105931  .debug_str:0000000000047711 .LASF6568
     /tmp/ccNzw1my.s:95745  .debug_str:000000000001e0b1 .LASF6569
     /tmp/ccNzw1my.s:91985  .debug_str:000000000000ed18 .LASF6570
     /tmp/ccNzw1my.s:95813  .debug_str:000000000001e5fe .LASF6571
     /tmp/ccNzw1my.s:89395  .debug_str:0000000000004315 .LASF6572
     /tmp/ccNzw1my.s:91987  .debug_str:000000000000ed1f .LASF6573
     /tmp/ccNzw1my.s:89785  .debug_str:0000000000005d3b .LASF6574
     /tmp/ccNzw1my.s:88855  .debug_str:0000000000001d25 .LASF6575
     /tmp/ccNzw1my.s:93381  .debug_str:0000000000014378 .LASF6576
     /tmp/ccNzw1my.s:102815  .debug_str:000000000003a8b8 .LASF6577
     /tmp/ccNzw1my.s:88859  .debug_str:0000000000001d61 .LASF6578
     /tmp/ccNzw1my.s:91991  .debug_str:000000000000ed4e .LASF6579
     /tmp/ccNzw1my.s:88781  .debug_str:00000000000017a8 .LASF6580
     /tmp/ccNzw1my.s:107247  .debug_str:000000000004d2a2 .LASF6581
     /tmp/ccNzw1my.s:91993  .debug_str:000000000000ed55 .LASF6582
     /tmp/ccNzw1my.s:96405  .debug_str:0000000000020ff9 .LASF6583
     /tmp/ccNzw1my.s:103333  .debug_str:000000000003cb5f .LASF6584
     /tmp/ccNzw1my.s:91995  .debug_str:000000000000ed5c .LASF6585
     /tmp/ccNzw1my.s:103701  .debug_str:000000000003e290 .LASF6586
     /tmp/ccNzw1my.s:95403  .debug_str:000000000001c96f .LASF6587
     /tmp/ccNzw1my.s:93513  .debug_str:0000000000014bed .LASF6588
     /tmp/ccNzw1my.s:103521  .debug_str:000000000003d730 .LASF6589
     /tmp/ccNzw1my.s:95569  .debug_str:000000000001d523 .LASF6590
     /tmp/ccNzw1my.s:92049  .debug_str:000000000000f075 .LASF6591
     /tmp/ccNzw1my.s:90663  .debug_str:00000000000098f2 .LASF6592
     /tmp/ccNzw1my.s:104045  .debug_str:000000000003faf8 .LASF6593
     /tmp/ccNzw1my.s:92051  .debug_str:000000000000f07c .LASF6594
     /tmp/ccNzw1my.s:103725  .debug_str:000000000003e433 .LASF6595
     /tmp/ccNzw1my.s:93097  .debug_str:0000000000013266 .LASF6596
     /tmp/ccNzw1my.s:92053  .debug_str:000000000000f083 .LASF6597
     /tmp/ccNzw1my.s:97759  .debug_str:0000000000026332 .LASF6598
     /tmp/ccNzw1my.s:100981  .debug_str:000000000003362b .LASF6599
     /tmp/ccNzw1my.s:92055  .debug_str:000000000000f08a .LASF6600
     /tmp/ccNzw1my.s:91649  .debug_str:000000000000da77 .LASF6601
     /tmp/ccNzw1my.s:89985  .debug_str:0000000000006aa3 .LASF6602
     /tmp/ccNzw1my.s:92057  .debug_str:000000000000f091 .LASF6603
     /tmp/ccNzw1my.s:104687  .debug_str:00000000000425fa .LASF6604
     /tmp/ccNzw1my.s:93495  .debug_str:0000000000014aba .LASF6605
     /tmp/ccNzw1my.s:93537  .debug_str:0000000000014d3f .LASF6606
     /tmp/ccNzw1my.s:98743  .debug_str:000000000002a420 .LASF6607
     /tmp/ccNzw1my.s:101525  .debug_str:0000000000035a65 .LASF6608
     /tmp/ccNzw1my.s:92061  .debug_str:000000000000f0c6 .LASF6609
     /tmp/ccNzw1my.s:97947  .debug_str:0000000000026fda .LASF6610
     /tmp/ccNzw1my.s:101903  .debug_str:00000000000370fb .LASF6611
     /tmp/ccNzw1my.s:92063  .debug_str:000000000000f0cd .LASF6612
     /tmp/ccNzw1my.s:105637  .debug_str:000000000004635b .LASF6613
     /tmp/ccNzw1my.s:99773  .debug_str:000000000002e71c .LASF6614
     /tmp/ccNzw1my.s:93543  .debug_str:0000000000014d92 .LASF6615
     /tmp/ccNzw1my.s:102391  .debug_str:0000000000038b6f .LASF6616
     /tmp/ccNzw1my.s:96189  .debug_str:0000000000020074 .LASF6617
     /tmp/ccNzw1my.s:92133  .debug_str:000000000000f606 .LASF6618
     /tmp/ccNzw1my.s:100741  .debug_str:00000000000326e5 .LASF6619
     /tmp/ccNzw1my.s:96953  .debug_str:00000000000233aa .LASF6620
     /tmp/ccNzw1my.s:92135  .debug_str:000000000000f60d .LASF6621
     /tmp/ccNzw1my.s:105655  .debug_str:0000000000046483 .LASF6622
     /tmp/ccNzw1my.s:89753  .debug_str:0000000000005b53 .LASF6623
     /tmp/ccNzw1my.s:92137  .debug_str:000000000000f614 .LASF6624
     /tmp/ccNzw1my.s:99723  .debug_str:000000000002e410 .LASF6625
     /tmp/ccNzw1my.s:93735  .debug_str:000000000001597f .LASF6626
     /tmp/ccNzw1my.s:92139  .debug_str:000000000000f61b .LASF6627
     /tmp/ccNzw1my.s:93659  .debug_str:0000000000015573 .LASF6628
     /tmp/ccNzw1my.s:93715  .debug_str:000000000001587f .LASF6629
     /tmp/ccNzw1my.s:92141  .debug_str:000000000000f622 .LASF6630
     /tmp/ccNzw1my.s:106575  .debug_str:000000000004a25c .LASF6631
     /tmp/ccNzw1my.s:92697  .debug_str:00000000000117a1 .LASF6632
     /tmp/ccNzw1my.s:92143  .debug_str:000000000000f629 .LASF6633
     /tmp/ccNzw1my.s:93699  .debug_str:000000000001572c .LASF6634
     /tmp/ccNzw1my.s:95273  .debug_str:000000000001c128 .LASF6635
     /tmp/ccNzw1my.s:93685  .debug_str:00000000000156ba .LASF6636
     /tmp/ccNzw1my.s:99923  .debug_str:000000000002f179 .LASF6637
     /tmp/ccNzw1my.s:99065  .debug_str:000000000002b91a .LASF6638
     /tmp/ccNzw1my.s:93687  .debug_str:00000000000156c1 .LASF6639
     /tmp/ccNzw1my.s:88607  .debug_str:0000000000000bd8 .LASF6640
     /tmp/ccNzw1my.s:100813  .debug_str:0000000000032b8a .LASF6641
     /tmp/ccNzw1my.s:93689  .debug_str:00000000000156c8 .LASF6642
     /tmp/ccNzw1my.s:101565  .debug_str:0000000000035cd0 .LASF6643
     /tmp/ccNzw1my.s:89745  .debug_str:0000000000005ae6 .LASF6644
     /tmp/ccNzw1my.s:93691  .debug_str:00000000000156cf .LASF6645
     /tmp/ccNzw1my.s:95531  .debug_str:000000000001d28e .LASF6646
     /tmp/ccNzw1my.s:103979  .debug_str:000000000003f6b9 .LASF6647
     /tmp/ccNzw1my.s:92219  .debug_str:000000000000fae7 .LASF6648
     /tmp/ccNzw1my.s:88625  .debug_str:0000000000000cf4 .LASF6649
     /tmp/ccNzw1my.s:94517  .debug_str:0000000000018cca .LASF6650
     /tmp/ccNzw1my.s:92221  .debug_str:000000000000faee .LASF6651
     /tmp/ccNzw1my.s:104043  .debug_str:000000000003fad7 .LASF6652
     /tmp/ccNzw1my.s:105299  .debug_str:0000000000044d03 .LASF6653
     /tmp/ccNzw1my.s:92223  .debug_str:000000000000faf5 .LASF6654
     /tmp/ccNzw1my.s:95553  .debug_str:000000000001d404 .LASF6655
     /tmp/ccNzw1my.s:90825  .debug_str:000000000000a34d .LASF6656
     /tmp/ccNzw1my.s:92225  .debug_str:000000000000fafc .LASF6657
     /tmp/ccNzw1my.s:105337  .debug_str:0000000000044f42 .LASF6658
     /tmp/ccNzw1my.s:99347  .debug_str:000000000002caa4 .LASF6659
     /tmp/ccNzw1my.s:92227  .debug_str:000000000000fb03 .LASF6660
     /tmp/ccNzw1my.s:102603  .debug_str:00000000000399af .LASF6661
     /tmp/ccNzw1my.s:92631  .debug_str:00000000000112f8 .LASF6662
     /tmp/ccNzw1my.s:92229  .debug_str:000000000000fb0a .LASF6663
     /tmp/ccNzw1my.s:96549  .debug_str:00000000000218d0 .LASF6664
     /tmp/ccNzw1my.s:106173  .debug_str:000000000004865a .LASF6665
     /tmp/ccNzw1my.s:92231  .debug_str:000000000000fb11 .LASF6666
     /tmp/ccNzw1my.s:90435  .debug_str:0000000000008889 .LASF6667
     /tmp/ccNzw1my.s:94707  .debug_str:00000000000199e6 .LASF6668
     /tmp/ccNzw1my.s:92233  .debug_str:000000000000fb18 .LASF6669
     /tmp/ccNzw1my.s:103475  .debug_str:000000000003d44c .LASF6670
     /tmp/ccNzw1my.s:106979  .debug_str:000000000004c03b .LASF6671
     /tmp/ccNzw1my.s:92235  .debug_str:000000000000fb1f .LASF6672
     /tmp/ccNzw1my.s:97487  .debug_str:0000000000025162 .LASF6673
     /tmp/ccNzw1my.s:88877  .debug_str:0000000000001e65 .LASF6674
     /tmp/ccNzw1my.s:92237  .debug_str:000000000000fb26 .LASF6675
     /tmp/ccNzw1my.s:91393  .debug_str:000000000000cad5 .LASF6676
     /tmp/ccNzw1my.s:90169  .debug_str:0000000000007739 .LASF6677
     /tmp/ccNzw1my.s:92285  .debug_str:000000000000fe6a .LASF6678
     /tmp/ccNzw1my.s:103651  .debug_str:000000000003df86 .LASF6679
     /tmp/ccNzw1my.s:98969  .debug_str:000000000002b2ac .LASF6680
     /tmp/ccNzw1my.s:92287  .debug_str:000000000000fe71 .LASF6681
     /tmp/ccNzw1my.s:97661  .debug_str:0000000000025d34 .LASF6682
     /tmp/ccNzw1my.s:102583  .debug_str:00000000000398c3 .LASF6683
     /tmp/ccNzw1my.s:93993  .debug_str:0000000000016ab5 .LASF6684
     /tmp/ccNzw1my.s:91567  .debug_str:000000000000d60b .LASF6685
     /tmp/ccNzw1my.s:103599  .debug_str:000000000003dc4e .LASF6686
     /tmp/ccNzw1my.s:95603  .debug_str:000000000001d7a1 .LASF6687
     /tmp/ccNzw1my.s:104611  .debug_str:00000000000420fe .LASF6688
     /tmp/ccNzw1my.s:103367  .debug_str:000000000003cdf9 .LASF6689
     /tmp/ccNzw1my.s:92293  .debug_str:000000000000fec2 .LASF6690
     /tmp/ccNzw1my.s:98667  .debug_str:0000000000029e59 .LASF6691
     /tmp/ccNzw1my.s:93829  .debug_str:0000000000015fc2 .LASF6692
     /tmp/ccNzw1my.s:92295  .debug_str:000000000000fec9 .LASF6693
     /tmp/ccNzw1my.s:88663  .debug_str:0000000000000f9d .LASF6694
     /tmp/ccNzw1my.s:102475  .debug_str:000000000003912c .LASF6695
     /tmp/ccNzw1my.s:92297  .debug_str:000000000000fed0 .LASF6696
     /tmp/ccNzw1my.s:94841  .debug_str:000000000001a39c .LASF6697
     /tmp/ccNzw1my.s:100447  .debug_str:0000000000031461 .LASF6698
     /tmp/ccNzw1my.s:92299  .debug_str:000000000000fed7 .LASF6699
     /tmp/ccNzw1my.s:99619  .debug_str:000000000002dce5 .LASF6700
     /tmp/ccNzw1my.s:99611  .debug_str:000000000002dc4d .LASF6701
     /tmp/ccNzw1my.s:92301  .debug_str:000000000000fede .LASF6702
     /tmp/ccNzw1my.s:107187  .debug_str:000000000004cddd .LASF6703
     /tmp/ccNzw1my.s:95281  .debug_str:000000000001c1a9 .LASF6704
     /tmp/ccNzw1my.s:92303  .debug_str:000000000000fee5 .LASF6705
     /tmp/ccNzw1my.s:106479  .debug_str:0000000000049bc8 .LASF6706
     /tmp/ccNzw1my.s:88799  .debug_str:000000000000192a .LASF6707
     /tmp/ccNzw1my.s:94125  .debug_str:00000000000173d4 .LASF6708
     /tmp/ccNzw1my.s:99643  .debug_str:000000000002dedb .LASF6709
     /tmp/ccNzw1my.s:90695  .debug_str:0000000000009aad .LASF6710
     /tmp/ccNzw1my.s:94129  .debug_str:000000000001740f .LASF6711
     /tmp/ccNzw1my.s:93597  .debug_str:0000000000015129 .LASF6712
     /tmp/ccNzw1my.s:90699  .debug_str:0000000000009acf .LASF6713
     /tmp/ccNzw1my.s:92377  .debug_str:000000000001033a .LASF6714
     /tmp/ccNzw1my.s:106505  .debug_str:0000000000049da0 .LASF6715
     /tmp/ccNzw1my.s:102059  .debug_str:0000000000037888 .LASF6716
     /tmp/ccNzw1my.s:92379  .debug_str:0000000000010341 .LASF6717
     /tmp/ccNzw1my.s:92375  .debug_str:0000000000010319 .LASF6718
     /tmp/ccNzw1my.s:102035  .debug_str:00000000000376e5 .LASF6719
     /tmp/ccNzw1my.s:92381  .debug_str:0000000000010348 .LASF6720
     /tmp/ccNzw1my.s:94525  .debug_str:0000000000018d34 .LASF6721
     /tmp/ccNzw1my.s:102039  .debug_str:000000000003772f .LASF6722
     /tmp/ccNzw1my.s:92383  .debug_str:000000000001034f .LASF6723
     /tmp/ccNzw1my.s:88533  .debug_str:000000000000071e .LASF6724
     /tmp/ccNzw1my.s:102357  .debug_str:000000000003891b .LASF6725
     /tmp/ccNzw1my.s:92385  .debug_str:0000000000010356 .LASF6726
     /tmp/ccNzw1my.s:101491  .debug_str:000000000003587b .LASF6727
     /tmp/ccNzw1my.s:97501  .debug_str:0000000000025226 .LASF6728
     /tmp/ccNzw1my.s:92387  .debug_str:000000000001035d .LASF6729
     /tmp/ccNzw1my.s:95459  .debug_str:000000000001cdb9 .LASF6730
     /tmp/ccNzw1my.s:97505  .debug_str:0000000000025275 .LASF6731
     /tmp/ccNzw1my.s:92389  .debug_str:0000000000010364 .LASF6732
     /tmp/ccNzw1my.s:89447  .debug_str:0000000000004608 .LASF6733
     /tmp/ccNzw1my.s:103355  .debug_str:000000000003cd09 .LASF6734
     /tmp/ccNzw1my.s:94147  .debug_str:000000000001750f .LASF6735
     /tmp/ccNzw1my.s:91507  .debug_str:000000000000d254 .LASF6736
     /tmp/ccNzw1my.s:95077  .debug_str:000000000001b403 .LASF6737
     /tmp/ccNzw1my.s:92457  .debug_str:0000000000010856 .LASF6738
     /tmp/ccNzw1my.s:95471  .debug_str:000000000001ce81 .LASF6739
     /tmp/ccNzw1my.s:95081  .debug_str:000000000001b42e .LASF6740
     /tmp/ccNzw1my.s:92459  .debug_str:000000000001085d .LASF6741
     /tmp/ccNzw1my.s:89463  .debug_str:0000000000004703 .LASF6742
     /tmp/ccNzw1my.s:102529  .debug_str:00000000000394d3 .LASF6743
     /tmp/ccNzw1my.s:92461  .debug_str:0000000000010864 .LASF6744
     /tmp/ccNzw1my.s:102533  .debug_str:000000000003950e .LASF6745
     /tmp/ccNzw1my.s:90495  .debug_str:0000000000008d3e .LASF6746
     /tmp/ccNzw1my.s:92463  .debug_str:000000000001086b .LASF6747
     /tmp/ccNzw1my.s:96461  .debug_str:000000000002132c .LASF6748
     /tmp/ccNzw1my.s:90499  .debug_str:0000000000008d69 .LASF6749
     /tmp/ccNzw1my.s:92465  .debug_str:0000000000010872 .LASF6750
     /tmp/ccNzw1my.s:90373  .debug_str:00000000000084a9 .LASF6751
     /tmp/ccNzw1my.s:93675  .debug_str:000000000001564c .LASF6752
     /tmp/ccNzw1my.s:92467  .debug_str:0000000000010879 .LASF6753
     /tmp/ccNzw1my.s:103385  .debug_str:000000000003cedc .LASF6754
     /tmp/ccNzw1my.s:95987  .debug_str:000000000001f29f .LASF6755
     /tmp/ccNzw1my.s:92469  .debug_str:0000000000010880 .LASF6756
     /tmp/ccNzw1my.s:97401  .debug_str:0000000000024baf .LASF6757
     /tmp/ccNzw1my.s:89441  .debug_str:00000000000045c8 .LASF6758
     /tmp/ccNzw1my.s:92471  .debug_str:0000000000010887 .LASF6759
     /tmp/ccNzw1my.s:91311  .debug_str:000000000000c55b .LASF6760
     /tmp/ccNzw1my.s:99525  .debug_str:000000000002d6c3 .LASF6761
     /tmp/ccNzw1my.s:94305  .debug_str:0000000000017ed7 .LASF6762
     /tmp/ccNzw1my.s:104347  .debug_str:0000000000040ed4 .LASF6763
     /tmp/ccNzw1my.s:91411  .debug_str:000000000000cc51 .LASF6764
     /tmp/ccNzw1my.s:92475  .debug_str:00000000000108b8 .LASF6765
     /tmp/ccNzw1my.s:98383  .debug_str:0000000000028cd0 .LASF6766
     /tmp/ccNzw1my.s:91415  .debug_str:000000000000cc94 .LASF6767
     /tmp/ccNzw1my.s:92545  .debug_str:0000000000010dab .LASF6768
     /tmp/ccNzw1my.s:91339  .debug_str:000000000000c76c .LASF6769
     /tmp/ccNzw1my.s:94773  .debug_str:0000000000019f21 .LASF6770
     /tmp/ccNzw1my.s:92547  .debug_str:0000000000010db2 .LASF6771
     /tmp/ccNzw1my.s:104371  .debug_str:00000000000410b6 .LASF6772
     /tmp/ccNzw1my.s:105643  .debug_str:000000000004639b .LASF6773
     /tmp/ccNzw1my.s:92549  .debug_str:0000000000010db9 .LASF6774
     /tmp/ccNzw1my.s:98405  .debug_str:0000000000028e1a .LASF6775
     /tmp/ccNzw1my.s:90913  .debug_str:000000000000a943 .LASF6776
     /tmp/ccNzw1my.s:96357  .debug_str:0000000000020c77 .LASF6777
     /tmp/ccNzw1my.s:105697  .debug_str:0000000000046705 .LASF6778
     /tmp/ccNzw1my.s:93883  .debug_str:0000000000016361 .LASF6779
     /tmp/ccNzw1my.s:92553  .debug_str:0000000000010dea .LASF6780
     /tmp/ccNzw1my.s:105319  .debug_str:0000000000044e09 .LASF6781
     /tmp/ccNzw1my.s:105453  .debug_str:0000000000045740 .LASF6782
     /tmp/ccNzw1my.s:92555  .debug_str:0000000000010df1 .LASF6783
     /tmp/ccNzw1my.s:99385  .debug_str:000000000002cd9e .LASF6784
     /tmp/ccNzw1my.s:105457  .debug_str:000000000004577c .LASF6785
     /tmp/ccNzw1my.s:92557  .debug_str:0000000000010df8 .LASF6786
     /tmp/ccNzw1my.s:93315  .debug_str:0000000000013ff7 .LASF6787
     /tmp/ccNzw1my.s:103753  .debug_str:000000000003e5ef .LASF6788
     /tmp/ccNzw1my.s:92559  .debug_str:0000000000010dff .LASF6789
     /tmp/ccNzw1my.s:92491  .debug_str:00000000000109b3 .LASF6790
     /tmp/ccNzw1my.s:98547  .debug_str:0000000000029724 .LASF6791
     /tmp/ccNzw1my.s:94453  .debug_str:0000000000018857 .LASF6792
     /tmp/ccNzw1my.s:100299  .debug_str:00000000000308e2 .LASF6793
     /tmp/ccNzw1my.s:101929  .debug_str:0000000000037275 .LASF6794
     /tmp/ccNzw1my.s:92563  .debug_str:0000000000010e2c .LASF6795
     /tmp/ccNzw1my.s:94257  .debug_str:0000000000017c2d .LASF6796
     /tmp/ccNzw1my.s:101715  .debug_str:000000000003662a .LASF6797
     /tmp/ccNzw1my.s:97029  .debug_str:00000000000238b4 .LASF6798
     /tmp/ccNzw1my.s:101939  .debug_str:00000000000372ed .LASF6799
     /tmp/ccNzw1my.s:101719  .debug_str:0000000000036661 .LASF6800
     /tmp/ccNzw1my.s:97031  .debug_str:00000000000238bb .LASF6801
     /tmp/ccNzw1my.s:102777  .debug_str:000000000003a624 .LASF6802
     /tmp/ccNzw1my.s:101973  .debug_str:000000000003740c .LASF6803
     /tmp/ccNzw1my.s:97033  .debug_str:00000000000238c2 .LASF6804
     /tmp/ccNzw1my.s:89853  .debug_str:00000000000061a3 .LASF6805
     /tmp/ccNzw1my.s:97171  .debug_str:00000000000240d9 .LASF6806
     /tmp/ccNzw1my.s:97035  .debug_str:00000000000238c9 .LASF6807
     /tmp/ccNzw1my.s:102891  .debug_str:000000000003ae0e .LASF6808
     /tmp/ccNzw1my.s:97175  .debug_str:00000000000240f8 .LASF6809
     /tmp/ccNzw1my.s:97037  .debug_str:00000000000238d0 .LASF6810
     /tmp/ccNzw1my.s:96827  .debug_str:0000000000022b2c .LASF6811
     /tmp/ccNzw1my.s:93775  .debug_str:0000000000015c7c .LASF6812
     /tmp/ccNzw1my.s:97039  .debug_str:00000000000238d7 .LASF6813
     /tmp/ccNzw1my.s:107203  .debug_str:000000000004cf1f .LASF6814
     /tmp/ccNzw1my.s:95613  .debug_str:000000000001d830 .LASF6815
     /tmp/ccNzw1my.s:97041  .debug_str:00000000000238de .LASF6816
     /tmp/ccNzw1my.s:106605  .debug_str:000000000004a4e6 .LASF6817
     /tmp/ccNzw1my.s:101937  .debug_str:00000000000372dd .LASF6818
     /tmp/ccNzw1my.s:97043  .debug_str:00000000000238e5 .LASF6819
     /tmp/ccNzw1my.s:97801  .debug_str:0000000000026646 .LASF6820
     /tmp/ccNzw1my.s:105559  .debug_str:0000000000045e5a .LASF6821
     /tmp/ccNzw1my.s:97045  .debug_str:00000000000238ec .LASF6822
     /tmp/ccNzw1my.s:91701  .debug_str:000000000000ddb0 .LASF6823
     /tmp/ccNzw1my.s:103015  .debug_str:000000000003b658 .LASF6824
     /tmp/ccNzw1my.s:97047  .debug_str:00000000000238f3 .LASF6825
     /tmp/ccNzw1my.s:104741  .debug_str:0000000000042a0a .LASF6826
     /tmp/ccNzw1my.s:90271  .debug_str:0000000000007da8 .LASF6827
     /tmp/ccNzw1my.s:97103  .debug_str:0000000000023d65 .LASF6828
     /tmp/ccNzw1my.s:97823  .debug_str:00000000000267a6 .LASF6829
     /tmp/ccNzw1my.s:90273  .debug_str:0000000000007db7 .LASF6830
     /tmp/ccNzw1my.s:97105  .debug_str:0000000000023d6c .LASF6831
     /tmp/ccNzw1my.s:91729  .debug_str:000000000000df95 .LASF6832
     /tmp/ccNzw1my.s:90507  .debug_str:0000000000008dd4 .LASF6833
     /tmp/ccNzw1my.s:97107  .debug_str:0000000000023d73 .LASF6834
     /tmp/ccNzw1my.s:104765  .debug_str:0000000000042b70 .LASF6835
     /tmp/ccNzw1my.s:104821  .debug_str:0000000000042f09 .LASF6836
     /tmp/ccNzw1my.s:97109  .debug_str:0000000000023d7a .LASF6837
     /tmp/ccNzw1my.s:98821  .debug_str:000000000002a8a6 .LASF6838
     /tmp/ccNzw1my.s:104825  .debug_str:0000000000042f22 .LASF6839
     /tmp/ccNzw1my.s:97111  .debug_str:0000000000023d81 .LASF6840
     /tmp/ccNzw1my.s:92761  .debug_str:0000000000011c56 .LASF6841
     /tmp/ccNzw1my.s:94461  .debug_str:00000000000188d2 .LASF6842
     /tmp/ccNzw1my.s:97113  .debug_str:0000000000023d88 .LASF6843
     /tmp/ccNzw1my.s:105695  .debug_str:00000000000466e4 .LASF6844
     /tmp/ccNzw1my.s:90757  .debug_str:0000000000009ed9 .LASF6845
     /tmp/ccNzw1my.s:97115  .debug_str:0000000000023d8f .LASF6846
     /tmp/ccNzw1my.s:99763  .debug_str:000000000002e690 .LASF6847
     /tmp/ccNzw1my.s:90761  .debug_str:0000000000009eed .LASF6848
     /tmp/ccNzw1my.s:97117  .debug_str:0000000000023d96 .LASF6849
     /tmp/ccNzw1my.s:93703  .debug_str:0000000000015790 .LASF6850
     /tmp/ccNzw1my.s:103349  .debug_str:000000000003ccba .LASF6851
     /tmp/ccNzw1my.s:97119  .debug_str:0000000000023d9d .LASF6852
     /tmp/ccNzw1my.s:106627  .debug_str:000000000004a66c .LASF6853
     /tmp/ccNzw1my.s:101547  .debug_str:0000000000035ba0 .LASF6854
     /tmp/ccNzw1my.s:97121  .debug_str:0000000000023da4 .LASF6855
     /tmp/ccNzw1my.s:100691  .debug_str:000000000003238c .LASF6856
     /tmp/ccNzw1my.s:97099  .debug_str:0000000000023d4a .LASF6857
     /tmp/ccNzw1my.s:97195  .debug_str:0000000000024286 .LASF6858
     /tmp/ccNzw1my.s:90801  .debug_str:000000000000a177 .LASF6859
     /tmp/ccNzw1my.s:105313  .debug_str:0000000000044dec .LASF6860
     /tmp/ccNzw1my.s:97197  .debug_str:000000000002428d .LASF6861
     /tmp/ccNzw1my.s:97025  .debug_str:0000000000023886 .LASF6862
     /tmp/ccNzw1my.s:105315  .debug_str:0000000000044df7 .LASF6863
     /tmp/ccNzw1my.s:103743  .debug_str:000000000003e580 .LASF6864
     /tmp/ccNzw1my.s:103247  .debug_str:000000000003c5ae .LASF6865
     /tmp/ccNzw1my.s:105625  .debug_str:000000000004626c .LASF6866
     /tmp/ccNzw1my.s:97201  .debug_str:00000000000242c9 .LASF6867
     /tmp/ccNzw1my.s:94677  .debug_str:000000000001977b .LASF6868
     /tmp/ccNzw1my.s:89747  .debug_str:0000000000005af5 .LASF6869
     /tmp/ccNzw1my.s:97203  .debug_str:00000000000242d0 .LASF6870
     /tmp/ccNzw1my.s:88673  .debug_str:000000000000104e .LASF6871
     /tmp/ccNzw1my.s:99491  .debug_str:000000000002d459 .LASF6872
     /tmp/ccNzw1my.s:97205  .debug_str:00000000000242d7 .LASF6873
     /tmp/ccNzw1my.s:101647  .debug_str:00000000000361aa .LASF6874
     /tmp/ccNzw1my.s:90329  .debug_str:00000000000081ee .LASF6875
     /tmp/ccNzw1my.s:97207  .debug_str:00000000000242de .LASF6876
     /tmp/ccNzw1my.s:95593  .debug_str:000000000001d719 .LASF6877
     /tmp/ccNzw1my.s:100607  .debug_str:0000000000031ec1 .LASF6878
     /tmp/ccNzw1my.s:97209  .debug_str:00000000000242e5 .LASF6879
     /tmp/ccNzw1my.s:89581  .debug_str:0000000000004f41 .LASF6880
     /tmp/ccNzw1my.s:99377  .debug_str:000000000002cd2e .LASF6881
     /tmp/ccNzw1my.s:97211  .debug_str:00000000000242ec .LASF6882
     /tmp/ccNzw1my.s:102641  .debug_str:0000000000039c04 .LASF6883
     /tmp/ccNzw1my.s:99421  .debug_str:000000000002cfca .LASF6884
     /tmp/ccNzw1my.s:97213  .debug_str:00000000000242f3 .LASF6885
     /tmp/ccNzw1my.s:96587  .debug_str:0000000000021b44 .LASF6886
     /tmp/ccNzw1my.s:93871  .debug_str:00000000000162d3 .LASF6887
     /tmp/ccNzw1my.s:97287  .debug_str:00000000000246c6 .LASF6888
     /tmp/ccNzw1my.s:102309  .debug_str:00000000000385ff .LASF6889
     /tmp/ccNzw1my.s:93879  .debug_str:000000000001633e .LASF6890
     /tmp/ccNzw1my.s:97289  .debug_str:00000000000246cd .LASF6891
     /tmp/ccNzw1my.s:102663  .debug_str:0000000000039d77 .LASF6892
     /tmp/ccNzw1my.s:90397  .debug_str:0000000000008651 .LASF6893
     /tmp/ccNzw1my.s:97291  .debug_str:00000000000246d4 .LASF6894
     /tmp/ccNzw1my.s:96601  .debug_str:0000000000021c5c .LASF6895
     /tmp/ccNzw1my.s:101585  .debug_str:0000000000035e90 .LASF6896
     /tmp/ccNzw1my.s:97293  .debug_str:00000000000246db .LASF6897
     /tmp/ccNzw1my.s:90491  .debug_str:0000000000008cfe .LASF6898
     /tmp/ccNzw1my.s:106213  .debug_str:00000000000489e2 .LASF6899
     /tmp/ccNzw1my.s:97295  .debug_str:00000000000246e2 .LASF6900
     /tmp/ccNzw1my.s:93813  .debug_str:0000000000015e8c .LASF6901
     /tmp/ccNzw1my.s:99025  .debug_str:000000000002b675 .LASF6902
     /tmp/ccNzw1my.s:97297  .debug_str:00000000000246e9 .LASF6903
     /tmp/ccNzw1my.s:97541  .debug_str:00000000000254be .LASF6904
     /tmp/ccNzw1my.s:99027  .debug_str:000000000002b681 .LASF6905
     /tmp/ccNzw1my.s:97299  .debug_str:00000000000246f0 .LASF6906
     /tmp/ccNzw1my.s:91455  .debug_str:000000000000cf3e .LASF6907
     /tmp/ccNzw1my.s:99029  .debug_str:000000000002b68d .LASF6908
     /tmp/ccNzw1my.s:97301  .debug_str:00000000000246f7 .LASF6909
     /tmp/ccNzw1my.s:104505  .debug_str:0000000000041a7e .LASF6910
     /tmp/ccNzw1my.s:93921  .debug_str:00000000000165ed .LASF6911
     /tmp/ccNzw1my.s:97303  .debug_str:00000000000246fe .LASF6912
     /tmp/ccNzw1my.s:98553  .debug_str:000000000002976d .LASF6913
     /tmp/ccNzw1my.s:90089  .debug_str:0000000000007220 .LASF6914
     /tmp/ccNzw1my.s:97305  .debug_str:0000000000024705 .LASF6915
     /tmp/ccNzw1my.s:92447  .debug_str:000000000001079f .LASF6916
     /tmp/ccNzw1my.s:93925  .debug_str:0000000000016608 .LASF6917
     /tmp/ccNzw1my.s:97373  .debug_str:0000000000024b25 .LASF6918
     /tmp/ccNzw1my.s:104531  .debug_str:0000000000041c2a .LASF6919
     /tmp/ccNzw1my.s:97719  .debug_str:0000000000026067 .LASF6920
     /tmp/ccNzw1my.s:97375  .debug_str:0000000000024b2c .LASF6921
     /tmp/ccNzw1my.s:98573  .debug_str:0000000000029874 .LASF6922
     /tmp/ccNzw1my.s:100929  .debug_str:000000000003330f .LASF6923
     /tmp/ccNzw1my.s:97377  .debug_str:0000000000024b33 .LASF6924
     /tmp/ccNzw1my.s:92479  .debug_str:00000000000108cf .LASF6925
     /tmp/ccNzw1my.s:91621  .debug_str:000000000000d8c2 .LASF6926
     /tmp/ccNzw1my.s:97379  .debug_str:0000000000024b3a .LASF6927
     /tmp/ccNzw1my.s:105451  .debug_str:000000000004571f .LASF6928
     /tmp/ccNzw1my.s:98109  .debug_str:0000000000027b2d .LASF6929
     /tmp/ccNzw1my.s:97381  .debug_str:0000000000024b41 .LASF6930
     /tmp/ccNzw1my.s:90903  .debug_str:000000000000a895 .LASF6931
     /tmp/ccNzw1my.s:91625  .debug_str:000000000000d8f1 .LASF6932
     /tmp/ccNzw1my.s:97383  .debug_str:0000000000024b48 .LASF6933
     /tmp/ccNzw1my.s:100913  .debug_str:000000000003324b .LASF6934
     /tmp/ccNzw1my.s:107123  .debug_str:000000000004c9d8 .LASF6935
     /tmp/ccNzw1my.s:97385  .debug_str:0000000000024b4f .LASF6936
     /tmp/ccNzw1my.s:106385  .debug_str:0000000000049581 .LASF6937
     /tmp/ccNzw1my.s:107125  .debug_str:000000000004c9e2 .LASF6938
     /tmp/ccNzw1my.s:97387  .debug_str:0000000000024b56 .LASF6939
     /tmp/ccNzw1my.s:90483  .debug_str:0000000000008c64 .LASF6940
     /tmp/ccNzw1my.s:102407  .debug_str:0000000000038c95 .LASF6941
     /tmp/ccNzw1my.s:97389  .debug_str:0000000000024b5d .LASF6942
     /tmp/ccNzw1my.s:94397  .debug_str:000000000001849b .LASF6943
     /tmp/ccNzw1my.s:107129  .debug_str:000000000004ca1c .LASF6944
     /tmp/ccNzw1my.s:97391  .debug_str:0000000000024b64 .LASF6945
     /tmp/ccNzw1my.s:107337  .debug_str:000000000004d8c2 .LASF6946
     /tmp/ccNzw1my.s:92865  .debug_str:000000000001230f .LASF6947
     /tmp/ccNzw1my.s:97461  .debug_str:0000000000024fd3 .LASF6948
     /tmp/ccNzw1my.s:101341  .debug_str:0000000000034f16 .LASF6949
     /tmp/ccNzw1my.s:100707  .debug_str:00000000000324cc .LASF6950
     /tmp/ccNzw1my.s:91869  .debug_str:000000000000e75c .LASF6951
     /tmp/ccNzw1my.s:99819  .debug_str:000000000002ea4c .LASF6952
     /tmp/ccNzw1my.s:100709  .debug_str:00000000000324d8 .LASF6953
     /tmp/ccNzw1my.s:91873  .debug_str:000000000000e778 .LASF6954
     /tmp/ccNzw1my.s:93767  .debug_str:0000000000015bd9 .LASF6955
     /tmp/ccNzw1my.s:100711  .debug_str:00000000000324e4 .LASF6956
     /tmp/ccNzw1my.s:93215  .debug_str:00000000000139fe .LASF6957
     /tmp/ccNzw1my.s:106703  .debug_str:000000000004aad9 .LASF6958
     /tmp/ccNzw1my.s:103621  .debug_str:000000000003dd95 .LASF6959
     /tmp/ccNzw1my.s:93939  .debug_str:00000000000166c7 .LASF6960
     /tmp/ccNzw1my.s:96781  .debug_str:0000000000022812 .LASF6961
     /tmp/ccNzw1my.s:102807  .debug_str:000000000003a84e .LASF6962
     /tmp/ccNzw1my.s:102267  .debug_str:0000000000038309 .LASF6963
     /tmp/ccNzw1my.s:99945  .debug_str:000000000002f338 .LASF6964
     /tmp/ccNzw1my.s:91853  .debug_str:000000000000e678 .LASF6965
     /tmp/ccNzw1my.s:104529  .debug_str:0000000000041c04 .LASF6966
     /tmp/ccNzw1my.s:103755  .debug_str:000000000003e601 .LASF6967
     /tmp/ccNzw1my.s:91811  .debug_str:000000000000e436 .LASF6968
     /tmp/ccNzw1my.s:95683  .debug_str:000000000001dcf2 .LASF6969
     /tmp/ccNzw1my.s:95787  .debug_str:000000000001e424 .LASF6970
     /tmp/ccNzw1my.s:90185  .debug_str:00000000000077f7 .LASF6971
     /tmp/ccNzw1my.s:92827  .debug_str:0000000000012052 .LASF6972
     /tmp/ccNzw1my.s:103751  .debug_str:000000000003e5e3 .LASF6973
     /tmp/ccNzw1my.s:101035  .debug_str:0000000000033a2b .LASF6974
     /tmp/ccNzw1my.s:102599  .debug_str:0000000000039991 .LASF6975
     /tmp/ccNzw1my.s:104763  .debug_str:0000000000042b62 .LASF6976
     /tmp/ccNzw1my.s:97643  .debug_str:0000000000025c2c .LASF6977
     /tmp/ccNzw1my.s:95253  .debug_str:000000000001bfcf .LASF6978
     /tmp/ccNzw1my.s:98623  .debug_str:0000000000029c33 .LASF6979
     /tmp/ccNzw1my.s:100389  .debug_str:0000000000030fe9 .LASF6980
     /tmp/ccNzw1my.s:102499  .debug_str:00000000000392ba .LASF6981
     /tmp/ccNzw1my.s:91797  .debug_str:000000000000e328 .LASF6982
     /tmp/ccNzw1my.s:105569  .debug_str:0000000000045ef6 .LASF6983
     /tmp/ccNzw1my.s:104915  .debug_str:00000000000434b1 .LASF6984
     /tmp/ccNzw1my.s:96053  .debug_str:000000000001f7a5 .LASF6985
     /tmp/ccNzw1my.s:94611  .debug_str:000000000001930f .LASF6986
     /tmp/ccNzw1my.s:89493  .debug_str:0000000000004970 .LASF6987
     /tmp/ccNzw1my.s:91345  .debug_str:000000000000c7be .LASF6988
     /tmp/ccNzw1my.s:96237  .debug_str:0000000000020418 .LASF6989
     /tmp/ccNzw1my.s:104435  .debug_str:00000000000415b9 .LASF6990
     /tmp/ccNzw1my.s:89327  .debug_str:0000000000003d74 .LASF6991
     /tmp/ccNzw1my.s:103937  .debug_str:000000000003f356 .LASF6992
     /tmp/ccNzw1my.s:94851  .debug_str:000000000001a46c .LASF6993
     /tmp/ccNzw1my.s:103505  .debug_str:000000000003d639 .LASF6994
     /tmp/ccNzw1my.s:88987  .debug_str:000000000000263b .LASF6995
     /tmp/ccNzw1my.s:103123  .debug_str:000000000003bdad .LASF6996
     /tmp/ccNzw1my.s:92499  .debug_str:0000000000010a61 .LASF6997
     /tmp/ccNzw1my.s:100931  .debug_str:0000000000033317 .LASF6998
     /tmp/ccNzw1my.s:105601  .debug_str:0000000000046129 .LASF6999
     /tmp/ccNzw1my.s:102033  .debug_str:00000000000376c2 .LASF7000
     /tmp/ccNzw1my.s:89605  .debug_str:00000000000050bf .LASF7001
     /tmp/ccNzw1my.s:97857  .debug_str:0000000000026a57 .LASF7002
     /tmp/ccNzw1my.s:88475  .debug_str:00000000000002d1 .LASF7003
     /tmp/ccNzw1my.s:98625  .debug_str:0000000000029c5b .LASF7004
     /tmp/ccNzw1my.s:98345  .debug_str:0000000000028a7f .LASF7005
     /tmp/ccNzw1my.s:106053  .debug_str:0000000000047e7d .LASF7006
     /tmp/ccNzw1my.s:97925  .debug_str:0000000000026ebc .LASF7007
     /tmp/ccNzw1my.s:89775  .debug_str:0000000000005ce3 .LASF7008
     /tmp/ccNzw1my.s:104161  .debug_str:0000000000040302 .LASF7009
     /tmp/ccNzw1my.s:104119  .debug_str:000000000003ffac .LASF7010
     /tmp/ccNzw1my.s:91067  .debug_str:000000000000b48b .LASF7011
     /tmp/ccNzw1my.s:105851  .debug_str:000000000004721f .LASF7012
     /tmp/ccNzw1my.s:106517  .debug_str:0000000000049e6d .LASF7013
     /tmp/ccNzw1my.s:104055  .debug_str:000000000003fb5b .LASF7014
     /tmp/ccNzw1my.s:89699  .debug_str:00000000000057ee .LASF7015
     /tmp/ccNzw1my.s:93541  .debug_str:0000000000014d6b .LASF7016
     /tmp/ccNzw1my.s:90431  .debug_str:000000000000886c .LASF7017
     /tmp/ccNzw1my.s:100037  .debug_str:000000000002f917 .LASF7018
     /tmp/ccNzw1my.s:100953  .debug_str:000000000003343a .LASF7019
     /tmp/ccNzw1my.s:98851  .debug_str:000000000002aabb .LASF7020
     /tmp/ccNzw1my.s:98807  .debug_str:000000000002a789 .LASF7021
     /tmp/ccNzw1my.s:96591  .debug_str:0000000000021b7e .LASF7022
     /tmp/ccNzw1my.s:107343  .debug_str:000000000004d936 .LASF7023
     /tmp/ccNzw1my.s:102129  .debug_str:0000000000037bd1 .LASF7024
     /tmp/ccNzw1my.s:96575  .debug_str:0000000000021a72 .LASF7025
     /tmp/ccNzw1my.s:94341  .debug_str:00000000000180fb .LASF7026
     /tmp/ccNzw1my.s:102769  .debug_str:000000000003a5aa .LASF7027
     /tmp/ccNzw1my.s:91911  .debug_str:000000000000e86c .LASF7028
     /tmp/ccNzw1my.s:100377  .debug_str:0000000000030f52 .LASF7029
     /tmp/ccNzw1my.s:102131  .debug_str:0000000000037bd8 .LASF7030
     /tmp/ccNzw1my.s:90461  .debug_str:0000000000008ac8 .LASF7031
     /tmp/ccNzw1my.s:102937  .debug_str:000000000003b149 .LASF7032
     /tmp/ccNzw1my.s:100283  .debug_str:00000000000307e6 .LASF7033
     /tmp/ccNzw1my.s:101363  .debug_str:0000000000035080 .LASF7034
     /tmp/ccNzw1my.s:99397  .debug_str:000000000002ce34 .LASF7035
     /tmp/ccNzw1my.s:105103  .debug_str:00000000000440cb .LASF7036
     /tmp/ccNzw1my.s:99891  .debug_str:000000000002eeda .LASF7037
     /tmp/ccNzw1my.s:89261  .debug_str:0000000000003950 .LASF7038
     /tmp/ccNzw1my.s:105105  .debug_str:00000000000440d9 .LASF7039
     /tmp/ccNzw1my.s:93839  .debug_str:0000000000016040 .LASF7040
     /tmp/ccNzw1my.s:97747  .debug_str:0000000000026247 .LASF7041
     /tmp/ccNzw1my.s:105107  .debug_str:00000000000440e7 .LASF7042
     /tmp/ccNzw1my.s:106779  .debug_str:000000000004b110 .LASF7043
     /tmp/ccNzw1my.s:96819  .debug_str:0000000000022ac9 .LASF7044
     /tmp/ccNzw1my.s:102711  .debug_str:000000000003a129 .LASF7045
     /tmp/ccNzw1my.s:100829  .debug_str:0000000000032c0e .LASF7046
     /tmp/ccNzw1my.s:90645  .debug_str:00000000000097b4 .LASF7047
     /tmp/ccNzw1my.s:105111  .debug_str:0000000000044137 .LASF7048
     /tmp/ccNzw1my.s:94795  .debug_str:000000000001a080 .LASF7049
     /tmp/ccNzw1my.s:98351  .debug_str:0000000000028afa .LASF7050
     /tmp/ccNzw1my.s:105113  .debug_str:0000000000044145 .LASF7051
     /tmp/ccNzw1my.s:102433  .debug_str:0000000000038e83 .LASF7052
     /tmp/ccNzw1my.s:104261  .debug_str:000000000004093e .LASF7053
     /tmp/ccNzw1my.s:99575  .debug_str:000000000002d9a6 .LASF7054
     /tmp/ccNzw1my.s:99577  .debug_str:000000000002d9b8 .LASF7055
     /tmp/ccNzw1my.s:99581  .debug_str:000000000002d9f6 .LASF7056
     /tmp/ccNzw1my.s:102649  .debug_str:0000000000039c81 .LASF7057
     /tmp/ccNzw1my.s:105363  .debug_str:0000000000045105 .LASF7058
     /tmp/ccNzw1my.s:104269  .debug_str:00000000000409af .LASF7059
     /tmp/ccNzw1my.s:104271  .debug_str:00000000000409c1 .LASF7060
     /tmp/ccNzw1my.s:104273  .debug_str:00000000000409d3 .LASF7061
     /tmp/ccNzw1my.s:104275  .debug_str:00000000000409e5 .LASF7062
     /tmp/ccNzw1my.s:102651  .debug_str:0000000000039c90 .LASF7063
     /tmp/ccNzw1my.s:99429  .debug_str:000000000002d042 .LASF7064
     /tmp/ccNzw1my.s:101611  .debug_str:0000000000035f17 .LASF7065
     /tmp/ccNzw1my.s:105507  .debug_str:0000000000045b43 .LASF7066
     /tmp/ccNzw1my.s:97555  .debug_str:00000000000255fd .LASF7067
     /tmp/ccNzw1my.s:101353  .debug_str:0000000000034fd7 .LASF7068
     /tmp/ccNzw1my.s:102683  .debug_str:0000000000039f00 .LASF7069
     /tmp/ccNzw1my.s:105067  .debug_str:0000000000043e38 .LASF7070
     /tmp/ccNzw1my.s:103603  .debug_str:000000000003dc8d .LASF7071
     /tmp/ccNzw1my.s:100655  .debug_str:0000000000032115 .LASF7072
     /tmp/ccNzw1my.s:93761  .debug_str:0000000000015b60 .LASF7073
     /tmp/ccNzw1my.s:105075  .debug_str:0000000000043ec7 .LASF7074
     /tmp/ccNzw1my.s:88757  .debug_str:00000000000015dd .LASF7075
     /tmp/ccNzw1my.s:106071  .debug_str:0000000000047fba .LASF7076
     /tmp/ccNzw1my.s:103187  .debug_str:000000000003c1ba .LASF7077
     /tmp/ccNzw1my.s:88497  .debug_str:000000000000047e .LASF7078
     /tmp/ccNzw1my.s:98165  .debug_str:0000000000027f99 .LASF7079
     /tmp/ccNzw1my.s:90059  .debug_str:0000000000007036 .LASF7080
     /tmp/ccNzw1my.s:89905  .debug_str:00000000000064eb .LASF7081
     /tmp/ccNzw1my.s:99069  .debug_str:000000000002b938 .LASF7082
     /tmp/ccNzw1my.s:99071  .debug_str:000000000002b950 .LASF7083
     /tmp/ccNzw1my.s:99073  .debug_str:000000000002b968 .LASF7084
     /tmp/ccNzw1my.s:99075  .debug_str:000000000002b980 .LASF7085
     /tmp/ccNzw1my.s:104617  .debug_str:000000000004219b .LASF7086
     /tmp/ccNzw1my.s:107055  .debug_str:000000000004c536 .LASF7087
     /tmp/ccNzw1my.s:99077  .debug_str:000000000002b998 .LASF7088
     /tmp/ccNzw1my.s:92145  .debug_str:000000000000f630 .LASF7089
     /tmp/ccNzw1my.s:92147  .debug_str:000000000000f64e .LASF7090
     /tmp/ccNzw1my.s:92149  .debug_str:000000000000f66c .LASF7091
     /tmp/ccNzw1my.s:92151  .debug_str:000000000000f68a .LASF7092
     /tmp/ccNzw1my.s:92153  .debug_str:000000000000f6a8 .LASF7093
     /tmp/ccNzw1my.s:95893  .debug_str:000000000001eb4b .LASF7094
     /tmp/ccNzw1my.s:91841  .debug_str:000000000000e5d8 .LASF7095
     /tmp/ccNzw1my.s:95897  .debug_str:000000000001eb78 .LASF7096
     /tmp/ccNzw1my.s:95899  .debug_str:000000000001eb95 .LASF7097
     /tmp/ccNzw1my.s:95901  .debug_str:000000000001ebb2 .LASF7098
     /tmp/ccNzw1my.s:107229  .debug_str:000000000004d179 .LASF7099
     /tmp/ccNzw1my.s:107231  .debug_str:000000000004d193 .LASF7100
     /tmp/ccNzw1my.s:107233  .debug_str:000000000004d1ad .LASF7101
     /tmp/ccNzw1my.s:107235  .debug_str:000000000004d1c7 .LASF7102
     /tmp/ccNzw1my.s:107237  .debug_str:000000000004d1e1 .LASF7103
     /tmp/ccNzw1my.s:101783  .debug_str:00000000000369b7 .LASF7104
     /tmp/ccNzw1my.s:104001  .debug_str:000000000003f81e .LASF7105
     /tmp/ccNzw1my.s:104619  .debug_str:00000000000421b3 .LASF7106
     /tmp/ccNzw1my.s:103641  .debug_str:000000000003debc .LASF7107
     /tmp/ccNzw1my.s:101143  .debug_str:00000000000341f9 .LASF7108
     /tmp/ccNzw1my.s:90135  .debug_str:0000000000007526 .LASF7109
     /tmp/ccNzw1my.s:90137  .debug_str:0000000000007543 .LASF7110
     /tmp/ccNzw1my.s:101153  .debug_str:000000000003428a .LASF7111
     /tmp/ccNzw1my.s:101809  .debug_str:0000000000036b95 .LASF7112
     /tmp/ccNzw1my.s:98945  .debug_str:000000000002b0e7 .LASF7113
     /tmp/ccNzw1my.s:90141  .debug_str:00000000000075a0 .LASF7114
     /tmp/ccNzw1my.s:99285  .debug_str:000000000002c6ac .LASF7115
     /tmp/ccNzw1my.s:99287  .debug_str:000000000002c6cf .LASF7116
     /tmp/ccNzw1my.s:99289  .debug_str:000000000002c6f2 .LASF7117
     /tmp/ccNzw1my.s:99291  .debug_str:000000000002c715 .LASF7118
     /tmp/ccNzw1my.s:99293  .debug_str:000000000002c738 .LASF7119
     /tmp/ccNzw1my.s:96173  .debug_str:000000000001ff87 .LASF7120
     /tmp/ccNzw1my.s:96175  .debug_str:000000000001ffa9 .LASF7121
     /tmp/ccNzw1my.s:97251  .debug_str:00000000000244d7 .LASF7122
     /tmp/ccNzw1my.s:96179  .debug_str:000000000001ffdc .LASF7123
     /tmp/ccNzw1my.s:96181  .debug_str:000000000001fffe .LASF7124
     /tmp/ccNzw1my.s:98871  .debug_str:000000000002ac1a .LASF7125
     /tmp/ccNzw1my.s:98873  .debug_str:000000000002ac39 .LASF7126
     /tmp/ccNzw1my.s:98875  .debug_str:000000000002ac58 .LASF7127
     /tmp/ccNzw1my.s:105135  .debug_str:00000000000442b7 .LASF7128
     /tmp/ccNzw1my.s:98879  .debug_str:000000000002ac85 .LASF7129
     /tmp/ccNzw1my.s:98991  .debug_str:000000000002b3cd .LASF7130
     /tmp/ccNzw1my.s:104153  .debug_str:0000000000040252 .LASF7131
     /tmp/ccNzw1my.s:89047  .debug_str:0000000000002a86 .LASF7132
     /tmp/ccNzw1my.s:96155  .debug_str:000000000001fe98 .LASF7133
     /tmp/ccNzw1my.s:100743  .debug_str:0000000000032706 .LASF7134
     /tmp/ccNzw1my.s:100745  .debug_str:000000000003271e .LASF7135
     /tmp/ccNzw1my.s:100747  .debug_str:0000000000032736 .LASF7136
     /tmp/ccNzw1my.s:100749  .debug_str:000000000003274e .LASF7137
     /tmp/ccNzw1my.s:95365  .debug_str:000000000001c733 .LASF7138
     /tmp/ccNzw1my.s:94901  .debug_str:000000000001a753 .LASF7139
     /tmp/ccNzw1my.s:100751  .debug_str:0000000000032766 .LASF7140
     /tmp/ccNzw1my.s:93867  .debug_str:0000000000016297 .LASF7141
     /tmp/ccNzw1my.s:93869  .debug_str:00000000000162b5 .LASF7142
     /tmp/ccNzw1my.s:104239  .debug_str:0000000000040852 .LASF7143
     /tmp/ccNzw1my.s:93873  .debug_str:00000000000162de .LASF7144
     /tmp/ccNzw1my.s:93875  .debug_str:00000000000162fc .LASF7145
     /tmp/ccNzw1my.s:97585  .debug_str:000000000002583a .LASF7146
     /tmp/ccNzw1my.s:97587  .debug_str:0000000000025857 .LASF7147
     /tmp/ccNzw1my.s:97589  .debug_str:0000000000025874 .LASF7148
     /tmp/ccNzw1my.s:97591  .debug_str:0000000000025891 .LASF7149
     /tmp/ccNzw1my.s:97593  .debug_str:00000000000258ae .LASF7150
     /tmp/ccNzw1my.s:89957  .debug_str:0000000000006890 .LASF7151
     /tmp/ccNzw1my.s:89959  .debug_str:00000000000068aa .LASF7152
     /tmp/ccNzw1my.s:89961  .debug_str:00000000000068c4 .LASF7153
     /tmp/ccNzw1my.s:89963  .debug_str:00000000000068de .LASF7154
     /tmp/ccNzw1my.s:89965  .debug_str:00000000000068f8 .LASF7155
     /tmp/ccNzw1my.s:93285  .debug_str:0000000000013e47 .LASF7156
     /tmp/ccNzw1my.s:100959  .debug_str:00000000000334a8 .LASF7157
     /tmp/ccNzw1my.s:95369  .debug_str:000000000001c767 .LASF7158
     /tmp/ccNzw1my.s:88881  .debug_str:0000000000001e9c .LASF7159
     /tmp/ccNzw1my.s:92583  .debug_str:0000000000010f59 .LASF7160
     /tmp/ccNzw1my.s:92585  .debug_str:0000000000010f70 .LASF7161
     /tmp/ccNzw1my.s:92587  .debug_str:0000000000010f87 .LASF7162
     /tmp/ccNzw1my.s:106829  .debug_str:000000000004b571 .LASF7163
     /tmp/ccNzw1my.s:93369  .debug_str:00000000000142f6 .LASF7164
     /tmp/ccNzw1my.s:97141  .debug_str:0000000000023ebf .LASF7165
     /tmp/ccNzw1my.s:92591  .debug_str:0000000000010faf .LASF7166
     /tmp/ccNzw1my.s:103589  .debug_str:000000000003dbbd .LASF7167
     /tmp/ccNzw1my.s:103591  .debug_str:000000000003dbda .LASF7168
     /tmp/ccNzw1my.s:103593  .debug_str:000000000003dbf7 .LASF7169
     /tmp/ccNzw1my.s:103595  .debug_str:000000000003dc14 .LASF7170
     /tmp/ccNzw1my.s:103597  .debug_str:000000000003dc31 .LASF7171
     /tmp/ccNzw1my.s:93409  .debug_str:0000000000014523 .LASF7172
     /tmp/ccNzw1my.s:93411  .debug_str:000000000001453f .LASF7173
     /tmp/ccNzw1my.s:88981  .debug_str:00000000000025c9 .LASF7174
     /tmp/ccNzw1my.s:93415  .debug_str:000000000001458b .LASF7175
     /tmp/ccNzw1my.s:93417  .debug_str:00000000000145a7 .LASF7176
     /tmp/ccNzw1my.s:99273  .debug_str:000000000002c5f5 .LASF7177
     /tmp/ccNzw1my.s:99275  .debug_str:000000000002c60e .LASF7178
     /tmp/ccNzw1my.s:99277  .debug_str:000000000002c627 .LASF7179
     /tmp/ccNzw1my.s:99279  .debug_str:000000000002c640 .LASF7180
     /tmp/ccNzw1my.s:99281  .debug_str:000000000002c659 .LASF7181
     /tmp/ccNzw1my.s:100529  .debug_str:000000000003198d .LASF7182
     /tmp/ccNzw1my.s:102485  .debug_str:00000000000391d3 .LASF7183
     /tmp/ccNzw1my.s:93371  .debug_str:000000000001430d .LASF7184
     /tmp/ccNzw1my.s:94465  .debug_str:0000000000018911 .LASF7185
     /tmp/ccNzw1my.s:93445  .debug_str:0000000000014727 .LASF7186
     /tmp/ccNzw1my.s:93447  .debug_str:000000000001474a .LASF7187
     /tmp/ccNzw1my.s:93449  .debug_str:000000000001476d .LASF7188
     /tmp/ccNzw1my.s:93451  .debug_str:0000000000014790 .LASF7189
     /tmp/ccNzw1my.s:93453  .debug_str:00000000000147b3 .LASF7190
     /tmp/ccNzw1my.s:107097  .debug_str:000000000004c86a .LASF7191
     /tmp/ccNzw1my.s:104299  .debug_str:0000000000040b31 .LASF7192
     /tmp/ccNzw1my.s:105779  .debug_str:0000000000046d11 .LASF7193
     /tmp/ccNzw1my.s:104285  .debug_str:0000000000040a66 .LASF7194
     /tmp/ccNzw1my.s:104287  .debug_str:0000000000040a8a .LASF7195
     /tmp/ccNzw1my.s:104969  .debug_str:00000000000437bb .LASF7196
     /tmp/ccNzw1my.s:104973  .debug_str:0000000000043802 .LASF7197
     /tmp/ccNzw1my.s:104293  .debug_str:0000000000040acf .LASF7198
     /tmp/ccNzw1my.s:99739  .debug_str:000000000002e518 .LASF7199
     /tmp/ccNzw1my.s:107005  .debug_str:000000000004c1f5 .LASF7200
     /tmp/ccNzw1my.s:96061  .debug_str:000000000001f89a .LASF7201
     /tmp/ccNzw1my.s:91485  .debug_str:000000000000d123 .LASF7202
     /tmp/ccNzw1my.s:99173  .debug_str:000000000002bf25 .LASF7203
     /tmp/ccNzw1my.s:106459  .debug_str:0000000000049aa2 .LASF7204
     /tmp/ccNzw1my.s:99551  .debug_str:000000000002d88b .LASF7205
     /tmp/ccNzw1my.s:96073  .debug_str:000000000001f9cc .LASF7206
     /tmp/ccNzw1my.s:90107  .debug_str:0000000000007310 .LASF7207
     /tmp/ccNzw1my.s:101893  .debug_str:0000000000037075 .LASF7208
     /tmp/ccNzw1my.s:92067  .debug_str:000000000000f0eb .LASF7209
     /tmp/ccNzw1my.s:90881  .debug_str:000000000000a722 .LASF7210
     /tmp/ccNzw1my.s:95335  .debug_str:000000000001c4c5 .LASF7211
     /tmp/ccNzw1my.s:90723  .debug_str:0000000000009c98 .LASF7212
     /tmp/ccNzw1my.s:90199  .debug_str:0000000000007948 .LASF7213
     /tmp/ccNzw1my.s:98365  .debug_str:0000000000028bdc .LASF7214
     /tmp/ccNzw1my.s:105131  .debug_str:0000000000044288 .LASF7215
     /tmp/ccNzw1my.s:98931  .debug_str:000000000002afbd .LASF7216
     /tmp/ccNzw1my.s:96069  .debug_str:000000000001f993 .LASF7217
     /tmp/ccNzw1my.s:93857  .debug_str:00000000000161f2 .LASF7218
     /tmp/ccNzw1my.s:107303  .debug_str:000000000004d66a .LASF7219
     /tmp/ccNzw1my.s:91705  .debug_str:000000000000ddf6 .LASF7220
     /tmp/ccNzw1my.s:106659  .debug_str:000000000004a870 .LASF7221
     /tmp/ccNzw1my.s:106661  .debug_str:000000000004a88f .LASF7222
     /tmp/ccNzw1my.s:106663  .debug_str:000000000004a8ae .LASF7223
     /tmp/ccNzw1my.s:103727  .debug_str:000000000003e454 .LASF7224
     /tmp/ccNzw1my.s:95255  .debug_str:000000000001bfdd .LASF7225
     /tmp/ccNzw1my.s:94179  .debug_str:00000000000176d4 .LASF7226
     /tmp/ccNzw1my.s:106667  .debug_str:000000000004a8db .LASF7227
     /tmp/ccNzw1my.s:101981  .debug_str:0000000000037492 .LASF7228
     /tmp/ccNzw1my.s:101625  .debug_str:000000000003603d .LASF7229
     /tmp/ccNzw1my.s:97709  .debug_str:0000000000025fd6 .LASF7230
     /tmp/ccNzw1my.s:97711  .debug_str:0000000000025ff3 .LASF7231
     /tmp/ccNzw1my.s:97713  .debug_str:0000000000026010 .LASF7232
     /tmp/ccNzw1my.s:97715  .debug_str:000000000002602d .LASF7233
     /tmp/ccNzw1my.s:97717  .debug_str:000000000002604a .LASF7234
     /tmp/ccNzw1my.s:89255  .debug_str:00000000000038dd .LASF7235
     /tmp/ccNzw1my.s:106571  .debug_str:000000000004a20d .LASF7236
     /tmp/ccNzw1my.s:101209  .debug_str:0000000000034621 .LASF7237
     /tmp/ccNzw1my.s:99195  .debug_str:000000000002c081 .LASF7238
     /tmp/ccNzw1my.s:100933  .debug_str:0000000000033324 .LASF7239
     /tmp/ccNzw1my.s:88515  .debug_str:00000000000005f6 .LASF7240
     /tmp/ccNzw1my.s:102541  .debug_str:000000000003959a .LASF7241
     /tmp/ccNzw1my.s:101039  .debug_str:0000000000033a65 .LASF7242
     /tmp/ccNzw1my.s:101041  .debug_str:0000000000033a81 .LASF7243
     /tmp/ccNzw1my.s:101043  .debug_str:0000000000033a9d .LASF7244
     /tmp/ccNzw1my.s:101045  .debug_str:0000000000033ab9 .LASF7245
     /tmp/ccNzw1my.s:107293  .debug_str:000000000004d5c6 .LASF7246
     /tmp/ccNzw1my.s:98281  .debug_str:0000000000028656 .LASF7247
     /tmp/ccNzw1my.s:101047  .debug_str:0000000000033ad5 .LASF7248
     /tmp/ccNzw1my.s:98849  .debug_str:000000000002aaa4 .LASF7249
     /tmp/ccNzw1my.s:105679  .debug_str:00000000000465d0 .LASF7250
     /tmp/ccNzw1my.s:90419  .debug_str:00000000000087da .LASF7251
     /tmp/ccNzw1my.s:102701  .debug_str:000000000003a086 .LASF7252
     /tmp/ccNzw1my.s:106429  .debug_str:00000000000498ae .LASF7253
     /tmp/ccNzw1my.s:98287  .debug_str:00000000000286b6 .LASF7254
     /tmp/ccNzw1my.s:103611  .debug_str:000000000003dd07 .LASF7255
     /tmp/ccNzw1my.s:103529  .debug_str:000000000003d785 .LASF7256
     /tmp/ccNzw1my.s:96015  .debug_str:000000000001f492 .LASF7257
     /tmp/ccNzw1my.s:98027  .debug_str:0000000000027596 .LASF7258
     /tmp/ccNzw1my.s:93529  .debug_str:0000000000014cdb .LASF7259
     /tmp/ccNzw1my.s:98459  .debug_str:0000000000029202 .LASF7260
     /tmp/ccNzw1my.s:107259  .debug_str:000000000004d379 .LASF7261
     /tmp/ccNzw1my.s:94055  .debug_str:0000000000016f3a .LASF7262
     /tmp/ccNzw1my.s:100575  .debug_str:0000000000031ca7 .LASF7263
     /tmp/ccNzw1my.s:105029  .debug_str:0000000000043bb2 .LASF7264
     /tmp/ccNzw1my.s:89739  .debug_str:0000000000005a92 .LASF7265
     /tmp/ccNzw1my.s:107359  .debug_str:000000000004d9ff .LASF7266
     /tmp/ccNzw1my.s:91093  .debug_str:000000000000b680 .LASF7267
     /tmp/ccNzw1my.s:89289  .debug_str:0000000000003b39 .LASF7268
     /tmp/ccNzw1my.s:100417  .debug_str:00000000000311f9 .LASF7269
     /tmp/ccNzw1my.s:97571  .debug_str:0000000000025765 .LASF7270
     /tmp/ccNzw1my.s:90103  .debug_str:00000000000072c7 .LASF7271
     /tmp/ccNzw1my.s:93123  .debug_str:000000000001341e .LASF7272
     /tmp/ccNzw1my.s:90171  .debug_str:0000000000007747 .LASF7273
     /tmp/ccNzw1my.s:94441  .debug_str:0000000000018777 .LASF7274
     /tmp/ccNzw1my.s:106553  .debug_str:000000000004a0e5 .LASF7275
     /tmp/ccNzw1my.s:102631  .debug_str:0000000000039b7e .LASF7276
     /tmp/ccNzw1my.s:97471  .debug_str:000000000002505e .LASF7277
     /tmp/ccNzw1my.s:92939  .debug_str:00000000000127dc .LASF7278
     /tmp/ccNzw1my.s:93997  .debug_str:0000000000016ae5 .LASF7279
     /tmp/ccNzw1my.s:96845  .debug_str:0000000000022c43 .LASF7280
     /tmp/ccNzw1my.s:92539  .debug_str:0000000000010d54 .LASF7281
     /tmp/ccNzw1my.s:104537  .debug_str:0000000000041c96 .LASF7282
     /tmp/ccNzw1my.s:100019  .debug_str:000000000002f7c6 .LASF7283
     /tmp/ccNzw1my.s:95727  .debug_str:000000000001df8c .LASF7284
     /tmp/ccNzw1my.s:88765  .debug_str:0000000000001647 .LASF7285
     /tmp/ccNzw1my.s:102639  .debug_str:0000000000039bf9 .LASF7286
     /tmp/ccNzw1my.s:95567  .debug_str:000000000001d518 .LASF7287
     /tmp/ccNzw1my.s:91245  .debug_str:000000000000c0fc .LASF7288
     /tmp/ccNzw1my.s:100421  .debug_str:000000000003125e .LASF7289
     /tmp/ccNzw1my.s:101399  .debug_str:00000000000352d3 .LASF7290
     /tmp/ccNzw1my.s:96583  .debug_str:0000000000021b19 .LASF7291
     /tmp/ccNzw1my.s:99117  .debug_str:000000000002bbd2 .LASF7292
     /tmp/ccNzw1my.s:93647  .debug_str:00000000000154cc .LASF7293
     /tmp/ccNzw1my.s:98077  .debug_str:0000000000027901 .LASF7294
     /tmp/ccNzw1my.s:90683  .debug_str:0000000000009a2c .LASF7295
     /tmp/ccNzw1my.s:92129  .debug_str:000000000000f5ac .LASF7296
     /tmp/ccNzw1my.s:96259  .debug_str:000000000002056d .LASF7297
     /tmp/ccNzw1my.s:92125  .debug_str:000000000000f582 .LASF7298
     /tmp/ccNzw1my.s:96257  .debug_str:0000000000020554 .LASF7299
     /tmp/ccNzw1my.s:94753  .debug_str:0000000000019d41 .LASF7300
     /tmp/ccNzw1my.s:95843  .debug_str:000000000001e81d .LASF7301
     /tmp/ccNzw1my.s:105965  .debug_str:00000000000478df .LASF7302
     /tmp/ccNzw1my.s:94535  .debug_str:0000000000018def .LASF7303
     /tmp/ccNzw1my.s:93129  .debug_str:000000000001346c .LASF7304
     /tmp/ccNzw1my.s:91563  .debug_str:000000000000d5dc .LASF7305
     /tmp/ccNzw1my.s:92915  .debug_str:0000000000012638 .LASF7306
     /tmp/ccNzw1my.s:95249  .debug_str:000000000001bf90 .LASF7307
     /tmp/ccNzw1my.s:103713  .debug_str:000000000003e35e .LASF7308
     /tmp/ccNzw1my.s:103719  .debug_str:000000000003e3d0 .LASF7309
     /tmp/ccNzw1my.s:99233  .debug_str:000000000002c302 .LASF7310
     /tmp/ccNzw1my.s:91681  .debug_str:000000000000dca8 .LASF7311
     /tmp/ccNzw1my.s:93805  .debug_str:0000000000015dfc .LASF7312
     /tmp/ccNzw1my.s:100311  .debug_str:00000000000309d5 .LASF7313
     /tmp/ccNzw1my.s:106093  .debug_str:0000000000048164 .LASF7314
     /tmp/ccNzw1my.s:95805  .debug_str:000000000001e58c .LASF7315
     /tmp/ccNzw1my.s:97269  .debug_str:00000000000245ef .LASF7316
     /tmp/ccNzw1my.s:105155  .debug_str:00000000000443b8 .LASF7317
     /tmp/ccNzw1my.s:89821  .debug_str:0000000000005fb8 .LASF7318
     /tmp/ccNzw1my.s:105789  .debug_str:0000000000046dd8 .LASF7319
     /tmp/ccNzw1my.s:93329  .debug_str:00000000000140fc .LASF7320
     /tmp/ccNzw1my.s:103549  .debug_str:000000000003d8b9 .LASF7321
     /tmp/ccNzw1my.s:91543  .debug_str:000000000000d4a1 .LASF7322
     /tmp/ccNzw1my.s:97313  .debug_str:0000000000024770 .LASF7323
     /tmp/ccNzw1my.s:102763  .debug_str:000000000003a52c .LASF7324
     /tmp/ccNzw1my.s:100535  .debug_str:0000000000031a02 .LASF7325
     /tmp/ccNzw1my.s:99037  .debug_str:000000000002b727 .LASF7326
     /tmp/ccNzw1my.s:102251  .debug_str:0000000000038243 .LASF7327
     /tmp/ccNzw1my.s:89651  .debug_str:000000000000540b .LASF7328
     /tmp/ccNzw1my.s:101241  .debug_str:0000000000034822 .LASF7329
     /tmp/ccNzw1my.s:104149  .debug_str:000000000004021f .LASF7330
     /tmp/ccNzw1my.s:93897  .debug_str:0000000000016453 .LASF7331
     /tmp/ccNzw1my.s:92183  .debug_str:000000000000f8a3 .LASF7332
     /tmp/ccNzw1my.s:104731  .debug_str:000000000004294e .LASF7333
     /tmp/ccNzw1my.s:97883  .debug_str:0000000000026bdc .LASF7334
     /tmp/ccNzw1my.s:101727  .debug_str:00000000000366d2 .LASF7335
     /tmp/ccNzw1my.s:106189  .debug_str:00000000000487a1 .LASF7336
     /tmp/ccNzw1my.s:102055  .debug_str:000000000003783f .LASF7337
     /tmp/ccNzw1my.s:98773  .debug_str:000000000002a5a6 .LASF7338
     /tmp/ccNzw1my.s:89609  .debug_str:00000000000050ed .LASF7339
     /tmp/ccNzw1my.s:104071  .debug_str:000000000003fc5f .LASF7340
     /tmp/ccNzw1my.s:104887  .debug_str:00000000000432f2 .LASF7341
     /tmp/ccNzw1my.s:107029  .debug_str:000000000004c3dc .LASF7342
     /tmp/ccNzw1my.s:95807  .debug_str:000000000001e59a .LASF7343
     /tmp/ccNzw1my.s:97349  .debug_str:00000000000249a4 .LASF7344
     /tmp/ccNzw1my.s:88789  .debug_str:0000000000001851 .LASF7345
     /tmp/ccNzw1my.s:100779  .debug_str:0000000000032946 .LASF7346
     /tmp/ccNzw1my.s:89657  .debug_str:000000000000545a .LASF7347
     /tmp/ccNzw1my.s:89037  .debug_str:0000000000002a09 .LASF7348
     /tmp/ccNzw1my.s:97511  .debug_str:00000000000252d9 .LASF7349
     /tmp/ccNzw1my.s:90395  .debug_str:0000000000008638 .LASF7350
     /tmp/ccNzw1my.s:94245  .debug_str:0000000000017b5c .LASF7351
     /tmp/ccNzw1my.s:94311  .debug_str:0000000000017f3b .LASF7352
     /tmp/ccNzw1my.s:97023  .debug_str:0000000000023879 .LASF7353
     /tmp/ccNzw1my.s:98227  .debug_str:0000000000028277 .LASF7354
     /tmp/ccNzw1my.s:89213  .debug_str:0000000000003601 .LASF7355
     /tmp/ccNzw1my.s:94785  .debug_str:000000000001a00b .LASF7356
     /tmp/ccNzw1my.s:103503  .debug_str:000000000003d614 .LASF7357
     /tmp/ccNzw1my.s:92993  .debug_str:0000000000012c31 .LASF7358
     /tmp/ccNzw1my.s:104839  .debug_str:000000000004300a .LASF7359
     /tmp/ccNzw1my.s:92989  .debug_str:0000000000012c07 .LASF7360
     /tmp/ccNzw1my.s:104575  .debug_str:0000000000041eae .LASF7361
     /tmp/ccNzw1my.s:100073  .debug_str:000000000002fb25 .LASF7362
     /tmp/ccNzw1my.s:95277  .debug_str:000000000001c175 .LASF7363
     /tmp/ccNzw1my.s:100567  .debug_str:0000000000031c16 .LASF7364
     /tmp/ccNzw1my.s:103427  .debug_str:000000000003d0fa .LASF7365
     /tmp/ccNzw1my.s:102001  .debug_str:00000000000375cd .LASF7366
     /tmp/ccNzw1my.s:96277  .debug_str:00000000000206ff .LASF7367
     /tmp/ccNzw1my.s:98395  .debug_str:0000000000028dbd .LASF7368
     /tmp/ccNzw1my.s:105563  .debug_str:0000000000045e81 .LASF7369
     /tmp/ccNzw1my.s:101811  .debug_str:0000000000036bb2 .LASF7370
     /tmp/ccNzw1my.s:105573  .debug_str:0000000000045f22 .LASF7371
     /tmp/ccNzw1my.s:93455  .debug_str:00000000000147d6 .LASF7372
     /tmp/ccNzw1my.s:88593  .debug_str:0000000000000b0f .LASF7373
     /tmp/ccNzw1my.s:105359  .debug_str:00000000000450da .LASF7374
     /tmp/ccNzw1my.s:106477  .debug_str:0000000000049bb8 .LASF7375
     /tmp/ccNzw1my.s:103347  .debug_str:000000000003ccad .LASF7376
     /tmp/ccNzw1my.s:103837  .debug_str:000000000003ec0c .LASF7377
     /tmp/ccNzw1my.s:107167  .debug_str:000000000004cc75 .LASF7378
     /tmp/ccNzw1my.s:98823  .debug_str:000000000002a8c7 .LASF7379
     /tmp/ccNzw1my.s:106015  .debug_str:0000000000047c1d .LASF7380
     /tmp/ccNzw1my.s:93085  .debug_str:00000000000131c7 .LASF7381
     /tmp/ccNzw1my.s:90413  .debug_str:000000000000878d .LASF7382
     /tmp/ccNzw1my.s:107297  .debug_str:000000000004d5e4 .LASF7383
     /tmp/ccNzw1my.s:89497  .debug_str:00000000000049ab .LASF7384
     /tmp/ccNzw1my.s:101761  .debug_str:0000000000036967 .LASF7385
     /tmp/ccNzw1my.s:93943  .debug_str:000000000001671c .LASF7386
     /tmp/ccNzw1my.s:96125  .debug_str:000000000001fce8 .LASF7387
     /tmp/ccNzw1my.s:91637  .debug_str:000000000000d994 .LASF7388
     /tmp/ccNzw1my.s:91359  .debug_str:000000000000c8ef .LASF7389
     /tmp/ccNzw1my.s:97659  .debug_str:0000000000025d2b .LASF7390
     /tmp/ccNzw1my.s:99523  .debug_str:000000000002d6a0 .LASF7391
     /tmp/ccNzw1my.s:93707  .debug_str:00000000000157dc .LASF7392
     /tmp/ccNzw1my.s:96449  .debug_str:000000000002122a .LASF7393
     /tmp/ccNzw1my.s:98811  .debug_str:000000000002a7b3 .LASF7394
     /tmp/ccNzw1my.s:90979  .debug_str:000000000000adcf .LASF7395
     /tmp/ccNzw1my.s:97479  .debug_str:00000000000250db .LASF7396
     /tmp/ccNzw1my.s:97449  .debug_str:0000000000024f29 .LASF7397
     /tmp/ccNzw1my.s:97455  .debug_str:0000000000024f69 .LASF7398
     /tmp/ccNzw1my.s:90033  .debug_str:0000000000006e51 .LASF7399
     /tmp/ccNzw1my.s:99269  .debug_str:000000000002c5cb .LASF7400
     /tmp/ccNzw1my.s:99253  .debug_str:000000000002c446 .LASF7401
     /tmp/ccNzw1my.s:103629  .debug_str:000000000003de43 .LASF7402
     /tmp/ccNzw1my.s:89523  .debug_str:0000000000004baf .LASF7403
     /tmp/ccNzw1my.s:106331  .debug_str:00000000000491f6 .LASF7404
     /tmp/ccNzw1my.s:99829  .debug_str:000000000002eada .LASF7405
     /tmp/ccNzw1my.s:105951  .debug_str:000000000004780b .LASF7406
     /tmp/ccNzw1my.s:102467  .debug_str:00000000000390ef .LASF7407
     /tmp/ccNzw1my.s:91703  .debug_str:000000000000ddd1 .LASF7408
     /tmp/ccNzw1my.s:93275  .debug_str:0000000000013d8a .LASF7409
     /tmp/ccNzw1my.s:89723  .debug_str:000000000000599a .LASF7410
     /tmp/ccNzw1my.s:104351  .debug_str:0000000000040f18 .LASF7411
     /tmp/ccNzw1my.s:98469  .debug_str:00000000000292de .LASF7412
     /tmp/ccNzw1my.s:98471  .debug_str:00000000000292ec .LASF7413
     /tmp/ccNzw1my.s:98473  .debug_str:00000000000292fa .LASF7414
     /tmp/ccNzw1my.s:98475  .debug_str:0000000000029308 .LASF7415
     /tmp/ccNzw1my.s:98477  .debug_str:0000000000029316 .LASF7416
     /tmp/ccNzw1my.s:98479  .debug_str:0000000000029324 .LASF7417
     /tmp/ccNzw1my.s:98481  .debug_str:0000000000029332 .LASF7418
     /tmp/ccNzw1my.s:98483  .debug_str:0000000000029340 .LASF7419
     /tmp/ccNzw1my.s:98485  .debug_str:000000000002934e .LASF7420
     /tmp/ccNzw1my.s:98487  .debug_str:000000000002935c .LASF7421
     /tmp/ccNzw1my.s:106241  .debug_str:0000000000048bb1 .LASF7422
     /tmp/ccNzw1my.s:90999  .debug_str:000000000000afaf .LASF7423
     /tmp/ccNzw1my.s:101291  .debug_str:0000000000034bb0 .LASF7424
     /tmp/ccNzw1my.s:97053  .debug_str:0000000000023929 .LASF7425
     /tmp/ccNzw1my.s:89575  .debug_str:0000000000004f11 .LASF7426
     /tmp/ccNzw1my.s:104509  .debug_str:0000000000041ac8 .LASF7427
     /tmp/ccNzw1my.s:96457  .debug_str:00000000000212bf .LASF7428
     /tmp/ccNzw1my.s:93781  .debug_str:0000000000015caa .LASF7429
     /tmp/ccNzw1my.s:104519  .debug_str:0000000000041b37 .LASF7430
     /tmp/ccNzw1my.s:89459  .debug_str:00000000000046bf .LASF7431
     /tmp/ccNzw1my.s:88527  .debug_str:00000000000006bb .LASF7432
     /tmp/ccNzw1my.s:95677  .debug_str:000000000001dc6d .LASF7433
     /tmp/ccNzw1my.s:92335  .debug_str:0000000000010137 .LASF7434
     /tmp/ccNzw1my.s:106981  .debug_str:000000000004c04b .LASF7435
     /tmp/ccNzw1my.s:91125  .debug_str:000000000000b928 .LASF7436
     /tmp/ccNzw1my.s:98525  .debug_str:00000000000295b8 .LASF7437
     /tmp/ccNzw1my.s:101403  .debug_str:0000000000035300 .LASF7438
     /tmp/ccNzw1my.s:104963  .debug_str:000000000004378b .LASF7439
     /tmp/ccNzw1my.s:105427  .debug_str:0000000000045543 .LASF7440
     /tmp/ccNzw1my.s:94891  .debug_str:000000000001a6a6 .LASF7441
     /tmp/ccNzw1my.s:104965  .debug_str:000000000004379e .LASF7442
     /tmp/ccNzw1my.s:99505  .debug_str:000000000002d56a .LASF7443
     /tmp/ccNzw1my.s:94347  .debug_str:0000000000018129 .LASF7444
     /tmp/ccNzw1my.s:89555  .debug_str:0000000000004d68 .LASF7445
     /tmp/ccNzw1my.s:105179  .debug_str:0000000000044515 .LASF7446
     /tmp/ccNzw1my.s:94349  .debug_str:000000000001813b .LASF7447
     /tmp/ccNzw1my.s:101333  .debug_str:0000000000034e94 .LASF7448
     /tmp/ccNzw1my.s:99235  .debug_str:000000000002c30b .LASF7449
     /tmp/ccNzw1my.s:94351  .debug_str:000000000001814d .LASF7450
     /tmp/ccNzw1my.s:89559  .debug_str:0000000000004da6 .LASF7451
     /tmp/ccNzw1my.s:93161  .debug_str:00000000000136a6 .LASF7452
     /tmp/ccNzw1my.s:96663  .debug_str:0000000000022042 .LASF7453
     /tmp/ccNzw1my.s:94107  .debug_str:00000000000172e6 .LASF7454
     /tmp/ccNzw1my.s:106069  .debug_str:0000000000047f94 .LASF7455
     /tmp/ccNzw1my.s:92801  .debug_str:0000000000011f04 .LASF7456
     /tmp/ccNzw1my.s:106379  .debug_str:000000000004952c .LASF7457
     /tmp/ccNzw1my.s:90811  .debug_str:000000000000a255 .LASF7458
     /tmp/ccNzw1my.s:92803  .debug_str:0000000000011f16 .LASF7459
     /tmp/ccNzw1my.s:106971  .debug_str:000000000004bfc8 .LASF7460
     /tmp/ccNzw1my.s:103833  .debug_str:000000000003eba4 .LASF7461
     /tmp/ccNzw1my.s:92805  .debug_str:0000000000011f28 .LASF7462
     /tmp/ccNzw1my.s:106973  .debug_str:000000000004bfda .LASF7463
     /tmp/ccNzw1my.s:97871  .debug_str:0000000000026b08 .LASF7464
     /tmp/ccNzw1my.s:93723  .debug_str:00000000000158e0 .LASF7465
     /tmp/ccNzw1my.s:88579  .debug_str:0000000000000a21 .LASF7466
     /tmp/ccNzw1my.s:99299  .debug_str:000000000002c794 .LASF7467
     /tmp/ccNzw1my.s:101911  .debug_str:0000000000037154 .LASF7468
     /tmp/ccNzw1my.s:103219  .debug_str:000000000003c3de .LASF7469
     /tmp/ccNzw1my.s:100151  .debug_str:000000000002ff72 .LASF7470
     /tmp/ccNzw1my.s:93927  .debug_str:0000000000016612 .LASF7471
     /tmp/ccNzw1my.s:104739  .debug_str:00000000000429f4 .LASF7472
     /tmp/ccNzw1my.s:89063  .debug_str:0000000000002c02 .LASF7473
     /tmp/ccNzw1my.s:98983  .debug_str:000000000002b373 .LASF7474
     /tmp/ccNzw1my.s:90467  .debug_str:0000000000008b3b .LASF7475
     /tmp/ccNzw1my.s:93115  .debug_str:00000000000133ae .LASF7476
     /tmp/ccNzw1my.s:93945  .debug_str:0000000000016730 .LASF7477
     /tmp/ccNzw1my.s:100271  .debug_str:0000000000030704 .LASF7478
     /tmp/ccNzw1my.s:97443  .debug_str:0000000000024ec2 .LASF7479
     /tmp/ccNzw1my.s:104277  .debug_str:00000000000409f7 .LASF7480
     /tmp/ccNzw1my.s:88747  .debug_str:000000000000154f .LASF7481
     /tmp/ccNzw1my.s:107003  .debug_str:000000000004c1d5 .LASF7482
     /tmp/ccNzw1my.s:104289  .debug_str:0000000000040aae .LASF7483
     /tmp/ccNzw1my.s:96269  .debug_str:0000000000020652 .LASF7484
     /tmp/ccNzw1my.s:88763  .debug_str:0000000000001627 .LASF7485
     /tmp/ccNzw1my.s:97447  .debug_str:0000000000024f1d .LASF7486
     /tmp/ccNzw1my.s:89361  .debug_str:000000000000400e .LASF7487
     /tmp/ccNzw1my.s:99697  .debug_str:000000000002e270 .LASF7488
     /tmp/ccNzw1my.s:104851  .debug_str:000000000004310a .LASF7489
     /tmp/ccNzw1my.s:106353  .debug_str:0000000000049383 .LASF7490
     /tmp/ccNzw1my.s:90409  .debug_str:0000000000008747 .LASF7491
     /tmp/ccNzw1my.s:90931  .debug_str:000000000000aa54 .LASF7492
     /tmp/ccNzw1my.s:93667  .debug_str:00000000000155f7 .LASF7493
     /tmp/ccNzw1my.s:101559  .debug_str:0000000000035c7a .LASF7494
     /tmp/ccNzw1my.s:98179  .debug_str:000000000002805a .LASF7495
     /tmp/ccNzw1my.s:90357  .debug_str:00000000000083df .LASF7496
     /tmp/ccNzw1my.s:95789  .debug_str:000000000001e432 .LASF7497
     /tmp/ccNzw1my.s:93373  .debug_str:0000000000014324 .LASF7498
     /tmp/ccNzw1my.s:94211  .debug_str:0000000000017960 .LASF7499
     /tmp/ccNzw1my.s:105325  .debug_str:0000000000044e75 .LASF7500
     /tmp/ccNzw1my.s:88929  .debug_str:000000000000223c .LASF7501
     /tmp/ccNzw1my.s:107071  .debug_str:000000000004c678 .LASF7502
     /tmp/ccNzw1my.s:101731  .debug_str:000000000003671e .LASF7503
     /tmp/ccNzw1my.s:100755  .debug_str:000000000003279f .LASF7504
     /tmp/ccNzw1my.s:88717  .debug_str:0000000000001357 .LASF7505
     /tmp/ccNzw1my.s:96537  .debug_str:00000000000217c8 .LASF7506
     /tmp/ccNzw1my.s:102211  .debug_str:000000000003800e .LASF7507
     /tmp/ccNzw1my.s:101653  .debug_str:000000000003622b .LASF7508
     /tmp/ccNzw1my.s:105777  .debug_str:0000000000046ce9 .LASF7509
     /tmp/ccNzw1my.s:105529  .debug_str:0000000000045c80 .LASF7510
     /tmp/ccNzw1my.s:99761  .debug_str:000000000002e67a .LASF7511
     /tmp/ccNzw1my.s:94787  .debug_str:000000000001a016 .LASF7512
     /tmp/ccNzw1my.s:106115  .debug_str:000000000004826b .LASF7513
     /tmp/ccNzw1my.s:96623  .debug_str:0000000000021dbf .LASF7514
     /tmp/ccNzw1my.s:105827  .debug_str:000000000004709e .LASF7515
     /tmp/ccNzw1my.s:102581  .debug_str:00000000000398ab .LASF7516
     /tmp/ccNzw1my.s:102221  .debug_str:00000000000380ab .LASF7517
     /tmp/ccNzw1my.s:103031  .debug_str:000000000003b731 .LASF7518
     /tmp/ccNzw1my.s:94363  .debug_str:00000000000181f5 .LASF7519
     /tmp/ccNzw1my.s:97001  .debug_str:000000000002371e .LASF7520
     /tmp/ccNzw1my.s:97873  .debug_str:0000000000026b2e .LASF7521
     /tmp/ccNzw1my.s:92929  .debug_str:0000000000012725 .LASF7522
     /tmp/ccNzw1my.s:103153  .debug_str:000000000003bf8c .LASF7523
     /tmp/ccNzw1my.s:98947  .debug_str:000000000002b11e .LASF7524
     /tmp/ccNzw1my.s:100039  .debug_str:000000000002f923 .LASF7525
     /tmp/ccNzw1my.s:94139  .debug_str:00000000000174ac .LASF7526
     /tmp/ccNzw1my.s:105797  .debug_str:0000000000046e22 .LASF7527
     /tmp/ccNzw1my.s:97789  .debug_str:000000000002656d .LASF7528
     /tmp/ccNzw1my.s:92401  .debug_str:0000000000010431 .LASF7529
     /tmp/ccNzw1my.s:93991  .debug_str:0000000000016a91 .LASF7530
     /tmp/ccNzw1my.s:104139  .debug_str:0000000000040169 .LASF7531
     /tmp/ccNzw1my.s:89503  .debug_str:0000000000004a0b .LASF7532
     /tmp/ccNzw1my.s:93705  .debug_str:00000000000157b1 .LASF7533
     /tmp/ccNzw1my.s:91439  .debug_str:000000000000ce65 .LASF7534
     /tmp/ccNzw1my.s:106443  .debug_str:000000000004998c .LASF7535
     /tmp/ccNzw1my.s:102393  .debug_str:0000000000038b90 .LASF7536
     /tmp/ccNzw1my.s:96005  .debug_str:000000000001f3d1 .LASF7537
     /tmp/ccNzw1my.s:99795  .debug_str:000000000002e8f3 .LASF7538
     /tmp/ccNzw1my.s:96887  .debug_str:0000000000022ed1 .LASF7539
     /tmp/ccNzw1my.s:93651  .debug_str:00000000000154f9 .LASF7540
     /tmp/ccNzw1my.s:96327  .debug_str:0000000000020a39 .LASF7541
     /tmp/ccNzw1my.s:99393  .debug_str:000000000002cdff .LASF7542
     /tmp/ccNzw1my.s:88697  .debug_str:0000000000001205 .LASF7543
     /tmp/ccNzw1my.s:91657  .debug_str:000000000000db04 .LASF7544
     /tmp/ccNzw1my.s:104941  .debug_str:0000000000043660 .LASF7545
     /tmp/ccNzw1my.s:95163  .debug_str:000000000001b9b1 .LASF7546
     /tmp/ccNzw1my.s:102925  .debug_str:000000000003b05f .LASF7547
     /tmp/ccNzw1my.s:92903  .debug_str:0000000000012563 .LASF7548
     /tmp/ccNzw1my.s:100561  .debug_str:0000000000031bb3 .LASF7549
     /tmp/ccNzw1my.s:90085  .debug_str:0000000000007202 .LASF7550
     /tmp/ccNzw1my.s:94495  .debug_str:0000000000018b40 .LASF7551
     /tmp/ccNzw1my.s:98839  .debug_str:000000000002a9e4 .LASF7552
     /tmp/ccNzw1my.s:101287  .debug_str:0000000000034b6f .LASF7553
     /tmp/ccNzw1my.s:98257  .debug_str:00000000000284f5 .LASF7554
     /tmp/ccNzw1my.s:104677  .debug_str:000000000004257c .LASF7555
     /tmp/ccNzw1my.s:92663  .debug_str:0000000000011524 .LASF7556
     /tmp/ccNzw1my.s:99605  .debug_str:000000000002dc07 .LASF7557
     /tmp/ccNzw1my.s:93671  .debug_str:000000000001562b .LASF7558
     /tmp/ccNzw1my.s:104515  .debug_str:0000000000041b1f .LASF7559
     /tmp/ccNzw1my.s:104131  .debug_str:00000000000400b2 .LASF7560
     /tmp/ccNzw1my.s:98541  .debug_str:00000000000296e2 .LASF7561
     /tmp/ccNzw1my.s:106309  .debug_str:000000000004906a .LASF7562
     /tmp/ccNzw1my.s:93399  .debug_str:0000000000014423 .LASF7563
     /tmp/ccNzw1my.s:94093  .debug_str:00000000000171f5 .LASF7564
     /tmp/ccNzw1my.s:102943  .debug_str:000000000003b176 .LASF7565
     /tmp/ccNzw1my.s:105331  .debug_str:0000000000044ed8 .LASF7566
     /tmp/ccNzw1my.s:92241  .debug_str:000000000000fb4e .LASF7567
     /tmp/ccNzw1my.s:101199  .debug_str:000000000003457c .LASF7568
     /tmp/ccNzw1my.s:95513  .debug_str:000000000001d161 .LASF7569
     /tmp/ccNzw1my.s:99437  .debug_str:000000000002d0c9 .LASF7570
     /tmp/ccNzw1my.s:95949  .debug_str:000000000001efb4 .LASF7571
     /tmp/ccNzw1my.s:104827  .debug_str:0000000000042f31 .LASF7572
     /tmp/ccNzw1my.s:105175  .debug_str:00000000000444f7 .LASF7573
     /tmp/ccNzw1my.s:88689  .debug_str:00000000000011a8 .LASF7574
     /tmp/ccNzw1my.s:106339  .debug_str:0000000000049253 .LASF7575
     /tmp/ccNzw1my.s:107333  .debug_str:000000000004d8a3 .LASF7576
     /tmp/ccNzw1my.s:96987  .debug_str:000000000002363e .LASF7577
     /tmp/ccNzw1my.s:91863  .debug_str:000000000000e6fc .LASF7578
     /tmp/ccNzw1my.s:104559  .debug_str:0000000000041db0 .LASF7579
     /tmp/ccNzw1my.s:91769  .debug_str:000000000000e253 .LASF7580
     /tmp/ccNzw1my.s:88481  .debug_str:0000000000000326 .LASF7581
     /tmp/ccNzw1my.s:104551  .debug_str:0000000000041d5d .LASF7582
     /tmp/ccNzw1my.s:94435  .debug_str:0000000000018703 .LASF7583
     /tmp/ccNzw1my.s:92565  .debug_str:0000000000010e33 .LASF7584
     /tmp/ccNzw1my.s:94023  .debug_str:0000000000016ce5 .LASF7585
     /tmp/ccNzw1my.s:96423  .debug_str:00000000000210eb .LASF7586
     /tmp/ccNzw1my.s:94377  .debug_str:00000000000182e7 .LASF7587
     /tmp/ccNzw1my.s:95503  .debug_str:000000000001d0b6 .LASF7588
     /tmp/ccNzw1my.s:93739  .debug_str:00000000000159cf .LASF7589
     /tmp/ccNzw1my.s:102697  .debug_str:000000000003a027 .LASF7590
     /tmp/ccNzw1my.s:97767  .debug_str:0000000000026397 .LASF7591
     /tmp/ccNzw1my.s:100129  .debug_str:000000000002fe33 .LASF7592
     /tmp/ccNzw1my.s:104401  .debug_str:0000000000041295 .LASF7593
     /tmp/ccNzw1my.s:98699  .debug_str:000000000002a11e .LASF7594
     /tmp/ccNzw1my.s:104899  .debug_str:0000000000043380 .LASF7595
     /tmp/ccNzw1my.s:97677  .debug_str:0000000000025e69 .LASF7596
     /tmp/ccNzw1my.s:98689  .debug_str:000000000002a096 .LASF7597
     /tmp/ccNzw1my.s:104893  .debug_str:0000000000043344 .LASF7598
     /tmp/ccNzw1my.s:101819  .debug_str:0000000000036c28 .LASF7599
     /tmp/ccNzw1my.s:104665  .debug_str:00000000000424a8 .LASF7600
     /tmp/ccNzw1my.s:91877  .debug_str:000000000000e78a .LASF7601
     /tmp/ccNzw1my.s:95417  .debug_str:000000000001ca86 .LASF7602
     /tmp/ccNzw1my.s:104655  .debug_str:0000000000042449 .LASF7603
     /tmp/ccNzw1my.s:91875  .debug_str:000000000000e780 .LASF7604
     /tmp/ccNzw1my.s:93053  .debug_str:0000000000012fd0 .LASF7605
     /tmp/ccNzw1my.s:90631  .debug_str:0000000000009676 .LASF7606
     /tmp/ccNzw1my.s:88443  .debug_str:0000000000000085 .LASF7607
     /tmp/ccNzw1my.s:106291  .debug_str:0000000000048f4b .LASF7608
     /tmp/ccNzw1my.s:91587  .debug_str:000000000000d76e .LASF7609
     /tmp/ccNzw1my.s:91551  .debug_str:000000000000d505 .LASF7610
     /tmp/ccNzw1my.s:107241  .debug_str:000000000004d232 .LASF7611
     /tmp/ccNzw1my.s:95023  .debug_str:000000000001afe5 .LASF7612
     /tmp/ccNzw1my.s:89535  .debug_str:0000000000004c53 .LASF7613
     /tmp/ccNzw1my.s:94031  .debug_str:0000000000016d78 .LASF7614
     /tmp/ccNzw1my.s:101989  .debug_str:0000000000037509 .LASF7615
     /tmp/ccNzw1my.s:102789  .debug_str:000000000003a714 .LASF7616
     /tmp/ccNzw1my.s:102523  .debug_str:000000000003945f .LASF7617
     /tmp/ccNzw1my.s:91761  .debug_str:000000000000e1f3 .LASF7618
     /tmp/ccNzw1my.s:91575  .debug_str:000000000000d6a5 .LASF7619
     /tmp/ccNzw1my.s:96453  .debug_str:0000000000021281 .LASF7620
     /tmp/ccNzw1my.s:101997  .debug_str:0000000000037593 .LASF7621
     /tmp/ccNzw1my.s:102797  .debug_str:000000000003a7ad .LASF7622
     /tmp/ccNzw1my.s:103379  .debug_str:000000000003ce97 .LASF7623
     /tmp/ccNzw1my.s:91643  .debug_str:000000000000d9e3 .LASF7624
     /tmp/ccNzw1my.s:91145  .debug_str:000000000000ba5f .LASF7625
     /tmp/ccNzw1my.s:88751  .debug_str:000000000000156b .LASF7626
     /tmp/ccNzw1my.s:101575  .debug_str:0000000000035db2 .LASF7627
     /tmp/ccNzw1my.s:96215  .debug_str:000000000002028d .LASF7628
     /tmp/ccNzw1my.s:97645  .debug_str:0000000000025c32 .LASF7629
     /tmp/ccNzw1my.s:101577  .debug_str:0000000000035dca .LASF7630
     /tmp/ccNzw1my.s:96217  .debug_str:00000000000202a5 .LASF7631
     /tmp/ccNzw1my.s:103809  .debug_str:000000000003e998 .LASF7632
     /tmp/ccNzw1my.s:106741  .debug_str:000000000004add8 .LASF7633
     /tmp/ccNzw1my.s:94229  .debug_str:0000000000017a66 .LASF7634
     /tmp/ccNzw1my.s:99897  .debug_str:000000000002ef43 .LASF7635
     /tmp/ccNzw1my.s:106743  .debug_str:000000000004adf0 .LASF7636
     /tmp/ccNzw1my.s:94231  .debug_str:0000000000017a7e .LASF7637
     /tmp/ccNzw1my.s:93843  .debug_str:00000000000160ad .LASF7638
     /tmp/ccNzw1my.s:94041  .debug_str:0000000000016e1a .LASF7639
     /tmp/ccNzw1my.s:99493  .debug_str:000000000002d46d .LASF7640
     /tmp/ccNzw1my.s:92513  .debug_str:0000000000010b92 .LASF7641
     /tmp/ccNzw1my.s:92997  .debug_str:0000000000012c5e .LASF7642
     /tmp/ccNzw1my.s:99495  .debug_str:000000000002d485 .LASF7643
     /tmp/ccNzw1my.s:105485  .debug_str:000000000004599d .LASF7644
     /tmp/ccNzw1my.s:98221  .debug_str:000000000002821f .LASF7645
     /tmp/ccNzw1my.s:104621  .debug_str:00000000000421cb .LASF7646
     /tmp/ccNzw1my.s:104345  .debug_str:0000000000040ea8 .LASF7647
     /tmp/ccNzw1my.s:98223  .debug_str:0000000000028237 .LASF7648
     /tmp/ccNzw1my.s:104623  .debug_str:00000000000421e3 .LASF7649
     /tmp/ccNzw1my.s:90877  .debug_str:000000000000a6ba .LASF7650
     /tmp/ccNzw1my.s:103375  .debug_str:000000000003ce67 .LASF7651
     /tmp/ccNzw1my.s:99879  .debug_str:000000000002ee08 .LASF7652
     /tmp/ccNzw1my.s:97165  .debug_str:0000000000024059 .LASF7653
     /tmp/ccNzw1my.s:103377  .debug_str:000000000003ce7f .LASF7654
     /tmp/ccNzw1my.s:90783  .debug_str:000000000000a017 .LASF7655
     /tmp/ccNzw1my.s:91103  .debug_str:000000000000b7a0 .LASF7656
     /tmp/ccNzw1my.s:89591  .debug_str:0000000000004fd0 .LASF7657
     /tmp/ccNzw1my.s:96075  .debug_str:000000000001f9f4 .LASF7658
     /tmp/ccNzw1my.s:89851  .debug_str:0000000000006177 .LASF7659
     /tmp/ccNzw1my.s:89593  .debug_str:0000000000004fe8 .LASF7660
     /tmp/ccNzw1my.s:96077  .debug_str:000000000001fa0c .LASF7661
     /tmp/ccNzw1my.s:102889  .debug_str:000000000003ade2 .LASF7662
     /tmp/ccNzw1my.s:94815  .debug_str:000000000001a1db .LASF7663
     /tmp/ccNzw1my.s:101253  .debug_str:0000000000034909 .LASF7664
     /tmp/ccNzw1my.s:98299  .debug_str:0000000000028752 .LASF7665
     /tmp/ccNzw1my.s:94817  .debug_str:000000000001a1f3 .LASF7666
     /tmp/ccNzw1my.s:101255  .debug_str:0000000000034921 .LASF7667
     /tmp/ccNzw1my.s:95669  .debug_str:000000000001dbe0 .LASF7668
     /tmp/ccNzw1my.s:100043  .debug_str:000000000002f93f .LASF7669
     /tmp/ccNzw1my.s:106415  .debug_str:00000000000497bd .LASF7670
     /tmp/ccNzw1my.s:94541  .debug_str:0000000000018e62 .LASF7671
     /tmp/ccNzw1my.s:100045  .debug_str:000000000002f957 .LASF7672
     /tmp/ccNzw1my.s:106417  .debug_str:00000000000497d5 .LASF7673
     /tmp/ccNzw1my.s:88547  .debug_str:00000000000007e5 .LASF7674
     /tmp/ccNzw1my.s:105221  .debug_str:0000000000044771 .LASF7675
     /tmp/ccNzw1my.s:92681  .debug_str:000000000001166d .LASF7676
     /tmp/ccNzw1my.s:106133  .debug_str:0000000000048381 .LASF7677
     /tmp/ccNzw1my.s:105223  .debug_str:0000000000044789 .LASF7678
     /tmp/ccNzw1my.s:92683  .debug_str:0000000000011685 .LASF7679
     /tmp/ccNzw1my.s:100213  .debug_str:0000000000030394 .LASF7680
     /tmp/ccNzw1my.s:91367  .debug_str:000000000000c95d .LASF7681
     /tmp/ccNzw1my.s:91879  .debug_str:000000000000e794 .LASF7682
     /tmp/ccNzw1my.s:99093  .debug_str:000000000002ba66 .LASF7683
     /tmp/ccNzw1my.s:91369  .debug_str:000000000000c975 .LASF7684
     /tmp/ccNzw1my.s:94923  .debug_str:000000000001a8d0 .LASF7685
     /tmp/ccNzw1my.s:93025  .debug_str:0000000000012e70 .LASF7686
     /tmp/ccNzw1my.s:106875  .debug_str:000000000004b8f8 .LASF7687
     /tmp/ccNzw1my.s:92847  .debug_str:00000000000121d9 .LASF7688
     /tmp/ccNzw1my.s:95165  .debug_str:000000000001b9c9 .LASF7689
     /tmp/ccNzw1my.s:106877  .debug_str:000000000004b911 .LASF7690
     /tmp/ccNzw1my.s:92849  .debug_str:00000000000121f2 .LASF7691
     /tmp/ccNzw1my.s:89177  .debug_str:0000000000003422 .LASF7692
     /tmp/ccNzw1my.s:93125  .debug_str:000000000001343a .LASF7693
     /tmp/ccNzw1my.s:102515  .debug_str:00000000000393df .LASF7694
     /tmp/ccNzw1my.s:106967  .debug_str:000000000004bf7b .LASF7695
     /tmp/ccNzw1my.s:93127  .debug_str:0000000000013453 .LASF7696
     /tmp/ccNzw1my.s:98057  .debug_str:00000000000277b8 .LASF7697
     /tmp/ccNzw1my.s:91209  .debug_str:000000000000be81 .LASF7698
     /tmp/ccNzw1my.s:96401  .debug_str:0000000000020fc7 .LASF7699
     /tmp/ccNzw1my.s:103233  .debug_str:000000000003c4c5 .LASF7700
     /tmp/ccNzw1my.s:99875  .debug_str:000000000002edb1 .LASF7701
     /tmp/ccNzw1my.s:96403  .debug_str:0000000000020fe0 .LASF7702
     /tmp/ccNzw1my.s:103235  .debug_str:000000000003c4de .LASF7703
     /tmp/ccNzw1my.s:93819  .debug_str:0000000000015f32 .LASF7704
     /tmp/ccNzw1my.s:106755  .debug_str:000000000004aefc .LASF7705
     /tmp/ccNzw1my.s:89443  .debug_str:00000000000045d6 .LASF7706
     /tmp/ccNzw1my.s:92485  .debug_str:0000000000010939 .LASF7707
     /tmp/ccNzw1my.s:103511  .debug_str:000000000003d6a0 .LASF7708
     /tmp/ccNzw1my.s:89445  .debug_str:00000000000045ef .LASF7709
     /tmp/ccNzw1my.s:105455  .debug_str:000000000004574f .LASF7710
     /tmp/ccNzw1my.s:89725  .debug_str:00000000000059a5 .LASF7711
     /tmp/ccNzw1my.s:94671  .debug_str:0000000000019714 .LASF7712
     /tmp/ccNzw1my.s:104313  .debug_str:0000000000040c58 .LASF7713
     /tmp/ccNzw1my.s:89727  .debug_str:00000000000059be .LASF7714
     /tmp/ccNzw1my.s:103007  .debug_str:000000000003b5e4 .LASF7715
     /tmp/ccNzw1my.s:98353  .debug_str:0000000000028b15 .LASF7716
     /tmp/ccNzw1my.s:94965  .debug_str:000000000001ab34 .LASF7717
     /tmp/ccNzw1my.s:99905  .debug_str:000000000002efde .LASF7718
     /tmp/ccNzw1my.s:97137  .debug_str:0000000000023e87 .LASF7719
     /tmp/ccNzw1my.s:89603  .debug_str:00000000000050a6 .LASF7720
     /tmp/ccNzw1my.s:99907  .debug_str:000000000002eff7 .LASF7721
     /tmp/ccNzw1my.s:91073  .debug_str:000000000000b4f6 .LASF7722
     /tmp/ccNzw1my.s:101337  .debug_str:0000000000034ee8 .LASF7723
     /tmp/ccNzw1my.s:93951  .debug_str:000000000001676f .LASF7724
     /tmp/ccNzw1my.s:99917  .debug_str:000000000002f0de .LASF7725
     /tmp/ccNzw1my.s:100819  .debug_str:0000000000032bcb .LASF7726
     /tmp/ccNzw1my.s:90545  .debug_str:00000000000090b3 .LASF7727
     /tmp/ccNzw1my.s:100259  .debug_str:0000000000030651 .LASF7728
     /tmp/ccNzw1my.s:100821  .debug_str:0000000000032bd8 .LASF7729
     /tmp/ccNzw1my.s:92719  .debug_str:0000000000011932 .LASF7730
     /tmp/ccNzw1my.s:94219  .debug_str:00000000000179dc .LASF7731
     /tmp/ccNzw1my.s:100823  .debug_str:0000000000032be5 .LASF7732
     /tmp/ccNzw1my.s:90551  .debug_str:00000000000090f7 .LASF7733
     /tmp/ccNzw1my.s:101195  .debug_str:0000000000034543 .LASF7734
     /tmp/ccNzw1my.s:99415  .debug_str:000000000002cf7d .LASF7735
     /tmp/ccNzw1my.s:90031  .debug_str:0000000000006e45 .LASF7736
     /tmp/ccNzw1my.s:95279  .debug_str:000000000001c189 .LASF7737
     /tmp/ccNzw1my.s:103391  .debug_str:000000000003cf09 .LASF7738
     /tmp/ccNzw1my.s:95031  .debug_str:000000000001b071 .LASF7739
     /tmp/ccNzw1my.s:106423  .debug_str:000000000004984a .LASF7740
     /tmp/ccNzw1my.s:92639  .debug_str:000000000001137b .LASF7741
     /tmp/ccNzw1my.s:102669  .debug_str:0000000000039dea .LASF7742
     /tmp/ccNzw1my.s:93019  .debug_str:0000000000012e06 .LASF7743
     /tmp/ccNzw1my.s:101149  .debug_str:0000000000034250 .LASF7744
     /tmp/ccNzw1my.s:95217  .debug_str:000000000001bdb0 .LASF7745
     /tmp/ccNzw1my.s:88569  .debug_str:000000000000097b .LASF7746
     /tmp/ccNzw1my.s:96187  .debug_str:0000000000020062 .LASF7747
     /tmp/ccNzw1my.s:93435  .debug_str:00000000000146e9 .LASF7748
     /tmp/ccNzw1my.s:104999  .debug_str:00000000000439a0 .LASF7749
     /tmp/ccNzw1my.s:94063  .debug_str:0000000000016fb5 .LASF7750
     /tmp/ccNzw1my.s:98217  .debug_str:00000000000281f0 .LASF7751
     /tmp/ccNzw1my.s:103037  .debug_str:000000000003b77c .LASF7752
     /tmp/ccNzw1my.s:104459  .debug_str:00000000000417a2 .LASF7753
     /tmp/ccNzw1my.s:101031  .debug_str:00000000000339ce .LASF7754
     /tmp/ccNzw1my.s:101387  .debug_str:0000000000035215 .LASF7755
     /tmp/ccNzw1my.s:88867  .debug_str:0000000000001dbb .LASF7756
     /tmp/ccNzw1my.s:102545  .debug_str:00000000000395d7 .LASF7757
     /tmp/ccNzw1my.s:95433  .debug_str:000000000001cb9c .LASF7758
     /tmp/ccNzw1my.s:103995  .debug_str:000000000003f7f1 .LASF7759
     /tmp/ccNzw1my.s:107033  .debug_str:000000000004c3f9 .LASF7760
     /tmp/ccNzw1my.s:104069  .debug_str:000000000003fc3a .LASF7761
     /tmp/ccNzw1my.s:93257  .debug_str:0000000000013c75 .LASF7762
     /tmp/ccNzw1my.s:99181  .debug_str:000000000002bf98 .LASF7763
     /tmp/ccNzw1my.s:99099  .debug_str:000000000002baae .LASF7764
     /tmp/ccNzw1my.s:103499  .debug_str:000000000003d602 .LASF7765
     /tmp/ccNzw1my.s:99409  .debug_str:000000000002cf1a .LASF7766
     /tmp/ccNzw1my.s:100971  .debug_str:0000000000033579 .LASF7767
     /tmp/ccNzw1my.s:89223  .debug_str:00000000000036ad .LASF7768
     /tmp/ccNzw1my.s:99197  .debug_str:000000000002c095 .LASF7769
     /tmp/ccNzw1my.s:99017  .debug_str:000000000002b5a6 .LASF7770
     /tmp/ccNzw1my.s:95609  .debug_str:000000000001d80b .LASF7771
     /tmp/ccNzw1my.s:98657  .debug_str:0000000000029dbd .LASF7772
     /tmp/ccNzw1my.s:88595  .debug_str:0000000000000b20 .LASF7773
     /tmp/ccNzw1my.s:97485  .debug_str:0000000000025152 .LASF7774
     /tmp/ccNzw1my.s:100791  .debug_str:00000000000329dc .LASF7775
     /tmp/ccNzw1my.s:97929  .debug_str:0000000000026ee3 .LASF7776
     /tmp/ccNzw1my.s:94877  .debug_str:000000000001a5d1 .LASF7777
     /tmp/ccNzw1my.s:107335  .debug_str:000000000004d8b9 .LASF7778
     /tmp/ccNzw1my.s:96051  .debug_str:000000000001f788 .LASF7779
     /tmp/ccNzw1my.s:90883  .debug_str:000000000000a739 .LASF7780
     /tmp/ccNzw1my.s:100919  .debug_str:0000000000033297 .LASF7781
     /tmp/ccNzw1my.s:107339  .debug_str:000000000004d8e3 .LASF7782
     /tmp/ccNzw1my.s:90433  .debug_str:000000000000887e .LASF7783
     /tmp/ccNzw1my.s:90213  .debug_str:0000000000007a1f .LASF7784
     /tmp/ccNzw1my.s:96475  .debug_str:0000000000021448 .LASF7785
     /tmp/ccNzw1my.s:105927  .debug_str:00000000000476ed .LASF7786
     /tmp/ccNzw1my.s:92013  .debug_str:000000000000ee40 .LASF7787
     /tmp/ccNzw1my.s:100227  .debug_str:0000000000030482 .LASF7788
     /tmp/ccNzw1my.s:95907  .debug_str:000000000001ec26 .LASF7789
     /tmp/ccNzw1my.s:90225  .debug_str:0000000000007aca .LASF7790
     /tmp/ccNzw1my.s:94625  .debug_str:000000000001939a .LASF7791
     /tmp/ccNzw1my.s:93169  .debug_str:000000000001371f .LASF7792
     /tmp/ccNzw1my.s:106263  .debug_str:0000000000048d42 .LASF7793
     /tmp/ccNzw1my.s:102445  .debug_str:0000000000038f45 .LASF7794
     /tmp/ccNzw1my.s:107295  .debug_str:000000000004d5dc .LASF7795
     /tmp/ccNzw1my.s:91631  .debug_str:000000000000d943 .LASF7796
     /tmp/ccNzw1my.s:89409  .debug_str:00000000000043f1 .LASF7797
     /tmp/ccNzw1my.s:89485  .debug_str:00000000000048e9 .LASF7798
     /tmp/ccNzw1my.s:92885  .debug_str:000000000001243e .LASF7799
     /tmp/ccNzw1my.s:105885  .debug_str:0000000000047440 .LASF7800
     /tmp/ccNzw1my.s:92169  .debug_str:000000000000f7f8 .LASF7801
     /tmp/ccNzw1my.s:91699  .debug_str:000000000000dda9 .LASF7802
     /tmp/ccNzw1my.s:94183  .debug_str:0000000000017749 .LASF7803
     /tmp/ccNzw1my.s:92157  .debug_str:000000000000f6dd .LASF7804
     /tmp/ccNzw1my.s:102175  .debug_str:0000000000037ec1 .LASF7805
     /tmp/ccNzw1my.s:96419  .debug_str:00000000000210bb .LASF7806
     /tmp/ccNzw1my.s:101745  .debug_str:0000000000036828 .LASF7807
     /tmp/ccNzw1my.s:105101  .debug_str:00000000000440c3 .LASF7808
     /tmp/ccNzw1my.s:93173  .debug_str:0000000000013743 .LASF7809
     /tmp/ccNzw1my.s:88591  .debug_str:0000000000000b07 .LASF7810
     /tmp/ccNzw1my.s:107031  .debug_str:000000000004c3f1 .LASF7811
     /tmp/ccNzw1my.s:102225  .debug_str:00000000000380dd .LASF7812
     /tmp/ccNzw1my.s:96133  .debug_str:000000000001fd71 .LASF7813
     /tmp/ccNzw1my.s:93047  .debug_str:0000000000012f80 .LASF7814
     /tmp/ccNzw1my.s:99869  .debug_str:000000000002ed6f .LASF7815
     /tmp/ccNzw1my.s:106317  .debug_str:00000000000490fc .LASF7816
     /tmp/ccNzw1my.s:102601  .debug_str:00000000000399a8 .LASF7817
     /tmp/ccNzw1my.s:99749  .debug_str:000000000002e5a6 .LASF7818
     /tmp/ccNzw1my.s:96707  .debug_str:00000000000222fb .LASF7819
     /tmp/ccNzw1my.s:100107  .debug_str:000000000002fd20 .LASF7820
     /tmp/ccNzw1my.s:89791  .debug_str:0000000000005d9c .LASF7821
     /tmp/ccNzw1my.s:105437  .debug_str:00000000000455f1 .LASF7822
     /tmp/ccNzw1my.s:91123  .debug_str:000000000000b91f .LASF7823
     /tmp/ccNzw1my.s:101011  .debug_str:0000000000033884 .LASF7824
     /tmp/ccNzw1my.s:92677  .debug_str:000000000001162d .LASF7825
     /tmp/ccNzw1my.s:101801  .debug_str:0000000000036af0 .LASF7826
     /tmp/ccNzw1my.s:88653  .debug_str:0000000000000f12 .LASF7827
     /tmp/ccNzw1my.s:101871  .debug_str:0000000000036e94 .LASF7828
     /tmp/ccNzw1my.s:105203  .debug_str:000000000004464d .LASF7829
     /tmp/ccNzw1my.s:105539  .debug_str:0000000000045d18 .LASF7830
     /tmp/ccNzw1my.s:90967  .debug_str:000000000000ad4f .LASF7831
     /tmp/ccNzw1my.s:100997  .debug_str:000000000003376f .LASF7832
     /tmp/ccNzw1my.s:96311  .debug_str:000000000002093c .LASF7833
     /tmp/ccNzw1my.s:95573  .debug_str:000000000001d567 .LASF7834
     /tmp/ccNzw1my.s:104949  .debug_str:00000000000436db .LASF7835
     /tmp/ccNzw1my.s:88627  .debug_str:0000000000000d15 .LASF7836
     /tmp/ccNzw1my.s:97405  .debug_str:0000000000024be9 .LASF7837
     /tmp/ccNzw1my.s:102509  .debug_str:000000000003935a .LASF7838
     /tmp/ccNzw1my.s:106795  .debug_str:000000000004b289 .LASF7839
     /tmp/ccNzw1my.s:102061  .debug_str:0000000000037898 .LASF7840
     /tmp/ccNzw1my.s:95083  .debug_str:000000000001b43d .LASF7841
     /tmp/ccNzw1my.s:95679  .debug_str:000000000001dc8c .LASF7842
     /tmp/ccNzw1my.s:102647  .debug_str:0000000000039c6f .LASF7843
     /tmp/ccNzw1my.s:103831  .debug_str:000000000003eb92 .LASF7844
     /tmp/ccNzw1my.s:97065  .debug_str:0000000000023ac9 .LASF7845
     /tmp/ccNzw1my.s:91199  .debug_str:000000000000bde0 .LASF7846
     /tmp/ccNzw1my.s:94709  .debug_str:00000000000199f8 .LASF7847
     /tmp/ccNzw1my.s:97785  .debug_str:000000000002651b .LASF7848
     /tmp/ccNzw1my.s:95961  .debug_str:000000000001f0ab .LASF7849
     /tmp/ccNzw1my.s:98663  .debug_str:0000000000029e29 .LASF7850
     /tmp/ccNzw1my.s:93379  .debug_str:000000000001434d .LASF7851
     /tmp/ccNzw1my.s:106531  .debug_str:0000000000049f4e .LASF7852
     /tmp/ccNzw1my.s:102617  .debug_str:0000000000039aa0 .LASF7853
     /tmp/ccNzw1my.s:103789  .debug_str:000000000003e841 .LASF7854
     /tmp/ccNzw1my.s:95721  .debug_str:000000000001df0f .LASF7855
     /tmp/ccNzw1my.s:104011  .debug_str:000000000003f8ce .LASF7856
     /tmp/ccNzw1my.s:91741  .debug_str:000000000000e036 .LASF7857
     /tmp/ccNzw1my.s:91759  .debug_str:000000000000e1e1 .LASF7858
     /tmp/ccNzw1my.s:104773  .debug_str:0000000000042bef .LASF7859
     /tmp/ccNzw1my.s:90157  .debug_str:0000000000007670 .LASF7860
     /tmp/ccNzw1my.s:101465  .debug_str:00000000000356ff .LASF7861
     /tmp/ccNzw1my.s:104841  .debug_str:0000000000043021 .LASF7862
     /tmp/ccNzw1my.s:101309  .debug_str:0000000000034ca2 .LASF7863
     /tmp/ccNzw1my.s:90893  .debug_str:000000000000a7a8 .LASF7864
     /tmp/ccNzw1my.s:100927  .debug_str:0000000000033308 .LASF7865
     /tmp/ccNzw1my.s:97239  .debug_str:0000000000024402 .LASF7866
     /tmp/ccNzw1my.s:96719  .debug_str:00000000000223e3 .LASF7867
     /tmp/ccNzw1my.s:101083  .debug_str:0000000000033db8 .LASF7868
     /tmp/ccNzw1my.s:95099  .debug_str:000000000001b53c .LASF7869
     /tmp/ccNzw1my.s:94119  .debug_str:000000000001739f .LASF7870
     /tmp/ccNzw1my.s:93929  .debug_str:0000000000016628 .LASF7871
     /tmp/ccNzw1my.s:97627  .debug_str:0000000000025b0c .LASF7872
     /tmp/ccNzw1my.s:102615  .debug_str:0000000000039a98 .LASF7873
     /tmp/ccNzw1my.s:90217  .debug_str:0000000000007a47 .LASF7874
     /tmp/ccNzw1my.s:96893  .debug_str:0000000000022f1f .LASF7875
     /tmp/ccNzw1my.s:101189  .debug_str:00000000000344f7 .LASF7876
     /tmp/ccNzw1my.s:88703  .debug_str:000000000000127b .LASF7877
     /tmp/ccNzw1my.s:97539  .debug_str:000000000002549a .LASF7878
     /tmp/ccNzw1my.s:102257  .debug_str:00000000000382a7 .LASF7879
     /tmp/ccNzw1my.s:89483  .debug_str:00000000000048dd .LASF7880
     /tmp/ccNzw1my.s:102877  .debug_str:000000000003acc9 .LASF7881
     /tmp/ccNzw1my.s:100229  .debug_str:00000000000304a6 .LASF7882
     /tmp/ccNzw1my.s:97525  .debug_str:00000000000253c6 .LASF7883
     /tmp/ccNzw1my.s:94567  .debug_str:0000000000019005 .LASF7884
     /tmp/ccNzw1my.s:95295  .debug_str:000000000001c23d .LASF7885
     /tmp/ccNzw1my.s:101815  .debug_str:0000000000036bea .LASF7886
     /tmp/ccNzw1my.s:104875  .debug_str:0000000000043248 .LASF7887
     /tmp/ccNzw1my.s:106637  .debug_str:000000000004a753 .LASF7888
     /tmp/ccNzw1my.s:107199  .debug_str:000000000004ceef .LASF7889
     /tmp/ccNzw1my.s:97155  .debug_str:0000000000023fb0 .LASF7890
     /tmp/ccNzw1my.s:93923  .debug_str:00000000000165f7 .LASF7891
     /tmp/ccNzw1my.s:96177  .debug_str:000000000001ffcb .LASF7892
     /tmp/ccNzw1my.s:101627  .debug_str:0000000000036073 .LASF7893
     /tmp/ccNzw1my.s:98501  .debug_str:0000000000029459 .LASF7894
     /tmp/ccNzw1my.s:105185  .debug_str:0000000000044598 .LASF7895
     /tmp/ccNzw1my.s:99587  .debug_str:000000000002da65 .LASF7896
     /tmp/ccNzw1my.s:98503  .debug_str:000000000002946c .LASF7897
     /tmp/ccNzw1my.s:105187  .debug_str:00000000000445ab .LASF7898
     /tmp/ccNzw1my.s:95133  .debug_str:000000000001b800 .LASF7899
     /tmp/ccNzw1my.s:98505  .debug_str:000000000002947f .LASF7900
     /tmp/ccNzw1my.s:97861  .debug_str:0000000000026a74 .LASF7901
     /tmp/ccNzw1my.s:106445  .debug_str:0000000000049999 .LASF7902
     /tmp/ccNzw1my.s:97927  .debug_str:0000000000026ed0 .LASF7903
     /tmp/ccNzw1my.s:105191  .debug_str:00000000000445cb .LASF7904
     /tmp/ccNzw1my.s:100507  .debug_str:0000000000031802 .LASF7905
     /tmp/ccNzw1my.s:98509  .debug_str:00000000000294b3 .LASF7906
     /tmp/ccNzw1my.s:105193  .debug_str:00000000000445de .LASF7907
     /tmp/ccNzw1my.s:94469  .debug_str:000000000001894e .LASF7908
     /tmp/ccNzw1my.s:98511  .debug_str:00000000000294c6 .LASF7909
     /tmp/ccNzw1my.s:105195  .debug_str:00000000000445f1 .LASF7910
     /tmp/ccNzw1my.s:88471  .debug_str:0000000000000281 .LASF7911
     /tmp/ccNzw1my.s:98513  .debug_str:00000000000294d9 .LASF7912
     /tmp/ccNzw1my.s:105197  .debug_str:0000000000044604 .LASF7913
     /tmp/ccNzw1my.s:101429  .debug_str:000000000003545d .LASF7914
     /tmp/ccNzw1my.s:98515  .debug_str:00000000000294ec .LASF7915
     /tmp/ccNzw1my.s:105199  .debug_str:0000000000044617 .LASF7916
     /tmp/ccNzw1my.s:95419  .debug_str:000000000001caa4 .LASF7917
     /tmp/ccNzw1my.s:98749  .debug_str:000000000002a491 .LASF7918
     /tmp/ccNzw1my.s:95651  .debug_str:000000000001db25 .LASF7919
     /tmp/ccNzw1my.s:101433  .debug_str:00000000000354a5 .LASF7920
     /tmp/ccNzw1my.s:104855  .debug_str:0000000000043136 .LASF7921
     /tmp/ccNzw1my.s:95653  .debug_str:000000000001db38 .LASF7922
     /tmp/ccNzw1my.s:99405  .debug_str:000000000002cebd .LASF7923
     /tmp/ccNzw1my.s:88941  .debug_str:0000000000002312 .LASF7924
     /tmp/ccNzw1my.s:95655  .debug_str:000000000001db4b .LASF7925
     /tmp/ccNzw1my.s:93345  .debug_str:00000000000141d2 .LASF7926
     /tmp/ccNzw1my.s:88943  .debug_str:0000000000002325 .LASF7927
     /tmp/ccNzw1my.s:95657  .debug_str:000000000001db5e .LASF7928
     /tmp/ccNzw1my.s:106255  .debug_str:0000000000048cb2 .LASF7929
     /tmp/ccNzw1my.s:104863  .debug_str:0000000000043182 .LASF7930
     /tmp/ccNzw1my.s:95659  .debug_str:000000000001db71 .LASF7931
     /tmp/ccNzw1my.s:95153  .debug_str:000000000001b90e .LASF7932
     /tmp/ccNzw1my.s:88947  .debug_str:0000000000002378 .LASF7933
     /tmp/ccNzw1my.s:95661  .debug_str:000000000001db84 .LASF7934
     /tmp/ccNzw1my.s:94573  .debug_str:000000000001907b .LASF7935
     /tmp/ccNzw1my.s:88949  .debug_str:000000000000238b .LASF7936
     /tmp/ccNzw1my.s:95663  .debug_str:000000000001db97 .LASF7937
     /tmp/ccNzw1my.s:107225  .debug_str:000000000004d113 .LASF7938
     /tmp/ccNzw1my.s:88951  .debug_str:000000000000239e .LASF7939
     /tmp/ccNzw1my.s:95665  .debug_str:000000000001dbaa .LASF7940
     /tmp/ccNzw1my.s:101247  .debug_str:000000000003486b .LASF7941
     /tmp/ccNzw1my.s:106169  .debug_str:0000000000048606 .LASF7942
     /tmp/ccNzw1my.s:98417  .debug_str:0000000000028f4e .LASF7943
     /tmp/ccNzw1my.s:106287  .debug_str:0000000000048eff .LASF7944
     /tmp/ccNzw1my.s:96573  .debug_str:0000000000021a5f .LASF7945
     /tmp/ccNzw1my.s:88725  .debug_str:00000000000013e2 .LASF7946
     /tmp/ccNzw1my.s:93177  .debug_str:0000000000013774 .LASF7947
     /tmp/ccNzw1my.s:95393  .debug_str:000000000001c8f8 .LASF7948
     /tmp/ccNzw1my.s:100423  .debug_str:000000000003126f .LASF7949
     /tmp/ccNzw1my.s:99337  .debug_str:000000000002c9f4 .LASF7950
     /tmp/ccNzw1my.s:97083  .debug_str:0000000000023bd7 .LASF7951
     /tmp/ccNzw1my.s:102349  .debug_str:00000000000388b1 .LASF7952
     /tmp/ccNzw1my.s:106623  .debug_str:000000000004a62f .LASF7953
     /tmp/ccNzw1my.s:97395  .debug_str:0000000000024b81 .LASF7954
     /tmp/ccNzw1my.s:94353  .debug_str:000000000001815f .LASF7955
     /tmp/ccNzw1my.s:90287  .debug_str:0000000000007eb2 .LASF7956
     /tmp/ccNzw1my.s:100961  .debug_str:00000000000334bf .LASF7957
     /tmp/ccNzw1my.s:107159  .debug_str:000000000004cbf8 .LASF7958
     /tmp/ccNzw1my.s:90665  .debug_str:0000000000009913 .LASF7959
     /tmp/ccNzw1my.s:101519  .debug_str:00000000000359f3 .LASF7960
     /tmp/ccNzw1my.s:100361  .debug_str:0000000000030e23 .LASF7961
     /tmp/ccNzw1my.s:89757  .debug_str:0000000000005b6c .LASF7962
     /tmp/ccNzw1my.s:103481  .debug_str:000000000003d4b4 .LASF7963
     /tmp/ccNzw1my.s:99687  .debug_str:000000000002e1ee .LASF7964
     /tmp/ccNzw1my.s:92709  .debug_str:0000000000011848 .LASF7965
     /tmp/ccNzw1my.s:101237  .debug_str:0000000000034805 .LASF7966
     /tmp/ccNzw1my.s:104589  .debug_str:0000000000041f9b .LASF7967
     /tmp/ccNzw1my.s:95465  .debug_str:000000000001ce35 .LASF7968
     /tmp/ccNzw1my.s:106475  .debug_str:0000000000049bb1 .LASF7969
     /tmp/ccNzw1my.s:102671  .debug_str:0000000000039e05 .LASF7970
     /tmp/ccNzw1my.s:89561  .debug_str:0000000000004db8 .LASF7971
     /tmp/ccNzw1my.s:104823  .debug_str:0000000000042f18 .LASF7972
     /tmp/ccNzw1my.s:89579  .debug_str:0000000000004f37 .LASF7973
     /tmp/ccNzw1my.s:104377  .debug_str:0000000000041149 .LASF7974
     /tmp/ccNzw1my.s:101609  .debug_str:0000000000035f0f .LASF7975
     /tmp/ccNzw1my.s:104983  .debug_str:00000000000438c0 .LASF7976
     /tmp/ccNzw1my.s:98897  .debug_str:000000000002adc8 .LASF7977
     /tmp/ccNzw1my.s:92843  .debug_str:00000000000121a3 .LASF7978
     /tmp/ccNzw1my.s:105401  .debug_str:000000000004535d .LASF7979
     /tmp/ccNzw1my.s:96745  .debug_str:000000000002257b .LASF7980
     /tmp/ccNzw1my.s:92319  .debug_str:0000000000010018 .LASF7981
     /tmp/ccNzw1my.s:91089  .debug_str:000000000000b64a .LASF7982
     /tmp/ccNzw1my.s:105891  .debug_str:000000000004748e .LASF7983
     /tmp/ccNzw1my.s:106641  .debug_str:000000000004a778 .LASF7984
     /tmp/ccNzw1my.s:90753  .debug_str:0000000000009ebc .LASF7985
     /tmp/ccNzw1my.s:91525  .debug_str:000000000000d388 .LASF7986
     /tmp/ccNzw1my.s:96295  .debug_str:0000000000020857 .LASF7987
     /tmp/ccNzw1my.s:92669  .debug_str:0000000000011589 .LASF7988
     /tmp/ccNzw1my.s:104173  .debug_str:00000000000403c1 .LASF7989
     /tmp/ccNzw1my.s:91679  .debug_str:000000000000dc9d .LASF7990
     /tmp/ccNzw1my.s:105551  .debug_str:0000000000045df6 .LASF7991
     /tmp/ccNzw1my.s:88585  .debug_str:0000000000000ab8 .LASF7992
     /tmp/ccNzw1my.s:90845  .debug_str:000000000000a4aa .LASF7993
     /tmp/ccNzw1my.s:105497  .debug_str:0000000000045a86 .LASF7994
     /tmp/ccNzw1my.s:103435  .debug_str:000000000003d168 .LASF7995
     /tmp/ccNzw1my.s:97817  .debug_str:0000000000026755 .LASF7996
     /tmp/ccNzw1my.s:89539  .debug_str:0000000000004c8b .LASF7997
     /tmp/ccNzw1my.s:105419  .debug_str:0000000000045488 .LASF7998
     /tmp/ccNzw1my.s:94731  .debug_str:0000000000019b3a .LASF7999
     /tmp/ccNzw1my.s:98115  .debug_str:0000000000027b9c .LASF8000
     /tmp/ccNzw1my.s:95775  .debug_str:000000000001e348 .LASF8001
     /tmp/ccNzw1my.s:88567  .debug_str:000000000000096b .LASF8002
     /tmp/ccNzw1my.s:89317  .debug_str:0000000000003cc1 .LASF8003
     /tmp/ccNzw1my.s:98597  .debug_str:0000000000029a8b .LASF8004
     /tmp/ccNzw1my.s:105609  .debug_str:0000000000046180 .LASF8005
     /tmp/ccNzw1my.s:97173  .debug_str:00000000000240e8 .LASF8006
     /tmp/ccNzw1my.s:89077  .debug_str:0000000000002cc8 .LASF8007
     /tmp/ccNzw1my.s:92777  .debug_str:0000000000011d41 .LASF8008
     /tmp/ccNzw1my.s:99459  .debug_str:000000000002d29c .LASF8009
     /tmp/ccNzw1my.s:94659  .debug_str:0000000000019639 .LASF8010
     /tmp/ccNzw1my.s:93629  .debug_str:00000000000153cf .LASF8011
     /tmp/ccNzw1my.s:102625  .debug_str:0000000000039b10 .LASF8012
     /tmp/ccNzw1my.s:106303  .debug_str:0000000000049025 .LASF8013
     /tmp/ccNzw1my.s:97399  .debug_str:0000000000024b9f .LASF8014
     /tmp/ccNzw1my.s:91423  .debug_str:000000000000cd2b .LASF8015
     /tmp/ccNzw1my.s:100601  .debug_str:0000000000031e57 .LASF8016
     /tmp/ccNzw1my.s:98639  .debug_str:0000000000029cff .LASF8017
     /tmp/ccNzw1my.s:99053  .debug_str:000000000002b864 .LASF8018
     /tmp/ccNzw1my.s:103157  .debug_str:000000000003bfe6 .LASF8019
     /tmp/ccNzw1my.s:101515  .debug_str:00000000000359bc .LASF8020
     /tmp/ccNzw1my.s:97187  .debug_str:00000000000241bb .LASF8021
     /tmp/ccNzw1my.s:97749  .debug_str:0000000000026262 .LASF8022
     /tmp/ccNzw1my.s:99995  .debug_str:000000000002f660 .LASF8023
     /tmp/ccNzw1my.s:90727  .debug_str:0000000000009cd2 .LASF8024
     /tmp/ccNzw1my.s:102005  .debug_str:00000000000375f4 .LASF8025
     /tmp/ccNzw1my.s:93185  .debug_str:00000000000137eb .LASF8026
     /tmp/ccNzw1my.s:93493  .debug_str:0000000000014a9f .LASF8027
     /tmp/ccNzw1my.s:95257  .debug_str:000000000001bff9 .LASF8028
     /tmp/ccNzw1my.s:94789  .debug_str:000000000001a040 .LASF8029
     /tmp/ccNzw1my.s:95095  .debug_str:000000000001b503 .LASF8030
     /tmp/ccNzw1my.s:90133  .debug_str:00000000000074f7 .LASF8031
     /tmp/ccNzw1my.s:92175  .debug_str:000000000000f838 .LASF8032
     /tmp/ccNzw1my.s:105435  .debug_str:00000000000455e3 .LASF8033
     /tmp/ccNzw1my.s:92689  .debug_str:0000000000011700 .LASF8034
     /tmp/ccNzw1my.s:93777  .debug_str:0000000000015c8d .LASF8035
     /tmp/ccNzw1my.s:96151  .debug_str:000000000001fe49 .LASF8036
     /tmp/ccNzw1my.s:93163  .debug_str:00000000000136cc .LASF8037
     /tmp/ccNzw1my.s:90359  .debug_str:00000000000083ea .LASF8038
     /tmp/ccNzw1my.s:98653  .debug_str:0000000000029d8d .LASF8039
     /tmp/ccNzw1my.s:100341  .debug_str:0000000000030c43 .LASF8040
     /tmp/ccNzw1my.s:92595  .debug_str:0000000000010fe0 .LASF8041
     /tmp/ccNzw1my.s:89211  .debug_str:00000000000035f3 .LASF8042
     /tmp/ccNzw1my.s:98089  .debug_str:00000000000279cb .LASF8043
     /tmp/ccNzw1my.s:106753  .debug_str:000000000004aeef .LASF8044
     /tmp/ccNzw1my.s:89969  .debug_str:0000000000006930 .LASF8045
     /tmp/ccNzw1my.s:97989  .debug_str:00000000000272bf .LASF8046
     /tmp/ccNzw1my.s:91211  .debug_str:000000000000beae .LASF8047
     /tmp/ccNzw1my.s:100887  .debug_str:000000000003301e .LASF8048
     /tmp/ccNzw1my.s:99297  .debug_str:000000000002c770 .LASF8049
     /tmp/ccNzw1my.s:95871  .debug_str:000000000001ea34 .LASF8050
     /tmp/ccNzw1my.s:105411  .debug_str:00000000000453de .LASF8051
     /tmp/ccNzw1my.s:103667  .debug_str:000000000003e071 .LASF8052
     /tmp/ccNzw1my.s:106439  .debug_str:0000000000049967 .LASF8053
     /tmp/ccNzw1my.s:100025  .debug_str:000000000002f838 .LASF8054
     /tmp/ccNzw1my.s:94197  .debug_str:000000000001787e .LASF8055
     /tmp/ccNzw1my.s:92371  .debug_str:00000000000102e5 .LASF8056
     /tmp/ccNzw1my.s:95991  .debug_str:000000000001f2bd .LASF8057
     /tmp/ccNzw1my.s:102759  .debug_str:000000000003a4cf .LASF8058
     /tmp/ccNzw1my.s:95455  .debug_str:000000000001cd89 .LASF8059
     /tmp/ccNzw1my.s:91203  .debug_str:000000000000be10 .LASF8060
     /tmp/ccNzw1my.s:93837  .debug_str:0000000000016014 .LASF8061
     /tmp/ccNzw1my.s:104209  .debug_str:0000000000040687 .LASF8062
     /tmp/ccNzw1my.s:97371  .debug_str:0000000000024b0f .LASF8063
     /tmp/ccNzw1my.s:89343  .debug_str:0000000000003eb6 .LASF8064
     /tmp/ccNzw1my.s:94621  .debug_str:000000000001935d .LASF8065
     /tmp/ccNzw1my.s:106861  .debug_str:000000000004b7e5 .LASF8066
     /tmp/ccNzw1my.s:89237  .debug_str:00000000000037a4 .LASF8067
     /tmp/ccNzw1my.s:98757  .debug_str:000000000002a51f .LASF8068
     /tmp/ccNzw1my.s:91947  .debug_str:000000000000ea97 .LASF8069
     /tmp/ccNzw1my.s:100199  .debug_str:00000000000302fc .LASF8070
     /tmp/ccNzw1my.s:101487  .debug_str:0000000000035857 .LASF8071
     /tmp/ccNzw1my.s:104861  .debug_str:000000000004317a .LASF8072
     /tmp/ccNzw1my.s:94145  .debug_str:00000000000174f3 .LASF8073
     /tmp/ccNzw1my.s:101495  .debug_str:00000000000358bc .LASF8074
     /tmp/ccNzw1my.s:104869  .debug_str:00000000000431f1 .LASF8075
     /tmp/ccNzw1my.s:105059  .debug_str:0000000000043de0 .LASF8076
     /tmp/ccNzw1my.s:103699  .debug_str:000000000003e27e .LASF8077
     /tmp/ccNzw1my.s:100101  .debug_str:000000000002fcd9 .LASF8078
     /tmp/ccNzw1my.s:98273  .debug_str:00000000000285df .LASF8079
     /tmp/ccNzw1my.s:106307  .debug_str:0000000000049063 .LASF8080
     /tmp/ccNzw1my.s:102597  .debug_str:000000000003998a .LASF8081
     /tmp/ccNzw1my.s:97805  .debug_str:000000000002667a .LASF8082
     /tmp/ccNzw1my.s:99983  .debug_str:000000000002f5b7 .LASF8083
     /tmp/ccNzw1my.s:100385  .debug_str:0000000000030fbe .LASF8084
     /tmp/ccNzw1my.s:99319  .debug_str:000000000002c8f9 .LASF8085
     /tmp/ccNzw1my.s:106349  .debug_str:0000000000049358 .LASF8086
     /tmp/ccNzw1my.s:105843  .debug_str:000000000004719b .LASF8087
     /tmp/ccNzw1my.s:104659  .debug_str:0000000000042459 .LASF8088
     /tmp/ccNzw1my.s:106797  .debug_str:000000000004b2b0 .LASF8089
     /tmp/ccNzw1my.s:102141  .debug_str:0000000000037c8b .LASF8090
     /tmp/ccNzw1my.s:101643  .debug_str:000000000003615a .LASF8091
     /tmp/ccNzw1my.s:92541  .debug_str:0000000000010d5f .LASF8092
     /tmp/ccNzw1my.s:97345  .debug_str:0000000000024982 .LASF8093
     /tmp/ccNzw1my.s:89067  .debug_str:0000000000002c47 .LASF8094
     /tmp/ccNzw1my.s:91775  .debug_str:000000000000e271 .LASF8095
     /tmp/ccNzw1my.s:94571  .debug_str:0000000000019062 .LASF8096
     /tmp/ccNzw1my.s:96795  .debug_str:000000000002292f .LASF8097
     /tmp/ccNzw1my.s:103107  .debug_str:000000000003bc33 .LASF8098
     /tmp/ccNzw1my.s:97729  .debug_str:00000000000260e3 .LASF8099
     /tmp/ccNzw1my.s:101181  .debug_str:0000000000034482 .LASF8100
     /tmp/ccNzw1my.s:106465  .debug_str:0000000000049afc .LASF8101
     /tmp/ccNzw1my.s:101081  .debug_str:0000000000033da1 .LASF8102
     /tmp/ccNzw1my.s:93533  .debug_str:0000000000014d06 .LASF8103
     /tmp/ccNzw1my.s:97013  .debug_str:00000000000237b4 .LASF8104
     /tmp/ccNzw1my.s:98051  .debug_str:0000000000027785 .LASF8105
     /tmp/ccNzw1my.s:98127  .debug_str:0000000000027c8d .LASF8106
     /tmp/ccNzw1my.s:91871  .debug_str:000000000000e764 .LASF8107
     /tmp/ccNzw1my.s:98431  .debug_str:0000000000029026 .LASF8108
     /tmp/ccNzw1my.s:106943  .debug_str:000000000004bda9 .LASF8109
     /tmp/ccNzw1my.s:93519  .debug_str:0000000000014c23 .LASF8110
     /tmp/ccNzw1my.s:93477  .debug_str:000000000001495a .LASF8111
     /tmp/ccNzw1my.s:96695  .debug_str:00000000000221ef .LASF8112
     /tmp/ccNzw1my.s:90425  .debug_str:0000000000008822 .LASF8113
     /tmp/ccNzw1my.s:94695  .debug_str:000000000001992d .LASF8114
     /tmp/ccNzw1my.s:95225  .debug_str:000000000001bdf8 .LASF8115
     /tmp/ccNzw1my.s:107021  .debug_str:000000000004c386 .LASF8116
     /tmp/ccNzw1my.s:90735  .debug_str:0000000000009d4f .LASF8117
     /tmp/ccNzw1my.s:104793  .debug_str:0000000000042d48 .LASF8118
     /tmp/ccNzw1my.s:94415  .debug_str:0000000000018602 .LASF8119
     /tmp/ccNzw1my.s:104755  .debug_str:0000000000042afe .LASF8120
     /tmp/ccNzw1my.s:105745  .debug_str:0000000000046aab .LASF8121
     /tmp/ccNzw1my.s:99831  .debug_str:000000000002eafd .LASF8122
     /tmp/ccNzw1my.s:93131  .debug_str:000000000001347a .LASF8123
     /tmp/ccNzw1my.s:90867  .debug_str:000000000000a5f2 .LASF8124
     /tmp/ccNzw1my.s:93057  .debug_str:0000000000013008 .LASF8125
     /tmp/ccNzw1my.s:104227  .debug_str:00000000000407ca .LASF8126
     /tmp/ccNzw1my.s:99473  .debug_str:000000000002d372 .LASF8127
     /tmp/ccNzw1my.s:96161  .debug_str:000000000001fefd .LASF8128
     /tmp/ccNzw1my.s:100577  .debug_str:0000000000031cb6 .LASF8129
     /tmp/ccNzw1my.s:106463  .debug_str:0000000000049add .LASF8130
     /tmp/ccNzw1my.s:101263  .debug_str:00000000000349b8 .LASF8131
     /tmp/ccNzw1my.s:106507  .debug_str:0000000000049dc1 .LASF8132
     /tmp/ccNzw1my.s:106807  .debug_str:000000000004b397 .LASF8133
     /tmp/ccNzw1my.s:91425  .debug_str:000000000000cd3b .LASF8134
     /tmp/ccNzw1my.s:99547  .debug_str:000000000002d851 .LASF8135
     /tmp/ccNzw1my.s:103359  .debug_str:000000000003cd44 .LASF8136
     /tmp/ccNzw1my.s:101737  .debug_str:000000000003678b .LASF8137
     /tmp/ccNzw1my.s:89831  .debug_str:000000000000604e .LASF8138
     /tmp/ccNzw1my.s:106399  .debug_str:00000000000496a7 .LASF8139
     /tmp/ccNzw1my.s:90459  .debug_str:0000000000008abd .LASF8140
     /tmp/ccNzw1my.s:105137  .debug_str:00000000000442d6 .LASF8141
     /tmp/ccNzw1my.s:96655  .debug_str:0000000000021fdb .LASF8142
     /tmp/ccNzw1my.s:99457  .debug_str:000000000002d291 .LASF8143
     /tmp/ccNzw1my.s:95017  .debug_str:000000000001af8e .LASF8144
     /tmp/ccNzw1my.s:104663  .debug_str:0000000000042489 .LASF8145
     /tmp/ccNzw1my.s:106537  .debug_str:0000000000049fbd .LASF8146
     /tmp/ccNzw1my.s:102261  .debug_str:00000000000382d4 .LASF8147
     /tmp/ccNzw1my.s:100343  .debug_str:0000000000030c65 .LASF8148
     /tmp/ccNzw1my.s:104649  .debug_str:00000000000423e9 .LASF8149
     /tmp/ccNzw1my.s:98933  .debug_str:000000000002aff1 .LASF8150
     /tmp/ccNzw1my.s:94251  .debug_str:0000000000017bba .LASF8151
     /tmp/ccNzw1my.s:92725  .debug_str:00000000000119a1 .LASF8152
     /tmp/ccNzw1my.s:97061  .debug_str:00000000000239f2 .LASF8153
     /tmp/ccNzw1my.s:91479  .debug_str:000000000000d0aa .LASF8154
     /tmp/ccNzw1my.s:98535  .debug_str:000000000002968a .LASF8155
     /tmp/ccNzw1my.s:94113  .debug_str:000000000001734a .LASF8156
     /tmp/ccNzw1my.s:91493  .debug_str:000000000000d1b2 .LASF8157
     /tmp/ccNzw1my.s:103133  .debug_str:000000000003be44 .LASF8158
     /tmp/ccNzw1my.s:95141  .debug_str:000000000001b85d .LASF8159
     /tmp/ccNzw1my.s:105975  .debug_str:00000000000479bd .LASF8160
     /tmp/ccNzw1my.s:103383  .debug_str:000000000003cecb .LASF8161
     /tmp/ccNzw1my.s:95285  .debug_str:000000000001c1dc .LASF8162
     /tmp/ccNzw1my.s:106453  .debug_str:0000000000049a39 .LASF8163
     /tmp/ccNzw1my.s:90477  .debug_str:0000000000008bf5 .LASF8164
     /tmp/ccNzw1my.s:96535  .debug_str:00000000000217af .LASF8165
     /tmp/ccNzw1my.s:102157  .debug_str:0000000000037dac .LASF8166
     /tmp/ccNzw1my.s:103943  .debug_str:000000000003f421 .LASF8167
     /tmp/ccNzw1my.s:92347  .debug_str:00000000000101d0 .LASF8168
     /tmp/ccNzw1my.s:101803  .debug_str:0000000000036af7 .LASF8169
     /tmp/ccNzw1my.s:89207  .debug_str:00000000000035b5 .LASF8170
     /tmp/ccNzw1my.s:98877  .debug_str:000000000002ac77 .LASF8171
     /tmp/ccNzw1my.s:106581  .debug_str:000000000004a2d0 .LASF8172
     /tmp/ccNzw1my.s:103295  .debug_str:000000000003c899 .LASF8173
     /tmp/ccNzw1my.s:101511  .debug_str:0000000000035996 .LASF8174
     /tmp/ccNzw1my.s:106177  .debug_str:00000000000486a2 .LASF8175
     /tmp/ccNzw1my.s:92589  .debug_str:0000000000010f9e .LASF8176
     /tmp/ccNzw1my.s:90365  .debug_str:000000000000841b .LASF8177
     /tmp/ccNzw1my.s:103771  .debug_str:000000000003e6b5 .LASF8178
     /tmp/ccNzw1my.s:91513  .debug_str:000000000000d2b5 .LASF8179
     /tmp/ccNzw1my.s:106951  .debug_str:000000000004be4a .LASF8180
     /tmp/ccNzw1my.s:93709  .debug_str:00000000000157ea .LASF8181
     /tmp/ccNzw1my.s:90583  .debug_str:00000000000092ca .LASF8182
     /tmp/ccNzw1my.s:97987  .debug_str:00000000000272ae .LASF8183
     /tmp/ccNzw1my.s:90475  .debug_str:0000000000008bd0 .LASF8184
     /tmp/ccNzw1my.s:94431  .debug_str:00000000000186dd .LASF8185
     /tmp/ccNzw1my.s:90971  .debug_str:000000000000ad65 .LASF8186
     /tmp/ccNzw1my.s:93577  .debug_str:0000000000014fe5 .LASF8187
     /tmp/ccNzw1my.s:94141  .debug_str:00000000000174bc .LASF8188
     /tmp/ccNzw1my.s:90973  .debug_str:000000000000ad77 .LASF8189
     /tmp/ccNzw1my.s:106489  .debug_str:0000000000049c7f .LASF8190
     /tmp/ccNzw1my.s:91475  .debug_str:000000000000d086 .LASF8191
     /tmp/ccNzw1my.s:93757  .debug_str:0000000000015b39 .LASF8192
     /tmp/ccNzw1my.s:91255  .debug_str:000000000000c166 .LASF8193
     /tmp/ccNzw1my.s:95557  .debug_str:000000000001d448 .LASF8194
     /tmp/ccNzw1my.s:102813  .debug_str:000000000003a8a0 .LASF8195
     /tmp/ccNzw1my.s:100993  .debug_str:000000000003371a .LASF8196
     /tmp/ccNzw1my.s:98771  .debug_str:000000000002a590 .LASF8197
     /tmp/ccNzw1my.s:94099  .debug_str:000000000001727f .LASF8198
     /tmp/ccNzw1my.s:101921  .debug_str:0000000000037215 .LASF8199
     /tmp/ccNzw1my.s:99163  .debug_str:000000000002be91 .LASF8200
     /tmp/ccNzw1my.s:96427  .debug_str:000000000002111c .LASF8201
     /tmp/ccNzw1my.s:104117  .debug_str:000000000003ff85 .LASF8202
     /tmp/ccNzw1my.s:89577  .debug_str:0000000000004f22 .LASF8203
     /tmp/ccNzw1my.s:101269  .debug_str:0000000000034a0f .LASF8204
     /tmp/ccNzw1my.s:105727  .debug_str:0000000000046935 .LASF8205
     /tmp/ccNzw1my.s:95823  .debug_str:000000000001e69d .LASF8206
     /tmp/ccNzw1my.s:99593  .debug_str:000000000002dad3 .LASF8207
     /tmp/ccNzw1my.s:90111  .debug_str:0000000000007359 .LASF8208
     /tmp/ccNzw1my.s:98099  .debug_str:0000000000027a78 .LASF8209
     /tmp/ccNzw1my.s:106483  .debug_str:0000000000049c02 .LASF8210
     /tmp/ccNzw1my.s:104777  .debug_str:0000000000042c20 .LASF8211
     /tmp/ccNzw1my.s:97169  .debug_str:00000000000240ba .LASF8212
     /tmp/ccNzw1my.s:105595  .debug_str:00000000000460b2 .LASF8213
     /tmp/ccNzw1my.s:91441  .debug_str:000000000000ce72 .LASF8214
     /tmp/ccNzw1my.s:94945  .debug_str:000000000001aa2d .LASF8215
     /tmp/ccNzw1my.s:93903  .debug_str:0000000000016494 .LASF8216
     /tmp/ccNzw1my.s:101449  .debug_str:00000000000355b8 .LASF8217
     /tmp/ccNzw1my.s:101375  .debug_str:000000000003516e .LASF8218
     /tmp/ccNzw1my.s:104315  .debug_str:0000000000040c85 .LASF8219
     /tmp/ccNzw1my.s:92741  .debug_str:0000000000011ae2 .LASF8220
     /tmp/ccNzw1my.s:89061  .debug_str:0000000000002bf4 .LASF8221
     /tmp/ccNzw1my.s:96039  .debug_str:000000000001f672 .LASF8222
     /tmp/ccNzw1my.s:95265  .debug_str:000000000001c095 .LASF8223
     /tmp/ccNzw1my.s:99657  .debug_str:000000000002dffc .LASF8224
     /tmp/ccNzw1my.s:103619  .debug_str:000000000003dd81 .LASF8225
     /tmp/ccNzw1my.s:106619  .debug_str:000000000004a5e7 .LASF8226
     /tmp/ccNzw1my.s:102345  .debug_str:0000000000038864 .LASF8227
     /tmp/ccNzw1my.s:102121  .debug_str:0000000000037b2a .LASF8228
     /tmp/ccNzw1my.s:103795  .debug_str:000000000003e8a4 .LASF8229
     /tmp/ccNzw1my.s:106113  .debug_str:0000000000048259 .LASF8230
     /tmp/ccNzw1my.s:95059  .debug_str:000000000001b2a5 .LASF8231
     /tmp/ccNzw1my.s:102231  .debug_str:000000000003812d .LASF8232
     /tmp/ccNzw1my.s:89585  .debug_str:0000000000004f6e .LASF8233
     /tmp/ccNzw1my.s:103313  .debug_str:000000000003c9e4 .LASF8234
     /tmp/ccNzw1my.s:97335  .debug_str:00000000000248cc .LASF8235
     /tmp/ccNzw1my.s:94907  .debug_str:000000000001a7cc .LASF8236
     /tmp/ccNzw1my.s:93095  .debug_str:0000000000013251 .LASF8237
     /tmp/ccNzw1my.s:93995  .debug_str:0000000000016abc .LASF8238
     /tmp/ccNzw1my.s:100359  .debug_str:0000000000030e0c .LASF8239
     /tmp/ccNzw1my.s:98835  .debug_str:000000000002a9b1 .LASF8240
     /tmp/ccNzw1my.s:97911  .debug_str:0000000000026db5 .LASF8241
     /tmp/ccNzw1my.s:94561  .debug_str:0000000000018fdd .LASF8242
     /tmp/ccNzw1my.s:95877  .debug_str:000000000001ea69 .LASF8243
     /tmp/ccNzw1my.s:102635  .debug_str:0000000000039b9e .LASF8244
     /tmp/ccNzw1my.s:102361  .debug_str:000000000003895f .LASF8245
     /tmp/ccNzw1my.s:91635  .debug_str:000000000000d97d .LASF8246
     /tmp/ccNzw1my.s:89849  .debug_str:000000000000614c .LASF8247
     /tmp/ccNzw1my.s:91527  .debug_str:000000000000d3a8 .LASF8248
     /tmp/ccNzw1my.s:90937  .debug_str:000000000000aa8e .LASF8249
     /tmp/ccNzw1my.s:98601  .debug_str:0000000000029ae7 .LASF8250
     /tmp/ccNzw1my.s:105863  .debug_str:00000000000472de .LASF8251
     /tmp/ccNzw1my.s:90599  .debug_str:00000000000093f9 .LASF8252
     /tmp/ccNzw1my.s:105645  .debug_str:00000000000463aa .LASF8253
     /tmp/ccNzw1my.s:105889  .debug_str:0000000000047484 .LASF8254
     /tmp/ccNzw1my.s:90623  .debug_str:00000000000095ea .LASF8255
     /tmp/ccNzw1my.s:105333  .debug_str:0000000000044ef9 .LASF8256
     /tmp/ccNzw1my.s:89321  .debug_str:0000000000003d14 .LASF8257
     /tmp/ccNzw1my.s:98157  .debug_str:0000000000027f03 .LASF8258
     /tmp/ccNzw1my.s:102073  .debug_str:0000000000037933 .LASF8259
     /tmp/ccNzw1my.s:91373  .debug_str:000000000000c9aa .LASF8260
     /tmp/ccNzw1my.s:103539  .debug_str:000000000003d85b .LASF8261
     /tmp/ccNzw1my.s:104753  .debug_str:0000000000042ad5 .LASF8262
     /tmp/ccNzw1my.s:99031  .debug_str:000000000002b699 .LASF8263
     /tmp/ccNzw1my.s:104465  .debug_str:00000000000417ed .LASF8264
     /tmp/ccNzw1my.s:88659  .debug_str:0000000000000f65 .LASF8265
     /tmp/ccNzw1my.s:93743  .debug_str:00000000000159f1 .LASF8266
     /tmp/ccNzw1my.s:90939  .debug_str:000000000000aab3 .LASF8267
     /tmp/ccNzw1my.s:94365  .debug_str:000000000001820a .LASF8268
     /tmp/ccNzw1my.s:99615  .debug_str:000000000002dc82 .LASF8269
     /tmp/ccNzw1my.s:89587  .debug_str:0000000000004f82 .LASF8270
     /tmp/ccNzw1my.s:90911  .debug_str:000000000000a913 .LASF8271
     /tmp/ccNzw1my.s:101587  .debug_str:0000000000035e9b .LASF8272
     /tmp/ccNzw1my.s:89091  .debug_str:0000000000002dd5 .LASF8273
     /tmp/ccNzw1my.s:94137  .debug_str:000000000001747b .LASF8274
     /tmp/ccNzw1my.s:101331  .debug_str:0000000000034e81 .LASF8275
     /tmp/ccNzw1my.s:99867  .debug_str:000000000002ed5c .LASF8276
     /tmp/ccNzw1my.s:90233  .debug_str:0000000000007b27 .LASF8277
     /tmp/ccNzw1my.s:106879  .debug_str:000000000004b92a .LASF8278
     /tmp/ccNzw1my.s:97931  .debug_str:0000000000026f07 .LASF8279
     /tmp/ccNzw1my.s:90711  .debug_str:0000000000009b8b .LASF8280
     /tmp/ccNzw1my.s:100395  .debug_str:0000000000031047 .LASF8281
     /tmp/ccNzw1my.s:106545  .debug_str:000000000004a055 .LASF8282
     /tmp/ccNzw1my.s:99381  .debug_str:000000000002cd5c .LASF8283
     /tmp/ccNzw1my.s:96431  .debug_str:0000000000021158 .LASF8284
     /tmp/ccNzw1my.s:106727  .debug_str:000000000004ac9f .LASF8285
     /tmp/ccNzw1my.s:88785  .debug_str:00000000000017f8 .LASF8286
     /tmp/ccNzw1my.s:89615  .debug_str:000000000000513f .LASF8287
     /tmp/ccNzw1my.s:106543  .debug_str:000000000004a048 .LASF8288
     /tmp/ccNzw1my.s:102687  .debug_str:0000000000039f48 .LASF8289
     /tmp/ccNzw1my.s:101089  .debug_str:0000000000033dfb .LASF8290
     /tmp/ccNzw1my.s:101227  .debug_str:000000000003475e .LASF8291
     /tmp/ccNzw1my.s:96193  .debug_str:00000000000200c3 .LASF8292
     /tmp/ccNzw1my.s:103249  .debug_str:000000000003c5cf .LASF8293
     /tmp/ccNzw1my.s:94057  .debug_str:0000000000016f4d .LASF8294
     /tmp/ccNzw1my.s:91969  .debug_str:000000000000ec73 .LASF8295
     /tmp/ccNzw1my.s:99733  .debug_str:000000000002e4ca .LASF8296
     /tmp/ccNzw1my.s:90237  .debug_str:0000000000007b65 .LASF8297
     /tmp/ccNzw1my.s:90743  .debug_str:0000000000009e06 .LASF8298
     /tmp/ccNzw1my.s:92649  .debug_str:0000000000011435 .LASF8299
     /tmp/ccNzw1my.s:106057  .debug_str:0000000000047ebb .LASF8300
     /tmp/ccNzw1my.s:95037  .debug_str:000000000001b0d9 .LASF8301
     /tmp/ccNzw1my.s:101339  .debug_str:0000000000034f06 .LASF8302
     /tmp/ccNzw1my.s:94389  .debug_str:0000000000018410 .LASF8303
     /tmp/ccNzw1my.s:98005  .debug_str:00000000000273e9 .LASF8304
     /tmp/ccNzw1my.s:96699  .debug_str:0000000000022254 .LASF8305
     /tmp/ccNzw1my.s:103971  .debug_str:000000000003f617 .LASF8306
     /tmp/ccNzw1my.s:107169  .debug_str:000000000004cc8f .LASF8307
     /tmp/ccNzw1my.s:104579  .debug_str:0000000000041ee9 .LASF8308
     /tmp/ccNzw1my.s:94863  .debug_str:000000000001a518 .LASF8309
     /tmp/ccNzw1my.s:100309  .debug_str:00000000000309b4 .LASF8310
     /tmp/ccNzw1my.s:91727  .debug_str:000000000000df88 .LASF8311
     /tmp/ccNzw1my.s:107131  .debug_str:000000000004ca26 .LASF8312
     /tmp/ccNzw1my.s:99433  .debug_str:000000000002d093 .LASF8313
     /tmp/ccNzw1my.s:103277  .debug_str:000000000003c797 .LASF8314
     /tmp/ccNzw1my.s:106435  .debug_str:000000000004993b .LASF8315
     /tmp/ccNzw1my.s:91927  .debug_str:000000000000e964 .LASF8316
     /tmp/ccNzw1my.s:92337  .debug_str:000000000001016a .LASF8317
     /tmp/ccNzw1my.s:102729  .debug_str:000000000003a282 .LASF8318
     /tmp/ccNzw1my.s:102521  .debug_str:000000000003943b .LASF8319
     /tmp/ccNzw1my.s:92339  .debug_str:000000000001017a .LASF8320
     /tmp/ccNzw1my.s:102731  .debug_str:000000000003a292 .LASF8321
     /tmp/ccNzw1my.s:89625  .debug_str:00000000000051f2 .LASF8322
     /tmp/ccNzw1my.s:93865  .debug_str:0000000000016287 .LASF8323
     /tmp/ccNzw1my.s:95411  .debug_str:000000000001ca24 .LASF8324
     /tmp/ccNzw1my.s:99975  .debug_str:000000000002f50c .LASF8325
     /tmp/ccNzw1my.s:102867  .debug_str:000000000003ac67 .LASF8326
     /tmp/ccNzw1my.s:97933  .debug_str:0000000000026f19 .LASF8327
     /tmp/ccNzw1my.s:103099  .debug_str:000000000003bbe3 .LASF8328
     /tmp/ccNzw1my.s:102869  .debug_str:000000000003ac77 .LASF8329
     /tmp/ccNzw1my.s:94167  .debug_str:0000000000017654 .LASF8330
     /tmp/ccNzw1my.s:97051  .debug_str:0000000000023905 .LASF8331
     /tmp/ccNzw1my.s:102871  .debug_str:000000000003ac87 .LASF8332
     /tmp/ccNzw1my.s:94169  .debug_str:0000000000017664 .LASF8333
     /tmp/ccNzw1my.s:99599  .debug_str:000000000002db86 .LASF8334
     /tmp/ccNzw1my.s:103883  .debug_str:000000000003ef66 .LASF8335
     /tmp/ccNzw1my.s:94171  .debug_str:0000000000017674 .LASF8336
     /tmp/ccNzw1my.s:104023  .debug_str:000000000003f944 .LASF8337
     /tmp/ccNzw1my.s:96287  .debug_str:000000000002078e .LASF8338
     /tmp/ccNzw1my.s:99435  .debug_str:000000000002d0b4 .LASF8339
     /tmp/ccNzw1my.s:93239  .debug_str:0000000000013b35 .LASF8340
     /tmp/ccNzw1my.s:90707  .debug_str:0000000000009b4c .LASF8341
     /tmp/ccNzw1my.s:102865  .debug_str:000000000003ac57 .LASF8342
     /tmp/ccNzw1my.s:93307  .debug_str:0000000000013fa2 .LASF8343
     /tmp/ccNzw1my.s:89413  .debug_str:0000000000004422 .LASF8344
     /tmp/ccNzw1my.s:91277  .debug_str:000000000000c342 .LASF8345
     /tmp/ccNzw1my.s:106599  .debug_str:000000000004a476 .LASF8346
     /tmp/ccNzw1my.s:89415  .debug_str:0000000000004438 .LASF8347
     /tmp/ccNzw1my.s:91279  .debug_str:000000000000c358 .LASF8348
     /tmp/ccNzw1my.s:99613  .debug_str:000000000002dc58 .LASF8349
     /tmp/ccNzw1my.s:89417  .debug_str:000000000000444e .LASF8350
     /tmp/ccNzw1my.s:91281  .debug_str:000000000000c36e .LASF8351
     /tmp/ccNzw1my.s:93563  .debug_str:0000000000014edd .LASF8352
     /tmp/ccNzw1my.s:105533  .debug_str:0000000000045ca6 .LASF8353
     /tmp/ccNzw1my.s:91283  .debug_str:000000000000c384 .LASF8354
     /tmp/ccNzw1my.s:106473  .debug_str:0000000000049b87 .LASF8355
     /tmp/ccNzw1my.s:89421  .debug_str:0000000000004476 .LASF8356
     /tmp/ccNzw1my.s:91285  .debug_str:000000000000c39a .LASF8357
     /tmp/ccNzw1my.s:100715  .debug_str:00000000000324f5 .LASF8358
     /tmp/ccNzw1my.s:89423  .debug_str:000000000000448c .LASF8359
     /tmp/ccNzw1my.s:91287  .debug_str:000000000000c3b0 .LASF8360
     /tmp/ccNzw1my.s:94673  .debug_str:000000000001972d .LASF8361
     /tmp/ccNzw1my.s:89425  .debug_str:00000000000044a2 .LASF8362
     /tmp/ccNzw1my.s:91289  .debug_str:000000000000c3c6 .LASF8363
     /tmp/ccNzw1my.s:88671  .debug_str:0000000000001024 .LASF8364
     /tmp/ccNzw1my.s:89427  .debug_str:00000000000044b8 .LASF8365
     /tmp/ccNzw1my.s:91291  .debug_str:000000000000c3dc .LASF8366
     /tmp/ccNzw1my.s:101645  .debug_str:0000000000036180 .LASF8367
     /tmp/ccNzw1my.s:95773  .debug_str:000000000001e339 .LASF8368
     /tmp/ccNzw1my.s:99345  .debug_str:000000000002ca95 .LASF8369
     /tmp/ccNzw1my.s:102963  .debug_str:000000000003b2bf .LASF8370
     /tmp/ccNzw1my.s:93211  .debug_str:00000000000139cd .LASF8371
     /tmp/ccNzw1my.s:102085  .debug_str:00000000000379d2 .LASF8372
     /tmp/ccNzw1my.s:96927  .debug_str:00000000000231b9 .LASF8373
     /tmp/ccNzw1my.s:94721  .debug_str:0000000000019ab8 .LASF8374
     /tmp/ccNzw1my.s:90349  .debug_str:0000000000008366 .LASF8375
     /tmp/ccNzw1my.s:97233  .debug_str:00000000000243b3 .LASF8376
     /tmp/ccNzw1my.s:96107  .debug_str:000000000001fbce .LASF8377
     /tmp/ccNzw1my.s:100811  .debug_str:0000000000032b73 .LASF8378
     /tmp/ccNzw1my.s:106111  .debug_str:000000000004822e .LASF8379
     /tmp/ccNzw1my.s:103479  .debug_str:000000000003d4a4 .LASF8380
     /tmp/ccNzw1my.s:97859  .debug_str:0000000000026a64 .LASF8381
     /tmp/ccNzw1my.s:102317  .debug_str:0000000000038696 .LASF8382
     /tmp/ccNzw1my.s:104565  .debug_str:0000000000041df3 .LASF8383
     /tmp/ccNzw1my.s:104407  .debug_str:0000000000041318 .LASF8384
     /tmp/ccNzw1my.s:94687  .debug_str:0000000000019859 .LASF8385
     /tmp/ccNzw1my.s:96867  .debug_str:0000000000022db9 .LASF8386
     /tmp/ccNzw1my.s:92531  .debug_str:0000000000010cbe .LASF8387
     /tmp/ccNzw1my.s:92909  .debug_str:00000000000125d6 .LASF8388
     /tmp/ccNzw1my.s:99669  .debug_str:000000000002e101 .LASF8389
     /tmp/ccNzw1my.s:92657  .debug_str:00000000000114ad .LASF8390
     /tmp/ccNzw1my.s:98861  .debug_str:000000000002ab72 .LASF8391
     /tmp/ccNzw1my.s:93383  .debug_str:000000000001437f .LASF8392
     /tmp/ccNzw1my.s:92775  .debug_str:0000000000011d37 .LASF8393
     /tmp/ccNzw1my.s:91081  .debug_str:000000000000b5e3 .LASF8394
     /tmp/ccNzw1my.s:104225  .debug_str:00000000000407bf .LASF8395
     /tmp/ccNzw1my.s:104487  .debug_str:0000000000041957 .LASF8396
     /tmp/ccNzw1my.s:98557  .debug_str:00000000000297a2 .LASF8397
     /tmp/ccNzw1my.s:102923  .debug_str:000000000003b049 .LASF8398
     /tmp/ccNzw1my.s:107177  .debug_str:000000000004cd0c .LASF8399
     /tmp/ccNzw1my.s:91253  .debug_str:000000000000c13c .LASF8400
     /tmp/ccNzw1my.s:104237  .debug_str:0000000000040843 .LASF8401
     /tmp/ccNzw1my.s:98049  .debug_str:0000000000027776 .LASF8402
     /tmp/ccNzw1my.s:97943  .debug_str:0000000000026faa .LASF8403
     /tmp/ccNzw1my.s:92239  .debug_str:000000000000fb2d .LASF8404
     /tmp/ccNzw1my.s:106607  .debug_str:000000000004a507 .LASF8405
     /tmp/ccNzw1my.s:106593  .debug_str:000000000004a3cc .LASF8406
     /tmp/ccNzw1my.s:103079  .debug_str:000000000003bab6 .LASF8407
     /tmp/ccNzw1my.s:98507  .debug_str:0000000000029492 .LASF8408
     /tmp/ccNzw1my.s:98593  .debug_str:0000000000029a38 .LASF8409
     /tmp/ccNzw1my.s:100757  .debug_str:00000000000327ad .LASF8410
     /tmp/ccNzw1my.s:107037  .debug_str:000000000004c42a .LASF8411
     /tmp/ccNzw1my.s:98231  .debug_str:00000000000282b1 .LASF8412
     /tmp/ccNzw1my.s:92193  .debug_str:000000000000f935 .LASF8413
     /tmp/ccNzw1my.s:102997  .debug_str:000000000003b565 .LASF8414
     /tmp/ccNzw1my.s:107289  .debug_str:000000000004d57e .LASF8415
     /tmp/ccNzw1my.s:103607  .debug_str:000000000003dcc7 .LASF8416
     /tmp/ccNzw1my.s:90235  .debug_str:0000000000007b4e .LASF8417
     /tmp/ccNzw1my.s:98467  .debug_str:00000000000292b3 .LASF8418
     /tmp/ccNzw1my.s:102893  .debug_str:000000000003ae2f .LASF8419
     /tmp/ccNzw1my.s:89123  .debug_str:00000000000030c2 .LASF8420
     /tmp/ccNzw1my.s:89377  .debug_str:0000000000004139 .LASF8421
     /tmp/ccNzw1my.s:102895  .debug_str:000000000003ae48 .LASF8422
     /tmp/ccNzw1my.s:89125  .debug_str:00000000000030db .LASF8423
     /tmp/ccNzw1my.s:95509  .debug_str:000000000001d0fb .LASF8424
     /tmp/ccNzw1my.s:102897  .debug_str:000000000003ae61 .LASF8425
     /tmp/ccNzw1my.s:89127  .debug_str:00000000000030f4 .LASF8426
     /tmp/ccNzw1my.s:96387  .debug_str:0000000000020f0b .LASF8427
     /tmp/ccNzw1my.s:102899  .debug_str:000000000003ae7a .LASF8428
     /tmp/ccNzw1my.s:89129  .debug_str:000000000000310d .LASF8429
     /tmp/ccNzw1my.s:90293  .debug_str:0000000000007f0c .LASF8430
     /tmp/ccNzw1my.s:102901  .debug_str:000000000003ae93 .LASF8431
     /tmp/ccNzw1my.s:89131  .debug_str:0000000000003126 .LASF8432
     /tmp/ccNzw1my.s:103309  .debug_str:000000000003c983 .LASF8433
     /tmp/ccNzw1my.s:104907  .debug_str:0000000000043400 .LASF8434
     /tmp/ccNzw1my.s:104393  .debug_str:0000000000041240 .LASF8435
     /tmp/ccNzw1my.s:98953  .debug_str:000000000002b199 .LASF8436
     /tmp/ccNzw1my.s:94327  .debug_str:0000000000018045 .LASF8437
     /tmp/ccNzw1my.s:96841  .debug_str:0000000000022c08 .LASF8438
     /tmp/ccNzw1my.s:96865  .debug_str:0000000000022d98 .LASF8439
     /tmp/ccNzw1my.s:98893  .debug_str:000000000002ad71 .LASF8440
     /tmp/ccNzw1my.s:93087  .debug_str:00000000000131e4 .LASF8441
     /tmp/ccNzw1my.s:96919  .debug_str:000000000002312a .LASF8442
     /tmp/ccNzw1my.s:91589  .debug_str:000000000000d77f .LASF8443
     /tmp/ccNzw1my.s:100187  .debug_str:000000000003020a .LASF8444
     /tmp/ccNzw1my.s:100323  .debug_str:0000000000030ab5 .LASF8445
     /tmp/ccNzw1my.s:95179  .debug_str:000000000001bae0 .LASF8446
     /tmp/ccNzw1my.s:105015  .debug_str:0000000000043ae2 .LASF8447
     /tmp/ccNzw1my.s:100657  .debug_str:000000000003212a .LASF8448
     /tmp/ccNzw1my.s:99719  .debug_str:000000000002e3fe .LASF8449
     /tmp/ccNzw1my.s:93269  .debug_str:0000000000013d48 .LASF8450
     /tmp/ccNzw1my.s:96979  .debug_str:00000000000235ad .LASF8451
     /tmp/ccNzw1my.s:94443  .debug_str:0000000000018784 .LASF8452
     /tmp/ccNzw1my.s:93783  .debug_str:0000000000015cba .LASF8453
     /tmp/ccNzw1my.s:103121  .debug_str:000000000003bd8c .LASF8454
     /tmp/ccNzw1my.s:94339  .debug_str:00000000000180e7 .LASF8455
     /tmp/ccNzw1my.s:93835  .debug_str:0000000000016000 .LASF8456
     /tmp/ccNzw1my.s:102495  .debug_str:0000000000039282 .LASF8457
     /tmp/ccNzw1my.s:89371  .debug_str:00000000000040c5 .LASF8458
     /tmp/ccNzw1my.s:89043  .debug_str:0000000000002a5c .LASF8459
     /tmp/ccNzw1my.s:96289  .debug_str:00000000000207a3 .LASF8460
     /tmp/ccNzw1my.s:89429  .debug_str:00000000000044ce .LASF8461
     /tmp/ccNzw1my.s:99807  .debug_str:000000000002e9aa .LASF8462
     /tmp/ccNzw1my.s:106759  .debug_str:000000000004af40 .LASF8463
     /tmp/ccNzw1my.s:90275  .debug_str:0000000000007dc6 .LASF8464
     /tmp/ccNzw1my.s:99119  .debug_str:000000000002bbdf .LASF8465
     /tmp/ccNzw1my.s:106191  .debug_str:00000000000487b2 .LASF8466
     /tmp/ccNzw1my.s:100857  .debug_str:0000000000032de2 .LASF8467
     /tmp/ccNzw1my.s:105793  .debug_str:0000000000046df0 .LASF8468
     /tmp/ccNzw1my.s:98775  .debug_str:000000000002a5b4 .LASF8469
     /tmp/ccNzw1my.s:90153  .debug_str:000000000000764a .LASF8470
     /tmp/ccNzw1my.s:105841  .debug_str:0000000000047188 .LASF8471
     /tmp/ccNzw1my.s:95543  .debug_str:000000000001d33f .LASF8472
     /tmp/ccNzw1my.s:90155  .debug_str:000000000000765d .LASF8473
     /tmp/ccNzw1my.s:104535  .debug_str:0000000000041c83 .LASF8474
     /tmp/ccNzw1my.s:105209  .debug_str:0000000000044689 .LASF8475
     /tmp/ccNzw1my.s:101103  .debug_str:0000000000033ee3 .LASF8476
     /tmp/ccNzw1my.s:89681  .debug_str:0000000000005693 .LASF8477
     /tmp/ccNzw1my.s:104165  .debug_str:0000000000040346 .LASF8478
     /tmp/ccNzw1my.s:101105  .debug_str:0000000000033ef7 .LASF8479
     /tmp/ccNzw1my.s:89683  .debug_str:00000000000056a7 .LASF8480
     /tmp/ccNzw1my.s:98225  .debug_str:000000000002824f .LASF8481
     /tmp/ccNzw1my.s:101107  .debug_str:0000000000033f0b .LASF8482
     /tmp/ccNzw1my.s:89685  .debug_str:00000000000056bb .LASF8483
     /tmp/ccNzw1my.s:92281  .debug_str:000000000000fe0c .LASF8484
     /tmp/ccNzw1my.s:101109  .debug_str:0000000000033f1f .LASF8485
     /tmp/ccNzw1my.s:96391  .debug_str:0000000000020f3f .LASF8486
     /tmp/ccNzw1my.s:91829  .debug_str:000000000000e4d2 .LASF8487
     /tmp/ccNzw1my.s:101111  .debug_str:0000000000033f33 .LASF8488
     /tmp/ccNzw1my.s:89689  .debug_str:0000000000005712 .LASF8489
     /tmp/ccNzw1my.s:99211  .debug_str:000000000002c17a .LASF8490
     /tmp/ccNzw1my.s:93911  .debug_str:0000000000016518 .LASF8491
     /tmp/ccNzw1my.s:96837  .debug_str:0000000000022be4 .LASF8492
     /tmp/ccNzw1my.s:89039  .debug_str:0000000000002a17 .LASF8493
     /tmp/ccNzw1my.s:90247  .debug_str:0000000000007bf3 .LASF8494
     /tmp/ccNzw1my.s:96839  .debug_str:0000000000022bf6 .LASF8495
     /tmp/ccNzw1my.s:97365  .debug_str:0000000000024abb .LASF8496
     /tmp/ccNzw1my.s:90249  .debug_str:0000000000007c05 .LASF8497
     /tmp/ccNzw1my.s:91219  .debug_str:000000000000bf1c .LASF8498
     /tmp/ccNzw1my.s:107023  .debug_str:000000000004c397 .LASF8499
     /tmp/ccNzw1my.s:88807  .debug_str:000000000000198f .LASF8500
     /tmp/ccNzw1my.s:89779  .debug_str:0000000000005d05 .LASF8501
     /tmp/ccNzw1my.s:105633  .debug_str:00000000000462fa .LASF8502
     /tmp/ccNzw1my.s:88809  .debug_str:00000000000019a1 .LASF8503
     /tmp/ccNzw1my.s:89781  .debug_str:0000000000005d17 .LASF8504
     /tmp/ccNzw1my.s:99693  .debug_str:000000000002e22a .LASF8505
     /tmp/ccNzw1my.s:104643  .debug_str:000000000004239d .LASF8506
     /tmp/ccNzw1my.s:89783  .debug_str:0000000000005d29 .LASF8507
     /tmp/ccNzw1my.s:93631  .debug_str:00000000000153e2 .LASF8508
     /tmp/ccNzw1my.s:105785  .debug_str:0000000000046db2 .LASF8509
     /tmp/ccNzw1my.s:99683  .debug_str:000000000002e1c9 .LASF8510
     /tmp/ccNzw1my.s:96163  .debug_str:000000000001ff08 .LASF8511
     /tmp/ccNzw1my.s:104479  .debug_str:00000000000418d0 .LASF8512
     /tmp/ccNzw1my.s:106007  .debug_str:0000000000047b9e .LASF8513
     /tmp/ccNzw1my.s:99805  .debug_str:000000000002e984 .LASF8514
     /tmp/ccNzw1my.s:88909  .debug_str:00000000000020c1 .LASF8515
     /tmp/ccNzw1my.s:100879  .debug_str:0000000000032f7b .LASF8516
     /tmp/ccNzw1my.s:101283  .debug_str:0000000000034b29 .LASF8517
     /tmp/ccNzw1my.s:92875  .debug_str:0000000000012398 .LASF8518
     /tmp/ccNzw1my.s:106279  .debug_str:0000000000048e98 .LASF8519
     /tmp/ccNzw1my.s:97779  .debug_str:0000000000026460 .LASF8520
     /tmp/ccNzw1my.s:95331  .debug_str:000000000001c4ad .LASF8521
     /tmp/ccNzw1my.s:105553  .debug_str:0000000000045e01 .LASF8522
     /tmp/ccNzw1my.s:94019  .debug_str:0000000000016c78 .LASF8523
     /tmp/ccNzw1my.s:98423  .debug_str:0000000000028f8b .LASF8524
     /tmp/ccNzw1my.s:104473  .debug_str:0000000000041885 .LASF8525
     /tmp/ccNzw1my.s:102845  .debug_str:000000000003ab0b .LASF8526
     /tmp/ccNzw1my.s:93175  .debug_str:000000000001375f .LASF8527
     /tmp/ccNzw1my.s:97435  .debug_str:0000000000024e41 .LASF8528
     /tmp/ccNzw1my.s:97695  .debug_str:0000000000025f66 .LASF8529
     /tmp/ccNzw1my.s:97311  .debug_str:0000000000024753 .LASF8530
     /tmp/ccNzw1my.s:91011  .debug_str:000000000000b03a .LASF8531
     /tmp/ccNzw1my.s:105169  .debug_str:0000000000044484 .LASF8532
     /tmp/ccNzw1my.s:95821  .debug_str:000000000001e680 .LASF8533
     /tmp/ccNzw1my.s:89567  .debug_str:0000000000004e4f .LASF8534
     /tmp/ccNzw1my.s:106933  .debug_str:000000000004bcc4 .LASF8535
     /tmp/ccNzw1my.s:89337  .debug_str:0000000000003e3e .LASF8536
     /tmp/ccNzw1my.s:97407  .debug_str:0000000000024bfc .LASF8537
     /tmp/ccNzw1my.s:101129  .debug_str:00000000000340a3 .LASF8538
     /tmp/ccNzw1my.s:97343  .debug_str:000000000002496e .LASF8539
     /tmp/ccNzw1my.s:104445  .debug_str:0000000000041677 .LASF8540
     /tmp/ccNzw1my.s:98335  .debug_str:00000000000289d6 .LASF8541
     /tmp/ccNzw1my.s:103895  .debug_str:000000000003f03c .LASF8542
     /tmp/ccNzw1my.s:89455  .debug_str:0000000000004695 .LASF8543
     /tmp/ccNzw1my.s:98463  .debug_str:0000000000029253 .LASF8544
     /tmp/ccNzw1my.s:105929  .debug_str:00000000000476fd .LASF8545
     /tmp/ccNzw1my.s:104789  .debug_str:0000000000042cfe .LASF8546
     /tmp/ccNzw1my.s:106603  .debug_str:000000000004a4be .LASF8547
     /tmp/ccNzw1my.s:89845  .debug_str:0000000000006113 .LASF8548
     /tmp/ccNzw1my.s:101007  .debug_str:000000000003382f .LASF8549
     /tmp/ccNzw1my.s:97543  .debug_str:00000000000254df .LASF8550
     /tmp/ccNzw1my.s:91765  .debug_str:000000000000e215 .LASF8551
     /tmp/ccNzw1my.s:97765  .debug_str:0000000000026382 .LASF8552
     /tmp/ccNzw1my.s:104669  .debug_str:00000000000424f2 .LASF8553
     /tmp/ccNzw1my.s:95235  .debug_str:000000000001be8f .LASF8554
     /tmp/ccNzw1my.s:100373  .debug_str:0000000000030f25 .LASF8555
     /tmp/ccNzw1my.s:98135  .debug_str:0000000000027d44 .LASF8556
     /tmp/ccNzw1my.s:90859  .debug_str:000000000000a577 .LASF8557
     /tmp/ccNzw1my.s:104759  .debug_str:0000000000042b39 .LASF8558
     /tmp/ccNzw1my.s:106247  .debug_str:0000000000048c15 .LASF8559
     /tmp/ccNzw1my.s:91789  .debug_str:000000000000e2c6 .LASF8560
     /tmp/ccNzw1my.s:96129  .debug_str:000000000001fd27 .LASF8561
     /tmp/ccNzw1my.s:99631  .debug_str:000000000002de21 .LASF8562
     /tmp/ccNzw1my.s:93457  .debug_str:00000000000147e3 .LASF8563
     /tmp/ccNzw1my.s:105119  .debug_str:0000000000044180 .LASF8564
     /tmp/ccNzw1my.s:105245  .debug_str:0000000000044973 .LASF8565
     /tmp/ccNzw1my.s:91181  .debug_str:000000000000bcb8 .LASF8566
     /tmp/ccNzw1my.s:93881  .debug_str:0000000000016349 .LASF8567
     /tmp/ccNzw1my.s:106889  .debug_str:000000000004b9a2 .LASF8568
     /tmp/ccNzw1my.s:104679  .debug_str:000000000004258a .LASF8569
     /tmp/ccNzw1my.s:100789  .debug_str:00000000000329cd .LASF8570
     /tmp/ccNzw1my.s:99499  .debug_str:000000000002d4d3 .LASF8571
     /tmp/ccNzw1my.s:94835  .debug_str:000000000001a358 .LASF8572
     /tmp/ccNzw1my.s:102719  .debug_str:000000000003a1b8 .LASF8573
     /tmp/ccNzw1my.s:96197  .debug_str:0000000000020100 .LASF8574
     /tmp/ccNzw1my.s:91107  .debug_str:000000000000b7f9 .LASF8575
     /tmp/ccNzw1my.s:106855  .debug_str:000000000004b78f .LASF8576
     /tmp/ccNzw1my.s:102707  .debug_str:000000000003a0c0 .LASF8577
     /tmp/ccNzw1my.s:106351  .debug_str:000000000004936c .LASF8578
     /tmp/ccNzw1my.s:92065  .debug_str:000000000000f0d4 .LASF8579
     /tmp/ccNzw1my.s:100321  .debug_str:0000000000030a8a .LASF8580
     /tmp/ccNzw1my.s:89065  .debug_str:0000000000002c2c .LASF8581
     /tmp/ccNzw1my.s:101435  .debug_str:00000000000354cc .LASF8582
     /tmp/ccNzw1my.s:98617  .debug_str:0000000000029bce .LASF8583
     /tmp/ccNzw1my.s:101681  .debug_str:00000000000364b1 .LASF8584
     /tmp/ccNzw1my.s:99395  .debug_str:000000000002ce24 .LASF8585
     /tmp/ccNzw1my.s:101977  .debug_str:0000000000037441 .LASF8586
     /tmp/ccNzw1my.s:94043  .debug_str:0000000000016e32 .LASF8587
     /tmp/ccNzw1my.s:88891  .debug_str:0000000000001f51 .LASF8588
     /tmp/ccNzw1my.s:93325  .debug_str:000000000001409b .LASF8589
     /tmp/ccNzw1my.s:91793  .debug_str:000000000000e2f6 .LASF8590
     /tmp/ccNzw1my.s:101799  .debug_str:0000000000036adc .LASF8591
     /tmp/ccNzw1my.s:104563  .debug_str:0000000000041dcb .LASF8592
     /tmp/ccNzw1my.s:94425  .debug_str:000000000001867e .LASF8593
     /tmp/ccNzw1my.s:99067  .debug_str:000000000002b925 .LASF8594
     /tmp/ccNzw1my.s:90341  .debug_str:00000000000082ca .LASF8595
     /tmp/ccNzw1my.s:98061  .debug_str:00000000000277f4 .LASF8596
     /tmp/ccNzw1my.s:96901  .debug_str:0000000000022fe4 .LASF8597
     /tmp/ccNzw1my.s:106697  .debug_str:000000000004aa77 .LASF8598
     /tmp/ccNzw1my.s:98063  .debug_str:0000000000027811 .LASF8599
     /tmp/ccNzw1my.s:96903  .debug_str:0000000000023001 .LASF8600
     /tmp/ccNzw1my.s:88603  .debug_str:0000000000000b7c .LASF8601
     /tmp/ccNzw1my.s:103241  .debug_str:000000000003c54a .LASF8602
     /tmp/ccNzw1my.s:102183  .debug_str:0000000000037f1d .LASF8603
     /tmp/ccNzw1my.s:104867  .debug_str:00000000000431c0 .LASF8604
     /tmp/ccNzw1my.s:103243  .debug_str:000000000003c567 .LASF8605
     /tmp/ccNzw1my.s:89817  .debug_str:0000000000005f85 .LASF8606
     /tmp/ccNzw1my.s:93575  .debug_str:0000000000014fb4 .LASF8607
     /tmp/ccNzw1my.s:105291  .debug_str:0000000000044caa .LASF8608
     /tmp/ccNzw1my.s:92923  .debug_str:00000000000126d0 .LASF8609
     /tmp/ccNzw1my.s:103677  .debug_str:000000000003e0e9 .LASF8610
     /tmp/ccNzw1my.s:105293  .debug_str:0000000000044cc5 .LASF8611
     /tmp/ccNzw1my.s:101875  .debug_str:0000000000036ee5 .LASF8612
     /tmp/ccNzw1my.s:97691  .debug_str:0000000000025f1d .LASF8613
     /tmp/ccNzw1my.s:91449  .debug_str:000000000000cee7 .LASF8614
     /tmp/ccNzw1my.s:98143  .debug_str:0000000000027df9 .LASF8615
     /tmp/ccNzw1my.s:96399  .debug_str:0000000000020f98 .LASF8616
     /tmp/ccNzw1my.s:91451  .debug_str:000000000000cf02 .LASF8617
     /tmp/ccNzw1my.s:93271  .debug_str:0000000000013d54 .LASF8618
     /tmp/ccNzw1my.s:90307  .debug_str:0000000000008044 .LASF8619
     /tmp/ccNzw1my.s:97177  .debug_str:0000000000024107 .LASF8620
     /tmp/ccNzw1my.s:95929  .debug_str:000000000001edd4 .LASF8621
     /tmp/ccNzw1my.s:88559  .debug_str:00000000000008c9 .LASF8622
     /tmp/ccNzw1my.s:97179  .debug_str:0000000000024124 .LASF8623
     /tmp/ccNzw1my.s:95931  .debug_str:000000000001edf1 .LASF8624
     /tmp/ccNzw1my.s:98523  .debug_str:0000000000029587 .LASF8625
     /tmp/ccNzw1my.s:102489  .debug_str:000000000003921e .LASF8626
     /tmp/ccNzw1my.s:101145  .debug_str:0000000000034216 .LASF8627
     /tmp/ccNzw1my.s:100231  .debug_str:00000000000304b8 .LASF8628
     /tmp/ccNzw1my.s:102491  .debug_str:000000000003923b .LASF8629
     /tmp/ccNzw1my.s:101147  .debug_str:0000000000034233 .LASF8630
     /tmp/ccNzw1my.s:94191  .debug_str:00000000000177eb .LASF8631
     /tmp/ccNzw1my.s:107275  .debug_str:000000000004d48e .LASF8632
     /tmp/ccNzw1my.s:90817  .debug_str:000000000000a2c1 .LASF8633
     /tmp/ccNzw1my.s:94521  .debug_str:0000000000018cee .LASF8634
     /tmp/ccNzw1my.s:107277  .debug_str:000000000004d4a7 .LASF8635
     /tmp/ccNzw1my.s:90819  .debug_str:000000000000a2da .LASF8636
     /tmp/ccNzw1my.s:88531  .debug_str:00000000000006f1 .LASF8637
     /tmp/ccNzw1my.s:90389  .debug_str:00000000000085bb .LASF8638
     /tmp/ccNzw1my.s:102883  .debug_str:000000000003ad60 .LASF8639
     /tmp/ccNzw1my.s:92083  .debug_str:000000000000f212 .LASF8640
     /tmp/ccNzw1my.s:91361  .debug_str:000000000000c8fd .LASF8641
     /tmp/ccNzw1my.s:95089  .debug_str:000000000001b4a0 .LASF8642
     /tmp/ccNzw1my.s:106219  .debug_str:0000000000048a11 .LASF8643
     /tmp/ccNzw1my.s:90533  .debug_str:0000000000008fe5 .LASF8644
     /tmp/ccNzw1my.s:107175  .debug_str:000000000004cd00 .LASF8645
     /tmp/ccNzw1my.s:88921  .debug_str:00000000000021b5 .LASF8646
     /tmp/ccNzw1my.s:105997  .debug_str:0000000000047aeb .LASF8647
     /tmp/ccNzw1my.s:92045  .debug_str:000000000000f048 .LASF8648
     /tmp/ccNzw1my.s:104757  .debug_str:0000000000042b12 .LASF8649
     /tmp/ccNzw1my.s:95997  .debug_str:000000000001f31e .LASF8650
     /tmp/ccNzw1my.s:99835  .debug_str:000000000002eb38 .LASF8651
     /tmp/ccNzw1my.s:93523  .debug_str:0000000000014c5a .LASF8652
     /tmp/ccNzw1my.s:90697  .debug_str:0000000000009ab8 .LASF8653
     /tmp/ccNzw1my.s:97321  .debug_str:00000000000247da .LASF8654
     /tmp/ccNzw1my.s:91951  .debug_str:000000000000eb04 .LASF8655
     /tmp/ccNzw1my.s:99737  .debug_str:000000000002e507 .LASF8656
     /tmp/ccNzw1my.s:95289  .debug_str:000000000001c204 .LASF8657
     /tmp/ccNzw1my.s:98651  .debug_str:0000000000029d68 .LASF8658
     /tmp/ccNzw1my.s:96787  .debug_str:0000000000022889 .LASF8659
     /tmp/ccNzw1my.s:104091  .debug_str:000000000003fdb7 .LASF8660
     /tmp/ccNzw1my.s:105985  .debug_str:0000000000047a62 .LASF8661
     /tmp/ccNzw1my.s:100705  .debug_str:00000000000324b6 .LASF8662
     /tmp/ccNzw1my.s:98943  .debug_str:000000000002b0d1 .LASF8663
     /tmp/ccNzw1my.s:92117  .debug_str:000000000000f49e .LASF8664
     /tmp/ccNzw1my.s:98781  .debug_str:000000000002a61e .LASF8665
     /tmp/ccNzw1my.s:104955  .debug_str:000000000004370f .LASF8666
     /tmp/ccNzw1my.s:96013  .debug_str:000000000001f469 .LASF8667
     /tmp/ccNzw1my.s:99355  .debug_str:000000000002cb3d .LASF8668
     /tmp/ccNzw1my.s:95533  .debug_str:000000000001d2af .LASF8669
     /tmp/ccNzw1my.s:101975  .debug_str:0000000000037419 .LASF8670
     /tmp/ccNzw1my.s:97219  .debug_str:0000000000024315 .LASF8671
     /tmp/ccNzw1my.s:104685  .debug_str:00000000000425ee .LASF8672
     /tmp/ccNzw1my.s:106495  .debug_str:0000000000049cf7 .LASF8673
     /tmp/ccNzw1my.s:99157  .debug_str:000000000002be61 .LASF8674
     /tmp/ccNzw1my.s:94655  .debug_str:00000000000195e1 .LASF8675
     /tmp/ccNzw1my.s:104877  .debug_str:000000000004326c .LASF8676
     /tmp/ccNzw1my.s:106669  .debug_str:000000000004a8fa .LASF8677
     /tmp/ccNzw1my.s:93197  .debug_str:00000000000138dc .LASF8678
     /tmp/ccNzw1my.s:91495  .debug_str:000000000000d1d7 .LASF8679
     /tmp/ccNzw1my.s:105837  .debug_str:0000000000047155 .LASF8680
     /tmp/ccNzw1my.s:89819  .debug_str:0000000000005fa2 .LASF8681
     /tmp/ccNzw1my.s:94823  .debug_str:000000000001a282 .LASF8682
     /tmp/ccNzw1my.s:97741  .debug_str:00000000000261d4 .LASF8683
     /tmp/ccNzw1my.s:92505  .debug_str:0000000000010af5 .LASF8684
     /tmp/ccNzw1my.s:103861  .debug_str:000000000003eded .LASF8685
     /tmp/ccNzw1my.s:96145  .debug_str:000000000001fdfe .LASF8686
     /tmp/ccNzw1my.s:90289  .debug_str:0000000000007ecf .LASF8687
     /tmp/ccNzw1my.s:107061  .debug_str:000000000004c5c7 .LASF8688
     /tmp/ccNzw1my.s:105323  .debug_str:0000000000044e61 .LASF8689
     /tmp/ccNzw1my.s:97777  .debug_str:000000000002644c .LASF8690
     /tmp/ccNzw1my.s:90291  .debug_str:0000000000007ee4 .LASF8691
     /tmp/ccNzw1my.s:105165  .debug_str:0000000000044455 .LASF8692
     /tmp/ccNzw1my.s:106159  .debug_str:000000000004854d .LASF8693
     /tmp/ccNzw1my.s:90889  .debug_str:000000000000a760 .LASF8694
     /tmp/ccNzw1my.s:92773  .debug_str:0000000000011d1a .LASF8695
     /tmp/ccNzw1my.s:90215  .debug_str:0000000000007a2a .LASF8696
     /tmp/ccNzw1my.s:102379  .debug_str:0000000000038a9b .LASF8697
     /tmp/ccNzw1my.s:94295  .debug_str:0000000000017e72 .LASF8698
     /tmp/ccNzw1my.s:94297  .debug_str:0000000000017e81 .LASF8699
     /tmp/ccNzw1my.s:94299  .debug_str:0000000000017e90 .LASF8700
     /tmp/ccNzw1my.s:96321  .debug_str:00000000000209a4 .LASF8701
     /tmp/ccNzw1my.s:94691  .debug_str:00000000000198c9 .LASF8702
     /tmp/ccNzw1my.s:94519  .debug_str:0000000000018cd5 .LASF8703
     /tmp/ccNzw1my.s:96273  .debug_str:00000000000206a1 .LASF8704
     /tmp/ccNzw1my.s:103949  .debug_str:000000000003f483 .LASF8705
     /tmp/ccNzw1my.s:92893  .debug_str:00000000000124b0 .LASF8706
     /tmp/ccNzw1my.s:101909  .debug_str:0000000000037136 .LASF8707
     /tmp/ccNzw1my.s:91807  .debug_str:000000000000e417 .LASF8708
     /tmp/ccNzw1my.s:92737  .debug_str:0000000000011a90 .LASF8709
     /tmp/ccNzw1my.s:96263  .debug_str:00000000000205c2 .LASF8710
     /tmp/ccNzw1my.s:89655  .debug_str:0000000000005442 .LASF8711
     /tmp/ccNzw1my.s:90027  .debug_str:0000000000006e20 .LASF8712
     /tmp/ccNzw1my.s:93385  .debug_str:0000000000014389 .LASF8713
     /tmp/ccNzw1my.s:93029  .debug_str:0000000000012ec2 .LASF8714
     /tmp/ccNzw1my.s:103903  .debug_str:000000000003f0a5 .LASF8715
     /tmp/ccNzw1my.s:103899  .debug_str:000000000003f093 .LASF8716
     /tmp/ccNzw1my.s:103901  .debug_str:000000000003f09c .LASF8717
     /tmp/ccNzw1my.s:98311  .debug_str:000000000002884b .LASF8718
     /tmp/ccNzw1my.s:103769  .debug_str:000000000003e6b0 .LASF8719
     /tmp/ccNzw1my.s:94155  .debug_str:0000000000017585 .LASF8720
     /tmp/ccNzw1my.s:99809  .debug_str:000000000002e9c0 .LASF8721
     /tmp/ccNzw1my.s:93157  .debug_str:0000000000013650 .LASF8722
     /tmp/ccNzw1my.s:97139  .debug_str:0000000000023eb4 .LASF8723
     /tmp/ccNzw1my.s:101657  .debug_str:0000000000036276 .LASF8724
     /tmp/ccNzw1my.s:103137  .debug_str:000000000003be66 .LASF8725
     /tmp/ccNzw1my.s:94303  .debug_str:0000000000017ec8 .LASF8726
     /tmp/ccNzw1my.s:98563  .debug_str:0000000000029815 .LASF8727
     /tmp/ccNzw1my.s:89737  .debug_str:0000000000005a7e .LASF8728
     /tmp/ccNzw1my.s:99851  .debug_str:000000000002ec7d .LASF8729
     /tmp/ccNzw1my.s:94857  .debug_str:000000000001a4a1 .LASF8730
     /tmp/ccNzw1my.s:97285  .debug_str:00000000000246b8 .LASF8731
     /tmp/ccNzw1my.s:96605  .debug_str:0000000000021cb9 .LASF8732
     /tmp/ccNzw1my.s:90161  .debug_str:00000000000076d0 .LASF8733
     /tmp/ccNzw1my.s:104517  .debug_str:0000000000041b2d .LASF8734
     /tmp/ccNzw1my.s:99241  .debug_str:000000000002c387 .LASF8735
     /tmp/ccNzw1my.s:98269  .debug_str:00000000000285b9 .LASF8736
     /tmp/ccNzw1my.s:96307  .debug_str:0000000000020917 .LASF8737
     /tmp/ccNzw1my.s:93899  .debug_str:0000000000016461 .LASF8738
     /tmp/ccNzw1my.s:103777  .debug_str:000000000003e759 .LASF8739
     /tmp/ccNzw1my.s:103913  .debug_str:000000000003f17a .LASF8740
     /tmp/ccNzw1my.s:88803  .debug_str:000000000000196b .LASF8741
     /tmp/ccNzw1my.s:95195  .debug_str:000000000001bc3c .LASF8742
     /tmp/ccNzw1my.s:100937  .debug_str:000000000003335a .LASF8743
     /tmp/ccNzw1my.s:92573  .debug_str:0000000000010eaf .LASF8744
     /tmp/ccNzw1my.s:96727  .debug_str:0000000000022464 .LASF8745
     /tmp/ccNzw1my.s:90857  .debug_str:000000000000a571 .LASF8746
     /tmp/ccNzw1my.s:96863  .debug_str:0000000000022d81 .LASF8747
     /tmp/ccNzw1my.s:98251  .debug_str:0000000000028476 .LASF8748
     /tmp/ccNzw1my.s:93093  .debug_str:000000000001324a .LASF8749
     /tmp/ccNzw1my.s:100219  .debug_str:0000000000030411 .LASF8750
     /tmp/ccNzw1my.s:105729  .debug_str:000000000004695e .LASF8751
     /tmp/ccNzw1my.s:93797  .debug_str:0000000000015d8f .LASF8752
     /tmp/ccNzw1my.s:99125  .debug_str:000000000002bc47 .LASF8753
     /tmp/ccNzw1my.s:98445  .debug_str:0000000000029145 .LASF8754
     /tmp/ccNzw1my.s:91943  .debug_str:000000000000ea78 .LASF8755
     /tmp/ccNzw1my.s:91161  .debug_str:000000000000bb91 .LASF8756
     /tmp/ccNzw1my.s:92071  .debug_str:000000000000f130 .LASF8757
     /tmp/ccNzw1my.s:90933  .debug_str:000000000000aa70 .LASF8758
     /tmp/ccNzw1my.s:106105  .debug_str:00000000000481e8 .LASF8759
     /tmp/ccNzw1my.s:97491  .debug_str:0000000000025196 .LASF8760
     /tmp/ccNzw1my.s:104385  .debug_str:00000000000411f3 .LASF8761
     /tmp/ccNzw1my.s:89807  .debug_str:0000000000005ed9 .LASF8762
     /tmp/ccNzw1my.s:91753  .debug_str:000000000000e146 .LASF8763
     /tmp/ccNzw1my.s:102941  .debug_str:000000000003b16c .LASF8764
     /tmp/ccNzw1my.s:92627  .debug_str:000000000001128c .LASF8765
     /tmp/ccNzw1my.s:98167  .debug_str:0000000000027fad .LASF8766
     /tmp/ccNzw1my.s:90029  .debug_str:0000000000006e3b .LASF8767
     /tmp/ccNzw1my.s:94035  .debug_str:0000000000016dc4 .LASF8768
     /tmp/ccNzw1my.s:91015  .debug_str:000000000000b0a0 .LASF8769
     /tmp/ccNzw1my.s:100225  .debug_str:000000000003045b .LASF8770
     /tmp/ccNzw1my.s:88469  .debug_str:0000000000000277 .LASF8771
     /tmp/ccNzw1my.s:103737  .debug_str:000000000003e503 .LASF8772
     /tmp/ccNzw1my.s:94613  .debug_str:0000000000019315 .LASF8773
     /tmp/ccNzw1my.s:98795  .debug_str:000000000002a6ea .LASF8774
     /tmp/ccNzw1my.s:103105  .debug_str:000000000003bc28 .LASF8775
     /tmp/ccNzw1my.s:102351  .debug_str:00000000000388c5 .LASF8776
     /tmp/ccNzw1my.s:89843  .debug_str:0000000000006107 .LASF8777
     /tmp/ccNzw1my.s:100221  .debug_str:0000000000030417 .LASF8778
     /tmp/ccNzw1my.s:98095  .debug_str:0000000000027a13 .LASF8779
     /tmp/ccNzw1my.s:89399  .debug_str:0000000000004343 .LASF8780
     /tmp/ccNzw1my.s:92003  .debug_str:000000000000edba .LASF8781
     /tmp/ccNzw1my.s:97651  .debug_str:0000000000025cca .LASF8782
     /tmp/ccNzw1my.s:94935  .debug_str:000000000001a9b3 .LASF8783
     /tmp/ccNzw1my.s:97355  .debug_str:0000000000024a06 .LASF8784
     /tmp/ccNzw1my.s:94781  .debug_str:0000000000019fd7 .LASF8785
     /tmp/ccNzw1my.s:106365  .debug_str:0000000000049449 .LASF8786
     /tmp/ccNzw1my.s:94913  .debug_str:000000000001a836 .LASF8787
     /tmp/ccNzw1my.s:96525  .debug_str:0000000000021738 .LASF8788
     /tmp/ccNzw1my.s:103029  .debug_str:000000000003b720 .LASF8789
     /tmp/ccNzw1my.s:88971  .debug_str:0000000000002513 .LASF8790
     /tmp/ccNzw1my.s:89183  .debug_str:0000000000003490 .LASF8791
     /tmp/ccNzw1my.s:98709  .debug_str:000000000002a1be .LASF8792
     /tmp/ccNzw1my.s:94917  .debug_str:000000000001a86c .LASF8793
     /tmp/ccNzw1my.s:101683  .debug_str:00000000000364c1 .LASF8794
     /tmp/ccNzw1my.s:98177  .debug_str:000000000002804e .LASF8795
     /tmp/ccNzw1my.s:100847  .debug_str:0000000000032d2b .LASF8796
     /tmp/ccNzw1my.s:88499  .debug_str:000000000000048f .LASF8797
     /tmp/ccNzw1my.s:96993  .debug_str:0000000000023694 .LASF8798
     /tmp/ccNzw1my.s:100051  .debug_str:000000000002f9b2 .LASF8799
     /tmp/ccNzw1my.s:88743  .debug_str:0000000000001505 .LASF8800
     /tmp/ccNzw1my.s:96435  .debug_str:0000000000021177 .LASF8801
     /tmp/ccNzw1my.s:91743  .debug_str:000000000000e060 .LASF8802
     /tmp/ccNzw1my.s:100215  .debug_str:00000000000303c0 .LASF8803
     /tmp/ccNzw1my.s:105367  .debug_str:0000000000045159 .LASF8804
     /tmp/ccNzw1my.s:96389  .debug_str:0000000000020f38 .LASF8805
     /tmp/ccNzw1my.s:102053  .debug_str:0000000000037833 .LASF8806
     /tmp/ccNzw1my.s:96119  .debug_str:000000000001fc94 .LASF8807
     /tmp/ccNzw1my.s:92357  .debug_str:0000000000010221 .LASF8808
     /tmp/ccNzw1my.s:104571  .debug_str:0000000000041e62 .LASF8809
     /tmp/ccNzw1my.s:98285  .debug_str:000000000002868e .LASF8810
     /tmp/ccNzw1my.s:90909  .debug_str:000000000000a909 .LASF8811
     /tmp/ccNzw1my.s:90223  .debug_str:0000000000007aa4 .LASF8812
     /tmp/ccNzw1my.s:98613  .debug_str:0000000000029bb9 .LASF8813
     /tmp/ccNzw1my.s:105217  .debug_str:0000000000044728 .LASF8814
     /tmp/ccNzw1my.s:104019  .debug_str:000000000003f906 .LASF8815
     /tmp/ccNzw1my.s:101867  .debug_str:0000000000036e48 .LASF8816
     /tmp/ccNzw1my.s:96777  .debug_str:00000000000227f4 .LASF8817
     /tmp/ccNzw1my.s:104333  .debug_str:0000000000040e10 .LASF8818
     /tmp/ccNzw1my.s:99973  .debug_str:000000000002f4e3 .LASF8819
     /tmp/ccNzw1my.s:100415  .debug_str:00000000000311ee .LASF8820
     /tmp/ccNzw1my.s:89873  .debug_str:00000000000062f5 .LASF8821
     /tmp/ccNzw1my.s:106701  .debug_str:000000000004aad3 .LASF8822
     /tmp/ccNzw1my.s:105297  .debug_str:0000000000044cfc .LASF8823
     /tmp/ccNzw1my.s:99475  .debug_str:000000000002d39d .LASF8824
     /tmp/ccNzw1my.s:89547  .debug_str:0000000000004cff .LASF8825
     /tmp/ccNzw1my.s:95385  .debug_str:000000000001c88c .LASF8826
     /tmp/ccNzw1my.s:104513  .debug_str:0000000000041b16 .LASF8827
     /tmp/ccNzw1my.s:103289  .debug_str:000000000003c85d .LASF8828
     /tmp/ccNzw1my.s:96089  .debug_str:000000000001fac5 .LASF8829
     /tmp/ccNzw1my.s:96091  .debug_str:000000000001facf .LASF8830
     /tmp/ccNzw1my.s:105877  .debug_str:00000000000473c1 .LASF8831
     /tmp/ccNzw1my.s:96095  .debug_str:000000000001faf6 .LASF8832
     /tmp/ccNzw1my.s:101019  .debug_str:0000000000033908 .LASF8833
     /tmp/ccNzw1my.s:99825  .debug_str:000000000002eab0 .LASF8834
     /tmp/ccNzw1my.s:105161  .debug_str:000000000004442b .LASF8835
     /tmp/ccNzw1my.s:98399  .debug_str:0000000000028df1 .LASF8836
     /tmp/ccNzw1my.s:94635  .debug_str:000000000001946b .LASF8837
     /tmp/ccNzw1my.s:100625  .debug_str:0000000000031fef .LASF8838
     /tmp/ccNzw1my.s:90765  .debug_str:0000000000009f11 .LASF8839
     /tmp/ccNzw1my.s:94417  .debug_str:0000000000018616 .LASF8840
     /tmp/ccNzw1my.s:90767  .debug_str:0000000000009f1c .LASF8841
     /tmp/ccNzw1my.s:92685  .debug_str:000000000001169d .LASF8842
     /tmp/ccNzw1my.s:90769  .debug_str:0000000000009f27 .LASF8843
     /tmp/ccNzw1my.s:98919  .debug_str:000000000002aef0 .LASF8844
     /tmp/ccNzw1my.s:90771  .debug_str:0000000000009f32 .LASF8845
     /tmp/ccNzw1my.s:95371  .debug_str:000000000001c77f .LASF8846
     /tmp/ccNzw1my.s:90773  .debug_str:0000000000009f3d .LASF8847
     /tmp/ccNzw1my.s:89349  .debug_str:0000000000003f05 .LASF8848
     /tmp/ccNzw1my.s:101171  .debug_str:00000000000343df .LASF8849
     /tmp/ccNzw1my.s:89695  .debug_str:0000000000005799 .LASF8850
     /tmp/ccNzw1my.s:98197  .debug_str:000000000002815e .LASF8851
     /tmp/ccNzw1my.s:104713  .debug_str:00000000000427e9 .LASF8852
     /tmp/ccNzw1my.s:98199  .debug_str:0000000000028168 .LASF8853
     /tmp/ccNzw1my.s:105487  .debug_str:00000000000459c9 .LASF8854
     /tmp/ccNzw1my.s:98201  .debug_str:0000000000028172 .LASF8855
     /tmp/ccNzw1my.s:92705  .debug_str:0000000000011800 .LASF8856
     /tmp/ccNzw1my.s:98203  .debug_str:000000000002817c .LASF8857
     /tmp/ccNzw1my.s:105653  .debug_str:000000000004645d .LASF8858
     /tmp/ccNzw1my.s:98205  .debug_str:0000000000028186 .LASF8859
     /tmp/ccNzw1my.s:101723  .debug_str:0000000000036694 .LASF8860
     /tmp/ccNzw1my.s:98207  .debug_str:0000000000028190 .LASF8861
     /tmp/ccNzw1my.s:93655  .debug_str:000000000001553c .LASF8862
     /tmp/ccNzw1my.s:98209  .debug_str:000000000002819a .LASF8863
     /tmp/ccNzw1my.s:106573  .debug_str:000000000004a236 .LASF8864
     /tmp/ccNzw1my.s:97227  .debug_str:0000000000024385 .LASF8865
     /tmp/ccNzw1my.s:91719  .debug_str:000000000000deeb .LASF8866
     /tmp/ccNzw1my.s:94439  .debug_str:000000000001874e .LASF8867
     /tmp/ccNzw1my.s:98731  .debug_str:000000000002a356 .LASF8868
     /tmp/ccNzw1my.s:92633  .debug_str:000000000001130c .LASF8869
     /tmp/ccNzw1my.s:93473  .debug_str:0000000000014924 .LASF8870
     /tmp/ccNzw1my.s:105019  .debug_str:0000000000043b13 .LASF8871
     /tmp/ccNzw1my.s:92345  .debug_str:00000000000101aa .LASF8872
     /tmp/ccNzw1my.s:103921  .debug_str:000000000003f1e8 .LASF8873
     /tmp/ccNzw1my.s:106067  .debug_str:0000000000047f88 .LASF8874
     /tmp/ccNzw1my.s:103213  .debug_str:000000000003c37f .LASF8875
     /tmp/ccNzw1my.s:93311  .debug_str:0000000000013fda .LASF8876
     /tmp/ccNzw1my.s:88835  .debug_str:0000000000001bc5 .LASF8877
     /tmp/ccNzw1my.s:99177  .debug_str:000000000002bf4e .LASF8878
     /tmp/ccNzw1my.s:106187  .debug_str:000000000004877a .LASF8879
     /tmp/ccNzw1my.s:102493  .debug_str:0000000000039258 .LASF8880
     /tmp/ccNzw1my.s:100255  .debug_str:0000000000030623 .LASF8881
     /tmp/ccNzw1my.s:104645  .debug_str:00000000000423af .LASF8882
     /tmp/ccNzw1my.s:96111  .debug_str:000000000001fc1a .LASF8883
     /tmp/ccNzw1my.s:100121  .debug_str:000000000002fdcf .LASF8884
     /tmp/ccNzw1my.s:92787  .debug_str:0000000000011dcd .LASF8885
     /tmp/ccNzw1my.s:93001  .debug_str:0000000000012ca7 .LASF8886
     /tmp/ccNzw1my.s:94993  .debug_str:000000000001ad75 .LASF8887
     /tmp/ccNzw1my.s:96139  .debug_str:000000000001fda5 .LASF8888
     /tmp/ccNzw1my.s:97601  .debug_str:0000000000025934 .LASF8889
     /tmp/ccNzw1my.s:90363  .debug_str:000000000000840f .LASF8890
     /tmp/ccNzw1my.s:99391  .debug_str:000000000002cdee .LASF8891
     /tmp/ccNzw1my.s:94595  .debug_str:000000000001921d .LASF8892
     /tmp/ccNzw1my.s:93825  .debug_str:0000000000015fa8 .LASF8893
     /tmp/ccNzw1my.s:105063  .debug_str:0000000000043e12 .LASF8894
     /tmp/ccNzw1my.s:94565  .debug_str:0000000000018ffb .LASF8895
     /tmp/ccNzw1my.s:98147  .debug_str:0000000000027e4c .LASF8896
     /tmp/ccNzw1my.s:88643  .debug_str:0000000000000e50 .LASF8897
     /tmp/ccNzw1my.s:95161  .debug_str:000000000001b9a0 .LASF8898
     /tmp/ccNzw1my.s:101695  .debug_str:00000000000364eb .LASF8899
     /tmp/ccNzw1my.s:100131  .debug_str:000000000002fe48 .LASF8900
     /tmp/ccNzw1my.s:96761  .debug_str:00000000000226d0 .LASF8901
     /tmp/ccNzw1my.s:97851  .debug_str:0000000000026a16 .LASF8902
     /tmp/ccNzw1my.s:96555  .debug_str:0000000000021949 .LASF8903
     /tmp/ccNzw1my.s:88693  .debug_str:00000000000011dc .LASF8904
     /tmp/ccNzw1my.s:88833  .debug_str:0000000000001ba1 .LASF8905
     /tmp/ccNzw1my.s:91463  .debug_str:000000000000cfb9 .LASF8906
     /tmp/ccNzw1my.s:91195  .debug_str:000000000000bdbe .LASF8907
     /tmp/ccNzw1my.s:99383  .debug_str:000000000002cd90 .LASF8908
     /tmp/ccNzw1my.s:95233  .debug_str:000000000001be65 .LASF8909
     /tmp/ccNzw1my.s:99139  .debug_str:000000000002bd4d .LASF8910
     /tmp/ccNzw1my.s:99141  .debug_str:000000000002bd52 .LASF8911
     /tmp/ccNzw1my.s:90181  .debug_str:00000000000077ed .LASF8912
     /tmp/ccNzw1my.s:90183  .debug_str:00000000000077f2 .LASF8913
     /tmp/ccNzw1my.s:106367  .debug_str:000000000004945e .LASF8914
     /tmp/ccNzw1my.s:102955  .debug_str:000000000003b229 .LASF8915
     /tmp/ccNzw1my.s:104253  .debug_str:000000000004091e .LASF8916
     /tmp/ccNzw1my.s:104255  .debug_str:0000000000040924 .LASF8917
     /tmp/ccNzw1my.s:104259  .debug_str:0000000000040938 .LASF8918
     /tmp/ccNzw1my.s:97653  .debug_str:0000000000025cd8 .LASF8919
     /tmp/ccNzw1my.s:105531  .debug_str:0000000000045c96 .LASF8920
     /tmp/ccNzw1my.s:94549  .debug_str:0000000000018ecf .LASF8921
     /tmp/ccNzw1my.s:104709  .debug_str:00000000000427c3 .LASF8922
     /tmp/ccNzw1my.s:89273  .debug_str:0000000000003a3f .LASF8923
     /tmp/ccNzw1my.s:96313  .debug_str:0000000000020957 .LASF8924
     /tmp/ccNzw1my.s:98887  .debug_str:000000000002ad0c .LASF8925
     /tmp/ccNzw1my.s:104195  .debug_str:0000000000040578 .LASF8926
     /tmp/ccNzw1my.s:92653  .debug_str:000000000001147c .LASF8927
     /tmp/ccNzw1my.s:99189  .debug_str:000000000002c039 .LASF8928
     /tmp/ccNzw1my.s:89097  .debug_str:0000000000002e32 .LASF8929
     /tmp/ccNzw1my.s:100111  .debug_str:000000000002fd48 .LASF8930
     /tmp/ccNzw1my.s:96947  .debug_str:000000000002333e .LASF8931
     /tmp/ccNzw1my.s:99191  .debug_str:000000000002c042 .LASF8932
     /tmp/ccNzw1my.s:98765  .debug_str:000000000002a556 .LASF8933
     /tmp/ccNzw1my.s:94727  .debug_str:0000000000019b0d .LASF8934
     /tmp/ccNzw1my.s:90151  .debug_str:0000000000007638 .LASF8935
     /tmp/ccNzw1my.s:99725  .debug_str:000000000002e431 .LASF8936
     /tmp/ccNzw1my.s:89607  .debug_str:00000000000050d5 .LASF8937
     /tmp/ccNzw1my.s:96871  .debug_str:0000000000022dee .LASF8938
     /tmp/ccNzw1my.s:106887  .debug_str:000000000004b996 .LASF8939
     /tmp/ccNzw1my.s:95819  .debug_str:000000000001e670 .LASF8940
     /tmp/ccNzw1my.s:107153  .debug_str:000000000004cb9d .LASF8941
     /tmp/ccNzw1my.s:90501  .debug_str:0000000000008d78 .LASF8942
     /tmp/ccNzw1my.s:89031  .debug_str:00000000000029af .LASF8943
     /tmp/ccNzw1my.s:104303  .debug_str:0000000000040b87 .LASF8944
     /tmp/ccNzw1my.s:103601  .debug_str:000000000003dc60 .LASF8945
     /tmp/ccNzw1my.s:97803  .debug_str:0000000000026667 .LASF8946
     /tmp/ccNzw1my.s:102355  .debug_str:0000000000038908 .LASF8947
     /tmp/ccNzw1my.s:105515  .debug_str:0000000000045ba1 .LASF8948
     /tmp/ccNzw1my.s:94205  .debug_str:00000000000178e6 .LASF8949
     /tmp/ccNzw1my.s:99751  .debug_str:000000000002e5c1 .LASF8950
     /tmp/ccNzw1my.s:103117  .debug_str:000000000003bd14 .LASF8951
     /tmp/ccNzw1my.s:100497  .debug_str:0000000000031792 .LASF8952
     /tmp/ccNzw1my.s:99057  .debug_str:000000000002b8b5 .LASF8953
     /tmp/ccNzw1my.s:94009  .debug_str:0000000000016ba5 .LASF8954
     /tmp/ccNzw1my.s:93341  .debug_str:000000000001418e .LASF8955
     /tmp/ccNzw1my.s:95839  .debug_str:000000000001e7f8 .LASF8956
     /tmp/ccNzw1my.s:95741  .debug_str:000000000001e073 .LASF8957
     /tmp/ccNzw1my.s:102377  .debug_str:0000000000038a93 .LASF8958
     /tmp/ccNzw1my.s:103865  .debug_str:000000000003ee1d .LASF8959
     /tmp/ccNzw1my.s:94931  .debug_str:000000000001a99d .LASF8960
     /tmp/ccNzw1my.s:94939  .debug_str:000000000001a9cc .LASF8961
     /tmp/ccNzw1my.s:98965  .debug_str:000000000002b299 .LASF8962
     /tmp/ccNzw1my.s:101549  .debug_str:0000000000035baf .LASF8963
     /tmp/ccNzw1my.s:99061  .debug_str:000000000002b8e8 .LASF8964
     /tmp/ccNzw1my.s:92813  .debug_str:0000000000011f9d .LASF8965
     /tmp/ccNzw1my.s:95547  .debug_str:000000000001d37c .LASF8966
     /tmp/ccNzw1my.s:95125  .debug_str:000000000001b794 .LASF8967
     /tmp/ccNzw1my.s:107255  .debug_str:000000000004d34d .LASF8968
     /tmp/ccNzw1my.s:88615  .debug_str:0000000000000c64 .LASF8969
     /tmp/ccNzw1my.s:88737  .debug_str:00000000000014cf .LASF8970
     /tmp/ccNzw1my.s:94765  .debug_str:0000000000019e38 .LASF8971
     /tmp/ccNzw1my.s:89915  .debug_str:000000000000658f .LASF8972
     /tmp/ccNzw1my.s:97369  .debug_str:0000000000024b06 .LASF8973
     /tmp/ccNzw1my.s:103863  .debug_str:000000000003ee16 .LASF8974
     /tmp/ccNzw1my.s:94937  .debug_str:000000000001a9c2 .LASF8975
     /tmp/ccNzw1my.s:98627  .debug_str:0000000000029c6a .LASF8976
     /tmp/ccNzw1my.s:94497  .debug_str:0000000000018b6a .LASF8977
     /tmp/ccNzw1my.s:88739  .debug_str:00000000000014da .LASF8978
     /tmp/ccNzw1my.s:88769  .debug_str:0000000000001689 .LASF8979
     /tmp/ccNzw1my.s:101673  .debug_str:00000000000363ea .LASF8980
     /tmp/ccNzw1my.s:95695  .debug_str:000000000001dda1 .LASF8981
     /tmp/ccNzw1my.s:95697  .debug_str:000000000001ddab .LASF8982
     /tmp/ccNzw1my.s:95699  .debug_str:000000000001ddb5 .LASF8983
     /tmp/ccNzw1my.s:95701  .debug_str:000000000001ddbf .LASF8984
     /tmp/ccNzw1my.s:95703  .debug_str:000000000001ddc9 .LASF8985
     /tmp/ccNzw1my.s:100781  .debug_str:0000000000032954 .LASF8986
     /tmp/ccNzw1my.s:95705  .debug_str:000000000001ddd3 .LASF8987
     /tmp/ccNzw1my.s:91905  .debug_str:000000000000e84b .LASF8988
     /tmp/ccNzw1my.s:91907  .debug_str:000000000000e856 .LASF8989
     /tmp/ccNzw1my.s:106769  .debug_str:000000000004b06a .LASF8990
     /tmp/ccNzw1my.s:104015  .debug_str:000000000003f8f0 .LASF8991
     /tmp/ccNzw1my.s:90045  .debug_str:0000000000006f1f .LASF8992
     /tmp/ccNzw1my.s:96677  .debug_str:00000000000220f6 .LASF8993
     /tmp/ccNzw1my.s:90211  .debug_str:0000000000007a13 .LASF8994
     /tmp/ccNzw1my.s:104017  .debug_str:000000000003f8fb .LASF8995
     /tmp/ccNzw1my.s:103067  .debug_str:000000000003b9a3 .LASF8996
     /tmp/ccNzw1my.s:88901  .debug_str:000000000000201f .LASF8997
     /tmp/ccNzw1my.s:94343  .debug_str:0000000000018108 .LASF8998
     /tmp/ccNzw1my.s:96999  .debug_str:00000000000236f7 .LASF8999
     /tmp/ccNzw1my.s:103275  .debug_str:000000000003c78c .LASF9000
     /tmp/ccNzw1my.s:102905  .debug_str:000000000003aed1 .LASF9001
     /tmp/ccNzw1my.s:88883  .debug_str:0000000000001ece .LASF9002
     /tmp/ccNzw1my.s:92953  .debug_str:00000000000128af .LASF9003
     /tmp/ccNzw1my.s:95917  .debug_str:000000000001ecd9 .LASF9004
     /tmp/ccNzw1my.s:97069  .debug_str:0000000000023b24 .LASF9005
     /tmp/ccNzw1my.s:92535  .debug_str:0000000000010cf2 .LASF9006
     /tmp/ccNzw1my.s:97071  .debug_str:0000000000023b2f .LASF9007
     /tmp/ccNzw1my.s:104705  .debug_str:0000000000042758 .LASF9008
     /tmp/ccNzw1my.s:93439  .debug_str:0000000000014706 .LASF9009
     /tmp/ccNzw1my.s:106821  .debug_str:000000000004b4b8 .LASF9010
     /tmp/ccNzw1my.s:93441  .debug_str:0000000000014711 .LASF9011
     /tmp/ccNzw1my.s:100871  .debug_str:0000000000032f05 .LASF9012
     /tmp/ccNzw1my.s:93443  .debug_str:000000000001471c .LASF9013
     /tmp/ccNzw1my.s:94833  .debug_str:000000000001a331 .LASF9014
     /tmp/ccNzw1my.s:96395  .debug_str:0000000000020f73 .LASF9015
     /tmp/ccNzw1my.s:101823  .debug_str:0000000000036c74 .LASF9016
     /tmp/ccNzw1my.s:93235  .debug_str:0000000000013b1f .LASF9017
     /tmp/ccNzw1my.s:90443  .debug_str:0000000000008923 .LASF9018
     /tmp/ccNzw1my.s:93237  .debug_str:0000000000013b2a .LASF9019
     /tmp/ccNzw1my.s:103483  .debug_str:000000000003d4c0 .LASF9020
     /tmp/ccNzw1my.s:93571  .debug_str:0000000000014f9a .LASF9021
     /tmp/ccNzw1my.s:104819  .debug_str:0000000000042ee2 .LASF9022
     /tmp/ccNzw1my.s:101847  .debug_str:0000000000036de6 .LASF9023
     /tmp/ccNzw1my.s:98859  .debug_str:000000000002ab4b .LASF9024
     /tmp/ccNzw1my.s:93579  .debug_str:000000000001500b .LASF9025
     /tmp/ccNzw1my.s:104583  .debug_str:0000000000041f11 .LASF9026
     /tmp/ccNzw1my.s:99971  .debug_str:000000000002f4d9 .LASF9027
     /tmp/ccNzw1my.s:88721  .debug_str:0000000000001379 .LASF9028
     /tmp/ccNzw1my.s:94887  .debug_str:000000000001a690 .LASF9029
     /tmp/ccNzw1my.s:107265  .debug_str:000000000004d3b2 .LASF9030
     /tmp/ccNzw1my.s:94889  .debug_str:000000000001a69b .LASF9031
     /tmp/ccNzw1my.s:100519  .debug_str:00000000000318cf .LASF9032
     /tmp/ccNzw1my.s:91133  .debug_str:000000000000b9d0 .LASF9033
     /tmp/ccNzw1my.s:90353  .debug_str:00000000000083a9 .LASF9034
     /tmp/ccNzw1my.s:91135  .debug_str:000000000000b9db .LASF9035
     /tmp/ccNzw1my.s:96765  .debug_str:00000000000226fa .LASF9036
     /tmp/ccNzw1my.s:91137  .debug_str:000000000000b9e6 .LASF9037
     /tmp/ccNzw1my.s:90667  .debug_str:0000000000009931 .LASF9038
     /tmp/ccNzw1my.s:103501  .debug_str:000000000003d60a .LASF9039
     /tmp/ccNzw1my.s:94593  .debug_str:00000000000191f7 .LASF9040
     /tmp/ccNzw1my.s:98185  .debug_str:00000000000280c5 .LASF9041
     /tmp/ccNzw1my.s:98187  .debug_str:00000000000280d9 .LASF9042
     /tmp/ccNzw1my.s:98189  .debug_str:00000000000280ed .LASF9043
     /tmp/ccNzw1my.s:97229  .debug_str:0000000000024391 .LASF9044
     /tmp/ccNzw1my.s:97231  .debug_str:00000000000243a2 .LASF9045
     /tmp/ccNzw1my.s:88917  .debug_str:0000000000002182 .LASF9046
     /tmp/ccNzw1my.s:97235  .debug_str:00000000000243e0 .LASF9047
     /tmp/ccNzw1my.s:97237  .debug_str:00000000000243f1 .LASF9048
     /tmp/ccNzw1my.s:90179  .debug_str:00000000000077db .LASF9049
     /tmp/ccNzw1my.s:97319  .debug_str:00000000000247c5 .LASF9050
     /tmp/ccNzw1my.s:93549  .debug_str:0000000000014dd7 .LASF9051
     /tmp/ccNzw1my.s:93573  .debug_str:0000000000014fa5 .LASF9052
     /tmp/ccNzw1my.s:106683  .debug_str:000000000004a9d6 .LASF9053
     /tmp/ccNzw1my.s:104463  .debug_str:00000000000417d4 .LASF9054
     /tmp/ccNzw1my.s:100621  .debug_str:0000000000031fc3 .LASF9055
     /tmp/ccNzw1my.s:105897  .debug_str:00000000000474fa .LASF9056
     /tmp/ccNzw1my.s:104633  .debug_str:00000000000422c1 .LASF9057
     /tmp/ccNzw1my.s:92745  .debug_str:0000000000011b24 .LASF9058
     /tmp/ccNzw1my.s:95321  .debug_str:000000000001c3f9 .LASF9059
     /tmp/ccNzw1my.s:99081  .debug_str:000000000002b9e0 .LASF9060
     /tmp/ccNzw1my.s:101633  .debug_str:00000000000360db .LASF9061
     /tmp/ccNzw1my.s:104553  .debug_str:0000000000041d67 .LASF9062
     /tmp/ccNzw1my.s:89583  .debug_str:0000000000004f62 .LASF9063
     /tmp/ccNzw1my.s:96511  .debug_str:0000000000021645 .LASF9064
     /tmp/ccNzw1my.s:95075  .debug_str:000000000001b3fa .LASF9065
     /tmp/ccNzw1my.s:98883  .debug_str:000000000002acc6 .LASF9066
     /tmp/ccNzw1my.s:97531  .debug_str:000000000002543d .LASF9067
     /tmp/ccNzw1my.s:99569  .debug_str:000000000002d960 .LASF9068
     /tmp/ccNzw1my.s:90853  .debug_str:000000000000a534 .LASF9069
     /tmp/ccNzw1my.s:96741  .debug_str:000000000002253c .LASF9070
     /tmp/ccNzw1my.s:99989  .debug_str:000000000002f60b .LASF9071
     /tmp/ccNzw1my.s:96021  .debug_str:000000000001f505 .LASF9072
     /tmp/ccNzw1my.s:102413  .debug_str:0000000000038cf3 .LASF9073
     /tmp/ccNzw1my.s:102415  .debug_str:0000000000038cfe .LASF9074
     /tmp/ccNzw1my.s:102417  .debug_str:0000000000038d09 .LASF9075
     /tmp/ccNzw1my.s:102419  .debug_str:0000000000038d14 .LASF9076
     /tmp/ccNzw1my.s:89197  .debug_str:0000000000003502 .LASF9077
     /tmp/ccNzw1my.s:95879  .debug_str:000000000001ea7b .LASF9078
     /tmp/ccNzw1my.s:101231  .debug_str:00000000000347b1 .LASF9079
     /tmp/ccNzw1my.s:92415  .debug_str:00000000000104d9 .LASF9080
     /tmp/ccNzw1my.s:106919  .debug_str:000000000004bbea .LASF9081
     /tmp/ccNzw1my.s:104923  .debug_str:0000000000043547 .LASF9082
     /tmp/ccNzw1my.s:90673  .debug_str:000000000000998d .LASF9083
     /tmp/ccNzw1my.s:104449  .debug_str:00000000000416ce .LASF9084
     /tmp/ccNzw1my.s:106301  .debug_str:0000000000049015 .LASF9085
     /tmp/ccNzw1my.s:103433  .debug_str:000000000003d156 .LASF9086
     /tmp/ccNzw1my.s:92443  .debug_str:000000000001074f .LASF9087
     /tmp/ccNzw1my.s:94999  .debug_str:000000000001ae01 .LASF9088
     /tmp/ccNzw1my.s:99701  .debug_str:000000000002e2c9 .LASF9089
     /tmp/ccNzw1my.s:93633  .debug_str:0000000000015408 .LASF9090
     /tmp/ccNzw1my.s:94513  .debug_str:0000000000018cab .LASF9331
     /tmp/ccNzw1my.s:94601  .debug_str:00000000000192b2 .LASF9091
     /tmp/ccNzw1my.s:92043  .debug_str:000000000000f042 .LASF9092
     /tmp/ccNzw1my.s:94603  .debug_str:00000000000192b7 .LASF9093
     /tmp/ccNzw1my.s:96615  .debug_str:0000000000021d39 .LASF9094
     /tmp/ccNzw1my.s:96617  .debug_str:0000000000021d40 .LASF9095
     /tmp/ccNzw1my.s:96567  .debug_str:0000000000021a15 .LASF9096
     /tmp/ccNzw1my.s:93317  .debug_str:0000000000014018 .LASF9102
     /tmp/ccNzw1my.s:100697  .debug_str:0000000000032427 .LASF9097
     /tmp/ccNzw1my.s:95689  .debug_str:000000000001dd83 .LASF9098
     /tmp/ccNzw1my.s:107105  .debug_str:000000000004c8b9 .LASF9099
     /tmp/ccNzw1my.s:106785  .debug_str:000000000004b1b4 .LASF9100
     /tmp/ccNzw1my.s:104991  .debug_str:0000000000043928 .LASF9101
     /tmp/ccNzw1my.s:93253  .debug_str:0000000000013c58 .LASF9103
     /tmp/ccNzw1my.s:105715  .debug_str:0000000000046868 .LASF9104
     /tmp/ccNzw1my.s:94951  .debug_str:000000000001aa71 .LASF9105
     /tmp/ccNzw1my.s:91609  .debug_str:000000000000d82b .LASF9106
     /tmp/ccNzw1my.s:99985  .debug_str:000000000002f5be .LASF9107
     /tmp/ccNzw1my.s:93551  .debug_str:0000000000014de6 .LASF9108
     /tmp/ccNzw1my.s:101505  .debug_str:0000000000035954 .LASF9109
     /tmp/ccNzw1my.s:101115  .debug_str:0000000000033f61 .LASF9110
     /tmp/ccNzw1my.s:106313  .debug_str:000000000004909a .LASF9111
     /tmp/ccNzw1my.s:89015  .debug_str:00000000000028ad .LASF9112
     /tmp/ccNzw1my.s:93277  .debug_str:0000000000013d94 .LASF9113
     /tmp/ccNzw1my.s:98267  .debug_str:00000000000285ad .LASF9114
     /tmp/ccNzw1my.s:101789  .debug_str:0000000000036a07 .LASF9115
     /tmp/ccNzw1my.s:105393  .debug_str:00000000000452e1 .LASF9116
     /tmp/ccNzw1my.s:98655  .debug_str:0000000000029d9b .LASF9117
     /tmp/ccNzw1my.s:94949  .debug_str:000000000001aa54 .LASF9118
     /tmp/ccNzw1my.s:102831  .debug_str:000000000003a9fc .LASF9119
     /tmp/ccNzw1my.s:99993  .debug_str:000000000002f643 .LASF9120
     /tmp/ccNzw1my.s:90791  .debug_str:000000000000a0a0 .LASF9121
     /tmp/ccNzw1my.s:96093  .debug_str:000000000001fad9 .LASF9122
     /tmp/ccNzw1my.s:101489  .debug_str:000000000003585f .LASF9123
     /tmp/ccNzw1my.s:92275  .debug_str:000000000000fdc1 .LASF9124
     /tmp/ccNzw1my.s:93291  .debug_str:0000000000013e8d .LASF9125
     /tmp/ccNzw1my.s:107353  .debug_str:000000000004d9b5 .LASF9126
     /tmp/ccNzw1my.s:104053  .debug_str:000000000003fb3f .LASF9127
     /tmp/ccNzw1my.s:93149  .debug_str:00000000000135f1 .LASF9128
     /tmp/ccNzw1my.s:88875  .debug_str:0000000000001e3c .LASF9129
     /tmp/ccNzw1my.s:103403  .debug_str:000000000003cf43 .LASF9130
     /tmp/ccNzw1my.s:99209  .debug_str:000000000002c151 .LASF9131
     /tmp/ccNzw1my.s:94705  .debug_str:00000000000199bd .LASF9132
     /tmp/ccNzw1my.s:90369  .debug_str:000000000000846c .LASF9133
     /tmp/ccNzw1my.s:105145  .debug_str:0000000000044342 .LASF9134
     /tmp/ccNzw1my.s:100739  .debug_str:00000000000326bc .LASF9135
     /tmp/ccNzw1my.s:96447  .debug_str:0000000000021201 .LASF9136
     /tmp/ccNzw1my.s:91939  .debug_str:000000000000ea27 .LASF9137
     /tmp/ccNzw1my.s:105365  .debug_str:000000000004512e .LASF9138
     /tmp/ccNzw1my.s:95111  .debug_str:000000000001b644 .LASF9139
     /tmp/ccNzw1my.s:91117  .debug_str:000000000000b8a6 .LASF9140
     /tmp/ccNzw1my.s:102217  .debug_str:0000000000038070 .LASF9141
     /tmp/ccNzw1my.s:88993  .debug_str:00000000000026e5 .LASF9142
     /tmp/ccNzw1my.s:97869  .debug_str:0000000000026ade .LASF9143
     /tmp/ccNzw1my.s:106835  .debug_str:000000000004b5ed .LASF9144
     /tmp/ccNzw1my.s:96881  .debug_str:0000000000022e6f .LASF9145
     /tmp/ccNzw1my.s:105879  .debug_str:00000000000473cb .LASF9146
     /tmp/ccNzw1my.s:95967  .debug_str:000000000001f10a .LASF9147
     /tmp/ccNzw1my.s:91027  .debug_str:000000000000b182 .LASF9148
     /tmp/ccNzw1my.s:99981  .debug_str:000000000002f58d .LASF9149
     /tmp/ccNzw1my.s:89629  .debug_str:0000000000005240 .LASF9150
     /tmp/ccNzw1my.s:99063  .debug_str:000000000002b8f0 .LASF9151
     /tmp/ccNzw1my.s:96361  .debug_str:0000000000020ca6 .LASF9152
     /tmp/ccNzw1my.s:105335  .debug_str:0000000000044f17 .LASF9153
     /tmp/ccNzw1my.s:95383  .debug_str:000000000001c861 .LASF9154
     /tmp/ccNzw1my.s:104203  .debug_str:000000000004062a .LASF9155
     /tmp/ccNzw1my.s:94271  .debug_str:0000000000017d0b .LASF9156
     /tmp/ccNzw1my.s:103285  .debug_str:000000000003c820 .LASF9157
     /tmp/ccNzw1my.s:98491  .debug_str:00000000000293b5 .LASF9158
     /tmp/ccNzw1my.s:88491  .debug_str:00000000000003ff .LASF9159
     /tmp/ccNzw1my.s:94615  .debug_str:000000000001931f .LASF9160
     /tmp/ccNzw1my.s:105001  .debug_str:00000000000439c6 .LASF9161
     /tmp/ccNzw1my.s:102551  .debug_str:0000000000039617 .LASF9162
     /tmp/ccNzw1my.s:92891  .debug_str:0000000000012494 .LASF9163
     /tmp/ccNzw1my.s:103251  .debug_str:000000000003c5da .LASF9164
     /tmp/ccNzw1my.s:94669  .debug_str:00000000000196f8 .LASF9165
     /tmp/ccNzw1my.s:89987  .debug_str:0000000000006ab1 .LASF9166
     /tmp/ccNzw1my.s:102259  .debug_str:00000000000382b3 .LASF9167
     /tmp/ccNzw1my.s:96817  .debug_str:0000000000022aa8 .LASF9168
     /tmp/ccNzw1my.s:101967  .debug_str:00000000000373a6 .LASF9169
     /tmp/ccNzw1my.s:93313  .debug_str:0000000000013fe2 .LASF9170
     /tmp/ccNzw1my.s:99243  .debug_str:000000000002c393 .LASF9171
     /tmp/ccNzw1my.s:90487  .debug_str:0000000000008cc7 .LASF9172
     /tmp/ccNzw1my.s:95771  .debug_str:000000000001e31f .LASF9173
     /tmp/ccNzw1my.s:99323  .debug_str:000000000002c93c .LASF9174
     /tmp/ccNzw1my.s:101169  .debug_str:00000000000343c6 .LASF9175
     /tmp/ccNzw1my.s:105521  .debug_str:0000000000045bf4 .LASF9176
     /tmp/ccNzw1my.s:88495  .debug_str:0000000000000463 .LASF9177
     /tmp/ccNzw1my.s:91565  .debug_str:000000000000d5f2 .LASF9178
     /tmp/ccNzw1my.s:105895  .debug_str:00000000000474e1 .LASF9179
     /tmp/ccNzw1my.s:107357  .debug_str:000000000004d9e3 .LASF9180
     /tmp/ccNzw1my.s:98853  .debug_str:000000000002aac8 .LASF9181
     /tmp/ccNzw1my.s:90147  .debug_str:00000000000075f5 .LASF9182
     /tmp/ccNzw1my.s:93831  .debug_str:0000000000015fcf .LASF9183
     /tmp/ccNzw1my.s:104543  .debug_str:0000000000041cea .LASF9184
     /tmp/ccNzw1my.s:97573  .debug_str:0000000000025770 .LASF9185
     /tmp/ccNzw1my.s:101301  .debug_str:0000000000034c4f .LASF9186
     /tmp/ccNzw1my.s:99951  .debug_str:000000000002f379 .LASF9187
     /tmp/ccNzw1my.s:103087  .debug_str:000000000003bb29 .LASF9188
     /tmp/ccNzw1my.s:89921  .debug_str:00000000000065e1 .LASF9189
     /tmp/ccNzw1my.s:94261  .debug_str:0000000000017c80 .LASF9190
     /tmp/ccNzw1my.s:102949  .debug_str:000000000003b1df .LASF9191
     /tmp/ccNzw1my.s:107065  .debug_str:000000000004c60b .LASF9192
     /tmp/ccNzw1my.s:89829  .debug_str:0000000000006034 .LASF9193
     /tmp/ccNzw1my.s:105125  .debug_str:00000000000441f4 .LASF9194
     /tmp/ccNzw1my.s:104637  .debug_str:0000000000042318 .LASF9195
     /tmp/ccNzw1my.s:89241  .debug_str:00000000000037e7 .LASF9196
     /tmp/ccNzw1my.s:94811  .debug_str:000000000001a1b9 .LASF9197
     /tmp/ccNzw1my.s:88479  .debug_str:000000000000030f .LASF9198
     /tmp/ccNzw1my.s:94359  .debug_str:00000000000181ab .LASF9199
     /tmp/ccNzw1my.s:104291  .debug_str:0000000000040aba .LASF9200
     /tmp/ccNzw1my.s:89925  .debug_str:0000000000006613 .LASF9201
     /tmp/ccNzw1my.s:94881  .debug_str:000000000001a609 .LASF9202
     /tmp/ccNzw1my.s:89169  .debug_str:00000000000033a7 .LASF9203
     /tmp/ccNzw1my.s:94161  .debug_str:00000000000175f5 .LASF9204
     /tmp/ccNzw1my.s:92409  .debug_str:0000000000010472 .LASF9205
     /tmp/ccNzw1my.s:102859  .debug_str:000000000003abcc .LASF9206
     /tmp/ccNzw1my.s:94369  .debug_str:000000000001828a .LASF9207
     /tmp/ccNzw1my.s:104749  .debug_str:0000000000042a97 .LASF9208
     /tmp/ccNzw1my.s:96195  .debug_str:00000000000200e8 .LASF9209
     /tmp/ccNzw1my.s:88611  .debug_str:0000000000000c12 .LASF9210
     /tmp/ccNzw1my.s:96585  .debug_str:0000000000021b2d .LASF9211
     /tmp/ccNzw1my.s:102873  .debug_str:000000000003ac97 .LASF9212
     /tmp/ccNzw1my.s:90309  .debug_str:0000000000008073 .LASF9213
     /tmp/ccNzw1my.s:93241  .debug_str:0000000000013b5e .LASF9214
     /tmp/ccNzw1my.s:90205  .debug_str:00000000000079a1 .LASF9215
     /tmp/ccNzw1my.s:90593  .debug_str:0000000000009393 .LASF9216
     /tmp/ccNzw1my.s:101419  .debug_str:00000000000353c5 .LASF9217
     /tmp/ccNzw1my.s:91389  .debug_str:000000000000ca98 .LASF9218
     /tmp/ccNzw1my.s:93773  .debug_str:0000000000015c61 .LASF9219
     /tmp/ccNzw1my.s:103991  .debug_str:000000000003f794 .LASF9220
     /tmp/ccNzw1my.s:99705  .debug_str:000000000002e2f9 .LASF9221
     /tmp/ccNzw1my.s:96397  .debug_str:0000000000020f7d .LASF9222
     /tmp/ccNzw1my.s:92425  .debug_str:00000000000105c0 .LASF9223
     /tmp/ccNzw1my.s:105147  .debug_str:000000000004436b .LASF9224
     /tmp/ccNzw1my.s:103381  .debug_str:000000000003ceb4 .LASF9225
     /tmp/ccNzw1my.s:106293  .debug_str:0000000000048f70 .LASF9226
     /tmp/ccNzw1my.s:100083  .debug_str:000000000002fba5 .LASF9227
     /tmp/ccNzw1my.s:104933  .debug_str:00000000000435b6 .LASF9228
     /tmp/ccNzw1my.s:98357  .debug_str:0000000000028b48 .LASF9229
     /tmp/ccNzw1my.s:101561  .debug_str:0000000000035caa .LASF9230
     /tmp/ccNzw1my.s:105957  .debug_str:0000000000047873 .LASF9231
     /tmp/ccNzw1my.s:96943  .debug_str:00000000000232f5 .LASF9232
     /tmp/ccNzw1my.s:107319  .debug_str:000000000004d78d .LASF9233
     /tmp/ccNzw1my.s:98813  .debug_str:000000000002a7c2 .LASF9234
     /tmp/ccNzw1my.s:90099  .debug_str:0000000000007295 .LASF9235
     /tmp/ccNzw1my.s:100547  .debug_str:0000000000031ad9 .LASF9236
     /tmp/ccNzw1my.s:89717  .debug_str:000000000000594d .LASF9237
     /tmp/ccNzw1my.s:102543  .debug_str:00000000000395c1 .LASF9238
     /tmp/ccNzw1my.s:93859  .debug_str:000000000001620a .LASF9239
     /tmp/ccNzw1my.s:103397  .debug_str:000000000003cf21 .LASF9240
     /tmp/ccNzw1my.s:95797  .debug_str:000000000001e506 .LASF9241
     /tmp/ccNzw1my.s:94151  .debug_str:000000000001752b .LASF9242
     /tmp/ccNzw1my.s:100605  .debug_str:0000000000031eaa .LASF9243
     /tmp/ccNzw1my.s:91919  .debug_str:000000000000e8e2 .LASF9244
     /tmp/ccNzw1my.s:102439  .debug_str:0000000000038edb .LASF9245
     /tmp/ccNzw1my.s:100381  .debug_str:0000000000030f6a .LASF9246
     /tmp/ccNzw1my.s:104263  .debug_str:0000000000040950 .LASF9247
     /tmp/ccNzw1my.s:95675  .debug_str:000000000001dc56 .LASF9248
     /tmp/ccNzw1my.s:106013  .debug_str:0000000000047c06 .LASF9249
     /tmp/ccNzw1my.s:95395  .debug_str:000000000001c90c .LASF9250
     /tmp/ccNzw1my.s:89029  .debug_str:0000000000002998 .LASF9251
     /tmp/ccNzw1my.s:104337  .debug_str:0000000000040e58 .LASF9252
     /tmp/ccNzw1my.s:90515  .debug_str:0000000000008e3c .LASF9253
     /tmp/ccNzw1my.s:106233  .debug_str:0000000000048b30 .LASF9254
     /tmp/ccNzw1my.s:97683  .debug_str:0000000000025eb4 .LASF9255
     /tmp/ccNzw1my.s:89087  .debug_str:0000000000002d77 .LASF9256
     /tmp/ccNzw1my.s:99679  .debug_str:000000000002e1a3 .LASF9257
     /tmp/ccNzw1my.s:91613  .debug_str:000000000000d852 .LASF9258
     /tmp/ccNzw1my.s:92765  .debug_str:0000000000011c9e .LASF9259
     /tmp/ccNzw1my.s:92817  .debug_str:0000000000011fcd .LASF9260
     /tmp/ccNzw1my.s:103161  .debug_str:000000000003c047 .LASF9261
     /tmp/ccNzw1my.s:99743  .debug_str:000000000002e543 .LASF9262
     /tmp/ccNzw1my.s:91001  .debug_str:000000000000afc6 .LASF9263
     /tmp/ccNzw1my.s:101637  .debug_str:000000000003610b .LASF9264
     /tmp/ccNzw1my.s:93017  .debug_str:0000000000012def .LASF9265
     /tmp/ccNzw1my.s:95147  .debug_str:000000000001b8b9 .LASF9266
     /tmp/ccNzw1my.s:94793  .debug_str:000000000001a069 .LASF9267
     /tmp/ccNzw1my.s:105167  .debug_str:000000000004446d .LASF9268
     /tmp/ccNzw1my.s:96731  .debug_str:0000000000022485 .LASF9269
     /tmp/ccNzw1my.s:107087  .debug_str:000000000004c7c8 .LASF9270
     /tmp/ccNzw1my.s:93251  .debug_str:0000000000013c41 .LASF9271
     /tmp/ccNzw1my.s:97267  .debug_str:00000000000245d8 .LASF9272
     /tmp/ccNzw1my.s:105375  .debug_str:00000000000451c5 .LASF9273
     /tmp/ccNzw1my.s:96779  .debug_str:00000000000227fb .LASF9274
     /tmp/ccNzw1my.s:107141  .debug_str:000000000004cae9 .LASF9275
     /tmp/ccNzw1my.s:98791  .debug_str:000000000002a6b3 .LASF9276
     /tmp/ccNzw1my.s:90081  .debug_str:00000000000071d5 .LASF9277
     /tmp/ccNzw1my.s:100523  .debug_str:0000000000031938 .LASF9278
     /tmp/ccNzw1my.s:91837  .debug_str:000000000000e5a5 .LASF9279
     /tmp/ccNzw1my.s:102341  .debug_str:0000000000038835 .LASF9280
     /tmp/ccNzw1my.s:93833  .debug_str:0000000000015fe9 .LASF9281
     /tmp/ccNzw1my.s:90129  .debug_str:00000000000074d0 .LASF9282
     /tmp/ccNzw1my.s:100761  .debug_str:00000000000327e1 .LASF9283
     /tmp/ccNzw1my.s:106077  .debug_str:000000000004803c .LASF9284
     /tmp/ccNzw1my.s:102567  .debug_str:0000000000039775 .LASF9285
     /tmp/ccNzw1my.s:93889  .debug_str:00000000000163b7 .LASF9286
     /tmp/ccNzw1my.s:100849  .debug_str:0000000000032d37 .LASF9287
     /tmp/ccNzw1my.s:95827  .debug_str:000000000001e6e7 .LASF9288
     /tmp/ccNzw1my.s:106151  .debug_str:00000000000484fc .LASF9289
     /tmp/ccNzw1my.s:97613  .debug_str:0000000000025a08 .LASF9290
     /tmp/ccNzw1my.s:88999  .debug_str:0000000000002745 .LASF9291
     /tmp/ccNzw1my.s:104493  .debug_str:00000000000419a7 .LASF9292
     /tmp/ccNzw1my.s:95883  .debug_str:000000000001ea9c .LASF9293
     /tmp/ccNzw1my.s:106207  .debug_str:0000000000048967 .LASF9294
     /tmp/ccNzw1my.s:95739  .debug_str:000000000001e05c .LASF9295
     /tmp/ccNzw1my.s:92279  .debug_str:000000000000fded .LASF9296
     /tmp/ccNzw1my.s:99115  .debug_str:000000000002bbb1 .LASF9297
     /tmp/ccNzw1my.s:92977  .debug_str:0000000000012b04 .LASF9298
     /tmp/ccNzw1my.s:105847  .debug_str:00000000000471c4 .LASF9299
     /tmp/ccNzw1my.s:99853  .debug_str:000000000002ec87 .LASF9300
     /tmp/ccNzw1my.s:88923  .debug_str:00000000000021d5 .LASF9301
     /tmp/ccNzw1my.s:103103  .debug_str:000000000003bc19 .LASF9302
     /tmp/ccNzw1my.s:103515  .debug_str:000000000003d6d2 .LASF9303
     /tmp/ccNzw1my.s:100631  .debug_str:0000000000032040 .LASF9304
     /tmp/ccNzw1my.s:102399  .debug_str:0000000000038c05 .LASF9305
     /tmp/ccNzw1my.s:100633  .debug_str:000000000003204a .LASF9306
     /tmp/ccNzw1my.s:98261  .debug_str:000000000002853a .LASF9307
     /tmp/ccNzw1my.s:100635  .debug_str:0000000000032054 .LASF9308
     /tmp/ccNzw1my.s:105769  .debug_str:0000000000046c4c .LASF9309
     /tmp/ccNzw1my.s:100637  .debug_str:000000000003205e .LASF9310
     /tmp/ccNzw1my.s:98703  .debug_str:000000000002a160 .LASF9311
     /tmp/ccNzw1my.s:97049  .debug_str:00000000000238fa .LASF9312
     /tmp/ccNzw1my.s:100557  .debug_str:0000000000031b85 .LASF9313
     /tmp/ccNzw1my.s:100639  .debug_str:0000000000032068 .LASF9314
     /tmp/ccNzw1my.s:102477  .debug_str:0000000000039137 .LASF9315
     /tmp/ccNzw1my.s:97123  .debug_str:0000000000023dab .LASF9316
     /tmp/ccNzw1my.s:93217  .debug_str:0000000000013a06 .LASF9317
     /tmp/ccNzw1my.s:100641  .debug_str:0000000000032072 .LASF9318
     /tmp/ccNzw1my.s:103135  .debug_str:000000000003be56 .LASF9319
     /tmp/ccNzw1my.s:97215  .debug_str:00000000000242fa .LASF9320
     /tmp/ccNzw1my.s:105057  .debug_str:0000000000043dd0 .LASF9321
     /tmp/ccNzw1my.s:90577  .debug_str:000000000000928a .LASF9322
     /tmp/ccNzw1my.s:95989  .debug_str:000000000001f2ad .LASF9323
     /tmp/ccNzw1my.s:97307  .debug_str:000000000002470c .LASF9324
     /tmp/ccNzw1my.s:97897  .debug_str:0000000000026cf1 .LASF9325
     /tmp/ccNzw1my.s:100645  .debug_str:0000000000032090 .LASF9326
     /tmp/ccNzw1my.s:100647  .debug_str:000000000003209a .LASF9327
     /tmp/ccNzw1my.s:97079  .debug_str:0000000000023bbe .LASF9328
     /tmp/ccNzw1my.s:88661  .debug_str:0000000000000f93 .LASF9329
     /tmp/ccNzw1my.s:103053  .debug_str:000000000003b8d2 .LASF9330
     /tmp/ccNzw1my.s:101271  .debug_str:0000000000034a24 .LASF9332
     /tmp/ccNzw1my.s:99521  .debug_str:000000000002d692 .LASF9333
     /tmp/ccNzw1my.s:100719  .debug_str:0000000000032553 .LASF9334
     /tmp/ccNzw1my.s:92881  .debug_str:00000000000123fb .LASF9335
     /tmp/ccNzw1my.s:89899  .debug_str:00000000000064b2 .LASF9336
     /tmp/ccNzw1my.s:89901  .debug_str:00000000000064c5 .LASF9337
     /tmp/ccNzw1my.s:89903  .debug_str:00000000000064d8 .LASF9338
     /tmp/ccNzw1my.s:89521  .debug_str:0000000000004b9c .LASF9339
     /tmp/ccNzw1my.s:89907  .debug_str:0000000000006514 .LASF9340
     /tmp/ccNzw1my.s:105983  .debug_str:0000000000047a51 .LASF9341
     /tmp/ccNzw1my.s:92041  .debug_str:000000000000f031 .LASF9342
     /tmp/ccNzw1my.s:105987  .debug_str:0000000000047a8c .LASF9343
     /tmp/ccNzw1my.s:105989  .debug_str:0000000000047a9d .LASF9344
     /tmp/ccNzw1my.s:105991  .debug_str:0000000000047aae .LASF9345
     /tmp/ccNzw1my.s:92341  .debug_str:000000000001018a .LASF9346
     /tmp/ccNzw1my.s:92343  .debug_str:000000000001019a .LASF9347
     /tmp/ccNzw1my.s:95221  .debug_str:000000000001bdd8 .LASF9348
     /tmp/ccNzw1my.s:95223  .debug_str:000000000001bde8 .LASF9349
     /tmp/ccNzw1my.s:102497  .debug_str:00000000000392aa .LASF9350
     /tmp/ccNzw1my.s:95085  .debug_str:000000000001b44e .LASF9351
     /tmp/ccNzw1my.s:105683  .debug_str:0000000000046617 .LASF9352
     /tmp/ccNzw1my.s:105685  .debug_str:0000000000046627 .LASF9353
     /tmp/ccNzw1my.s:94831  .debug_str:000000000001a320 .LASF9354
     /tmp/ccNzw1my.s:92351  .debug_str:00000000000101ee .LASF9355
     /tmp/ccNzw1my.s:92353  .debug_str:00000000000101ff .LASF9356
     /tmp/ccNzw1my.s:92355  .debug_str:0000000000010210 .LASF9357
     /tmp/ccNzw1my.s:102547  .debug_str:00000000000395e8 .LASF9358
     /tmp/ccNzw1my.s:94337  .debug_str:00000000000180d5 .LASF9359
     /tmp/ccNzw1my.s:91503  .debug_str:000000000000d22e .LASF9360
     /tmp/ccNzw1my.s:95537  .debug_str:000000000001d2f1 .LASF9361
     /tmp/ccNzw1my.s:102915  .debug_str:000000000003af99 .LASF9362
     /tmp/ccNzw1my.s:93947  .debug_str:000000000001673c .LASF9363
     /tmp/ccNzw1my.s:101097  .debug_str:0000000000033e64 .LASF9364
     /tmp/ccNzw1my.s:101751  .debug_str:00000000000368aa .LASF9365
     /tmp/ccNzw1my.s:95203  .debug_str:000000000001bce3 .LASF9366
     /tmp/ccNzw1my.s:96285  .debug_str:000000000002077f .LASF9367
     /tmp/ccNzw1my.s:99483  .debug_str:000000000002d419 .LASF9368
     /tmp/ccNzw1my.s:99485  .debug_str:000000000002d429 .LASF9369
     /tmp/ccNzw1my.s:99487  .debug_str:000000000002d439 .LASF9370
     /tmp/ccNzw1my.s:99489  .debug_str:000000000002d449 .LASF9371
     /tmp/ccNzw1my.s:100147  .debug_str:000000000002ff47 .LASF9372
     /tmp/ccNzw1my.s:97831  .debug_str:0000000000026838 .LASF9373
     /tmp/ccNzw1my.s:100013  .debug_str:000000000002f778 .LASF9374
     /tmp/ccNzw1my.s:89233  .debug_str:000000000000375e .LASF9375
     /tmp/ccNzw1my.s:88597  .debug_str:0000000000000b41 .LASF9376
     /tmp/ccNzw1my.s:91457  .debug_str:000000000000cf5f .LASF9377
     /tmp/ccNzw1my.s:104967  .debug_str:00000000000437b1 .LASF9378
     /tmp/ccNzw1my.s:91691  .debug_str:000000000000dd18 .LASF9379
     /tmp/ccNzw1my.s:103637  .debug_str:000000000003de94 .LASF9380
     /tmp/ccNzw1my.s:106717  .debug_str:000000000004abce .LASF9381
     /tmp/ccNzw1my.s:91385  .debug_str:000000000000ca4a .LASF9382
     /tmp/ccNzw1my.s:93437  .debug_str:00000000000146fb .LASF9383
     /tmp/ccNzw1my.s:96661  .debug_str:0000000000022039 .LASF9384
     /tmp/ccNzw1my.s:92879  .debug_str:00000000000123eb .LASF9385
     /tmp/ccNzw1my.s:106493  .debug_str:0000000000049ce4 .LASF9386
     /tmp/ccNzw1my.s:92951  .debug_str:000000000001289f .LASF9387
     /tmp/ccNzw1my.s:96137  .debug_str:000000000001fd92 .LASF9388
     /tmp/ccNzw1my.s:93033  .debug_str:0000000000012ee1 .LASF9389
     /tmp/ccNzw1my.s:96221  .debug_str:00000000000202e6 .LASF9390
     /tmp/ccNzw1my.s:93103  .debug_str:00000000000132d5 .LASF9391
     /tmp/ccNzw1my.s:96297  .debug_str:0000000000020860 .LASF9392
     /tmp/ccNzw1my.s:93187  .debug_str:0000000000013806 .LASF9393
     /tmp/ccNzw1my.s:96373  .debug_str:0000000000020de5 .LASF9394
     /tmp/ccNzw1my.s:105065  .debug_str:0000000000043e20 .LASF9395
     /tmp/ccNzw1my.s:103471  .debug_str:000000000003d416 .LASF9396
     /tmp/ccNzw1my.s:93303  .debug_str:0000000000013f56 .LASF9397
     /tmp/ccNzw1my.s:89895  .debug_str:000000000000648c .LASF9398
     /tmp/ccNzw1my.s:102381  .debug_str:0000000000038ab8 .LASF9399
     /tmp/ccNzw1my.s:106023  .debug_str:0000000000047c95 .LASF9400
     /tmp/ccNzw1my.s:106061  .debug_str:0000000000047f02 .LASF9401
     /tmp/ccNzw1my.s:90201  .debug_str:0000000000007952 .LASF9402
     /tmp/ccNzw1my.s:90597  .debug_str:00000000000093ef .LASF9403
     /tmp/ccNzw1my.s:90097  .debug_str:0000000000007288 .LASF9404
     /tmp/ccNzw1my.s:106653  .debug_str:000000000004a826 .LASF9405
     /tmp/ccNzw1my.s:92821  .debug_str:0000000000012005 .LASF9406
     /tmp/ccNzw1my.s:101307  .debug_str:0000000000034c96 .LASF9407
     /tmp/ccNzw1my.s:106215  .debug_str:00000000000489ed .LASF9408
     /tmp/ccNzw1my.s:105171  .debug_str:00000000000444b5 .LASF9409
     /tmp/ccNzw1my.s:90899  .debug_str:000000000000a85d .LASF9410
     /tmp/ccNzw1my.s:101881  .debug_str:0000000000036f6d .LASF9411
     /tmp/ccNzw1my.s:93779  .debug_str:0000000000015c9a .LASF9412
     /tmp/ccNzw1my.s:95495  .debug_str:000000000001d01c .LASF9413
     /tmp/ccNzw1my.s:95041  .debug_str:000000000001b13d .LASF9414
     /tmp/ccNzw1my.s:105673  .debug_str:000000000004657a .LASF9415
     /tmp/ccNzw1my.s:105395  .debug_str:0000000000045302 .LASF9416
     /tmp/ccNzw1my.s:101615  .debug_str:0000000000035f54 .LASF9417
     /tmp/ccNzw1my.s:96805  .debug_str:00000000000229c5 .LASF9418
     /tmp/ccNzw1my.s:97519  .debug_str:0000000000025372 .LASF9419
     /tmp/ccNzw1my.s:106651  .debug_str:000000000004a813 .LASF9420
     /tmp/ccNzw1my.s:93429  .debug_str:0000000000014683 .LASF9421
     /tmp/ccNzw1my.s:97769  .debug_str:00000000000263ac .LASF9422
     /tmp/ccNzw1my.s:1355   .text.init_pmp:0000000000000000 .LFB33
     /tmp/ccNzw1my.s:1385   .text.init_pmp:0000000000000028 .LFE33
     /tmp/ccNzw1my.s:94701  .debug_str:0000000000019967 .LASF9424
     /tmp/ccNzw1my.s:94177  .debug_str:00000000000176bb .LASF9459
     /tmp/ccNzw1my.s:1322   .text.init_mem_protection_unit:0000000000000000 .LFB32
     /tmp/ccNzw1my.s:1348   .text.init_mem_protection_unit:000000000000001c .LFE32
     /tmp/ccNzw1my.s:103955  .debug_str:000000000003f4d7 .LASF9423
     /tmp/ccNzw1my.s:1226   .text.init_bus_error_unit:0000000000000000 .LFB31
     /tmp/ccNzw1my.s:1315   .text.init_bus_error_unit:000000000000009a .LFE31
     /tmp/ccNzw1my.s:91497  .debug_str:000000000000d204 .LASF9428
     /tmp/ccNzw1my.s:1184   .text.init_ddr:0000000000000000 .LFB30
     /tmp/ccNzw1my.s:1219   .text.init_ddr:0000000000000032 .LFE30
     /tmp/ccNzw1my.s:1195   .text.init_ddr:0000000000000008 .LBB9
     /tmp/ccNzw1my.s:1207   .text.init_ddr:0000000000000028 .LBE9
     /tmp/ccNzw1my.s:95169  .debug_str:000000000001ba16 .LASF9425
     /tmp/ccNzw1my.s:95507  .debug_str:000000000001d0ef .LASF9426
     /tmp/ccNzw1my.s:1130   .text.init_memory:0000000000000000 .LFB29
     /tmp/ccNzw1my.s:1177   .text.init_memory:00000000000000aa .LFE29
     /tmp/ccNzw1my.s:1099   .text.u54_4:0000000000000000 .LFB28
     /tmp/ccNzw1my.s:1123   .text.u54_4:000000000000001a .LFE28
     /tmp/ccNzw1my.s:1068   .text.u54_3:0000000000000000 .LFB27
     /tmp/ccNzw1my.s:1092   .text.u54_3:000000000000001a .LFE27
     /tmp/ccNzw1my.s:1037   .text.u54_2:0000000000000000 .LFB26
     /tmp/ccNzw1my.s:1061   .text.u54_2:000000000000001a .LFE26
     /tmp/ccNzw1my.s:1006   .text.u54_1:0000000000000000 .LFB25
     /tmp/ccNzw1my.s:1030   .text.u54_1:000000000000001a .LFE25
     /tmp/ccNzw1my.s:975    .text.e51:0000000000000000 .LFB24
     /tmp/ccNzw1my.s:999    .text.e51:000000000000001a .LFE24
     /tmp/ccNzw1my.s:98401  .debug_str:0000000000028dfc .LASF9449
     /tmp/ccNzw1my.s:927    .text.park_hart:0000000000000000 .LFB23
     /tmp/ccNzw1my.s:968    .text.park_hart:0000000000000024 .LFE23
     /tmp/ccNzw1my.s:936    .text.park_hart:0000000000000006 .LBB8
     /tmp/ccNzw1my.s:944    .text.park_hart:000000000000000e .LBE8
     /tmp/ccNzw1my.s:99651  .debug_str:000000000002df8f .LASF9427
     /tmp/ccNzw1my.s:102535  .debug_str:000000000003952f .LASF9429
     /tmp/ccNzw1my.s:890    .text.load_virtual_rom:0000000000000000 .LFB22
     /tmp/ccNzw1my.s:921    .text.load_virtual_rom:0000000000000034 .LFE22
     /tmp/ccNzw1my.s:91533  .debug_str:000000000000d40e .LASF9430
     /tmp/ccNzw1my.s:102307  .debug_str:00000000000385ef .LASF9431
     /tmp/ccNzw1my.s:713    .text.main_other_hart:0000000000000000 .LFB21
     /tmp/ccNzw1my.s:869    .text.main_other_hart:000000000000013e .LFE21
     /tmp/ccNzw1my.s:102199  .debug_str:0000000000037f7c .LASF9432
     /tmp/ccNzw1my.s:102201  .debug_str:0000000000037f8f .LASF9433
     /tmp/ccNzw1my.s:102203  .debug_str:0000000000037fa2 .LASF9434
     /tmp/ccNzw1my.s:102205  .debug_str:0000000000037fb5 .LASF9435
     /tmp/ccNzw1my.s:102207  .debug_str:0000000000037fc8 .LASF9436
     /tmp/ccNzw1my.s:103165  .debug_str:000000000003c075 .LASF9437
     /tmp/ccNzw1my.s:103167  .debug_str:000000000003c086 .LASF9438
     /tmp/ccNzw1my.s:103169  .debug_str:000000000003c097 .LASF9439
     /tmp/ccNzw1my.s:103171  .debug_str:000000000003c0a8 .LASF9440
     /tmp/ccNzw1my.s:103173  .debug_str:000000000003c0b9 .LASF9441
     /tmp/ccNzw1my.s:95301  .debug_str:000000000001c29d .LASF9442
     /tmp/ccNzw1my.s:857    .text.main_other_hart:0000000000000124 .LBB7
     /tmp/ccNzw1my.s:865    .text.main_other_hart:000000000000013c .LBE7
     /tmp/ccNzw1my.s:91295  .debug_str:000000000000c41b .LASF9443
     /tmp/ccNzw1my.s:93347  .debug_str:00000000000141f9 .LASF427
     /tmp/ccNzw1my.s:91509  .debug_str:000000000000d275 .LASF9444
     /tmp/ccNzw1my.s:422    .text.main_first_hart:0000000000000000 .LFB20
     /tmp/ccNzw1my.s:706    .text.main_first_hart:00000000000002b4 .LFE20
     /tmp/ccNzw1my.s:89297  .debug_str:0000000000003baa .LASF9445
     /tmp/ccNzw1my.s:435    .text.main_first_hart:000000000000000c .LBB4
     /tmp/ccNzw1my.s:444    .text.main_first_hart:0000000000000018 .LBE4
     /tmp/ccNzw1my.s:450    .text.main_first_hart:0000000000000024 .LBB5
     /tmp/ccNzw1my.s:704    .text.main_first_hart:00000000000002b4 .LBE5
     /tmp/ccNzw1my.s:103129  .debug_str:000000000003be05 .LASF9446
     /tmp/ccNzw1my.s:99855  .debug_str:000000000002eca8 .LASF9447
     /tmp/ccNzw1my.s:500    .text.main_first_hart:00000000000000bc .LBB6
     /tmp/ccNzw1my.s:659    .text.main_first_hart:000000000000022c .LBE6
     /tmp/ccNzw1my.s:100103  .debug_str:000000000002fceb .LASF9448
     /tmp/ccNzw1my.s:93683  .debug_str:00000000000156a7 .LASF9450
     /tmp/ccNzw1my.s:240    .text.PLIC_init_on_reset:0000000000000000 .LFB16
     /tmp/ccNzw1my.s:415    .text.PLIC_init_on_reset:0000000000000172 .LFE16
     /tmp/ccNzw1my.s:94515  .debug_str:0000000000018cb5 .LASF9451
     /tmp/ccNzw1my.s:168    .text.PLIC_ClearPendingIRQ:0000000000000000 .LFB15
     /tmp/ccNzw1my.s:234    .text.PLIC_ClearPendingIRQ:000000000000006a .LFE15
     /tmp/ccNzw1my.s:101061  .debug_str:0000000000033be3 .LASF9452
     /tmp/ccNzw1my.s:103101  .debug_str:000000000003bc07 .LASF9453
     /tmp/ccNzw1my.s:104359  .debug_str:0000000000040fd3 .LASF9454
     /tmp/ccNzw1my.s:104    .text.PLIC_CompleteIRQ:0000000000000000 .LFB13
     /tmp/ccNzw1my.s:162    .text.PLIC_CompleteIRQ:000000000000005a .LFE13
     /tmp/ccNzw1my.s:102369  .debug_str:00000000000389eb .LASF9455
     /tmp/ccNzw1my.s:115    .text.PLIC_CompleteIRQ:000000000000000c .LBB3
     /tmp/ccNzw1my.s:124    .text.PLIC_CompleteIRQ:0000000000000018 .LBE3
     /tmp/ccNzw1my.s:99591  .debug_str:000000000002dac5 .LASF9460
     /tmp/ccNzw1my.s:53     .text.PLIC_ClaimIRQ:0000000000000000 .LFB12
     /tmp/ccNzw1my.s:98     .text.PLIC_ClaimIRQ:0000000000000040 .LFE12
     /tmp/ccNzw1my.s:63     .text.PLIC_ClaimIRQ:0000000000000006 .LBB2
     /tmp/ccNzw1my.s:72     .text.PLIC_ClaimIRQ:0000000000000012 .LBE2
     /tmp/ccNzw1my.s:97085  .debug_str:0000000000023beb .LASF9461
     /tmp/ccNzw1my.s:13     .text.raise_soft_interrupt:0000000000000000 .LFB0
     /tmp/ccNzw1my.s:47     .text.raise_soft_interrupt:0000000000000026 .LFE0
     /tmp/ccNzw1my.s:1413   .debug_info:0000000000000000 .Ldebug_info0
     /tmp/ccNzw1my.s:71129  .debug_macro:0000000000000000 .Ldebug_macro2
     /tmp/ccNzw1my.s:72106  .debug_macro:0000000000000000 .Ldebug_macro3
     /tmp/ccNzw1my.s:72270  .debug_macro:0000000000000000 .Ldebug_macro4
     /tmp/ccNzw1my.s:98151  .debug_str:0000000000027eb1 .LASF382
     /tmp/ccNzw1my.s:94813  .debug_str:000000000001a1d0 .LASF383
     /tmp/ccNzw1my.s:103729  .debug_str:000000000003e473 .LASF384
     /tmp/ccNzw1my.s:101373  .debug_str:000000000003515d .LASF385
     /tmp/ccNzw1my.s:72290  .debug_macro:0000000000000000 .Ldebug_macro5
     /tmp/ccNzw1my.s:72310  .debug_macro:0000000000000000 .Ldebug_macro6
     /tmp/ccNzw1my.s:72375  .debug_macro:0000000000000000 .Ldebug_macro7
     /tmp/ccNzw1my.s:72416  .debug_macro:0000000000000000 .Ldebug_macro8
     /tmp/ccNzw1my.s:72538  .debug_macro:0000000000000000 .Ldebug_macro9
     /tmp/ccNzw1my.s:72594  .debug_macro:0000000000000000 .Ldebug_macro10
     /tmp/ccNzw1my.s:94433  .debug_str:00000000000186ef .LASF539
     /tmp/ccNzw1my.s:72806  .debug_macro:0000000000000000 .Ldebug_macro11
     /tmp/ccNzw1my.s:72817  .debug_macro:0000000000000000 .Ldebug_macro12
     /tmp/ccNzw1my.s:74616  .debug_macro:0000000000000000 .Ldebug_macro13
     /tmp/ccNzw1my.s:95517  .debug_str:000000000001d1bc .LASF1162
     /tmp/ccNzw1my.s:74687  .debug_macro:0000000000000000 .Ldebug_macro14
     /tmp/ccNzw1my.s:103635  .debug_str:000000000003de79 .LASF3353
     /tmp/ccNzw1my.s:81262  .debug_macro:0000000000000000 .Ldebug_macro15
     /tmp/ccNzw1my.s:81279  .debug_macro:0000000000000000 .Ldebug_macro16
     /tmp/ccNzw1my.s:81302  .debug_macro:0000000000000000 .Ldebug_macro17
     /tmp/ccNzw1my.s:81319  .debug_macro:0000000000000000 .Ldebug_macro18
     /tmp/ccNzw1my.s:81348  .debug_macro:0000000000000000 .Ldebug_macro19
     /tmp/ccNzw1my.s:81407  .debug_macro:0000000000000000 .Ldebug_macro20
     /tmp/ccNzw1my.s:81430  .debug_macro:0000000000000000 .Ldebug_macro21
     /tmp/ccNzw1my.s:81489  .debug_macro:0000000000000000 .Ldebug_macro22
     /tmp/ccNzw1my.s:84248  .debug_macro:0000000000000000 .Ldebug_macro23
     /tmp/ccNzw1my.s:84292  .debug_macro:0000000000000000 .Ldebug_macro24
     /tmp/ccNzw1my.s:84378  .debug_macro:0000000000000000 .Ldebug_macro25
     /tmp/ccNzw1my.s:84407  .debug_macro:0000000000000000 .Ldebug_macro26
     /tmp/ccNzw1my.s:84466  .debug_macro:0000000000000000 .Ldebug_macro27
     /tmp/ccNzw1my.s:84528  .debug_macro:0000000000000000 .Ldebug_macro28
     /tmp/ccNzw1my.s:84590  .debug_macro:0000000000000000 .Ldebug_macro29
     /tmp/ccNzw1my.s:84652  .debug_macro:0000000000000000 .Ldebug_macro30
     /tmp/ccNzw1my.s:84714  .debug_macro:0000000000000000 .Ldebug_macro31
     /tmp/ccNzw1my.s:84776  .debug_macro:0000000000000000 .Ldebug_macro32
     /tmp/ccNzw1my.s:84832  .debug_macro:0000000000000000 .Ldebug_macro33
     /tmp/ccNzw1my.s:84888  .debug_macro:0000000000000000 .Ldebug_macro34
     /tmp/ccNzw1my.s:84920  .debug_macro:0000000000000000 .Ldebug_macro35
     /tmp/ccNzw1my.s:84940  .debug_macro:0000000000000000 .Ldebug_macro36
     /tmp/ccNzw1my.s:84972  .debug_macro:0000000000000000 .Ldebug_macro37
     /tmp/ccNzw1my.s:85004  .debug_macro:0000000000000000 .Ldebug_macro38
     /tmp/ccNzw1my.s:85024  .debug_macro:0000000000000000 .Ldebug_macro39
     /tmp/ccNzw1my.s:85044  .debug_macro:0000000000000000 .Ldebug_macro40
     /tmp/ccNzw1my.s:85076  .debug_macro:0000000000000000 .Ldebug_macro41
     /tmp/ccNzw1my.s:85090  .debug_macro:0000000000000000 .Ldebug_macro42
     /tmp/ccNzw1my.s:85191  .debug_macro:0000000000000000 .Ldebug_macro43
     /tmp/ccNzw1my.s:85208  .debug_macro:0000000000000000 .Ldebug_macro44
     /tmp/ccNzw1my.s:85246  .debug_macro:0000000000000000 .Ldebug_macro45
     /tmp/ccNzw1my.s:85269  .debug_macro:0000000000000000 .Ldebug_macro46
     /tmp/ccNzw1my.s:85397  .debug_macro:0000000000000000 .Ldebug_macro47
     /tmp/ccNzw1my.s:85411  .debug_macro:0000000000000000 .Ldebug_macro48
     /tmp/ccNzw1my.s:85425  .debug_macro:0000000000000000 .Ldebug_macro49
     /tmp/ccNzw1my.s:85481  .debug_macro:0000000000000000 .Ldebug_macro50
     /tmp/ccNzw1my.s:86596  .debug_macro:0000000000000000 .Ldebug_macro51
     /tmp/ccNzw1my.s:86628  .debug_macro:0000000000000000 .Ldebug_macro52
     /tmp/ccNzw1my.s:86648  .debug_macro:0000000000000000 .Ldebug_macro53
     /tmp/ccNzw1my.s:86692  .debug_macro:0000000000000000 .Ldebug_macro54
     /tmp/ccNzw1my.s:86739  .debug_macro:0000000000000000 .Ldebug_macro55
     /tmp/ccNzw1my.s:86786  .debug_macro:0000000000000000 .Ldebug_macro56
     /tmp/ccNzw1my.s:86821  .debug_macro:0000000000000000 .Ldebug_macro57
     /tmp/ccNzw1my.s:86844  .debug_macro:0000000000000000 .Ldebug_macro58
     /tmp/ccNzw1my.s:88539  .debug_str:000000000000076e .LASF5147
     /tmp/ccNzw1my.s:86861  .debug_macro:0000000000000000 .Ldebug_macro59
     /tmp/ccNzw1my.s:105741  .debug_str:0000000000046a57 .LASF5302
     /tmp/ccNzw1my.s:87328  .debug_macro:0000000000000000 .Ldebug_macro60
     /tmp/ccNzw1my.s:87345  .debug_macro:0000000000000000 .Ldebug_macro61
     /tmp/ccNzw1my.s:87359  .debug_macro:0000000000000000 .Ldebug_macro62
     /tmp/ccNzw1my.s:87676  .debug_macro:0000000000000000 .Ldebug_macro63
     /tmp/ccNzw1my.s:87696  .debug_macro:0000000000000000 .Ldebug_macro64
     /tmp/ccNzw1my.s:99307  .debug_str:000000000002c80c .LASF5458
     /tmp/ccNzw1my.s:87818  .debug_macro:0000000000000000 .Ldebug_macro65
     /tmp/ccNzw1my.s:87880  .debug_macro:0000000000000000 .Ldebug_macro66
     /tmp/ccNzw1my.s:97991  .debug_str:00000000000272e0 .LASF5480
     /tmp/ccNzw1my.s:87891  .debug_macro:0000000000000000 .Ldebug_macro67
     /tmp/ccNzw1my.s:87920  .debug_macro:0000000000000000 .Ldebug_macro68
     /tmp/ccNzw1my.s:102469  .debug_str:00000000000390fa .LASF5505
     /tmp/ccNzw1my.s:87973  .debug_macro:0000000000000000 .Ldebug_macro69
     /tmp/ccNzw1my.s:106521  .debug_str:0000000000049ea1 .LASF5525
     /tmp/ccNzw1my.s:88035  .debug_macro:0000000000000000 .Ldebug_macro70
     /tmp/ccNzw1my.s:88103  .debug_macro:0000000000000000 .Ldebug_macro71
     /tmp/ccNzw1my.s:88126  .debug_macro:0000000000000000 .Ldebug_macro72
     /tmp/ccNzw1my.s:88206  .debug_macro:0000000000000000 .Ldebug_macro73
     /tmp/ccNzw1my.s:88337  .debug_macro:0000000000000000 .Ldebug_macro74
     /tmp/ccNzw1my.s:88357  .debug_macro:0000000000000000 .Ldebug_macro75
     /tmp/ccNzw1my.s:89271  .debug_str:0000000000003a2b .LASF5628
     /tmp/ccNzw1my.s:88371  .debug_macro:0000000000000000 .Ldebug_macro76
     /tmp/ccNzw1my.s:88415  .debug_macro:0000000000000000 .Ldebug_macro77
     /tmp/ccNzw1my.s:101395  .debug_str:00000000000352a5 .LASF5647
     /tmp/ccNzw1my.s:105859  .debug_str:00000000000472b4 .LASF5648
     /tmp/ccNzw1my.s:93167  .debug_str:0000000000013714 .LASF0
     /tmp/ccNzw1my.s:99845  .debug_str:000000000002ec24 .LASF1
     /tmp/ccNzw1my.s:97081  .debug_str:0000000000023bc5 .LASF2
     /tmp/ccNzw1my.s:97149  .debug_str:0000000000023f48 .LASF3
     /tmp/ccNzw1my.s:91731  .debug_str:000000000000dfb6 .LASF4
     /tmp/ccNzw1my.s:91909  .debug_str:000000000000e861 .LASF5
     /tmp/ccNzw1my.s:102401  .debug_str:0000000000038c15 .LASF6
     /tmp/ccNzw1my.s:90661  .debug_str:00000000000098dc .LASF7
     /tmp/ccNzw1my.s:89021  .debug_str:0000000000002936 .LASF8
     /tmp/ccNzw1my.s:88711  .debug_str:00000000000012fc .LASF9
     /tmp/ccNzw1my.s:101925  .debug_str:0000000000037258 .LASF10
     /tmp/ccNzw1my.s:105557  .debug_str:0000000000045e47 .LASF11
     /tmp/ccNzw1my.s:99541  .debug_str:000000000002d7c2 .LASF12
     /tmp/ccNzw1my.s:95315  .debug_str:000000000001c399 .LASF13
     /tmp/ccNzw1my.s:91477  .debug_str:000000000000d097 .LASF14
     /tmp/ccNzw1my.s:90691  .debug_str:0000000000009a8a .LASF15
     /tmp/ccNzw1my.s:104661  .debug_str:0000000000042481 .LASF16
     /tmp/ccNzw1my.s:103033  .debug_str:000000000003b75d .LASF17
     /tmp/ccNzw1my.s:94277  .debug_str:0000000000017da4 .LASF18
     /tmp/ccNzw1my.s:105511  .debug_str:0000000000045b6d .LASF19
     /tmp/ccNzw1my.s:105251  .debug_str:0000000000044a0b .LASF20
     /tmp/ccNzw1my.s:106099  .debug_str:00000000000481b1 .LASF21
     /tmp/ccNzw1my.s:106771  .debug_str:000000000004b075 .LASF22
     /tmp/ccNzw1my.s:91847  .debug_str:000000000000e620 .LASF23
     /tmp/ccNzw1my.s:104057  .debug_str:000000000003fb6b .LASF24
     /tmp/ccNzw1my.s:102327  .debug_str:000000000003871b .LASF25
     /tmp/ccNzw1my.s:91379  .debug_str:000000000000c9e9 .LASF26
     /tmp/ccNzw1my.s:90421  .debug_str:00000000000087f1 .LASF27
     /tmp/ccNzw1my.s:103935  .debug_str:000000000003f339 .LASF28
     /tmp/ccNzw1my.s:89633  .debug_str:0000000000005280 .LASF29
     /tmp/ccNzw1my.s:93989  .debug_str:0000000000016a77 .LASF30
     /tmp/ccNzw1my.s:101313  .debug_str:0000000000034cd3 .LASF31
     /tmp/ccNzw1my.s:94967  .debug_str:000000000001ab4d .LASF32
     /tmp/ccNzw1my.s:98979  .debug_str:000000000002b33f .LASF33
     /tmp/ccNzw1my.s:98661  .debug_str:0000000000029e09 .LASF34
     /tmp/ccNzw1my.s:91207  .debug_str:000000000000be67 .LASF35
     /tmp/ccNzw1my.s:93393  .debug_str:00000000000143f6 .LASF36
     /tmp/ccNzw1my.s:97877  .debug_str:0000000000026b67 .LASF37
     /tmp/ccNzw1my.s:107243  .debug_str:000000000004d257 .LASF38
     /tmp/ccNzw1my.s:95423  .debug_str:000000000001caed .LASF39
     /tmp/ccNzw1my.s:98073  .debug_str:00000000000278c3 .LASF40
     /tmp/ccNzw1my.s:93355  .debug_str:0000000000014262 .LASF41
     /tmp/ccNzw1my.s:89885  .debug_str:00000000000063be .LASF42
     /tmp/ccNzw1my.s:102823  .debug_str:000000000003a958 .LASF43
     /tmp/ccNzw1my.s:89175  .debug_str:0000000000003409 .LASF44
     /tmp/ccNzw1my.s:103803  .debug_str:000000000003e95d .LASF45
     /tmp/ccNzw1my.s:89855  .debug_str:00000000000061c4 .LASF46
     /tmp/ccNzw1my.s:102323  .debug_str:00000000000386e4 .LASF47
     /tmp/ccNzw1my.s:99267  .debug_str:000000000002c5a8 .LASF48
     /tmp/ccNzw1my.s:95565  .debug_str:000000000001d4fb .LASF49
     /tmp/ccNzw1my.s:106733  .debug_str:000000000004ad26 .LASF50
     /tmp/ccNzw1my.s:90079  .debug_str:00000000000071b5 .LASF51
     /tmp/ccNzw1my.s:94371  .debug_str:00000000000182a2 .LASF52
     /tmp/ccNzw1my.s:101051  .debug_str:0000000000033b35 .LASF53
     /tmp/ccNzw1my.s:88861  .debug_str:0000000000001d6c .LASF54
     /tmp/ccNzw1my.s:91337  .debug_str:000000000000c749 .LASF55
     /tmp/ccNzw1my.s:105249  .debug_str:00000000000449e2 .LASF56
     /tmp/ccNzw1my.s:103691  .debug_str:000000000003e203 .LASF57
     /tmp/ccNzw1my.s:106393  .debug_str:000000000004962e .LASF58
     /tmp/ccNzw1my.s:104879  .debug_str:0000000000043290 .LASF59
     /tmp/ccNzw1my.s:99231  .debug_str:000000000002c2ea .LASF60
     /tmp/ccNzw1my.s:104943  .debug_str:000000000004368b .LASF61
     /tmp/ccNzw1my.s:98193  .debug_str:000000000002811c .LASF62
     /tmp/ccNzw1my.s:103587  .debug_str:000000000003db9c .LASF63
     /tmp/ccNzw1my.s:97551  .debug_str:00000000000255a4 .LASF64
     /tmp/ccNzw1my.s:98881  .debug_str:000000000002aca4 .LASF65
     /tmp/ccNzw1my.s:100247  .debug_str:00000000000305a3 .LASF66
     /tmp/ccNzw1my.s:95615  .debug_str:000000000001d841 .LASF67
     /tmp/ccNzw1my.s:105005  .debug_str:0000000000043a11 .LASF68
     /tmp/ccNzw1my.s:102715  .debug_str:000000000003a158 .LASF69
     /tmp/ccNzw1my.s:107245  .debug_str:000000000004d270 .LASF70
     /tmp/ccNzw1my.s:93901  .debug_str:000000000001647d .LASF71
     /tmp/ccNzw1my.s:88967  .debug_str:00000000000024ca .LASF72
     /tmp/ccNzw1my.s:105461  .debug_str:00000000000457b7 .LASF73
     /tmp/ccNzw1my.s:97451  .debug_str:0000000000024f3c .LASF74
     /tmp/ccNzw1my.s:93949  .debug_str:000000000001674e .LASF75
     /tmp/ccNzw1my.s:96783  .debug_str:000000000002281d .LASF76
     /tmp/ccNzw1my.s:90465  .debug_str:0000000000008b22 .LASF77
     /tmp/ccNzw1my.s:100463  .debug_str:0000000000031560 .LASF78
     /tmp/ccNzw1my.s:98559  .debug_str:00000000000297c1 .LASF79
     /tmp/ccNzw1my.s:100003  .debug_str:000000000002f6dd .LASF80
     /tmp/ccNzw1my.s:93139  .debug_str:0000000000013511 .LASF81
     /tmp/ccNzw1my.s:90639  .debug_str:0000000000009723 .LASF82
     /tmp/ccNzw1my.s:90669  .debug_str:0000000000009958 .LASF83
     /tmp/ccNzw1my.s:92349  .debug_str:00000000000101dc .LASF84
     /tmp/ccNzw1my.s:98927  .debug_str:000000000002af7e .LASF85
     /tmp/ccNzw1my.s:89419  .debug_str:0000000000004464 .LASF86
     /tmp/ccNzw1my.s:97129  .debug_str:0000000000023e0c .LASF87
     /tmp/ccNzw1my.s:105825  .debug_str:000000000004708b .LASF88
     /tmp/ccNzw1my.s:89953  .debug_str:0000000000006863 .LASF89
     /tmp/ccNzw1my.s:97799  .debug_str:0000000000026631 .LASF90
     /tmp/ccNzw1my.s:94627  .debug_str:00000000000193be .LASF91
     /tmp/ccNzw1my.s:96797  .debug_str:000000000002295c .LASF92
     /tmp/ccNzw1my.s:105845  .debug_str:00000000000471af .LASF93
     /tmp/ccNzw1my.s:106281  .debug_str:0000000000048eb1 .LASF94
     /tmp/ccNzw1my.s:100301  .debug_str:0000000000030903 .LASF95
     /tmp/ccNzw1my.s:96383  .debug_str:0000000000020eb6 .LASF96
     /tmp/ccNzw1my.s:91737  .debug_str:000000000000dfeb .LASF97
     /tmp/ccNzw1my.s:100459  .debug_str:0000000000031525 .LASF98
     /tmp/ccNzw1my.s:102449  .debug_str:0000000000038fa7 .LASF99
     /tmp/ccNzw1my.s:101865  .debug_str:0000000000036e36 .LASF100
     /tmp/ccNzw1my.s:89143  .debug_str:00000000000031d1 .LASF101
     /tmp/ccNzw1my.s:99087  .debug_str:000000000002ba28 .LASF102
     /tmp/ccNzw1my.s:91391  .debug_str:000000000000cab3 .LASF103
     /tmp/ccNzw1my.s:98963  .debug_str:000000000002b286 .LASF104
     /tmp/ccNzw1my.s:97003  .debug_str:0000000000023733 .LASF105
     /tmp/ccNzw1my.s:98769  .debug_str:000000000002a575 .LASF106
     /tmp/ccNzw1my.s:89519  .debug_str:0000000000004b78 .LASF107
     /tmp/ccNzw1my.s:101507  .debug_str:000000000003595e .LASF108
     /tmp/ccNzw1my.s:99949  .debug_str:000000000002f36b .LASF109
     /tmp/ccNzw1my.s:102319  .debug_str:00000000000386ba .LASF110
     /tmp/ccNzw1my.s:91545  .debug_str:000000000000d4b4 .LASF111
     /tmp/ccNzw1my.s:102269  .debug_str:0000000000038318 .LASF112
     /tmp/ccNzw1my.s:88609  .debug_str:0000000000000bf9 .LASF113
     /tmp/ccNzw1my.s:104215  .debug_str:00000000000406e6 .LASF114
     /tmp/ccNzw1my.s:105629  .debug_str:00000000000462c1 .LASF115
     /tmp/ccNzw1my.s:97351  .debug_str:00000000000249b8 .LASF116
     /tmp/ccNzw1my.s:92907  .debug_str:00000000000125ae .LASF117
     /tmp/ccNzw1my.s:93463  .debug_str:0000000000014875 .LASF118
     /tmp/ccNzw1my.s:101499  .debug_str:0000000000035907 .LASF119
     /tmp/ccNzw1my.s:99271  .debug_str:000000000002c5dc .LASF120
     /tmp/ccNzw1my.s:92277  .debug_str:000000000000fdde .LASF121
     /tmp/ccNzw1my.s:93693  .debug_str:00000000000156d6 .LASF122
     /tmp/ccNzw1my.s:92477  .debug_str:00000000000108bf .LASF123
     /tmp/ccNzw1my.s:94579  .debug_str:00000000000190e8 .LASF124
     /tmp/ccNzw1my.s:102003  .debug_str:00000000000375df .LASF125
     /tmp/ccNzw1my.s:103583  .debug_str:000000000003db5c .LASF126
     /tmp/ccNzw1my.s:103225  .debug_str:000000000003c44d .LASF127
     /tmp/ccNzw1my.s:102443  .debug_str:0000000000038f28 .LASF128
     /tmp/ccNzw1my.s:98385  .debug_str:0000000000028cf1 .LASF129
     /tmp/ccNzw1my.s:103095  .debug_str:000000000003bbb0 .LASF130
     /tmp/ccNzw1my.s:92647  .debug_str:000000000001141d .LASF131
     /tmp/ccNzw1my.s:96539  .debug_str:00000000000217ea .LASF132
     /tmp/ccNzw1my.s:98457  .debug_str:00000000000291ea .LASF133
     /tmp/ccNzw1my.s:93003  .debug_str:0000000000012cb3 .LASF134
     /tmp/ccNzw1my.s:105385  .debug_str:000000000004523f .LASF135
     /tmp/ccNzw1my.s:103413  .debug_str:000000000003cfcb .LASF136
     /tmp/ccNzw1my.s:103581  .debug_str:000000000003db3c .LASF137
     /tmp/ccNzw1my.s:95485  .debug_str:000000000001cf78 .LASF138
     /tmp/ccNzw1my.s:101573  .debug_str:0000000000035d89 .LASF139
     /tmp/ccNzw1my.s:93591  .debug_str:00000000000150c9 .LASF140
     /tmp/ccNzw1my.s:106421  .debug_str:0000000000049836 .LASF141
     /tmp/ccNzw1my.s:98303  .debug_str:00000000000287c6 .LASF142
     /tmp/ccNzw1my.s:97271  .debug_str:00000000000245fd .LASF143
     /tmp/ccNzw1my.s:92703  .debug_str:00000000000117e8 .LASF144
     /tmp/ccNzw1my.s:91313  .debug_str:000000000000c57c .LASF145
     /tmp/ccNzw1my.s:92291  .debug_str:000000000000fea1 .LASF146
     /tmp/ccNzw1my.s:93061  .debug_str:0000000000013031 .LASF147
     /tmp/ccNzw1my.s:95895  .debug_str:000000000001eb68 .LASF148
     /tmp/ccNzw1my.s:100001  .debug_str:000000000002f6c9 .LASF149
     /tmp/ccNzw1my.s:103631  .debug_str:000000000003de52 .LASF150
     /tmp/ccNzw1my.s:94663  .debug_str:000000000001968d .LASF151
     /tmp/ccNzw1my.s:97403  .debug_str:0000000000024bd0 .LASF152
     /tmp/ccNzw1my.s:90613  .debug_str:0000000000009557 .LASF153
     /tmp/ccNzw1my.s:104049  .debug_str:000000000003fb12 .LASF154
     /tmp/ccNzw1my.s:93031  .debug_str:0000000000012ecb .LASF155
     /tmp/ccNzw1my.s:105439  .debug_str:00000000000455fa .LASF156
     /tmp/ccNzw1my.s:99101  .debug_str:000000000002bad3 .LASF157
     /tmp/ccNzw1my.s:89693  .debug_str:000000000000575f .LASF158
     /tmp/ccNzw1my.s:89949  .debug_str:00000000000067e1 .LASF159
     /tmp/ccNzw1my.s:106689  .debug_str:000000000004aa3c .LASF160
     /tmp/ccNzw1my.s:103847  .debug_str:000000000003ecdb .LASF161
     /tmp/ccNzw1my.s:99423  .debug_str:000000000002cfd7 .LASF162
     /tmp/ccNzw1my.s:92771  .debug_str:0000000000011d09 .LASF163
     /tmp/ccNzw1my.s:93601  .debug_str:0000000000015162 .LASF164
     /tmp/ccNzw1my.s:105949  .debug_str:00000000000477fc .LASF165
     /tmp/ccNzw1my.s:100307  .debug_str:000000000003099c .LASF166
     /tmp/ccNzw1my.s:92853  .debug_str:000000000001223c .LASF167
     /tmp/ccNzw1my.s:88957  .debug_str:0000000000002408 .LASF168
     /tmp/ccNzw1my.s:99325  .debug_str:000000000002c957 .LASF169
     /tmp/ccNzw1my.s:102537  .debug_str:0000000000039540 .LASF170
     /tmp/ccNzw1my.s:100999  .debug_str:0000000000033776 .LASF171
     /tmp/ccNzw1my.s:99785  .debug_str:000000000002e81f .LASF172
     /tmp/ccNzw1my.s:90947  .debug_str:000000000000ab46 .LASF173
     /tmp/ccNzw1my.s:102723  .debug_str:000000000003a1e9 .LASF174
     /tmp/ccNzw1my.s:100243  .debug_str:0000000000030574 .LASF175
     /tmp/ccNzw1my.s:93069  .debug_str:00000000000130bb .LASF176
     /tmp/ccNzw1my.s:92995  .debug_str:0000000000012c46 .LASF177
     /tmp/ccNzw1my.s:101835  .debug_str:0000000000036d4f .LASF178
     /tmp/ccNzw1my.s:99223  .debug_str:000000000002c264 .LASF179
     /tmp/ccNzw1my.s:101025  .debug_str:000000000003396f .LASF180
     /tmp/ccNzw1my.s:93105  .debug_str:00000000000132e5 .LASF181
     /tmp/ccNzw1my.s:106335  .debug_str:0000000000049211 .LASF182
     /tmp/ccNzw1my.s:90689  .debug_str:0000000000009a73 .LASF183
     /tmp/ccNzw1my.s:105561  .debug_str:0000000000045e68 .LASF184
     /tmp/ccNzw1my.s:96681  .debug_str:0000000000022114 .LASF185
     /tmp/ccNzw1my.s:93891  .debug_str:00000000000163ce .LASF186
     /tmp/ccNzw1my.s:97545  .debug_str:0000000000025505 .LASF187
     /tmp/ccNzw1my.s:89571  .debug_str:0000000000004eb2 .LASF188
     /tmp/ccNzw1my.s:89453  .debug_str:0000000000004659 .LASF189
     /tmp/ccNzw1my.s:92975  .debug_str:0000000000012ac3 .LASF190
     /tmp/ccNzw1my.s:106929  .debug_str:000000000004bc86 .LASF191
     /tmp/ccNzw1my.s:103317  .debug_str:000000000003ca3e .LASF192
     /tmp/ccNzw1my.s:95801  .debug_str:000000000001e530 .LASF193
     /tmp/ccNzw1my.s:89457  .debug_str:00000000000046a9 .LASF194
     /tmp/ccNzw1my.s:103663  .debug_str:000000000003e034 .LASF195
     /tmp/ccNzw1my.s:105117  .debug_str:0000000000044167 .LASF196
     /tmp/ccNzw1my.s:96851  .debug_str:0000000000022c94 .LASF197
     /tmp/ccNzw1my.s:88505  .debug_str:00000000000004d3 .LASF198
     /tmp/ccNzw1my.s:89167  .debug_str:000000000000338f .LASF199
     /tmp/ccNzw1my.s:104235  .debug_str:000000000004082b .LASF200
     /tmp/ccNzw1my.s:99503  .debug_str:000000000002d52f .LASF201
     /tmp/ccNzw1my.s:105781  .debug_str:0000000000046d36 .LASF202
     /tmp/ccNzw1my.s:102213  .debug_str:0000000000038022 .LASF203
     /tmp/ccNzw1my.s:89637  .debug_str:00000000000052bb .LASF204
     /tmp/ccNzw1my.s:105751  .debug_str:0000000000046b02 .LASF205
     /tmp/ccNzw1my.s:96991  .debug_str:000000000002367b .LASF206
     /tmp/ccNzw1my.s:104219  .debug_str:0000000000040746 .LASF207
     /tmp/ccNzw1my.s:95595  .debug_str:000000000001d73a .LASF208
     /tmp/ccNzw1my.s:98729  .debug_str:000000000002a340 .LASF209
     /tmp/ccNzw1my.s:94001  .debug_str:0000000000016b33 .LASF210
     /tmp/ccNzw1my.s:91663  .debug_str:000000000000db79 .LASF211
     /tmp/ccNzw1my.s:107047  .debug_str:000000000004c4bb .LASF212
     /tmp/ccNzw1my.s:104341  .debug_str:0000000000040e82 .LASF213
     /tmp/ccNzw1my.s:94069  .debug_str:000000000001700c .LASF214
     /tmp/ccNzw1my.s:97261  .debug_str:0000000000024571 .LASF215
     /tmp/ccNzw1my.s:95581  .debug_str:000000000001d5fd .LASF216
     /tmp/ccNzw1my.s:93847  .debug_str:0000000000016108 .LASF217
     /tmp/ccNzw1my.s:95345  .debug_str:000000000001c5a6 .LASF218
     /tmp/ccNzw1my.s:89771  .debug_str:0000000000005c89 .LASF219
     /tmp/ccNzw1my.s:96645  .debug_str:0000000000021f65 .LASF220
     /tmp/ccNzw1my.s:106845  .debug_str:000000000004b6c7 .LASF221
     /tmp/ccNzw1my.s:103261  .debug_str:000000000003c688 .LASF222
     /tmp/ccNzw1my.s:93255  .debug_str:0000000000013c62 .LASF223
     /tmp/ccNzw1my.s:104801  .debug_str:0000000000042db8 .LASF224
     /tmp/ccNzw1my.s:106563  .debug_str:000000000004a17e .LASF225
     /tmp/ccNzw1my.s:94639  .debug_str:00000000000194c7 .LASF226
     /tmp/ccNzw1my.s:103183  .debug_str:000000000003c194 .LASF227
     /tmp/ccNzw1my.s:94729  .debug_str:0000000000019b21 .LASF228
     /tmp/ccNzw1my.s:101863  .debug_str:0000000000036e1b .LASF229
     /tmp/ccNzw1my.s:90677  .debug_str:00000000000099be .LASF230
     /tmp/ccNzw1my.s:90953  .debug_str:000000000000abcb .LASF231
     /tmp/ccNzw1my.s:94761  .debug_str:0000000000019dda .LASF232
     /tmp/ccNzw1my.s:92495  .debug_str:00000000000109eb .LASF233
     /tmp/ccNzw1my.s:89703  .debug_str:0000000000005816 .LASF234
     /tmp/ccNzw1my.s:102849  .debug_str:000000000003ab44 .LASF235
     /tmp/ccNzw1my.s:100063  .debug_str:000000000002fa79 .LASF236
     /tmp/ccNzw1my.s:92185  .debug_str:000000000000f8b8 .LASF237
     /tmp/ccNzw1my.s:91845  .debug_str:000000000000e609 .LASF238
     /tmp/ccNzw1my.s:106229  .debug_str:0000000000048ade .LASF239
     /tmp/ccNzw1my.s:94175  .debug_str:00000000000176a0 .LASF240
     /tmp/ccNzw1my.s:95451  .debug_str:000000000001cd40 .LASF241
     /tmp/ccNzw1my.s:89917  .debug_str:0000000000006597 .LASF242
     /tmp/ccNzw1my.s:93055  .debug_str:0000000000012fee .LASF243
     /tmp/ccNzw1my.s:104953  .debug_str:00000000000436f5 .LASF244
     /tmp/ccNzw1my.s:101201  .debug_str:000000000003458f .LASF245
     /tmp/ccNzw1my.s:94157  .debug_str:000000000001758d .LASF246
     /tmp/ccNzw1my.s:104005  .debug_str:000000000003f846 .LASF247
     /tmp/ccNzw1my.s:96785  .debug_str:0000000000022844 .LASF248
     /tmp/ccNzw1my.s:101197  .debug_str:0000000000034564 .LASF249
     /tmp/ccNzw1my.s:95529  .debug_str:000000000001d274 .LASF250
     /tmp/ccNzw1my.s:105835  .debug_str:000000000004713a .LASF251
     /tmp/ccNzw1my.s:94953  .debug_str:000000000001aa77 .LASF252
     /tmp/ccNzw1my.s:101725  .debug_str:00000000000366ba .LASF253
     /tmp/ccNzw1my.s:89769  .debug_str:0000000000005c77 .LASF254
     /tmp/ccNzw1my.s:102751  .debug_str:000000000003a413 .LASF255
     /tmp/ccNzw1my.s:89989  .debug_str:0000000000006ad2 .LASF256
     /tmp/ccNzw1my.s:90261  .debug_str:0000000000007cec .LASF257
     /tmp/ccNzw1my.s:106149  .debug_str:00000000000484e1 .LASF258
     /tmp/ccNzw1my.s:104085  .debug_str:000000000003fd51 .LASF259
     /tmp/ccNzw1my.s:100305  .debug_str:000000000003095d .LASF260
     /tmp/ccNzw1my.s:95627  .debug_str:000000000001d904 .LASF261
     /tmp/ccNzw1my.s:105219  .debug_str:0000000000044730 .LASF262
     /tmp/ccNzw1my.s:102929  .debug_str:000000000003b08e .LASF263
     /tmp/ccNzw1my.s:98913  .debug_str:000000000002aeac .LASF264
     /tmp/ccNzw1my.s:91183  .debug_str:000000000000bcd0 .LASF265
     /tmp/ccNzw1my.s:103845  .debug_str:000000000003ecc0 .LASF266
     /tmp/ccNzw1my.s:99389  .debug_str:000000000002cdd9 .LASF267
     /tmp/ccNzw1my.s:95913  .debug_str:000000000001ec87 .LASF268
     /tmp/ccNzw1my.s:101787  .debug_str:00000000000369f2 .LASF269
     /tmp/ccNzw1my.s:89045  .debug_str:0000000000002a70 .LASF270
     /tmp/ccNzw1my.s:92021  .debug_str:000000000000eeb9 .LASF271
     /tmp/ccNzw1my.s:106325  .debug_str:0000000000049185 .LASF272
     /tmp/ccNzw1my.s:93165  .debug_str:00000000000136ed .LASF273
     /tmp/ccNzw1my.s:95545  .debug_str:000000000001d366 .LASF274
     /tmp/ccNzw1my.s:102239  .debug_str:000000000003818c .LASF275
     /tmp/ccNzw1my.s:97795  .debug_str:00000000000265dd .LASF276
     /tmp/ccNzw1my.s:88589  .debug_str:0000000000000af0 .LASF277
     /tmp/ccNzw1my.s:101545  .debug_str:0000000000035b7a .LASF278
     /tmp/ccNzw1my.s:100427  .debug_str:00000000000312a4 .LASF279
     /tmp/ccNzw1my.s:106449  .debug_str:00000000000499da .LASF280
     /tmp/ccNzw1my.s:98643  .debug_str:0000000000029d19 .LASF281
     /tmp/ccNzw1my.s:103783  .debug_str:000000000003e7cc .LASF282
     /tmp/ccNzw1my.s:88819  .debug_str:0000000000001a56 .LASF283
     /tmp/ccNzw1my.s:107349  .debug_str:000000000004d987 .LASF284
     /tmp/ccNzw1my.s:100443  .debug_str:00000000000313dc .LASF285
     /tmp/ccNzw1my.s:100237  .debug_str:000000000003052a .LASF286
     /tmp/ccNzw1my.s:93841  .debug_str:0000000000016068 .LASF287
     /tmp/ccNzw1my.s:107043  .debug_str:000000000004c48d .LASF288
     /tmp/ccNzw1my.s:105749  .debug_str:0000000000046aeb .LASF289
     /tmp/ccNzw1my.s:94089  .debug_str:00000000000171b3 .LASF290
     /tmp/ccNzw1my.s:90615  .debug_str:000000000000956b .LASF291
     /tmp/ccNzw1my.s:102903  .debug_str:000000000003aeac .LASF292
     /tmp/ccNzw1my.s:104675  .debug_str:0000000000042557 .LASF293
     /tmp/ccNzw1my.s:101635  .debug_str:00000000000360ed .LASF294
     /tmp/ccNzw1my.s:90173  .debug_str:000000000000777d .LASF295
     /tmp/ccNzw1my.s:98293  .debug_str:0000000000028709 .LASF296
     /tmp/ccNzw1my.s:95969  .debug_str:000000000001f134 .LASF297
     /tmp/ccNzw1my.s:103705  .debug_str:000000000003e2c9 .LASF298
     /tmp/ccNzw1my.s:91025  .debug_str:000000000000b163 .LASF299
     /tmp/ccNzw1my.s:103881  .debug_str:000000000003ef49 .LASF300
     /tmp/ccNzw1my.s:93567  .debug_str:0000000000014f40 .LASF301
     /tmp/ccNzw1my.s:103821  .debug_str:000000000003ea8c .LASF302
     /tmp/ccNzw1my.s:92093  .debug_str:000000000000f2b6 .LASF303
     /tmp/ccNzw1my.s:97633  .debug_str:0000000000025b99 .LASF304
     /tmp/ccNzw1my.s:102363  .debug_str:0000000000038976 .LASF305
     /tmp/ccNzw1my.s:100483  .debug_str:000000000003169b .LASF306
     /tmp/ccNzw1my.s:96811  .debug_str:0000000000022a55 .LASF307
     /tmp/ccNzw1my.s:105775  .debug_str:0000000000046cd4 .LASF308
     /tmp/ccNzw1my.s:105787  .debug_str:0000000000046dc4 .LASF309
     /tmp/ccNzw1my.s:99903  .debug_str:000000000002efc7 .LASF310
     /tmp/ccNzw1my.s:90195  .debug_str:00000000000078fa .LASF311
     /tmp/ccNzw1my.s:88599  .debug_str:0000000000000b4c .LASF312
     /tmp/ccNzw1my.s:102233  .debug_str:0000000000038153 .LASF313
     /tmp/ccNzw1my.s:100629  .debug_str:0000000000032032 .LASF314
     /tmp/ccNzw1my.s:101481  .debug_str:0000000000035812 .LASF315
     /tmp/ccNzw1my.s:88675  .debug_str:000000000000106f .LASF316
     /tmp/ccNzw1my.s:95467  .debug_str:000000000001ce51 .LASF317
     /tmp/ccNzw1my.s:96651  .debug_str:0000000000021fb1 .LASF318
     /tmp/ccNzw1my.s:95983  .debug_str:000000000001f26d .LASF319
     /tmp/ccNzw1my.s:106027  .debug_str:0000000000047ccf .LASF320
     /tmp/ccNzw1my.s:103543  .debug_str:000000000003d87e .LASF321
     /tmp/ccNzw1my.s:100071  .debug_str:000000000002fb0d .LASF322
     /tmp/ccNzw1my.s:93727  .debug_str:00000000000158fd .LASF323
     /tmp/ccNzw1my.s:107309  .debug_str:000000000004d6d6 .LASF324
     /tmp/ccNzw1my.s:94467  .debug_str:0000000000018942 .LASF325
     /tmp/ccNzw1my.s:97595  .debug_str:00000000000258cb .LASF326
     /tmp/ccNzw1my.s:102953  .debug_str:000000000003b21d .LASF327
     /tmp/ccNzw1my.s:90453  .debug_str:0000000000008a2a .LASF328
     /tmp/ccNzw1my.s:105941  .debug_str:000000000004779c .LASF329
     /tmp/ccNzw1my.s:105407  .debug_str:00000000000453af .LASF330
     /tmp/ccNzw1my.s:95851  .debug_str:000000000001e8ae .LASF331
     /tmp/ccNzw1my.s:93295  .debug_str:0000000000013ebe .LASF332
     /tmp/ccNzw1my.s:93465  .debug_str:0000000000014889 .LASF333
     /tmp/ccNzw1my.s:105371  .debug_str:0000000000045176 .LASF334
     /tmp/ccNzw1my.s:98999  .debug_str:000000000002b453 .LASF335
     /tmp/ccNzw1my.s:104395  .debug_str:0000000000041254 .LASF336
     /tmp/ccNzw1my.s:103027  .debug_str:000000000003b714 .LASF337
     /tmp/ccNzw1my.s:103451  .debug_str:000000000003d2a7 .LASF338
     /tmp/ccNzw1my.s:96885  .debug_str:0000000000022ec8 .LASF339
     /tmp/ccNzw1my.s:105027  .debug_str:0000000000043ba3 .LASF340
     /tmp/ccNzw1my.s:103807  .debug_str:000000000003e98e .LASF341
     /tmp/ccNzw1my.s:100175  .debug_str:0000000000030163 .LASF342
     /tmp/ccNzw1my.s:103145  .debug_str:000000000003beed .LASF343
     /tmp/ccNzw1my.s:91467  .debug_str:000000000000cfef .LASF344
     /tmp/ccNzw1my.s:105831  .debug_str:00000000000470eb .LASF345
     /tmp/ccNzw1my.s:103757  .debug_str:000000000003e606 .LASF346
     /tmp/ccNzw1my.s:90125  .debug_str:000000000000747b .LASF347
     /tmp/ccNzw1my.s:89035  .debug_str:00000000000029f3 .LASF348
     /tmp/ccNzw1my.s:92965  .debug_str:00000000000129c3 .LASF349
     /tmp/ccNzw1my.s:96031  .debug_str:000000000001f59b .LASF350
     /tmp/ccNzw1my.s:99865  .debug_str:000000000002ed4f .LASF351
     /tmp/ccNzw1my.s:90383  .debug_str:0000000000008551 .LASF352
     /tmp/ccNzw1my.s:95317  .debug_str:000000000001c3ac .LASF353
     /tmp/ccNzw1my.s:90417  .debug_str:00000000000087cc .LASF354
     /tmp/ccNzw1my.s:100825  .debug_str:0000000000032bf2 .LASF355
     /tmp/ccNzw1my.s:98759  .debug_str:000000000002a535 .LASF356
     /tmp/ccNzw1my.s:94101  .debug_str:0000000000017295 .LASF357
     /tmp/ccNzw1my.s:89813  .debug_str:0000000000005f40 .LASF358
     /tmp/ccNzw1my.s:107323  .debug_str:000000000004d7dd .LASF359
     /tmp/ccNzw1my.s:105919  .debug_str:0000000000047679 .LASF360
     /tmp/ccNzw1my.s:101557  .debug_str:0000000000035c6f .LASF361
     /tmp/ccNzw1my.s:96531  .debug_str:0000000000021786 .LASF362
     /tmp/ccNzw1my.s:90245  .debug_str:0000000000007be0 .LASF363
     /tmp/ccNzw1my.s:89345  .debug_str:0000000000003ee0 .LASF364
     /tmp/ccNzw1my.s:89551  .debug_str:0000000000004d42 .LASF365
     /tmp/ccNzw1my.s:106333  .debug_str:00000000000491ff .LASF366
     /tmp/ccNzw1my.s:98045  .debug_str:0000000000027722 .LASF367
     /tmp/ccNzw1my.s:104247  .debug_str:00000000000408e3 .LASF368
     /tmp/ccNzw1my.s:92433  .debug_str:0000000000010667 .LASF369
     /tmp/ccNzw1my.s:103647  .debug_str:000000000003df3c .LASF370
     /tmp/ccNzw1my.s:102553  .debug_str:0000000000039633 .LASF371
     /tmp/ccNzw1my.s:99215  .debug_str:000000000002c1c6 .LASF372
     /tmp/ccNzw1my.s:97685  .debug_str:0000000000025ecb .LASF373
     /tmp/ccNzw1my.s:92181  .debug_str:000000000000f897 .LASF374
     /tmp/ccNzw1my.s:95109  .debug_str:000000000001b60c .LASF375
     /tmp/ccNzw1my.s:101203  .debug_str:00000000000345cd .LASF376
     /tmp/ccNzw1my.s:91697  .debug_str:000000000000dd9d .LASF377
     /tmp/ccNzw1my.s:94479  .debug_str:0000000000018a39 .LASF378
     /tmp/ccNzw1my.s:98647  .debug_str:0000000000029d4d .LASF379
     /tmp/ccNzw1my.s:98283  .debug_str:0000000000028686 .LASF380
     /tmp/ccNzw1my.s:107035  .debug_str:000000000004c40a .LASF381
     /tmp/ccNzw1my.s:94577  .debug_str:00000000000190d2 .LASF386
     /tmp/ccNzw1my.s:101349  .debug_str:0000000000034f82 .LASF387
     /tmp/ccNzw1my.s:98633  .debug_str:0000000000029cb1 .LASF388
     /tmp/ccNzw1my.s:93259  .debug_str:0000000000013c86 .LASF389
     /tmp/ccNzw1my.s:102009  .debug_str:000000000003764f .LASF390
     /tmp/ccNzw1my.s:99207  .debug_str:000000000002c0fd .LASF391
     /tmp/ccNzw1my.s:89833  .debug_str:000000000000605f .LASF392
     /tmp/ccNzw1my.s:103331  .debug_str:000000000003cb4f .LASF393
     /tmp/ccNzw1my.s:88555  .debug_str:000000000000087d .LASF394
     /tmp/ccNzw1my.s:93423  .debug_str:0000000000014616 .LASF395
     /tmp/ccNzw1my.s:95577  .debug_str:000000000001d5b4 .LASF396
     /tmp/ccNzw1my.s:95025  .debug_str:000000000001aff3 .LASF397
     /tmp/ccNzw1my.s:93497  .debug_str:0000000000014ac6 .LASF398
     /tmp/ccNzw1my.s:98543  .debug_str:00000000000296fc .LASF399
     /tmp/ccNzw1my.s:103527  .debug_str:000000000003d774 .LASF400
     /tmp/ccNzw1my.s:103951  .debug_str:000000000003f49b .LASF401
     /tmp/ccNzw1my.s:102081  .debug_str:00000000000379ac .LASF402
     /tmp/ccNzw1my.s:93603  .debug_str:0000000000015176 .LASF403
     /tmp/ccNzw1my.s:94507  .debug_str:0000000000018c1a .LASF404
     /tmp/ccNzw1my.s:97393  .debug_str:0000000000024b6b .LASF405
     /tmp/ccNzw1my.s:99559  .debug_str:000000000002d8d3 .LASF406
     /tmp/ccNzw1my.s:91627  .debug_str:000000000000d8fd .LASF407
     /tmp/ccNzw1my.s:95047  .debug_str:000000000001b19c .LASF408
     /tmp/ccNzw1my.s:94733  .debug_str:0000000000019b42 .LASF409
     /tmp/ccNzw1my.s:91539  .debug_str:000000000000d468 .LASF410
     /tmp/ccNzw1my.s:94149  .debug_str:0000000000017516 .LASF411
     /tmp/ccNzw1my.s:104719  .debug_str:0000000000042860 .LASF412
     /tmp/ccNzw1my.s:92413  .debug_str:00000000000104c9 .LASF413
     /tmp/ccNzw1my.s:89303  .debug_str:0000000000003beb .LASF414
     /tmp/ccNzw1my.s:93219  .debug_str:0000000000013a16 .LASF415
     /tmp/ccNzw1my.s:105031  .debug_str:0000000000043bdb .LASF416
     /tmp/ccNzw1my.s:94333  .debug_str:00000000000180b0 .LASF417
     /tmp/ccNzw1my.s:92205  .debug_str:000000000000fa0d .LASF418
     /tmp/ccNzw1my.s:99731  .debug_str:000000000002e4af .LASF419
     /tmp/ccNzw1my.s:103003  .debug_str:000000000003b5b1 .LASF420
     /tmp/ccNzw1my.s:100355  .debug_str:0000000000030dad .LASF421
     /tmp/ccNzw1my.s:100241  .debug_str:000000000003056e .LASF422
     /tmp/ccNzw1my.s:104815  .debug_str:0000000000042ea0 .LASF423
     /tmp/ccNzw1my.s:88805  .debug_str:0000000000001973 .LASF424
     /tmp/ccNzw1my.s:101397  .debug_str:00000000000352cc .LASF425
     /tmp/ccNzw1my.s:98977  .debug_str:000000000002b336 .LASF426
     /tmp/ccNzw1my.s:98247  .debug_str:000000000002844b .LASF428
     /tmp/ccNzw1my.s:107079  .debug_str:000000000004c719 .LASF429
     /tmp/ccNzw1my.s:99947  .debug_str:000000000002f361 .LASF430
     /tmp/ccNzw1my.s:100713  .debug_str:00000000000324f0 .LASF431
     /tmp/ccNzw1my.s:88907  .debug_str:00000000000020b7 .LASF432
     /tmp/ccNzw1my.s:91267  .debug_str:000000000000c267 .LASF433
     /tmp/ccNzw1my.s:99815  .debug_str:000000000002ea3b .LASF434
     /tmp/ccNzw1my.s:97963  .debug_str:0000000000027101 .LASF435
     /tmp/ccNzw1my.s:105865  .debug_str:00000000000472e8 .LASF436
     /tmp/ccNzw1my.s:102041  .debug_str:000000000003773d .LASF437
     /tmp/ccNzw1my.s:100915  .debug_str:000000000003326c .LASF438
     /tmp/ccNzw1my.s:105069  .debug_str:0000000000043e62 .LASF439
     /tmp/ccNzw1my.s:101225  .debug_str:000000000003474d .LASF440
     /tmp/ccNzw1my.s:95137  .debug_str:000000000001b839 .LASF441
     /tmp/ccNzw1my.s:101277  .debug_str:0000000000034aba .LASF442
     /tmp/ccNzw1my.s:100465  .debug_str:0000000000031583 .LASF443
     /tmp/ccNzw1my.s:94373  .debug_str:00000000000182c1 .LASF444
     /tmp/ccNzw1my.s:106097  .debug_str:00000000000481a8 .LASF445
     /tmp/ccNzw1my.s:91721  .debug_str:000000000000def8 .LASF446
     /tmp/ccNzw1my.s:101927  .debug_str:000000000003726b .LASF447
     /tmp/ccNzw1my.s:89937  .debug_str:000000000000670b .LASF448
     /tmp/ccNzw1my.s:92519  .debug_str:0000000000010bd2 .LASF449
     /tmp/ccNzw1my.s:95207  .debug_str:000000000001bd28 .LASF450
     /tmp/ccNzw1my.s:102169  .debug_str:0000000000037e71 .LASF451
     /tmp/ccNzw1my.s:107263  .debug_str:000000000004d3a4 .LASF452
     /tmp/ccNzw1my.s:97875  .debug_str:0000000000026b57 .LASF453
     /tmp/ccNzw1my.s:96255  .debug_str:0000000000020542 .LASF454
     /tmp/ccNzw1my.s:102471  .debug_str:000000000003910a .LASF455
     /tmp/ccNzw1my.s:93673  .debug_str:0000000000015639 .LASF456
     /tmp/ccNzw1my.s:105583  .debug_str:0000000000045fd2 .LASF457
     /tmp/ccNzw1my.s:95887  .debug_str:000000000001eac9 .LASF458
     /tmp/ccNzw1my.s:103291  .debug_str:000000000003c86a .LASF459
     /tmp/ccNzw1my.s:98447  .debug_str:000000000002916c .LASF460
     /tmp/ccNzw1my.s:88719  .debug_str:0000000000001365 .LASF461
     /tmp/ccNzw1my.s:96141  .debug_str:000000000001fdb1 .LASF462
     /tmp/ccNzw1my.s:104771  .debug_str:0000000000042bdc .LASF463
     /tmp/ccNzw1my.s:96977  .debug_str:0000000000023599 .LASF464
     /tmp/ccNzw1my.s:104437  .debug_str:00000000000415c5 .LASF465
     /tmp/ccNzw1my.s:106021  .debug_str:0000000000047c81 .LASF466
     /tmp/ccNzw1my.s:99873  .debug_str:000000000002ed9c .LASF467
     /tmp/ccNzw1my.s:98737  .debug_str:000000000002a3b4 .LASF468
     /tmp/ccNzw1my.s:101323  .debug_str:0000000000034dee .LASF469
     /tmp/ccNzw1my.s:105463  .debug_str:00000000000457cb .LASF470
     /tmp/ccNzw1my.s:102127  .debug_str:0000000000037bb7 .LASF471
     /tmp/ccNzw1my.s:92691  .debug_str:0000000000011722 .LASF472
     /tmp/ccNzw1my.s:101023  .debug_str:0000000000033955 .LASF473
     /tmp/ccNzw1my.s:89793  .debug_str:0000000000005db8 .LASF474
     /tmp/ccNzw1my.s:103617  .debug_str:000000000003dd68 .LASF475
     /tmp/ccNzw1my.s:96315  .debug_str:0000000000020969 .LASF476
     /tmp/ccNzw1my.s:88467  .debug_str:000000000000025e .LASF477
     /tmp/ccNzw1my.s:95863  .debug_str:000000000001e9a1 .LASF478
     /tmp/ccNzw1my.s:96665  .debug_str:0000000000022054 .LASF479
     /tmp/ccNzw1my.s:104567  .debug_str:0000000000041e0d .LASF480
     /tmp/ccNzw1my.s:105899  .debug_str:0000000000047508 .LASF481
     /tmp/ccNzw1my.s:97949  .debug_str:0000000000026ffb .LASF482
     /tmp/ccNzw1my.s:96043  .debug_str:000000000001f6b6 .LASF483
     /tmp/ccNzw1my.s:100005  .debug_str:000000000002f6ed .LASF484
     /tmp/ccNzw1my.s:99009  .debug_str:000000000002b4fb .LASF485
     /tmp/ccNzw1my.s:95103  .debug_str:000000000001b590 .LASF486
     /tmp/ccNzw1my.s:106815  .debug_str:000000000004b44f .LASF487
     /tmp/ccNzw1my.s:92047  .debug_str:000000000000f05b .LASF488
     /tmp/ccNzw1my.s:105311  .debug_str:0000000000044dd0 .LASF489
     /tmp/ccNzw1my.s:98309  .debug_str:0000000000028820 .LASF490
     /tmp/ccNzw1my.s:89859  .debug_str:0000000000006218 .LASF491
     /tmp/ccNzw1my.s:105307  .debug_str:0000000000044d9b .LASF492
     /tmp/ccNzw1my.s:92905  .debug_str:000000000001258f .LASF493
     /tmp/ccNzw1my.s:96653  .debug_str:0000000000021fc1 .LASF494
     /tmp/ccNzw1my.s:105509  .debug_str:0000000000045b51 .LASF495
     /tmp/ccNzw1my.s:88995  .debug_str:000000000000270f .LASF496
     /tmp/ccNzw1my.s:100123  .debug_str:000000000002fdd8 .LASF497
     /tmp/ccNzw1my.s:107249  .debug_str:000000000004d2ab .LASF498
     /tmp/ccNzw1my.s:103709  .debug_str:000000000003e317 .LASF499
     /tmp/ccNzw1my.s:89553  .debug_str:0000000000004d4e .LASF500
     /tmp/ccNzw1my.s:90101  .debug_str:00000000000072ab .LASF501
     /tmp/ccNzw1my.s:105709  .debug_str:000000000004680c .LASF502
     /tmp/ccNzw1my.s:101705  .debug_str:0000000000036512 .LASF503
     /tmp/ccNzw1my.s:105071  .debug_str:0000000000043e6a .LASF504
     /tmp/ccNzw1my.s:88657  .debug_str:0000000000000f3e .LASF505
     /tmp/ccNzw1my.s:92753  .debug_str:0000000000011bab .LASF506
     /tmp/ccNzw1my.s:105871  .debug_str:000000000004732d .LASF507
     /tmp/ccNzw1my.s:88771  .debug_str:00000000000016b0 .LASF508
     /tmp/ccNzw1my.s:96749  .debug_str:00000000000225be .LASF509
     /tmp/ccNzw1my.s:88851  .debug_str:0000000000001cbc .LASF510
     /tmp/ccNzw1my.s:90035  .debug_str:0000000000006e62 .LASF511
     /tmp/ccNzw1my.s:99363  .debug_str:000000000002cbef .LASF512
     /tmp/ccNzw1my.s:99137  .debug_str:000000000002bd27 .LASF513
     /tmp/ccNzw1my.s:100475  .debug_str:00000000000315fb .LASF514
     /tmp/ccNzw1my.s:106297  .debug_str:0000000000048fca .LASF515
     /tmp/ccNzw1my.s:100693  .debug_str:00000000000323ad .LASF516
     /tmp/ccNzw1my.s:102841  .debug_str:000000000003aac8 .LASF517
     /tmp/ccNzw1my.s:105215  .debug_str:000000000004470b .LASF518
     /tmp/ccNzw1my.s:89545  .debug_str:0000000000004ce1 .LASF519
     /tmp/ccNzw1my.s:89923  .debug_str:00000000000065fb .LASF520
     /tmp/ccNzw1my.s:99519  .debug_str:000000000002d666 .LASF521
     /tmp/ccNzw1my.s:104811  .debug_str:0000000000042e52 .LASF522
     /tmp/ccNzw1my.s:101179  .debug_str:0000000000034464 .LASF523
     /tmp/ccNzw1my.s:105349  .debug_str:0000000000044ff5 .LASF524
     /tmp/ccNzw1my.s:99187  .debug_str:000000000002c01f .LASF525
     /tmp/ccNzw1my.s:97975  .debug_str:00000000000271c5 .LASF526
     /tmp/ccNzw1my.s:96381  .debug_str:0000000000020e9e .LASF527
     /tmp/ccNzw1my.s:101207  .debug_str:0000000000034609 .LASF528
     /tmp/ccNzw1my.s:106883  .debug_str:000000000004b967 .LASF529
     /tmp/ccNzw1my.s:106711  .debug_str:000000000004ab7e .LASF530
     /tmp/ccNzw1my.s:103671  .debug_str:000000000003e0ad .LASF531
     /tmp/ccNzw1my.s:101477  .debug_str:00000000000357e7 .LASF532
     /tmp/ccNzw1my.s:93719  .debug_str:00000000000158bb .LASF533
     /tmp/ccNzw1my.s:101369  .debug_str:0000000000035105 .LASF534
     /tmp/ccNzw1my.s:92091  .debug_str:000000000000f29e .LASF535
     /tmp/ccNzw1my.s:105253  .debug_str:0000000000044a22 .LASF536
     /tmp/ccNzw1my.s:96751  .debug_str:00000000000225e2 .LASF537
     /tmp/ccNzw1my.s:93171  .debug_str:0000000000013727 .LASF538
     /tmp/ccNzw1my.s:90011  .debug_str:0000000000006cda .LASF540
     /tmp/ccNzw1my.s:106323  .debug_str:0000000000049139 .LASF541
     /tmp/ccNzw1my.s:95325  .debug_str:000000000001c460 .LASF542
     /tmp/ccNzw1my.s:95715  .debug_str:000000000001de90 .LASF543
     /tmp/ccNzw1my.s:102255  .debug_str:000000000003825f .LASF544
     /tmp/ccNzw1my.s:96955  .debug_str:00000000000233b7 .LASF545
     /tmp/ccNzw1my.s:101273  .debug_str:0000000000034a38 .LASF546
     /tmp/ccNzw1my.s:106087  .debug_str:00000000000480bb .LASF547
     /tmp/ccNzw1my.s:92203  .debug_str:000000000000f9cb .LASF548
     /tmp/ccNzw1my.s:96973  .debug_str:0000000000023546 .LASF549
     /tmp/ccNzw1my.s:101619  .debug_str:0000000000035fae .LASF550
     /tmp/ccNzw1my.s:106327  .debug_str:000000000004919e .LASF551
     /tmp/ccNzw1my.s:92107  .debug_str:000000000000f3f2 .LASF552
     /tmp/ccNzw1my.s:90451  .debug_str:00000000000089e7 .LASF553
     /tmp/ccNzw1my.s:92395  .debug_str:00000000000103aa .LASF554
     /tmp/ccNzw1my.s:104881  .debug_str:00000000000432a7 .LASF555
     /tmp/ccNzw1my.s:95939  .debug_str:000000000001ee9f .LASF556
     /tmp/ccNzw1my.s:102123  .debug_str:0000000000037b33 .LASF557
     /tmp/ccNzw1my.s:89467  .debug_str:0000000000004752 .LASF558
     /tmp/ccNzw1my.s:91111  .debug_str:000000000000b82e .LASF559
     /tmp/ccNzw1my.s:100521  .debug_str:00000000000318f6 .LASF560
     /tmp/ccNzw1my.s:90737  .debug_str:0000000000009d60 .LASF561
     /tmp/ccNzw1my.s:100319  .debug_str:0000000000030a48 .LASF562
     /tmp/ccNzw1my.s:106199  .debug_str:000000000004889d .LASF563
     /tmp/ccNzw1my.s:96593  .debug_str:0000000000021b8b .LASF564
     /tmp/ccNzw1my.s:95343  .debug_str:000000000001c564 .LASF565
     /tmp/ccNzw1my.s:102881  .debug_str:000000000003ad1e .LASF566
     /tmp/ccNzw1my.s:91193  .debug_str:000000000000bd7c .LASF567
     /tmp/ccNzw1my.s:91235  .debug_str:000000000000c02b .LASF568
     /tmp/ccNzw1my.s:90997  .debug_str:000000000000af6d .LASF569
     /tmp/ccNzw1my.s:100403  .debug_str:00000000000310da .LASF570
     /tmp/ccNzw1my.s:88485  .debug_str:000000000000037d .LASF571
     /tmp/ccNzw1my.s:100191  .debug_str:0000000000030255 .LASF572
     /tmp/ccNzw1my.s:106073  .debug_str:0000000000047fcc .LASF573
     /tmp/ccNzw1my.s:96469  .debug_str:00000000000213bc .LASF574
     /tmp/ccNzw1my.s:105881  .debug_str:00000000000473f5 .LASF575
     /tmp/ccNzw1my.s:96275  .debug_str:00000000000206bd .LASF576
     /tmp/ccNzw1my.s:91071  .debug_str:000000000000b4b4 .LASF577
     /tmp/ccNzw1my.s:100487  .debug_str:00000000000316f8 .LASF578
     /tmp/ccNzw1my.s:90871  .debug_str:000000000000a635 .LASF579
     /tmp/ccNzw1my.s:100281  .debug_str:00000000000307a4 .LASF580
     /tmp/ccNzw1my.s:90485  .debug_str:0000000000008c85 .LASF581
     /tmp/ccNzw1my.s:98069  .debug_str:0000000000027865 .LASF582
     /tmp/ccNzw1my.s:105967  .debug_str:00000000000478ef .LASF583
     /tmp/ccNzw1my.s:90065  .debug_str:00000000000070c2 .LASF584
     /tmp/ccNzw1my.s:105771  .debug_str:0000000000046c5c .LASF585
     /tmp/ccNzw1my.s:96153  .debug_str:000000000001fe56 .LASF586
     /tmp/ccNzw1my.s:90965  .debug_str:000000000000ad0d .LASF587
     /tmp/ccNzw1my.s:100371  .debug_str:0000000000030ee3 .LASF588
     /tmp/ccNzw1my.s:90751  .debug_str:0000000000009e7a .LASF589
     /tmp/ccNzw1my.s:100159  .debug_str:000000000002ffee .LASF590
     /tmp/ccNzw1my.s:97135  .debug_str:0000000000023e4d .LASF591
     /tmp/ccNzw1my.s:91321  .debug_str:000000000000c606 .LASF592
     /tmp/ccNzw1my.s:104591  .debug_str:0000000000041fa3 .LASF593
     /tmp/ccNzw1my.s:104447  .debug_str:000000000004168b .LASF594
     /tmp/ccNzw1my.s:98047  .debug_str:0000000000027733 .LASF595
     /tmp/ccNzw1my.s:100865  .debug_str:0000000000032e62 .LASF596
     /tmp/ccNzw1my.s:91805  .debug_str:000000000000e3d0 .LASF597
     /tmp/ccNzw1my.s:106541  .debug_str:000000000004a001 .LASF598
     /tmp/ccNzw1my.s:93615  .debug_str:0000000000015252 .LASF599
     /tmp/ccNzw1my.s:107273  .debug_str:000000000004d44b .LASF600
     /tmp/ccNzw1my.s:95859  .debug_str:000000000001e926 .LASF601
     /tmp/ccNzw1my.s:105009  .debug_str:0000000000043a40 .LASF602
     /tmp/ccNzw1my.s:104703  .debug_str:0000000000042711 .LASF603
     /tmp/ccNzw1my.s:104441  .debug_str:000000000004160f .LASF604
     /tmp/ccNzw1my.s:88821  .debug_str:0000000000001a6e .LASF605
     /tmp/ccNzw1my.s:103897  .debug_str:000000000003f050 .LASF606
     /tmp/ccNzw1my.s:97673  .debug_str:0000000000025e06 .LASF607
     /tmp/ccNzw1my.s:101459  .debug_str:000000000003567a .LASF608
     /tmp/ccNzw1my.s:95849  .debug_str:000000000001e867 .LASF609
     /tmp/ccNzw1my.s:95551  .debug_str:000000000001d3bd .LASF610
     /tmp/ccNzw1my.s:93737  .debug_str:000000000001598e .LASF611
     /tmp/ccNzw1my.s:106747  .debug_str:000000000004ae41 .LASF612
     /tmp/ccNzw1my.s:100555  .debug_str:0000000000031b42 .LASF613
     /tmp/ccNzw1my.s:96037  .debug_str:000000000001f62b .LASF614
     /tmp/ccNzw1my.s:99881  .debug_str:000000000002ee20 .LASF615
     /tmp/ccNzw1my.s:99617  .debug_str:000000000002dc9e .LASF616
     /tmp/ccNzw1my.s:88955  .debug_str:00000000000023c7 .LASF617
     /tmp/ccNzw1my.s:93645  .debug_str:0000000000015487 .LASF618
     /tmp/ccNzw1my.s:102627  .debug_str:0000000000039b23 .LASF619
     /tmp/ccNzw1my.s:90609  .debug_str:00000000000094da .LASF620
     /tmp/ccNzw1my.s:92605  .debug_str:00000000000110e4 .LASF621
     /tmp/ccNzw1my.s:106729  .debug_str:000000000004aca5 .LASF622
     /tmp/ccNzw1my.s:101571  .debug_str:0000000000035d48 .LASF623
     /tmp/ccNzw1my.s:89385  .debug_str:00000000000041dc .LASF624
     /tmp/ccNzw1my.s:88681  .debug_str:00000000000010e2 .LASF625
     /tmp/ccNzw1my.s:99403  .debug_str:000000000002ce82 .LASF626
     /tmp/ccNzw1my.s:97445  .debug_str:0000000000024ee2 .LASF627
     /tmp/ccNzw1my.s:106751  .debug_str:000000000004aeb4 .LASF628
     /tmp/ccNzw1my.s:106535  .debug_str:0000000000049f82 .LASF629
     /tmp/ccNzw1my.s:107279  .debug_str:000000000004d4c0 .LASF630
     /tmp/ccNzw1my.s:93623  .debug_str:000000000001533d .LASF631
     /tmp/ccNzw1my.s:98961  .debug_str:000000000002b246 .LASF632
     /tmp/ccNzw1my.s:104159  .debug_str:00000000000402c2 .LASF633
     /tmp/ccNzw1my.s:103051  .debug_str:000000000003b892 .LASF634
     /tmp/ccNzw1my.s:89331  .debug_str:0000000000003dac .LASF635
     /tmp/ccNzw1my.s:92417  .debug_str:00000000000104e6 .LASF636
     /tmp/ccNzw1my.s:99963  .debug_str:000000000002f436 .LASF637
     /tmp/ccNzw1my.s:105227  .debug_str:00000000000447e3 .LASF638
     /tmp/ccNzw1my.s:99927  .debug_str:000000000002f1b0 .LASF639
     /tmp/ccNzw1my.s:105443  .debug_str:0000000000045668 .LASF640
     /tmp/ccNzw1my.s:95781  .debug_str:000000000001e3c7 .LASF641
     /tmp/ccNzw1my.s:105109  .debug_str:00000000000440f5 .LASF642
     /tmp/ccNzw1my.s:95559  .debug_str:000000000001d460 .LASF643
     /tmp/ccNzw1my.s:101555  .debug_str:0000000000035c2d .LASF644
     /tmp/ccNzw1my.s:91813  .debug_str:000000000000e442 .LASF645
     /tmp/ccNzw1my.s:101335  .debug_str:0000000000034ea6 .LASF646
     /tmp/ccNzw1my.s:91579  .debug_str:000000000000d6c1 .LASF647
     /tmp/ccNzw1my.s:100987  .debug_str:000000000003366f .LASF648
     /tmp/ccNzw1my.s:103835  .debug_str:000000000003ebca .LASF649
     /tmp/ccNzw1my.s:103823  .debug_str:000000000003eaab .LASF650
     /tmp/ccNzw1my.s:95275  .debug_str:000000000001c133 .LASF651
     /tmp/ccNzw1my.s:104987  .debug_str:00000000000438d6 .LASF652
     /tmp/ccNzw1my.s:95449  .debug_str:000000000001ccfe .LASF653
     /tmp/ccNzw1my.s:101425  .debug_str:0000000000035403 .LASF654
     /tmp/ccNzw1my.s:91673  .debug_str:000000000000dc1c .LASF655
     /tmp/ccNzw1my.s:101229  .debug_str:000000000003476f .LASF656
     /tmp/ccNzw1my.s:89079  .debug_str:0000000000002cec .LASF657
     /tmp/ccNzw1my.s:100869  .debug_str:0000000000032ec3 .LASF658
     /tmp/ccNzw1my.s:91075  .debug_str:000000000000b523 .LASF659
     /tmp/ccNzw1my.s:105225  .debug_str:00000000000447a1 .LASF660
     /tmp/ccNzw1my.s:95523  .debug_str:000000000001d202 .LASF661
     /tmp/ccNzw1my.s:98449  .debug_str:000000000002917f .LASF662
     /tmp/ccNzw1my.s:90093  .debug_str:000000000000723b .LASF663
     /tmp/ccNzw1my.s:100011  .debug_str:000000000002f75c .LASF664
     /tmp/ccNzw1my.s:95271  .debug_str:000000000001c112 .LASF665
     /tmp/ccNzw1my.s:96319  .debug_str:000000000002098f .LASF666
     /tmp/ccNzw1my.s:101239  .debug_str:000000000003480d .LASF667
     /tmp/ccNzw1my.s:90527  .debug_str:0000000000008f86 .LASF668
     /tmp/ccNzw1my.s:93801  .debug_str:0000000000015dae .LASF669
     /tmp/ccNzw1my.s:107155  .debug_str:000000000004cba7 .LASF670
     /tmp/ccNzw1my.s:96421  .debug_str:00000000000210d6 .LASF671
     /tmp/ccNzw1my.s:94585  .debug_str:0000000000019157 .LASF672
     /tmp/ccNzw1my.s:106551  .debug_str:000000000004a0d2 .LASF673
     /tmp/ccNzw1my.s:99673  .debug_str:000000000002e12e .LASF674
     /tmp/ccNzw1my.s:99747  .debug_str:000000000002e58f .LASF675
     /tmp/ccNzw1my.s:96997  .debug_str:00000000000236e2 .LASF676
     /tmp/ccNzw1my.s:89449  .debug_str:0000000000004629 .LASF677
     /tmp/ccNzw1my.s:99517  .debug_str:000000000002d64d .LASF678
     /tmp/ccNzw1my.s:101401  .debug_str:00000000000352e7 .LASF679
     /tmp/ccNzw1my.s:101233  .debug_str:00000000000347b9 .LASF680
     /tmp/ccNzw1my.s:92623  .debug_str:000000000001125f .LASF681
     /tmp/ccNzw1my.s:103231  .debug_str:000000000003c4ac .LASF682
     /tmp/ccNzw1my.s:94645  .debug_str:0000000000019537 .LASF683
     /tmp/ccNzw1my.s:105037  .debug_str:0000000000043c2d .LASF684
     /tmp/ccNzw1my.s:96433  .debug_str:000000000002115e .LASF685
     /tmp/ccNzw1my.s:92925  .debug_str:00000000000126eb .LASF686
     /tmp/ccNzw1my.s:106885  .debug_str:000000000004b97d .LASF687
     /tmp/ccNzw1my.s:94867  .debug_str:000000000001a532 .LASF688
     /tmp/ccNzw1my.s:105241  .debug_str:0000000000044933 .LASF689
     /tmp/ccNzw1my.s:96647  .debug_str:0000000000021f7c .LASF690
     /tmp/ccNzw1my.s:106997  .debug_str:000000000004c159 .LASF691
     /tmp/ccNzw1my.s:98545  .debug_str:000000000002970b .LASF692
     /tmp/ccNzw1my.s:90023  .debug_str:0000000000006dce .LASF693
     /tmp/ccNzw1my.s:100453  .debug_str:00000000000314bb .LASF694
     /tmp/ccNzw1my.s:91763  .debug_str:000000000000e1fc .LASF695
     /tmp/ccNzw1my.s:107281  .debug_str:000000000004d500 .LASF696
     /tmp/ccNzw1my.s:104785  .debug_str:0000000000042cbd .LASF697
     /tmp/ccNzw1my.s:90073  .debug_str:0000000000007154 .LASF698
     /tmp/ccNzw1my.s:100513  .debug_str:000000000003187a .LASF699
     /tmp/ccNzw1my.s:92007  .debug_str:000000000000eddf .LASF700
     /tmp/ccNzw1my.s:102507  .debug_str:0000000000039341 .LASF701
     /tmp/ccNzw1my.s:103049  .debug_str:000000000003b879 .LASF702
     /tmp/ccNzw1my.s:104229  .debug_str:00000000000407e1 .LASF703
     /tmp/ccNzw1my.s:95643  .debug_str:000000000001da7a .LASF704
     /tmp/ccNzw1my.s:106155  .debug_str:0000000000048524 .LASF705
     /tmp/ccNzw1my.s:91053  .debug_str:000000000000b393 .LASF706
     /tmp/ccNzw1my.s:94111  .debug_str:0000000000017331 .LASF707
     /tmp/ccNzw1my.s:104501  .debug_str:0000000000041a40 .LASF708
     /tmp/ccNzw1my.s:105421  .debug_str:00000000000454a8 .LASF709
     /tmp/ccNzw1my.s:92127  .debug_str:000000000000f599 .LASF710
     /tmp/ccNzw1my.s:103963  .debug_str:000000000003f561 .LASF711
     /tmp/ccNzw1my.s:96823  .debug_str:0000000000022b0a .LASF712
     /tmp/ccNzw1my.s:89639  .debug_str:00000000000052fd .LASF713
     /tmp/ccNzw1my.s:101513  .debug_str:00000000000359a8 .LASF714
     /tmp/ccNzw1my.s:100643  .debug_str:000000000003207c .LASF715
     /tmp/ccNzw1my.s:94029  .debug_str:0000000000016d65 .LASF716
     /tmp/ccNzw1my.s:93225  .debug_str:0000000000013a6b .LASF717
     /tmp/ccNzw1my.s:105061  .debug_str:0000000000043dfc .LASF718
     /tmp/ccNzw1my.s:97727  .debug_str:00000000000260cd .LASF719
     /tmp/ccNzw1my.s:93309  .debug_str:0000000000013fc6 .LASF720
     /tmp/ccNzw1my.s:92207  .debug_str:000000000000fa27 .LASF721
     /tmp/ccNzw1my.s:101013  .debug_str:00000000000338a1 .LASF722
     /tmp/ccNzw1my.s:106311  .debug_str:0000000000049084 .LASF723
     /tmp/ccNzw1my.s:94039  .debug_str:0000000000016e05 .LASF724
     /tmp/ccNzw1my.s:94325  .debug_str:000000000001802a .LASF725
     /tmp/ccNzw1my.s:106907  .debug_str:000000000004baec .LASF726
     /tmp/ccNzw1my.s:98371  .debug_str:0000000000028c29 .LASF727
     /tmp/ccNzw1my.s:89701  .debug_str:00000000000057fb .LASF728
     /tmp/ccNzw1my.s:100209  .debug_str:0000000000030368 .LASF729
     /tmp/ccNzw1my.s:91667  .debug_str:000000000000dbb0 .LASF730
     /tmp/ccNzw1my.s:102171  .debug_str:0000000000037e7c .LASF731
     /tmp/ccNzw1my.s:93531  .debug_str:0000000000014ceb .LASF732
     /tmp/ccNzw1my.s:103875  .debug_str:000000000003eecb .LASF733
     /tmp/ccNzw1my.s:95307  .debug_str:000000000001c2f6 .LASF734
     /tmp/ccNzw1my.s:97993  .debug_str:00000000000272ec .LASF735
     /tmp/ccNzw1my.s:89353  .debug_str:0000000000003f75 .LASF736
     /tmp/ccNzw1my.s:99801  .debug_str:000000000002e94d .LASF737
     /tmp/ccNzw1my.s:91063  .debug_str:000000000000b456 .LASF738
     /tmp/ccNzw1my.s:104063  .debug_str:000000000003fbda .LASF739
     /tmp/ccNzw1my.s:93155  .debug_str:0000000000013634 .LASF740
     /tmp/ccNzw1my.s:103509  .debug_str:000000000003d684 .LASF741
     /tmp/ccNzw1my.s:94941  .debug_str:000000000001a9d2 .LASF742
     /tmp/ccNzw1my.s:105295  .debug_str:0000000000044ce0 .LASF743
     /tmp/ccNzw1my.s:96705  .debug_str:00000000000222df .LASF744
     /tmp/ccNzw1my.s:93213  .debug_str:00000000000139e2 .LASF745
     /tmp/ccNzw1my.s:103563  .debug_str:000000000003d9ce .LASF746
     /tmp/ccNzw1my.s:95155  .debug_str:000000000001b935 .LASF747
     /tmp/ccNzw1my.s:105519  .debug_str:0000000000045bd8 .LASF748
     /tmp/ccNzw1my.s:96965  .debug_str:00000000000234ad .LASF749
     /tmp/ccNzw1my.s:93851  .debug_str:0000000000016176 .LASF750
     /tmp/ccNzw1my.s:98837  .debug_str:000000000002a9c8 .LASF751
     /tmp/ccNzw1my.s:90283  .debug_str:0000000000007e6c .LASF752
     /tmp/ccNzw1my.s:100759  .debug_str:00000000000327c5 .LASF753
     /tmp/ccNzw1my.s:92073  .debug_str:000000000000f137 .LASF754
     /tmp/ccNzw1my.s:88637  .debug_str:0000000000000dd8 .LASF755
     /tmp/ccNzw1my.s:99049  .debug_str:000000000002b83e .LASF756
     /tmp/ccNzw1my.s:93223  .debug_str:0000000000013a40 .LASF757
     /tmp/ccNzw1my.s:89161  .debug_str:0000000000003311 .LASF758
     /tmp/ccNzw1my.s:100807  .debug_str:0000000000032b14 .LASF759
     /tmp/ccNzw1my.s:94637  .debug_str:0000000000019492 .LASF760
     /tmp/ccNzw1my.s:100701  .debug_str:0000000000032452 .LASF761
     /tmp/ccNzw1my.s:97167  .debug_str:0000000000024085 .LASF762
     /tmp/ccNzw1my.s:102333  .debug_str:00000000000387ae .LASF763
     /tmp/ccNzw1my.s:96641  .debug_str:0000000000021efe .LASF764
     /tmp/ccNzw1my.s:103365  .debug_str:000000000003cdc6 .LASF765
     /tmp/ccNzw1my.s:96109  .debug_str:000000000001fbe5 .LASF766
     /tmp/ccNzw1my.s:103025  .debug_str:000000000003b6e1 .LASF767
     /tmp/ccNzw1my.s:94871  .debug_str:000000000001a557 .LASF768
     /tmp/ccNzw1my.s:105917  .debug_str:0000000000047646 .LASF769
     /tmp/ccNzw1my.s:104691  .debug_str:0000000000042629 .LASF770
     /tmp/ccNzw1my.s:94715  .debug_str:0000000000019a34 .LASF771
     /tmp/ccNzw1my.s:94485  .debug_str:0000000000018a89 .LASF772
     /tmp/ccNzw1my.s:94081  .debug_str:00000000000170e0 .LASF773
     /tmp/ccNzw1my.s:93855  .debug_str:000000000001619c .LASF774
     /tmp/ccNzw1my.s:93469  .debug_str:00000000000148b5 .LASF775
     /tmp/ccNzw1my.s:93233  .debug_str:0000000000013ac9 .LASF776
     /tmp/ccNzw1my.s:92841  .debug_str:000000000001214d .LASF777
     /tmp/ccNzw1my.s:92597  .debug_str:0000000000010fee .LASF778
     /tmp/ccNzw1my.s:92167  .debug_str:000000000000f7a2 .LASF779
     /tmp/ccNzw1my.s:92423  .debug_str:0000000000010567 .LASF780
     /tmp/ccNzw1my.s:90633  .debug_str:0000000000009687 .LASF781
     /tmp/ccNzw1my.s:88991  .debug_str:000000000000268c .LASF782
     /tmp/ccNzw1my.s:106193  .debug_str:00000000000487dc .LASF783
     /tmp/ccNzw1my.s:91039  .debug_str:000000000000b23f .LASF784
     /tmp/ccNzw1my.s:95791  .debug_str:000000000001e451 .LASF785
     /tmp/ccNzw1my.s:100677  .debug_str:00000000000322a8 .LASF786
     /tmp/ccNzw1my.s:105467  .debug_str:00000000000457fe .LASF787
     /tmp/ccNzw1my.s:91099  .debug_str:000000000000b706 .LASF788
     /tmp/ccNzw1my.s:96045  .debug_str:000000000001f6d0 .LASF789
     /tmp/ccNzw1my.s:91079  .debug_str:000000000000b58c .LASF790
     /tmp/ccNzw1my.s:101707  .debug_str:0000000000036538 .LASF791
     /tmp/ccNzw1my.s:106315  .debug_str:00000000000490a5 .LASF792
     /tmp/ccNzw1my.s:102965  .debug_str:000000000003b2e2 .LASF793
     /tmp/ccNzw1my.s:96067  .debug_str:000000000001f93a .LASF794
     /tmp/ccNzw1my.s:106597  .debug_str:000000000004a41d .LASF795
     /tmp/ccNzw1my.s:98097  .debug_str:0000000000027a1f .LASF796
     /tmp/ccNzw1my.s:89667  .debug_str:00000000000054f7 .LASF797
     /tmp/ccNzw1my.s:100143  .debug_str:000000000002fed3 .LASF798
     /tmp/ccNzw1my.s:91647  .debug_str:000000000000da1e .LASF799
     /tmp/ccNzw1my.s:95837  .debug_str:000000000001e79f .LASF800
     /tmp/ccNzw1my.s:106391  .debug_str:00000000000495d5 .LASF801
     /tmp/ccNzw1my.s:99453  .debug_str:000000000002d22f .LASF802
     /tmp/ccNzw1my.s:97151  .debug_str:0000000000023f5a .LASF803
     /tmp/ccNzw1my.s:102775  .debug_str:000000000003a5e9 .LASF804
     /tmp/ccNzw1my.s:100541  .debug_str:0000000000031a5d .LASF805
     /tmp/ccNzw1my.s:98561  .debug_str:00000000000297da .LASF806
     /tmp/ccNzw1my.s:96333  .debug_str:0000000000020aae .LASF807
     /tmp/ccNzw1my.s:100095  .debug_str:000000000002fc46 .LASF808
     /tmp/ccNzw1my.s:98575  .debug_str:0000000000029895 .LASF809
     /tmp/ccNzw1my.s:92163  .debug_str:000000000000f735 .LASF810
     /tmp/ccNzw1my.s:91913  .debug_str:000000000000e879 .LASF811
     /tmp/ccNzw1my.s:93583  .debug_str:0000000000015041 .LASF812
     /tmp/ccNzw1my.s:104975  .debug_str:0000000000043826 .LASF813
     /tmp/ccNzw1my.s:90407  .debug_str:0000000000008722 .LASF814
     /tmp/ccNzw1my.s:98855  .debug_str:000000000002aae4 .LASF815
     /tmp/ccNzw1my.s:95909  .debug_str:000000000001ec36 .LASF816
     /tmp/ccNzw1my.s:95415  .debug_str:000000000001ca54 .LASF817
     /tmp/ccNzw1my.s:103889  .debug_str:000000000003efab .LASF818
     /tmp/ccNzw1my.s:103469  .debug_str:000000000003d3e0 .LASF819
     /tmp/ccNzw1my.s:89171  .debug_str:00000000000033c0 .LASF820
     /tmp/ccNzw1my.s:99127  .debug_str:000000000002bc52 .LASF821
     /tmp/ccNzw1my.s:107305  .debug_str:000000000004d684 .LASF822
     /tmp/ccNzw1my.s:107077  .debug_str:000000000004c6e1 .LASF823
     /tmp/ccNzw1my.s:98145  .debug_str:0000000000027e14 .LASF824
     /tmp/ccNzw1my.s:95733  .debug_str:000000000001dfc6 .LASF825
     /tmp/ccNzw1my.s:94591  .debug_str:00000000000191c3 .LASF826
     /tmp/ccNzw1my.s:100351  .debug_str:0000000000030d3e .LASF827
     /tmp/ccNzw1my.s:98007  .debug_str:000000000002740d .LASF828
     /tmp/ccNzw1my.s:102827  .debug_str:000000000003a99b .LASF829
     /tmp/ccNzw1my.s:88617  .debug_str:0000000000000c6d .LASF830
     /tmp/ccNzw1my.s:98955  .debug_str:000000000002b1c1 .LASF831
     /tmp/ccNzw1my.s:104729  .debug_str:000000000004291a .LASF832
     /tmp/ccNzw1my.s:100579  .debug_str:0000000000031cc1 .LASF833
     /tmp/ccNzw1my.s:91569  .debug_str:000000000000d62c .LASF834
     /tmp/ccNzw1my.s:104555  .debug_str:0000000000041d6e .LASF835
     /tmp/ccNzw1my.s:97983  .debug_str:000000000002725d .LASF836
     /tmp/ccNzw1my.s:88677  .debug_str:0000000000001080 .LASF837
     /tmp/ccNzw1my.s:97411  .debug_str:0000000000024c24 .LASF838
     /tmp/ccNzw1my.s:101483  .debug_str:0000000000035820 .LASF839
     /tmp/ccNzw1my.s:104155  .debug_str:000000000004026e .LASF840
     /tmp/ccNzw1my.s:89991  .debug_str:0000000000006af0 .LASF841
     /tmp/ccNzw1my.s:91921  .debug_str:000000000000e8f9 .LASF842
     /tmp/ccNzw1my.s:96907  .debug_str:0000000000023048 .LASF843
     /tmp/ccNzw1my.s:97849  .debug_str:00000000000269e8 .LASF844
     /tmp/ccNzw1my.s:104095  .debug_str:000000000003fde6 .LASF845
     /tmp/ccNzw1my.s:98237  .debug_str:0000000000028331 .LASF846
     /tmp/ccNzw1my.s:97087  .debug_str:0000000000023c00 .LASF847
     /tmp/ccNzw1my.s:96001  .debug_str:000000000001f368 .LASF848
     /tmp/ccNzw1my.s:89209  .debug_str:00000000000035c3 .LASF849
     /tmp/ccNzw1my.s:102747  .debug_str:000000000003a3b5 .LASF850
     /tmp/ccNzw1my.s:94575  .debug_str:00000000000190a2 .LASF851
     /tmp/ccNzw1my.s:104327  .debug_str:0000000000040d7d .LASF852
     /tmp/ccNzw1my.s:106381  .debug_str:000000000004953e .LASF853
     /tmp/ccNzw1my.s:96599  .debug_str:0000000000021c18 .LASF854
     /tmp/ccNzw1my.s:96517  .debug_str:0000000000021672 .LASF855
     /tmp/ccNzw1my.s:101729  .debug_str:00000000000366e0 .LASF856
     /tmp/ccNzw1my.s:99407  .debug_str:000000000002cee4 .LASF857
     /tmp/ccNzw1my.s:105773  .debug_str:0000000000046c9e .LASF858
     /tmp/ccNzw1my.s:93109  .debug_str:0000000000013342 .LASF859
     /tmp/ccNzw1my.s:99623  .debug_str:000000000002dd2c .LASF860
     /tmp/ccNzw1my.s:97423  .debug_str:0000000000024d1f .LASF861
     /tmp/ccNzw1my.s:95795  .debug_str:000000000001e4d0 .LASF862
     /tmp/ccNzw1my.s:94925  .debug_str:000000000001a8e8 .LASF863
     /tmp/ccNzw1my.s:89541  .debug_str:0000000000004c97 .LASF864
     /tmp/ccNzw1my.s:96041  .debug_str:000000000001f680 .LASF865
     /tmp/ccNzw1my.s:90301  .debug_str:0000000000007fb8 .LASF866
     /tmp/ccNzw1my.s:107165  .debug_str:000000000004cc3d .LASF867
     /tmp/ccNzw1my.s:94647  .debug_str:0000000000019550 .LASF868
     /tmp/ccNzw1my.s:90139  .debug_str:0000000000007560 .LASF869
     /tmp/ccNzw1my.s:95631  .debug_str:000000000001d96f .LASF870
     /tmp/ccNzw1my.s:88745  .debug_str:000000000000150d .LASF871
     /tmp/ccNzw1my.s:102151  .debug_str:0000000000037d2b .LASF872
     /tmp/ccNzw1my.s:88983  .debug_str:00000000000025e5 .LASF873
     /tmp/ccNzw1my.s:98583  .debug_str:000000000002992f .LASF874
     /tmp/ccNzw1my.s:100437  .debug_str:0000000000031376 .LASF875
     /tmp/ccNzw1my.s:107283  .debug_str:000000000004d519 .LASF876
     /tmp/ccNzw1my.s:95245  .debug_str:000000000001bf38 .LASF877
     /tmp/ccNzw1my.s:102209  .debug_str:0000000000037fdb .LASF878
     /tmp/ccNzw1my.s:94209  .debug_str:000000000001792d .LASF879
     /tmp/ccNzw1my.s:96945  .debug_str:000000000002330b .LASF880
     /tmp/ccNzw1my.s:103147  .debug_str:000000000003bef7 .LASF881
     /tmp/ccNzw1my.s:88651  .debug_str:0000000000000edf .LASF882
     /tmp/ccNzw1my.s:98779  .debug_str:000000000002a5eb .LASF883
     /tmp/ccNzw1my.s:105611  .debug_str:0000000000046190 .LASF884
     /tmp/ccNzw1my.s:97841  .debug_str:0000000000026913 .LASF885
     /tmp/ccNzw1my.s:105127  .debug_str:0000000000044210 .LASF886
     /tmp/ccNzw1my.s:103255  .debug_str:000000000003c624 .LASF887
     /tmp/ccNzw1my.s:106095  .debug_str:0000000000048173 .LASF888
     /tmp/ccNzw1my.s:89013  .debug_str:0000000000002878 .LASF889
     /tmp/ccNzw1my.s:92797  .debug_str:0000000000011ea4 .LASF890
     /tmp/ccNzw1my.s:95475  .debug_str:000000000001ceb8 .LASF891
     /tmp/ccNzw1my.s:98255  .debug_str:00000000000284c0 .LASF892
     /tmp/ccNzw1my.s:101133  .debug_str:000000000003410d .LASF893
     /tmp/ccNzw1my.s:103801  .debug_str:000000000003e928 .LASF894
     /tmp/ccNzw1my.s:94805  .debug_str:000000000001a139 .LASF895
     /tmp/ccNzw1my.s:97527  .debug_str:00000000000253d8 .LASF896
     /tmp/ccNzw1my.s:100277  .debug_str:0000000000030748 .LASF897
     /tmp/ccNzw1my.s:103131  .debug_str:000000000003be0f .LASF898
     /tmp/ccNzw1my.s:105821  .debug_str:0000000000047042 .LASF899
     /tmp/ccNzw1my.s:89731  .debug_str:00000000000059e5 .LASF900
     /tmp/ccNzw1my.s:92449  .debug_str:00000000000107c0 .LASF901
     /tmp/ccNzw1my.s:95205  .debug_str:000000000001bcf3 .LASF902
     /tmp/ccNzw1my.s:98105  .debug_str:0000000000027aee .LASF903
     /tmp/ccNzw1my.s:100839  .debug_str:0000000000032cbf .LASF904
     /tmp/ccNzw1my.s:91713  .debug_str:000000000000de8a .LASF905
     /tmp/ccNzw1my.s:94501  .debug_str:0000000000018bb1 .LASF906
     /tmp/ccNzw1my.s:97199  .debug_str:0000000000024294 .LASF907
     /tmp/ccNzw1my.s:92329  .debug_str:00000000000100d5 .LASF908
     /tmp/ccNzw1my.s:102879  .debug_str:000000000003ace9 .LASF909
     /tmp/ccNzw1my.s:105701  .debug_str:0000000000046755 .LASF910
     /tmp/ccNzw1my.s:99185  .debug_str:000000000002bfea .LASF911
     /tmp/ccNzw1my.s:92311  .debug_str:000000000000ff64 .LASF912
     /tmp/ccNzw1my.s:95073  .debug_str:000000000001b3c5 .LASF913
     /tmp/ccNzw1my.s:97807  .debug_str:0000000000026695 .LASF914
     /tmp/ccNzw1my.s:88777  .debug_str:0000000000001743 .LASF915
     /tmp/ccNzw1my.s:91413  .debug_str:000000000000cc5f .LASF916
     /tmp/ccNzw1my.s:94361  .debug_str:00000000000181c0 .LASF917
     /tmp/ccNzw1my.s:97067  .debug_str:0000000000023aef .LASF918
     /tmp/ccNzw1my.s:99857  .debug_str:000000000002ecb8 .LASF919
     /tmp/ccNzw1my.s:102735  .debug_str:000000000003a2d0 .LASF920
     /tmp/ccNzw1my.s:105405  .debug_str:000000000004537a .LASF921
     /tmp/ccNzw1my.s:89311  .debug_str:0000000000003c5f .LASF922
     /tmp/ccNzw1my.s:92009  .debug_str:000000000000edf8 .LASF923
     /tmp/ccNzw1my.s:94775  .debug_str:0000000000019f32 .LASF924
     /tmp/ccNzw1my.s:104721  .debug_str:0000000000042874 .LASF925
     /tmp/ccNzw1my.s:95759  .debug_str:000000000001e1d9 .LASF926
     /tmp/ccNzw1my.s:96625  .debug_str:0000000000021dd6 .LASF927
     /tmp/ccNzw1my.s:91487  .debug_str:000000000000d13c .LASF928
     /tmp/ccNzw1my.s:96793  .debug_str:00000000000228fa .LASF929
     /tmp/ccNzw1my.s:99745  .debug_str:000000000002e55a .LASF930
     /tmp/ccNzw1my.s:102487  .debug_str:00000000000391e9 .LASF931
     /tmp/ccNzw1my.s:105283  .debug_str:0000000000044c3a .LASF932
     /tmp/ccNzw1my.s:89033  .debug_str:00000000000029be .LASF933
     /tmp/ccNzw1my.s:91677  .debug_str:000000000000dc68 .LASF934
     /tmp/ccNzw1my.s:101735  .debug_str:0000000000036756 .LASF935
     /tmp/ccNzw1my.s:104433  .debug_str:0000000000041584 .LASF936
     /tmp/ccNzw1my.s:101155  .debug_str:00000000000342a7 .LASF937
     /tmp/ccNzw1my.s:90985  .debug_str:000000000000ae3a .LASF938
     /tmp/ccNzw1my.s:95891  .debug_str:000000000001eafb .LASF939
     /tmp/ccNzw1my.s:99595  .debug_str:000000000002daf1 .LASF940
     /tmp/ccNzw1my.s:99035  .debug_str:000000000002b6dc .LASF941
     /tmp/ccNzw1my.s:98489  .debug_str:000000000002936a .LASF942
     /tmp/ccNzw1my.s:97737  .debug_str:0000000000026170 .LASF943
     /tmp/ccNzw1my.s:106289  .debug_str:0000000000048f26 .LASF944
     /tmp/ccNzw1my.s:92935  .debug_str:0000000000012766 .LASF945
     /tmp/ccNzw1my.s:101005  .debug_str:00000000000337f6 .LASF946
     /tmp/ccNzw1my.s:91409  .debug_str:000000000000cc22 .LASF947
     /tmp/ccNzw1my.s:98907  .debug_str:000000000002ae4c .LASF948
     /tmp/ccNzw1my.s:92421  .debug_str:0000000000010538 .LASF949
     /tmp/ccNzw1my.s:103981  .debug_str:000000000003f6c2 .LASF950
     /tmp/ccNzw1my.s:91319  .debug_str:000000000000c5d7 .LASF951
     /tmp/ccNzw1my.s:94883  .debug_str:000000000001a620 .LASF952
     /tmp/ccNzw1my.s:99023  .debug_str:000000000002b646 .LASF953
     /tmp/ccNzw1my.s:102519  .debug_str:000000000003940e .LASF954
     /tmp/ccNzw1my.s:106347  .debug_str:0000000000049329 .LASF955
     /tmp/ccNzw1my.s:104241  .debug_str:0000000000040870 .LASF956
     /tmp/ccNzw1my.s:92973  .debug_str:0000000000012a7a .LASF957
     /tmp/ccNzw1my.s:101617  .debug_str:0000000000035f65 .LASF958
     /tmp/ccNzw1my.s:91013  .debug_str:000000000000b057 .LASF959
     /tmp/ccNzw1my.s:99775  .debug_str:000000000002e728 .LASF960
     /tmp/ccNzw1my.s:89351  .debug_str:0000000000003f2c .LASF961
     /tmp/ccNzw1my.s:97847  .debug_str:000000000002699f .LASF962
     /tmp/ccNzw1my.s:106419  .debug_str:00000000000497ed .LASF963
     /tmp/ccNzw1my.s:95947  .debug_str:000000000001ef6b .LASF964
     /tmp/ccNzw1my.s:105719  .debug_str:000000000004687b .LASF965
     /tmp/ccNzw1my.s:89205  .debug_str:000000000000356c .LASF966
     /tmp/ccNzw1my.s:88905  .debug_str:0000000000002069 .LASF967
     /tmp/ccNzw1my.s:95357  .debug_str:000000000001c6a6 .LASF968
     /tmp/ccNzw1my.s:107301  .debug_str:000000000004d61c .LASF969
     /tmp/ccNzw1my.s:89263  .debug_str:0000000000003960 .LASF970
     /tmp/ccNzw1my.s:96859  .debug_str:0000000000022d15 .LASF971
     /tmp/ccNzw1my.s:93193  .debug_str:0000000000013866 .LASF972
     /tmp/ccNzw1my.s:90641  .debug_str:0000000000009745 .LASF973
     /tmp/ccNzw1my.s:95309  .debug_str:000000000001c311 .LASF974
     /tmp/ccNzw1my.s:96377  .debug_str:0000000000020e1a .LASF975
     /tmp/ccNzw1my.s:90943  .debug_str:000000000000aaea .LASF976
     /tmp/ccNzw1my.s:93893  .debug_str:00000000000163e6 .LASF977
     /tmp/ccNzw1my.s:100349  .debug_str:0000000000030cf2 .LASF978
     /tmp/ccNzw1my.s:106527  .debug_str:0000000000049ef2 .LASF979
     /tmp/ccNzw1my.s:94021  .debug_str:0000000000016c99 .LASF980
     /tmp/ccNzw1my.s:100331  .debug_str:0000000000030b51 .LASF981
     /tmp/ccNzw1my.s:106721  .debug_str:000000000004abfa .LASF982
     /tmp/ccNzw1my.s:94367  .debug_str:000000000001823c .LASF983
     /tmp/ccNzw1my.s:100855  .debug_str:0000000000032d94 .LASF984
     /tmp/ccNzw1my.s:101257  .debug_str:0000000000034939 .LASF985
     /tmp/ccNzw1my.s:94741  .debug_str:0000000000019bfc .LASF986
     /tmp/ccNzw1my.s:94703  .debug_str:000000000001996f .LASF987
     /tmp/ccNzw1my.s:89513  .debug_str:0000000000004adb .LASF988
     /tmp/ccNzw1my.s:90905  .debug_str:000000000000a8b6 .LASF989
     /tmp/ccNzw1my.s:91163  .debug_str:000000000000bb97 .LASF990
     /tmp/ccNzw1my.s:89871  .debug_str:00000000000062c5 .LASF991
     /tmp/ccNzw1my.s:104143  .debug_str:0000000000040196 .LASF992
     /tmp/ccNzw1my.s:94015  .debug_str:0000000000016c28 .LASF993
     /tmp/ccNzw1my.s:95497  .debug_str:000000000001d02a .LASF994
     /tmp/ccNzw1my.s:89431  .debug_str:00000000000044e4 .LASF995
     /tmp/ccNzw1my.s:98831  .debug_str:000000000002a970 .LASF996
     /tmp/ccNzw1my.s:95381  .debug_str:000000000001c82a .LASF997
     /tmp/ccNzw1my.s:104845  .debug_str:0000000000043064 .LASF998
     /tmp/ccNzw1my.s:104837  .debug_str:0000000000042feb .LASF999
     /tmp/ccNzw1my.s:95753  .debug_str:000000000001e140 .LASF1000
     /tmp/ccNzw1my.s:104775  .debug_str:0000000000042c01 .LASF1001
     /tmp/ccNzw1my.s:97459  .debug_str:0000000000024faa .LASF1002
     /tmp/ccNzw1my.s:100703  .debug_str:000000000003248b .LASF1003
     /tmp/ccNzw1my.s:92173  .debug_str:000000000000f811 .LASF1004
     /tmp/ccNzw1my.s:103453  .debug_str:000000000003d2b3 .LASF1005
     /tmp/ccNzw1my.s:105391  .debug_str:00000000000452b6 .LASF1006
     /tmp/ccNzw1my.s:98497  .debug_str:0000000000029426 .LASF1007
     /tmp/ccNzw1my.s:103961  .debug_str:000000000003f53a .LASF1008
     /tmp/ccNzw1my.s:98001  .debug_str:0000000000027378 .LASF1009
     /tmp/ccNzw1my.s:90469  .debug_str:0000000000008b4e .LASF1010
     /tmp/ccNzw1my.s:102155  .debug_str:0000000000037d7f .LASF1011
     /tmp/ccNzw1my.s:88473  .debug_str:00000000000002a8 .LASF1012
     /tmp/ccNzw1my.s:96693  .debug_str:00000000000221c6 .LASF1013
     /tmp/ccNzw1my.s:93265  .debug_str:0000000000013cf1 .LASF1014
     /tmp/ccNzw1my.s:93711  .debug_str:0000000000015810 .LASF1015
     /tmp/ccNzw1my.s:105809  .debug_str:0000000000046f3b .LASF1016
     /tmp/ccNzw1my.s:97657  .debug_str:0000000000025cfe .LASF1017
     /tmp/ccNzw1my.s:96219  .debug_str:00000000000202bd .LASF1018
     /tmp/ccNzw1my.s:92897  .debug_str:0000000000012502 .LASF1019
     /tmp/ccNzw1my.s:90069  .debug_str:000000000000711f .LASF1020
     /tmp/ccNzw1my.s:97687  .debug_str:0000000000025edc .LASF1021
     /tmp/ccNzw1my.s:100157  .debug_str:000000000002ffc5 .LASF1022
     /tmp/ccNzw1my.s:93481  .debug_str:000000000001499c .LASF1023
     /tmp/ccNzw1my.s:93763  .debug_str:0000000000015b8f .LASF1024
     /tmp/ccNzw1my.s:94991  .debug_str:000000000001ad4c .LASF1025
     /tmp/ccNzw1my.s:98275  .debug_str:0000000000028605 .LASF1026
     /tmp/ccNzw1my.s:94505  .debug_str:0000000000018bf7 .LASF1027
     /tmp/ccNzw1my.s:88899  .debug_str:0000000000002000 .LASF1028
     /tmp/ccNzw1my.s:100479  .debug_str:000000000003164b .LASF1029
     /tmp/ccNzw1my.s:103195  .debug_str:000000000003c24f .LASF1030
     /tmp/ccNzw1my.s:95175  .debug_str:000000000001ba7e .LASF1031
     /tmp/ccNzw1my.s:106051  .debug_str:0000000000047e56 .LASF1032
     /tmp/ccNzw1my.s:88933  .debug_str:0000000000002290 .LASF1033
     /tmp/ccNzw1my.s:97507  .debug_str:0000000000025283 .LASF1034
     /tmp/ccNzw1my.s:103815  .debug_str:000000000003ea31 .LASF1035
     /tmp/ccNzw1my.s:100429  .debug_str:00000000000312be .LASF1036
     /tmp/ccNzw1my.s:96935  .debug_str:000000000002326d .LASF1037
     /tmp/ccNzw1my.s:93539  .debug_str:0000000000014d46 .LASF1038
     /tmp/ccNzw1my.s:92561  .debug_str:0000000000010e06 .LASF1039
     /tmp/ccNzw1my.s:91581  .debug_str:000000000000d703 .LASF1040
     /tmp/ccNzw1my.s:89515  .debug_str:0000000000004b29 .LASF1041
     /tmp/ccNzw1my.s:94207  .debug_str:00000000000178f7 .LASF1042
     /tmp/ccNzw1my.s:104191  .debug_str:0000000000040503 .LASF1043
     /tmp/ccNzw1my.s:106757  .debug_str:000000000004af15 .LASF1044
     /tmp/ccNzw1my.s:94091  .debug_str:00000000000171ca .LASF1045
     /tmp/ccNzw1my.s:100411  .debug_str:0000000000031180 .LASF1046
     /tmp/ccNzw1my.s:106635  .debug_str:000000000004a728 .LASF1047
     /tmp/ccNzw1my.s:94115  .debug_str:000000000001735b .LASF1048
     /tmp/ccNzw1my.s:92799  .debug_str:0000000000011ed9 .LASF1049
     /tmp/ccNzw1my.s:99133  .debug_str:000000000002bcc3 .LASF1050
     /tmp/ccNzw1my.s:105347  .debug_str:0000000000044fca .LASF1051
     /tmp/ccNzw1my.s:92667  .debug_str:000000000001155e .LASF1052
     /tmp/ccNzw1my.s:99005  .debug_str:000000000002b4b9 .LASF1053
     /tmp/ccNzw1my.s:104547  .debug_str:0000000000041d1c .LASF1054
     /tmp/ccNzw1my.s:90043  .debug_str:0000000000006eef .LASF1055
     /tmp/ccNzw1my.s:104211  .debug_str:000000000004069d .LASF1056
     /tmp/ccNzw1my.s:99781  .debug_str:000000000002e7c2 .LASF1057
     /tmp/ccNzw1my.s:91693  .debug_str:000000000000dd29 .LASF1058
     /tmp/ccNzw1my.s:92251  .debug_str:000000000000fc25 .LASF1059
     /tmp/ccNzw1my.s:91429  .debug_str:000000000000cd7a .LASF1060
     /tmp/ccNzw1my.s:103711  .debug_str:000000000003e336 .LASF1061
     /tmp/ccNzw1my.s:95793  .debug_str:000000000001e4a8 .LASF1062
     /tmp/ccNzw1my.s:106643  .debug_str:000000000004a784 .LASF1063
     /tmp/ccNzw1my.s:96239  .debug_str:0000000000020429 .LASF1064
     /tmp/ccNzw1my.s:90555  .debug_str:000000000000911c .LASF1065
     /tmp/ccNzw1my.s:101717  .debug_str:0000000000036639 .LASF1066
     /tmp/ccNzw1my.s:93611  .debug_str:00000000000151e8 .LASF1067
     /tmp/ccNzw1my.s:104631  .debug_str:0000000000042299 .LASF1068
     /tmp/ccNzw1my.s:96565  .debug_str:00000000000219ed .LASF1069
     /tmp/ccNzw1my.s:100679  .debug_str:00000000000322ff .LASF1070
     /tmp/ccNzw1my.s:90781  .debug_str:0000000000009fed .LASF1071
     /tmp/ccNzw1my.s:100333  .debug_str:0000000000030b9f .LASF1072
     /tmp/ccNzw1my.s:90509  .debug_str:0000000000008de1 .LASF1073
     /tmp/ccNzw1my.s:99915  .debug_str:000000000002f0b4 .LASF1074
     /tmp/ccNzw1my.s:90285  .debug_str:0000000000007e88 .LASF1075
     /tmp/ccNzw1my.s:99675  .debug_str:000000000002e13e .LASF1076
     /tmp/ccNzw1my.s:90051  .debug_str:0000000000006f97 .LASF1077
     /tmp/ccNzw1my.s:99425  .debug_str:000000000002cfef .LASF1078
     /tmp/ccNzw1my.s:89809  .debug_str:0000000000005ee4 .LASF1079
     /tmp/ccNzw1my.s:99171  .debug_str:000000000002befb .LASF1080
     /tmp/ccNzw1my.s:91263  .debug_str:000000000000c1fe .LASF1081
     /tmp/ccNzw1my.s:95597  .debug_str:000000000001d74d .LASF1082
     /tmp/ccNzw1my.s:90843  .debug_str:000000000000a480 .LASF1083
     /tmp/ccNzw1my.s:100397  .debug_str:0000000000031067 .LASF1084
     /tmp/ccNzw1my.s:103245  .debug_str:000000000003c584 .LASF1085
     /tmp/ccNzw1my.s:100141  .debug_str:000000000002fea9 .LASF1086
     /tmp/ccNzw1my.s:90351  .debug_str:000000000000837f .LASF1087
     /tmp/ccNzw1my.s:99895  .debug_str:000000000002ef19 .LASF1088
     /tmp/ccNzw1my.s:90113  .debug_str:000000000000738b .LASF1089
     /tmp/ccNzw1my.s:91427  .debug_str:000000000000cd50 .LASF1090
     /tmp/ccNzw1my.s:91593  .debug_str:000000000000d79c .LASF1091
     /tmp/ccNzw1my.s:100977  .debug_str:00000000000335e8 .LASF1092
     /tmp/ccNzw1my.s:91347  .debug_str:000000000000c7e7 .LASF1093
     /tmp/ccNzw1my.s:100735  .debug_str:0000000000032679 .LASF1094
     /tmp/ccNzw1my.s:95617  .debug_str:000000000001d85a .LASF1095
     /tmp/ccNzw1my.s:100471  .debug_str:00000000000315b7 .LASF1096
     /tmp/ccNzw1my.s:90831  .debug_str:000000000000a3c6 .LASF1097
     /tmp/ccNzw1my.s:100217  .debug_str:00000000000303e7 .LASF1098
     /tmp/ccNzw1my.s:90559  .debug_str:000000000000915a .LASF1099
     /tmp/ccNzw1my.s:99957  .debug_str:000000000002f3e3 .LASF1100
     /tmp/ccNzw1my.s:91955  .debug_str:000000000000eb60 .LASF1101
     /tmp/ccNzw1my.s:101451  .debug_str:00000000000355e3 .LASF1102
     /tmp/ccNzw1my.s:91671  .debug_str:000000000000dbf2 .LASF1103
     /tmp/ccNzw1my.s:101205  .debug_str:00000000000345df .LASF1104
     /tmp/ccNzw1my.s:91417  .debug_str:000000000000cca2 .LASF1105
     /tmp/ccNzw1my.s:100963  .debug_str:00000000000334c9 .LASF1106
     /tmp/ccNzw1my.s:91151  .debug_str:000000000000bad0 .LASF1107
     /tmp/ccNzw1my.s:100537  .debug_str:0000000000031a0b .LASF1108
     /tmp/ccNzw1my.s:90901  .debug_str:000000000000a86b .LASF1109
     /tmp/ccNzw1my.s:106671  .debug_str:000000000004a913 .LASF1110
     /tmp/ccNzw1my.s:92473  .debug_str:000000000001088e .LASF1111
     /tmp/ccNzw1my.s:101813  .debug_str:0000000000036bc0 .LASF1112
     /tmp/ccNzw1my.s:92199  .debug_str:000000000000f987 .LASF1113
     /tmp/ccNzw1my.s:101533  .debug_str:0000000000035a83 .LASF1114
     /tmp/ccNzw1my.s:91683  .debug_str:000000000000dccb .LASF1115
     /tmp/ccNzw1my.s:101265  .debug_str:00000000000349cf .LASF1116
     /tmp/ccNzw1my.s:91483  .debug_str:000000000000d0f9 .LASF1117
     /tmp/ccNzw1my.s:101037  .debug_str:0000000000033a3b .LASF1118
     /tmp/ccNzw1my.s:91223  .debug_str:000000000000bf68 .LASF1119
     /tmp/ccNzw1my.s:100795  .debug_str:0000000000032a1e .LASF1120
     /tmp/ccNzw1my.s:92839  .debug_str:0000000000012123 .LASF1121
     /tmp/ccNzw1my.s:102339  .debug_str:000000000003880b .LASF1122
     /tmp/ccNzw1my.s:92551  .debug_str:0000000000010dc0 .LASF1123
     /tmp/ccNzw1my.s:101883  .debug_str:0000000000036f79 .LASF1124
     /tmp/ccNzw1my.s:92497  .debug_str:0000000000010a2c .LASF1125
     /tmp/ccNzw1my.s:93337  .debug_str:000000000001414d .LASF1126
     /tmp/ccNzw1my.s:88439  .debug_str:0000000000000021 .LASF1127
     /tmp/ccNzw1my.s:102421  .debug_str:0000000000038d1f .LASF1128
     /tmp/ccNzw1my.s:96323  .debug_str:00000000000209c1 .LASF1129
     /tmp/ccNzw1my.s:104481  .debug_str:00000000000418e2 .LASF1130
     /tmp/ccNzw1my.s:89141  .debug_str:00000000000031a0 .LASF1131
     /tmp/ccNzw1my.s:89507  .debug_str:0000000000004a58 .LASF1132
     /tmp/ccNzw1my.s:89929  .debug_str:000000000000663f .LASF1133
     /tmp/ccNzw1my.s:90279  .debug_str:0000000000007e12 .LASF1134
     /tmp/ccNzw1my.s:93099  .debug_str:0000000000013271 .LASF1135
     /tmp/ccNzw1my.s:93431  .debug_str:0000000000014694 .LASF1136
     /tmp/ccNzw1my.s:101063  .debug_str:0000000000033beb .LASF1137
     /tmp/ccNzw1my.s:103555  .debug_str:000000000003d8f7 .LASF1138
     /tmp/ccNzw1my.s:106065  .debug_str:0000000000047f51 .LASF1139
     /tmp/ccNzw1my.s:89931  .debug_str:0000000000006670 .LASF1140
     /tmp/ccNzw1my.s:106261  .debug_str:0000000000048d20 .LASF1141
     /tmp/ccNzw1my.s:89305  .debug_str:0000000000003bff .LASF1142
     /tmp/ccNzw1my.s:104349  .debug_str:0000000000040ef5 .LASF1143
     /tmp/ccNzw1my.s:104977  .debug_str:0000000000043862 .LASF1144
     /tmp/ccNzw1my.s:103735  .debug_str:000000000003e4e2 .LASF1145
     /tmp/ccNzw1my.s:103919  .debug_str:000000000003f1c7 .LASF1146
     /tmp/ccNzw1my.s:94529  .debug_str:0000000000018d82 .LASF1147
     /tmp/ccNzw1my.s:94163  .debug_str:0000000000017610 .LASF1148
     /tmp/ccNzw1my.s:107045  .debug_str:000000000004c4a2 .LASF1149
     /tmp/ccNzw1my.s:98605  .debug_str:0000000000029b43 .LASF1150
     /tmp/ccNzw1my.s:92261  .debug_str:000000000000fcb2 .LASF1151
     /tmp/ccNzw1my.s:100805  .debug_str:0000000000032afe .LASF1152
     /tmp/ccNzw1my.s:90687  .debug_str:0000000000009a5d .LASF1153
     /tmp/ccNzw1my.s:88449  .debug_str:00000000000000da .LASF1154
     /tmp/ccNzw1my.s:96609  .debug_str:0000000000021cf1 .LASF1155
     /tmp/ccNzw1my.s:96855  .debug_str:0000000000022cea .LASF1156
     /tmp/ccNzw1my.s:102785  .debug_str:000000000003a6af .LASF1157
     /tmp/ccNzw1my.s:104947  .debug_str:00000000000436c6 .LASF1158
     /tmp/ccNzw1my.s:106409  .debug_str:0000000000049758 .LASF1159
     /tmp/ccNzw1my.s:96019  .debug_str:000000000001f4e5 .LASF1160
     /tmp/ccNzw1my.s:99713  .debug_str:000000000002e388 .LASF1161
     /tmp/ccNzw1my.s:92507  .debug_str:0000000000010b0a .LASF1163
     /tmp/ccNzw1my.s:105767  .debug_str:0000000000046c39 .LASF1164
     /tmp/ccNzw1my.s:93741  .debug_str:00000000000159e4 .LASF1165
     /tmp/ccNzw1my.s:98213  .debug_str:00000000000281d1 .LASF1166
     /tmp/ccNzw1my.s:93593  .debug_str:00000000000150ec .LASF1167
     /tmp/ccNzw1my.s:93535  .debug_str:0000000000014d31 .LASF1168
     /tmp/ccNzw1my.s:99681  .debug_str:000000000002e1ba .LASF1169
     /tmp/ccNzw1my.s:88501  .debug_str:000000000000049b .LASF1170
     /tmp/ccNzw1my.s:93827  .debug_str:0000000000015fb1 .LASF1171
     /tmp/ccNzw1my.s:95811  .debug_str:000000000001e5e8 .LASF1172
     /tmp/ccNzw1my.s:96925  .debug_str:0000000000023195 .LASF1173
     /tmp/ccNzw1my.s:104171  .debug_str:00000000000403b0 .LASF1174
     /tmp/ccNzw1my.s:91999  .debug_str:000000000000ed7c .LASF1175
     /tmp/ccNzw1my.s:98439  .debug_str:00000000000290ab .LASF1176
     /tmp/ccNzw1my.s:89955  .debug_str:0000000000006875 .LASF1177
     /tmp/ccNzw1my.s:90821  .debug_str:000000000000a2f3 .LASF1178
     /tmp/ccNzw1my.s:98789  .debug_str:000000000002a688 .LASF1179
     /tmp/ccNzw1my.s:90815  .debug_str:000000000000a29a .LASF1180
     /tmp/ccNzw1my.s:95647  .debug_str:000000000001dacd .LASF1181
     /tmp/ccNzw1my.s:100667  .debug_str:00000000000321d9 .LASF1182
     /tmp/ccNzw1my.s:105379  .debug_str:00000000000451f0 .LASF1183
     /tmp/ccNzw1my.s:89137  .debug_str:0000000000003157 .LASF1184
     /tmp/ccNzw1my.s:98307  .debug_str:0000000000028800 .LASF1185
     /tmp/ccNzw1my.s:89525  .debug_str:0000000000004bbf .LASF1186
     /tmp/ccNzw1my.s:91653  .debug_str:000000000000dac4 .LASF1187
     /tmp/ccNzw1my.s:107285  .debug_str:000000000004d54c .LASF1188
     /tmp/ccNzw1my.s:98081  .debug_str:0000000000027941 .LASF1189
     /tmp/ccNzw1my.s:106987  .debug_str:000000000004c0a8 .LASF1190
     /tmp/ccNzw1my.s:98435  .debug_str:0000000000029060 .LASF1191
     /tmp/ccNzw1my.s:105447  .debug_str:00000000000456e2 .LASF1192
     /tmp/ccNzw1my.s:104491  .debug_str:000000000004198c .LASF1193
     /tmp/ccNzw1my.s:92023  .debug_str:000000000000eed5 .LASF1194
     /tmp/ccNzw1my.s:105945  .debug_str:00000000000477b9 .LASF1195
     /tmp/ccNzw1my.s:95007  .debug_str:000000000001ae7c .LASF1196
     /tmp/ccNzw1my.s:94537  .debug_str:0000000000018dfd .LASF1197
     /tmp/ccNzw1my.s:98413  .debug_str:0000000000028ecb .LASF1198
     /tmp/ccNzw1my.s:90337  .debug_str:000000000000826e .LASF1199
     /tmp/ccNzw1my.s:92503  .debug_str:0000000000010ab1 .LASF1200
     /tmp/ccNzw1my.s:100455  .debug_str:00000000000314d4 .LASF1201
     /tmp/ccNzw1my.s:91755  .debug_str:000000000000e16d .LASF1202
     /tmp/ccNzw1my.s:105829  .debug_str:00000000000470c9 .LASF1203
     /tmp/ccNzw1my.s:94599  .debug_str:000000000001926e .LASF1204
     /tmp/ccNzw1my.s:107093  .debug_str:000000000004c838 .LASF1205
     /tmp/ccNzw1my.s:92307  .debug_str:000000000000ff11 .LASF1206
     /tmp/ccNzw1my.s:100841  .debug_str:0000000000032cf4 .LASF1207
     /tmp/ccNzw1my.s:106935  .debug_str:000000000004bcf5 .LASF1208
     /tmp/ccNzw1my.s:99799  .debug_str:000000000002e92e .LASF1209
     /tmp/ccNzw1my.s:97797  .debug_str:00000000000265f3 .LASF1210
     /tmp/ccNzw1my.s:100611  .debug_str:0000000000031efb .LASF1211
     /tmp/ccNzw1my.s:94779  .debug_str:0000000000019f93 .LASF1212
     /tmp/ccNzw1my.s:101581  .debug_str:0000000000035e2a .LASF1213
     /tmp/ccNzw1my.s:104105  .debug_str:000000000003fec5 .LASF1214
     /tmp/ccNzw1my.s:102935  .debug_str:000000000003b12f .LASF1215
     /tmp/ccNzw1my.s:95105  .debug_str:000000000001b5b6 .LASF1216
     /tmp/ccNzw1my.s:99121  .debug_str:000000000002bbf5 .LASF1217
     /tmp/ccNzw1my.s:106503  .debug_str:0000000000049d7e .LASF1218
     /tmp/ccNzw1my.s:104681  .debug_str:0000000000042599 .LASF1219
     /tmp/ccNzw1my.s:91353  .debug_str:000000000000c85a .LASF1220
     /tmp/ccNzw1my.s:91055  .debug_str:000000000000b3ac .LASF1221
     /tmp/ccNzw1my.s:88839  .debug_str:0000000000001bf9 .LASF1222
     /tmp/ccNzw1my.s:100337  .debug_str:0000000000030bde .LASF1223
     /tmp/ccNzw1my.s:93581  .debug_str:0000000000015016 .LASF1224
     /tmp/ccNzw1my.s:98387  .debug_str:0000000000028d08 .LASF1225
     /tmp/ccNzw1my.s:100545  .debug_str:0000000000031aae .LASF1226
     /tmp/ccNzw1my.s:95779  .debug_str:000000000001e394 .LASF1227
     /tmp/ccNzw1my.s:94429  .debug_str:00000000000186b2 .LASF1228
     /tmp/ccNzw1my.s:101235  .debug_str:00000000000347d2 .LASF1229
     /tmp/ccNzw1my.s:90587  .debug_str:00000000000092f7 .LASF1230
     /tmp/ccNzw1my.s:101281  .debug_str:0000000000034af6 .LASF1231
     /tmp/ccNzw1my.s:104113  .debug_str:000000000003ff4f .LASF1232
     /tmp/ccNzw1my.s:95483  .debug_str:000000000001cf51 .LASF1233
     /tmp/ccNzw1my.s:107051  .debug_str:000000000004c4e1 .LASF1234
     /tmp/ccNzw1my.s:104109  .debug_str:000000000003ff21 .LASF1235
     /tmp/ccNzw1my.s:107073  .debug_str:000000000004c690 .LASF1236
     /tmp/ccNzw1my.s:91555  .debug_str:000000000000d551 .LASF1237
     /tmp/ccNzw1my.s:106547  .debug_str:000000000004a075 .LASF1238
     /tmp/ccNzw1my.s:95709  .debug_str:000000000001de1c .LASF1239
     /tmp/ccNzw1my.s:105913  .debug_str:0000000000047618 .LASF1240
     /tmp/ccNzw1my.s:89623  .debug_str:00000000000051d0 .LASF1241
     /tmp/ccNzw1my.s:94045  .debug_str:0000000000016e47 .LASF1242
     /tmp/ccNzw1my.s:104411  .debug_str:000000000004134b .LASF1243
     /tmp/ccNzw1my.s:94395  .debug_str:0000000000018479 .LASF1244
     /tmp/ccNzw1my.s:97057  .debug_str:0000000000023989 .LASF1245
     /tmp/ccNzw1my.s:96491  .debug_str:0000000000021584 .LASF1246
     /tmp/ccNzw1my.s:107257  .debug_str:000000000004d357 .LASF1247
     /tmp/ccNzw1my.s:100325  .debug_str:0000000000030adc .LASF1248
     /tmp/ccNzw1my.s:90675  .debug_str:00000000000099a3 .LASF1249
     /tmp/ccNzw1my.s:97367  .debug_str:0000000000024ae1 .LASF1250
     /tmp/ccNzw1my.s:100877  .debug_str:0000000000032f4e .LASF1251
     /tmp/ccNzw1my.s:88639  .debug_str:0000000000000df4 .LASF1252
     /tmp/ccNzw1my.s:91957  .debug_str:000000000000eb8a .LASF1253
     /tmp/ccNzw1my.s:107181  .debug_str:000000000004cd30 .LASF1254
     /tmp/ccNzw1my.s:106257  .debug_str:0000000000048cd9 .LASF1255
     /tmp/ccNzw1my.s:98669  .debug_str:0000000000029e7a .LASF1256
     /tmp/ccNzw1my.s:97469  .debug_str:0000000000025031 .LASF1257
     /tmp/ccNzw1my.s:91309  .debug_str:000000000000c539 .LASF1258
     /tmp/ccNzw1my.s:96597  .debug_str:0000000000021bf0 .LASF1259
     /tmp/ccNzw1my.s:100665  .debug_str:00000000000321a3 .LASF1260
     /tmp/ccNzw1my.s:105725  .debug_str:000000000004691f .LASF1261
     /tmp/ccNzw1my.s:107315  .debug_str:000000000004d736 .LASF1262
     /tmp/ccNzw1my.s:103013  .debug_str:000000000003b633 .LASF1263
     /tmp/ccNzw1my.s:98809  .debug_str:000000000002a796 .LASF1264
     /tmp/ccNzw1my.s:94143  .debug_str:00000000000174ce .LASF1265
     /tmp/ccNzw1my.s:90255  .debug_str:0000000000007c77 .LASF1266
     /tmp/ccNzw1my.s:104249  .debug_str:00000000000408f1 .LASF1267
     /tmp/ccNzw1my.s:100727  .debug_str:00000000000325e8 .LASF1268
     /tmp/ccNzw1my.s:95437  .debug_str:000000000001cbd9 .LASF1269
     /tmp/ccNzw1my.s:92039  .debug_str:000000000000f014 .LASF1270
     /tmp/ccNzw1my.s:105565  .debug_str:0000000000045e8f .LASF1271
     /tmp/ccNzw1my.s:105759  .debug_str:0000000000046bcf .LASF1272
     /tmp/ccNzw1my.s:94653  .debug_str:00000000000195be .LASF1273
     /tmp/ccNzw1my.s:97153  .debug_str:0000000000023f95 .LASF1274
     /tmp/ccNzw1my.s:104781  .debug_str:0000000000042c72 .LASF1275
     /tmp/ccNzw1my.s:88601  .debug_str:0000000000000b61 .LASF1276
     /tmp/ccNzw1my.s:95945  .debug_str:000000000001ef48 .LASF1277
     /tmp/ccNzw1my.s:99015  .debug_str:000000000002b58b .LASF1278
     /tmp/ccNzw1my.s:93179  .debug_str:000000000001379b .LASF1279
     /tmp/ccNzw1my.s:90303  .debug_str:0000000000007fee .LASF1280
     /tmp/ccNzw1my.s:101461  .debug_str:00000000000356c1 .LASF1281
     /tmp/ccNzw1my.s:104083  .debug_str:000000000003fd37 .LASF1282
     /tmp/ccNzw1my.s:93323  .debug_str:0000000000014079 .LASF1283
     /tmp/ccNzw1my.s:102629  .debug_str:0000000000039b64 .LASF1284
     /tmp/ccNzw1my.s:103441  .debug_str:000000000003d1ca .LASF1285
     /tmp/ccNzw1my.s:89839  .debug_str:00000000000060c0 .LASF1286
     /tmp/ccNzw1my.s:97499  .debug_str:0000000000025204 .LASF1287
     /tmp/ccNzw1my.s:100267  .debug_str:00000000000306bd .LASF1288
     /tmp/ccNzw1my.s:88665  .debug_str:0000000000000fbe .LASF1289
     /tmp/ccNzw1my.s:101367  .debug_str:00000000000350eb .LASF1290
     /tmp/ccNzw1my.s:93679  .debug_str:000000000001566d .LASF1291
     /tmp/ccNzw1my.s:92785  .debug_str:0000000000011db3 .LASF1292
     /tmp/ccNzw1my.s:103787  .debug_str:000000000003e81f .LASF1293
     /tmp/ccNzw1my.s:103871  .debug_str:000000000003ee6c .LASF1294
     /tmp/ccNzw1my.s:95725  .debug_str:000000000001df69 .LASF1295
     /tmp/ccNzw1my.s:106457  .debug_str:0000000000049a87 .LASF1296
     /tmp/ccNzw1my.s:105017  .debug_str:0000000000043af0 .LASF1297
     /tmp/ccNzw1my.s:94969  .debug_str:000000000001ab7a .LASF1298
     /tmp/ccNzw1my.s:102453  .debug_str:0000000000038fe2 .LASF1299
     /tmp/ccNzw1my.s:106441  .debug_str:0000000000049970 .LASF1300
     /tmp/ccNzw1my.s:93517  .debug_str:0000000000014bff .LASF1301
     /tmp/ccNzw1my.s:99933  .debug_str:000000000002f253 .LASF1302
     /tmp/ccNzw1my.s:96715  .debug_str:0000000000022384 .LASF1303
     /tmp/ccNzw1my.s:91861  .debug_str:000000000000e6e0 .LASF1304
     /tmp/ccNzw1my.s:95505  .debug_str:000000000001d0cb .LASF1305
     /tmp/ccNzw1my.s:102283  .debug_str:0000000000038400 .LASF1306
     /tmp/ccNzw1my.s:94983  .debug_str:000000000001acb7 .LASF1307
     /tmp/ccNzw1my.s:101537  .debug_str:0000000000035acd .LASF1308
     /tmp/ccNzw1my.s:103765  .debug_str:000000000003e668 .LASF1309
     /tmp/ccNzw1my.s:98271  .debug_str:00000000000285c3 .LASF1310
     /tmp/ccNzw1my.s:99563  .debug_str:000000000002d8f6 .LASF1311
     /tmp/ccNzw1my.s:96967  .debug_str:00000000000234c9 .LASF1312
     /tmp/ccNzw1my.s:91005  .debug_str:000000000000afed .LASF1313
     /tmp/ccNzw1my.s:92099  .debug_str:000000000000f33f .LASF1314
     /tmp/ccNzw1my.s:88741  .debug_str:00000000000014e5 .LASF1315
     /tmp/ccNzw1my.s:103685  .debug_str:000000000003e179 .LASF1316
     /tmp/ccNzw1my.s:91421  .debug_str:000000000000cd0c .LASF1317
     /tmp/ccNzw1my.s:94547  .debug_str:0000000000018ea8 .LASF1318
     /tmp/ccNzw1my.s:99447  .debug_str:000000000002d1b3 .LASF1319
     /tmp/ccNzw1my.s:99513  .debug_str:000000000002d60d .LASF1320
     /tmp/ccNzw1my.s:91623  .debug_str:000000000000d8ce .LASF1321
     /tmp/ccNzw1my.s:96607  .debug_str:0000000000021cc6 .LASF1322
     /tmp/ccNzw1my.s:102139  .debug_str:0000000000037c68 .LASF1323
     /tmp/ccNzw1my.s:98975  .debug_str:000000000002b30b .LASF1324
     /tmp/ccNzw1my.s:93491  .debug_str:0000000000014a7c .LASF1325
     /tmp/ccNzw1my.s:97909  .debug_str:0000000000026d8a .LASF1326
     /tmp/ccNzw1my.s:104009  .debug_str:000000000003f8ab .LASF1327
     /tmp/ccNzw1my.s:89049  .debug_str:0000000000002aa3 .LASF1328
     /tmp/ccNzw1my.s:95427  .debug_str:000000000001cb33 .LASF1329
     /tmp/ccNzw1my.s:99249  .debug_str:000000000002c3f0 .LASF1330
     /tmp/ccNzw1my.s:107201  .debug_str:000000000004ceff .LASF1331
     /tmp/ccNzw1my.s:103437  .debug_str:000000000003d187 .LASF1332
     /tmp/ccNzw1my.s:98687  .debug_str:000000000002a076 .LASF1333
     /tmp/ccNzw1my.s:89715  .debug_str:0000000000005925 .LASF1334
     /tmp/ccNzw1my.s:104981  .debug_str:00000000000438a0 .LASF1335
     /tmp/ccNzw1my.s:95835  .debug_str:000000000001e777 .LASF1336
     /tmp/ccNzw1my.s:96861  .debug_str:0000000000022d61 .LASF1337
     /tmp/ccNzw1my.s:98843  .debug_str:000000000002aa29 .LASF1338
     /tmp/ccNzw1my.s:104319  .debug_str:0000000000040cb2 .LASF1339
     /tmp/ccNzw1my.s:103781  .debug_str:000000000003e7a4 .LASF1340
     /tmp/ccNzw1my.s:105329  .debug_str:0000000000044eb8 .LASF1341
     /tmp/ccNzw1my.s:94971  .debug_str:000000000001ab96 .LASF1342
     /tmp/ccNzw1my.s:93547  .debug_str:0000000000014db7 .LASF1343
     /tmp/ccNzw1my.s:105651  .debug_str:0000000000046435 .LASF1344
     /tmp/ccNzw1my.s:107151  .debug_str:000000000004cb7c .LASF1345
     /tmp/ccNzw1my.s:94011  .debug_str:0000000000016bb8 .LASF1346
     /tmp/ccNzw1my.s:101059  .debug_str:0000000000033bc3 .LASF1347
     /tmp/ccNzw1my.s:104787  .debug_str:0000000000042cd6 .LASF1348
     /tmp/ccNzw1my.s:94185  .debug_str:0000000000017764 .LASF1349
     /tmp/ccNzw1my.s:89935  .debug_str:00000000000066e2 .LASF1350
     /tmp/ccNzw1my.s:89527  .debug_str:0000000000004be7 .LASF1351
     /tmp/ccNzw1my.s:94005  .debug_str:0000000000016b5a .LASF1352
     /tmp/ccNzw1my.s:103839  .debug_str:000000000003ec26 .LASF1353
     /tmp/ccNzw1my.s:106609  .debug_str:000000000004a528 .LASF1354
     /tmp/ccNzw1my.s:99263  .debug_str:000000000002c545 .LASF1355
     /tmp/ccNzw1my.s:96905  .debug_str:000000000002301e .LASF1356
     /tmp/ccNzw1my.s:96235  .debug_str:00000000000203f7 .LASF1357
     /tmp/ccNzw1my.s:98995  .debug_str:000000000002b40f .LASF1358
     /tmp/ccNzw1my.s:95591  .debug_str:000000000001d6f8 .LASF1359
     /tmp/ccNzw1my.s:95001  .debug_str:000000000001ae17 .LASF1360
     /tmp/ccNzw1my.s:90869  .debug_str:000000000000a614 .LASF1361
     /tmp/ccNzw1my.s:104413  .debug_str:0000000000041367 .LASF1362
     /tmp/ccNzw1my.s:105263  .debug_str:0000000000044aab .LASF1363
     /tmp/ccNzw1my.s:95243  .debug_str:000000000001bf0f .LASF1364
     /tmp/ccNzw1my.s:94651  .debug_str:000000000001959d .LASF1365
     /tmp/ccNzw1my.s:104507  .debug_str:0000000000041a9f .LASF1366
     /tmp/ccNzw1my.s:89611  .debug_str:0000000000005102 .LASF1367
     /tmp/ccNzw1my.s:103697  .debug_str:000000000003e253 .LASF1368
     /tmp/ccNzw1my.s:105961  .debug_str:00000000000478a1 .LASF1369
     /tmp/ccNzw1my.s:99059  .debug_str:000000000002b8c0 .LASF1370
     /tmp/ccNzw1my.s:105163  .debug_str:000000000004443b .LASF1371
     /tmp/ccNzw1my.s:90343  .debug_str:00000000000082f1 .LASF1372
     /tmp/ccNzw1my.s:97563  .debug_str:00000000000256a8 .LASF1373
     /tmp/ccNzw1my.s:102187  .debug_str:0000000000037f40 .LASF1374
     /tmp/ccNzw1my.s:103507  .debug_str:000000000003d65e .LASF1375
     /tmp/ccNzw1my.s:93545  .debug_str:0000000000014d99 .LASF1376
     /tmp/ccNzw1my.s:94921  .debug_str:000000000001a8aa .LASF1377
     /tmp/ccNzw1my.s:105121  .debug_str:000000000004419a .LASF1378
     /tmp/ccNzw1my.s:104369  .debug_str:0000000000041091 .LASF1379
     /tmp/ccNzw1my.s:105955  .debug_str:0000000000047854 .LASF1380
     /tmp/ccNzw1my.s:90807  .debug_str:000000000000a203 .LASF1381
     /tmp/ccNzw1my.s:100425  .debug_str:0000000000031283 .LASF1382
     /tmp/ccNzw1my.s:96363  .debug_str:0000000000020cd1 .LASF1383
     /tmp/ccNzw1my.s:95003  .debug_str:000000000001ae40 .LASF1384
     /tmp/ccNzw1my.s:106427  .debug_str:0000000000049885 .LASF1385
     /tmp/ccNzw1my.s:105355  .debug_str:0000000000045098 .LASF1386
     /tmp/ccNzw1my.s:97467  .debug_str:0000000000025008 .LASF1387
     /tmp/ccNzw1my.s:96763  .debug_str:00000000000226d9 .LASF1388
     /tmp/ccNzw1my.s:90747  .debug_str:0000000000009e30 .LASF1389
     /tmp/ccNzw1my.s:107119  .debug_str:000000000004c9a3 .LASF1390
     /tmp/ccNzw1my.s:98819  .debug_str:000000000002a87d .LASF1391
     /tmp/ccNzw1my.s:93065  .debug_str:0000000000013052 .LASF1392
     /tmp/ccNzw1my.s:99967  .debug_str:000000000002f4a0 .LASF1393
     /tmp/ccNzw1my.s:103431  .debug_str:000000000003d138 .LASF1394
     /tmp/ccNzw1my.s:106337  .debug_str:000000000004922d .LASF1395
     /tmp/ccNzw1my.s:97821  .debug_str:0000000000026788 .LASF1396
     /tmp/ccNzw1my.s:100287  .debug_str:0000000000030813 .LASF1397
     /tmp/ccNzw1my.s:99943  .debug_str:000000000002f31a .LASF1398
     /tmp/ccNzw1my.s:91341  .debug_str:000000000000c78d .LASF1399
     /tmp/ccNzw1my.s:90121  .debug_str:0000000000007435 .LASF1400
     /tmp/ccNzw1my.s:96613  .debug_str:0000000000021d13 .LASF1401
     /tmp/ccNzw1my.s:100559  .debug_str:0000000000031b95 .LASF1402
     /tmp/ccNzw1my.s:106709  .debug_str:000000000004ab58 .LASF1403
     /tmp/ccNzw1my.s:91489  .debug_str:000000000000d171 .LASF1404
     /tmp/ccNzw1my.s:98529  .debug_str:00000000000295fe .LASF1405
     /tmp/ccNzw1my.s:98981  .debug_str:000000000002b354 .LASF1406
     /tmp/ccNzw1my.s:88551  .debug_str:0000000000000831 .LASF1407
     /tmp/ccNzw1my.s:105815  .debug_str:0000000000046fcc .LASF1408
     /tmp/ccNzw1my.s:106773  .debug_str:000000000004b088 .LASF1409
     /tmp/ccNzw1my.s:93015  .debug_str:0000000000012dd0 .LASF1410
     /tmp/ccNzw1my.s:95441  .debug_str:000000000001cc42 .LASF1411
     /tmp/ccNzw1my.s:99695  .debug_str:000000000002e250 .LASF1412
     /tmp/ccNzw1my.s:95749  .debug_str:000000000001e0d8 .LASF1413
     /tmp/ccNzw1my.s:94985  .debug_str:000000000001acd9 .LASF1414
     /tmp/ccNzw1my.s:105041  .debug_str:0000000000043c7d .LASF1415
     /tmp/ccNzw1my.s:90241  .debug_str:0000000000007b87 .LASF1416
     /tmp/ccNzw1my.s:106739  .debug_str:000000000004adb0 .LASF1417
     /tmp/ccNzw1my.s:101439  .debug_str:000000000003552a .LASF1418
     /tmp/ccNzw1my.s:104453  .debug_str:0000000000041720 .LASF1419
     /tmp/ccNzw1my.s:100285  .debug_str:00000000000307f4 .LASF1420
     /tmp/ccNzw1my.s:100515  .debug_str:0000000000031893 .LASF1421
     /tmp/ccNzw1my.s:98453  .debug_str:00000000000291bb .LASF1422
     /tmp/ccNzw1my.s:90685  .debug_str:0000000000009a36 .LASF1423
     /tmp/ccNzw1my.s:103915  .debug_str:000000000003f184 .LASF1424
     /tmp/ccNzw1my.s:106299  .debug_str:0000000000048fee .LASF1425
     /tmp/ccNzw1my.s:99333  .debug_str:000000000002c9bd .LASF1426
     /tmp/ccNzw1my.s:90787  .debug_str:000000000000a050 .LASF1427
     /tmp/ccNzw1my.s:103019  .debug_str:000000000003b67a .LASF1428
     /tmp/ccNzw1my.s:103283  .debug_str:000000000003c7f7 .LASF1429
     /tmp/ccNzw1my.s:102165  .debug_str:0000000000037e3a .LASF1430
     /tmp/ccNzw1my.s:91535  .debug_str:000000000000d420 .LASF1431
     /tmp/ccNzw1my.s:98793  .debug_str:000000000002a6ca .LASF1432
     /tmp/ccNzw1my.s:100673  .debug_str:0000000000032256 .LASF1433
     /tmp/ccNzw1my.s:88503  .debug_str:00000000000004bd .LASF1434
     /tmp/ccNzw1my.s:90951  .debug_str:000000000000abac .LASF1435
     /tmp/ccNzw1my.s:94623  .debug_str:0000000000019373 .LASF1436
     /tmp/ccNzw1my.s:90813  .debug_str:000000000000a27b .LASF1437
     /tmp/ccNzw1my.s:97637  .debug_str:0000000000025bd2 .LASF1438
     /tmp/ccNzw1my.s:103717  .debug_str:000000000003e3ae .LASF1439
     /tmp/ccNzw1my.s:94407  .debug_str:000000000001852c .LASF1440
     /tmp/ccNzw1my.s:107089  .debug_str:000000000004c7df .LASF1441
     /tmp/ccNzw1my.s:94981  .debug_str:000000000001ac8d .LASF1442
     /tmp/ccNzw1my.s:101267  .debug_str:00000000000349f9 .LASF1443
     /tmp/ccNzw1my.s:105807  .debug_str:0000000000046f1a .LASF1444
     /tmp/ccNzw1my.s:103557  .debug_str:000000000003d92e .LASF1445
     /tmp/ccNzw1my.s:99797  .debug_str:000000000002e90d .LASF1446
     /tmp/ccNzw1my.s:104693  .debug_str:000000000004267f .LASF1447
     /tmp/ccNzw1my.s:104141  .debug_str:0000000000040180 .LASF1448
     /tmp/ccNzw1my.s:97599  .debug_str:0000000000025917 .LASF1449
     /tmp/ccNzw1my.s:90269  .debug_str:0000000000007d83 .LASF1450
     /tmp/ccNzw1my.s:98587  .debug_str:00000000000299ad .LASF1451
     /tmp/ccNzw1my.s:98159  .debug_str:0000000000027f10 .LASF1452
     /tmp/ccNzw1my.s:93181  .debug_str:00000000000137be .LASF1453
     /tmp/ccNzw1my.s:100113  .debug_str:000000000002fd55 .LASF1454
     /tmp/ccNzw1my.s:93981  .debug_str:00000000000169b9 .LASF1455
     /tmp/ccNzw1my.s:98801  .debug_str:000000000002a72e .LASF1456
     /tmp/ccNzw1my.s:90547  .debug_str:00000000000090c0 .LASF1457
     /tmp/ccNzw1my.s:105257  .debug_str:0000000000044a4c .LASF1458
     /tmp/ccNzw1my.s:99783  .debug_str:000000000002e7ec .LASF1459
     /tmp/ccNzw1my.s:89635  .debug_str:000000000000529a .LASF1460
     /tmp/ccNzw1my.s:91401  .debug_str:000000000000cb47 .LASF1461
     /tmp/ccNzw1my.s:89357  .debug_str:0000000000003fbe .LASF1462
     /tmp/ccNzw1my.s:93885  .debug_str:000000000001636e .LASF1463
     /tmp/ccNzw1my.s:90489  .debug_str:0000000000008cdc .LASF1464
     /tmp/ccNzw1my.s:99823  .debug_str:000000000002ea86 .LASF1465
     /tmp/ccNzw1my.s:101065  .debug_str:0000000000033c22 .LASF1466
     /tmp/ccNzw1my.s:97641  .debug_str:0000000000025c0e .LASF1467
     /tmp/ccNzw1my.s:97811  .debug_str:00000000000266e7 .LASF1468
     /tmp/ccNzw1my.s:92855  .debug_str:0000000000012256 .LASF1469
     /tmp/ccNzw1my.s:101833  .debug_str:0000000000036d31 .LASF1470
     /tmp/ccNzw1my.s:91935  .debug_str:000000000000e9cf .LASF1471
     /tmp/ccNzw1my.s:89251  .debug_str:000000000000389d .LASF1472
     /tmp/ccNzw1my.s:106965  .debug_str:000000000004bf5e .LASF1473
     /tmp/ccNzw1my.s:99245  .debug_str:000000000002c3a8 .LASF1474
     /tmp/ccNzw1my.s:101797  .debug_str:0000000000036ab9 .LASF1475
     /tmp/ccNzw1my.s:106699  .debug_str:000000000004aaa8 .LASF1476
     /tmp/ccNzw1my.s:96185  .debug_str:0000000000020046 .LASF1477
     /tmp/ccNzw1my.s:96303  .debug_str:00000000000208af .LASF1478
     /tmp/ccNzw1my.s:96735  .debug_str:00000000000224d4 .LASF1479
     /tmp/ccNzw1my.s:99343  .debug_str:000000000002ca6d .LASF1480
     /tmp/ccNzw1my.s:101303  .debug_str:0000000000034c6b .LASF1481
     /tmp/ccNzw1my.s:100979  .debug_str:0000000000033612 .LASF1482
     /tmp/ccNzw1my.s:91113  .debug_str:000000000000b870 .LASF1483
     /tmp/ccNzw1my.s:92743  .debug_str:0000000000011b0c .LASF1484
     /tmp/ccNzw1my.s:98381  .debug_str:0000000000028caf .LASF1485
     /tmp/ccNzw1my.s:91517  .debug_str:000000000000d308 .LASF1486
     /tmp/ccNzw1my.s:103321  .debug_str:000000000003ca8d .LASF1487
     /tmp/ccNzw1my.s:89041  .debug_str:0000000000002a3d .LASF1488
     /tmp/ccNzw1my.s:100279  .debug_str:000000000003077d .LASF1489
     /tmp/ccNzw1my.s:102389  .debug_str:0000000000038b56 .LASF1490
     /tmp/ccNzw1my.s:103859  .debug_str:000000000003edcc .LASF1491
     /tmp/ccNzw1my.s:94483  .debug_str:0000000000018a70 .LASF1492
     /tmp/ccNzw1my.s:99463  .debug_str:000000000002d2bf .LASF1493
     /tmp/ccNzw1my.s:100053  .debug_str:000000000002f9b8 .LASF1494
     /tmp/ccNzw1my.s:93353  .debug_str:0000000000014241 .LASF1495
     /tmp/ccNzw1my.s:99955  .debug_str:000000000002f3ba .LASF1496
     /tmp/ccNzw1my.s:91505  .debug_str:000000000000d240 .LASF1497
     /tmp/ccNzw1my.s:96923  .debug_str:0000000000023175 .LASF1498
     /tmp/ccNzw1my.s:99929  .debug_str:000000000002f1f0 .LASF1499
     /tmp/ccNzw1my.s:93111  .debug_str:0000000000013378 .LASF1500
     /tmp/ccNzw1my.s:88915  .debug_str:000000000000215c .LASF1501
     /tmp/ccNzw1my.s:95173  .debug_str:000000000001ba5a .LASF1502
     /tmp/ccNzw1my.s:91651  .debug_str:000000000000da98 .LASF1503
     /tmp/ccNzw1my.s:102365  .debug_str:0000000000038992 .LASF1504
     /tmp/ccNzw1my.s:99965  .debug_str:000000000002f476 .LASF1505
     /tmp/ccNzw1my.s:95097  .debug_str:000000000001b51e .LASF1506
     /tmp/ccNzw1my.s:98451  .debug_str:0000000000029195 .LASF1507
     /tmp/ccNzw1my.s:105051  .debug_str:0000000000043d6c .LASF1508
     /tmp/ccNzw1my.s:90535  .debug_str:0000000000008ff1 .LASF1509
     /tmp/ccNzw1my.s:103175  .debug_str:000000000003c0ca .LASF1510
     /tmp/ccNzw1my.s:96813  .debug_str:0000000000022a6a .LASF1511
     /tmp/ccNzw1my.s:100093  .debug_str:000000000002fc2c .LASF1512
     /tmp/ccNzw1my.s:90729  .debug_str:0000000000009ce0 .LASF1513
     /tmp/ccNzw1my.s:93599  .debug_str:000000000001514a .LASF1514
     /tmp/ccNzw1my.s:91273  .debug_str:000000000000c2e8 .LASF1515
     /tmp/ccNzw1my.s:99321  .debug_str:000000000002c914 .LASF1516
     /tmp/ccNzw1my.s:95981  .debug_str:000000000001f24f .LASF1517
     /tmp/ccNzw1my.s:95539  .debug_str:000000000001d300 .LASF1518
     /tmp/ccNzw1my.s:92267  .debug_str:000000000000fd03 .LASF1519
     /tmp/ccNzw1my.s:97617  .debug_str:0000000000025a5b .LASF1520
     /tmp/ccNzw1my.s:92527  .debug_str:0000000000010c5f .LASF1521
     /tmp/ccNzw1my.s:104157  .debug_str:000000000004029c .LASF1522
     /tmp/ccNzw1my.s:101001  .debug_str:00000000000337b8 .LASF1523
     /tmp/ccNzw1my.s:89847  .debug_str:0000000000006125 .LASF1524
     /tmp/ccNzw1my.s:92077  .debug_str:000000000000f166 .LASF1525
     /tmp/ccNzw1my.s:100017  .debug_str:000000000002f79f .LASF1526
     /tmp/ccNzw1my.s:103627  .debug_str:000000000003de14 .LASF1527
     /tmp/ccNzw1my.s:97073  .debug_str:0000000000023b3a .LASF1528
     /tmp/ccNzw1my.s:103533  .debug_str:000000000003d7e9 .LASF1529
     /tmp/ccNzw1my.s:89803  .debug_str:0000000000005e99 .LASF1530
     /tmp/ccNzw1my.s:95011  .debug_str:000000000001aed5 .LASF1531
     /tmp/ccNzw1my.s:106243  .debug_str:0000000000048bcb .LASF1532
     /tmp/ccNzw1my.s:98739  .debug_str:000000000002a3c8 .LASF1533
     /tmp/ccNzw1my.s:95033  .debug_str:000000000001b07d .LASF1534
     /tmp/ccNzw1my.s:92763  .debug_str:0000000000011c77 .LASF1535
     /tmp/ccNzw1my.s:89601  .debug_str:0000000000005077 .LASF1536
     /tmp/ccNzw1my.s:96225  .debug_str:0000000000020321 .LASF1537
     /tmp/ccNzw1my.s:92645  .debug_str:00000000000113ed .LASF1538
     /tmp/ccNzw1my.s:88843  .debug_str:0000000000001c42 .LASF1539
     /tmp/ccNzw1my.s:94961  .debug_str:000000000001aaf6 .LASF1540
     /tmp/ccNzw1my.s:104429  .debug_str:0000000000041518 .LASF1541
     /tmp/ccNzw1my.s:97997  .debug_str:0000000000027327 .LASF1542
     /tmp/ccNzw1my.s:95685  .debug_str:000000000001dd18 .LASF1543
     /tmp/ccNzw1my.s:100593  .debug_str:0000000000031da0 .LASF1544
     /tmp/ccNzw1my.s:100505  .debug_str:00000000000317d9 .LASF1545
     /tmp/ccNzw1my.s:94661  .debug_str:000000000001965c .LASF1546
     /tmp/ccNzw1my.s:103745  .debug_str:000000000003e587 .LASF1547
     /tmp/ccNzw1my.s:105339  .debug_str:0000000000044f63 .LASF1548
     /tmp/ccNzw1my.s:90281  .debug_str:0000000000007e43 .LASF1549
     /tmp/ccNzw1my.s:94451  .debug_str:0000000000018826 .LASF1550
     /tmp/ccNzw1my.s:102591  .debug_str:0000000000039949 .LASF1551
     /tmp/ccNzw1my.s:105505  .debug_str:0000000000045b1d .LASF1552
     /tmp/ccNzw1my.s:100451  .debug_str:000000000003148d .LASF1553
     /tmp/ccNzw1my.s:105969  .debug_str:0000000000047931 .LASF1554
     /tmp/ccNzw1my.s:96463  .debug_str:000000000002134d .LASF1555
     /tmp/ccNzw1my.s:100729  .debug_str:0000000000032605 .LASF1556
     /tmp/ccNzw1my.s:90145  .debug_str:00000000000075c6 .LASF1557
     /tmp/ccNzw1my.s:105887  .debug_str:000000000004745c .LASF1558
     /tmp/ccNzw1my.s:94381  .debug_str:000000000001834a .LASF1559
     /tmp/ccNzw1my.s:101711  .debug_str:00000000000365d8 .LASF1560
     /tmp/ccNzw1my.s:101381  .debug_str:00000000000351bd .LASF1561
     /tmp/ccNzw1my.s:95921  .debug_str:000000000001ed19 .LASF1562
     /tmp/ccNzw1my.s:98065  .debug_str:000000000002782e .LASF1563
     /tmp/ccNzw1my.s:106005  .debug_str:0000000000047b75 .LASF1564
     /tmp/ccNzw1my.s:104807  .debug_str:0000000000042e1c .LASF1565
     /tmp/ccNzw1my.s:97183  .debug_str:000000000002417d .LASF1566
     /tmp/ccNzw1my.s:89389  .debug_str:0000000000004272 .LASF1567
     /tmp/ccNzw1my.s:103465  .debug_str:000000000003d389 .LASF1568
     /tmp/ccNzw1my.s:90429  .debug_str:000000000000884b .LASF1569
     /tmp/ccNzw1my.s:106089  .debug_str:00000000000480fd .LASF1570
     /tmp/ccNzw1my.s:100907  .debug_str:00000000000331db .LASF1571
     /tmp/ccNzw1my.s:106455  .debug_str:0000000000049a5e .LASF1572
     /tmp/ccNzw1my.s:96669  .debug_str:0000000000022083 .LASF1573
     /tmp/ccNzw1my.s:94797  .debug_str:000000000001a0a8 .LASF1574
     /tmp/ccNzw1my.s:106923  .debug_str:000000000004bc0c .LASF1575
     /tmp/ccNzw1my.s:91971  .debug_str:000000000000ec92 .LASF1576
     /tmp/ccNzw1my.s:103473  .debug_str:000000000003d42c .LASF1577
     /tmp/ccNzw1my.s:104183  .debug_str:0000000000040460 .LASF1578
     /tmp/ccNzw1my.s:105513  .debug_str:0000000000045b7f .LASF1579
     /tmp/ccNzw1my.s:97339  .debug_str:000000000002492b .LASF1580
     /tmp/ccNzw1my.s:98805  .debug_str:000000000002a766 .LASF1581
     /tmp/ccNzw1my.s:105157  .debug_str:00000000000443cd .LASF1582
     /tmp/ccNzw1my.s:88445  .debug_str:0000000000000096 .LASF1583
     /tmp/ccNzw1my.s:96579  .debug_str:0000000000021ad2 .LASF1584
     /tmp/ccNzw1my.s:98631  .debug_str:0000000000029c82 .LASF1585
     /tmp/ccNzw1my.s:93349  .debug_str:00000000000141fe .LASF1586
     /tmp/ccNzw1my.s:89697  .debug_str:00000000000057bf .LASF1587
     /tmp/ccNzw1my.s:103089  .debug_str:000000000003bb45 .LASF1588
     /tmp/ccNzw1my.s:97723  .debug_str:0000000000026087 .LASF1589
     /tmp/ccNzw1my.s:89011  .debug_str:0000000000002851 .LASF1590
     /tmp/ccNzw1my.s:98725  .debug_str:000000000002a2df .LASF1591
     /tmp/ccNzw1my.s:99455  .debug_str:000000000002d26a .LASF1592
     /tmp/ccNzw1my.s:89799  .debug_str:0000000000005e29 .LASF1593
     /tmp/ccNzw1my.s:94077  .debug_str:00000000000170ae .LASF1594
     /tmp/ccNzw1my.s:90955  .debug_str:000000000000ac0a .LASF1595
     /tmp/ccNzw1my.s:106147  .debug_str:00000000000484bb .LASF1596
     /tmp/ccNzw1my.s:102531  .debug_str:00000000000394e0 .LASF1597
     /tmp/ccNzw1my.s:96821  .debug_str:0000000000022ae4 .LASF1598
     /tmp/ccNzw1my.s:95499  .debug_str:000000000001d05a .LASF1599
     /tmp/ccNzw1my.s:106557  .debug_str:000000000004a131 .LASF1600
     /tmp/ccNzw1my.s:106715  .debug_str:000000000004ab9e .LASF1601
     /tmp/ccNzw1my.s:96961  .debug_str:000000000002345c .LASF1602
     /tmp/ccNzw1my.s:92617  .debug_str:00000000000111e2 .LASF1603
     /tmp/ccNzw1my.s:101827  .debug_str:0000000000036cb5 .LASF1604
     /tmp/ccNzw1my.s:95953  .debug_str:000000000001effe .LASF1605
     /tmp/ccNzw1my.s:102713  .debug_str:000000000003a137 .LASF1606
     /tmp/ccNzw1my.s:95407  .debug_str:000000000001c9da .LASF1607
     /tmp/ccNzw1my.s:92641  .debug_str:0000000000011396 .LASF1608
     /tmp/ccNzw1my.s:89883  .debug_str:0000000000006397 .LASF1609
     /tmp/ccNzw1my.s:100085  .debug_str:000000000002fbc0 .LASF1610
     /tmp/ccNzw1my.s:93485  .debug_str:0000000000014a0e .LASF1611
     /tmp/ccNzw1my.s:106519  .debug_str:0000000000049e7d .LASF1612
     /tmp/ccNzw1my.s:95453  .debug_str:000000000001cd5d .LASF1613
     /tmp/ccNzw1my.s:92453  .debug_str:0000000000010808 .LASF1614
     /tmp/ccNzw1my.s:104853  .debug_str:000000000004311c .LASF1615
     /tmp/ccNzw1my.s:99085  .debug_str:000000000002ba06 .LASF1616
     /tmp/ccNzw1my.s:100031  .debug_str:000000000002f8a2 .LASF1617
     /tmp/ccNzw1my.s:89301  .debug_str:0000000000003bc9 .LASF1618
     /tmp/ccNzw1my.s:89069  .debug_str:0000000000002c6d .LASF1619
     /tmp/ccNzw1my.s:90907  .debug_str:000000000000a8e6 .LASF1620
     /tmp/ccNzw1my.s:103361  .debug_str:000000000003cd6d .LASF1621
     /tmp/ccNzw1my.s:92247  .debug_str:000000000000fbbb .LASF1622
     /tmp/ccNzw1my.s:91049  .debug_str:000000000000b361 .LASF1623
     /tmp/ccNzw1my.s:101613  .debug_str:0000000000035f31 .LASF1624
     /tmp/ccNzw1my.s:105269  .debug_str:0000000000044b16 .LASF1625
     /tmp/ccNzw1my.s:91831  .debug_str:000000000000e4fa .LASF1626
     /tmp/ccNzw1my.s:88925  .debug_str:00000000000021e8 .LASF1627
     /tmp/ccNzw1my.s:95667  .debug_str:000000000001dbbd .LASF1628
     /tmp/ccNzw1my.s:103229  .debug_str:000000000003c491 .LASF1629
     /tmp/ccNzw1my.s:104959  .debug_str:0000000000043745 .LASF1630
     /tmp/ccNzw1my.s:102457  .debug_str:0000000000039033 .LASF1631
     /tmp/ccNzw1my.s:105143  .debug_str:0000000000044320 .LASF1632
     /tmp/ccNzw1my.s:97705  .debug_str:0000000000025fb3 .LASF1633
     /tmp/ccNzw1my.s:95421  .debug_str:000000000001cacb .LASF1634
     /tmp/ccNzw1my.s:89661  .debug_str:00000000000054a5 .LASF1635
     /tmp/ccNzw1my.s:103855  .debug_str:000000000003ed6c .LASF1636
     /tmp/ccNzw1my.s:103975  .debug_str:000000000003f65d .LASF1637
     /tmp/ccNzw1my.s:96481  .debug_str:00000000000214b2 .LASF1638
     /tmp/ccNzw1my.s:106425  .debug_str:000000000004986a .LASF1639
     /tmp/ccNzw1my.s:93143  .debug_str:0000000000013573 .LASF1640
     /tmp/ccNzw1my.s:101825  .debug_str:0000000000036c9a .LASF1641
     /tmp/ccNzw1my.s:107193  .debug_str:000000000004ce66 .LASF1642
     /tmp/ccNzw1my.s:104779  .debug_str:0000000000042c57 .LASF1643
     /tmp/ccNzw1my.s:106621  .debug_str:000000000004a60f .LASF1644
     /tmp/ccNzw1my.s:96223  .debug_str:00000000000202f9 .LASF1645
     /tmp/ccNzw1my.s:88635  .debug_str:0000000000000db8 .LASF1646
     /tmp/ccNzw1my.s:105431  .debug_str:00000000000455a0 .LASF1647
     /tmp/ccNzw1my.s:95409  .debug_str:000000000001ca03 .LASF1648
     /tmp/ccNzw1my.s:105923  .debug_str:00000000000476af .LASF1649
     /tmp/ccNzw1my.s:90655  .debug_str:0000000000009876 .LASF1650
     /tmp/ccNzw1my.s:96279  .debug_str:0000000000020708 .LASF1651
     /tmp/ccNzw1my.s:97481  .debug_str:00000000000250ec .LASF1652
     /tmp/ccNzw1my.s:92265  .debug_str:000000000000fcda .LASF1653
     /tmp/ccNzw1my.s:92819  .debug_str:0000000000011fe4 .LASF1654
     /tmp/ccNzw1my.s:106837  .debug_str:000000000004b617 .LASF1655
     /tmp/ccNzw1my.s:101605  .debug_str:0000000000035ee8 .LASF1656
     /tmp/ccNzw1my.s:91607  .debug_str:000000000000d802 .LASF1657
     /tmp/ccNzw1my.s:90513  .debug_str:0000000000008e1b .LASF1658
     /tmp/ccNzw1my.s:101139  .debug_str:000000000003419a .LASF1659
     /tmp/ccNzw1my.s:104145  .debug_str:00000000000401c6 .LASF1660
     /tmp/ccNzw1my.s:98313  .debug_str:0000000000028854 .LASF1661
     /tmp/ccNzw1my.s:99573  .debug_str:000000000002d986 .LASF1662
     /tmp/ccNzw1my.s:92575  .debug_str:0000000000010ec7 .LASF1663
     /tmp/ccNzw1my.s:96047  .debug_str:000000000001f727 .LASF1664
     /tmp/ccNzw1my.s:99919  .debug_str:000000000002f110 .LASF1665
     /tmp/ccNzw1my.s:96205  .debug_str:00000000000201ba .LASF1666
     /tmp/ccNzw1my.s:90119  .debug_str:000000000000740c .LASF1667
     /tmp/ccNzw1my.s:94007  .debug_str:0000000000016b84 .LASF1668
     /tmp/ccNzw1my.s:93973  .debug_str:000000000001690e .LASF1669
     /tmp/ccNzw1my.s:89181  .debug_str:000000000000346f .LASF1670
     /tmp/ccNzw1my.s:103217  .debug_str:000000000003c3b5 .LASF1671
     /tmp/ccNzw1my.s:89613  .debug_str:0000000000005125 .LASF1672
     /tmp/ccNzw1my.s:95519  .debug_str:000000000001d1cd .LASF1673
     /tmp/ccNzw1my.s:101417  .debug_str:000000000003539e .LASF1674
     /tmp/ccNzw1my.s:98621  .debug_str:0000000000029c18 .LASF1675
     /tmp/ccNzw1my.s:104163  .debug_str:0000000000040327 .LASF1676
     /tmp/ccNzw1my.s:104895  .debug_str:000000000004334e .LASF1677
     /tmp/ccNzw1my.s:102931  .debug_str:000000000003b0d4 .LASF1678
     /tmp/ccNzw1my.s:93765  .debug_str:0000000000015bba .LASF1679
     /tmp/ccNzw1my.s:96831  .debug_str:0000000000022b5a .LASF1680
     /tmp/ccNzw1my.s:89767  .debug_str:0000000000005c5c .LASF1681
     /tmp/ccNzw1my.s:102011  .debug_str:0000000000037667 .LASF1682
     /tmp/ccNzw1my.s:95327  .debug_str:000000000001c476 .LASF1683
     /tmp/ccNzw1my.s:99961  .debug_str:000000000002f41c .LASF1684
     /tmp/ccNzw1my.s:106601  .debug_str:000000000004a4a0 .LASF1685
     /tmp/ccNzw1my.s:105667  .debug_str:0000000000046520 .LASF1686
     /tmp/ccNzw1my.s:101463  .debug_str:00000000000356e4 .LASF1687
     /tmp/ccNzw1my.s:102461  .debug_str:0000000000039083 .LASF1688
     /tmp/ccNzw1my.s:99047  .debug_str:000000000002b816 .LASF1689
     /tmp/ccNzw1my.s:102771  .debug_str:000000000003a5b7 .LASF1690
     /tmp/ccNzw1my.s:94763  .debug_str:0000000000019e19 .LASF1691
     /tmp/ccNzw1my.s:107133  .debug_str:000000000004ca33 .LASF1692
     /tmp/ccNzw1my.s:90891  .debug_str:000000000000a78c .LASF1693
     /tmp/ccNzw1my.s:103721  .debug_str:000000000003e3dc .LASF1694
     /tmp/ccNzw1my.s:96921  .debug_str:000000000002314c .LASF1695
     /tmp/ccNzw1my.s:100973  .debug_str:0000000000033595 .LASF1696
     /tmp/ccNzw1my.s:106161  .debug_str:0000000000048565 .LASF1697
     /tmp/ccNzw1my.s:90565  .debug_str:00000000000091d8 .LASF1698
     /tmp/ccNzw1my.s:100965  .debug_str:00000000000334f3 .LASF1699
     /tmp/ccNzw1my.s:104805  .debug_str:0000000000042dfa .LASF1700
     /tmp/ccNzw1my.s:91139  .debug_str:000000000000b9f1 .LASF1701
     /tmp/ccNzw1my.s:92733  .debug_str:0000000000011a40 .LASF1702
     /tmp/ccNzw1my.s:92567  .debug_str:0000000000010e51 .LASF1703
     /tmp/ccNzw1my.s:106833  .debug_str:000000000004b5cb .LASF1704
     /tmp/ccNzw1my.s:101877  .debug_str:0000000000036f00 .LASF1705
     /tmp/ccNzw1my.s:90439  .debug_str:00000000000088e5 .LASF1706
     /tmp/ccNzw1my.s:105631  .debug_str:00000000000462d0 .LASF1707
     /tmp/ccNzw1my.s:104833  .debug_str:0000000000042f9d .LASF1708
     /tmp/ccNzw1my.s:95923  .debug_str:000000000001ed42 .LASF1709
     /tmp/ccNzw1my.s:103299  .debug_str:000000000003c8db .LASF1710
     /tmp/ccNzw1my.s:103081  .debug_str:000000000003bad7 .LASF1711
     /tmp/ccNzw1my.s:98705  .debug_str:000000000002a170 .LASF1712
     /tmp/ccNzw1my.s:93361  .debug_str:00000000000142a9 .LASF1713
     /tmp/ccNzw1my.s:91191  .debug_str:000000000000bd5a .LASF1714
     /tmp/ccNzw1my.s:94861  .debug_str:000000000001a4ee .LASF1715
     /tmp/ccNzw1my.s:105409  .debug_str:00000000000453bc .LASF1716
     /tmp/ccNzw1my.s:104099  .debug_str:000000000003fe4b .LASF1717
     /tmp/ccNzw1my.s:89081  .debug_str:0000000000002d2e .LASF1718
     /tmp/ccNzw1my.s:88937  .debug_str:00000000000022cf .LASF1719
     /tmp/ccNzw1my.s:88565  .debug_str:0000000000000949 .LASF1720
     /tmp/ccNzw1my.s:98229  .debug_str:0000000000028287 .LASF1721
     /tmp/ccNzw1my.s:100935  .debug_str:0000000000033338 .LASF1722
     /tmp/ccNzw1my.s:103917  .debug_str:000000000003f1a3 .LASF1723
     /tmp/ccNzw1my.s:94319  .debug_str:0000000000017fca .LASF1724
     /tmp/ccNzw1my.s:102791  .debug_str:000000000003a71d .LASF1725
     /tmp/ccNzw1my.s:98263  .debug_str:0000000000028548 .LASF1726
     /tmp/ccNzw1my.s:104813  .debug_str:0000000000042e79 .LASF1727
     /tmp/ccNzw1my.s:102987  .debug_str:000000000003b4a0 .LASF1728
     /tmp/ccNzw1my.s:96753  .debug_str:00000000000225fc .LASF1729
     /tmp/ccNzw1my.s:99471  .debug_str:000000000002d33b .LASF1730
     /tmp/ccNzw1my.s:103253  .debug_str:000000000003c5f6 .LASF1731
     /tmp/ccNzw1my.s:94309  .debug_str:0000000000017f05 .LASF1732
     /tmp/ccNzw1my.s:100881  .debug_str:0000000000032f92 .LASF1733
     /tmp/ccNzw1my.s:104483  .debug_str:0000000000041911 .LASF1734
     /tmp/ccNzw1my.s:102843  .debug_str:000000000003aae4 .LASF1735
     /tmp/ccNzw1my.s:94605  .debug_str:00000000000192bc .LASF1736
     /tmp/ccNzw1my.s:100609  .debug_str:0000000000031ed3 .LASF1737
     /tmp/ccNzw1my.s:88779  .debug_str:0000000000001778 .LASF1738
     /tmp/ccNzw1my.s:90253  .debug_str:0000000000007c4e .LASF1739
     /tmp/ccNzw1my.s:97317  .debug_str:0000000000024794 .LASF1740
     /tmp/ccNzw1my.s:97845  .debug_str:0000000000026975 .LASF1741
     /tmp/ccNzw1my.s:106039  .debug_str:0000000000047d9d .LASF1742
     /tmp/ccNzw1my.s:96101  .debug_str:000000000001fb57 .LASF1743
     /tmp/ccNzw1my.s:92837  .debug_str:00000000000120f1 .LASF1744
     /tmp/ccNzw1my.s:88605  .debug_str:0000000000000bad .LASF1745
     /tmp/ccNzw1my.s:101553  .debug_str:0000000000035bfa .LASF1746
     /tmp/ccNzw1my.s:106239  .debug_str:0000000000048b83 .LASF1747
     /tmp/ccNzw1my.s:96563  .debug_str:00000000000219b7 .LASF1748
     /tmp/ccNzw1my.s:102093  .debug_str:0000000000037a80 .LASF1749
     /tmp/ccNzw1my.s:106827  .debug_str:000000000004b53b .LASF1750
     /tmp/ccNzw1my.s:99885  .debug_str:000000000002ee7e .LASF1751
     /tmp/ccNzw1my.s:100891  .debug_str:000000000003303f .LASF1752
     /tmp/ccNzw1my.s:97827  .debug_str:00000000000267f3 .LASF1753
     /tmp/ccNzw1my.s:94995  .debug_str:000000000001ad81 .LASF1754
     /tmp/ccNzw1my.s:106633  .debug_str:000000000004a6f8 .LASF1755
     /tmp/ccNzw1my.s:104197  .debug_str:000000000004058d .LASF1756
     /tmp/ccNzw1my.s:99079  .debug_str:000000000002b9b0 .LASF1757
     /tmp/ccNzw1my.s:97425  .debug_str:0000000000024d55 .LASF1758
     /tmp/ccNzw1my.s:95117  .debug_str:000000000001b6c7 .LASF1759
     /tmp/ccNzw1my.s:102765  .debug_str:000000000003a541 .LASF1760
     /tmp/ccNzw1my.s:91299  .debug_str:000000000000c459 .LASF1761
     /tmp/ccNzw1my.s:90445  .debug_str:000000000000894a .LASF1762
     /tmp/ccNzw1my.s:101087  .debug_str:0000000000033dd6 .LASF1763
     /tmp/ccNzw1my.s:91617  .debug_str:000000000000d884 .LASF1764
     /tmp/ccNzw1my.s:104201  .debug_str:0000000000040609 .LASF1765
     /tmp/ccNzw1my.s:107197  .debug_str:000000000004cec7 .LASF1766
     /tmp/ccNzw1my.s:96917  .debug_str:00000000000230fa .LASF1767
     /tmp/ccNzw1my.s:104025  .debug_str:000000000003f968 .LASF1768
     /tmp/ccNzw1my.s:95043  .debug_str:000000000001b150 .LASF1769
     /tmp/ccNzw1my.s:91975  .debug_str:000000000000ecd2 .LASF1770
     /tmp/ccNzw1my.s:98441  .debug_str:00000000000290cf .LASF1771
     /tmp/ccNzw1my.s:88959  .debug_str:000000000000241d .LASF1772
     /tmp/ccNzw1my.s:89811  .debug_str:0000000000005f0e .LASF1773
     /tmp/ccNzw1my.s:89627  .debug_str:0000000000005216 .LASF1774
     /tmp/ccNzw1my.s:100289  .debug_str:0000000000030839 .LASF1775
     /tmp/ccNzw1my.s:97515  .debug_str:000000000002531b .LASF1776
     /tmp/ccNzw1my.s:106905  .debug_str:000000000004bab8 .LASF1777
     /tmp/ccNzw1my.s:100109  .debug_str:000000000002fd28 .LASF1778
     /tmp/ccNzw1my.s:92373  .debug_str:00000000000102f7 .LASF1779
     /tmp/ccNzw1my.s:88521  .debug_str:0000000000000663 .LASF1780
     /tmp/ccNzw1my.s:92521  .debug_str:0000000000010be0 .LASF1781
     /tmp/ccNzw1my.s:96937  .debug_str:0000000000023292 .LASF1782
     /tmp/ccNzw1my.s:107075  .debug_str:000000000004c6bc .LASF1783
     /tmp/ccNzw1my.s:98707  .debug_str:000000000002a191 .LASF1784
     /tmp/ccNzw1my.s:88455  .debug_str:0000000000000143 .LASF1785
     /tmp/ccNzw1my.s:103519  .debug_str:000000000003d6fb .LASF1786
     /tmp/ccNzw1my.s:106583  .debug_str:000000000004a2f2 .LASF1787
     /tmp/ccNzw1my.s:95625  .debug_str:000000000001d8d0 .LASF1788
     /tmp/ccNzw1my.s:100771  .debug_str:0000000000032884 .LASF1789
     /tmp/ccNzw1my.s:106085  .debug_str:000000000004808c .LASF1790
     /tmp/ccNzw1my.s:98971  .debug_str:000000000002b2bc .LASF1791
     /tmp/ccNzw1my.s:90227  .debug_str:0000000000007ada .LASF1792
     /tmp/ccNzw1my.s:95055  .debug_str:000000000001b25f .LASF1793
     /tmp/ccNzw1my.s:102749  .debug_str:000000000003a3e5 .LASF1794
     /tmp/ccNzw1my.s:90149  .debug_str:0000000000007611 .LASF1795
     /tmp/ccNzw1my.s:100457  .debug_str:00000000000314f6 .LASF1796
     /tmp/ccNzw1my.s:104265  .debug_str:0000000000040967 .LASF1797
     /tmp/ccNzw1my.s:91131  .debug_str:000000000000b9a0 .LASF1798
     /tmp/ccNzw1my.s:89733  .debug_str:0000000000005a1a .LASF1799
     /tmp/ccNzw1my.s:103613  .debug_str:000000000003dd1e .LASF1800
     /tmp/ccNzw1my.s:102793  .debug_str:000000000003a741 .LASF1801
     /tmp/ccNzw1my.s:99759  .debug_str:000000000002e649 .LASF1802
     /tmp/ccNzw1my.s:90207  .debug_str:00000000000079bc .LASF1803
     /tmp/ccNzw1my.s:101289  .debug_str:0000000000034b7c .LASF1804
     /tmp/ccNzw1my.s:105021  .debug_str:0000000000043b1d .LASF1805
     /tmp/ccNzw1my.s:89221  .debug_str:0000000000003679 .LASF1806
     /tmp/ccNzw1my.s:102999  .debug_str:000000000003b57e .LASF1807
     /tmp/ccNzw1my.s:102273  .debug_str:0000000000038349 .LASF1808
     /tmp/ccNzw1my.s:100951  .debug_str:000000000003340e .LASF1809
     /tmp/ccNzw1my.s:96231  .debug_str:00000000000203b0 .LASF1810
     /tmp/ccNzw1my.s:101475  .debug_str:00000000000357b9 .LASF1811
     /tmp/ccNzw1my.s:93747  .debug_str:0000000000015a2a .LASF1812
     /tmp/ccNzw1my.s:93821  .debug_str:0000000000015f5f .LASF1813
     /tmp/ccNzw1my.s:104499  .debug_str:0000000000041a0a .LASF1814
     /tmp/ccNzw1my.s:90049  .debug_str:0000000000006f69 .LASF1815
     /tmp/ccNzw1my.s:92963  .debug_str:000000000001298d .LASF1816
     /tmp/ccNzw1my.s:89465  .debug_str:0000000000004724 .LASF1817
     /tmp/ccNzw1my.s:99237  .debug_str:000000000002c331 .LASF1818
     /tmp/ccNzw1my.s:94723  .debug_str:0000000000019ad1 .LASF1819
     /tmp/ccNzw1my.s:104865  .debug_str:0000000000043195 .LASF1820
     /tmp/ccNzw1my.s:101285  .debug_str:0000000000034b54 .LASF1821
     /tmp/ccNzw1my.s:90379  .debug_str:0000000000008520 .LASF1822
     /tmp/ccNzw1my.s:102817  .debug_str:000000000003a8d9 .LASF1823
     /tmp/ccNzw1my.s:92707  .debug_str:0000000000011826 .LASF1824
     /tmp/ccNzw1my.s:104365  .debug_str:000000000004102d .LASF1825
     /tmp/ccNzw1my.s:98755  .debug_str:000000000002a4fb .LASF1826
     /tmp/ccNzw1my.s:95313  .debug_str:000000000001c36d .LASF1827
     /tmp/ccNzw1my.s:95605  .debug_str:000000000001d7a8 .LASF1828
     /tmp/ccNzw1my.s:105525  .debug_str:0000000000045c25 .LASF1829
     /tmp/ccNzw1my.s:98389  .debug_str:0000000000028d3b .LASF1830
     /tmp/ccNzw1my.s:91215  .debug_str:000000000000bee4 .LASF1831
     /tmp/ccNzw1my.s:104477  .debug_str:00000000000418aa .LASF1832
     /tmp/ccNzw1my.s:92059  .debug_str:000000000000f098 .LASF1833
     /tmp/ccNzw1my.s:94759  .debug_str:0000000000019db4 .LASF1834
     /tmp/ccNzw1my.s:95815  .debug_str:000000000001e61f .LASF1835
     /tmp/ccNzw1my.s:96833  .debug_str:0000000000022b82 .LASF1836
     /tmp/ccNzw1my.s:96843  .debug_str:0000000000022c15 .LASF1837
     /tmp/ccNzw1my.s:97889  .debug_str:0000000000026c4f .LASF1838
     /tmp/ccNzw1my.s:99647  .debug_str:000000000002df47 .LASF1839
     /tmp/ccNzw1my.s:91201  .debug_str:000000000000bdf6 .LASF1840
     /tmp/ccNzw1my.s:98233  .debug_str:00000000000282dd .LASF1841
     /tmp/ccNzw1my.s:93425  .debug_str:0000000000014624 .LASF1842
     /tmp/ccNzw1my.s:99295  .debug_str:000000000002c75b .LASF1843
     /tmp/ccNzw1my.s:96985  .debug_str:0000000000023618 .LASF1844
     /tmp/ccNzw1my.s:106681  .debug_str:000000000004a9a8 .LASF1845
     /tmp/ccNzw1my.s:99151  .debug_str:000000000002bdf4 .LASF1846
     /tmp/ccNzw1my.s:105739  .debug_str:0000000000046a2c .LASF1847
     /tmp/ccNzw1my.s:103293  .debug_str:000000000003c87e .LASF1848
     /tmp/ccNzw1my.s:93863  .debug_str:0000000000016264 .LASF1849
     /tmp/ccNzw1my.s:90809  .debug_str:000000000000a22a .LASF1850
     /tmp/ccNzw1my.s:95985  .debug_str:000000000001f27c .LASF1851
     /tmp/ccNzw1my.s:96897  .debug_str:0000000000022f75 .LASF1852
     /tmp/ccNzw1my.s:105205  .debug_str:0000000000044655 .LASF1853
     /tmp/ccNzw1my.s:103127  .debug_str:000000000003bdda .LASF1854
     /tmp/ccNzw1my.s:101297  .debug_str:0000000000034be8 .LASF1855
     /tmp/ccNzw1my.s:90209  .debug_str:00000000000079e8 .LASF1856
     /tmp/ccNzw1my.s:100499  .debug_str:000000000003179d .LASF1857
     /tmp/ccNzw1my.s:96335  .debug_str:0000000000020ae9 .LASF1858
     /tmp/ccNzw1my.s:103537  .debug_str:000000000003d836 .LASF1859
     /tmp/ccNzw1my.s:94667  .debug_str:00000000000196cb .LASF1860
     /tmp/ccNzw1my.s:97475  .debug_str:0000000000025091 .LASF1861
     /tmp/ccNzw1my.s:93207  .debug_str:0000000000013960 .LASF1862
     /tmp/ccNzw1my.s:91307  .debug_str:000000000000c514 .LASF1863
     /tmp/ccNzw1my.s:92439  .debug_str:00000000000106f3 .LASF1864
     /tmp/ccNzw1my.s:106119  .debug_str:0000000000048298 .LASF1865
     /tmp/ccNzw1my.s:91105  .debug_str:000000000000b7cc .LASF1866
     /tmp/ccNzw1my.s:98195  .debug_str:0000000000028139 .LASF1867
     /tmp/ccNzw1my.s:89709  .debug_str:00000000000058a6 .LASF1868
     /tmp/ccNzw1my.s:88699  .debug_str:000000000000121c .LASF1869
     /tmp/ccNzw1my.s:91491  .debug_str:000000000000d18f .LASF1870
     /tmp/ccNzw1my.s:94679  .debug_str:000000000001979c .LASF1871
     /tmp/ccNzw1my.s:106777  .debug_str:000000000004b0ed .LASF1872
     /tmp/ccNzw1my.s:92911  .debug_str:00000000000125fe .LASF1873
     /tmp/ccNzw1my.s:102951  .debug_str:000000000003b1fa .LASF1874
     /tmp/ccNzw1my.s:106881  .debug_str:000000000004b93c .LASF1875
     /tmp/ccNzw1my.s:99229  .debug_str:000000000002c2c7 .LASF1876
     /tmp/ccNzw1my.s:94049  .debug_str:0000000000016ead .LASF1877
     /tmp/ccNzw1my.s:95269  .debug_str:000000000001c0ef .LASF1878
     /tmp/ccNzw1my.s:100115  .debug_str:000000000002fd80 .LASF1879
     /tmp/ccNzw1my.s:104889  .debug_str:0000000000043315 .LASF1880
     /tmp/ccNzw1my.s:107347  .debug_str:000000000004d95a .LASF1881
     /tmp/ccNzw1my.s:98845  .debug_str:000000000002aa51 .LASF1882
     /tmp/ccNzw1my.s:105399  .debug_str:0000000000045330 .LASF1883
     /tmp/ccNzw1my.s:92701  .debug_str:00000000000117c3 .LASF1884
     /tmp/ccNzw1my.s:104671  .debug_str:000000000004251b .LASF1885
     /tmp/ccNzw1my.s:105571  .debug_str:0000000000045efd .LASF1886
     /tmp/ccNzw1my.s:105675  .debug_str:000000000004658b .LASF1887
     /tmp/ccNzw1my.s:99549  .debug_str:000000000002d866 .LASF1888
     /tmp/ccNzw1my.s:101991  .debug_str:0000000000037512 .LASF1889
     /tmp/ccNzw1my.s:91865  .debug_str:000000000000e726 .LASF1890
     /tmp/ccNzw1my.s:91511  .debug_str:000000000000d285 .LASF1891
     /tmp/ccNzw1my.s:101441  .debug_str:0000000000035549 .LASF1892
     /tmp/ccNzw1my.s:96675  .debug_str:00000000000220c6 .LASF1893
     /tmp/ccNzw1my.s:90077  .debug_str:000000000000718d .LASF1894
     /tmp/ccNzw1my.s:101279  .debug_str:0000000000034ac6 .LASF1895
     /tmp/ccNzw1my.s:101501  .debug_str:0000000000035920 .LASF1896
     /tmp/ccNzw1my.s:107127  .debug_str:000000000004c9ec .LASF1897
     /tmp/ccNzw1my.s:91989  .debug_str:000000000000ed26 .LASF1898
     /tmp/ccNzw1my.s:93413  .debug_str:000000000001455b .LASF1899
     /tmp/ccNzw1my.s:90775  .debug_str:0000000000009f48 .LASF1900
     /tmp/ccNzw1my.s:89007  .debug_str:00000000000027e8 .LASF1901
     /tmp/ccNzw1my.s:102919  .debug_str:000000000003afe0 .LASF1902
     /tmp/ccNzw1my.s:99449  .debug_str:000000000002d1d4 .LASF1903
     /tmp/ccNzw1my.s:94033  .debug_str:0000000000016d9a .LASF1904
     /tmp/ccNzw1my.s:89707  .debug_str:0000000000005885 .LASF1905
     /tmp/ccNzw1my.s:104361  .debug_str:0000000000040fe4 .LASF1906
     /tmp/ccNzw1my.s:89911  .debug_str:000000000000653d .LASF1907
     /tmp/ccNzw1my.s:88729  .debug_str:000000000000141b .LASF1908
     /tmp/ccNzw1my.s:106849  .debug_str:000000000004b712 .LASF1909
     /tmp/ccNzw1my.s:98903  .debug_str:000000000002ae11 .LASF1910
     /tmp/ccNzw1my.s:100233  .debug_str:00000000000304e9 .LASF1911
     /tmp/ccNzw1my.s:96939  .debug_str:00000000000232bc .LASF1912
     /tmp/ccNzw1my.s:99213  .debug_str:000000000002c1a2 .LASF1913
     /tmp/ccNzw1my.s:104835  .debug_str:0000000000042fbf .LASF1914
     /tmp/ccNzw1my.s:93661  .debug_str:0000000000015594 .LASF1915
     /tmp/ccNzw1my.s:106999  .debug_str:000000000004c172 .LASF1916
     /tmp/ccNzw1my.s:92789  .debug_str:0000000000011ddc .LASF1917
     /tmp/ccNzw1my.s:93595  .debug_str:0000000000015100 .LASF1918
     /tmp/ccNzw1my.s:105201  .debug_str:000000000004462a .LASF1919
     /tmp/ccNzw1my.s:97517  .debug_str:0000000000025347 .LASF1920
     /tmp/ccNzw1my.s:103731  .debug_str:000000000003e48e .LASF1921
     /tmp/ccNzw1my.s:89219  .debug_str:000000000000364e .LASF1922
     /tmp/ccNzw1my.s:106953  .debug_str:000000000004be5c .LASF1923
     /tmp/ccNzw1my.s:99413  .debug_str:000000000002cf52 .LASF1924
     /tmp/ccNzw1my.s:98603  .debug_str:0000000000029b20 .LASF1925
     /tmp/ccNzw1my.s:99251  .debug_str:000000000002c41b .LASF1926
     /tmp/ccNzw1my.s:107269  .debug_str:000000000004d414 .LASF1927
     /tmp/ccNzw1my.s:92621  .debug_str:0000000000011237 .LASF1928
     /tmp/ccNzw1my.s:106389  .debug_str:00000000000495b7 .LASF1929
     /tmp/ccNzw1my.s:100943  .debug_str:0000000000033398 .LASF1930
     /tmp/ccNzw1my.s:106983  .debug_str:000000000004c06b .LASF1931
     /tmp/ccNzw1my.s:97745  .debug_str:0000000000026226 .LASF1932
     /tmp/ccNzw1my.s:98181  .debug_str:0000000000028065 .LASF1933
     /tmp/ccNzw1my.s:95057  .debug_str:000000000001b285 .LASF1934
     /tmp/ccNzw1my.s:92001  .debug_str:000000000000ed92 .LASF1935
     /tmp/ccNzw1my.s:88437  .debug_str:0000000000000000 .LASF1936
     /tmp/ccNzw1my.s:93007  .debug_str:0000000000012d1d .LASF1937
     /tmp/ccNzw1my.s:98857  .debug_str:000000000002ab2a .LASF1938
     /tmp/ccNzw1my.s:103139  .debug_str:000000000003be6d .LASF1939
     /tmp/ccNzw1my.s:105549  .debug_str:0000000000045dd6 .LASF1940
     /tmp/ccNzw1my.s:93403  .debug_str:0000000000014494 .LASF1941
     /tmp/ccNzw1my.s:94193  .debug_str:000000000001781c .LASF1942
     /tmp/ccNzw1my.s:102783  .debug_str:000000000003a684 .LASF1943
     /tmp/ccNzw1my.s:92115  .debug_str:000000000000f47d .LASF1944
     /tmp/ccNzw1my.s:92289  .debug_str:000000000000fe78 .LASF1945
     /tmp/ccNzw1my.s:98155  .debug_str:0000000000027ee3 .LASF1946
     /tmp/ccNzw1my.s:100087  .debug_str:000000000002fbe3 .LASF1947
     /tmp/ccNzw1my.s:96375  .debug_str:0000000000020df8 .LASF1948
     /tmp/ccNzw1my.s:92961  .debug_str:0000000000012963 .LASF1949
     /tmp/ccNzw1my.s:106705  .debug_str:000000000004aafb .LASF1950
     /tmp/ccNzw1my.s:89675  .debug_str:00000000000055f1 .LASF1951
     /tmp/ccNzw1my.s:91929  .debug_str:000000000000e984 .LASF1952
     /tmp/ccNzw1my.s:99877  .debug_str:000000000002edde .LASF1953
     /tmp/ccNzw1my.s:89673  .debug_str:00000000000055cf .LASF1954
     /tmp/ccNzw1my.s:90917  .debug_str:000000000000a960 .LASF1955
     /tmp/ccNzw1my.s:99911  .debug_str:000000000002f050 .LASF1956
     /tmp/ccNzw1my.s:92391  .debug_str:000000000001036b .LASF1957
     /tmp/ccNzw1my.s:105579  .debug_str:0000000000045f92 .LASF1958
     /tmp/ccNzw1my.s:103817  .debug_str:000000000003ea56 .LASF1959
     /tmp/ccNzw1my.s:106931  .debug_str:000000000004bc9c .LASF1960
     /tmp/ccNzw1my.s:89095  .debug_str:0000000000002e12 .LASF1961
     /tmp/ccNzw1my.s:98139  .debug_str:0000000000027d8d .LASF1962
     /tmp/ccNzw1my.s:88817  .debug_str:0000000000001a37 .LASF1963
     /tmp/ccNzw1my.s:99219  .debug_str:000000000002c20f .LASF1964
     /tmp/ccNzw1my.s:94915  .debug_str:000000000001a84c .LASF1965
     /tmp/ccNzw1my.s:92815  .debug_str:0000000000011fa5 .LASF1966
     /tmp/ccNzw1my.s:96349  .debug_str:0000000000020be0 .LASF1967
     /tmp/ccNzw1my.s:102969  .debug_str:000000000003b371 .LASF1968
     /tmp/ccNzw1my.s:97017  .debug_str:00000000000237f3 .LASF1969
     /tmp/ccNzw1my.s:94307  .debug_str:0000000000017ede .LASF1970
     /tmp/ccNzw1my.s:88919  .debug_str:0000000000002193 .LASF1971
     /tmp/ccNzw1my.s:105795  .debug_str:0000000000046df8 .LASF1972
     /tmp/ccNzw1my.s:89645  .debug_str:000000000000536c .LASF1973
     /tmp/ccNzw1my.s:92087  .debug_str:000000000000f258 .LASF1974
     /tmp/ccNzw1my.s:91803  .debug_str:000000000000e3b1 .LASF1975
     /tmp/ccNzw1my.s:96989  .debug_str:0000000000023654 .LASF1976
     /tmp/ccNzw1my.s:102559  .debug_str:000000000003969b .LASF1977
     /tmp/ccNzw1my.s:89501  .debug_str:00000000000049e2 .LASF1978
     /tmp/ccNzw1my.s:94059  .debug_str:0000000000016f58 .LASF1979
     /tmp/ccNzw1my.s:100239  .debug_str:0000000000030545 .LASF1980
     /tmp/ccNzw1my.s:104443  .debug_str:0000000000041656 .LASF1981
     /tmp/ccNzw1my.s:91293  .debug_str:000000000000c3f2 .LASF1982
     /tmp/ccNzw1my.s:95831  .debug_str:000000000001e72b .LASF1983
     /tmp/ccNzw1my.s:101517  .debug_str:00000000000359ca .LASF1984
     /tmp/ccNzw1my.s:98595  .debug_str:0000000000029a6d .LASF1985
     /tmp/ccNzw1my.s:89787  .debug_str:0000000000005d5c .LASF1986
     /tmp/ccNzw1my.s:106813  .debug_str:000000000004b433 .LASF1987
     /tmp/ccNzw1my.s:102271  .debug_str:0000000000038327 .LASF1988
     /tmp/ccNzw1my.s:91047  .debug_str:000000000000b337 .LASF1989
     /tmp/ccNzw1my.s:91007  .debug_str:000000000000b00d .LASF1990
     /tmp/ccNzw1my.s:102299  .debug_str:000000000003857c .LASF1991
     /tmp/ccNzw1my.s:99369  .debug_str:000000000002cc68 .LASF1992
     /tmp/ccNzw1my.s:100785  .debug_str:0000000000032995 .LASF1993
     /tmp/ccNzw1my.s:98037  .debug_str:0000000000027647 .LASF1994
     /tmp/ccNzw1my.s:105669  .debug_str:0000000000046547 .LASF1995
     /tmp/ccNzw1my.s:103953  .debug_str:000000000003f4ae .LASF1996
     /tmp/ccNzw1my.s:100651  .debug_str:00000000000320dd .LASF1997
     /tmp/ccNzw1my.s:94301  .debug_str:0000000000017e9f .LASF1998
     /tmp/ccNzw1my.s:89407  .debug_str:00000000000043d0 .LASF1999
     /tmp/ccNzw1my.s:93281  .debug_str:0000000000013de6 .LASF2000
     /tmp/ccNzw1my.s:105357  .debug_str:00000000000450b9 .LASF2001
     /tmp/ccNzw1my.s:91767  .debug_str:000000000000e22a .LASF2002
     /tmp/ccNzw1my.s:104911  .debug_str:0000000000043450 .LASF2003
     /tmp/ccNzw1my.s:92985  .debug_str:0000000000012bcc .LASF2004
     /tmp/ccNzw1my.s:99997  .debug_str:000000000002f66e .LASF2005
     /tmp/ccNzw1my.s:99579  .debug_str:000000000002d9ca .LASF2006
     /tmp/ccNzw1my.s:93877  .debug_str:000000000001631a .LASF2007
     /tmp/ccNzw1my.s:99791  .debug_str:000000000002e88c .LASF2008
     /tmp/ccNzw1my.s:106737  .debug_str:000000000004ad8c .LASF2009
     /tmp/ccNzw1my.s:96931  .debug_str:000000000002321e .LASF2010
     /tmp/ccNzw1my.s:100721  .debug_str:0000000000032562 .LASF2011
     /tmp/ccNzw1my.s:96253  .debug_str:0000000000020516 .LASF2012
     /tmp/ccNzw1my.s:94597  .debug_str:000000000001924a .LASF2013
     /tmp/ccNzw1my.s:94777  .debug_str:0000000000019f67 .LASF2014
     /tmp/ccNzw1my.s:98549  .debug_str:0000000000029734 .LASF2015
     /tmp/ccNzw1my.s:100675  .debug_str:000000000003227e .LASF2016
     /tmp/ccNzw1my.s:90983  .debug_str:000000000000ae18 .LASF2017
     /tmp/ccNzw1my.s:103207  .debug_str:000000000003c2d8 .LASF2018
     /tmp/ccNzw1my.s:105589  .debug_str:0000000000046025 .LASF2019
     /tmp/ccNzw1my.s:91639  .debug_str:000000000000d9a8 .LASF2020
     /tmp/ccNzw1my.s:100261  .debug_str:0000000000030672 .LASF2021
     /tmp/ccNzw1my.s:102153  .debug_str:0000000000037d65 .LASF2022
     /tmp/ccNzw1my.s:91537  .debug_str:000000000000d446 .LASF2023
     /tmp/ccNzw1my.s:93509  .debug_str:0000000000014b9a .LASF2024
     /tmp/ccNzw1my.s:102043  .debug_str:000000000003774a .LASF2025
     /tmp/ccNzw1my.s:105853  .debug_str:0000000000047249 .LASF2026
     /tmp/ccNzw1my.s:93931  .debug_str:0000000000016631 .LASF2027
     /tmp/ccNzw1my.s:90543  .debug_str:0000000000009098 .LASF2028
     /tmp/ccNzw1my.s:97979  .debug_str:00000000000271f9 .LASF2029
     /tmp/ccNzw1my.s:100367  .debug_str:0000000000030ea4 .LASF2030
     /tmp/ccNzw1my.s:88487  .debug_str:00000000000003bf .LASF2031
     /tmp/ccNzw1my.s:100145  .debug_str:000000000002ff2c .LASF2032
     /tmp/ccNzw1my.s:98161  .debug_str:0000000000027f33 .LASF2033
     /tmp/ccNzw1my.s:96483  .debug_str:00000000000214d5 .LASF2034
     /tmp/ccNzw1my.s:89203  .debug_str:0000000000003549 .LASF2035
     /tmp/ccNzw1my.s:102501  .debug_str:00000000000392c9 .LASF2036
     /tmp/ccNzw1my.s:90037  .debug_str:0000000000006e8b .LASF2037
     /tmp/ccNzw1my.s:105285  .debug_str:0000000000044c6f .LASF2038
     /tmp/ccNzw1my.s:100473  .debug_str:00000000000315e1 .LASF2039
     /tmp/ccNzw1my.s:96687  .debug_str:000000000002217d .LASF2040
     /tmp/ccNzw1my.s:98375  .debug_str:0000000000028c4d .LASF2041
     /tmp/ccNzw1my.s:91585  .debug_str:000000000000d74b .LASF2042
     /tmp/ccNzw1my.s:89719  .debug_str:0000000000005963 .LASF2043
     /tmp/ccNzw1my.s:102645  .debug_str:0000000000039c4c .LASF2044
     /tmp/ccNzw1my.s:99977  .debug_str:000000000002f530 .LASF2045
     /tmp/ccNzw1my.s:94905  .debug_str:000000000001a7a8 .LASF2046
     /tmp/ccNzw1my.s:90497  .debug_str:0000000000008d4d .LASF2047
     /tmp/ccNzw1my.s:104383  .debug_str:00000000000411cf .LASF2048
     /tmp/ccNzw1my.s:98753  .debug_str:000000000002a4e4 .LASF2049
     /tmp/ccNzw1my.s:92209  .debug_str:000000000000fa3b .LASF2050
     /tmp/ccNzw1my.s:92189  .debug_str:000000000000f900 .LASF2051
     /tmp/ccNzw1my.s:102679  .debug_str:0000000000039ea1 .LASF2052
     /tmp/ccNzw1my.s:102659  .debug_str:0000000000039d21 .LASF2053
     /tmp/ccNzw1my.s:94201  .debug_str:00000000000178bb .LASF2054
     /tmp/ccNzw1my.s:93999  .debug_str:0000000000016b10 .LASF2055
     /tmp/ccNzw1my.s:104585  .debug_str:0000000000041f38 .LASF2056
     /tmp/ccNzw1my.s:104917  .debug_str:00000000000434c1 .LASF2057
     /tmp/ccNzw1my.s:95399  .debug_str:000000000001c939 .LASF2058
     /tmp/ccNzw1my.s:98259  .debug_str:0000000000028516 .LASF2059
     /tmp/ccNzw1my.s:90649  .debug_str:00000000000097f6 .LASF2060
     /tmp/ccNzw1my.s:88759  .debug_str:00000000000015ef .LASF2061
     /tmp/ccNzw1my.s:101193  .debug_str:0000000000034527 .LASF2062
     /tmp/ccNzw1my.s:91573  .debug_str:000000000000d681 .LASF2063
     /tmp/ccNzw1my.s:96551  .debug_str:00000000000218f1 .LASF2064
     /tmp/ccNzw1my.s:101721  .debug_str:0000000000036670 .LASF2065
     /tmp/ccNzw1my.s:94845  .debug_str:000000000001a3ec .LASF2066
     /tmp/ccNzw1my.s:95005  .debug_str:000000000001ae61 .LASF2067
     /tmp/ccNzw1my.s:98935  .debug_str:000000000002b006 .LASF2068
     /tmp/ccNzw1my.s:105361  .debug_str:00000000000450ea .LASF2069
     /tmp/ccNzw1my.s:90643  .debug_str:0000000000009791 .LASF2070
     /tmp/ccNzw1my.s:96771  .debug_str:000000000002277a .LASF2071
     /tmp/ccNzw1my.s:101121  .debug_str:0000000000033fcc .LASF2072
     /tmp/ccNzw1my.s:107145  .debug_str:000000000004cb0b .LASF2073
     /tmp/ccNzw1my.s:107209  .debug_str:000000000004cfc2 .LASF2074
     /tmp/ccNzw1my.s:101325  .debug_str:0000000000034e03 .LASF2075
     /tmp/ccNzw1my.s:91889  .debug_str:000000000000e7d2 .LASF2076
     /tmp/ccNzw1my.s:96671  .debug_str:00000000000220a3 .LASF2077
     /tmp/ccNzw1my.s:104007  .debug_str:000000000003f887 .LASF2078
     /tmp/ccNzw1my.s:102595  .debug_str:000000000003996e .LASF2079
     /tmp/ccNzw1my.s:94555  .debug_str:0000000000018f34 .LASF2080
     /tmp/ccNzw1my.s:100291  .debug_str:000000000003086b .LASF2081
     /tmp/ccNzw1my.s:104577  .debug_str:0000000000041ec5 .LASF2082
     /tmp/ccNzw1my.s:99841  .debug_str:000000000002ebc8 .LASF2083
     /tmp/ccNzw1my.s:97567  .debug_str:0000000000025712 .LASF2084
     /tmp/ccNzw1my.s:106237  .debug_str:0000000000048b60 .LASF2085
     /tmp/ccNzw1my.s:88975  .debug_str:000000000000255d .LASF2086
     /tmp/ccNzw1my.s:97679  .debug_str:0000000000025e87 .LASF2087
     /tmp/ccNzw1my.s:94699  .debug_str:000000000001994c .LASF2088
     /tmp/ccNzw1my.s:89073  .debug_str:0000000000002c91 .LASF2089
     /tmp/ccNzw1my.s:90847  .debug_str:000000000000a4b5 .LASF2090
     /tmp/ccNzw1my.s:100097  .debug_str:000000000002fc88 .LASF2091
     /tmp/ccNzw1my.s:107215  .debug_str:000000000004d03e .LASF2092
     /tmp/ccNzw1my.s:105933  .debug_str:0000000000047732 .LASF2093
     /tmp/ccNzw1my.s:98071  .debug_str:00000000000278a7 .LASF2094
     /tmp/ccNzw1my.s:100369  .debug_str:0000000000030ebf .LASF2095
     /tmp/ccNzw1my.s:97771  .debug_str:00000000000263b5 .LASF2096
     /tmp/ccNzw1my.s:91815  .debug_str:000000000000e484 .LASF2097
     /tmp/ccNzw1my.s:93091  .debug_str:000000000001322e .LASF2098
     /tmp/ccNzw1my.s:100917  .debug_str:0000000000033273 .LASF2099
     /tmp/ccNzw1my.s:106123  .debug_str:00000000000482d8 .LASF2100
     /tmp/ccNzw1my.s:92941  .debug_str:00000000000127ed .LASF2101
     /tmp/ccNzw1my.s:95391  .debug_str:000000000001c8d3 .LASF2102
     /tmp/ccNzw1my.s:104059  .debug_str:000000000003fb85 .LASF2103
     /tmp/ccNzw1my.s:98411  .debug_str:0000000000028ea7 .LASF2104
     /tmp/ccNzw1my.s:98827  .debug_str:000000000002a913 .LASF2105
     /tmp/ccNzw1my.s:88813  .debug_str:00000000000019fa .LASF2106
     /tmp/ccNzw1my.s:96097  .debug_str:000000000001fb00 .LASF2107
     /tmp/ccNzw1my.s:92211  .debug_str:000000000000fa56 .LASF2108
     /tmp/ccNzw1my.s:93695  .debug_str:00000000000156f2 .LASF2109
     /tmp/ccNzw1my.s:101679  .debug_str:0000000000036488 .LASF2110
     /tmp/ccNzw1my.s:93909  .debug_str:00000000000164fc .LASF2111
     /tmp/ccNzw1my.s:100777  .debug_str:0000000000032922 .LASF2112
     /tmp/ccNzw1my.s:100449  .debug_str:000000000003146e .LASF2113
     /tmp/ccNzw1my.s:100955  .debug_str:0000000000033460 .LASF2114
     /tmp/ccNzw1my.s:106533  .debug_str:0000000000049f63 .LASF2115
     /tmp/ccNzw1my.s:92037  .debug_str:000000000000efed .LASF2116
     /tmp/ccNzw1my.s:97995  .debug_str:0000000000027308 .LASF2117
     /tmp/ccNzw1my.s:102297  .debug_str:0000000000038555 .LASF2118
     /tmp/ccNzw1my.s:89881  .debug_str:0000000000006377 .LASF2119
     /tmp/ccNzw1my.s:105803  .debug_str:0000000000046eb6 .LASF2120
     /tmp/ccNzw1my.s:94165  .debug_str:0000000000017623 .LASF2121
     /tmp/ccNzw1my.s:103405  .debug_str:000000000003cf6c .LASF2122
     /tmp/ccNzw1my.s:91801  .debug_str:000000000000e380 .LASF2123
     /tmp/ccNzw1my.s:103303  .debug_str:000000000003c928 .LASF2124
     /tmp/ccNzw1my.s:91349  .debug_str:000000000000c811 .LASF2125
     /tmp/ccNzw1my.s:106045  .debug_str:0000000000047dff .LASF2126
     /tmp/ccNzw1my.s:96199  .debug_str:0000000000020128 .LASF2127
     /tmp/ccNzw1my.s:103577  .debug_str:000000000003dace .LASF2128
     /tmp/ccNzw1my.s:106675  .debug_str:000000000004a956 .LASF2129
     /tmp/ccNzw1my.s:94767  .debug_str:0000000000019e5f .LASF2130
     /tmp/ccNzw1my.s:98119  .debug_str:0000000000027bd3 .LASF2131
     /tmp/ccNzw1my.s:101457  .debug_str:0000000000035637 .LASF2132
     /tmp/ccNzw1my.s:106871  .debug_str:000000000004b89e .LASF2133
     /tmp/ccNzw1my.s:96293  .debug_str:0000000000020817 .LASF2134
     /tmp/ccNzw1my.s:101897  .debug_str:000000000003708b .LASF2135
     /tmp/ccNzw1my.s:106357  .debug_str:00000000000493a7 .LASF2136
     /tmp/ccNzw1my.s:93427  .debug_str:000000000001464b .LASF2137
     /tmp/ccNzw1my.s:97559  .debug_str:000000000002563c .LASF2138
     /tmp/ccNzw1my.s:103785  .debug_str:000000000003e7e7 .LASF2139
     /tmp/ccNzw1my.s:88735  .debug_str:000000000000148f .LASF2140
     /tmp/ccNzw1my.s:102809  .debug_str:000000000003a85a .LASF2141
     /tmp/ccNzw1my.s:97095  .debug_str:0000000000023ccf .LASF2142
     /tmp/ccNzw1my.s:90025  .debug_str:0000000000006de7 .LASF2143
     /tmp/ccNzw1my.s:105023  .debug_str:0000000000043b49 .LASF2144
     /tmp/ccNzw1my.s:91387  .debug_str:000000000000ca5c .LASF2145
     /tmp/ccNzw1my.s:97961  .debug_str:00000000000270bd .LASF2146
     /tmp/ccNzw1my.s:99627  .debug_str:000000000002dda4 .LASF2147
     /tmp/ccNzw1my.s:106509  .debug_str:0000000000049dd8 .LASF2148
     /tmp/ccNzw1my.s:105799  .debug_str:0000000000046e46 .LASF2149
     /tmp/ccNzw1my.s:106787  .debug_str:000000000004b1ba .LASF2150
     /tmp/ccNzw1my.s:97059  .debug_str:00000000000239b9 .LASF2151
     /tmp/ccNzw1my.s:99265  .debug_str:000000000002c567 .LASF2152
     /tmp/ccNzw1my.s:95039  .debug_str:000000000001b0fd .LASF2153
     /tmp/ccNzw1my.s:103689  .debug_str:000000000003e1bb .LASF2154
     /tmp/ccNzw1my.s:103559  .debug_str:000000000003d957 .LASF2155
     /tmp/ccNzw1my.s:94313  .debug_str:0000000000017f4b .LASF2156
     /tmp/ccNzw1my.s:102557  .debug_str:000000000003965f .LASF2157
     /tmp/ccNzw1my.s:88773  .debug_str:00000000000016d9 .LASF2158
     /tmp/ccNzw1my.s:97649  .debug_str:0000000000025c8e .LASF2159
     /tmp/ccNzw1my.s:98031  .debug_str:00000000000275be .LASF2160
     /tmp/ccNzw1my.s:92979  .debug_str:0000000000012b25 .LASF2161
     /tmp/ccNzw1my.s:107253  .debug_str:000000000004d309 .LASF2162
     /tmp/ccNzw1my.s:94745  .debug_str:0000000000019c7f .LASF2163
     /tmp/ccNzw1my.s:106487  .debug_str:0000000000049c3e .LASF2164
     /tmp/ccNzw1my.s:99135  .debug_str:000000000002bcee .LASF2165
     /tmp/ccNzw1my.s:96807  .debug_str:00000000000229d8 .LASF2166
     /tmp/ccNzw1my.s:104181  .debug_str:0000000000040427 .LASF2167
     /tmp/ccNzw1my.s:106017  .debug_str:0000000000047c36 .LASF2168
     /tmp/ccNzw1my.s:99451  .debug_str:000000000002d1f6 .LASF2169
     /tmp/ccNzw1my.s:96385  .debug_str:0000000000020eca .LASF2170
     /tmp/ccNzw1my.s:105477  .debug_str:00000000000458fa .LASF2171
     /tmp/ccNzw1my.s:96203  .debug_str:0000000000020179 .LASF2172
     /tmp/ccNzw1my.s:97623  .debug_str:0000000000025abc .LASF2173
     /tmp/ccNzw1my.s:90777  .debug_str:0000000000009f67 .LASF2174
     /tmp/ccNzw1my.s:103779  .debug_str:000000000003e767 .LASF2175
     /tmp/ccNzw1my.s:92959  .debug_str:000000000001291e .LASF2176
     /tmp/ccNzw1my.s:90009  .debug_str:0000000000006ca3 .LASF2177
     /tmp/ccNzw1my.s:107205  .debug_str:000000000004cf40 .LASF2178
     /tmp/ccNzw1my.s:104569  .debug_str:0000000000041e2b .LASF2179
     /tmp/ccNzw1my.s:106909  .debug_str:000000000004bb07 .LASF2180
     /tmp/ccNzw1my.s:101759  .debug_str:000000000003692d .LASF2181
     /tmp/ccNzw1my.s:89487  .debug_str:00000000000048f1 .LASF2182
     /tmp/ccNzw1my.s:100485  .debug_str:00000000000316b7 .LASF2183
     /tmp/ccNzw1my.s:101709  .debug_str:000000000003658f .LASF2184
     /tmp/ccNzw1my.s:92729  .debug_str:00000000000119c7 .LASF2185
     /tmp/ccNzw1my.s:90963  .debug_str:000000000000acc5 .LASF2186
     /tmp/ccNzw1my.s:105243  .debug_str:000000000004494c .LASF2187
     /tmp/ccNzw1my.s:92537  .debug_str:0000000000010d19 .LASF2188
     /tmp/ccNzw1my.s:90203  .debug_str:000000000000795e .LASF2189
     /tmp/ccNzw1my.s:103111  .debug_str:000000000003bc7c .LASF2190
     /tmp/ccNzw1my.s:100413  .debug_str:00000000000311ab .LASF2191
     /tmp/ccNzw1my.s:94499  .debug_str:0000000000018b76 .LASF2192
     /tmp/ccNzw1my.s:91469  .debug_str:000000000000cff9 .LASF2193
     /tmp/ccNzw1my.s:96701  .debug_str:0000000000022263 .LASF2194
     /tmp/ccNzw1my.s:106555  .debug_str:000000000004a0f1 .LASF2195
     /tmp/ccNzw1my.s:92097  .debug_str:000000000000f307 .LASF2196
     /tmp/ccNzw1my.s:97773  .debug_str:00000000000263d1 .LASF2197
     /tmp/ccNzw1my.s:89659  .debug_str:000000000000546d .LASF2198
     /tmp/ccNzw1my.s:88911  .debug_str:00000000000020d8 .LASF2199
     /tmp/ccNzw1my.s:90015  .debug_str:0000000000006d13 .LASF2200
     /tmp/ccNzw1my.s:99107  .debug_str:000000000002bb42 .LASF2201
     /tmp/ccNzw1my.s:89003  .debug_str:0000000000002795 .LASF2202
     /tmp/ccNzw1my.s:107009  .debug_str:000000000004c232 .LASF2203
     /tmp/ccNzw1my.s:89691  .debug_str:0000000000005726 .LASF2204
     /tmp/ccNzw1my.s:89435  .debug_str:0000000000004534 .LASF2205
     /tmp/ccNzw1my.s:96603  .debug_str:0000000000021c7d .LASF2206
     /tmp/ccNzw1my.s:88893  .debug_str:0000000000001f66 .LASF2207
     /tmp/ccNzw1my.s:105471  .debug_str:0000000000045874 .LASF2208
     /tmp/ccNzw1my.s:95869  .debug_str:000000000001e9f6 .LASF2209
     /tmp/ccNzw1my.s:92783  .debug_str:0000000000011d7d .LASF2210
     /tmp/ccNzw1my.s:95975  .debug_str:000000000001f191 .LASF2211
     /tmp/ccNzw1my.s:103109  .debug_str:000000000003bc43 .LASF2212
     /tmp/ccNzw1my.s:102833  .debug_str:000000000003aa1b .LASF2213
     /tmp/ccNzw1my.s:104573  .debug_str:0000000000041e6e .LASF2214
     /tmp/ccNzw1my.s:104587  .debug_str:0000000000041f53 .LASF2215
     /tmp/ccNzw1my.s:97833  .debug_str:0000000000026847 .LASF2216
     /tmp/ccNzw1my.s:98925  .debug_str:000000000002af37 .LASF2217
     /tmp/ccNzw1my.s:88649  .debug_str:0000000000000ea3 .LASF2218
     /tmp/ccNzw1my.s:98747  .debug_str:000000000002a44d .LASF2219
     /tmp/ccNzw1my.s:102819  .debug_str:000000000003a903 .LASF2220
     /tmp/ccNzw1my.s:88979  .debug_str:0000000000002585 .LASF2221
     /tmp/ccNzw1my.s:98131  .debug_str:0000000000027cf2 .LASF2222
     /tmp/ccNzw1my.s:98443  .debug_str:0000000000029101 .LASF2223
     /tmp/ccNzw1my.s:100801  .debug_str:0000000000032a8e .LASF2224
     /tmp/ccNzw1my.s:103977  .debug_str:000000000003f678 .LASF2225
     /tmp/ccNzw1my.s:96115  .debug_str:000000000001fc48 .LASF2226
     /tmp/ccNzw1my.s:100435  .debug_str:0000000000031335 .LASF2227
     /tmp/ccNzw1my.s:91173  .debug_str:000000000000bc27 .LASF2228
     /tmp/ccNzw1my.s:90595  .debug_str:00000000000093ae .LASF2229
     /tmp/ccNzw1my.s:105555  .debug_str:0000000000045e0e .LASF2230
     /tmp/ccNzw1my.s:99979  .debug_str:000000000002f54c .LASF2231
     /tmp/ccNzw1my.s:92509  .debug_str:0000000000010b18 .LASF2232
     /tmp/ccNzw1my.s:99811  .debug_str:000000000002e9ca .LASF2233
     /tmp/ccNzw1my.s:90019  .debug_str:0000000000006d5d .LASF2234
     /tmp/ccNzw1my.s:101649  .debug_str:00000000000361cb .LASF2235
     /tmp/ccNzw1my.s:106963  .debug_str:000000000004bf21 .LASF2236
     /tmp/ccNzw1my.s:95637  .debug_str:000000000001d9e7 .LASF2237
     /tmp/ccNzw1my.s:96489  .debug_str:000000000002154d .LASF2238
     /tmp/ccNzw1my.s:102385  .debug_str:0000000000038adb .LASF2239
     /tmp/ccNzw1my.s:98495  .debug_str:00000000000293ef .LASF2240
     /tmp/ccNzw1my.s:106993  .debug_str:000000000004c0f6 .LASF2241
     /tmp/ccNzw1my.s:90991  .debug_str:000000000000aedc .LASF2242
     /tmp/ccNzw1my.s:97191  .debug_str:0000000000024201 .LASF2243
     /tmp/ccNzw1my.s:104039  .debug_str:000000000003fa7f .LASF2244
     /tmp/ccNzw1my.s:100021  .debug_str:000000000002f7d6 .LASF2245
     /tmp/ccNzw1my.s:102933  .debug_str:000000000003b0ef .LASF2246
     /tmp/ccNzw1my.s:106811  .debug_str:000000000004b3eb .LASF2247
     /tmp/ccNzw1my.s:104399  .debug_str:000000000004126e .LASF2248
     /tmp/ccNzw1my.s:88965  .debug_str:000000000000248f .LASF2249
     /tmp/ccNzw1my.s:95687  .debug_str:000000000001dd40 .LASF2250
     /tmp/ccNzw1my.s:104417  .debug_str:00000000000413cb .LASF2251
     /tmp/ccNzw1my.s:105819  .debug_str:0000000000046fff .LASF2252
     /tmp/ccNzw1my.s:90827  .debug_str:000000000000a35d .LASF2253
     /tmp/ccNzw1my.s:96969  .debug_str:00000000000234f1 .LASF2254
     /tmp/ccNzw1my.s:101971  .debug_str:00000000000373d4 .LASF2255
     /tmp/ccNzw1my.s:100195  .debug_str:00000000000302a9 .LASF2256
     /tmp/ccNzw1my.s:93321  .debug_str:0000000000014041 .LASF2257
     /tmp/ccNzw1my.s:88945  .debug_str:0000000000002338 .LASF2258
     /tmp/ccNzw1my.s:96379  .debug_str:0000000000020e66 .LASF2259
     /tmp/ccNzw1my.s:99145  .debug_str:000000000002bd69 .LASF2260
     /tmp/ccNzw1my.s:95267  .debug_str:000000000001c0b7 .LASF2261
     /tmp/ccNzw1my.s:90187  .debug_str:0000000000007803 .LASF2262
     /tmp/ccNzw1my.s:95549  .debug_str:000000000001d385 .LASF2263
     /tmp/ccNzw1my.s:95065  .debug_str:000000000001b318 .LASF2264
     /tmp/ccNzw1my.s:88483  .debug_str:0000000000000344 .LASF2265
     /tmp/ccNzw1my.s:93051  .debug_str:0000000000012f8f .LASF2266
     /tmp/ccNzw1my.s:101749  .debug_str:000000000003686e .LASF2267
     /tmp/ccNzw1my.s:98889  .debug_str:000000000002ad22 .LASF2268
     /tmp/ccNzw1my.s:92399  .debug_str:00000000000103fb .LASF2269
     /tmp/ccNzw1my.s:103969  .debug_str:000000000003f5d9 .LASF2270
     /tmp/ccNzw1my.s:98581  .debug_str:00000000000298f9 .LASF2271
     /tmp/ccNzw1my.s:104081  .debug_str:000000000003fcf9 .LASF2272
     /tmp/ccNzw1my.s:90243  .debug_str:0000000000007ba7 .LASF2273
     /tmp/ccNzw1my.s:106171  .debug_str:0000000000048619 .LASF2274
     /tmp/ccNzw1my.s:103829  .debug_str:000000000003eb52 .LASF2275
     /tmp/ccNzw1my.s:105303  .debug_str:0000000000044d2b .LASF2276
     /tmp/ccNzw1my.s:92887  .debug_str:0000000000012446 .LASF2277
     /tmp/ccNzw1my.s:103419  .debug_str:000000000003d019 .LASF2278
     /tmp/ccNzw1my.s:93771  .debug_str:0000000000015c25 .LASF2279
     /tmp/ccNzw1my.s:103775  .debug_str:000000000003e715 .LASF2280
     /tmp/ccNzw1my.s:88931  .debug_str:0000000000002254 .LASF2281
     /tmp/ccNzw1my.s:96305  .debug_str:00000000000208d3 .LASF2282
     /tmp/ccNzw1my.s:103239  .debug_str:000000000003c50e .LASF2283
     /tmp/ccNzw1my.s:89335  .debug_str:0000000000003dfa .LASF2284
     /tmp/ccNzw1my.s:106745  .debug_str:000000000004ae08 .LASF2285
     /tmp/ccNzw1my.s:94581  .debug_str:0000000000019109 .LASF2286
     /tmp/ccNzw1my.s:102159  .debug_str:0000000000037dd9 .LASF2287
     /tmp/ccNzw1my.s:103811  .debug_str:000000000003e9c4 .LASF2288
     /tmp/ccNzw1my.s:97441  .debug_str:0000000000024e89 .LASF2289
     /tmp/ccNzw1my.s:94283  .debug_str:0000000000017e0e .LASF2290
     /tmp/ccNzw1my.s:92599  .debug_str:0000000000011044 .LASF2291
     /tmp/ccNzw1my.s:103531  .debug_str:000000000003d7a8 .LASF2292
     /tmp/ccNzw1my.s:99501  .debug_str:000000000002d4f6 .LASF2293
     /tmp/ccNzw1my.s:103345  .debug_str:000000000003cc6c .LASF2294
     /tmp/ccNzw1my.s:97815  .debug_str:000000000002671b .LASF2295
     /tmp/ccNzw1my.s:93613  .debug_str:0000000000015210 .LASF2296
     /tmp/ccNzw1my.s:93971  .debug_str:00000000000168d1 .LASF2297
     /tmp/ccNzw1my.s:99843  .debug_str:000000000002ebdf .LASF2298
     /tmp/ccNzw1my.s:96755  .debug_str:000000000002262b .LASF2299
     /tmp/ccNzw1my.s:107135  .debug_str:000000000004ca5b .LASF2300
     /tmp/ccNzw1my.s:92271  .debug_str:000000000000fd7a .LASF2301
     /tmp/ccNzw1my.s:102133  .debug_str:0000000000037bdf .LASF2302
     /tmp/ccNzw1my.s:99283  .debug_str:000000000002c672 .LASF2303
     /tmp/ccNzw1my.s:89019  .debug_str:00000000000028f4 .LASF2304
     /tmp/ccNzw1my.s:88685  .debug_str:0000000000001142 .LASF2305
     /tmp/ccNzw1my.s:94769  .debug_str:0000000000019ea2 .LASF2306
     /tmp/ccNzw1my.s:99909  .debug_str:000000000002f010 .LASF2307
     /tmp/ccNzw1my.s:92635  .debug_str:0000000000011312 .LASF2308
     /tmp/ccNzw1my.s:103569  .debug_str:000000000003da43 .LASF2309
     /tmp/ccNzw1my.s:104321  .debug_str:0000000000040cd2 .LASF2310
     /tmp/ccNzw1my.s:100303  .debug_str:000000000003091a .LASF2311
     /tmp/ccNzw1my.s:94895  .debug_str:000000000001a6e1 .LASF2312
     /tmp/ccNzw1my.s:90219  .debug_str:0000000000007a4f .LASF2313
     /tmp/ccNzw1my.s:106359  .debug_str:00000000000493e7 .LASF2314
     /tmp/ccNzw1my.s:102539  .debug_str:0000000000039557 .LASF2315
     /tmp/ccNzw1my.s:107109  .debug_str:000000000004c8d2 .LASF2316
     /tmp/ccNzw1my.s:89149  .debug_str:0000000000003204 .LASF2317
     /tmp/ccNzw1my.s:98591  .debug_str:0000000000029a00 .LASF2318
     /tmp/ccNzw1my.s:97163  .debug_str:0000000000024019 .LASF2319
     /tmp/ccNzw1my.s:89403  .debug_str:0000000000004378 .LASF2320
     /tmp/ccNzw1my.s:90367  .debug_str:000000000000842c .LASF2321
     /tmp/ccNzw1my.s:100339  .debug_str:0000000000030c0b .LASF2322
     /tmp/ccNzw1my.s:100597  .debug_str:0000000000031ddb .LASF2323
     /tmp/ccNzw1my.s:99341  .debug_str:000000000002ca35 .LASF2324
     /tmp/ccNzw1my.s:94329  .debug_str:0000000000018052 .LASF2325
     /tmp/ccNzw1my.s:89119  .debug_str:0000000000003072 .LASF2326
     /tmp/ccNzw1my.s:101117  .debug_str:0000000000033f6a .LASF2327
     /tmp/ccNzw1my.s:106823  .debug_str:000000000004b4df .LASF2328
     /tmp/ccNzw1my.s:106063  .debug_str:0000000000047f0d .LASF2329
     /tmp/ccNzw1my.s:106175  .debug_str:000000000004866c .LASF2330
     /tmp/ccNzw1my.s:93141  .debug_str:0000000000013535 .LASF2331
     /tmp/ccNzw1my.s:104439  .debug_str:00000000000415d9 .LASF2332
     /tmp/ccNzw1my.s:93249  .debug_str:0000000000013c03 .LASF2333
     /tmp/ccNzw1my.s:96351  .debug_str:0000000000020c00 .LASF2334
     /tmp/ccNzw1my.s:90323  .debug_str:000000000000815f .LASF2335
     /tmp/ccNzw1my.s:90471  .debug_str:0000000000008b7b .LASF2336
     /tmp/ccNzw1my.s:106139  .debug_str:000000000004841e .LASF2337
     /tmp/ccNzw1my.s:92245  .debug_str:000000000000fb7c .LASF2338
     /tmp/ccNzw1my.s:89009  .debug_str:000000000000280a .LASF2339
     /tmp/ccNzw1my.s:98949  .debug_str:000000000002b144 .LASF2340
     /tmp/ccNzw1my.s:97433  .debug_str:0000000000024dfd .LASF2341
     /tmp/ccNzw1my.s:107157  .debug_str:000000000004cbbc .LASF2342
     /tmp/ccNzw1my.s:90007  .debug_str:0000000000006c5f .LASF2343
     /tmp/ccNzw1my.s:104909  .debug_str:0000000000043414 .LASF2344
     /tmp/ccNzw1my.s:99361  .debug_str:000000000002cbab .LASF2345
     /tmp/ccNzw1my.s:107081  .debug_str:000000000004c721 .LASF2346
     /tmp/ccNzw1my.s:99311  .debug_str:000000000002c85a .LASF2347
     /tmp/ccNzw1my.s:89155  .debug_str:0000000000003284 .LASF2348
     /tmp/ccNzw1my.s:95563  .debug_str:000000000001d4ba .LASF2349
     /tmp/ccNzw1my.s:103447  .debug_str:000000000003d226 .LASF2350
     /tmp/ccNzw1my.s:97733  .debug_str:0000000000026102 .LASF2351
     /tmp/ccNzw1my.s:98679  .debug_str:0000000000029fbc .LASF2352
     /tmp/ccNzw1my.s:106957  .debug_str:000000000004beaa .LASF2353
     /tmp/ccNzw1my.s:104725  .debug_str:00000000000428b3 .LASF2354
     /tmp/ccNzw1my.s:106925  .debug_str:000000000004bc2c .LASF2355
     /tmp/ccNzw1my.s:97913  .debug_str:0000000000026de0 .LASF2356
     /tmp/ccNzw1my.s:105567  .debug_str:0000000000045eb4 .LASF2357
     /tmp/ccNzw1my.s:99055  .debug_str:000000000002b878 .LASF2358
     /tmp/ccNzw1my.s:105757  .debug_str:0000000000046b8a .LASF2359
     /tmp/ccNzw1my.s:90541  .debug_str:0000000000009061 .LASF2360
     /tmp/ccNzw1my.s:92411  .debug_str:000000000001048a .LASF2361
     /tmp/ccNzw1my.s:105173  .debug_str:00000000000444c0 .LASF2362
     /tmp/ccNzw1my.s:94025  .debug_str:0000000000016cfb .LASF2363
     /tmp/ccNzw1my.s:107321  .debug_str:000000000004d7a3 .LASF2364
     /tmp/ccNzw1my.s:99839  .debug_str:000000000002eb86 .LASF2365
     /tmp/ccNzw1my.s:90987  .debug_str:000000000000ae6f .LASF2366
     /tmp/ccNzw1my.s:91403  .debug_str:000000000000cb70 .LASF2367
     /tmp/ccNzw1my.s:104403  .debug_str:00000000000412be .LASF2368
     /tmp/ccNzw1my.s:94657  .debug_str:00000000000195f1 .LASF2369
     /tmp/ccNzw1my.s:102781  .debug_str:000000000003a65d .LASF2370
     /tmp/ccNzw1my.s:100775  .debug_str:00000000000328e7 .LASF2371
     /tmp/ccNzw1my.s:106765  .debug_str:000000000004afcd .LASF2372
     /tmp/ccNzw1my.s:98885  .debug_str:000000000002acd1 .LASF2373
     /tmp/ccNzw1my.s:97973  .debug_str:0000000000027182 .LASF2374
     /tmp/ccNzw1my.s:102709  .debug_str:000000000003a0ee .LASF2375
     /tmp/ccNzw1my.s:89113  .debug_str:0000000000002fd5 .LASF2376
     /tmp/ccNzw1my.s:99261  .debug_str:000000000002c50d .LASF2377
     /tmp/ccNzw1my.s:98103  .debug_str:0000000000027aae .LASF2378
     /tmp/ccNzw1my.s:91021  .debug_str:000000000000b113 .LASF2379
     /tmp/ccNzw1my.s:90393  .debug_str:00000000000085f8 .LASF2380
     /tmp/ccNzw1my.s:95143  .debug_str:000000000001b86f .LASF2381
     /tmp/ccNzw1my.s:99921  .debug_str:000000000002f139 .LASF2382
     /tmp/ccNzw1my.s:105501  .debug_str:0000000000045ac8 .LASF2383
     /tmp/ccNzw1my.s:103939  .debug_str:000000000003f36a .LASF2384
     /tmp/ccNzw1my.s:99935  .debug_str:000000000002f26f .LASF2385
     /tmp/ccNzw1my.s:92983  .debug_str:0000000000012b8c .LASF2386
     /tmp/ccNzw1my.s:93907  .debug_str:00000000000164c3 .LASF2387
     /tmp/ccNzw1my.s:103043  .debug_str:000000000003b819 .LASF2388
     /tmp/ccNzw1my.s:93009  .debug_str:0000000000012d46 .LASF2389
     /tmp/ccNzw1my.s:101299  .debug_str:0000000000034c0b .LASF2390
     /tmp/ccNzw1my.s:104079  .debug_str:000000000003fcc3 .LASF2391
     /tmp/ccNzw1my.s:101275  .debug_str:0000000000034a7c .LASF2392
     /tmp/ccNzw1my.s:91297  .debug_str:000000000000c423 .LASF2393
     /tmp/ccNzw1my.s:101371  .debug_str:000000000003511f .LASF2394
     /tmp/ccNzw1my.s:96773  .debug_str:0000000000022795 .LASF2395
     /tmp/ccNzw1my.s:94437  .debug_str:000000000001870d .LASF2396
     /tmp/ccNzw1my.s:100911  .debug_str:000000000003320b .LASF2397
     /tmp/ccNzw1my.s:104615  .debug_str:0000000000042153 .LASF2398
     /tmp/ccNzw1my.s:101251  .debug_str:00000000000348ca .LASF2399
     /tmp/ccNzw1my.s:88811  .debug_str:00000000000019b3 .LASF2400
     /tmp/ccNzw1my.s:101075  .debug_str:0000000000033d2a .LASF2401
     /tmp/ccNzw1my.s:90605  .debug_str:000000000000944a .LASF2402
     /tmp/ccNzw1my.s:98829  .debug_str:000000000002a934 .LASF2403
     /tmp/ccNzw1my.s:99987  .debug_str:000000000002f5c7 .LASF2404
     /tmp/ccNzw1my.s:94531  .debug_str:0000000000018d9e .LASF2405
     /tmp/ccNzw1my.s:90197  .debug_str:0000000000007904 .LASF2406
     /tmp/ccNzw1my.s:98253  .debug_str:0000000000028487 .LASF2407
     /tmp/ccNzw1my.s:101807  .debug_str:0000000000036b54 .LASF2408
     /tmp/ccNzw1my.s:98349  .debug_str:0000000000028ac1 .LASF2409
     /tmp/ccNzw1my.s:97503  .debug_str:0000000000025234 .LASF2410
     /tmp/ccNzw1my.s:103373  .debug_str:000000000003ce2e .LASF2411
     /tmp/ccNzw1my.s:101315  .debug_str:0000000000034cfa .LASF2412
     /tmp/ccNzw1my.s:101131  .debug_str:00000000000340d4 .LASF2413
     /tmp/ccNzw1my.s:91515  .debug_str:000000000000d2c7 .LASF2414
     /tmp/ccNzw1my.s:103073  .debug_str:000000000003ba13 .LASF2415
     /tmp/ccNzw1my.s:103273  .debug_str:000000000003c74b .LASF2416
     /tmp/ccNzw1my.s:95477  .debug_str:000000000001ceed .LASF2417
     /tmp/ccNzw1my.s:96207  .debug_str:00000000000201db .LASF2418
     /tmp/ccNzw1my.s:97743  .debug_str:00000000000261e9 .LASF2419
     /tmp/ccNzw1my.s:106345  .debug_str:00000000000492e4 .LASF2420
     /tmp/ccNzw1my.s:103477  .debug_str:000000000003d46d .LASF2421
     /tmp/ccNzw1my.s:106295  .debug_str:0000000000048f8b .LASF2422
     /tmp/ccNzw1my.s:96131  .debug_str:000000000001fd3a .LASF2423
     /tmp/ccNzw1my.s:92177  .debug_str:000000000000f846 .LASF2424
     /tmp/ccNzw1my.s:92895  .debug_str:00000000000124c8 .LASF2425
     /tmp/ccNzw1my.s:89017  .debug_str:00000000000028b2 .LASF2426
     /tmp/ccNzw1my.s:95681  .debug_str:000000000001dcb1 .LASF2427
     /tmp/ccNzw1my.s:103119  .debug_str:000000000003bd43 .LASF2428
     /tmp/ccNzw1my.s:95751  .debug_str:000000000001e100 .LASF2429
     /tmp/ccNzw1my.s:94237  .debug_str:0000000000017ac6 .LASF2430
     /tmp/ccNzw1my.s:103609  .debug_str:000000000003dcde .LASF2431
     /tmp/ccNzw1my.s:107195  .debug_str:000000000004ce89 .LASF2432
     /tmp/ccNzw1my.s:96629  .debug_str:0000000000021e1c .LASF2433
     /tmp/ccNzw1my.s:98681  .debug_str:0000000000029ff5 .LASF2434
     /tmp/ccNzw1my.s:95297  .debug_str:000000000001c24d .LASF2435
     /tmp/ccNzw1my.s:90001  .debug_str:0000000000006bee .LASF2436
     /tmp/ccNzw1my.s:100893  .debug_str:0000000000033075 .LASF2437
     /tmp/ccNzw1my.s:106783  .debug_str:000000000004b179 .LASF2438
     /tmp/ccNzw1my.s:102483  .debug_str:0000000000039190 .LASF2439
     /tmp/ccNzw1my.s:98243  .debug_str:00000000000283c9 .LASF2440
     /tmp/ccNzw1my.s:92131  .debug_str:000000000000f5c3 .LASF2441
     /tmp/ccNzw1my.s:95201  .debug_str:000000000001bca8 .LASF2442
     /tmp/ccNzw1my.s:101365  .debug_str:00000000000350a8 .LASF2443
     /tmp/ccNzw1my.s:106549  .debug_str:000000000004a097 .LASF2444
     /tmp/ccNzw1my.s:92501  .debug_str:0000000000010a6e .LASF2445
     /tmp/ccNzw1my.s:99931  .debug_str:000000000002f218 .LASF2446
     /tmp/ccNzw1my.s:100531  .debug_str:00000000000319a6 .LASF2447
     /tmp/ccNzw1my.s:97125  .debug_str:0000000000023db6 .LASF2448
     /tmp/ccNzw1my.s:89103  .debug_str:0000000000002ec8 .LASF2449
     /tmp/ccNzw1my.s:103891  .debug_str:000000000003efdf .LASF2450
     /tmp/ccNzw1my.s:106803  .debug_str:000000000004b319 .LASF2451
     /tmp/ccNzw1my.s:88755  .debug_str:00000000000015a4 .LASF2452
     /tmp/ccNzw1my.s:97981  .debug_str:000000000002721c .LASF2453
     /tmp/ccNzw1my.s:94825  .debug_str:000000000001a2ac .LASF2454
     /tmp/ccNzw1my.s:93459  .debug_str:00000000000147fd .LASF2455
     /tmp/ccNzw1my.s:99257  .debug_str:000000000002c48c .LASF2456
     /tmp/ccNzw1my.s:102347  .debug_str:000000000003886d .LASF2457
     /tmp/ccNzw1my.s:101497  .debug_str:00000000000358c4 .LASF2458
     /tmp/ccNzw1my.s:100445  .debug_str:0000000000031416 .LASF2459
     /tmp/ccNzw1my.s:91043  .debug_str:000000000000b2dc .LASF2460
     /tmp/ccNzw1my.s:90191  .debug_str:0000000000007884 .LASF2461
     /tmp/ccNzw1my.s:95963  .debug_str:000000000001f0c2 .LASF2462
     /tmp/ccNzw1my.s:97837  .debug_str:000000000002689e .LASF2463
     /tmp/ccNzw1my.s:91205  .debug_str:000000000000be28 .LASF2464
     /tmp/ccNzw1my.s:98245  .debug_str:0000000000028404 .LASF2465
     /tmp/ccNzw1my.s:105593  .debug_str:0000000000046073 .LASF2466
     /tmp/ccNzw1my.s:97357  .debug_str:0000000000024a14 .LASF2467
     /tmp/ccNzw1my.s:96835  .debug_str:0000000000022ba8 .LASF2468
     /tmp/ccNzw1my.s:103715  .debug_str:000000000003e36a .LASF2469
     /tmp/ccNzw1my.s:91967  .debug_str:000000000000ec37 .LASF2470
     /tmp/ccNzw1my.s:99217  .debug_str:000000000002c1cb .LASF2471
     /tmp/ccNzw1my.s:106277  .debug_str:0000000000048e5c .LASF2472
     /tmp/ccNzw1my.s:90127  .debug_str:000000000000748c .LASF2473
     /tmp/ccNzw1my.s:103423  .debug_str:000000000003d085 .LASF2474
     /tmp/ccNzw1my.s:106735  .debug_str:000000000004ad48 .LASF2475
     /tmp/ccNzw1my.s:88633  .debug_str:0000000000000d7c .LASF2476
     /tmp/ccNzw1my.s:99477  .debug_str:000000000002d3aa .LASF2477
     /tmp/ccNzw1my.s:89235  .debug_str:0000000000003767 .LASF2478
     /tmp/ccNzw1my.s:92033  .debug_str:000000000000ef8f .LASF2479
     /tmp/ccNzw1my.s:94075  .debug_str:000000000001706e .LASF2480
     /tmp/ccNzw1my.s:103827  .debug_str:000000000003eb0a .LASF2481
     /tmp/ccNzw1my.s:95735  .debug_str:000000000001dffa .LASF2482
     /tmp/ccNzw1my.s:90563  .debug_str:0000000000009196 .LASF2483
     /tmp/ccNzw1my.s:91221  .debug_str:000000000000bf2e .LASF2484
     /tmp/ccNzw1my.s:97359  .debug_str:0000000000024a5b .LASF2485
     /tmp/ccNzw1my.s:91119  .debug_str:000000000000b8d1 .LASF2486
     /tmp/ccNzw1my.s:106615  .debug_str:000000000004a590 .LASF2487
     /tmp/ccNzw1my.s:99445  .debug_str:000000000002d16f .LASF2488
     /tmp/ccNzw1my.s:102431  .debug_str:0000000000038e37 .LASF2489
     /tmp/ccNzw1my.s:101473  .debug_str:0000000000035776 .LASF2490
     /tmp/ccNzw1my.s:88519  .debug_str:0000000000000618 .LASF2491
     /tmp/ccNzw1my.s:94053  .debug_str:0000000000016f11 .LASF2492
     /tmp/ccNzw1my.s:99545  .debug_str:000000000002d813 .LASF2493
     /tmp/ccNzw1my.s:89569  .debug_str:0000000000004e6c .LASF2494
     /tmp/ccNzw1my.s:102755  .debug_str:000000000003a447 .LASF2495
     /tmp/ccNzw1my.s:103877  .debug_str:000000000003eee6 .LASF2496
     /tmp/ccNzw1my.s:94281  .debug_str:0000000000017dd0 .LASF2497
     /tmp/ccNzw1my.s:91041  .debug_str:000000000000b296 .LASF2498
     /tmp/ccNzw1my.s:92123  .debug_str:000000000000f547 .LASF2499
     /tmp/ccNzw1my.s:92429  .debug_str:00000000000105f5 .LASF2500
     /tmp/ccNzw1my.s:105805  .debug_str:0000000000046edf .LASF2501
     /tmp/ccNzw1my.s:88853  .debug_str:0000000000001ce2 .LASF2502
     /tmp/ccNzw1my.s:94973  .debug_str:000000000001abbe .LASF2503
     /tmp/ccNzw1my.s:99045  .debug_str:000000000002b7d3 .LASF2504
     /tmp/ccNzw1my.s:93959  .debug_str:0000000000016847 .LASF2505
     /tmp/ccNzw1my.s:90109  .debug_str:0000000000007316 .LASF2506
     /tmp/ccNzw1my.s:92919  .debug_str:0000000000012680 .LASF2507
     /tmp/ccNzw1my.s:98163  .debug_str:0000000000027f56 .LASF2508
     /tmp/ccNzw1my.s:97605  .debug_str:000000000002594c .LASF2509
     /tmp/ccNzw1my.s:105183  .debug_str:0000000000044554 .LASF2510
     /tmp/ccNzw1my.s:95707  .debug_str:000000000001dddd .LASF2511
     /tmp/ccNzw1my.s:92249  .debug_str:000000000000fbde .LASF2512
     /tmp/ccNzw1my.s:96027  .debug_str:000000000001f535 .LASF2513
     /tmp/ccNzw1my.s:104217  .debug_str:0000000000040705 .LASF2514
     /tmp/ccNzw1my.s:102675  .debug_str:0000000000039e29 .LASF2515
     /tmp/ccNzw1my.s:90055  .debug_str:0000000000006fe3 .LASF2516
     /tmp/ccNzw1my.s:104625  .debug_str:00000000000421fb .LASF2517
     /tmp/ccNzw1my.s:99603  .debug_str:000000000002dbc3 .LASF2518
     /tmp/ccNzw1my.s:99353  .debug_str:000000000002cafa .LASF2519
     /tmp/ccNzw1my.s:101125  .debug_str:0000000000034030 .LASF2520
     /tmp/ccNzw1my.s:90523  .debug_str:0000000000008f01 .LASF2521
     /tmp/ccNzw1my.s:106371  .debug_str:000000000004949d .LASF2522
     /tmp/ccNzw1my.s:96577  .debug_str:0000000000021a93 .LASF2523
     /tmp/ccNzw1my.s:94213  .debug_str:000000000001796f .LASF2524
     /tmp/ccNzw1my.s:105083  .debug_str:0000000000043f7a .LASF2525
     /tmp/ccNzw1my.s:96621  .debug_str:0000000000021d78 .LASF2526
     /tmp/ccNzw1my.s:91265  .debug_str:000000000000c228 .LASF2527
     /tmp/ccNzw1my.s:89089  .debug_str:0000000000002d8e .LASF2528
     /tmp/ccNzw1my.s:90879  .debug_str:000000000000a6e6 .LASF2529
     /tmp/ccNzw1my.s:92609  .debug_str:0000000000011153 .LASF2530
     /tmp/ccNzw1my.s:97629  .debug_str:0000000000025b29 .LASF2531
     /tmp/ccNzw1my.s:96957  .debug_str:00000000000233fd .LASF2532
     /tmp/ccNzw1my.s:92807  .debug_str:0000000000011f3a .LASF2533
     /tmp/ccNzw1my.s:93937  .debug_str:0000000000016683 .LASF2534
     /tmp/ccNzw1my.s:102527  .debug_str:0000000000039497 .LASF2535
     /tmp/ccNzw1my.s:96703  .debug_str:000000000002229b .LASF2536
     /tmp/ccNzw1my.s:94061  .debug_str:0000000000016f79 .LASF2537
     /tmp/ccNzw1my.s:96543  .debug_str:0000000000021822 .LASF2538
     /tmp/ccNzw1my.s:99167  .debug_str:000000000002beab .LASF2539
     /tmp/ccNzw1my.s:91147  .debug_str:000000000000ba72 .LASF2540
     /tmp/ccNzw1my.s:95027  .debug_str:000000000001b003 .LASF2541
     /tmp/ccNzw1my.s:93159  .debug_str:000000000001365e .LASF2542
     /tmp/ccNzw1my.s:94225  .debug_str:0000000000017a1e .LASF2543
     /tmp/ccNzw1my.s:95115  .debug_str:000000000001b685 .LASF2544
     /tmp/ccNzw1my.s:89761  .debug_str:0000000000005bc8 .LASF2545
     /tmp/ccNzw1my.s:99859  .debug_str:000000000002eced .LASF2546
     /tmp/ccNzw1my.s:93073  .debug_str:0000000000013100 .LASF2547
     /tmp/ccNzw1my.s:105627  .debug_str:000000000004627c .LASF2548
     /tmp/ccNzw1my.s:100833  .debug_str:0000000000032c4d .LASF2549
     /tmp/ccNzw1my.s:92693  .debug_str:000000000001173c .LASF2550
     /tmp/ccNzw1my.s:94153  .debug_str:0000000000017542 .LASF2551
     /tmp/ccNzw1my.s:88797  .debug_str:00000000000018df .LASF2552
     /tmp/ccNzw1my.s:90567  .debug_str:00000000000091fa .LASF2553
     /tmp/ccNzw1my.s:95649  .debug_str:000000000001dafc .LASF2554
     /tmp/ccNzw1my.s:103269  .debug_str:000000000003c703 .LASF2555
     /tmp/ccNzw1my.s:96085  .debug_str:000000000001fa87 .LASF2556
     /tmp/ccNzw1my.s:96619  .debug_str:0000000000021d47 .LASF2557
     /tmp/ccNzw1my.s:101119  .debug_str:0000000000033fab .LASF2558
     /tmp/ccNzw1my.s:100273  .debug_str:0000000000030710 .LASF2559
     /tmp/ccNzw1my.s:105095  .debug_str:0000000000044076 .LASF2560
     /tmp/ccNzw1my.s:105733  .debug_str:000000000004699b .LASF2561
     /tmp/ccNzw1my.s:89647  .debug_str:000000000000538c .LASF2562
     /tmp/ccNzw1my.s:97663  .debug_str:0000000000025d55 .LASF2563
     /tmp/ccNzw1my.s:102571  .debug_str:00000000000397cd .LASF2564
     /tmp/ccNzw1my.s:91301  .debug_str:000000000000c489 .LASF2565
     /tmp/ccNzw1my.s:90895  .debug_str:000000000000a7af .LASF2566
     /tmp/ccNzw1my.s:102685  .debug_str:0000000000039f10 .LASF2567
     /tmp/ccNzw1my.s:103205  .debug_str:000000000003c298 .LASF2568
     /tmp/ccNzw1my.s:89379  .debug_str:0000000000004166 .LASF2569
     /tmp/ccNzw1my.s:101891  .debug_str:0000000000037035 .LASF2570
     /tmp/ccNzw1my.s:95999  .debug_str:000000000001f330 .LASF2571
     /tmp/ccNzw1my.s:93013  .debug_str:0000000000012d90 .LASF2572
     /tmp/ccNzw1my.s:95993  .debug_str:000000000001f2cf .LASF2573
     /tmp/ccNzw1my.s:103149  .debug_str:000000000003bf2a .LASF2574
     /tmp/ccNzw1my.s:94955  .debug_str:000000000001aa8b .LASF2575
     /tmp/ccNzw1my.s:98129  .debug_str:0000000000027cb2 .LASF2576
     /tmp/ccNzw1my.s:99315  .debug_str:000000000002c8a9 .LASF2577
     /tmp/ccNzw1my.s:103209  .debug_str:000000000003c302 .LASF2578
     /tmp/ccNzw1my.s:89857  .debug_str:00000000000061dc .LASF2579
     /tmp/ccNzw1my.s:96683  .debug_str:0000000000022127 .LASF2580
     /tmp/ccNzw1my.s:101101  .debug_str:0000000000033ead .LASF2581
     /tmp/ccNzw1my.s:106091  .debug_str:0000000000048126 .LASF2582
     /tmp/ccNzw1my.s:107149  .debug_str:000000000004cb46 .LASF2583
     /tmp/ccNzw1my.s:90865  .debug_str:000000000000a5b4 .LASF2584
     /tmp/ccNzw1my.s:106407  .debug_str:000000000004971f .LASF2585
     /tmp/ccNzw1my.s:97577  .debug_str:00000000000257b3 .LASF2586
     /tmp/ccNzw1my.s:93305  .debug_str:0000000000013f62 .LASF2587
     /tmp/ccNzw1my.s:94847  .debug_str:000000000001a403 .LASF2588
     /tmp/ccNzw1my.s:104937  .debug_str:00000000000435fa .LASF2589
     /tmp/ccNzw1my.s:99655  .debug_str:000000000002dfb5 .LASF2590
     /tmp/ccNzw1my.s:100921  .debug_str:000000000003329e .LASF2591
     /tmp/ccNzw1my.s:106433  .debug_str:00000000000498f7 .LASF2592
     /tmp/ccNzw1my.s:96261  .debug_str:0000000000020586 .LASF2593
     /tmp/ccNzw1my.s:96757  .debug_str:0000000000022662 .LASF2594
     /tmp/ccNzw1my.s:93619  .debug_str:00000000000152c9 .LASF2595
     /tmp/ccNzw1my.s:102983  .debug_str:000000000003b44a .LASF2596
     /tmp/ccNzw1my.s:104087  .debug_str:000000000003fd6b .LASF2597
     /tmp/ccNzw1my.s:104737  .debug_str:00000000000429b3 .LASF2598
     /tmp/ccNzw1my.s:96003  .debug_str:000000000001f398 .LASF2599
     /tmp/ccNzw1my.s:95191  .debug_str:000000000001bbec .LASF2600
     /tmp/ccNzw1my.s:98533  .debug_str:0000000000029651 .LASF2601
     /tmp/ccNzw1my.s:104455  .debug_str:0000000000041747 .LASF2602
     /tmp/ccNzw1my.s:96213  .debug_str:0000000000020254 .LASF2603
     /tmp/ccNzw1my.s:94737  .debug_str:0000000000019b83 .LASF2604
     /tmp/ccNzw1my.s:94929  .debug_str:000000000001a964 .LASF2605
     /tmp/ccNzw1my.s:94557  .debug_str:0000000000018f58 .LASF2606
     /tmp/ccNzw1my.s:101067  .debug_str:0000000000033c36 .LASF2607
     /tmp/ccNzw1my.s:92871  .debug_str:0000000000012349 .LASF2608
     /tmp/ccNzw1my.s:98461  .debug_str:0000000000029216 .LASF2609
     /tmp/ccNzw1my.s:99913  .debug_str:000000000002f06f .LASF2610
     /tmp/ccNzw1my.s:90021  .debug_str:0000000000006d97 .LASF2611
     /tmp/ccNzw1my.s:94943  .debug_str:000000000001a9ee .LASF2612
     /tmp/ccNzw1my.s:104421  .debug_str:0000000000041435 .LASF2613
     /tmp/ccNzw1my.s:92937  .debug_str:000000000001279d .LASF2614
     /tmp/ccNzw1my.s:89479  .debug_str:0000000000004889 .LASF2615
     /tmp/ccNzw1my.s:106903  .debug_str:000000000004ba76 .LASF2616
     /tmp/ccNzw1my.s:92511  .debug_str:0000000000010b51 .LASF2617
     /tmp/ccNzw1my.s:89887  .debug_str:00000000000063d6 .LASF2618
     /tmp/ccNzw1my.s:102959  .debug_str:000000000003b259 .LASF2619
     /tmp/ccNzw1my.s:101163  .debug_str:000000000003433d .LASF2620
     /tmp/ccNzw1my.s:104189  .debug_str:00000000000404dc .LASF2621
     /tmp/ccNzw1my.s:96853  .debug_str:0000000000022caf .LASF2622
     /tmp/ccNzw1my.s:95319  .debug_str:000000000001c3b6 .LASF2623
     /tmp/ccNzw1my.s:93977  .debug_str:0000000000016948 .LASF2624
     /tmp/ccNzw1my.s:105423  .debug_str:00000000000454c1 .LASF2625
     /tmp/ccNzw1my.s:104335  .debug_str:0000000000040e1d .LASF2626
     /tmp/ccNzw1my.s:101317  .debug_str:0000000000034d3b .LASF2627
     /tmp/ccNzw1my.s:91433  .debug_str:000000000000cddc .LASF2628
     /tmp/ccNzw1my.s:102565  .debug_str:0000000000039735 .LASF2629
     /tmp/ccNzw1my.s:101099  .debug_str:0000000000033e75 .LASF2630
     /tmp/ccNzw1my.s:93209  .debug_str:000000000001398d .LASF2631
     /tmp/ccNzw1my.s:90741  .debug_str:0000000000009dce .LASF2632
     /tmp/ccNzw1my.s:103329  .debug_str:000000000003cb0f .LASF2633
     /tmp/ccNzw1my.s:101211  .debug_str:0000000000034634 .LASF2634
     /tmp/ccNzw1my.s:89367  .debug_str:0000000000004075 .LASF2635
     /tmp/ccNzw1my.s:100189  .debug_str:000000000003021d .LASF2636
     /tmp/ccNzw1my.s:102561  .debug_str:00000000000396bc .LASF2637
     /tmp/ccNzw1my.s:95979  .debug_str:000000000001f216 .LASF2638
     /tmp/ccNzw1my.s:106781  .debug_str:000000000004b138 .LASF2639
     /tmp/ccNzw1my.s:95019  .debug_str:000000000001af99 .LASF2640
     /tmp/ccNzw1my.s:106565  .debug_str:000000000004a190 .LASF2641
     /tmp/ccNzw1my.s:106975  .debug_str:000000000004bfec .LASF2642
     /tmp/ccNzw1my.s:99021  .debug_str:000000000002b608 .LASF2643
     /tmp/ccNzw1my.s:92283  .debug_str:000000000000fe34 .LASF2644
     /tmp/ccNzw1my.s:101661  .debug_str:00000000000362c6 .LASF2645
     /tmp/ccNzw1my.s:93487  .debug_str:0000000000014a39 .LASF2646
     /tmp/ccNzw1my.s:101069  .debug_str:0000000000033c70 .LASF2647
     /tmp/ccNzw1my.s:103459  .debug_str:000000000003d302 .LASF2648
     /tmp/ccNzw1my.s:101885  .debug_str:0000000000036fa3 .LASF2649
     /tmp/ccNzw1my.s:104495  .debug_str:00000000000419be .LASF2650
     /tmp/ccNzw1my.s:95053  .debug_str:000000000001b218 .LASF2651
     /tmp/ccNzw1my.s:89735  .debug_str:0000000000005a42 .LASF2652
     /tmp/ccNzw1my.s:105211  .debug_str:00000000000446b0 .LASF2653
     /tmp/ccNzw1my.s:101361  .debug_str:0000000000035044 .LASF2654
     /tmp/ccNzw1my.s:88701  .debug_str:0000000000001237 .LASF2655
     /tmp/ccNzw1my.s:96553  .debug_str:000000000002190d .LASF2656
     /tmp/ccNzw1my.s:102429  .debug_str:0000000000038df3 .LASF2657
     /tmp/ccNzw1my.s:91057  .debug_str:000000000000b3dc .LASF2658
     /tmp/ccNzw1my.s:89339  .debug_str:0000000000003e5b .LASF2659
     /tmp/ccNzw1my.s:105277  .debug_str:0000000000044bd0 .LASF2660
     /tmp/ccNzw1my.s:104353  .debug_str:0000000000040f3d .LASF2661
     /tmp/ccNzw1my.s:100649  .debug_str:00000000000320a4 .LASF2662
     /tmp/ccNzw1my.s:88903  .debug_str:0000000000002028 .LASF2663
     /tmp/ccNzw1my.s:95955  .debug_str:000000000001f01b .LASF2664
     /tmp/ccNzw1my.s:106011  .debug_str:0000000000047bc5 .LASF2665
     /tmp/ccNzw1my.s:92159  .debug_str:000000000000f6e4 .LASF2666
     /tmp/ccNzw1my.s:98171  .debug_str:0000000000027fd6 .LASF2667
     /tmp/ccNzw1my.s:90159  .debug_str:0000000000007696 .LASF2668
     /tmp/ccNzw1my.s:103623  .debug_str:000000000003dda0 .LASF2669
     /tmp/ccNzw1my.s:101805  .debug_str:0000000000036b17 .LASF2670
     /tmp/ccNzw1my.s:103987  .debug_str:000000000003f737 .LASF2671
     /tmp/ccNzw1my.s:102761  .debug_str:000000000003a4f5 .LASF2672
     /tmp/ccNzw1my.s:89993  .debug_str:0000000000006b1a .LASF2673
     /tmp/ccNzw1my.s:98327  .debug_str:0000000000028938 .LASF2674
     /tmp/ccNzw1my.s:95177  .debug_str:000000000001baa1 .LASF2675
     /tmp/ccNzw1my.s:105275  .debug_str:0000000000044b96 .LASF2676
     /tmp/ccNzw1my.s:99309  .debug_str:000000000002c818 .LASF2677
     /tmp/ccNzw1my.s:101743  .debug_str:00000000000367e7 .LASF2678
     /tmp/ccNzw1my.s:105575  .debug_str:0000000000045f30 .LASF2679
     /tmp/ccNzw1my.s:101567  .debug_str:0000000000035cf1 .LASF2680
     /tmp/ccNzw1my.s:88897  .debug_str:0000000000001fb8 .LASF2681
     /tmp/ccNzw1my.s:105139  .debug_str:00000000000442e1 .LASF2682
     /tmp/ccNzw1my.s:99019  .debug_str:000000000002b5cd .LASF2683
     /tmp/ccNzw1my.s:96035  .debug_str:000000000001f5e8 .LASF2684
     /tmp/ccNzw1my.s:90305  .debug_str:0000000000008009 .LASF2685
     /tmp/ccNzw1my.s:104279  .debug_str:0000000000040a03 .LASF2686
     /tmp/ccNzw1my.s:99793  .debug_str:000000000002e8b8 .LASF2687
     /tmp/ccNzw1my.s:95671  .debug_str:000000000001dc0c .LASF2688
     /tmp/ccNzw1my.s:94087  .debug_str:000000000001717b .LASF2689
     /tmp/ccNzw1my.s:93243  .debug_str:0000000000013b7a .LASF2690
     /tmp/ccNzw1my.s:94399  .debug_str:00000000000184bc .LASF2691
     /tmp/ccNzw1my.s:90377  .debug_str:00000000000084e0 .LASF2692
     /tmp/ccNzw1my.s:105875  .debug_str:0000000000047389 .LASF2693
     /tmp/ccNzw1my.s:94539  .debug_str:0000000000018e22 .LASF2694
     /tmp/ccNzw1my.s:106369  .debug_str:0000000000049465 .LASF2695
     /tmp/ccNzw1my.s:104667  .debug_str:00000000000424b2 .LASF2696
     /tmp/ccNzw1my.s:102359  .debug_str:0000000000038927 .LASF2697
     /tmp/ccNzw1my.s:96049  .debug_str:000000000001f748 .LASF2698
     /tmp/ccNzw1my.s:90265  .debug_str:0000000000007d33 .LASF2699
     /tmp/ccNzw1my.s:91355  .debug_str:000000000000c882 .LASF2700
     /tmp/ccNzw1my.s:100167  .debug_str:00000000000300be .LASF2701
     /tmp/ccNzw1my.s:97565  .debug_str:00000000000256ce .LASF2702
     /tmp/ccNzw1my.s:97887  .debug_str:0000000000026c19 .LASF2703
     /tmp/ccNzw1my.s:107083  .debug_str:000000000004c75a .LASF2704
     /tmp/ccNzw1my.s:100047  .debug_str:000000000002f96f .LASF2705
     /tmp/ccNzw1my.s:97417  .debug_str:0000000000024c91 .LASF2706
     /tmp/ccNzw1my.s:99729  .debug_str:000000000002e476 .LASF2707
     /tmp/ccNzw1my.s:104597  .debug_str:0000000000042029 .LASF2708
     /tmp/ccNzw1my.s:94819  .debug_str:000000000001a20b .LASF2709
     /tmp/ccNzw1my.s:96459  .debug_str:00000000000212e4 .LASF2710
     /tmp/ccNzw1my.s:105373  .debug_str:0000000000045186 .LASF2711
     /tmp/ccNzw1my.s:99667  .debug_str:000000000002e0ba .LASF2712
     /tmp/ccNzw1my.s:107185  .debug_str:000000000004cda1 .LASF2713
     /tmp/ccNzw1my.s:107327  .debug_str:000000000004d816 .LASF2714
     /tmp/ccNzw1my.s:97419  .debug_str:0000000000024ccf .LASF2715
     /tmp/ccNzw1my.s:93505  .debug_str:0000000000014b3d .LASF2716
     /tmp/ccNzw1my.s:95131  .debug_str:000000000001b7c4 .LASF2717
     /tmp/ccNzw1my.s:107057  .debug_str:000000000004c568 .LASF2718
     /tmp/ccNzw1my.s:104061  .debug_str:000000000003fba1 .LASF2719
     /tmp/ccNzw1my.s:92955  .debug_str:00000000000128b9 .LASF2720
     /tmp/ccNzw1my.s:92455  .debug_str:000000000001081d .LASF2721
     /tmp/ccNzw1my.s:102291  .debug_str:0000000000038497 .LASF2722
     /tmp/ccNzw1my.s:106591  .debug_str:000000000004a393 .LASF2723
     /tmp/ccNzw1my.s:100669  .debug_str:00000000000321f1 .LASF2724
     /tmp/ccNzw1my.s:102007  .debug_str:0000000000037616 .LASF2725
     /tmp/ccNzw1my.s:101793  .debug_str:0000000000036a49 .LASF2726
     /tmp/ccNzw1my.s:88927  .debug_str:0000000000002203 .LASF2727
     /tmp/ccNzw1my.s:105247  .debug_str:00000000000449a1 .LASF2728
     /tmp/ccNzw1my.s:98393  .debug_str:0000000000028d83 .LASF2729
     /tmp/ccNzw1my.s:95583  .debug_str:000000000001d639 .LASF2730
     /tmp/ccNzw1my.s:103857  .debug_str:000000000003ed8f .LASF2731
     /tmp/ccNzw1my.s:97483  .debug_str:000000000002510d .LASF2732
     /tmp/ccNzw1my.s:88641  .debug_str:0000000000000e19 .LASF2733
     /tmp/ccNzw1my.s:104033  .debug_str:000000000003fa1b .LASF2734
     /tmp/ccNzw1my.s:92119  .debug_str:000000000000f4c8 .LASF2735
     /tmp/ccNzw1my.s:89751  .debug_str:0000000000005b14 .LASF2736
     /tmp/ccNzw1my.s:92543  .debug_str:0000000000010d71 .LASF2737
     /tmp/ccNzw1my.s:90961  .debug_str:000000000000ac83 .LASF2738
     /tmp/ccNzw1my.s:105833  .debug_str:00000000000470f9 .LASF2739
     /tmp/ccNzw1my.s:102177  .debug_str:0000000000037ec8 .LASF2740
     /tmp/ccNzw1my.s:89669  .debug_str:0000000000005550 .LASF2741
     /tmp/ccNzw1my.s:107219  .debug_str:000000000004d09d .LASF2742
     /tmp/ccNzw1my.s:102643  .debug_str:0000000000039c25 .LASF2743
     /tmp/ccNzw1my.s:100765  .debug_str:000000000003281a .LASF2744
     /tmp/ccNzw1my.s:106343  .debug_str:00000000000492a1 .LASF2745
     /tmp/ccNzw1my.s:105721  .debug_str:00000000000468c4 .LASF2746
     /tmp/ccNzw1my.s:97193  .debug_str:0000000000024243 .LASF2747
     /tmp/ccNzw1my.s:97097  .debug_str:0000000000023d0f .LASF2748
     /tmp/ccNzw1my.s:88723  .debug_str:000000000000139f .LASF2749
     /tmp/ccNzw1my.s:99371  .debug_str:000000000002cc91 .LASF2750
     /tmp/ccNzw1my.s:106723  .debug_str:000000000004ac48 .LASF2751
     /tmp/ccNzw1my.s:90611  .debug_str:000000000000951f .LASF2752
     /tmp/ccNzw1my.s:103657  .debug_str:000000000003dfcb .LASF2753
     /tmp/ccNzw1my.s:98671  .debug_str:0000000000029e9f .LASF2754
     /tmp/ccNzw1my.s:98017  .debug_str:00000000000274bb .LASF2755
     /tmp/ccNzw1my.s:92643  .debug_str:00000000000113b5 .LASF2756
     /tmp/ccNzw1my.s:106231  .debug_str:0000000000048af0 .LASF2757
     /tmp/ccNzw1my.s:102739  .debug_str:000000000003a328 .LASF2758
     /tmp/ccNzw1my.s:103983  .debug_str:000000000003f6ef .LASF2759
     /tmp/ccNzw1my.s:91747  .debug_str:000000000000e092 .LASF2760
     /tmp/ccNzw1my.s:95035  .debug_str:000000000001b098 .LASF2761
     /tmp/ccNzw1my.s:105265  .debug_str:0000000000044acc .LASF2762
     /tmp/ccNzw1my.s:88541  .debug_str:000000000000077e .LASF2763
     /tmp/ccNzw1my.s:101141  .debug_str:00000000000341c3 .LASF2764
     /tmp/ccNzw1my.s:96283  .debug_str:0000000000020741 .LASF2765
     /tmp/ccNzw1my.s:98239  .debug_str:0000000000028367 .LASF2766
     /tmp/ccNzw1my.s:96547  .debug_str:0000000000021892 .LASF2767
     /tmp/ccNzw1my.s:94379  .debug_str:0000000000018311 .LASF2768
     /tmp/ccNzw1my.s:89229  .debug_str:00000000000036e3 .LASF2769
     /tmp/ccNzw1my.s:103461  .debug_str:000000000003d342 .LASF2770
     /tmp/ccNzw1my.s:101579  .debug_str:0000000000035de2 .LASF2771
     /tmp/ccNzw1my.s:94633  .debug_str:000000000001942c .LASF2772
     /tmp/ccNzw1my.s:104137  .debug_str:0000000000040122 .LASF2773
     /tmp/ccNzw1my.s:97309  .debug_str:0000000000024717 .LASF2774
     /tmp/ccNzw1my.s:96227  .debug_str:0000000000020349 .LASF2775
     /tmp/ccNzw1my.s:107313  .debug_str:000000000004d6fa .LASF2776
     /tmp/ccNzw1my.s:88511  .debug_str:000000000000056f .LASF2777
     /tmp/ccNzw1my.s:105079  .debug_str:0000000000043f06 .LASF2778
     /tmp/ccNzw1my.s:98043  .debug_str:00000000000276de .LASF2779
     /tmp/ccNzw1my.s:103159  .debug_str:000000000003c00e .LASF2780
     /tmp/ccNzw1my.s:103341  .debug_str:000000000003cbeb .LASF2781
     /tmp/ccNzw1my.s:103279  .debug_str:000000000003c7a3 .LASF2782
     /tmp/ccNzw1my.s:105783  .debug_str:0000000000046d71 .LASF2783
     /tmp/ccNzw1my.s:101029  .debug_str:0000000000033995 .LASF2784
     /tmp/ccNzw1my.s:96123  .debug_str:000000000001fca7 .LASF2785
     /tmp/ccNzw1my.s:89001  .debug_str:000000000000275c .LASF2786
     /tmp/ccNzw1my.s:105351  .debug_str:0000000000045014 .LASF2787
     /tmp/ccNzw1my.s:100061  .debug_str:000000000002fa40 .LASF2788
     /tmp/ccNzw1my.s:100065  .debug_str:000000000002fa93 .LASF2789
     /tmp/ccNzw1my.s:96895  .debug_str:0000000000022f3b .LASF2790
     /tmp/ccNzw1my.s:103993  .debug_str:000000000003f7af .LASF2791
     /tmp/ccNzw1my.s:89939  .debug_str:0000000000006718 .LASF2792
     /tmp/ccNzw1my.s:93483  .debug_str:00000000000149c9 .LASF2793
     /tmp/ccNzw1my.s:90399  .debug_str:000000000000865a .LASF2794
     /tmp/ccNzw1my.s:99179  .debug_str:000000000002bf59 .LASF2795
     /tmp/ccNzw1my.s:105039  .debug_str:0000000000043c46 .LASF2796
     /tmp/ccNzw1my.s:103799  .debug_str:000000000003e8e9 .LASF2797
     /tmp/ccNzw1my.s:88557  .debug_str:000000000000088f .LASF2798
     /tmp/ccNzw1my.s:100347  .debug_str:0000000000030cb0 .LASF2799
     /tmp/ccNzw1my.s:90403  .debug_str:00000000000086a3 .LASF2800
     /tmp/ccNzw1my.s:98895  .debug_str:000000000002ad7f .LASF2801
     /tmp/ccNzw1my.s:99899  .debug_str:000000000002ef6f .LASF2802
     /tmp/ccNzw1my.s:103449  .debug_str:000000000003d25f .LASF2803
     /tmp/ccNzw1my.s:101753  .debug_str:00000000000368c0 .LASF2804
     /tmp/ccNzw1my.s:89157  .debug_str:00000000000032bd .LASF2805
     /tmp/ccNzw1my.s:99011  .debug_str:000000000002b51f .LASF2806
     /tmp/ccNzw1my.s:100057  .debug_str:000000000002f9ee .LASF2807
     /tmp/ccNzw1my.s:95013  .debug_str:000000000001af06 .LASF2808
     /tmp/ccNzw1my.s:93553  .debug_str:0000000000014dee .LASF2809
     /tmp/ccNzw1my.s:101437  .debug_str:00000000000354e7 .LASF2810
     /tmp/ccNzw1my.s:104533  .debug_str:0000000000041c4b .LASF2811
     /tmp/ccNzw1my.s:103343  .debug_str:000000000003cc2c .LASF2812
     /tmp/ccNzw1my.s:95925  .debug_str:000000000001ed6c .LASF2813
     /tmp/ccNzw1my.s:104913  .debug_str:0000000000043471 .LASF2814
     /tmp/ccNzw1my.s:106253  .debug_str:0000000000048c7a .LASF2815
     /tmp/ccNzw1my.s:96079  .debug_str:000000000001fa24 .LASF2816
     /tmp/ccNzw1my.s:94097  .debug_str:0000000000017247 .LASF2817
     /tmp/ccNzw1my.s:106135  .debug_str:00000000000483ad .LASF2818
     /tmp/ccNzw1my.s:102079  .debug_str:0000000000037974 .LASF2819
     /tmp/ccNzw1my.s:95199  .debug_str:000000000001bc68 .LASF2820
     /tmp/ccNzw1my.s:104651  .debug_str:00000000000423fe .LASF2821
     /tmp/ccNzw1my.s:98519  .debug_str:0000000000029517 .LASF2822
     /tmp/ccNzw1my.s:93089  .debug_str:00000000000131f2 .LASF2823
     /tmp/ccNzw1my.s:98585  .debug_str:0000000000029969 .LASF2824
     /tmp/ccNzw1my.s:105417  .debug_str:0000000000045452 .LASF2825
     /tmp/ccNzw1my.s:104375  .debug_str:000000000004110b .LASF2826
     /tmp/ccNzw1my.s:92723  .debug_str:000000000001196b .LASF2827
     /tmp/ccNzw1my.s:104641  .debug_str:000000000004235f .LASF2828
     /tmp/ccNzw1my.s:92731  .debug_str:0000000000011a07 .LASF2829
     /tmp/ccNzw1my.s:92835  .debug_str:00000000000120b0 .LASF2830
     /tmp/ccNzw1my.s:96369  .debug_str:0000000000020d6c .LASF2831
     /tmp/ccNzw1my.s:104223  .debug_str:0000000000040777 .LASF2832
     /tmp/ccNzw1my.s:89671  .debug_str:0000000000005590 .LASF2833
     /tmp/ccNzw1my.s:107011  .debug_str:000000000004c272 .LASF2834
     /tmp/ccNzw1my.s:100615  .debug_str:0000000000031f33 .LASF2835
     /tmp/ccNzw1my.s:91303  .debug_str:000000000000c4c4 .LASF2836
     /tmp/ccNzw1my.s:98337  .debug_str:00000000000289fe .LASF2837
     /tmp/ccNzw1my.s:102885  .debug_str:000000000003ad71 .LASF2838
     /tmp/ccNzw1my.s:96033  .debug_str:000000000001f5ac .LASF2839
     /tmp/ccNzw1my.s:88989  .debug_str:0000000000002648 .LASF2840
     /tmp/ccNzw1my.s:90313  .debug_str:000000000000809d .LASF2841
     /tmp/ccNzw1my.s:100177  .debug_str:000000000003016c .LASF2842
     /tmp/ccNzw1my.s:104527  .debug_str:0000000000041bcb .LASF2843
     /tmp/ccNzw1my.s:102579  .debug_str:000000000003986a .LASF2844
     /tmp/ccNzw1my.s:102575  .debug_str:0000000000039826 .LASF2845
     /tmp/ccNzw1my.s:99757  .debug_str:000000000002e608 .LASF2846
     /tmp/ccNzw1my.s:95185  .debug_str:000000000001bb6c .LASF2847
     /tmp/ccNzw1my.s:89971  .debug_str:000000000000693d .LASF2848
     /tmp/ccNzw1my.s:103181  .debug_str:000000000003c15b .LASF2849
     /tmp/ccNzw1my.s:89765  .debug_str:0000000000005c1b .LASF2850
     /tmp/ccNzw1my.s:95645  .debug_str:000000000001da93 .LASF2851
     /tmp/ccNzw1my.s:95303  .debug_str:000000000001c2a3 .LASF2852
     /tmp/ccNzw1my.s:92487  .debug_str:0000000000010966 .LASF2853
     /tmp/ccNzw1my.s:99259  .debug_str:000000000002c4c8 .LASF2854
     /tmp/ccNzw1my.s:103319  .debug_str:000000000003ca56 .LASF2855
     /tmp/ccNzw1my.s:94181  .debug_str:000000000001770a .LASF2856
     /tmp/ccNzw1my.s:98941  .debug_str:000000000002b09a .LASF2857
     /tmp/ccNzw1my.s:100409  .debug_str:0000000000031141 .LASF2858
     /tmp/ccNzw1my.s:96697  .debug_str:000000000002221a .LASF2859
     /tmp/ccNzw1my.s:88825  .debug_str:0000000000001ad3 .LASF2860
     /tmp/ccNzw1my.s:92363  .debug_str:0000000000010253 .LASF2861
     /tmp/ccNzw1my.s:96063  .debug_str:000000000001f8b0 .LASF2862
     /tmp/ccNzw1my.s:91129  .debug_str:000000000000b960 .LASF2863
     /tmp/ccNzw1my.s:104329  .debug_str:0000000000040daf .LASF2864
     /tmp/ccNzw1my.s:90321  .debug_str:0000000000008136 .LASF2865
     /tmp/ccNzw1my.s:91271  .debug_str:000000000000c2aa .LASF2866
     /tmp/ccNzw1my.s:95051  .debug_str:000000000001b1d2 .LASF2867
     /tmp/ccNzw1my.s:90715  .debug_str:0000000000009bd4 .LASF2868
     /tmp/ccNzw1my.s:103315  .debug_str:000000000003c9f8 .LASF2869
     /tmp/ccNzw1my.s:93299  .debug_str:0000000000013ed9 .LASF2870
     /tmp/ccNzw1my.s:92629  .debug_str:00000000000112b2 .LASF2871
     /tmp/ccNzw1my.s:97867  .debug_str:0000000000026aa3 .LASF2872
     /tmp/ccNzw1my.s:90299  .debug_str:0000000000007f75 .LASF2873
     /tmp/ccNzw1my.s:89245  .debug_str:0000000000003822 .LASF2874
     /tmp/ccNzw1my.s:101021  .debug_str:0000000000033912 .LASF2875
     /tmp/ccNzw1my.s:99677  .debug_str:000000000002e168 .LASF2876
     /tmp/ccNzw1my.s:106897  .debug_str:000000000004ba11 .LASF2877
     /tmp/ccNzw1my.s:107267  .debug_str:000000000004d3d9 .LASF2878
     /tmp/ccNzw1my.s:94885  .debug_str:000000000001a64d .LASF2879
     /tmp/ccNzw1my.s:89977  .debug_str:00000000000069c7 .LASF2880
     /tmp/ccNzw1my.s:104193  .debug_str:0000000000040535 .LASF2881
     /tmp/ccNzw1my.s:90481  .debug_str:0000000000008c28 .LASF2882
     /tmp/ccNzw1my.s:106789  .debug_str:000000000004b1f8 .LASF2883
     /tmp/ccNzw1my.s:90923  .debug_str:000000000000a9c8 .LASF2884
     /tmp/ccNzw1my.s:103041  .debug_str:000000000003b7d2 .LASF2885
     /tmp/ccNzw1my.s:98113  .debug_str:0000000000027b63 .LASF2886
     /tmp/ccNzw1my.s:92967  .debug_str:00000000000129d5 .LASF2887
     /tmp/ccNzw1my.s:104147  .debug_str:00000000000401e6 .LASF2888
     /tmp/ccNzw1my.s:102569  .debug_str:000000000003978c .LASF2889
     /tmp/ccNzw1my.s:97615  .debug_str:0000000000025a1f .LASF2890
     /tmp/ccNzw1my.s:101049  .debug_str:0000000000033af1 .LASF2891
     /tmp/ccNzw1my.s:105129  .debug_str:0000000000044245 .LASF2892
     /tmp/ccNzw1my.s:102787  .debug_str:000000000003a6c9 .LASF2893
     /tmp/ccNzw1my.s:89999  .debug_str:0000000000006bac .LASF2894
     /tmp/ccNzw1my.s:105649  .debug_str:00000000000463eb .LASF2895
     /tmp/ccNzw1my.s:102839  .debug_str:000000000003aa89 .LASF2896
     /tmp/ccNzw1my.s:94013  .debug_str:0000000000016be1 .LASF2897
     /tmp/ccNzw1my.s:95607  .debug_str:000000000001d7cc .LASF2898
     /tmp/ccNzw1my.s:90795  .debug_str:000000000000a0d5 .LASF2899
     /tmp/ccNzw1my.s:93301  .debug_str:0000000000013f17 .LASF2900
     /tmp/ccNzw1my.s:93559  .debug_str:0000000000014e7d .LASF2901
     /tmp/ccNzw1my.s:91405  .debug_str:000000000000cbb9 .LASF2902
     /tmp/ccNzw1my.s:103873  .debug_str:000000000003ee87 .LASF2903
     /tmp/ccNzw1my.s:106731  .debug_str:000000000004acea .LASF2904
     /tmp/ccNzw1my.s:98691  .debug_str:000000000002a0a0 .LASF2905
     /tmp/ccNzw1my.s:106227  .debug_str:0000000000048aa2 .LASF2906
     /tmp/ccNzw1my.s:88913  .debug_str:0000000000002118 .LASF2907
     /tmp/ccNzw1my.s:92673  .debug_str:00000000000115ba .LASF2908
     /tmp/ccNzw1my.s:100357  .debug_str:0000000000030dc8 .LASF2909
     /tmp/ccNzw1my.s:105973  .debug_str:0000000000047981 .LASF2910
     /tmp/ccNzw1my.s:98003  .debug_str:00000000000273a5 .LASF2911
     /tmp/ccNzw1my.s:103929  .debug_str:000000000003f2a3 .LASF2912
     /tmp/ccNzw1my.s:100619  .debug_str:0000000000031f7e .LASF2913
     /tmp/ccNzw1my.s:89509  .debug_str:0000000000004a89 .LASF2914
     /tmp/ccNzw1my.s:92437  .debug_str:00000000000106ab .LASF2915
     /tmp/ccNzw1my.s:95915  .debug_str:000000000001ec9f .LASF2916
     /tmp/ccNzw1my.s:94681  .debug_str:00000000000197c7 .LASF2917
     /tmp/ccNzw1my.s:106853  .debug_str:000000000004b755 .LASF2918
     /tmp/ccNzw1my.s:95347  .debug_str:000000000001c5e5 .LASF2919
     /tmp/ccNzw1my.s:102373  .debug_str:0000000000038a20 .LASF2920
     /tmp/ccNzw1my.s:102293  .debug_str:00000000000384d8 .LASF2921
     /tmp/ccNzw1my.s:90851  .debug_str:000000000000a4f0 .LASF2922
     /tmp/ccNzw1my.s:96367  .debug_str:0000000000020d20 .LASF2923
     /tmp/ccNzw1my.s:101583  .debug_str:0000000000035e4d .LASF2924
     /tmp/ccNzw1my.s:99645  .debug_str:000000000002defc .LASF2925
     /tmp/ccNzw1my.s:102909  .debug_str:000000000003aefc .LASF2926
     /tmp/ccNzw1my.s:106629  .debug_str:000000000004a68d .LASF2927
     /tmp/ccNzw1my.s:103567  .debug_str:000000000003d9fd .LASF2928
     /tmp/ccNzw1my.s:101747  .debug_str:0000000000036830 .LASF2929
     /tmp/ccNzw1my.s:94757  .debug_str:0000000000019d6e .LASF2930
     /tmp/ccNzw1my.s:95757  .debug_str:000000000001e19b .LASF2931
     /tmp/ccNzw1my.s:104901  .debug_str:000000000004338a .LASF2932
     /tmp/ccNzw1my.s:91553  .debug_str:000000000000d516 .LASF2933
     /tmp/ccNzw1my.s:102795  .debug_str:000000000003a76a .LASF2934
     /tmp/ccNzw1my.s:102069  .debug_str:00000000000378dd .LASF2935
     /tmp/ccNzw1my.s:93917  .debug_str:0000000000016573 .LASF2936
     /tmp/ccNzw1my.s:93421  .debug_str:00000000000145db .LASF2937
     /tmp/ccNzw1my.s:100509  .debug_str:0000000000031829 .LASF2938
     /tmp/ccNzw1my.s:103773  .debug_str:000000000003e6da .LASF2939
     /tmp/ccNzw1my.s:95211  .debug_str:000000000001bd40 .LASF2940
     /tmp/ccNzw1my.s:102799  .debug_str:000000000003a7b6 .LASF2941
     /tmp/ccNzw1my.s:103179  .debug_str:000000000003c118 .LASF2942
     /tmp/ccNzw1my.s:95119  .debug_str:000000000001b6f7 .LASF2943
     /tmp/ccNzw1my.s:103909  .debug_str:000000000003f113 .LASF2944
     /tmp/ccNzw1my.s:105535  .debug_str:0000000000045cbc .LASF2945
     /tmp/ccNzw1my.s:99629  .debug_str:000000000002ddda .LASF2946
     /tmp/ccNzw1my.s:93565  .debug_str:0000000000014f07 .LASF2947
     /tmp/ccNzw1my.s:90189  .debug_str:0000000000007843 .LASF2948
     /tmp/ccNzw1my.s:99699  .debug_str:000000000002e290 .LASF2949
     /tmp/ccNzw1my.s:91259  .debug_str:000000000000c1b4 .LASF2950
     /tmp/ccNzw1my.s:103211  .debug_str:000000000003c343 .LASF2951
     /tmp/ccNzw1my.s:98141  .debug_str:0000000000027db5 .LASF2952
     /tmp/ccNzw1my.s:104323  .debug_str:0000000000040d0d .LASF2953
     /tmp/ccNzw1my.s:93067  .debug_str:0000000000013070 .LASF2954
     /tmp/ccNzw1my.s:104381  .debug_str:000000000004118d .LASF2955
     /tmp/ccNzw1my.s:96951  .debug_str:0000000000023360 .LASF2956
     /tmp/ccNzw1my.s:105425  .debug_str:0000000000045504 .LASF2957
     /tmp/ccNzw1my.s:101869  .debug_str:0000000000036e4d .LASF2958
     /tmp/ccNzw1my.s:98659  .debug_str:0000000000029dca .LASF2959
     /tmp/ccNzw1my.s:99717  .debug_str:000000000002e3b7 .LASF2960
     /tmp/ccNzw1my.s:107053  .debug_str:000000000004c4f7 .LASF2961
     /tmp/ccNzw1my.s:89933  .debug_str:000000000000669b .LASF2962
     /tmp/ccNzw1my.s:100901  .debug_str:0000000000033155 .LASF2963
     /tmp/ccNzw1my.s:105547  .debug_str:0000000000045d92 .LASF2964
     /tmp/ccNzw1my.s:96057  .debug_str:000000000001f813 .LASF2965
     /tmp/ccNzw1my.s:95723  .debug_str:000000000001df25 .LASF2966
     /tmp/ccNzw1my.s:104921  .debug_str:000000000004350b .LASF2967
     /tmp/ccNzw1my.s:90447  .debug_str:0000000000008982 .LASF2968
     /tmp/ccNzw1my.s:102037  .debug_str:00000000000376f3 .LASF2969
     /tmp/ccNzw1my.s:95439  .debug_str:000000000001cbfe .LASF2970
     /tmp/ccNzw1my.s:92445  .debug_str:0000000000010763 .LASF2971
     /tmp/ccNzw1my.s:102913  .debug_str:000000000003af55 .LASF2972
     /tmp/ccNzw1my.s:93733  .debug_str:0000000000015942 .LASF2973
     /tmp/ccNzw1my.s:106843  .debug_str:000000000004b682 .LASF2974
     /tmp/ccNzw1my.s:98751  .debug_str:000000000002a4a4 .LASF2975
     /tmp/ccNzw1my.s:92121  .debug_str:000000000000f4ff .LASF2976
     /tmp/ccNzw1my.s:99565  .debug_str:000000000002d916 .LASF2977
     /tmp/ccNzw1my.s:97089  .debug_str:0000000000023c33 .LASF2978
     /tmp/ccNzw1my.s:89943  .debug_str:0000000000006779 .LASF2979
     /tmp/ccNzw1my.s:94689  .debug_str:0000000000019887 .LASF2980
     /tmp/ccNzw1my.s:94751  .debug_str:0000000000019d04 .LASF2981
     /tmp/ccNzw1my.s:95015  .debug_str:000000000001af49 .LASF2982
     /tmp/ccNzw1my.s:99441  .debug_str:000000000002d10e .LASF2983
     /tmp/ccNzw1my.s:90607  .debug_str:000000000000948e .LASF2984
     /tmp/ccNzw1my.s:102657  .debug_str:0000000000039cde .LASF2985
     /tmp/ccNzw1my.s:89981  .debug_str:0000000000006a40 .LASF2986
     /tmp/ccNzw1my.s:96429  .debug_str:000000000002112f .LASF2987
     /tmp/ccNzw1my.s:99777  .debug_str:000000000002e771 .LASF2988
     /tmp/ccNzw1my.s:93625  .debug_str:000000000001537d .LASF2989
     /tmp/ccNzw1my.s:91033  .debug_str:000000000000b1c4 .LASF2990
     /tmp/ccNzw1my.s:103741  .debug_str:000000000003e53a .LASF2991
     /tmp/ccNzw1my.s:90405  .debug_str:00000000000086e4 .LASF2992
     /tmp/ccNzw1my.s:94927  .debug_str:000000000001a91e .LASF2993
     /tmp/ccNzw1my.s:104415  .debug_str:0000000000041390 .LASF2994
     /tmp/ccNzw1my.s:100569  .debug_str:0000000000031c31 .LASF2995
     /tmp/ccNzw1my.s:95809  .debug_str:000000000001e5ad .LASF2996
     /tmp/ccNzw1my.s:105353  .debug_str:0000000000045055 .LASF2997
     /tmp/ccNzw1my.s:97611  .debug_str:00000000000259cd .LASF2998
     /tmp/ccNzw1my.s:101879  .debug_str:0000000000036f2a .LASF2999
     /tmp/ccNzw1my.s:97775  .debug_str:0000000000026411 .LASF3000
     /tmp/ccNzw1my.s:93005  .debug_str:0000000000012cda .LASF3001
     /tmp/ccNzw1my.s:96717  .debug_str:00000000000223a8 .LASF3002
     /tmp/ccNzw1my.s:101009  .debug_str:0000000000033841 .LASF3003
     /tmp/ccNzw1my.s:89111  .debug_str:0000000000002f99 .LASF3004
     /tmp/ccNzw1my.s:101055  .debug_str:0000000000033b65 .LASF3005
     /tmp/ccNzw1my.s:88577  .debug_str:00000000000009e2 .LASF3006
     /tmp/ccNzw1my.s:95977  .debug_str:000000000001f1cf .LASF3007
     /tmp/ccNzw1my.s:98415  .debug_str:0000000000028f15 .LASF3008
     /tmp/ccNzw1my.s:89801  .debug_str:0000000000005e58 .LASF3009
     /tmp/ccNzw1my.s:95101  .debug_str:000000000001b557 .LASF3010
     /tmp/ccNzw1my.s:95355  .debug_str:000000000001c665 .LASF3011
     /tmp/ccNzw1my.s:89649  .debug_str:00000000000053cf .LASF3012
     /tmp/ccNzw1my.s:94385  .debug_str:0000000000018395 .LASF3013
     /tmp/ccNzw1my.s:100165  .debug_str:000000000003007b .LASF3014
     /tmp/ccNzw1my.s:103339  .debug_str:000000000003cba0 .LASF3015
     /tmp/ccNzw1my.s:95087  .debug_str:000000000001b45e .LASF3016
     /tmp/ccNzw1my.s:99597  .debug_str:000000000002db3c .LASF3017
     /tmp/ccNzw1my.s:94195  .debug_str:000000000001783f .LASF3018
     /tmp/ccNzw1my.s:105743  .debug_str:0000000000046a64 .LASF3019
     /tmp/ccNzw1my.s:106491  .debug_str:0000000000049ca5 .LASF3020
     /tmp/ccNzw1my.s:97781  .debug_str:000000000002648d .LASF3021
     /tmp/ccNzw1my.s:98149  .debug_str:0000000000027e72 .LASF3022
     /tmp/ccNzw1my.s:90797  .debug_str:000000000000a11c .LASF3023
     /tmp/ccNzw1my.s:106269  .debug_str:0000000000048d99 .LASF3024
     /tmp/ccNzw1my.s:107189  .debug_str:000000000004cdfe .LASF3025
     /tmp/ccNzw1my.s:101669  .debug_str:0000000000036381 .LASF3026
     /tmp/ccNzw1my.s:100365  .debug_str:0000000000030e60 .LASF3027
     /tmp/ccNzw1my.s:96809  .debug_str:0000000000022a19 .LASF3028
     /tmp/ccNzw1my.s:102329  .debug_str:000000000003872f .LASF3029
     /tmp/ccNzw1my.s:92105  .debug_str:000000000000f3b6 .LASF3030
     /tmp/ccNzw1my.s:92525  .debug_str:0000000000010c1b .LASF3031
     /tmp/ccNzw1my.s:90063  .debug_str:0000000000007086 .LASF3032
     /tmp/ccNzw1my.s:92317  .debug_str:000000000000ffd4 .LASF3033
     /tmp/ccNzw1my.s:102689  .debug_str:0000000000039f69 .LASF3034
     /tmp/ccNzw1my.s:99509  .debug_str:000000000002d5b4 .LASF3035
     /tmp/ccNzw1my.s:88873  .debug_str:0000000000001dfc .LASF3036
     /tmp/ccNzw1my.s:94409  .debug_str:0000000000018556 .LASF3037
     /tmp/ccNzw1my.s:92877  .debug_str:00000000000123b1 .LASF3038
     /tmp/ccNzw1my.s:99625  .debug_str:000000000002dd62 .LASF3039
     /tmp/ccNzw1my.s:90339  .debug_str:0000000000008290 .LASF3040
     /tmp/ccNzw1my.s:104451  .debug_str:00000000000416de .LASF3041
     /tmp/ccNzw1my.s:103493  .debug_str:000000000003d593 .LASF3042
     /tmp/ccNzw1my.s:104847  .debug_str:0000000000043083 .LASF3043
     /tmp/ccNzw1my.s:100581  .debug_str:0000000000031cf7 .LASF3044
     /tmp/ccNzw1my.s:96291  .debug_str:00000000000207cb .LASF3045
     /tmp/ccNzw1my.s:96191  .debug_str:0000000000020080 .LASF3046
     /tmp/ccNzw1my.s:90589  .debug_str:0000000000009322 .LASF3047
     /tmp/ccNzw1my.s:89705  .debug_str:000000000000585c .LASF3048
     /tmp/ccNzw1my.s:103959  .debug_str:000000000003f4fc .LASF3049
     /tmp/ccNzw1my.s:105389  .debug_str:0000000000045270 .LASF3050
     /tmp/ccNzw1my.s:95379  .debug_str:000000000001c7ec .LASF3051
     /tmp/ccNzw1my.s:93793  .debug_str:0000000000015d30 .LASF3052
     /tmp/ccNzw1my.s:105737  .debug_str:00000000000469ee .LASF3053
     /tmp/ccNzw1my.s:103905  .debug_str:000000000003f0ae .LASF3054
     /tmp/ccNzw1my.s:98409  .debug_str:0000000000028e6c .LASF3055
     /tmp/ccNzw1my.s:102125  .debug_str:0000000000037b74 .LASF3056
     /tmp/ccNzw1my.s:89743  .debug_str:0000000000005aab .LASF3057
     /tmp/ccNzw1my.s:89319  .debug_str:0000000000003cd1 .LASF3058
     /tmp/ccNzw1my.s:94975  .debug_str:000000000001abf9 .LASF3059
     /tmp/ccNzw1my.s:99533  .debug_str:000000000002d72b .LASF3060
     /tmp/ccNzw1my.s:91473  .debug_str:000000000000d04b .LASF3061
     /tmp/ccNzw1my.s:90539  .debug_str:000000000000901e .LASF3062
     /tmp/ccNzw1my.s:90437  .debug_str:00000000000088aa .LASF3063
     /tmp/ccNzw1my.s:104525  .debug_str:0000000000041b88 .LASF3064
     /tmp/ccNzw1my.s:100723  .debug_str:0000000000032586 .LASF3065
     /tmp/ccNzw1my.s:98331  .debug_str:0000000000028987 .LASF3066
     /tmp/ccNzw1my.s:94987  .debug_str:000000000001acf9 .LASF3067
     /tmp/ccNzw1my.s:92321  .debug_str:0000000000010020 .LASF3068
     /tmp/ccNzw1my.s:103425  .debug_str:000000000003d0c1 .LASF3069
     /tmp/ccNzw1my.s:96065  .debug_str:000000000001f8f9 .LASF3070
     /tmp/ccNzw1my.s:90463  .debug_str:0000000000008ae9 .LASF3071
     /tmp/ccNzw1my.s:95183  .debug_str:000000000001bb2b .LASF3072
     /tmp/ccNzw1my.s:96929  .debug_str:00000000000231e2 .LASF3073
     /tmp/ccNzw1my.s:101551  .debug_str:0000000000035bb6 .LASF3074
     /tmp/ccNzw1my.s:93701  .debug_str:000000000001574d .LASF3075
     /tmp/ccNzw1my.s:104031  .debug_str:000000000003f9d0 .LASF3076
     /tmp/ccNzw1my.s:105045  .debug_str:0000000000043caf .LASF3077
     /tmp/ccNzw1my.s:102757  .debug_str:000000000003a485 .LASF3078
     /tmp/ccNzw1my.s:105953  .debug_str:0000000000047815 .LASF3079
     /tmp/ccNzw1my.s:102409  .debug_str:0000000000038c9f .LASF3080
     /tmp/ccNzw1my.s:101329  .debug_str:0000000000034e42 .LASF3081
     /tmp/ccNzw1my.s:92603  .debug_str:000000000001109d .LASF3082
     /tmp/ccNzw1my.s:96519  .debug_str:00000000000216b8 .LASF3083
     /tmp/ccNzw1my.s:101913  .debug_str:0000000000037165 .LASF3084
     /tmp/ccNzw1my.s:92795  .debug_str:0000000000011e68 .LASF3085
     /tmp/ccNzw1my.s:90455  .debug_str:0000000000008a37 .LASF3086
     /tmp/ccNzw1my.s:107069  .debug_str:000000000004c63c .LASF3087
     /tmp/ccNzw1my.s:102045  .debug_str:000000000003776c .LASF3088
     /tmp/ccNzw1my.s:102505  .debug_str:0000000000039305 .LASF3089
     /tmp/ccNzw1my.s:94473  .debug_str:00000000000189a0 .LASF3090
     /tmp/ccNzw1my.s:97597  .debug_str:00000000000258db .LASF3091
     /tmp/ccNzw1my.s:89621  .debug_str:000000000000518c .LASF3092
     /tmp/ccNzw1my.s:102667  .debug_str:0000000000039dae .LASF3093
     /tmp/ccNzw1my.s:89439  .debug_str:0000000000004584 .LASF3094
     /tmp/ccNzw1my.s:105123  .debug_str:00000000000441b7 .LASF3095
     /tmp/ccNzw1my.s:97549  .debug_str:000000000002555f .LASF3096
     /tmp/ccNzw1my.s:98041  .debug_str:000000000002769e .LASF3097
     /tmp/ccNzw1my.s:103155  .debug_str:000000000003bf9e .LASF3098
     /tmp/ccNzw1my.s:91275  .debug_str:000000000000c308 .LASF3099
     /tmp/ccNzw1my.s:91333  .debug_str:000000000000c6f6 .LASF3100
     /tmp/ccNzw1my.s:105849  .debug_str:00000000000471e5 .LASF3101
     /tmp/ccNzw1my.s:106865  .debug_str:000000000004b829 .LASF3102
     /tmp/ccNzw1my.s:103571  .debug_str:000000000003da6a .LASF3103
     /tmp/ccNzw1my.s:93133  .debug_str:0000000000013488 .LASF3104
     /tmp/ccNzw1my.s:93755  .debug_str:0000000000015af5 .LASF3105
     /tmp/ccNzw1my.s:101677  .debug_str:000000000003643c .LASF3106
     /tmp/ccNzw1my.s:105049  .debug_str:0000000000043d29 .LASF3107
     /tmp/ccNzw1my.s:103681  .debug_str:000000000003e123 .LASF3108
     /tmp/ccNzw1my.s:106655  .debug_str:000000000004a834 .LASF3109
     /tmp/ccNzw1my.s:89107  .debug_str:0000000000002f45 .LASF3110
     /tmp/ccNzw1my.s:102405  .debug_str:0000000000038c4f .LASF3111
     /tmp/ccNzw1my.s:99543  .debug_str:000000000002d7d5 .LASF3112
     /tmp/ccNzw1my.s:102993  .debug_str:000000000003b4f4 .LASF3113
     /tmp/ccNzw1my.s:90805  .debug_str:000000000000a1c5 .LASF3114
     /tmp/ccNzw1my.s:93957  .debug_str:0000000000016801 .LASF3115
     /tmp/ccNzw1my.s:104103  .debug_str:000000000003fe8a .LASF3116
     /tmp/ccNzw1my.s:95803  .debug_str:000000000001e549 .LASF3117
     /tmp/ccNzw1my.s:102613  .debug_str:0000000000039a5d .LASF3118
     /tmp/ccNzw1my.s:105903  .debug_str:0000000000047546 .LASF3119
     /tmp/ccNzw1my.s:93955  .debug_str:00000000000167c6 .LASF3120
     /tmp/ccNzw1my.s:97075  .debug_str:0000000000023b62 .LASF3121
     /tmp/ccNzw1my.s:104305  .debug_str:0000000000040b98 .LASF3122
     /tmp/ccNzw1my.s:107207  .debug_str:000000000004cf7f .LASF3123
     /tmp/ccNzw1my.s:104843  .debug_str:0000000000043029 .LASF3124
     /tmp/ccNzw1my.s:96271  .debug_str:000000000002065e .LASF3125
     /tmp/ccNzw1my.s:95063  .debug_str:000000000001b2dc .LASF3126
     /tmp/ccNzw1my.s:101223  .debug_str:0000000000034709 .LASF3127
     /tmp/ccNzw1my.s:88509  .debug_str:0000000000000530 .LASF3128
     /tmp/ccNzw1my.s:100989  .debug_str:00000000000336b1 .LASF3129
     /tmp/ccNzw1my.s:98787  .debug_str:000000000002a64f .LASF3130
     /tmp/ccNzw1my.s:99183  .debug_str:000000000002bfa9 .LASF3131
     /tmp/ccNzw1my.s:104997  .debug_str:0000000000043967 .LASF3132
     /tmp/ccNzw1my.s:102609  .debug_str:0000000000039a0a .LASF3133
     /tmp/ccNzw1my.s:100773  .debug_str:00000000000328ab .LASF3134
     /tmp/ccNzw1my.s:89565  .debug_str:0000000000004e0b .LASF3135
     /tmp/ccNzw1my.s:106831  .debug_str:000000000004b588 .LASF3136
     /tmp/ccNzw1my.s:92767  .debug_str:0000000000011cb5 .LASF3137
     /tmp/ccNzw1my.s:100171  .debug_str:0000000000030109 .LASF3138
     /tmp/ccNzw1my.s:94273  .debug_str:0000000000017d36 .LASF3139
     /tmp/ccNzw1my.s:106265  .debug_str:0000000000048d4a .LASF3140
     /tmp/ccNzw1my.s:93815  .debug_str:0000000000015ead .LASF3141
     /tmp/ccNzw1my.s:99365  .debug_str:000000000002cc13 .LASF3142
     /tmp/ccNzw1my.s:105271  .debug_str:0000000000044b31 .LASF3143
     /tmp/ccNzw1my.s:101135  .debug_str:0000000000034142 .LASF3144
     /tmp/ccNzw1my.s:97783  .debug_str:00000000000264d4 .LASF3145
     /tmp/ccNzw1my.s:98425  .debug_str:0000000000028f9d .LASF3146
     /tmp/ccNzw1my.s:96899  .debug_str:0000000000022fa0 .LASF3147
     /tmp/ccNzw1my.s:93569  .debug_str:0000000000014f5e .LASF3148
     /tmp/ccNzw1my.s:106127  .debug_str:0000000000048313 .LASF3149
     /tmp/ccNzw1my.s:88889  .debug_str:0000000000001f15 .LASF3150
     /tmp/ccNzw1my.s:96485  .debug_str:00000000000214f0 .LASF3151
     /tmp/ccNzw1my.s:103191  .debug_str:000000000003c1f1 .LASF3152
     /tmp/ccNzw1my.s:105707  .debug_str:00000000000467c8 .LASF3153
     /tmp/ccNzw1my.s:90117  .debug_str:00000000000073d0 .LASF3154
     /tmp/ccNzw1my.s:105689  .debug_str:000000000004666f .LASF3155
     /tmp/ccNzw1my.s:101351  .debug_str:0000000000034f9a .LASF3156
     /tmp/ccNzw1my.s:93983  .debug_str:00000000000169ec .LASF3157
     /tmp/ccNzw1my.s:91383  .debug_str:000000000000ca0a .LASF3158
     /tmp/ccNzw1my.s:98301  .debug_str:000000000002877e .LASF3159
     /tmp/ccNzw1my.s:89815  .debug_str:0000000000005f4b .LASF3160
     /tmp/ccNzw1my.s:104627  .debug_str:0000000000042237 .LASF3161
     /tmp/ccNzw1my.s:104367  .debug_str:0000000000041057 .LASF3162
     /tmp/ccNzw1my.s:90457  .debug_str:0000000000008a7b .LASF3163
     /tmp/ccNzw1my.s:102281  .debug_str:00000000000383c3 .LASF3164
     /tmp/ccNzw1my.s:92081  .debug_str:000000000000f1cd .LASF3165
     /tmp/ccNzw1my.s:90779  .debug_str:0000000000009fa9 .LASF3166
     /tmp/ccNzw1my.s:107183  .debug_str:000000000004cd55 .LASF3167
     /tmp/ccNzw1my.s:94509  .debug_str:0000000000018c2f .LASF3168
     /tmp/ccNzw1my.s:92019  .debug_str:000000000000ee6e .LASF3169
     /tmp/ccNzw1my.s:88887  .debug_str:0000000000001eec .LASF3170
     /tmp/ccNzw1my.s:89979  .debug_str:0000000000006a02 .LASF3171
     /tmp/ccNzw1my.s:102447  .debug_str:0000000000038f61 .LASF3172
     /tmp/ccNzw1my.s:100899  .debug_str:0000000000033117 .LASF3173
     /tmp/ccNzw1my.s:93527  .debug_str:0000000000014c95 .LASF3174
     /tmp/ccNzw1my.s:92791  .debug_str:0000000000011dfd .LASF3175
     /tmp/ccNzw1my.s:104129  .debug_str:000000000004006c .LASF3176
     /tmp/ccNzw1my.s:106707  .debug_str:000000000004ab1d .LASF3177
     /tmp/ccNzw1my.s:91101  .debug_str:000000000000b75d .LASF3178
     /tmp/ccNzw1my.s:99709  .debug_str:000000000002e32a .LASF3179
     /tmp/ccNzw1my.s:104307  .debug_str:0000000000040bd3 .LASF3180
     /tmp/ccNzw1my.s:102427  .debug_str:0000000000038db8 .LASF3181
     /tmp/ccNzw1my.s:95463  .debug_str:000000000001cdf2 .LASF3182
     /tmp/ccNzw1my.s:93749  .debug_str:0000000000015a60 .LASF3183
     /tmp/ccNzw1my.s:88513  .debug_str:00000000000005b3 .LASF3184
     /tmp/ccNzw1my.s:92717  .debug_str:00000000000118f7 .LASF3185
     /tmp/ccNzw1my.s:94629  .debug_str:00000000000193d0 .LASF3186
     /tmp/ccNzw1my.s:101177  .debug_str:0000000000034428 .LASF3187
     /tmp/ccNzw1my.s:94559  .debug_str:0000000000018f99 .LASF3188
     /tmp/ccNzw1my.s:89599  .debug_str:0000000000005038 .LASF3189
     /tmp/ccNzw1my.s:88507  .debug_str:00000000000004e9 .LASF3190
     /tmp/ccNzw1my.s:103869  .debug_str:000000000003ee33 .LASF3191
     /tmp/ccNzw1my.s:97495  .debug_str:00000000000251af .LASF3192
     /tmp/ccNzw1my.s:89057  .debug_str:0000000000002b86 .LASF3193
     /tmp/ccNzw1my.s:94859  .debug_str:000000000001a4ad .LASF3194
     /tmp/ccNzw1my.s:92659  .debug_str:00000000000114c0 .LASF3195
     /tmp/ccNzw1my.s:102863  .debug_str:000000000003ac13 .LASF3196
     /tmp/ccNzw1my.s:95763  .debug_str:000000000001e22a .LASF3197
     /tmp/ccNzw1my.s:93407  .debug_str:00000000000144d8 .LASF3198
     /tmp/ccNzw1my.s:88457  .debug_str:0000000000000170 .LASF3199
     /tmp/ccNzw1my.s:96451  .debug_str:0000000000021237 .LASF3200
     /tmp/ccNzw1my.s:88787  .debug_str:0000000000001812 .LASF3201
     /tmp/ccNzw1my.s:97019  .debug_str:0000000000023812 .LASF3202
     /tmp/ccNzw1my.s:102677  .debug_str:0000000000039e62 .LASF3203
     /tmp/ccNzw1my.s:88583  .debug_str:0000000000000a71 .LASF3204
     /tmp/ccNzw1my.s:102921  .debug_str:000000000003b00a .LASF3205
     /tmp/ccNzw1my.s:101033  .debug_str:00000000000339e4 .LASF3206
     /tmp/ccNzw1my.s:90105  .debug_str:00000000000072d4 .LASF3207
     /tmp/ccNzw1my.s:89951  .debug_str:000000000000681f .LASF3208
     /tmp/ccNzw1my.s:104467  .debug_str:0000000000041807 .LASF3209
     /tmp/ccNzw1my.s:96055  .debug_str:000000000001f7cf .LASF3210
     /tmp/ccNzw1my.s:99837  .debug_str:000000000002eb4a .LASF3211
     /tmp/ccNzw1my.s:97915  .debug_str:0000000000026e1a .LASF3212
     /tmp/ccNzw1my.s:94979  .debug_str:000000000001ac51 .LASF3213
     /tmp/ccNzw1my.s:107137  .debug_str:000000000004ca9a .LASF3214
     /tmp/ccNzw1my.s:90347  .debug_str:000000000000832a .LASF3215
     /tmp/ccNzw1my.s:107113  .debug_str:000000000004c92b .LASF3216
     /tmp/ccNzw1my.s:106273  .debug_str:0000000000048ded .LASF3217
     /tmp/ccNzw1my.s:96417  .debug_str:0000000000021076 .LASF3218
     /tmp/ccNzw1my.s:91419  .debug_str:000000000000cccc .LASF3219
     /tmp/ccNzw1my.s:99665  .debug_str:000000000002e072 .LASF3220
     /tmp/ccNzw1my.s:92823  .debug_str:0000000000012011 .LASF3221
     /tmp/ccNzw1my.s:102945  .debug_str:000000000003b183 .LASF3222
     /tmp/ccNzw1my.s:107317  .debug_str:000000000004d753 .LASF3223
     /tmp/ccNzw1my.s:88793  .debug_str:0000000000001885 .LASF3224
     /tmp/ccNzw1my.s:106819  .debug_str:000000000004b47b .LASF3225
     /tmp/ccNzw1my.s:91835  .debug_str:000000000000e560 .LASF3226
     /tmp/ccNzw1my.s:101667  .debug_str:000000000003633d .LASF3227
     /tmp/ccNzw1my.s:106799  .debug_str:000000000004b2c2 .LASF3228
     /tmp/ccNzw1my.s:91833  .debug_str:000000000000e51d .LASF3229
     /tmp/ccNzw1my.s:101675  .debug_str:00000000000363f1 .LASF3230
     /tmp/ccNzw1my.s:101245  .debug_str:0000000000034842 .LASF3231
     /tmp/ccNzw1my.s:103075  .debug_str:000000000003ba4c .LASF3232
     /tmp/ccNzw1my.s:95585  .debug_str:000000000001d67b .LASF3233
     /tmp/ccNzw1my.s:93817  .debug_str:0000000000015ef4 .LASF3234
     /tmp/ccNzw1my.s:92269  .debug_str:000000000000fd34 .LASF3235
     /tmp/ccNzw1my.s:104357  .debug_str:0000000000040f95 .LASF3236
     /tmp/ccNzw1my.s:89473  .debug_str:00000000000047e8 .LASF3237
     /tmp/ccNzw1my.s:95575  .debug_str:000000000001d579 .LASF3238
     /tmp/ccNzw1my.s:91751  .debug_str:000000000000e103 .LASF3239
     /tmp/ccNzw1my.s:104735  .debug_str:0000000000042978 .LASF3240
     /tmp/ccNzw1my.s:101995  .debug_str:0000000000037550 .LASF3241
     /tmp/ccNzw1my.s:98429  .debug_str:0000000000028feb .LASF3242
     /tmp/ccNzw1my.s:93107  .debug_str:00000000000132ff .LASF3243
     /tmp/ccNzw1my.s:106647  .debug_str:000000000004a7be .LASF3244
     /tmp/ccNzw1my.s:90525  .debug_str:0000000000008f43 .LASF3245
     /tmp/ccNzw1my.s:105635  .debug_str:0000000000046320 .LASF3246
     /tmp/ccNzw1my.s:105013  .debug_str:0000000000043a9f .LASF3247
     /tmp/ccNzw1my.s:90993  .debug_str:000000000000af16 .LASF3248
     /tmp/ccNzw1my.s:101539  .debug_str:0000000000035aea .LASF3249
     /tmp/ccNzw1my.s:91363  .debug_str:000000000000c90f .LASF3250
     /tmp/ccNzw1my.s:103841  .debug_str:000000000003ec48 .LASF3251
     /tmp/ccNzw1my.s:102353  .debug_str:00000000000388cf .LASF3252
     /tmp/ccNzw1my.s:90385  .debug_str:000000000000855a .LASF3253
     /tmp/ccNzw1my.s:89373  .debug_str:00000000000040d9 .LASF3254
     /tmp/ccNzw1my.s:101659  .debug_str:0000000000036285 .LASF3255
     /tmp/ccNzw1my.s:98121  .debug_str:0000000000027c0e .LASF3256
     /tmp/ccNzw1my.s:102681  .debug_str:0000000000039ebc .LASF3257
     /tmp/ccNzw1my.s:93401  .debug_str:0000000000014451 .LASF3258
     /tmp/ccNzw1my.s:96059  .debug_str:000000000001f84f .LASF3259
     /tmp/ccNzw1my.s:100883  .debug_str:0000000000032fbb .LASF3260
     /tmp/ccNzw1my.s:96723  .debug_str:00000000000223fe .LASF3261
     /tmp/ccNzw1my.s:102143  .debug_str:0000000000037c9d .LASF3262
     /tmp/ccNzw1my.s:94693  .debug_str:00000000000198e6 .LASF3263
     /tmp/ccNzw1my.s:106939  .debug_str:000000000004bd4a .LASF3264
     /tmp/ccNzw1my.s:103931  .debug_str:000000000003f2e0 .LASF3265
     /tmp/ccNzw1my.s:92577  .debug_str:0000000000010eef .LASF3266
     /tmp/ccNzw1my.s:94393  .debug_str:0000000000018432 .LASF3267
     /tmp/ccNzw1my.s:95755  .debug_str:000000000001e15f .LASF3268
     /tmp/ccNzw1my.s:95445  .debug_str:000000000001cc97 .LASF3269
     /tmp/ccNzw1my.s:92687  .debug_str:00000000000116c4 .LASF3270
     /tmp/ccNzw1my.s:104707  .debug_str:000000000004277f .LASF3271
     /tmp/ccNzw1my.s:105239  .debug_str:00000000000448f7 .LASF3272
     /tmp/ccNzw1my.s:95009  .debug_str:000000000001ae91 .LASF3273
     /tmp/ccNzw1my.s:100599  .debug_str:0000000000031e1b .LASF3274
     /tmp/ccNzw1my.s:104431  .debug_str:0000000000041540 .LASF3275
     /tmp/ccNzw1my.s:106471  .debug_str:0000000000049b4b .LASF3276
     /tmp/ccNzw1my.s:104199  .debug_str:00000000000405c5 .LASF3277
     /tmp/ccNzw1my.s:95769  .debug_str:000000000001e2e2 .LASF3278
     /tmp/ccNzw1my.s:94683  .debug_str:0000000000019809 .LASF3279
     /tmp/ccNzw1my.s:106165  .debug_str:00000000000485ae .LASF3280
     /tmp/ccNzw1my.s:93279  .debug_str:0000000000013d9e .LASF3281
     /tmp/ccNzw1my.s:100733  .debug_str:000000000003263f .LASF3282
     /tmp/ccNzw1my.s:105491  .debug_str:0000000000045a10 .LASF3283
     /tmp/ccNzw1my.s:105801  .debug_str:0000000000046e7c .LASF3284
     /tmp/ccNzw1my.s:104849  .debug_str:00000000000430c8 .LASF3285
     /tmp/ccNzw1my.s:91095  .debug_str:000000000000b688 .LASF3286
     /tmp/ccNzw1my.s:94095  .debug_str:0000000000017202 .LASF3287
     /tmp/ccNzw1my.s:89365  .debug_str:0000000000004031 .LASF3288
     /tmp/ccNzw1my.s:97751  .debug_str:0000000000026284 .LASF3289
     /tmp/ccNzw1my.s:107217  .debug_str:000000000004d05a .LASF3290
     /tmp/ccNzw1my.s:102423  .debug_str:0000000000038d56 .LASF3291
     /tmp/ccNzw1my.s:93649  .debug_str:00000000000154de .LASF3292
     /tmp/ccNzw1my.s:98173  .debug_str:0000000000028017 .LASF3293
     /tmp/ccNzw1my.s:96767  .debug_str:0000000000022721 .LASF3294
     /tmp/ccNzw1my.s:89711  .debug_str:00000000000058d3 .LASF3295
     /tmp/ccNzw1my.s:92257  .debug_str:000000000000fc83 .LASF3296
     /tmp/ccNzw1my.s:97245  .debug_str:0000000000024449 .LASF3297
     /tmp/ccNzw1my.s:98075  .debug_str:00000000000278e6 .LASF3298
     /tmp/ccNzw1my.s:95339  .debug_str:000000000001c50d .LASF3299
     /tmp/ccNzw1my.s:95629  .debug_str:000000000001d943 .LASF3300
     /tmp/ccNzw1my.s:101843  .debug_str:0000000000036dc5 .LASF3301
     /tmp/ccNzw1my.s:105381  .debug_str:000000000004520f .LASF3302
     /tmp/ccNzw1my.s:91213  .debug_str:000000000000bebe .LASF3303
     /tmp/ccNzw1my.s:102525  .debug_str:000000000003947c .LASF3304
     /tmp/ccNzw1my.s:94331  .debug_str:0000000000018092 .LASF3305
     /tmp/ccNzw1my.s:89823  .debug_str:0000000000005fc9 .LASF3306
     /tmp/ccNzw1my.s:105481  .debug_str:0000000000045949 .LASF3307
     /tmp/ccNzw1my.s:103693  .debug_str:000000000003e226 .LASF3308
     /tmp/ccNzw1my.s:104751  .debug_str:0000000000042aaf .LASF3309
     /tmp/ccNzw1my.s:93823  .debug_str:0000000000015f8d .LASF3310
     /tmp/ccNzw1my.s:97621  .debug_str:0000000000025a9e .LASF3311
     /tmp/ccNzw1my.s:91519  .debug_str:000000000000d329 .LASF3312
     /tmp/ccNzw1my.s:97761  .debug_str:0000000000026353 .LASF3313
     /tmp/ccNzw1my.s:88705  .debug_str:000000000000128b .LASF3314
     /tmp/ccNzw1my.s:101385  .debug_str:00000000000351ef .LASF3315
     /tmp/ccNzw1my.s:91559  .debug_str:000000000000d5a4 .LASF3316
     /tmp/ccNzw1my.s:100991  .debug_str:00000000000336f8 .LASF3317
     /tmp/ccNzw1my.s:92845  .debug_str:00000000000121af .LASF3318
     /tmp/ccNzw1my.s:99467  .debug_str:000000000002d2f9 .LASF3319
     /tmp/ccNzw1my.s:100563  .debug_str:0000000000031bc9 .LASF3320
     /tmp/ccNzw1my.s:107017  .debug_str:000000000004c329 .LASF3321
     /tmp/ccNzw1my.s:101355  .debug_str:0000000000034fe8 .LASF3322
     /tmp/ccNzw1my.s:90053  .debug_str:0000000000006fc1 .LASF3323
     /tmp/ccNzw1my.s:90391  .debug_str:00000000000085cc .LASF3324
     /tmp/ccNzw1my.s:90325  .debug_str:00000000000081a0 .LASF3325
     /tmp/ccNzw1my.s:93043  .debug_str:0000000000012f5a .LASF3326
     /tmp/ccNzw1my.s:97819  .debug_str:0000000000026761 .LASF3327
     /tmp/ccNzw1my.s:93117  .debug_str:00000000000133d5 .LASF3328
     /tmp/ccNzw1my.s:107059  .debug_str:000000000004c5ac .LASF3329
     /tmp/ccNzw1my.s:95867  .debug_str:000000000001e9d3 .LASF3330
     /tmp/ccNzw1my.s:95049  .debug_str:000000000001b1ad .LASF3331
     /tmp/ccNzw1my.s:95493  .debug_str:000000000001cff7 .LASF3332
     /tmp/ccNzw1my.s:100527  .debug_str:0000000000031968 .LASF3333
     /tmp/ccNzw1my.s:96631  .debug_str:0000000000021e62 .LASF3334
     /tmp/ccNzw1my.s:95555  .debug_str:000000000001d425 .LASF3335
     /tmp/ccNzw1my.s:90713  .debug_str:0000000000009bb1 .LASF3336
     /tmp/ccNzw1my.s:97955  .debug_str:0000000000027059 .LASF3337
     /tmp/ccNzw1my.s:96229  .debug_str:000000000002038d .LASF3338
     /tmp/ccNzw1my.s:88791  .debug_str:0000000000001864 .LASF3339
     /tmp/ccNzw1my.s:100957  .debug_str:0000000000033487 .LASF3340
     /tmp/ccNzw1my.s:105273  .debug_str:0000000000044b78 .LASF3341
     /tmp/ccNzw1my.s:99199  .debug_str:000000000002c0a8 .LASF3342
     /tmp/ccNzw1my.s:93121  .debug_str:00000000000133fa .LASF3343
     /tmp/ccNzw1my.s:92655  .debug_str:000000000001148c .LASF3344
     /tmp/ccNzw1my.s:91961  .debug_str:000000000000ebc8 .LASF3345
     /tmp/ccNzw1my.s:100753  .debug_str:000000000003277e .LASF3346
     /tmp/ccNzw1my.s:100067  .debug_str:000000000002fad4 .LASF3347
     /tmp/ccNzw1my.s:89941  .debug_str:0000000000006755 .LASF3348
     /tmp/ccNzw1my.s:99469  .debug_str:000000000002d319 .LASF3349
     /tmp/ccNzw1my.s:100763  .debug_str:00000000000327f8 .LASF3350
     /tmp/ccNzw1my.s:103189  .debug_str:000000000003c1cd .LASF3351
     /tmp/ccNzw1my.s:96329  .debug_str:0000000000020a4a .LASF3352
     /tmp/ccNzw1my.s:100671  .debug_str:0000000000032232 .LASF3354
     /tmp/ccNzw1my.s:104207  .debug_str:000000000004066e .LASF3355
     /tmp/ccNzw1my.s:90441  .debug_str:0000000000008907 .LASF3356
     /tmp/ccNzw1my.s:99803  .debug_str:000000000002e969 .LASF3357
     /tmp/ccNzw1my.s:99431  .debug_str:000000000002d06b .LASF3358
     /tmp/ccNzw1my.s:99691  .debug_str:000000000002e209 .LASF3359
     /tmp/ccNzw1my.s:98867  .debug_str:000000000002abe0 .LASF3360
     /tmp/ccNzw1my.s:103193  .debug_str:000000000003c22d .LASF3361
     /tmp/ccNzw1my.s:89489  .debug_str:0000000000004933 .LASF3362
     /tmp/ccNzw1my.s:106275  .debug_str:0000000000048e2a .LASF3363
     /tmp/ccNzw1my.s:97161  .debug_str:0000000000023fff .LASF3364
     /tmp/ccNzw1my.s:94903  .debug_str:000000000001a785 .LASF3365
     /tmp/ccNzw1my.s:96915  .debug_str:00000000000230d3 .LASF3366
     /tmp/ccNzw1my.s:106955  .debug_str:000000000004be7f .LASF3367
     /tmp/ccNzw1my.s:105581  .debug_str:0000000000045faf .LASF3368
     /tmp/ccNzw1my.s:100035  .debug_str:000000000002f8f4 .LASF3369
     /tmp/ccNzw1my.s:102737  .debug_str:000000000003a305 .LASF3370
     /tmp/ccNzw1my.s:106467  .debug_str:0000000000049b13 .LASF3371
     /tmp/ccNzw1my.s:92829  .debug_str:000000000001205d .LASF3372
     /tmp/ccNzw1my.s:102503  .debug_str:00000000000392e0 .LASF3373
     /tmp/ccNzw1my.s:97537  .debug_str:0000000000025472 .LASF3374
     /tmp/ccNzw1my.s:106341  .debug_str:000000000004927b .LASF3375
     /tmp/ccNzw1my.s:89145  .debug_str:00000000000031e6 .LASF3376
     /tmp/ccNzw1my.s:95473  .debug_str:000000000001cea2 .LASF3377
     /tmp/ccNzw1my.s:100335  .debug_str:0000000000030bc9 .LASF3378
     /tmp/ccNzw1my.s:93137  .debug_str:00000000000134f4 .LASF3379
     /tmp/ccNzw1my.s:89543  .debug_str:0000000000004ccd .LASF3380
     /tmp/ccNzw1my.s:100059  .debug_str:000000000002fa29 .LASF3381
     /tmp/ccNzw1my.s:93795  .debug_str:0000000000015d76 .LASF3382
     /tmp/ccNzw1my.s:92493  .debug_str:00000000000109d4 .LASF3383
     /tmp/ccNzw1my.s:100769  .debug_str:000000000003286d .LASF3384
     /tmp/ccNzw1my.s:89773  .debug_str:0000000000005ccc .LASF3385
     /tmp/ccNzw1my.s:105213  .debug_str:00000000000446f4 .LASF3386
     /tmp/ccNzw1my.s:105937  .debug_str:0000000000047772 .LASF3387
     /tmp/ccNzw1my.s:93077  .debug_str:000000000001316d .LASF3388
     /tmp/ccNzw1my.s:102741  .debug_str:000000000003a360 .LASF3389
     /tmp/ccNzw1my.s:98329  .debug_str:000000000002896f .LASF3390
     /tmp/ccNzw1my.s:98493  .debug_str:00000000000293e0 .LASF3391
     /tmp/ccNzw1my.s:106817  .debug_str:000000000004b46e .LASF3392
     /tmp/ccNzw1my.s:102473  .debug_str:000000000003911d .LASF3393
     /tmp/ccNzw1my.s:92273  .debug_str:000000000000fdb1 .LASF3394
     /tmp/ccNzw1my.s:106809  .debug_str:000000000004b3c2 .LASF3395
     /tmp/ccNzw1my.s:103927  .debug_str:000000000003f265 .LASF3396
     /tmp/ccNzw1my.s:88827  .debug_str:0000000000001b15 .LASF3397
     /tmp/ccNzw1my.s:96791  .debug_str:00000000000228c2 .LASF3398
     /tmp/ccNzw1my.s:91953  .debug_str:000000000000eb2f .LASF3399
     /tmp/ccNzw1my.s:93377  .debug_str:000000000001433f .LASF3400
     /tmp/ccNzw1my.s:89315  .debug_str:0000000000003c9e .LASF3401
     /tmp/ccNzw1my.s:105495  .debug_str:0000000000045a61 .LASF3402
     /tmp/ccNzw1my.s:99507  .debug_str:000000000002d591 .LASF3403
     /tmp/ccNzw1my.s:94719  .debug_str:0000000000019a9b .LASF3404
     /tmp/ccNzw1my.s:105901  .debug_str:0000000000047525 .LASF3405
     /tmp/ccNzw1my.s:106851  .debug_str:000000000004b734 .LASF3406
     /tmp/ccNzw1my.s:98683  .debug_str:000000000002a033 .LASF3407
     /tmp/ccNzw1my.s:95123  .debug_str:000000000001b74c .LASF3408
     /tmp/ccNzw1my.s:95405  .debug_str:000000000001c97a .LASF3409
     /tmp/ccNzw1my.s:106083  .debug_str:000000000004807d .LASF3410
     /tmp/ccNzw1my.s:107143  .debug_str:000000000004cb00 .LASF3411
     /tmp/ccNzw1my.s:98967  .debug_str:000000000002b2a1 .LASF3412
     /tmp/ccNzw1my.s:99817  .debug_str:000000000002ea43 .LASF3413
     /tmp/ccNzw1my.s:100583  .debug_str:0000000000031d3b .LASF3414
     /tmp/ccNzw1my.s:89491  .debug_str:0000000000004968 .LASF3415
     /tmp/ccNzw1my.s:102075  .debug_str:0000000000037954 .LASF3416
     /tmp/ccNzw1my.s:103825  .debug_str:000000000003eaed .LASF3417
     /tmp/ccNzw1my.s:106513  .debug_str:0000000000049e36 .LASF3418
     /tmp/ccNzw1my.s:99893  .debug_str:000000000002ef02 .LASF3419
     /tmp/ccNzw1my.s:106859  .debug_str:000000000004b7ce .LASF3420
     /tmp/ccNzw1my.s:104859  .debug_str:0000000000043163 .LASF3421
     /tmp/ccNzw1my.s:104115  .debug_str:000000000003ff6e .LASF3422
     /tmp/ccNzw1my.s:100173  .debug_str:000000000003014b .LASF3423
     /tmp/ccNzw1my.s:91733  .debug_str:000000000000dfc8 .LASF3424
     /tmp/ccNzw1my.s:102343  .debug_str:000000000003884c .LASF3425
     /tmp/ccNzw1my.s:98579  .debug_str:00000000000298e1 .LASF3426
     /tmp/ccNzw1my.s:98551  .debug_str:0000000000029756 .LASF3427
     /tmp/ccNzw1my.s:100153  .debug_str:000000000002ff97 .LASF3428
     /tmp/ccNzw1my.s:90239  .debug_str:0000000000007b70 .LASF3429
     /tmp/ccNzw1my.s:95885  .debug_str:000000000001eab3 .LASF3430
     /tmp/ccNzw1my.s:89531  .debug_str:0000000000004c33 .LASF3431
     /tmp/ccNzw1my.s:102313  .debug_str:000000000003862d .LASF3432
     /tmp/ccNzw1my.s:106937  .debug_str:000000000004bd33 .LASF3433
     /tmp/ccNzw1my.s:101987  .debug_str:00000000000374f2 .LASF3434
     /tmp/ccNzw1my.s:100079  .debug_str:000000000002fb71 .LASF3435
     /tmp/ccNzw1my.s:94405  .debug_str:0000000000018516 .LASF3436
     /tmp/ccNzw1my.s:96445  .debug_str:00000000000211ea .LASF3437
     /tmp/ccNzw1my.s:101453  .debug_str:000000000003560d .LASF3438
     /tmp/ccNzw1my.s:102245  .debug_str:00000000000381d1 .LASF3439
     /tmp/ccNzw1my.s:89341  .debug_str:0000000000003e9c .LASF3440
     /tmp/ccNzw1my.s:104427  .debug_str:00000000000414f6 .LASF3441
     /tmp/ccNzw1my.s:98297  .debug_str:000000000002873a .LASF3442
     /tmp/ccNzw1my.s:98137  .debug_str:0000000000027d6d .LASF3443
     /tmp/ccNzw1my.s:105523  .debug_str:0000000000045c0e .LASF3444
     /tmp/ccNzw1my.s:107025  .debug_str:000000000004c3bd .LASF3445
     /tmp/ccNzw1my.s:91177  .debug_str:000000000000bc94 .LASF3446
     /tmp/ccNzw1my.s:105939  .debug_str:0000000000047784 .LASF3447
     /tmp/ccNzw1my.s:98865  .debug_str:000000000002abc9 .LASF3448
     /tmp/ccNzw1my.s:90919  .debug_str:000000000000a98a .LASF3449
     /tmp/ccNzw1my.s:99925  .debug_str:000000000002f19a .LASF3450
     /tmp/ccNzw1my.s:107261  .debug_str:000000000004d38d .LASF3451
     /tmp/ccNzw1my.s:95127  .debug_str:000000000001b79d .LASF3452
     /tmp/ccNzw1my.s:97635  .debug_str:0000000000025bba .LASF3453
     /tmp/ccNzw1my.s:91611  .debug_str:000000000000d832 .LASF3454
     /tmp/ccNzw1my.s:93467  .debug_str:000000000001489d .LASF3455
     /tmp/ccNzw1my.s:96267  .debug_str:000000000002063d .LASF3456
     /tmp/ccNzw1my.s:96249  .debug_str:00000000000204c7 .LASF3457
     /tmp/ccNzw1my.s:96515  .debug_str:000000000002165d .LASF3458
     /tmp/ccNzw1my.s:88517  .debug_str:0000000000000603 .LASF3459
     /tmp/ccNzw1my.s:98277  .debug_str:0000000000028628 .LASF3460
     /tmp/ccNzw1my.s:105133  .debug_str:00000000000442a2 .LASF3461
     /tmp/ccNzw1my.s:104605  .debug_str:00000000000420bd .LASF3462
     /tmp/ccNzw1my.s:105345  .debug_str:0000000000044fb5 .LASF3463
     /tmp/ccNzw1my.s:102973  .debug_str:000000000003b3d9 .LASF3464
     /tmp/ccNzw1my.s:101311  .debug_str:0000000000034cbe .LASF3465
     /tmp/ccNzw1my.s:105943  .debug_str:00000000000477a8 .LASF3466
     /tmp/ccNzw1my.s:101467  .debug_str:0000000000035707 .LASF3467
     /tmp/ccNzw1my.s:106529  .debug_str:0000000000049f3e .LASF3468
     /tmp/ccNzw1my.s:90561  .debug_str:0000000000009184 .LASF3469
     /tmp/ccNzw1my.s:89329  .debug_str:0000000000003d9a .LASF3470
     /tmp/ccNzw1my.s:105671  .debug_str:0000000000046568 .LASF3471
     /tmp/ccNzw1my.s:94003  .debug_str:0000000000016b44 .LASF3472
     /tmp/ccNzw1my.s:104653  .debug_str:0000000000042437 .LASF3473
     /tmp/ccNzw1my.s:102277  .debug_str:0000000000038396 .LASF3474
     /tmp/ccNzw1my.s:93987  .debug_str:0000000000016a4e .LASF3475
     /tmp/ccNzw1my.s:100539  .debug_str:0000000000031a35 .LASF3476
     /tmp/ccNzw1my.s:105615  .debug_str:00000000000461d6 .LASF3477
     /tmp/ccNzw1my.s:90763  .debug_str:0000000000009ef8 .LASF3478
     /tmp/ccNzw1my.s:91561  .debug_str:000000000000d5c3 .LASF3479
     /tmp/ccNzw1my.s:104461  .debug_str:00000000000417b8 .LASF3480
     /tmp/ccNzw1my.s:103257  .debug_str:000000000003c659 .LASF3481
     /tmp/ccNzw1my.s:89763  .debug_str:0000000000005c02 .LASF3482
     /tmp/ccNzw1my.s:100163  .debug_str:0000000000030068 .LASF3483
     /tmp/ccNzw1my.s:107067  .debug_str:000000000004c629 .LASF3484
     /tmp/ccNzw1my.s:97863  .debug_str:0000000000026a87 .LASF3485
     /tmp/ccNzw1my.s:99779  .debug_str:000000000002e7af .LASF3486
     /tmp/ccNzw1my.s:99531  .debug_str:000000000002d712 .LASF3487
     /tmp/ccNzw1my.s:97281  .debug_str:000000000002467b .LASF3488
     /tmp/ccNzw1my.s:101175  .debug_str:0000000000034412 .LASF3489
     /tmp/ccNzw1my.s:104101  .debug_str:000000000003fe75 .LASF3490
     /tmp/ccNzw1my.s:92611  .debug_str:0000000000011197 .LASF3491
     /tmp/ccNzw1my.s:93389  .debug_str:00000000000143c0 .LASF3492
     /tmp/ccNzw1my.s:103535  .debug_str:000000000003d819 .LASF3493
     /tmp/ccNzw1my.s:91435  .debug_str:000000000000ce14 .LASF3494
     /tmp/ccNzw1my.s:105537  .debug_str:0000000000045cfb .LASF3495
     /tmp/ccNzw1my.s:91709  .debug_str:000000000000de50 .LASF3496
     /tmp/ccNzw1my.s:93205  .debug_str:0000000000013949 .LASF3497
     /tmp/ccNzw1my.s:102425  .debug_str:0000000000038da1 .LASF3498
     /tmp/ccNzw1my.s:96729  .debug_str:0000000000022471 .LASF3499
     /tmp/ccNzw1my.s:104423  .debug_str:000000000004146c .LASF3500
     /tmp/ccNzw1my.s:100469  .debug_str:000000000003159d .LASF3501
     /tmp/ccNzw1my.s:96959  .debug_str:0000000000023441 .LASF3502
     /tmp/ccNzw1my.s:99753  .debug_str:000000000002e5d4 .LASF3503
     /tmp/ccNzw1my.s:93319  .debug_str:0000000000014025 .LASF3504
     /tmp/ccNzw1my.s:96725  .debug_str:0000000000022448 .LASF3505
     /tmp/ccNzw1my.s:105301  .debug_str:0000000000044d0e .LASF3506
     /tmp/ccNzw1my.s:99443  .debug_str:000000000002d152 .LASF3507
     /tmp/ccNzw1my.s:91711  .debug_str:000000000000de6d .LASF3508
     /tmp/ccNzw1my.s:107291  .debug_str:000000000004d5ab .LASF3509
     /tmp/ccNzw1my.s:94037  .debug_str:0000000000016dea .LASF3510
     /tmp/ccNzw1my.s:99703  .debug_str:000000000002e2de .LASF3511
     /tmp/ccNzw1my.s:100193  .debug_str:0000000000030297 .LASF3512
     /tmp/ccNzw1my.s:92359  .debug_str:0000000000010228 .LASF3513
     /tmp/ccNzw1my.s:90087  .debug_str:0000000000007218 .LASF3514
     /tmp/ccNzw1my.s:99847  .debug_str:000000000002ec3d .LASF3515
     /tmp/ccNzw1my.s:104951  .debug_str:00000000000436ed .LASF3516
     /tmp/ccNzw1my.s:107027  .debug_str:000000000004c3d4 .LASF3517
     /tmp/ccNzw1my.s:106525  .debug_str:0000000000049eda .LASF3518
     /tmp/ccNzw1my.s:105085  .debug_str:0000000000043fb9 .LASF3519
     /tmp/ccNzw1my.s:100155  .debug_str:000000000002ffae .LASF3520
     /tmp/ccNzw1my.s:95479  .debug_str:000000000001cf27 .LASF3521
     /tmp/ccNzw1my.s:92111  .debug_str:000000000000f43a .LASF3522
     /tmp/ccNzw1my.s:102851  .debug_str:000000000003ab5c .LASF3523
     /tmp/ccNzw1my.s:95855  .debug_str:000000000001e8de .LASF3524
     /tmp/ccNzw1my.s:96873  .debug_str:0000000000022df6 .LASF3525
     /tmp/ccNzw1my.s:95349  .debug_str:000000000001c627 .LASF3526
     /tmp/ccNzw1my.s:96949  .debug_str:000000000002334e .LASF3527
     /tmp/ccNzw1my.s:89193  .debug_str:00000000000034e4 .LASF3528
     /tmp/ccNzw1my.s:102847  .debug_str:000000000003ab31 .LASF3529
     /tmp/ccNzw1my.s:100379  .debug_str:0000000000030f5f .LASF3530
     /tmp/ccNzw1my.s:105763  .debug_str:0000000000046c1c .LASF3531
     /tmp/ccNzw1my.s:102577  .debug_str:000000000003985f .LASF3532
     /tmp/ccNzw1my.s:97409  .debug_str:0000000000024c19 .LASF3533
     /tmp/ccNzw1my.s:93395  .debug_str:0000000000014409 .LASF3534
     /tmp/ccNzw1my.s:91305  .debug_str:000000000000c508 .LASF3535
     /tmp/ccNzw1my.s:100551  .debug_str:0000000000031b12 .LASF3536
     /tmp/ccNzw1my.s:100055  .debug_str:000000000002f9e1 .LASF3537
     /tmp/ccNzw1my.s:99689  .debug_str:000000000002e1fa .LASF3538
     /tmp/ccNzw1my.s:98315  .debug_str:000000000002887c .LASF3539
     /tmp/ccNzw1my.s:97945  .debug_str:0000000000026fcd .LASF3540
     /tmp/ccNzw1my.s:92873  .debug_str:000000000001238b .LASF3541
     /tmp/ccNzw1my.s:93011  .debug_str:0000000000012d82 .LASF3542
     /tmp/ccNzw1my.s:102253  .debug_str:0000000000038251 .LASF3543
     /tmp/ccNzw1my.s:91031  .debug_str:000000000000b1b6 .LASF3544
     /tmp/ccNzw1my.s:97157  .debug_str:0000000000023fd4 .LASF3545
     /tmp/ccNzw1my.s:97665  .debug_str:0000000000025d90 .LASF3546
     /tmp/ccNzw1my.s:104497  .debug_str:00000000000419fd .LASF3547
     /tmp/ccNzw1my.s:105149  .debug_str:0000000000044386 .LASF3548
     /tmp/ccNzw1my.s:93375  .debug_str:0000000000014333 .LASF3549
     /tmp/ccNzw1my.s:100837  .debug_str:0000000000032ca5 .LASF3550
     /tmp/ccNzw1my.s:105663  .debug_str:00000000000464f4 .LASF3551
     /tmp/ccNzw1my.s:94247  .debug_str:0000000000017b79 .LASF3552
     /tmp/ccNzw1my.s:94837  .debug_str:000000000001a36c .LASF3553
     /tmp/ccNzw1my.s:94239  .debug_str:0000000000017b0e .LASF3554
     /tmp/ccNzw1my.s:97009  .debug_str:0000000000023790 .LASF3555
     /tmp/ccNzw1my.s:94563  .debug_str:0000000000018fef .LASF3556
     /tmp/ccNzw1my.s:101343  .debug_str:0000000000034f37 .LASF3557
     /tmp/ccNzw1my.s:88621  .debug_str:0000000000000cc8 .LASF3558
     /tmp/ccNzw1my.s:105641  .debug_str:000000000004638f .LASF3559
     /tmp/ccNzw1my.s:99535  .debug_str:000000000002d76e .LASF3560
     /tmp/ccNzw1my.s:92315  .debug_str:000000000000ffc8 .LASF3561
     /tmp/ccNzw1my.s:89865  .debug_str:0000000000006278 .LASF3562
     /tmp/ccNzw1my.s:104673  .debug_str:0000000000042548 .LASF3563
     /tmp/ccNzw1my.s:94503  .debug_str:0000000000018be6 .LASF3564
     /tmp/ccNzw1my.s:89677  .debug_str:000000000000561b .LASF3565
     /tmp/ccNzw1my.s:105735  .debug_str:00000000000469d6 .LASF3566
     /tmp/ccNzw1my.s:93785  .debug_str:0000000000015cc7 .LASF3567
     /tmp/ccNzw1my.s:106397  .debug_str:0000000000049692 .LASF3568
     /tmp/ccNzw1my.s:96803  .debug_str:00000000000229ad .LASF3569
     /tmp/ccNzw1my.s:105677  .debug_str:00000000000465b8 .LASF3570
     /tmp/ccNzw1my.s:104593  .debug_str:0000000000041fdd .LASF3571
     /tmp/ccNzw1my.s:96633  .debug_str:0000000000021e87 .LASF3572
     /tmp/ccNzw1my.s:100925  .debug_str:00000000000332e6 .LASF3573
     /tmp/ccNzw1my.s:91723  .debug_str:000000000000df02 .LASF3574
     /tmp/ccNzw1my.s:98817  .debug_str:000000000002a811 .LASF3575
     /tmp/ccNzw1my.s:91949  .debug_str:000000000000eaad .LASF3576
     /tmp/ccNzw1my.s:103941  .debug_str:000000000003f3aa .LASF3577
     /tmp/ccNzw1my.s:89055  .debug_str:0000000000002b03 .LASF3578
     /tmp/ccNzw1my.s:98675  .debug_str:0000000000029f07 .LASF3579
     /tmp/ccNzw1my.s:105993  .debug_str:0000000000047abf .LASF3580
     /tmp/ccNzw1my.s:91087  .debug_str:000000000000b630 .LASF3581
     /tmp/ccNzw1my.s:99553  .debug_str:000000000002d899 .LASF3582
     /tmp/ccNzw1my.s:105383  .debug_str:000000000004522d .LASF3583
     /tmp/ccNzw1my.s:100827  .debug_str:0000000000032bff .LASF3584
     /tmp/ccNzw1my.s:94355  .debug_str:0000000000018168 .LASF3585
     /tmp/ccNzw1my.s:88655  .debug_str:0000000000000f2d .LASF3586
     /tmp/ccNzw1my.s:105621  .debug_str:0000000000046243 .LASF3587
     /tmp/ccNzw1my.s:106153  .debug_str:0000000000048513 .LASF3588
     /tmp/ccNzw1my.s:91225  .debug_str:000000000000bf92 .LASF3589
     /tmp/ccNzw1my.s:101159  .debug_str:00000000000342f4 .LASF3590
     /tmp/ccNzw1my.s:90511  .debug_str:0000000000008e0b .LASF3591
     /tmp/ccNzw1my.s:102265  .debug_str:00000000000382f7 .LASF3592
     /tmp/ccNzw1my.s:92749  .debug_str:0000000000011b66 .LASF3593
     /tmp/ccNzw1my.s:92419  .debug_str:0000000000010526 .LASF3594
     /tmp/ccNzw1my.s:89277  .debug_str:0000000000003a7b .LASF3595
     /tmp/ccNzw1my.s:95129  .debug_str:000000000001b7b4 .LASF3596
     /tmp/ccNzw1my.s:96627  .debug_str:0000000000021e0b .LASF3597
     /tmp/ccNzw1my.s:94963  .debug_str:000000000001ab25 .LASF3598
     /tmp/ccNzw1my.s:96691  .debug_str:00000000000221b8 .LASF3599
     /tmp/ccNzw1my.s:101377  .debug_str:0000000000035184 .LASF3600
     /tmp/ccNzw1my.s:91231  .debug_str:000000000000bfee .LASF3601
     /tmp/ccNzw1my.s:107095  .debug_str:000000000004c859 .LASF3602
     /tmp/ccNzw1my.s:100075  .debug_str:000000000002fb41 .LASF3603
     /tmp/ccNzw1my.s:97347  .debug_str:0000000000024994 .LASF3604
     /tmp/ccNzw1my.s:103957  .debug_str:000000000003f4eb .LASF3605
     /tmp/ccNzw1my.s:89511  .debug_str:0000000000004ac9 .LASF3606
     /tmp/ccNzw1my.s:97639  .debug_str:0000000000025bf9 .LASF3607
     /tmp/ccNzw1my.s:95841  .debug_str:000000000001e80b .LASF3608
     /tmp/ccNzw1my.s:93643  .debug_str:0000000000015476 .LASF3609
     /tmp/ccNzw1my.s:106469  .debug_str:0000000000049b38 .LASF3610
     /tmp/ccNzw1my.s:100873  .debug_str:0000000000032f2c .LASF3611
     /tmp/ccNzw1my.s:100203  .debug_str:0000000000030334 .LASF3612
     /tmp/ccNzw1my.s:101479  .debug_str:0000000000035801 .LASF3613
     /tmp/ccNzw1my.s:90057  .debug_str:0000000000007024 .LASF3614
     /tmp/ccNzw1my.s:95149  .debug_str:000000000001b8d0 .LASF3615
     /tmp/ccNzw1my.s:94801  .debug_str:000000000001a0e9 .LASF3616
     /tmp/ccNzw1my.s:90175  .debug_str:000000000000779b .LASF3617
     /tmp/ccNzw1my.s:93975  .debug_str:0000000000016937 .LASF3618
     /tmp/ccNzw1my.s:103265  .debug_str:000000000003c6bb .LASF3619
     /tmp/ccNzw1my.s:95873  .debug_str:000000000001ea44 .LASF3620
     /tmp/ccNzw1my.s:96659  .debug_str:0000000000022028 .LASF3621
     /tmp/ccNzw1my.s:95193  .debug_str:000000000001bc2d .LASF3622
     /tmp/ccNzw1my.s:97421  .debug_str:0000000000024d0b .LASF3623
     /tmp/ccNzw1my.s:98697  .debug_str:000000000002a109 .LASF3624
     /tmp/ccNzw1my.s:102743  .debug_str:000000000003a375 .LASF3625
     /tmp/ccNzw1my.s:105403  .debug_str:0000000000045369 .LASF3626
     /tmp/ccNzw1my.s:97497  .debug_str:00000000000251f0 .LASF3627
     /tmp/ccNzw1my.s:99113  .debug_str:000000000002bba0 .LASF3628
     /tmp/ccNzw1my.s:104931  .debug_str:00000000000435a2 .LASF3629
     /tmp/ccNzw1my.s:97463  .debug_str:0000000000024fda .LASF3630
     /tmp/ccNzw1my.s:106639  .debug_str:000000000004a763 .LASF3631
     /tmp/ccNzw1my.s:91335  .debug_str:000000000000c738 .LASF3632
     /tmp/ccNzw1my.s:96721  .debug_str:00000000000223ea .LASF3633
     /tmp/ccNzw1my.s:95305  .debug_str:000000000001c2e5 .LASF3634
     /tmp/ccNzw1my.s:102939  .debug_str:000000000003b158 .LASF3635
     /tmp/ccNzw1my.s:105861  .debug_str:00000000000472c9 .LASF3636
     /tmp/ccNzw1my.s:95799  .debug_str:000000000001e51c .LASF3637
     /tmp/ccNzw1my.s:95363  .debug_str:000000000001c723 .LASF3638
     /tmp/ccNzw1my.s:102621  .debug_str:0000000000039ae4 .LASF3639
     /tmp/ccNzw1my.s:104123  .debug_str:000000000003fff0 .LASF3640
     /tmp/ccNzw1my.s:106985  .debug_str:000000000004c094 .LASF3641
     /tmp/ccNzw1my.s:107099  .debug_str:000000000004c886 .LASF3642
     /tmp/ccNzw1my.s:91381  .debug_str:000000000000c9f8 .LASF3643
     /tmp/ccNzw1my.s:104795  .debug_str:0000000000042d6d .LASF3644
     /tmp/ccNzw1my.s:103819  .debug_str:000000000003ea76 .LASF3645
     /tmp/ccNzw1my.s:88885  .debug_str:0000000000001ed9 .LASF3646
     /tmp/ccNzw1my.s:89869  .debug_str:00000000000062af .LASF3647
     /tmp/ccNzw1my.s:90929  .debug_str:000000000000aa3d .LASF3648
     /tmp/ccNzw1my.s:100613  .debug_str:0000000000031f1d .LASF3649
     /tmp/ccNzw1my.s:93503  .debug_str:0000000000014b2d .LASF3650
     /tmp/ccNzw1my.s:98899  .debug_str:000000000002ade4 .LASF3651
     /tmp/ccNzw1my.s:105665  .debug_str:000000000004650a .LASF3652
     /tmp/ccNzw1my.s:104809  .debug_str:0000000000042e3d .LASF3653
     /tmp/ccNzw1my.s:95783  .debug_str:000000000001e409 .LASF3654
     /tmp/ccNzw1my.s:95219  .debug_str:000000000001bdc3 .LASF3655
     /tmp/ccNzw1my.s:98695  .debug_str:000000000002a0f7 .LASF3656
     /tmp/ccNzw1my.s:105817  .debug_str:0000000000046fea .LASF3657
     /tmp/ccNzw1my.s:88953  .debug_str:00000000000023b1 .LASF3658
     /tmp/ccNzw1my.s:100947  .debug_str:00000000000333c9 .LASF3659
     /tmp/ccNzw1my.s:105289  .debug_str:0000000000044c9d .LASF3660
     /tmp/ccNzw1my.s:99959  .debug_str:000000000002f40d .LASF3661
     /tmp/ccNzw1my.s:104599  .debug_str:000000000004206a .LASF3662
     /tmp/ccNzw1my.s:91471  .debug_str:000000000000d03c .LASF3663
     /tmp/ccNzw1my.s:89051  .debug_str:0000000000002ace .LASF3664
     /tmp/ccNzw1my.s:95527  .debug_str:000000000001d265 .LASF3665
     /tmp/ccNzw1my.s:95601  .debug_str:000000000001d791 .LASF3666
     /tmp/ccNzw1my.s:96513  .debug_str:000000000002164e .LASF3667
     /tmp/ccNzw1my.s:101383  .debug_str:00000000000351de .LASF3668
     /tmp/ccNzw1my.s:94335  .debug_str:00000000000180c5 .LASF3669
     /tmp/ccNzw1my.s:101993  .debug_str:000000000003753f .LASF3670
     /tmp/ccNzw1my.s:96281  .debug_str:0000000000020731 .LASF3671
     /tmp/ccNzw1my.s:98987  .debug_str:000000000002b3a7 .LASF3672
     /tmp/ccNzw1my.s:88837  .debug_str:0000000000001be9 .LASF3673
     /tmp/ccNzw1my.s:100119  .debug_str:000000000002fdc1 .LASF3674
     /tmp/ccNzw1my.s:100909  .debug_str:00000000000331fc .LASF3675
     /tmp/ccNzw1my.s:100687  .debug_str:000000000003234b .LASF3676
     /tmp/ccNzw1my.s:106375  .debug_str:00000000000494f1 .LASF3677
     /tmp/ccNzw1my.s:92489  .debug_str:00000000000109a3 .LASF3678
     /tmp/ccNzw1my.s:91365  .debug_str:000000000000c94e .LASF3679
     /tmp/ccNzw1my.s:91003  .debug_str:000000000000afdd .LASF3680
     /tmp/ccNzw1my.s:97533  .debug_str:0000000000025447 .LASF3681
     /tmp/ccNzw1my.s:94933  .debug_str:000000000001a9a3 .LASF3682
     /tmp/ccNzw1my.s:106179  .debug_str:00000000000486c8 .LASF3683
     /tmp/ccNzw1my.s:102875  .debug_str:000000000003acb4 .LASF3684
     /tmp/ccNzw1my.s:88815  .debug_str:0000000000001a23 .LASF3685
     /tmp/ccNzw1my.s:89927  .debug_str:000000000000662b .LASF3686
     /tmp/ccNzw1my.s:99461  .debug_str:000000000002d2ab .LASF3687
     /tmp/ccNzw1my.s:89295  .debug_str:0000000000003b95 .LASF3688
     /tmp/ccNzw1my.s:105369  .debug_str:0000000000045161 .LASF3689
     /tmp/ccNzw1my.s:89121  .debug_str:00000000000030ab .LASF3690
     /tmp/ccNzw1my.s:96441  .debug_str:00000000000211a7 .LASF3691
     /tmp/ccNzw1my.s:91009  .debug_str:000000000000b024 .LASF3692
     /tmp/ccNzw1my.s:98067  .debug_str:000000000002784f .LASF3693
     /tmp/ccNzw1my.s:97903  .debug_str:0000000000026d21 .LASF3694
     /tmp/ccNzw1my.s:102835  .debug_str:000000000003aa5c .LASF3695
     /tmp/ccNzw1my.s:96245  .debug_str:00000000000204a1 .LASF3696
     /tmp/ccNzw1my.s:90473  .debug_str:0000000000008bbb .LASF3697
     /tmp/ccNzw1my.s:94711  .debug_str:0000000000019a0e .LASF3698
     /tmp/ccNzw1my.s:96473  .debug_str:0000000000021434 .LASF3699
     /tmp/ccNzw1my.s:95351  .debug_str:000000000001c639 .LASF3700
     /tmp/ccNzw1my.s:92921  .debug_str:00000000000126bb .LASF3701
     /tmp/ccNzw1my.s:97145  .debug_str:0000000000023f24 .LASF3702
     /tmp/ccNzw1my.s:98305  .debug_str:00000000000287eb .LASF3703
     /tmp/ccNzw1my.s:106625  .debug_str:000000000004a657 .LASF3704
     /tmp/ccNzw1my.s:93887  .debug_str:00000000000163a2 .LASF3705
     /tmp/ccNzw1my.s:95361  .debug_str:000000000001c70d .LASF3706
     /tmp/ccNzw1my.s:99707  .debug_str:000000000002e314 .LASF3707
     /tmp/ccNzw1my.s:99105  .debug_str:000000000002bb2d .LASF3708
     /tmp/ccNzw1my.s:102395  .debug_str:0000000000038bb1 .LASF3709
     /tmp/ccNzw1my.s:91547  .debug_str:000000000000d4cf .LASF3710
     /tmp/ccNzw1my.s:99769  .debug_str:000000000002e6fc .LASF3711
     /tmp/ccNzw1my.s:95241  .debug_str:000000000001bef9 .LASF3712
     /tmp/ccNzw1my.s:98053  .debug_str:0000000000027796 .LASF3713
     /tmp/ccNzw1my.s:99387  .debug_str:000000000002cdbf .LASF3714
     /tmp/ccNzw1my.s:103523  .debug_str:000000000003d751 .LASF3715
     /tmp/ccNzw1my.s:104233  .debug_str:0000000000040812 .LASF3716
     /tmp/ccNzw1my.s:103669  .debug_str:000000000003e095 .LASF3717
     /tmp/ccNzw1my.s:98715  .debug_str:000000000002a22d .LASF3718
     /tmp/ccNzw1my.s:102435  .debug_str:0000000000038eab .LASF3719
     /tmp/ccNzw1my.s:89789  .debug_str:0000000000005d82 .LASF3720
     /tmp/ccNzw1my.s:100737  .debug_str:00000000000326a3 .LASF3721
     /tmp/ccNzw1my.s:106259  .debug_str:0000000000048d06 .LASF3722
     /tmp/ccNzw1my.s:104127  .debug_str:0000000000040053 .LASF3723
     /tmp/ccNzw1my.s:93745  .debug_str:0000000000015a0f .LASF3724
     /tmp/ccNzw1my.s:88575  .debug_str:00000000000009c8 .LASF3725
     /tmp/ccNzw1my.s:90995  .debug_str:000000000000af52 .LASF3726
     /tmp/ccNzw1my.s:96541  .debug_str:0000000000021808 .LASF3727
     /tmp/ccNzw1my.s:105153  .debug_str:000000000004439e .LASF3728
     /tmp/ccNzw1my.s:100867  .debug_str:0000000000032ea9 .LASF3729
     /tmp/ccNzw1my.s:90375  .debug_str:00000000000084ca .LASF3730
     /tmp/ccNzw1my.s:107351  .debug_str:000000000004d9a0 .LASF3731
     /tmp/ccNzw1my.s:94401  .debug_str:00000000000184f4 .LASF3732
     /tmp/ccNzw1my.s:96341  .debug_str:0000000000020b5e .LASF3733
     /tmp/ccNzw1my.s:96147  .debug_str:000000000001fe13 .LASF3734
     /tmp/ccNzw1my.s:101621  .debug_str:0000000000035ff0 .LASF3735
     /tmp/ccNzw1my.s:100245  .debug_str:0000000000030589 .LASF3736
     /tmp/ccNzw1my.s:103061  .debug_str:000000000003b95f .LASF3737
     /tmp/ccNzw1my.s:97413  .debug_str:0000000000024c58 .LASF3738
     /tmp/ccNzw1my.s:95641  .debug_str:000000000001da62 .LASF3739
     /tmp/ccNzw1my.s:99671  .debug_str:000000000002e114 .LASF3740
     /tmp/ccNzw1my.s:99601  .debug_str:000000000002dbaa .LASF3741
     /tmp/ccNzw1my.s:105465  .debug_str:00000000000457e4 .LASF3742
     /tmp/ccNzw1my.s:89025  .debug_str:000000000000295a .LASF3743
     /tmp/ccNzw1my.s:97325  .debug_str:0000000000024804 .LASF3744
     /tmp/ccNzw1my.s:103633  .debug_str:000000000003de60 .LASF3745
     /tmp/ccNzw1my.s:101187  .debug_str:00000000000344dc .LASF3746
     /tmp/ccNzw1my.s:99571  .debug_str:000000000002d96c .LASF3747
     /tmp/ccNzw1my.s:89863  .debug_str:000000000000625d .LASF3748
     /tmp/ccNzw1my.s:106719  .debug_str:000000000004abe0 .LASF3749
     /tmp/ccNzw1my.s:97127  .debug_str:0000000000023df2 .LASF3750
     /tmp/ccNzw1my.s:91167  .debug_str:000000000000bbdf .LASF3751
     /tmp/ccNzw1my.s:90841  .debug_str:000000000000a46a .LASF3752
     /tmp/ccNzw1my.s:94533  .debug_str:0000000000018dda .LASF3753
     /tmp/ccNzw1my.s:100117  .debug_str:000000000002fdab .LASF3754
     /tmp/ccNzw1my.s:92991  .debug_str:0000000000012c1c .LASF3755
     /tmp/ccNzw1my.s:90297  .debug_str:0000000000007f64 .LASF3756
     /tmp/ccNzw1my.s:92933  .debug_str:0000000000012750 .LASF3757
     /tmp/ccNzw1my.s:106869  .debug_str:000000000004b888 .LASF3758
     /tmp/ccNzw1my.s:99303  .debug_str:000000000002c7df .LASF3759
     /tmp/ccNzw1my.s:104469  .debug_str:0000000000041843 .LASF3760
     /tmp/ccNzw1my.s:102243  .debug_str:00000000000381bc .LASF3761
     /tmp/ccNzw1my.s:94487  .debug_str:0000000000018adf .LASF3762
     /tmp/ccNzw1my.s:100405  .debug_str:000000000003111c .LASF3763
     /tmp/ccNzw1my.s:106401  .debug_str:00000000000496cc .LASF3764
     /tmp/ccNzw1my.s:104485  .debug_str:0000000000041942 .LASF3765
     /tmp/ccNzw1my.s:89909  .debug_str:0000000000006527 .LASF3766
     /tmp/ccNzw1my.s:93965  .debug_str:00000000000168a3 .LASF3767
     /tmp/ccNzw1my.s:94607  .debug_str:00000000000192eb .LASF3768
     /tmp/ccNzw1my.s:99201  .debug_str:000000000002c0cd .LASF3769
     /tmp/ccNzw1my.s:94173  .debug_str:0000000000017684 .LASF3770
     /tmp/ccNzw1my.s:97917  .debug_str:0000000000026e5e .LASF3771
     /tmp/ccNzw1my.s:90315  .debug_str:00000000000080d6 .LASF3772
     /tmp/ccNzw1my.s:91843  .debug_str:000000000000e5f5 .LASF3773
     /tmp/ccNzw1my.s:94315  .debug_str:0000000000017f92 .LASF3774
     /tmp/ccNzw1my.s:99155  .debug_str:000000000002be4f .LASF3775
     /tmp/ccNzw1my.s:97489  .debug_str:0000000000025183 .LASF3776
     /tmp/ccNzw1my.s:97101  .debug_str:0000000000023d53 .LASF3777
     /tmp/ccNzw1my.s:89893  .debug_str:0000000000006479 .LASF3778
     /tmp/ccNzw1my.s:106355  .debug_str:0000000000049395 .LASF3779
     /tmp/ccNzw1my.s:92325  .debug_str:000000000001008c .LASF3780
     /tmp/ccNzw1my.s:105613  .debug_str:00000000000461c3 .LASF3781
     /tmp/ccNzw1my.s:98555  .debug_str:000000000002978e .LASF3782
     /tmp/ccNzw1my.s:94957  .debug_str:000000000001aac3 .LASF3783
     /tmp/ccNzw1my.s:93391  .debug_str:00000000000143e2 .LASF3784
     /tmp/ccNzw1my.s:96233  .debug_str:00000000000203e4 .LASF3785
     /tmp/ccNzw1my.s:90229  .debug_str:0000000000007b07 .LASF3786
     /tmp/ccNzw1my.s:102927  .debug_str:000000000003b077 .LASF3787
     /tmp/ccNzw1my.s:98611  .debug_str:0000000000029ba2 .LASF3788
     /tmp/ccNzw1my.s:89805  .debug_str:0000000000005ec2 .LASF3789
     /tmp/ccNzw1my.s:93669  .debug_str:0000000000015613 .LASF3790
     /tmp/ccNzw1my.s:104051  .debug_str:000000000003fb28 .LASF3791
     /tmp/ccNzw1my.s:106167  .debug_str:00000000000485ee .LASF3792
     /tmp/ccNzw1my.s:102587  .debug_str:0000000000039911 .LASF3793
     /tmp/ccNzw1my.s:98279  .debug_str:000000000002863d .LASF3794
     /tmp/ccNzw1my.s:99901  .debug_str:000000000002efaf .LASF3795
     /tmp/ccNzw1my.s:103687  .debug_str:000000000003e1a1 .LASF3796
     /tmp/ccNzw1my.s:106977  .debug_str:000000000004c022 .LASF3797
     /tmp/ccNzw1my.s:91717  .debug_str:000000000000ded1 .LASF3798
     /tmp/ccNzw1my.s:93471  .debug_str:000000000001490b .LASF3799
     /tmp/ccNzw1my.s:99111  .debug_str:000000000002bb88 .LASF3800
     /tmp/ccNzw1my.s:96875  .debug_str:0000000000022e08 .LASF3801
     /tmp/ccNzw1my.s:97243  .debug_str:0000000000024431 .LASF3802
     /tmp/ccNzw1my.s:96909  .debug_str:0000000000023078 .LASF3803
     /tmp/ccNzw1my.s:97967  .debug_str:0000000000027122 .LASF3804
     /tmp/ccNzw1my.s:102703  .debug_str:000000000003a0a1 .LASF3805
     /tmp/ccNzw1my.s:90959  .debug_str:000000000000ac6c .LASF3806
     /tmp/ccNzw1my.s:106305  .debug_str:000000000004904c .LASF3807
     /tmp/ccNzw1my.s:101095  .debug_str:0000000000033e4d .LASF3808
     /tmp/ccNzw1my.s:107345  .debug_str:000000000004d943 .LASF3809
     /tmp/ccNzw1my.s:89085  .debug_str:0000000000002d5f .LASF3810
     /tmp/ccNzw1my.s:102437  .debug_str:0000000000038ec4 .LASF3811
     /tmp/ccNzw1my.s:97921  .debug_str:0000000000026e8b .LASF3812
     /tmp/ccNzw1my.s:90361  .debug_str:00000000000083f8 .LASF3813
     /tmp/ccNzw1my.s:104905  .debug_str:00000000000433e7 .LASF3814
     /tmp/ccNzw1my.s:93387  .debug_str:00000000000143a8 .LASF3815
     /tmp/ccNzw1my.s:106129  .debug_str:0000000000048357 .LASF3816
     /tmp/ccNzw1my.s:105705  .debug_str:00000000000467af .LASF3817
     /tmp/ccNzw1my.s:96309  .debug_str:0000000000020922 .LASF3818
     /tmp/ccNzw1my.s:89159  .debug_str:00000000000032f8 .LASF3819
     /tmp/ccNzw1my.s:101213  .debug_str:000000000003466c .LASF3820
     /tmp/ccNzw1my.s:88529  .debug_str:00000000000006da .LASF3821
     /tmp/ccNzw1my.s:107223  .debug_str:000000000004d0fb .LASF3822
     /tmp/ccNzw1my.s:88869  .debug_str:0000000000001dcc .LASF3823
     /tmp/ccNzw1my.s:99401  .debug_str:000000000002ce68 .LASF3824
     /tmp/ccNzw1my.s:107311  .debug_str:000000000004d6e1 .LASF3825
     /tmp/ccNzw1my.s:106447  .debug_str:00000000000499c0 .LASF3826
     /tmp/ccNzw1my.s:90935  .debug_str:000000000000aa75 .LASF3827
     /tmp/ccNzw1my.s:105387  .debug_str:0000000000045257 .LASF3828
     /tmp/ccNzw1my.s:95435  .debug_str:000000000001cbc1 .LASF3829
     /tmp/ccNzw1my.s:106725  .debug_str:000000000004ac88 .LASF3830
     /tmp/ccNzw1my.s:98093  .debug_str:00000000000279fc .LASF3831
     /tmp/ccNzw1my.s:97829  .debug_str:0000000000026821 .LASF3832
     /tmp/ccNzw1my.s:90863  .debug_str:000000000000a59d .LASF3833
     /tmp/ccNzw1my.s:106271  .debug_str:0000000000048dd5 .LASF3834
     /tmp/ccNzw1my.s:104903  .debug_str:00000000000433d0 .LASF3835
     /tmp/ccNzw1my.s:91165  .debug_str:000000000000bbc7 .LASF3836
     /tmp/ccNzw1my.s:94269  .debug_str:0000000000017cf4 .LASF3837
     /tmp/ccNzw1my.s:97273  .debug_str:000000000002460d .LASF3838
     /tmp/ccNzw1my.s:95747  .debug_str:000000000001e0c0 .LASF3839
     /tmp/ccNzw1my.s:89481  .debug_str:00000000000048c3 .LASF3840
     /tmp/ccNzw1my.s:89287  .debug_str:0000000000003b20 .LASF3841
     /tmp/ccNzw1my.s:94375  .debug_str:00000000000182cd .LASF3842
     /tmp/ccNzw1my.s:91445  .debug_str:000000000000cec9 .LASF3843
     /tmp/ccNzw1my.s:98517  .debug_str:00000000000294ff .LASF3844
     /tmp/ccNzw1my.s:95287  .debug_str:000000000001c1ed .LASF3845
     /tmp/ccNzw1my.s:105343  .debug_str:0000000000044f9d .LASF3846
     /tmp/ccNzw1my.s:98803  .debug_str:000000000002a74f .LASF3847
     /tmp/ccNzw1my.s:89619  .debug_str:0000000000005172 .LASF3848
     /tmp/ccNzw1my.s:102119  .debug_str:0000000000037b11 .LASF3849
     /tmp/ccNzw1my.s:102989  .debug_str:000000000003b4cf .LASF3850
     /tmp/ccNzw1my.s:92027  .debug_str:000000000000ef22 .LASF3851
     /tmp/ccNzw1my.s:96165  .debug_str:000000000001ff2e .LASF3852
     /tmp/ccNzw1my.s:89239  .debug_str:00000000000037ce .LASF3853
     /tmp/ccNzw1my.s:102289  .debug_str:000000000003847d .LASF3854
     /tmp/ccNzw1my.s:102623  .debug_str:0000000000039af7 .LASF3855
     /tmp/ccNzw1my.s:103497  .debug_str:000000000003d5e9 .LASF3856
     /tmp/ccNzw1my.s:100767  .debug_str:0000000000032855 .LASF3857
     /tmp/ccNzw1my.s:105281  .debug_str:0000000000044c23 .LASF3858
     /tmp/ccNzw1my.s:98915  .debug_str:000000000002aec4 .LASF3859
     /tmp/ccNzw1my.s:95845  .debug_str:000000000001e842 .LASF3860
     /tmp/ccNzw1my.s:92727  .debug_str:00000000000119b1 .LASF3861
     /tmp/ccNzw1my.s:90885  .debug_str:000000000000a740 .LASF3862
     /tmp/ccNzw1my.s:89631  .debug_str:000000000000526a .LASF3863
     /tmp/ccNzw1my.s:90617  .debug_str:000000000000957b .LASF3864
     /tmp/ccNzw1my.s:102067  .debug_str:00000000000378c7 .LASF3865
     /tmp/ccNzw1my.s:99515  .debug_str:000000000002d636 .LASF3866
     /tmp/ccNzw1my.s:91395  .debug_str:000000000000caf6 .LASF3867
     /tmp/ccNzw1my.s:103237  .debug_str:000000000003c4f7 .LASF3868
     /tmp/ccNzw1my.s:98133  .debug_str:0000000000027d2e .LASF3869
     /tmp/ccNzw1my.s:96849  .debug_str:0000000000022c7d .LASF3870
     /tmp/ccNzw1my.s:107221  .debug_str:000000000004d0e5 .LASF3871
     /tmp/ccNzw1my.s:97557  .debug_str:0000000000025625 .LASF3872
     /tmp/ccNzw1my.s:90861  .debug_str:000000000000a587 .LASF3873
     /tmp/ccNzw1my.s:101345  .debug_str:0000000000034f43 .LASF3874
     /tmp/ccNzw1my.s:106841  .debug_str:000000000004b66c .LASF3875
     /tmp/ccNzw1my.s:102223  .debug_str:00000000000380c3 .LASF3876
     /tmp/ccNzw1my.s:92869  .debug_str:0000000000012330 .LASF3877
     /tmp/ccNzw1my.s:103439  .debug_str:000000000003d1af .LASF3878
     /tmp/ccNzw1my.s:88733  .debug_str:0000000000001475 .LASF3879
     /tmp/ccNzw1my.s:101057  .debug_str:0000000000033ba9 .LASF3880
     /tmp/ccNzw1my.s:89897  .debug_str:0000000000006499 .LASF3881
     /tmp/ccNzw1my.s:93201  .debug_str:0000000000013927 .LASF3882
     /tmp/ccNzw1my.s:91945  .debug_str:000000000000ea7d .LASF3883
     /tmp/ccNzw1my.s:94631  .debug_str:0000000000019413 .LASF3884
     /tmp/ccNzw1my.s:97263  .debug_str:000000000002458a .LASF3885
     /tmp/ccNzw1my.s:92901  .debug_str:0000000000012549 .LASF3886
     /tmp/ccNzw1my.s:106921  .debug_str:000000000004bbf3 .LASF3887
     /tmp/ccNzw1my.s:95599  .debug_str:000000000001d777 .LASF3888
     /tmp/ccNzw1my.s:104213  .debug_str:00000000000406cd .LASF3889
     /tmp/ccNzw1my.s:102047  .debug_str:00000000000377b0 .LASF3890
     /tmp/ccNzw1my.s:97977  .debug_str:00000000000271df .LASF3891
     /tmp/ccNzw1my.s:104857  .debug_str:0000000000043149 .LASF3892
     /tmp/ccNzw1my.s:102837  .debug_str:000000000003aa70 .LASF3893
     /tmp/ccNzw1my.s:93273  .debug_str:0000000000013d6f .LASF3894
     /tmp/ccNzw1my.s:97693  .debug_str:0000000000025f4c .LASF3895
     /tmp/ccNzw1my.s:106481  .debug_str:0000000000049be9 .LASF3896
     /tmp/ccNzw1my.s:103005  .debug_str:000000000003b5cc .LASF3897
     /tmp/ccNzw1my.s:92779  .debug_str:0000000000011d50 .LASF3898
     /tmp/ccNzw1my.s:104761  .debug_str:0000000000042b49 .LASF3899
     /tmp/ccNzw1my.s:95919  .debug_str:000000000001ecff .LASF3900
     /tmp/ccNzw1my.s:106763  .debug_str:000000000004afb4 .LASF3901
     /tmp/ccNzw1my.s:94855  .debug_str:000000000001a486 .LASF3902
     /tmp/ccNzw1my.s:104243  .debug_str:000000000004089d .LASF3903
     /tmp/ccNzw1my.s:92593  .debug_str:0000000000010fc6 .LASF3904
     /tmp/ccNzw1my.s:98571  .debug_str:000000000002985b .LASF3905
     /tmp/ccNzw1my.s:106055  .debug_str:0000000000047ea0 .LASF3906
     /tmp/ccNzw1my.s:99351  .debug_str:000000000002cae0 .LASF3907
     /tmp/ccNzw1my.s:91933  .debug_str:000000000000e9b6 .LASF3908
     /tmp/ccNzw1my.s:90423  .debug_str:000000000000880a .LASF3909
     /tmp/ccNzw1my.s:92369  .debug_str:00000000000102cb .LASF3910
     /tmp/ccNzw1my.s:105181  .debug_str:000000000004453b .LASF3911
     /tmp/ccNzw1my.s:92569  .debug_str:0000000000010e7b .LASF3912
     /tmp/ccNzw1my.s:88871  .debug_str:0000000000001de3 .LASF3913
     /tmp/ccNzw1my.s:92243  .debug_str:000000000000fb61 .LASF3914
     /tmp/ccNzw1my.s:107307  .debug_str:000000000004d6bc .LASF3915
     /tmp/ccNzw1my.s:100799  .debug_str:0000000000032a74 .LASF3916
     /tmp/ccNzw1my.s:106927  .debug_str:000000000004bc6d .LASF3917
     /tmp/ccNzw1my.s:88713  .debug_str:000000000000130f .LASF3918
     /tmp/ccNzw1my.s:104405  .debug_str:00000000000412fe .LASF3919
     /tmp/ccNzw1my.s:105623  .debug_str:0000000000046253 .LASF3920
     /tmp/ccNzw1my.s:94085  .debug_str:0000000000017163 .LASF3921
     /tmp/ccNzw1my.s:96533  .debug_str:0000000000021795 .LASF3922
     /tmp/ccNzw1my.s:94725  .debug_str:0000000000019af4 .LASF3923
     /tmp/ccNzw1my.s:94073  .debug_str:0000000000017053 .LASF3924
     /tmp/ccNzw1my.s:102979  .debug_str:000000000003b424 .LASF3925
     /tmp/ccNzw1my.s:102947  .debug_str:000000000003b1c5 .LASF3926
     /tmp/ccNzw1my.s:94117  .debug_str:0000000000017386 .LASF3927
     /tmp/ccNzw1my.s:102279  .debug_str:00000000000383a8 .LASF3928
     /tmp/ccNzw1my.s:98029  .debug_str:00000000000275a4 .LASF3929
     /tmp/ccNzw1my.s:99331  .debug_str:000000000002c9a4 .LASF3930
     /tmp/ccNzw1my.s:100263  .debug_str:0000000000030694 .LASF3931
     /tmp/ccNzw1my.s:107331  .debug_str:000000000004d889 .LASF3932
     /tmp/ccNzw1my.s:103083  .debug_str:000000000003bb00 .LASF3933
     /tmp/ccNzw1my.s:106121  .debug_str:00000000000482bd .LASF3934
     /tmp/ccNzw1my.s:92571  .debug_str:0000000000010e95 .LASF3935
     /tmp/ccNzw1my.s:99419  .debug_str:000000000002cfb0 .LASF3936
     /tmp/ccNzw1my.s:95359  .debug_str:000000000001c6f4 .LASF3937
     /tmp/ccNzw1my.s:97939  .debug_str:0000000000026f7d .LASF3938
     /tmp/ccNzw1my.s:101293  .debug_str:0000000000034bc7 .LASF3939
     /tmp/ccNzw1my.s:106685  .debug_str:000000000004a9e8 .LASF3940
     /tmp/ccNzw1my.s:101157  .debug_str:00000000000342dc .LASF3941
     /tmp/ccNzw1my.s:106915  .debug_str:000000000004bbac .LASF3942
     /tmp/ccNzw1my.s:98455  .debug_str:00000000000291da .LASF3943
     /tmp/ccNzw1my.s:106047  .debug_str:0000000000047e26 .LASF3944
     /tmp/ccNzw1my.s:90635  .debug_str:00000000000096e0 .LASF3945
     /tmp/ccNzw1my.s:98215  .debug_str:00000000000281df .LASF3946
     /tmp/ccNzw1my.s:100875  .debug_str:0000000000032f3e .LASF3947
     /tmp/ccNzw1my.s:103017  .debug_str:000000000003b669 .LASF3948
     /tmp/ccNzw1my.s:96415  .debug_str:0000000000021066 .LASF3949
     /tmp/ccNzw1my.s:91619  .debug_str:000000000000d8b1 .LASF3950
     /tmp/ccNzw1my.s:105587  .debug_str:0000000000046015 .LASF3951
     /tmp/ccNzw1my.s:96437  .debug_str:000000000002117f .LASF3952
     /tmp/ccNzw1my.s:106157  .debug_str:000000000004853d .LASF3953
     /tmp/ccNzw1my.s:91141  .debug_str:000000000000ba1b .LASF3954
     /tmp/ccNzw1my.s:106991  .debug_str:000000000004c0df .LASF3955
     /tmp/ccNzw1my.s:104339  .debug_str:0000000000040e6f .LASF3956
     /tmp/ccNzw1my.s:103259  .debug_str:000000000003c671 .LASF3957
     /tmp/ccNzw1my.s:88935  .debug_str:00000000000022bb .LASF3958
     /tmp/ccNzw1my.s:105141  .debug_str:0000000000044308 .LASF3959
     /tmp/ccNzw1my.s:95375  .debug_str:000000000001c7b8 .LASF3960
     /tmp/ccNzw1my.s:94103  .debug_str:000000000001729f .LASF3961
     /tmp/ccNzw1my.s:89983  .debug_str:0000000000006a8b .LASF3962
     /tmp/ccNzw1my.s:101085  .debug_str:0000000000033dbf .LASF3963
     /tmp/ccNzw1my.s:105229  .debug_str:0000000000044823 .LASF3964
     /tmp/ccNzw1my.s:102773  .debug_str:000000000003a5d2 .LASF3965
     /tmp/ccNzw1my.s:97739  .debug_str:00000000000261bb .LASF3966
     /tmp/ccNzw1my.s:102227  .debug_str:00000000000380f9 .LASF3967
     /tmp/ccNzw1my.s:99787  .debug_str:000000000002e861 .LASF3968
     /tmp/ccNzw1my.s:101427  .debug_str:0000000000035445 .LASF3969
     /tmp/ccNzw1my.s:105691  .debug_str:00000000000466b3 .LASF3970
     /tmp/ccNzw1my.s:96439  .debug_str:0000000000021190 .LASF3971
     /tmp/ccNzw1my.s:105449  .debug_str:0000000000045707 .LASF3972
     /tmp/ccNzw1my.s:88477  .debug_str:00000000000002f8 .LASF3973
     /tmp/ccNzw1my.s:91069  .debug_str:000000000000b49b .LASF3974
     /tmp/ccNzw1my.s:103323  .debug_str:000000000003cab6 .LASF3975
     /tmp/ccNzw1my.s:96487  .debug_str:0000000000021534 .LASF3976
     /tmp/ccNzw1my.s:106079  .debug_str:0000000000048053 .LASF3977
     /tmp/ccNzw1my.s:93367  .debug_str:00000000000142e6 .LASF3978
     /tmp/ccNzw1my.s:93059  .debug_str:000000000001301f .LASF3979
     /tmp/ccNzw1my.s:102607  .debug_str:00000000000399f2 .LASF3980
     /tmp/ccNzw1my.s:89173  .debug_str:00000000000033f2 .LASF3981
     /tmp/ccNzw1my.s:103417  .debug_str:000000000003d007 .LASF3982
     /tmp/ccNzw1my.s:92809  .debug_str:0000000000011f76 .LASF3983
     /tmp/ccNzw1my.s:94243  .debug_str:0000000000017b48 .LASF3984
     /tmp/ccNzw1my.s:101665  .debug_str:000000000003632a .LASF3985
     /tmp/ccNzw1my.s:91377  .debug_str:000000000000c9d3 .LASF3986
     /tmp/ccNzw1my.s:98989  .debug_str:000000000002b3b8 .LASF3987
     /tmp/ccNzw1my.s:99203  .debug_str:000000000002c0e2 .LASF3988
     /tmp/ccNzw1my.s:104561  .debug_str:0000000000041dba .LASF3989
     /tmp/ccNzw1my.s:97941  .debug_str:0000000000026f98 .LASF3990
     /tmp/ccNzw1my.s:94617  .debug_str:000000000001933b .LASF3991
     /tmp/ccNzw1my.s:89189  .debug_str:00000000000034b7 .LASF3992
     /tmp/ccNzw1my.s:97763  .debug_str:000000000002636e .LASF3993
     /tmp/ccNzw1my.s:89075  .debug_str:0000000000002cb4 .LASF3994
     /tmp/ccNzw1my.s:99685  .debug_str:000000000002e1db .LASF3995
     /tmp/ccNzw1my.s:103351  .debug_str:000000000003cccb .LASF3996
     /tmp/ccNzw1my.s:92781  .debug_str:0000000000011d6a .LASF3997
     /tmp/ccNzw1my.s:93293  .debug_str:0000000000013ea9 .LASF3998
     /tmp/ccNzw1my.s:101569  .debug_str:0000000000035d31 .LASF3999
     /tmp/ccNzw1my.s:97439  .debug_str:0000000000024e76 .LASF4000
     /tmp/ccNzw1my.s:106617  .debug_str:000000000004a5d5 .LASF4001
     /tmp/ccNzw1my.s:98339  .debug_str:0000000000028a3a .LASF4002
     /tmp/ccNzw1my.s:106361  .debug_str:0000000000049422 .LASF4003
     /tmp/ccNzw1my.s:98101  .debug_str:0000000000027a9b .LASF4004
     /tmp/ccNzw1my.s:92861  .debug_str:00000000000122cd .LASF4005
     /tmp/ccNzw1my.s:105097  .debug_str:000000000004409d .LASF4006
     /tmp/ccNzw1my.s:102611  .debug_str:0000000000039a4b .LASF4007
     /tmp/ccNzw1my.s:105915  .debug_str:0000000000047634 .LASF4008
     /tmp/ccNzw1my.s:101243  .debug_str:0000000000034831 .LASF4009
     /tmp/ccNzw1my.s:102249  .debug_str:0000000000038230 .LASF4010
     /tmp/ccNzw1my.s:91171  .debug_str:000000000000bc15 .LASF4011
     /tmp/ccNzw1my.s:103739  .debug_str:000000000003e529 .LASF4012
     /tmp/ccNzw1my.s:101405  .debug_str:0000000000035313 .LASF4013
     /tmp/ccNzw1my.s:95729  .debug_str:000000000001df97 .LASF4014
     /tmp/ccNzw1my.s:106645  .debug_str:000000000004a7ac .LASF4015
     /tmp/ccNzw1my.s:101357  .debug_str:0000000000035007 .LASF4016
     /tmp/ccNzw1my.s:93677  .debug_str:000000000001565c .LASF4017
     /tmp/ccNzw1my.s:92075  .debug_str:000000000000f153 .LASF4018
     /tmp/ccNzw1my.s:99143  .debug_str:000000000002bd57 .LASF4019
     /tmp/ccNzw1my.s:105823  .debug_str:0000000000047077 .LASF4020
     /tmp/ccNzw1my.s:92011  .debug_str:000000000000ee2d .LASF4021
     /tmp/ccNzw1my.s:98403  .debug_str:0000000000028e06 .LASF4022
     /tmp/ccNzw1my.s:103071  .debug_str:000000000003ba00 .LASF4023
     /tmp/ccNzw1my.s:88761  .debug_str:0000000000001613 .LASF4024
     /tmp/ccNzw1my.s:89347  .debug_str:0000000000003ef2 .LASF4025
     /tmp/ccNzw1my.s:99147  .debug_str:000000000002bda9 .LASF4026
     /tmp/ccNzw1my.s:99561  .debug_str:000000000002d8e4 .LASF4027
     /tmp/ccNzw1my.s:91229  .debug_str:000000000000bfdb .LASF4028
     /tmp/ccNzw1my.s:103887  .debug_str:000000000003ef99 .LASF4029
     /tmp/ccNzw1my.s:92171  .debug_str:000000000000f7ff .LASF4030
     /tmp/ccNzw1my.s:100135  .debug_str:000000000002fe60 .LASF4031
     /tmp/ccNzw1my.s:106559  .debug_str:000000000004a159 .LASF4032
     /tmp/ccNzw1my.s:102985  .debug_str:000000000003b48e .LASF4033
     /tmp/ccNzw1my.s:92625  .debug_str:0000000000011278 .LASF4034
     /tmp/ccNzw1my.s:104831  .debug_str:0000000000042f8a .LASF4035
     /tmp/ccNzw1my.s:103035  .debug_str:000000000003b768 .LASF4036
     /tmp/ccNzw1my.s:102063  .debug_str:00000000000378a9 .LASF4037
     /tmp/ccNzw1my.s:96523  .debug_str:0000000000021727 .LASF4038
     /tmp/ccNzw1my.s:99567  .debug_str:000000000002d950 .LASF4039
     /tmp/ccNzw1my.s:92253  .debug_str:000000000000fc4f .LASF4040
     /tmp/ccNzw1my.s:95875  .debug_str:000000000001ea56 .LASF4041
     /tmp/ccNzw1my.s:91375  .debug_str:000000000000c9bf .LASF4042
     /tmp/ccNzw1my.s:91249  .debug_str:000000000000c11d .LASF4043
     /tmp/ccNzw1my.s:91881  .debug_str:000000000000e7ac .LASF4044
     /tmp/ccNzw1my.s:101077  .debug_str:0000000000033d66 .LASF4045
     /tmp/ccNzw1my.s:93525  .debug_str:0000000000014c80 .LASF4046
     /tmp/ccNzw1my.s:90799  .debug_str:000000000000a163 .LASF4047
     /tmp/ccNzw1my.s:105995  .debug_str:0000000000047ad7 .LASF4048
     /tmp/ccNzw1my.s:97323  .debug_str:00000000000247f1 .LASF4049
     /tmp/ccNzw1my.s:100517  .debug_str:00000000000318ba .LASF4050
     /tmp/ccNzw1my.s:90573  .debug_str:0000000000009255 .LASF4051
     /tmp/ccNzw1my.s:103933  .debug_str:000000000003f327 .LASF4052
     /tmp/ccNzw1my.s:95259  .debug_str:000000000001c028 .LASF4053
     /tmp/ccNzw1my.s:98911  .debug_str:000000000002ae99 .LASF4054
     /tmp/ccNzw1my.s:106041  .debug_str:0000000000047dcf .LASF4055
     /tmp/ccNzw1my.s:104029  .debug_str:000000000003f9bb .LASF4056
     /tmp/ccNzw1my.s:98637  .debug_str:0000000000029ceb .LASF4057
     /tmp/ccNzw1my.s:107121  .debug_str:000000000004c9c4 .LASF4058
     /tmp/ccNzw1my.s:105639  .debug_str:000000000004637c .LASF4059
     /tmp/ccNzw1my.s:97725  .debug_str:00000000000260b8 .LASF4060
     /tmp/ccNzw1my.s:97131  .debug_str:0000000000023e23 .LASF4061
     /tmp/ccNzw1my.s:94807  .debug_str:000000000001a16e .LASF4062
     /tmp/ccNzw1my.s:95635  .debug_str:000000000001d9d3 .LASF4063
     /tmp/ccNzw1my.s:95093  .debug_str:000000000001b4ea .LASF4064
     /tmp/ccNzw1my.s:100815  .debug_str:0000000000032b9b .LASF4065
     /tmp/ccNzw1my.s:99465  .debug_str:000000000002d2dc .LASF4066
     /tmp/ccNzw1my.s:99889  .debug_str:000000000002eebe .LASF4067
     /tmp/ccNzw1my.s:102779  .debug_str:000000000003a645 .LASF4068
     /tmp/ccNzw1my.s:103271  .debug_str:000000000003c734 .LASF4069
     /tmp/ccNzw1my.s:91169  .debug_str:000000000000bbf9 .LASF4070
     /tmp/ccNzw1my.s:94747  .debug_str:0000000000019cb8 .LASF4071
     /tmp/ccNzw1my.s:89093  .debug_str:0000000000002df2 .LASF4072
     /tmp/ccNzw1my.s:90493  .debug_str:0000000000008d1f .LASF4073
     /tmp/ccNzw1my.s:94697  .debug_str:0000000000019939 .LASF4074
     /tmp/ccNzw1my.s:94123  .debug_str:00000000000173c0 .LASF4075
     /tmp/ccNzw1my.s:106235  .debug_str:0000000000048b47 .LASF4076
     /tmp/ccNzw1my.s:93681  .debug_str:000000000001568f .LASF4077
     /tmp/ccNzw1my.s:91791  .debug_str:000000000000e2d9 .LASF4078
     /tmp/ccNzw1my.s:95045  .debug_str:000000000001b180 .LASF4079
     /tmp/ccNzw1my.s:97667  .debug_str:0000000000025d9d .LASF4080
     /tmp/ccNzw1my.s:96157  .debug_str:000000000001fecf .LASF4081
     /tmp/ccNzw1my.s:97535  .debug_str:0000000000025456 .LASF4082
     /tmp/ccNzw1my.s:91615  .debug_str:000000000000d869 .LASF4083
     /tmp/ccNzw1my.s:94829  .debug_str:000000000001a300 .LASF4084
     /tmp/ccNzw1my.s:103907  .debug_str:000000000003f0f4 .LASF4085
     /tmp/ccNzw1my.s:92451  .debug_str:00000000000107f5 .LASF4086
     /tmp/ccNzw1my.s:94989  .debug_str:000000000001ad38 .LASF4087
     /tmp/ccNzw1my.s:98719  .debug_str:000000000002a288 .LASF4088
     /tmp/ccNzw1my.s:92393  .debug_str:0000000000010392 .LASF4089
     /tmp/ccNzw1my.s:102721  .debug_str:000000000003a1cc .LASF4090
     /tmp/ccNzw1my.s:94131  .debug_str:0000000000017416 .LASF4091
     /tmp/ccNzw1my.s:90657  .debug_str:0000000000009897 .LASF4092
     /tmp/ccNzw1my.s:99883  .debug_str:000000000002ee67 .LASF4093
     /tmp/ccNzw1my.s:97951  .debug_str:0000000000027013 .LASF4094
     /tmp/ccNzw1my.s:91109  .debug_str:000000000000b813 .LASF4095
     /tmp/ccNzw1my.s:96299  .debug_str:0000000000020873 .LASF4096
     /tmp/ccNzw1my.s:95587  .debug_str:000000000001d6c1 .LASF4097
     /tmp/ccNzw1my.s:105545  .debug_str:0000000000045d7f .LASF4098
     /tmp/ccNzw1my.s:105377  .debug_str:00000000000451dc .LASF4099
     /tmp/ccNzw1my.s:92931  .debug_str:0000000000012737 .LASF4100
     /tmp/ccNzw1my.s:95589  .debug_str:000000000001d6e0 .LASF4101
     /tmp/ccNzw1my.s:91665  .debug_str:000000000000db93 .LASF4102
     /tmp/ccNzw1my.s:97465  .debug_str:0000000000024fec .LASF4103
     /tmp/ccNzw1my.s:102753  .debug_str:000000000003a42f .LASF4104
     /tmp/ccNzw1my.s:100653  .debug_str:00000000000320fe .LASF4105
     /tmp/ccNzw1my.s:104873  .debug_str:000000000004322c .LASF4106
     /tmp/ccNzw1my.s:107063  .debug_str:000000000004c5f0 .LASF4107
     /tmp/ccNzw1my.s:100077  .debug_str:000000000002fb51 .LASF4108
     /tmp/ccNzw1my.s:99089  .debug_str:000000000002ba41 .LASF4109
     /tmp/ccNzw1my.s:89187  .debug_str:00000000000034a8 .LASF4110
     /tmp/ccNzw1my.s:101733  .debug_str:000000000003674a .LASF4111
     /tmp/ccNzw1my.s:96407  .debug_str:000000000002101a .LASF4112
     /tmp/ccNzw1my.s:100407  .debug_str:0000000000031131 .LASF4113
     /tmp/ccNzw1my.s:92889  .debug_str:0000000000012485 .LASF4114
     /tmp/ccNzw1my.s:98427  .debug_str:0000000000028fd9 .LASF4115
     /tmp/ccNzw1my.s:90557  .debug_str:0000000000009144 .LASF4116
     /tmp/ccNzw1my.s:98917  .debug_str:000000000002aeda .LASF4117
     /tmp/ccNzw1my.s:107211  .debug_str:000000000004cfe5 .LASF4118
     /tmp/ccNzw1my.s:89291  .debug_str:0000000000003b48 .LASF4119
     /tmp/ccNzw1my.s:94255  .debug_str:0000000000017c17 .LASF4120
     /tmp/ccNzw1my.s:99305  .debug_str:000000000002c7f6 .LASF4121
     /tmp/ccNzw1my.s:102853  .debug_str:000000000003ab7b .LASF4122
     /tmp/ccNzw1my.s:101091  .debug_str:0000000000033e0c .LASF4123
     /tmp/ccNzw1my.s:93933  .debug_str:0000000000016653 .LASF4124
     /tmp/ccNzw1my.s:95429  .debug_str:000000000001cb56 .LASF4125
     /tmp/ccNzw1my.s:95337  .debug_str:000000000001c4f6 .LASF4126
     /tmp/ccNzw1my.s:89777  .debug_str:0000000000005cee .LASF4127
     /tmp/ccNzw1my.s:89471  .debug_str:00000000000047d1 .LASF4128
     /tmp/ccNzw1my.s:103163  .debug_str:000000000003c05e .LASF4129
     /tmp/ccNzw1my.s:106217  .debug_str:00000000000489fa .LASF4130
     /tmp/ccNzw1my.s:99481  .debug_str:000000000002d402 .LASF4131
     /tmp/ccNzw1my.s:104041  .debug_str:000000000003fac0 .LASF4132
     /tmp/ccNzw1my.s:95995  .debug_str:000000000001f307 .LASF4133
     /tmp/ccNzw1my.s:104355  .debug_str:0000000000040f7e .LASF4134
     /tmp/ccNzw1my.s:94135  .debug_str:0000000000017464 .LASF4135
     /tmp/ccNzw1my.s:91051  .debug_str:000000000000b37c .LASF4136
     /tmp/ccNzw1my.s:107271  .debug_str:000000000004d434 .LASF4137
     /tmp/ccNzw1my.s:89279  .debug_str:0000000000003a8c .LASF4138
     /tmp/ccNzw1my.s:89363  .debug_str:000000000000401a .LASF4139
     /tmp/ccNzw1my.s:101305  .debug_str:0000000000034c7f .LASF4140
     /tmp/ccNzw1my.s:96159  .debug_str:000000000001fee6 .LASF4141
     /tmp/ccNzw1my.s:95521  .debug_str:000000000001d1eb .LASF4142
     /tmp/ccNzw1my.s:106411  .debug_str:0000000000049778 .LASF4143
     /tmp/ccNzw1my.s:95353  .debug_str:000000000001c64e .LASF4144
     /tmp/ccNzw1my.s:106901  .debug_str:000000000004ba64 .LASF4145
     /tmp/ccNzw1my.s:100461  .debug_str:0000000000031552 .LASF4146
     /tmp/ccNzw1my.s:91931  .debug_str:000000000000e9a6 .LASF4147
     /tmp/ccNzw1my.s:93221  .debug_str:0000000000013a2b .LASF4148
     /tmp/ccNzw1my.s:99663  .debug_str:000000000002e05f .LASF4149
     /tmp/ccNzw1my.s:103485  .debug_str:000000000003d4e7 .LASF4150
     /tmp/ccNzw1my.s:89115  .debug_str:0000000000003018 .LASF4151
     /tmp/ccNzw1my.s:89665  .debug_str:00000000000054e4 .LASF4152
     /tmp/ccNzw1my.s:100179  .debug_str:00000000000301ad .LASF4153
     /tmp/ccNzw1my.s:97257  .debug_str:0000000000024549 .LASF4154
     /tmp/ccNzw1my.s:88753  .debug_str:0000000000001592 .LASF4155
     /tmp/ccNzw1my.s:90355  .debug_str:00000000000083d0 .LASF4156
     /tmp/ccNzw1my.s:104177  .debug_str:00000000000403f1 .LASF4157
     /tmp/ccNzw1my.s:90017  .debug_str:0000000000006d4b .LASF4158
     /tmp/ccNzw1my.s:95847  .debug_str:000000000001e859 .LASF4159
     /tmp/ccNzw1my.s:88749  .debug_str:000000000000155b .LASF4160
     /tmp/ccNzw1my.s:96087  .debug_str:000000000001fab0 .LASF4161
     /tmp/ccNzw1my.s:90571  .debug_str:0000000000009242 .LASF4162
     /tmp/ccNzw1my.s:100489  .debug_str:000000000003173a .LASF4163
     /tmp/ccNzw1my.s:102163  .debug_str:0000000000037e29 .LASF4164
     /tmp/ccNzw1my.s:105099  .debug_str:00000000000440b0 .LASF4165
     /tmp/ccNzw1my.s:106321  .debug_str:000000000004912b .LASF4166
     /tmp/ccNzw1my.s:99887  .debug_str:000000000002eeac .LASF4167
     /tmp/ccNzw1my.s:89249  .debug_str:000000000000388b .LASF4168
     /tmp/ccNzw1my.s:90221  .debug_str:0000000000007a92 .LASF4169
     /tmp/ccNzw1my.s:95373  .debug_str:000000000001c7a6 .LASF4170
     /tmp/ccNzw1my.s:98343  .debug_str:0000000000028a6c .LASF4171
     /tmp/ccNzw1my.s:106657  .debug_str:000000000004a85d .LASF4172
     /tmp/ccNzw1my.s:96117  .debug_str:000000000001fc81 .LASF4173
     /tmp/ccNzw1my.s:104475  .debug_str:0000000000041897 .LASF4174
     /tmp/ccNzw1my.s:96667  .debug_str:0000000000022070 .LASF4175
     /tmp/ccNzw1my.s:102321  .debug_str:00000000000386d1 .LASF4176
     /tmp/ccNzw1my.s:91577  .debug_str:000000000000d6ae .LASF4177
     /tmp/ccNzw1my.s:104073  .debug_str:000000000003fc68 .LASF4178
     /tmp/ccNzw1my.s:103009  .debug_str:000000000003b5fd .LASF4179
     /tmp/ccNzw1my.s:100197  .debug_str:00000000000302e9 .LASF4180
     /tmp/ccNzw1my.s:103045  .debug_str:000000000003b85a .LASF4181
     /tmp/ccNzw1my.s:92397  .debug_str:00000000000103e7 .LASF4182
     /tmp/ccNzw1my.s:100835  .debug_str:0000000000032c91 .LASF4183
     /tmp/ccNzw1my.s:105259  .debug_str:0000000000044a77 .LASF4184
     /tmp/ccNzw1my.s:98649  .debug_str:0000000000029d54 .LASF4185
     /tmp/ccNzw1my.s:106947  .debug_str:000000000004bdff .LASF4186
     /tmp/ccNzw1my.s:92987  .debug_str:0000000000012bf5 .LASF4187
     /tmp/ccNzw1my.s:94321  .debug_str:0000000000017ff6 .LASF4188
     /tmp/ccNzw1my.s:96857  .debug_str:0000000000022d04 .LASF4189
     /tmp/ccNzw1my.s:91037  .debug_str:000000000000b22e .LASF4190
     /tmp/ccNzw1my.s:105493  .debug_str:0000000000045a52 .LASF4191
     /tmp/ccNzw1my.s:102811  .debug_str:000000000003a892 .LASF4192
     /tmp/ccNzw1my.s:102633  .debug_str:0000000000039b8b .LASF4193
     /tmp/ccNzw1my.s:92309  .debug_str:000000000000ff53 .LASF4194
     /tmp/ccNzw1my.s:94221  .debug_str:00000000000179fd .LASF4195
     /tmp/ccNzw1my.s:92155  .debug_str:000000000000f6c6 .LASF4196
     /tmp/ccNzw1my.s:102161  .debug_str:0000000000037e12 .LASF4197
     /tmp/ccNzw1my.s:103759  .debug_str:000000000003e618 .LASF4198
     /tmp/ccNzw1my.s:96023  .debug_str:000000000001f50f .LASF4199
     /tmp/ccNzw1my.s:104387  .debug_str:00000000000411fa .LASF4200
     /tmp/ccNzw1my.s:93799  .debug_str:0000000000015d97 .LASF4201
     /tmp/ccNzw1my.s:102241  .debug_str:00000000000381a5 .LASF4202
     /tmp/ccNzw1my.s:104717  .debug_str:0000000000042848 .LASF4203
     /tmp/ccNzw1my.s:101961  .debug_str:000000000003734a .LASF4204
     /tmp/ccNzw1my.s:95611  .debug_str:000000000001d818 .LASF4205
     /tmp/ccNzw1my.s:103989  .debug_str:000000000003f77c .LASF4206
     /tmp/ccNzw1my.s:93419  .debug_str:00000000000145c3 .LASF4207
     /tmp/ccNzw1my.s:90553  .debug_str:0000000000009104 .LASF4208
     /tmp/ccNzw1my.s:91127  .debug_str:000000000000b948 .LASF4209
     /tmp/ccNzw1my.s:99649  .debug_str:000000000002df77 .LASF4210
     /tmp/ccNzw1my.s:101219  .debug_str:00000000000346c3 .LASF4211
     /tmp/ccNzw1my.s:101423  .debug_str:00000000000353eb .LASF4212
     /tmp/ccNzw1my.s:89299  .debug_str:0000000000003bb1 .LASF4213
     /tmp/ccNzw1my.s:105857  .debug_str:000000000004729c .LASF4214
     /tmp/ccNzw1my.s:89165  .debug_str:0000000000003377 .LASF4215
     /tmp/ccNzw1my.s:95457  .debug_str:000000000001cda1 .LASF4216
     /tmp/ccNzw1my.s:91923  .debug_str:000000000000e923 .LASF4217
     /tmp/ccNzw1my.s:93261  .debug_str:0000000000013c99 .LASF4218
     /tmp/ccNzw1my.s:93915  .debug_str:000000000001655b .LASF4219
     /tmp/ccNzw1my.s:95139  .debug_str:000000000001b845 .LASF4220
     /tmp/ccNzw1my.s:99527  .debug_str:000000000002d6cf .LASF4221
     /tmp/ccNzw1my.s:88865  .debug_str:0000000000001da3 .LASF4222
     /tmp/ccNzw1my.s:99821  .debug_str:000000000002ea6e .LASF4223
     /tmp/ccNzw1my.s:89191  .debug_str:00000000000034cc .LASF4224
     /tmp/ccNzw1my.s:104521  .debug_str:0000000000041b47 .LASF4225
     /tmp/ccNzw1my.s:103097  .debug_str:000000000003bbce .LASF4226
     /tmp/ccNzw1my.s:98289  .debug_str:00000000000286c8 .LASF4227
     /tmp/ccNzw1my.s:103849  .debug_str:000000000003ecf2 .LASF4228
     /tmp/ccNzw1my.s:92615  .debug_str:00000000000111cd .LASF4229
     /tmp/ccNzw1my.s:100125  .debug_str:000000000002fdfe .LASF4230
     /tmp/ccNzw1my.s:105925  .debug_str:00000000000476d8 .LASF4231
     /tmp/ccNzw1my.s:106363  .debug_str:0000000000049433 .LASF4232
     /tmp/ccNzw1my.s:93665  .debug_str:00000000000155e1 .LASF4233
     /tmp/ccNzw1my.s:102083  .debug_str:00000000000379bc .LASF4234
     /tmp/ccNzw1my.s:106329  .debug_str:00000000000491e0 .LASF4235
     /tmp/ccNzw1my.s:99861  .debug_str:000000000002ed2f .LASF4236
     /tmp/ccNzw1my.s:89225  .debug_str:00000000000036c0 .LASF4237
     /tmp/ccNzw1my.s:97625  .debug_str:0000000000025af6 .LASF4238
     /tmp/ccNzw1my.s:105959  .debug_str:000000000004788b .LASF4239
     /tmp/ccNzw1my.s:95397  .debug_str:000000000001c923 .LASF4240
     /tmp/ccNzw1my.s:103585  .debug_str:000000000003db86 .LASF4241
     /tmp/ccNzw1my.s:94345  .debug_str:0000000000018113 .LASF4242
     /tmp/ccNzw1my.s:104075  .debug_str:000000000003fc7b .LASF4243
     /tmp/ccNzw1my.s:93499  .debug_str:0000000000014ade .LASF4244
     /tmp/ccNzw1my.s:101917  .debug_str:00000000000371d4 .LASF4245
     /tmp/ccNzw1my.s:91187  .debug_str:000000000000bcf9 .LASF4246
     /tmp/ccNzw1my.s:99329  .debug_str:000000000002c98e .LASF4247
     /tmp/ccNzw1my.s:89109  .debug_str:0000000000002f83 .LASF4248
     /tmp/ccNzw1my.s:97315  .debug_str:000000000002477e .LASF4249
     /tmp/ccNzw1my.s:105681  .debug_str:0000000000046601 .LASF4250
     /tmp/ccNzw1my.s:95113  .debug_str:000000000001b66f .LASF4251
     /tmp/ccNzw1my.s:106117  .debug_str:0000000000048282 .LASF4252
     /tmp/ccNzw1my.s:90083  .debug_str:00000000000071ec .LASF4253
     /tmp/ccNzw1my.s:105115  .debug_str:0000000000044153 .LASF4254
     /tmp/ccNzw1my.s:106561  .debug_str:000000000004a16c .LASF4255
     /tmp/ccNzw1my.s:96007  .debug_str:000000000001f3eb .LASF4256
     /tmp/ccNzw1my.s:95135  .debug_str:000000000001b827 .LASF4257
     /tmp/ccNzw1my.s:94619  .debug_str:000000000001934c .LASF4258
     /tmp/ccNzw1my.s:106131  .debug_str:0000000000048371 .LASF4259
     /tmp/ccNzw1my.s:95881  .debug_str:000000000001ea89 .LASF4260
     /tmp/ccNzw1my.s:99007  .debug_str:000000000002b4e4 .LASF4261
     /tmp/ccNzw1my.s:90331  .debug_str:0000000000008200 .LASF4262
     /tmp/ccNzw1my.s:100831  .debug_str:0000000000032c36 .LASF4263
     /tmp/ccNzw1my.s:92195  .debug_str:000000000000f94e .LASF4264
     /tmp/ccNzw1my.s:100069  .debug_str:000000000002faf6 .LASF4265
     /tmp/ccNzw1my.s:92833  .debug_str:0000000000012099 .LASF4266
     /tmp/ccNzw1my.s:89451  .debug_str:0000000000004642 .LASF4267
     /tmp/ccNzw1my.s:103057  .debug_str:000000000003b912 .LASF4268
     /tmp/ccNzw1my.s:102857  .debug_str:000000000003abb4 .LASF4269
     /tmp/ccNzw1my.s:104711  .debug_str:00000000000427d1 .LASF4270
     /tmp/ccNzw1my.s:105011  .debug_str:0000000000043a87 .LASF4271
     /tmp/ccNzw1my.s:90977  .debug_str:000000000000adb7 .LASF4272
     /tmp/ccNzw1my.s:98011  .debug_str:0000000000027483 .LASF4273
     /tmp/ccNzw1my.s:101413  .debug_str:0000000000035352 .LASF4274
     /tmp/ccNzw1my.s:97965  .debug_str:000000000002710a .LASF4275
     /tmp/ccNzw1my.s:103443  .debug_str:000000000003d1ec .LASF4276
     /tmp/ccNzw1my.s:101543  .debug_str:0000000000035b62 .LASF4277
     /tmp/ccNzw1my.s:97011  .debug_str:000000000002379c .LASF4278
     /tmp/ccNzw1my.s:102383  .debug_str:0000000000038ac3 .LASF4279
     /tmp/ccNzw1my.s:98799  .debug_str:000000000002a716 .LASF4280
     /tmp/ccNzw1my.s:92213  .debug_str:000000000000fa7d .LASF4281
     /tmp/ccNzw1my.s:90629  .debug_str:000000000000965e .LASF4282
     /tmp/ccNzw1my.s:91965  .debug_str:000000000000ec1f .LASF4283
     /tmp/ccNzw1my.s:91973  .debug_str:000000000000ecba .LASF4284
     /tmp/ccNzw1my.s:93905  .debug_str:00000000000164ab .LASF4285
     /tmp/ccNzw1my.s:104297  .debug_str:0000000000040b19 .LASF4286
     /tmp/ccNzw1my.s:95561  .debug_str:000000000001d4a2 .LASF4287
     /tmp/ccNzw1my.s:91023  .debug_str:000000000000b14b .LASF4288
     /tmp/ccNzw1my.s:101631  .debug_str:00000000000360c3 .LASF4289
     /tmp/ccNzw1my.s:102653  .debug_str:0000000000039c9f .LASF4290
     /tmp/ccNzw1my.s:101933  .debug_str:000000000003729f .LASF4291
     /tmp/ccNzw1my.s:91399  .debug_str:000000000000cb2f .LASF4292
     /tmp/ccNzw1my.s:102725  .debug_str:000000000003a232 .LASF4293
     /tmp/ccNzw1my.s:94121  .debug_str:00000000000173a8 .LASF4294
     /tmp/ccNzw1my.s:104545  .debug_str:0000000000041d04 .LASF4295
     /tmp/ccNzw1my.s:103675  .debug_str:000000000003e0d1 .LASF4296
     /tmp/ccNzw1my.s:102235  .debug_str:0000000000038164 .LASF4297
     /tmp/ccNzw1my.s:97835  .debug_str:0000000000026886 .LASF4298
     /tmp/ccNzw1my.s:94839  .debug_str:000000000001a383 .LASF4299
     /tmp/ccNzw1my.s:104331  .debug_str:0000000000040df7 .LASF4300
     /tmp/ccNzw1my.s:96689  .debug_str:000000000002219f .LASF4301
     /tmp/ccNzw1my.s:100533  .debug_str:00000000000319e9 .LASF4302
     /tmp/ccNzw1my.s:101931  .debug_str:0000000000037286 .LASF4303
     /tmp/ccNzw1my.s:106249  .debug_str:0000000000048c39 .LASF4304
     /tmp/ccNzw1my.s:100249  .debug_str:00000000000305ca .LASF4305
     /tmp/ccNzw1my.s:91571  .debug_str:000000000000d668 .LASF4306
     /tmp/ccNzw1my.s:102115  .debug_str:0000000000037aea .LASF4307
     /tmp/ccNzw1my.s:93507  .debug_str:0000000000014b81 .LASF4308
     /tmp/ccNzw1my.s:88847  .debug_str:0000000000001c82 .LASF4309
     /tmp/ccNzw1my.s:99339  .debug_str:000000000002ca1c .LASF4310
     /tmp/ccNzw1my.s:90601  .debug_str:0000000000009403 .LASF4311
     /tmp/ccNzw1my.s:101137  .debug_str:0000000000034181 .LASF4312
     /tmp/ccNzw1my.s:92523  .debug_str:0000000000010c02 .LASF4313
     /tmp/ccNzw1my.s:94799  .debug_str:000000000001a0d0 .LASF4314
     /tmp/ccNzw1my.s:94265  .debug_str:0000000000017ca8 .LASF4315
     /tmp/ccNzw1my.s:91149  .debug_str:000000000000bab7 .LASF4316
     /tmp/ccNzw1my.s:103457  .debug_str:000000000003d2e9 .LASF4317
     /tmp/ccNzw1my.s:106485  .debug_str:0000000000049c25 .LASF4318
     /tmp/ccNzw1my.s:101923  .debug_str:000000000003723f .LASF4319
     /tmp/ccNzw1my.s:94523  .debug_str:0000000000018d1b .LASF4320
     /tmp/ccNzw1my.s:102335  .debug_str:00000000000387e1 .LASF4321
     /tmp/ccNzw1my.s:90267  .debug_str:0000000000007d6c .LASF4322
     /tmp/ccNzw1my.s:104135  .debug_str:0000000000040104 .LASF4323
     /tmp/ccNzw1my.s:91115  .debug_str:000000000000b891 .LASF4324
     /tmp/ccNzw1my.s:95401  .debug_str:000000000001c955 .LASF4325
     /tmp/ccNzw1my.s:106107  .debug_str:00000000000481ee .LASF4326
     /tmp/ccNzw1my.s:98997  .debug_str:000000000002b438 .LASF4327
     /tmp/ccNzw1my.s:103573  .debug_str:000000000003daa7 .LASF4328
     /tmp/ccNzw1my.s:101641  .debug_str:0000000000036145 .LASF4329
     /tmp/ccNzw1my.s:100983  .debug_str:0000000000033634 .LASF4330
     /tmp/ccNzw1my.s:94827  .debug_str:000000000001a2e5 .LASF4331
     /tmp/ccNzw1my.s:105747  .debug_str:0000000000046ad3 .LASF4332
     /tmp/ccNzw1my.s:94383  .debug_str:000000000001837a .LASF4333
     /tmp/ccNzw1my.s:98909  .debug_str:000000000002ae7f .LASF4334
     /tmp/ccNzw1my.s:98323  .debug_str:00000000000288f9 .LASF4335
     /tmp/ccNzw1my.s:101053  .debug_str:0000000000033b4e .LASF4336
     /tmp/ccNzw1my.s:92755  .debug_str:0000000000011bcd .LASF4337
     /tmp/ccNzw1my.s:106589  .debug_str:000000000004a36b .LASF4338
     /tmp/ccNzw1my.s:99043  .debug_str:000000000002b7ac .LASF4339
     /tmp/ccNzw1my.s:89281  .debug_str:0000000000003aa3 .LASF4340
     /tmp/ccNzw1my.s:106501  .debug_str:0000000000049d5b .LASF4341
     /tmp/ccNzw1my.s:104961  .debug_str:0000000000043768 .LASF4342
     /tmp/ccNzw1my.s:90163  .debug_str:00000000000076dc .LASF4343
     /tmp/ccNzw1my.s:99227  .debug_str:000000000002c2a4 .LASF4344
     /tmp/ccNzw1my.s:104595  .debug_str:0000000000041ff9 .LASF4345
     /tmp/ccNzw1my.s:98677  .debug_str:0000000000029f8c .LASF4346
     /tmp/ccNzw1my.s:93075  .debug_str:000000000001313d .LASF4347
     /tmp/ccNzw1my.s:88667  .debug_str:0000000000000fe0 .LASF4348
     /tmp/ccNzw1my.s:98629  .debug_str:0000000000029c74 .LASF4349
     /tmp/ccNzw1my.s:98531  .debug_str:0000000000029624 .LASF4350
     /tmp/ccNzw1my.s:97427  .debug_str:0000000000024d8d .LASF4351
     /tmp/ccNzw1my.s:89841  .debug_str:00000000000060da .LASF4352
     /tmp/ccNzw1my.s:95833  .debug_str:000000000001e74c .LASF4353
     /tmp/ccNzw1my.s:100269  .debug_str:00000000000306d7 .LASF4354
     /tmp/ccNzw1my.s:94249  .debug_str:0000000000017b8f .LASF4355
     /tmp/ccNzw1my.s:91739  .debug_str:000000000000e009 .LASF4356
     /tmp/ccNzw1my.s:102957  .debug_str:000000000003b22e .LASF4357
     /tmp/ccNzw1my.s:92793  .debug_str:0000000000011e3b .LASF4358
     /tmp/ccNzw1my.s:90719  .debug_str:0000000000009c35 .LASF4359
     /tmp/ccNzw1my.s:91745  .debug_str:000000000000e06b .LASF4360
     /tmp/ccNzw1my.s:97793  .debug_str:00000000000265b3 .LASF4361
     /tmp/ccNzw1my.s:102135  .debug_str:0000000000037c1e .LASF4362
     /tmp/ccNzw1my.s:100391  .debug_str:0000000000030fef .LASF4363
     /tmp/ccNzw1my.s:99427  .debug_str:000000000002d019 .LASF4364
     /tmp/ccNzw1my.s:103357  .debug_str:000000000003cd1a .LASF4365
     /tmp/ccNzw1my.s:98635  .debug_str:0000000000029cbe .LASF4366
     /tmp/ccNzw1my.s:106075  .debug_str:000000000004800e .LASF4367
     /tmp/ccNzw1my.s:89053  .debug_str:0000000000002ade .LASF4368
     /tmp/ccNzw1my.s:101915  .debug_str:00000000000371ac .LASF4369
     /tmp/ccNzw1my.s:98153  .debug_str:0000000000027ebc .LASF4370
     /tmp/ccNzw1my.s:101165  .debug_str:0000000000034385 .LASF4371
     /tmp/ccNzw1my.s:101347  .debug_str:0000000000034f5a .LASF4372
     /tmp/ccNzw1my.s:88563  .debug_str:000000000000091c .LASF4373
     /tmp/ccNzw1my.s:94897  .debug_str:000000000001a71c .LASF4374
     /tmp/ccNzw1my.s:89253  .debug_str:00000000000038b0 .LASF4375
     /tmp/ccNzw1my.s:91855  .debug_str:000000000000e684 .LASF4376
     /tmp/ccNzw1my.s:90627  .debug_str:0000000000009630 .LASF4377
     /tmp/ccNzw1my.s:97247  .debug_str:000000000002446f .LASF4378
     /tmp/ccNzw1my.s:104295  .debug_str:0000000000040af3 .LASF4379
     /tmp/ccNzw1my.s:91725  .debug_str:000000000000df5f .LASF4380
     /tmp/ccNzw1my.s:93247  .debug_str:0000000000013bda .LASF4381
     /tmp/ccNzw1my.s:92025  .debug_str:000000000000eef4 .LASF4382
     /tmp/ccNzw1my.s:98847  .debug_str:000000000002aa76 .LASF4383
     /tmp/ccNzw1my.s:105717  .debug_str:000000000004686e .LASF4384
     /tmp/ccNzw1my.s:100587  .debug_str:0000000000031d53 .LASF4385
     /tmp/ccNzw1my.s:106497  .debug_str:0000000000049d17 .LASF4386
     /tmp/ccNzw1my.s:101999  .debug_str:000000000003759c .LASF4387
     /tmp/ccNzw1my.s:88857  .debug_str:0000000000001d30 .LASF4388
     /tmp/ccNzw1my.s:94749  .debug_str:0000000000019cd3 .LASF4389
     /tmp/ccNzw1my.s:100661  .debug_str:000000000003215a .LASF4390
     /tmp/ccNzw1my.s:104747  .debug_str:0000000000042a67 .LASF4391
     /tmp/ccNzw1my.s:93267  .debug_str:0000000000013d18 .LASF4392
     /tmp/ccNzw1my.s:93199  .debug_str:00000000000138f5 .LASF4393
     /tmp/ccNzw1my.s:104077  .debug_str:000000000003fc91 .LASF4394
     /tmp/ccNzw1my.s:105761  .debug_str:0000000000046bea .LASF4395
     /tmp/ccNzw1my.s:94463  .debug_str:00000000000188df .LASF4396
     /tmp/ccNzw1my.s:96011  .debug_str:000000000001f437 .LASF4397
     /tmp/ccNzw1my.s:103625  .debug_str:000000000003dde2 .LASF4398
     /tmp/ccNzw1my.s:96643  .debug_str:0000000000021f33 .LASF4399
     /tmp/ccNzw1my.s:93849  .debug_str:0000000000016144 .LASF4400
     /tmp/ccNzw1my.s:102767  .debug_str:000000000003a579 .LASF4401
     /tmp/ccNzw1my.s:98905  .debug_str:000000000002ae3b .LASF4402
     /tmp/ccNzw1my.s:93919  .debug_str:00000000000165b6 .LASF4403
     /tmp/ccNzw1my.s:97337  .debug_str:00000000000248f4 .LASF4404
     /tmp/ccNzw1my.s:103267  .debug_str:000000000003c6cb .LASF4405
     /tmp/ccNzw1my.s:89563  .debug_str:0000000000004dd3 .LASF4406
     /tmp/ccNzw1my.s:92079  .debug_str:000000000000f195 .LASF4407
     /tmp/ccNzw1my.s:105047  .debug_str:0000000000043cf1 .LASF4408
     /tmp/ccNzw1my.s:89257  .debug_str:00000000000038ec .LASF4409
     /tmp/ccNzw1my.s:89995  .debug_str:0000000000006b59 .LASF4410
     /tmp/ccNzw1my.s:105755  .debug_str:0000000000046b52 .LASF4411
     /tmp/ccNzw1my.s:99765  .debug_str:000000000002e6b1 .LASF4412
     /tmp/ccNzw1my.s:93639  .debug_str:0000000000015433 .LASF4413
     /tmp/ccNzw1my.s:96251  .debug_str:00000000000204de .LASF4414
     /tmp/ccNzw1my.s:95511  .debug_str:000000000001d128 .LASF4415
     /tmp/ccNzw1my.s:101321  .debug_str:0000000000034db5 .LASF4416
     /tmp/ccNzw1my.s:94511  .debug_str:0000000000018c72 .LASF4417
     /tmp/ccNzw1my.s:103491  .debug_str:000000000003d55a .LASF4418
     /tmp/ccNzw1my.s:93511  .debug_str:0000000000014bb4 .LASF4419
     /tmp/ccNzw1my.s:102563  .debug_str:00000000000396fc .LASF4420
     /tmp/ccNzw1my.s:91121  .debug_str:000000000000b90e .LASF4421
     /tmp/ccNzw1my.s:89713  .debug_str:00000000000058ee .LASF4422
     /tmp/ccNzw1my.s:90823  .debug_str:000000000000a316 .LASF4423
     /tmp/ccNzw1my.s:105053  .debug_str:0000000000043d89 .LASF4424
     /tmp/ccNzw1my.s:91431  .debug_str:000000000000cda4 .LASF4425
     /tmp/ccNzw1my.s:89879  .debug_str:000000000000633f .LASF4426
     /tmp/ccNzw1my.s:98369  .debug_str:0000000000028bf1 .LASF4427
     /tmp/ccNzw1my.s:98589  .debug_str:00000000000299c8 .LASF4428
     /tmp/ccNzw1my.s:103561  .debug_str:000000000003d996 .LASF4429
     /tmp/ccNzw1my.s:99153  .debug_str:000000000002be17 .LASF4430
     /tmp/ccNzw1my.s:94739  .debug_str:0000000000019bc4 .LASF4431
     /tmp/ccNzw1my.s:106033  .debug_str:0000000000047d2e .LASF4432
     /tmp/ccNzw1my.s:100033  .debug_str:000000000002f8bc .LASF4433
     /tmp/ccNzw1my.s:106209  .debug_str:000000000004897e .LASF4434
     /tmp/ccNzw1my.s:100223  .debug_str:0000000000030422 .LASF4435
     /tmp/ccNzw1my.s:94109  .debug_str:00000000000172f8 .LASF4436
     /tmp/ccNzw1my.s:107001  .debug_str:000000000004c19c .LASF4437
     /tmp/ccNzw1my.s:100969  .debug_str:0000000000033540 .LASF4438
     /tmp/ccNzw1my.s:94875  .debug_str:000000000001a598 .LASF4439
     /tmp/ccNzw1my.s:99871  .debug_str:000000000002ed8b .LASF4440
     /tmp/ccNzw1my.s:97223  .debug_str:0000000000024334 .LASF4441
     /tmp/ccNzw1my.s:92675  .debug_str:00000000000115f6 .LASF4442
     /tmp/ccNzw1my.s:98377  .debug_str:0000000000028c68 .LASF4443
     /tmp/ccNzw1my.s:93621  .debug_str:0000000000015305 .LASF4444
     /tmp/ccNzw1my.s:97905  .debug_str:0000000000026d35 .LASF4445
     /tmp/ccNzw1my.s:100009  .debug_str:000000000002f724 .LASF4446
     /tmp/ccNzw1my.s:91859  .debug_str:000000000000e6a8 .LASF4447
     /tmp/ccNzw1my.s:98701  .debug_str:000000000002a128 .LASF4448
     /tmp/ccNzw1my.s:101161  .debug_str:0000000000034305 .LASF4449
     /tmp/ccNzw1my.s:105445  .debug_str:00000000000456aa .LASF4450
     /tmp/ccNzw1my.s:100161  .debug_str:0000000000030030 .LASF4451
     /tmp/ccNzw1my.s:93327  .debug_str:00000000000140c4 .LASF4452
     /tmp/ccNzw1my.s:98815  .debug_str:000000000002a7d8 .LASF4453
     /tmp/ccNzw1my.s:92679  .debug_str:0000000000011634 .LASF4454
     /tmp/ccNzw1my.s:94809  .debug_str:000000000001a180 .LASF4455
     /tmp/ccNzw1my.s:89105  .debug_str:0000000000002f0c .LASF4456
     /tmp/ccNzw1my.s:93803  .debug_str:0000000000015dc3 .LASF4457
     /tmp/ccNzw1my.s:92069  .debug_str:000000000000f0f7 .LASF4458
     /tmp/ccNzw1my.s:101261  .debug_str:00000000000349a7 .LASF4459
     /tmp/ccNzw1my.s:103973  .debug_str:000000000003f626 .LASF4460
     /tmp/ccNzw1my.s:97007  .debug_str:0000000000023759 .LASF4461
     /tmp/ccNzw1my.s:91749  .debug_str:000000000000e0cb .LASF4462
     /tmp/ccNzw1my.s:97249  .debug_str:000000000002449f .LASF4463
     /tmp/ccNzw1my.s:99849  .debug_str:000000000002ec45 .LASF4464
     /tmp/ccNzw1my.s:89795  .debug_str:0000000000005dd0 .LASF4465
     /tmp/ccNzw1my.s:98033  .debug_str:0000000000027602 .LASF4466
     /tmp/ccNzw1my.s:88801  .debug_str:0000000000001933 .LASF4467
     /tmp/ccNzw1my.s:90621  .debug_str:00000000000095b2 .LASF4468
     /tmp/ccNzw1my.s:98841  .debug_str:000000000002a9f1 .LASF4469
     /tmp/ccNzw1my.s:92711  .debug_str:0000000000011868 .LASF4470
     /tmp/ccNzw1my.s:105597  .debug_str:00000000000460d1 .LASF4471
     /tmp/ccNzw1my.s:91155  .debug_str:000000000000bb13 .LASF4472
     /tmp/ccNzw1my.s:106539  .debug_str:0000000000049fc8 .LASF4473
     /tmp/ccNzw1my.s:98087  .debug_str:0000000000027992 .LASF4474
     /tmp/ccNzw1my.s:103925  .debug_str:000000000003f22c .LASF4475
     /tmp/ccNzw1my.s:93953  .debug_str:000000000001678d .LASF4476
     /tmp/ccNzw1my.s:107015  .debug_str:000000000004c2f0 .LASF4477
     /tmp/ccNzw1my.s:99607  .debug_str:000000000002dc29 .LASF4478
     /tmp/ccNzw1my.s:101655  .debug_str:000000000003623f .LASF4479
     /tmp/ccNzw1my.s:97879  .debug_str:0000000000026b82 .LASF4480
     /tmp/ccNzw1my.s:89891  .debug_str:0000000000006441 .LASF4481
     /tmp/ccNzw1my.s:106405  .debug_str:00000000000496e7 .LASF4482
     /tmp/ccNzw1my.s:102967  .debug_str:000000000003b339 .LASF4483
     /tmp/ccNzw1my.s:97569  .debug_str:000000000002572d .LASF4484
     /tmp/ccNzw1my.s:96099  .debug_str:000000000001fb1f .LASF4485
     /tmp/ccNzw1my.s:105687  .debug_str:0000000000046637 .LASF4486
     /tmp/ccNzw1my.s:98359  .debug_str:0000000000028b64 .LASF4487
     /tmp/ccNzw1my.s:104021  .debug_str:000000000003f90c .LASF4488
     /tmp/ccNzw1my.s:90721  .debug_str:0000000000009c60 .LASF4489
     /tmp/ccNzw1my.s:99149  .debug_str:000000000002bdbc .LASF4490
     /tmp/ccNzw1my.s:96143  .debug_str:000000000001fdc5 .LASF4491
     /tmp/ccNzw1my.s:96635  .debug_str:0000000000021e98 .LASF4492
     /tmp/ccNzw1my.s:104167  .debug_str:000000000004036e .LASF4493
     /tmp/ccNzw1my.s:104715  .debug_str:000000000004280f .LASF4494
     /tmp/ccNzw1my.s:99937  .debug_str:000000000002f2a7 .LASF4495
     /tmp/ccNzw1my.s:91227  .debug_str:000000000000bfa2 .LASF4496
     /tmp/ccNzw1my.s:97217  .debug_str:0000000000024305 .LASF4497
     /tmp/ccNzw1my.s:98363  .debug_str:0000000000028ba5 .LASF4498
     /tmp/ccNzw1my.s:92215  .debug_str:000000000000fa95 .LASF4499
     /tmp/ccNzw1my.s:105159  .debug_str:00000000000443f4 .LASF4500
     /tmp/ccNzw1my.s:95905  .debug_str:000000000001ebef .LASF4501
     /tmp/ccNzw1my.s:102693  .debug_str:0000000000039fce .LASF4502
     /tmp/ccNzw1my.s:92651  .debug_str:0000000000011445 .LASF4503
     /tmp/ccNzw1my.s:100027  .debug_str:000000000002f841 .LASF4504
     /tmp/ccNzw1my.s:91557  .debug_str:000000000000d56d .LASF4505
     /tmp/ccNzw1my.s:106805  .debug_str:000000000004b360 .LASF4506
     /tmp/ccNzw1my.s:100803  .debug_str:0000000000032ac7 .LASF4507
     /tmp/ccNzw1my.s:101983  .debug_str:00000000000374ae .LASF4508
     /tmp/ccNzw1my.s:95861  .debug_str:000000000001e969 .LASF4509
     /tmp/ccNzw1my.s:96733  .debug_str:000000000002249c .LASF4510
     /tmp/ccNzw1my.s:102717  .debug_str:000000000003a180 .LASF4511
     /tmp/ccNzw1my.s:106195  .debug_str:0000000000048835 .LASF4512
     /tmp/ccNzw1my.s:105811  .debug_str:0000000000046f68 .LASF4513
     /tmp/ccNzw1my.s:91247  .debug_str:000000000000c10d .LASF4514
     /tmp/ccNzw1my.s:101319  .debug_str:0000000000034d7e .LASF4515
     /tmp/ccNzw1my.s:104697  .debug_str:00000000000426b4 .LASF4516
     /tmp/ccNzw1my.s:105321  .debug_str:0000000000044e2a .LASF4517
     /tmp/ccNzw1my.s:90251  .debug_str:0000000000007c17 .LASF4518
     /tmp/ccNzw1my.s:105441  .debug_str:0000000000045631 .LASF4519
     /tmp/ccNzw1my.s:89293  .debug_str:0000000000003b5e .LASF4520
     /tmp/ccNzw1my.s:98317  .debug_str:0000000000028889 .LASF4521
     /tmp/ccNzw1my.s:107239  .debug_str:000000000004d1fb .LASF4522
     /tmp/ccNzw1my.s:94387  .debug_str:00000000000183d9 .LASF4523
     /tmp/ccNzw1my.s:94065  .debug_str:0000000000016fc7 .LASF4524
     /tmp/ccNzw1my.s:94411  .debug_str:000000000001859e .LASF4525
     /tmp/ccNzw1my.s:98465  .debug_str:000000000002927b .LASF4526
     /tmp/ccNzw1my.s:101249  .debug_str:0000000000034892 .LASF4527
     /tmp/ccNzw1my.s:95171  .debug_str:000000000001ba22 .LASF4528
     /tmp/ccNzw1my.s:89101  .debug_str:0000000000002e90 .LASF4529
     /tmp/ccNzw1my.s:102051  .debug_str:00000000000377fb .LASF4530
     /tmp/ccNzw1my.s:94545  .debug_str:0000000000018e98 .LASF4531
     /tmp/ccNzw1my.s:98609  .debug_str:0000000000029b6b .LASF4532
     /tmp/ccNzw1my.s:106911  .debug_str:000000000004bb46 .LASF4533
     /tmp/ccNzw1my.s:96913  .debug_str:000000000002309c .LASF4534
     /tmp/ccNzw1my.s:105893  .debug_str:00000000000474aa .LASF4535
     /tmp/ccNzw1my.s:95937  .debug_str:000000000001ee68 .LASF4536
     /tmp/ccNzw1my.s:98183  .debug_str:000000000002808e .LASF4537
     /tmp/ccNzw1my.s:105591  .debug_str:000000000004603c .LASF4538
     /tmp/ccNzw1my.s:99583  .debug_str:000000000002da08 .LASF4539
     /tmp/ccNzw1my.s:102803  .debug_str:000000000003a819 .LASF4540
     /tmp/ccNzw1my.s:96371  .debug_str:0000000000020dac .LASF4541
     /tmp/ccNzw1my.s:95579  .debug_str:000000000001d5c4 .LASF4542
     /tmp/ccNzw1my.s:95341  .debug_str:000000000001c52b .LASF4543
     /tmp/ccNzw1my.s:89099  .debug_str:0000000000002e57 .LASF4544
     /tmp/ccNzw1my.s:100945  .debug_str:00000000000333b9 .LASF4545
     /tmp/ccNzw1my.s:93147  .debug_str:00000000000135ba .LASF4546
     /tmp/ccNzw1my.s:106001  .debug_str:0000000000047b09 .LASF4547
     /tmp/ccNzw1my.s:99999  .debug_str:000000000002f692 .LASF4548
     /tmp/ccNzw1my.s:89267  .debug_str:00000000000039db .LASF4549
     /tmp/ccNzw1my.s:106949  .debug_str:000000000004be13 .LASF4550
     /tmp/ccNzw1my.s:95857  .debug_str:000000000001e8ef .LASF4551
     /tmp/ccNzw1my.s:94821  .debug_str:000000000001a24b .LASF4552
     /tmp/ccNzw1my.s:88767  .debug_str:0000000000001652 .LASF4553
     /tmp/ccNzw1my.s:107107  .debug_str:000000000004c8c2 .LASF4554
     /tmp/ccNzw1my.s:97553  .debug_str:00000000000255c6 .LASF4555
     /tmp/ccNzw1my.s:94569  .debug_str:000000000001902b .LASF4556
     /tmp/ccNzw1my.s:93461  .debug_str:000000000001483e .LASF4557
     /tmp/ccNzw1my.s:105499  .debug_str:0000000000045a91 .LASF4558
     /tmp/ccNzw1my.s:100313  .debug_str:00000000000309e3 .LASF4559
     /tmp/ccNzw1my.s:97457  .debug_str:0000000000024f73 .LASF4560
     /tmp/ccNzw1my.s:107091  .debug_str:000000000004c801 .LASF4561
     /tmp/ccNzw1my.s:103489  .debug_str:000000000003d523 .LASF4562
     /tmp/ccNzw1my.s:102337  .debug_str:00000000000387fc .LASF4563
     /tmp/ccNzw1my.s:102375  .debug_str:0000000000038a5d .LASF4564
     /tmp/ccNzw1my.s:107251  .debug_str:000000000004d2d3 .LASF4565
     /tmp/ccNzw1my.s:97265  .debug_str:00000000000245a2 .LASF4566
     /tmp/ccNzw1my.s:103069  .debug_str:000000000003b9ca .LASF4567
     /tmp/ccNzw1my.s:92913  .debug_str:0000000000012629 .LASF4568
     /tmp/ccNzw1my.s:93979  .debug_str:0000000000016983 .LASF4569
     /tmp/ccNzw1my.s:100863  .debug_str:0000000000032e2c .LASF4570
     /tmp/ccNzw1my.s:94445  .debug_str:0000000000018791 .LASF4571
     /tmp/ccNzw1my.s:103723  .debug_str:000000000003e3fd .LASF4572
     /tmp/ccNzw1my.s:105055  .debug_str:0000000000043dc1 .LASF4573
     /tmp/ccNzw1my.s:107039  .debug_str:000000000004c442 .LASF4574
     /tmp/ccNzw1my.s:94771  .debug_str:0000000000019eeb .LASF4575
     /tmp/ccNzw1my.s:93617  .debug_str:0000000000015293 .LASF4576
     /tmp/ccNzw1my.s:88831  .debug_str:0000000000001b6b .LASF4577
     /tmp/ccNzw1my.s:90653  .debug_str:0000000000009840 .LASF4578
     /tmp/ccNzw1my.s:95639  .debug_str:000000000001da2c .LASF4579
     /tmp/ccNzw1my.s:102441  .debug_str:0000000000038ef2 .LASF4580
     /tmp/ccNzw1my.s:102699  .debug_str:000000000003a050 .LASF4581
     /tmp/ccNzw1my.s:98397  .debug_str:0000000000028de0 .LASF4582
     /tmp/ccNzw1my.s:102295  .debug_str:000000000003851d .LASF4583
     /tmp/ccNzw1my.s:88973  .debug_str:0000000000002525 .LASF4584
     /tmp/ccNzw1my.s:106695  .debug_str:000000000004aa66 .LASF4585
     /tmp/ccNzw1my.s:99585  .debug_str:000000000002da3f .LASF4586
     /tmp/ccNzw1my.s:100699  .debug_str:000000000003242c .LASF4587
     /tmp/ccNzw1my.s:89499  .debug_str:00000000000049bc .LASF4588
     /tmp/ccNzw1my.s:104745  .debug_str:0000000000042a41 .LASF4589
     /tmp/ccNzw1my.s:103335  .debug_str:000000000003cb6a .LASF4590
     /tmp/ccNzw1my.s:100725  .debug_str:00000000000325c2 .LASF4591
     /tmp/ccNzw1my.s:93189  .debug_str:0000000000013816 .LASF4592
     /tmp/ccNzw1my.s:105413  .debug_str:00000000000453ee .LASF4593
     /tmp/ccNzw1my.s:91159  .debug_str:000000000000bb5b .LASF4594
     /tmp/ccNzw1my.s:88969  .debug_str:00000000000024dd .LASF4595
     /tmp/ccNzw1my.s:90277  .debug_str:0000000000007ddc .LASF4596
     /tmp/ccNzw1my.s:104791  .debug_str:0000000000042d12 .LASF4597
     /tmp/ccNzw1my.s:88461  .debug_str:00000000000001cb .LASF4598
     /tmp/ccNzw1my.s:98599  .debug_str:0000000000029aaf .LASF4599
     /tmp/ccNzw1my.s:93283  .debug_str:0000000000013e0f .LASF4600
     /tmp/ccNzw1my.s:105619  .debug_str:0000000000046214 .LASF4601
     /tmp/ccNzw1my.s:99497  .debug_str:000000000002d49d .LASF4602
     /tmp/ccNzw1my.s:103221  .debug_str:000000000003c3ef .LASF4603
     /tmp/ccNzw1my.s:102459  .debug_str:000000000003904d .LASF4604
     /tmp/ccNzw1my.s:101523  .debug_str:0000000000035a2f .LASF4605
     /tmp/ccNzw1my.s:96471  .debug_str:00000000000213fe .LASF4606
     /tmp/ccNzw1my.s:105873  .debug_str:0000000000047351 .LASF4607
     /tmp/ccNzw1my.s:94919  .debug_str:000000000001a872 .LASF4608
     /tmp/ccNzw1my.s:107341  .debug_str:000000000004d8fe .LASF4609
     /tmp/ccNzw1my.s:100897  .debug_str:00000000000330df .LASF4610
     /tmp/ccNzw1my.s:94187  .debug_str:0000000000017785 .LASF4611
     /tmp/ccNzw1my.s:96507  .debug_str:00000000000215df .LASF4612
     /tmp/ccNzw1my.s:91019  .debug_str:000000000000b0db .LASF4613
     /tmp/ccNzw1my.s:104489  .debug_str:0000000000041962 .LASF4614
     /tmp/ccNzw1my.s:101791  .debug_str:0000000000036a1f .LASF4615
     /tmp/ccNzw1my.s:105093  .debug_str:000000000004403e .LASF4616
     /tmp/ccNzw1my.s:100853  .debug_str:0000000000032d84 .LASF4617
     /tmp/ccNzw1my.s:101901  .debug_str:00000000000370d2 .LASF4618
     /tmp/ccNzw1my.s:101215  .debug_str:0000000000034684 .LASF4619
     /tmp/ccNzw1my.s:96127  .debug_str:000000000001fcfc .LASF4620
     /tmp/ccNzw1my.s:100211  .debug_str:0000000000030383 .LASF4621
     /tmp/ccNzw1my.s:98733  .debug_str:000000000002a35c .LASF4622
     /tmp/ccNzw1my.s:95935  .debug_str:000000000001ee43 .LASF4623
     /tmp/ccNzw1my.s:98249  .debug_str:0000000000028451 .LASF4624
     /tmp/ccNzw1my.s:92757  .debug_str:0000000000011bfe .LASF4625
     /tmp/ccNzw1my.s:104919  .debug_str:00000000000434e4 .LASF4626
     /tmp/ccNzw1my.s:92323  .debug_str:0000000000010067 .LASF4627
     /tmp/ccNzw1my.s:95061  .debug_str:000000000001b2b7 .LASF4628
     /tmp/ccNzw1my.s:104151  .debug_str:000000000004022d .LASF4629
     /tmp/ccNzw1my.s:102087  .debug_str:00000000000379e7 .LASF4630
     /tmp/ccNzw1my.s:107117  .debug_str:000000000004c97c .LASF4631
     /tmp/ccNzw1my.s:99969  .debug_str:000000000002f4c6 .LASF4632
     /tmp/ccNzw1my.s:105081  .debug_str:0000000000043f42 .LASF4633
     /tmp/ccNzw1my.s:91851  .debug_str:000000000000e63e .LASF4634
     /tmp/ccNzw1my.s:94133  .debug_str:0000000000017432 .LASF4635
     /tmp/ccNzw1my.s:101359  .debug_str:0000000000035019 .LASF4636
     /tmp/ccNzw1my.s:98717  .debug_str:000000000002a247 .LASF4637
     /tmp/ccNzw1my.s:99661  .debug_str:000000000002e04c .LASF4638
     /tmp/ccNzw1my.s:91661  .debug_str:000000000000db54 .LASF4639
     /tmp/ccNzw1my.s:100861  .debug_str:0000000000032e05 .LASF4640
     /tmp/ccNzw1my.s:90703  .debug_str:0000000000009b07 .LASF4641
     /tmp/ccNzw1my.s:105921  .debug_str:0000000000047684 .LASF4642
     /tmp/ccNzw1my.s:93731  .debug_str:000000000001591a .LASF4643
     /tmp/ccNzw1my.s:95029  .debug_str:000000000001b043 .LASF4644
     /tmp/ccNzw1my.s:92917  .debug_str:0000000000012651 .LASF4645
     /tmp/ccNzw1my.s:91937  .debug_str:000000000000e9f5 .LASF4646
     /tmp/ccNzw1my.s:88731  .debug_str:0000000000001445 .LASF4647
     /tmp/ccNzw1my.s:95927  .debug_str:000000000001eda4 .LASF4648
     /tmp/ccNzw1my.s:105911  .debug_str:00000000000475ea .LASF4649
     /tmp/ccNzw1my.s:95187  .debug_str:000000000001bba5 .LASF4650
     /tmp/ccNzw1my.s:100105  .debug_str:000000000002fcf6 .LASF4651
     /tmp/ccNzw1my.s:94471  .debug_str:0000000000018975 .LASF4652
     /tmp/ccNzw1my.s:97093  .debug_str:0000000000023ca5 .LASF4653
     /tmp/ccNzw1my.s:105979  .debug_str:00000000000479fc .LASF4654
     /tmp/ccNzw1my.s:93751  .debug_str:0000000000015a9b .LASF4655
     /tmp/ccNzw1my.s:94259  .debug_str:0000000000017c4e .LASF4656
     /tmp/ccNzw1my.s:91465  .debug_str:000000000000cfbf .LASF4657
     /tmp/ccNzw1my.s:106749  .debug_str:000000000004ae84 .LASF4658
     /tmp/ccNzw1my.s:102911  .debug_str:000000000003af25 .LASF4659
     /tmp/ccNzw1my.s:99001  .debug_str:000000000002b468 .LASF4660
     /tmp/ccNzw1my.s:106945  .debug_str:000000000004bdd1 .LASF4661
     /tmp/ccNzw1my.s:97529  .debug_str:000000000002540d .LASF4662
     /tmp/ccNzw1my.s:104539  .debug_str:0000000000041ca1 .LASF4663
     /tmp/ccNzw1my.s:104133  .debug_str:00000000000400d4 .LASF4664
     /tmp/ccNzw1my.s:105077  .debug_str:0000000000043ed9 .LASF4665
     /tmp/ccNzw1my.s:102887  .debug_str:000000000003adb5 .LASF4666
     /tmp/ccNzw1my.s:93035  .debug_str:0000000000012ef1 .LASF4667
     /tmp/ccNzw1my.s:90733  .debug_str:0000000000009d22 .LASF4668
     /tmp/ccNzw1my.s:93791  .debug_str:0000000000015d05 .LASF4669
     /tmp/ccNzw1my.s:92739  .debug_str:0000000000011ab2 .LASF4670
     /tmp/ccNzw1my.s:97893  .debug_str:0000000000026c95 .LASF4671
     /tmp/ccNzw1my.s:90725  .debug_str:0000000000009ca2 .LASF4672
     /tmp/ccNzw1my.s:101979  .debug_str:0000000000037465 .LASF4673
     /tmp/ccNzw1my.s:106631  .debug_str:000000000004a6cb .LASF4674
     /tmp/ccNzw1my.s:92187  .debug_str:000000000000f8d3 .LASF4675
     /tmp/ccNzw1my.s:96569  .debug_str:0000000000021a22 .LASF4676
     /tmp/ccNzw1my.s:99529  .debug_str:000000000002d6e7 .LASF4677
     /tmp/ccNzw1my.s:98957  .debug_str:000000000002b1f5 .LASF4678
     /tmp/ccNzw1my.s:96571  .debug_str:0000000000021a4f .LASF4679
     /tmp/ccNzw1my.s:95261  .debug_str:000000000001c039 .LASF4680
     /tmp/ccNzw1my.s:90581  .debug_str:000000000000929e .LASF4681
     /tmp/ccNzw1my.s:96891  .debug_str:0000000000022f0b .LASF4682
     /tmp/ccNzw1my.s:88679  .debug_str:00000000000010b6 .LASF4683
     /tmp/ccNzw1my.s:96353  .debug_str:0000000000020c39 .LASF4684
     /tmp/ccNzw1my.s:93153  .debug_str:0000000000013624 .LASF4685
     /tmp/ccNzw1my.s:95711  .debug_str:000000000001de4c .LASF4686
     /tmp/ccNzw1my.s:101327  .debug_str:0000000000034e1f .LASF4687
     /tmp/ccNzw1my.s:92113  .debug_str:000000000000f45a .LASF4688
     /tmp/ccNzw1my.s:98059  .debug_str:00000000000277d1 .LASF4689
     /tmp/ccNzw1my.s:103911  .debug_str:000000000003f157 .LASF4690
     /tmp/ccNzw1my.s:103011  .debug_str:000000000003b610 .LASF4691
     /tmp/ccNzw1my.s:96713  .debug_str:0000000000022361 .LASF4692
     /tmp/ccNzw1my.s:102805  .debug_str:000000000003a82b .LASF4693
     /tmp/ccNzw1my.s:104993  .debug_str:0000000000043933 .LASF4694
     /tmp/ccNzw1my.s:96879  .debug_str:0000000000022e4c .LASF4695
     /tmp/ccNzw1my.s:91541  .debug_str:000000000000d47e .LASF4696
     /tmp/ccNzw1my.s:90047  .debug_str:0000000000006f46 .LASF4697
     /tmp/ccNzw1my.s:103305  .debug_str:000000000003c949 .LASF4698
     /tmp/ccNzw1my.s:96789  .debug_str:000000000002289f .LASF4699
     /tmp/ccNzw1my.s:88535  .debug_str:000000000000073f .LASF4700
     /tmp/ccNzw1my.s:93357  .debug_str:000000000001427f .LASF4701
     /tmp/ccNzw1my.s:104013  .debug_str:000000000003f8e4 .LASF4702
     /tmp/ccNzw1my.s:94267  .debug_str:0000000000017cc1 .LASF4703
     /tmp/ccNzw1my.s:89265  .debug_str:00000000000039ae .LASF4704
     /tmp/ccNzw1my.s:104767  .debug_str:0000000000042b91 .LASF4705
     /tmp/ccNzw1my.s:102331  .debug_str:0000000000038773 .LASF4706
     /tmp/ccNzw1my.s:95767  .debug_str:000000000001e2a6 .LASF4707
     /tmp/ccNzw1my.s:102861  .debug_str:000000000003abe4 .LASF4708
     /tmp/ccNzw1my.s:103055  .debug_str:000000000003b8e3 .LASF4709
     /tmp/ccNzw1my.s:93071  .debug_str:00000000000130d2 .LASF4710
     /tmp/ccNzw1my.s:102733  .debug_str:000000000003a2a2 .LASF4711
     /tmp/ccNzw1my.s:90263  .debug_str:0000000000007d05 .LASF4712
     /tmp/ccNzw1my.s:101821  .debug_str:0000000000036c46 .LASF4713
     /tmp/ccNzw1my.s:99221  .debug_str:000000000002c236 .LASF4714
     /tmp/ccNzw1my.s:90829  .debug_str:000000000000a398 .LASF4715
     /tmp/ccNzw1my.s:92607  .debug_str:0000000000011125 .LASF4716
     /tmp/ccNzw1my.s:103761  .debug_str:000000000003e62f .LASF4717
     /tmp/ccNzw1my.s:88715  .debug_str:000000000000132a .LASF4718
     /tmp/ccNzw1my.s:99735  .debug_str:000000000002e4d5 .LASF4719
     /tmp/ccNzw1my.s:92431  .debug_str:0000000000010638 .LASF4720
     /tmp/ccNzw1my.s:90123  .debug_str:0000000000007453 .LASF4721
     /tmp/ccNzw1my.s:101079  .debug_str:0000000000033d79 .LASF4722
     /tmp/ccNzw1my.s:102691  .debug_str:0000000000039fa6 .LASF4723
     /tmp/ccNzw1my.s:90569  .debug_str:000000000000921a .LASF4724
     /tmp/ccNzw1my.s:97509  .debug_str:00000000000252ab .LASF4725
     /tmp/ccNzw1my.s:97671  .debug_str:0000000000025dce .LASF4726
     /tmp/ccNzw1my.s:99301  .debug_str:000000000002c7b8 .LASF4727
     /tmp/ccNzw1my.s:93663  .debug_str:00000000000155b6 .LASF4728
     /tmp/ccNzw1my.s:97513  .debug_str:00000000000252e7 .LASF4729
     /tmp/ccNzw1my.s:90165  .debug_str:00000000000076ff .LASF4730
     /tmp/ccNzw1my.s:107085  .debug_str:000000000004c798 .LASF4731
     /tmp/ccNzw1my.s:107019  .debug_str:000000000004c354 .LASF4732
     /tmp/ccNzw1my.s:101829  .debug_str:0000000000036ce4 .LASF4733
     /tmp/ccNzw1my.s:95571  .debug_str:000000000001d533 .LASF4734
     /tmp/ccNzw1my.s:104067  .debug_str:000000000003fc09 .LASF4735
     /tmp/ccNzw1my.s:96509  .debug_str:0000000000021617 .LASF4736
     /tmp/ccNzw1my.s:91357  .debug_str:000000000000c8c3 .LASF4737
     /tmp/ccNzw1my.s:89215  .debug_str:0000000000003611 .LASF4738
     /tmp/ccNzw1my.s:103115  .debug_str:000000000003bce1 .LASF4739
     /tmp/ccNzw1my.s:93023  .debug_str:0000000000012e47 .LASF4740
     /tmp/ccNzw1my.s:97791  .debug_str:000000000002657d .LASF4741
     /tmp/ccNzw1my.s:102465  .debug_str:00000000000390c2 .LASF4742
     /tmp/ccNzw1my.s:91325  .debug_str:000000000000c664 .LASF4743
     /tmp/ccNzw1my.s:94253  .debug_str:0000000000017be3 .LASF4744
     /tmp/ccNzw1my.s:100783  .debug_str:0000000000032963 .LASF4745
     /tmp/ccNzw1my.s:99013  .debug_str:000000000002b562 .LASF4746
     /tmp/ccNzw1my.s:94159  .debug_str:00000000000175cb .LASF4747
     /tmp/ccNzw1my.s:98111  .debug_str:0000000000027b39 .LASF4748
     /tmp/ccNzw1my.s:106031  .debug_str:0000000000047cf8 .LASF4749
     /tmp/ccNzw1my.s:105971  .debug_str:0000000000047958 .LASF4750
     /tmp/ccNzw1my.s:94879  .debug_str:000000000001a5da .LASF4751
     /tmp/ccNzw1my.s:103023  .debug_str:000000000003b6ac .LASF4752
     /tmp/ccNzw1my.s:97647  .debug_str:0000000000025c5e .LASF4753
     /tmp/ccNzw1my.s:106225  .debug_str:0000000000048a70 .LASF4754
     /tmp/ccNzw1my.s:95387  .debug_str:000000000001c898 .LASF4755
     /tmp/ccNzw1my.s:96995  .debug_str:00000000000236bc .LASF4756
     /tmp/ccNzw1my.s:101741  .debug_str:00000000000367b5 .LASF4757
     /tmp/ccNzw1my.s:94475  .debug_str:00000000000189e4 .LASF4758
     /tmp/ccNzw1my.s:92999  .debug_str:0000000000012c76 .LASF4759
     /tmp/ccNzw1my.s:97283  .debug_str:0000000000024692 .LASF4760
     /tmp/ccNzw1my.s:88727  .debug_str:00000000000013f5 .LASF4761
     /tmp/ccNzw1my.s:104121  .debug_str:000000000003ffca .LASF4762
     /tmp/ccNzw1my.s:102961  .debug_str:000000000003b299 .LASF4763
     /tmp/ccNzw1my.s:94527  .debug_str:0000000000018d55 .LASF4764
     /tmp/ccNzw1my.s:95229  .debug_str:000000000001be2a .LASF4765
     /tmp/ccNzw1my.s:97753  .debug_str:00000000000262d0 .LASF4766
     /tmp/ccNzw1my.s:101471  .debug_str:0000000000035751 .LASF4767
     /tmp/ccNzw1my.s:88553  .debug_str:0000000000000858 .LASF4768
     /tmp/ccNzw1my.s:96105  .debug_str:000000000001fba9 .LASF4769
     /tmp/ccNzw1my.s:92313  .debug_str:000000000000ff99 .LASF4770
     /tmp/ccNzw1my.s:104613  .debug_str:000000000004211f .LASF4771
     /tmp/ccNzw1my.s:92747  .debug_str:0000000000011b32 .LASF4772
     /tmp/ccNzw1my.s:101017  .debug_str:00000000000338d4 .LASF4773
     /tmp/ccNzw1my.s:94909  .debug_str:000000000001a7e1 .LASF4774
     /tmp/ccNzw1my.s:96963  .debug_str:0000000000023479 .LASF4775
     /tmp/ccNzw1my.s:103851  .debug_str:000000000003ed07 .LASF4776
     /tmp/ccNzw1my.s:88629  .debug_str:0000000000000d3b .LASF4777
     /tmp/ccNzw1my.s:94643  .debug_str:0000000000019503 .LASF4778
     /tmp/ccNzw1my.s:96561  .debug_str:0000000000021983 .LASF4779
     /tmp/ccNzw1my.s:93807  .debug_str:0000000000015e0a .LASF4780
     /tmp/ccNzw1my.s:101541  .debug_str:0000000000035b2e .LASF4781
     /tmp/ccNzw1my.s:106205  .debug_str:0000000000048933 .LASF4782
     /tmp/ccNzw1my.s:101415  .debug_str:000000000003536a .LASF4783
     /tmp/ccNzw1my.s:95263  .debug_str:000000000001c061 .LASF4784
     /tmp/ccNzw1my.s:95515  .debug_str:000000000001d188 .LASF4785
     /tmp/ccNzw1my.s:97631  .debug_str:0000000000025b65 .LASF4786
     /tmp/ccNzw1my.s:103311  .debug_str:000000000003c9b0 .LASF4787
     /tmp/ccNzw1my.s:89679  .debug_str:000000000000565f .LASF4788
     /tmp/ccNzw1my.s:102285  .debug_str:000000000003841a .LASF4789
     /tmp/ccNzw1my.s:100717  .debug_str:000000000003251f .LASF4790
     /tmp/ccNzw1my.s:101713  .debug_str:00000000000365f5 .LASF4791
     /tmp/ccNzw1my.s:105415  .debug_str:000000000004541d .LASF4792
     /tmp/ccNzw1my.s:95619  .debug_str:000000000001d884 .LASF4793
     /tmp/ccNzw1my.s:103143  .debug_str:000000000003beb8 .LASF4794
     /tmp/ccNzw1my.s:98235  .debug_str:00000000000282fc .LASF4795
     /tmp/ccNzw1my.s:105073  .debug_str:0000000000043e92 .LASF4796
     /tmp/ccNzw1my.s:92327  .debug_str:00000000000100a0 .LASF4797
     /tmp/ccNzw1my.s:97353  .debug_str:00000000000249d1 .LASF4798
     /tmp/ccNzw1my.s:89059  .debug_str:0000000000002bbf .LASF4799
     /tmp/ccNzw1my.s:99375  .debug_str:000000000002ccf9 .LASF4800
     /tmp/ccNzw1my.s:96743  .debug_str:0000000000022546 .LASF4801
     /tmp/ccNzw1my.s:98711  .debug_str:000000000002a1e5 .LASF4802
     /tmp/ccNzw1my.s:89231  .debug_str:0000000000003724 .LASF4803
     /tmp/ccNzw1my.s:90789  .debug_str:000000000000a077 .LASF4804
     /tmp/ccNzw1my.s:102403  .debug_str:0000000000038c26 .LASF4805
     /tmp/ccNzw1my.s:90039  .debug_str:0000000000006ea5 .LASF4806
     /tmp/ccNzw1my.s:90921  .debug_str:000000000000a9a0 .LASF4807
     /tmp/ccNzw1my.s:103797  .debug_str:000000000003e8c1 .LASF4808
     /tmp/ccNzw1my.s:106431  .debug_str:00000000000498c0 .LASF4809
     /tmp/ccNzw1my.s:107325  .debug_str:000000000004d7e7 .LASF4810
     /tmp/ccNzw1my.s:104471  .debug_str:0000000000041857 .LASF4811
     /tmp/ccNzw1my.s:90651  .debug_str:0000000000009812 .LASF4812
     /tmp/ccNzw1my.s:100793  .debug_str:00000000000329ec .LASF4813
     /tmp/ccNzw1my.s:102455  .debug_str:0000000000039006 .LASF4814
     /tmp/ccNzw1my.s:106037  .debug_str:0000000000047d70 .LASF4815
     /tmp/ccNzw1my.s:92367  .debug_str:000000000001029e .LASF4816
     /tmp/ccNzw1my.s:89359  .debug_str:0000000000003fea .LASF4817
     /tmp/ccNzw1my.s:102287  .debug_str:000000000003844e .LASF4818
     /tmp/ccNzw1my.s:100995  .debug_str:0000000000033746 .LASF4819
     /tmp/ccNzw1my.s:100297  .debug_str:00000000000308b6 .LASF4820
     /tmp/ccNzw1my.s:99711  .debug_str:000000000002e365 .LASF4821
     /tmp/ccNzw1my.s:91669  .debug_str:000000000000dbcb .LASF4822
     /tmp/ccNzw1my.s:95825  .debug_str:000000000001e6bb .LASF4823
     /tmp/ccNzw1my.s:98169  .debug_str:0000000000027fb2 .LASF4824
     /tmp/ccNzw1my.s:105907  .debug_str:00000000000475ad .LASF4825
     /tmp/ccNzw1my.s:91243  .debug_str:000000000000c0d8 .LASF4826
     /tmp/ccNzw1my.s:101639  .debug_str:0000000000036122 .LASF4827
     /tmp/ccNzw1my.s:105647  .debug_str:00000000000463c8 .LASF4828
     /tmp/ccNzw1my.s:94275  .debug_str:0000000000017d80 .LASF4829
     /tmp/ccNzw1my.s:106125  .debug_str:00000000000482ef .LASF4830
     /tmp/ccNzw1my.s:88823  .debug_str:0000000000001aaf .LASF4831
     /tmp/ccNzw1my.s:93227  .debug_str:0000000000013a81 .LASF4832
     /tmp/ccNzw1my.s:104309  .debug_str:0000000000040c16 .LASF4833
     /tmp/ccNzw1my.s:89573  .debug_str:0000000000004eec .LASF4834
     /tmp/ccNzw1my.s:96747  .debug_str:000000000002259b .LASF4835
     /tmp/ccNzw1my.s:101963  .debug_str:0000000000037362 .LASF4836
     /tmp/ccNzw1my.s:100553  .debug_str:0000000000031b1f .LASF4837
     /tmp/ccNzw1my.s:106413  .debug_str:000000000004978f .LASF4838
     /tmp/ccNzw1my.s:96883  .debug_str:0000000000022e99 .LASF4839
     /tmp/ccNzw1my.s:94083  .debug_str:0000000000017136 .LASF4840
     /tmp/ccNzw1my.s:105657  .debug_str:00000000000464a4 .LASF4841
     /tmp/ccNzw1my.s:95717  .debug_str:000000000001ded4 .LASF4842
     /tmp/ccNzw1my.s:90505  .debug_str:0000000000008da1 .LASF4843
     /tmp/ccNzw1my.s:103853  .debug_str:000000000003ed3b .LASF4844
     /tmp/ccNzw1my.s:98723  .debug_str:000000000002a2ad .LASF4845
     /tmp/ccNzw1my.s:96657  .debug_str:0000000000021ffa .LASF4846
     /tmp/ccNzw1my.s:89597  .debug_str:0000000000005014 .LASF4847
     /tmp/ccNzw1my.s:89391  .debug_str:0000000000004295 .LASF4848
     /tmp/ccNzw1my.s:100549  .debug_str:0000000000031aef .LASF4849
     /tmp/ccNzw1my.s:95247  .debug_str:000000000001bf6b .LASF4850
     /tmp/ccNzw1my.s:107191  .debug_str:000000000004ce42 .LASF4851
     /tmp/ccNzw1my.s:90193  .debug_str:00000000000078ce .LASF4852
     /tmp/ccNzw1my.s:105473  .debug_str:00000000000458aa .LASF4853
     /tmp/ccNzw1my.s:101221  .debug_str:00000000000346db .LASF4854
     /tmp/ccNzw1my.s:96443  .debug_str:00000000000211be .LASF4855
     /tmp/ccNzw1my.s:103077  .debug_str:000000000003ba8a .LASF4856
     /tmp/ccNzw1my.s:105091  .debug_str:0000000000044011 .LASF4857
     /tmp/ccNzw1my.s:95431  .debug_str:000000000001cb6d .LASF4858
     /tmp/ccNzw1my.s:105699  .debug_str:0000000000046726 .LASF4859
     /tmp/ccNzw1my.s:107329  .debug_str:000000000004d85a .LASF4860
     /tmp/ccNzw1my.s:88783  .debug_str:00000000000017c9 .LASF4861
     /tmp/ccNzw1my.s:106611  .debug_str:000000000004a552 .LASF4862
     /tmp/ccNzw1my.s:94843  .debug_str:000000000001a3bd .LASF4863
     /tmp/ccNzw1my.s:105527  .debug_str:0000000000045c51 .LASF4864
     /tmp/ccNzw1my.s:99041  .debug_str:000000000002b77d .LASF4865
     /tmp/ccNzw1my.s:91629  .debug_str:000000000000d914 .LASF4866
     /tmp/ccNzw1my.s:90709  .debug_str:0000000000009b5c .LASF4867
     /tmp/ccNzw1my.s:96345  .debug_str:0000000000020b83 .LASF4868
     /tmp/ccNzw1my.s:102619  .debug_str:0000000000039ab5 .LASF4869
     /tmp/ccNzw1my.s:94105  .debug_str:00000000000172b7 .LASF4870
     /tmp/ccNzw1my.s:95487  .debug_str:000000000001cf98 .LASF4871
     /tmp/ccNzw1my.s:101391  .debug_str:000000000003524e .LASF4872
     /tmp/ccNzw1my.s:93717  .debug_str:000000000001588c .LASF4873
     /tmp/ccNzw1my.s:99193  .debug_str:000000000002c052 .LASF4874
     /tmp/ccNzw1my.s:99539  .debug_str:000000000002d793 .LASF4875
     /tmp/ccNzw1my.s:99991  .debug_str:000000000002f613 .LASF4876
     /tmp/ccNzw1my.s:98673  .debug_str:0000000000029ed7 .LASF4877
     /tmp/ccNzw1my.s:103421  .debug_str:000000000003d060 .LASF4878
     /tmp/ccNzw1my.s:89617  .debug_str:000000000000514c .LASF4879
     /tmp/ccNzw1my.s:92483  .debug_str:0000000000010909 .LASF4880
     /tmp/ccNzw1my.s:91645  .debug_str:000000000000d9f6 .LASF4881
     /tmp/ccNzw1my.s:92957  .debug_str:00000000000128fa .LASF4882
     /tmp/ccNzw1my.s:90415  .debug_str:00000000000087a9 .LASF4883
     /tmp/ccNzw1my.s:104185  .debug_str:0000000000040488 .LASF4884
     /tmp/ccNzw1my.s:88841  .debug_str:0000000000001c1e .LASF4885
     /tmp/ccNzw1my.s:92671  .debug_str:0000000000011592 .LASF4886
     /tmp/ccNzw1my.s:98391  .debug_str:0000000000028d5f .LASF4887
     /tmp/ccNzw1my.s:96465  .debug_str:000000000002137c .LASF4888
     /tmp/ccNzw1my.s:97473  .debug_str:000000000002506c .LASF4889
     /tmp/ccNzw1my.s:100477  .debug_str:0000000000031624 .LASF4890
     /tmp/ccNzw1my.s:94665  .debug_str:00000000000196a4 .LASF4891
     /tmp/ccNzw1my.s:105475  .debug_str:00000000000458d2 .LASF4892
     /tmp/ccNzw1my.s:105905  .debug_str:0000000000047589 .LASF4893
     /tmp/ccNzw1my.s:100797  .debug_str:0000000000032a48 .LASF4894
     /tmp/ccNzw1my.s:99637  .debug_str:000000000002de83 .LASF4895
     /tmp/ccNzw1my.s:89867  .debug_str:0000000000006284 .LASF4896
     /tmp/ccNzw1my.s:91799  .debug_str:000000000000e351 .LASF4897
     /tmp/ccNzw1my.s:106185  .debug_str:000000000004874e .LASF4898
     /tmp/ccNzw1my.s:95777  .debug_str:000000000001e364 .LASF4899
     /tmp/ccNzw1my.s:97953  .debug_str:000000000002702f .LASF4900
     /tmp/ccNzw1my.s:101379  .debug_str:0000000000035193 .LASF4901
     /tmp/ccNzw1my.s:97521  .debug_str:0000000000025383 .LASF4902
     /tmp/ccNzw1my.s:91269  .debug_str:000000000000c273 .LASF4903
     /tmp/ccNzw1my.s:100565  .debug_str:0000000000031bec .LASF4904
     /tmp/ccNzw1my.s:100363  .debug_str:0000000000030e37 .LASF4905
     /tmp/ccNzw1my.s:95069  .debug_str:000000000001b382 .LASF4906
     /tmp/ccNzw1my.s:96759  .debug_str:00000000000226a6 .LASF4907
     /tmp/ccNzw1my.s:106201  .debug_str:00000000000488df .LASF4908
     /tmp/ccNzw1my.s:103301  .debug_str:000000000003c8fc .LASF4909
     /tmp/ccNzw1my.s:97895  .debug_str:0000000000026cc5 .LASF4910
     /tmp/ccNzw1my.s:106857  .debug_str:000000000004b7a9 .LASF4911
     /tmp/ccNzw1my.s:103227  .debug_str:000000000003c463 .LASF4912
     /tmp/ccNzw1my.s:89759  .debug_str:0000000000005b94 .LASF4913
     /tmp/ccNzw1my.s:93653  .debug_str:000000000001550a .LASF4914
     /tmp/ccNzw1my.s:98727  .debug_str:000000000002a30e .LASF4915
     /tmp/ccNzw1my.s:89589  .debug_str:0000000000004f9e .LASF4916
     /tmp/ccNzw1my.s:96331  .debug_str:0000000000020a8a .LASF4917
     /tmp/ccNzw1my.s:94477  .debug_str:0000000000018a15 .LASF4918
     /tmp/ccNzw1my.s:92735  .debug_str:0000000000011a62 .LASF4919
     /tmp/ccNzw1my.s:96933  .debug_str:000000000002324a .LASF4920
     /tmp/ccNzw1my.s:99247  .debug_str:000000000002c3cd .LASF4921
     /tmp/ccNzw1my.s:106197  .debug_str:000000000004886d .LASF4922
     /tmp/ccNzw1my.s:104187  .debug_str:00000000000404ae .LASF4923
     /tmp/ccNzw1my.s:90873  .debug_str:000000000000a677 .LASF4924
     /tmp/ccNzw1my.s:98291  .debug_str:00000000000286dd .LASF4925
     /tmp/ccNzw1my.s:106025  .debug_str:0000000000047ca2 .LASF4926
     /tmp/ccNzw1my.s:96521  .debug_str:00000000000216f7 .LASF4927
     /tmp/ccNzw1my.s:93811  .debug_str:0000000000015e59 .LASF4928
     /tmp/ccNzw1my.s:92863  .debug_str:00000000000122df .LASF4929
     /tmp/ccNzw1my.s:102173  .debug_str:0000000000037e97 .LASF4930
     /tmp/ccNzw1my.s:104871  .debug_str:00000000000431f9 .LASF4931
     /tmp/ccNzw1my.s:90003  .debug_str:0000000000006c2c .LASF4932
     /tmp/ccNzw1my.s:102661  .debug_str:0000000000039d44 .LASF4933
     /tmp/ccNzw1my.s:105237  .debug_str:00000000000448c6 .LASF4934
     /tmp/ccNzw1my.s:100939  .debug_str:0000000000033361 .LASF4935
     /tmp/ccNzw1my.s:93135  .debug_str:00000000000134cd .LASF4936
     /tmp/ccNzw1my.s:90647  .debug_str:00000000000097cf .LASF4937
     /tmp/ccNzw1my.s:105235  .debug_str:000000000004489f .LASF4938
     /tmp/ccNzw1my.s:103733  .debug_str:000000000003e4b1 .LASF4939
     /tmp/ccNzw1my.s:100345  .debug_str:0000000000030c84 .LASF4940
     /tmp/ccNzw1my.s:90701  .debug_str:0000000000009ada .LASF4941
     /tmp/ccNzw1my.s:99727  .debug_str:000000000002e448 .LASF4942
     /tmp/ccNzw1my.s:103223  .debug_str:000000000003c425 .LASF4943
     /tmp/ccNzw1my.s:93191  .debug_str:000000000001383c .LASF4944
     /tmp/ccNzw1my.s:102089  .debug_str:0000000000037a0e .LASF4945
     /tmp/ccNzw1my.s:92529  .debug_str:0000000000010c91 .LASF4946
     /tmp/ccNzw1my.s:96983  .debug_str:00000000000235ea .LASF4947
     /tmp/ccNzw1my.s:106917  .debug_str:000000000004bbbd .LASF4948
     /tmp/ccNzw1my.s:105233  .debug_str:0000000000044871 .LASF4949
     /tmp/ccNzw1my.s:90335  .debug_str:0000000000008240 .LASF4950
     /tmp/ccNzw1my.s:91315  .debug_str:000000000000c592 .LASF4951
     /tmp/ccNzw1my.s:91175  .debug_str:000000000000bc60 .LASF4952
     /tmp/ccNzw1my.s:90679  .debug_str:00000000000099d8 .LASF4953
     /tmp/ccNzw1my.s:97253  .debug_str:00000000000244f9 .LASF4954
     /tmp/ccNzw1my.s:96339  .debug_str:0000000000020b2d .LASF4955
     /tmp/ccNzw1my.s:92715  .debug_str:00000000000118bd .LASF4956
     /tmp/ccNzw1my.s:102397  .debug_str:0000000000038bc6 .LASF4957
     /tmp/ccNzw1my.s:100627  .debug_str:0000000000031ff7 .LASF4958
     /tmp/ccNzw1my.s:102513  .debug_str:00000000000393ac .LASF4959
     /tmp/ccNzw1my.s:106847  .debug_str:000000000004b6e0 .LASF4960
     /tmp/ccNzw1my.s:100029  .debug_str:000000000002f878 .LASF4961
     /tmp/ccNzw1my.s:91017  .debug_str:000000000000b0ab .LASF4962
     /tmp/ccNzw1my.s:97477  .debug_str:00000000000250b6 .LASF4963
     /tmp/ccNzw1my.s:104727  .debug_str:00000000000428ec .LASF4964
     /tmp/ccNzw1my.s:106221  .debug_str:0000000000048a37 .LASF4965
     /tmp/ccNzw1my.s:95951  .debug_str:000000000001efcd .LASF4966
     /tmp/ccNzw1my.s:104097  .debug_str:000000000003fe18 .LASF4967
     /tmp/ccNzw1my.s:94189  .debug_str:00000000000177bd .LASF4968
     /tmp/ccNzw1my.s:99039  .debug_str:000000000002b74a .LASF4969
     /tmp/ccNzw1my.s:91097  .debug_str:000000000000b6c5 .LASF4970
     /tmp/ccNzw1my.s:90013  .debug_str:0000000000006ced .LASF4971
     /tmp/ccNzw1my.s:96365  .debug_str:0000000000020cfa .LASF4972
     /tmp/ccNzw1my.s:101173  .debug_str:00000000000343e9 .LASF4973
     /tmp/ccNzw1my.s:92851  .debug_str:000000000001220b .LASF4974
     /tmp/ccNzw1my.s:102057  .debug_str:0000000000037852 .LASF4975
     /tmp/ccNzw1my.s:97329  .debug_str:000000000002483e .LASF4976
     /tmp/ccNzw1my.s:102727  .debug_str:000000000003a24a .LASF4977
     /tmp/ccNzw1my.s:98347  .debug_str:0000000000028a88 .LASF4978
     /tmp/ccNzw1my.s:100099  .debug_str:000000000002fcab .LASF4979
     /tmp/ccNzw1my.s:90625  .debug_str:00000000000095f4 .LASF4980
     /tmp/ccNzw1my.s:92883  .debug_str:000000000001240c .LASF4981
     /tmp/ccNzw1my.s:98825  .debug_str:000000000002a8e1 .LASF4982
     /tmp/ccNzw1my.s:104817  .debug_str:0000000000042eb0 .LASF4983
     /tmp/ccNzw1my.s:91633  .debug_str:000000000000d94b .LASF4984
     /tmp/ccNzw1my.s:97609  .debug_str:000000000002599b .LASF4985
     /tmp/ccNzw1my.s:88707  .debug_str:00000000000012a9 .LASF4986
     /tmp/ccNzw1my.s:90327  .debug_str:00000000000081bc .LASF4987
     /tmp/ccNzw1my.s:91963  .debug_str:000000000000ebed .LASF4988
     /tmp/ccNzw1my.s:90295  .debug_str:0000000000007f39 .LASF4989
     /tmp/ccNzw1my.s:92949  .debug_str:000000000001286e .LASF4990
     /tmp/ccNzw1my.s:95107  .debug_str:000000000001b5d7 .LASF4991
     /tmp/ccNzw1my.s:95971  .debug_str:000000000001f156 .LASF4992
     /tmp/ccNzw1my.s:89259  .debug_str:0000000000003924 .LASF4993
     /tmp/ccNzw1my.s:100851  .debug_str:0000000000032d4e .LASF4994
     /tmp/ccNzw1my.s:105585  .debug_str:0000000000045fe5 .LASF4995
     /tmp/ccNzw1my.s:106893  .debug_str:000000000004b9d8 .LASF4996
     /tmp/ccNzw1my.s:106461  .debug_str:0000000000049ab7 .LASF4997
     /tmp/ccNzw1my.s:89375  .debug_str:0000000000004112 .LASF4998
     /tmp/ccNzw1my.s:89919  .debug_str:00000000000065af .LASF4999
     /tmp/ccNzw1my.s:102995  .debug_str:000000000003b53a .LASF5000
     /tmp/ccNzw1my.s:101755  .debug_str:00000000000368e7 .LASF5001
     /tmp/ccNzw1my.s:88465  .debug_str:0000000000000221 .LASF5002
     /tmp/ccNzw1my.s:97143  .debug_str:0000000000023ef0 .LASF5003
     /tmp/ccNzw1my.s:89199  .debug_str:000000000000350e .LASF5004
     /tmp/ccNzw1my.s:92971  .debug_str:0000000000012a4a .LASF5005
     /tmp/ccNzw1my.s:99123  .debug_str:000000000002bc1e .LASF5006
     /tmp/ccNzw1my.s:97279  .debug_str:0000000000024651 .LASF5007
     /tmp/ccNzw1my.s:93845  .debug_str:00000000000160d9 .LASF5008
     /tmp/ccNzw1my.s:93769  .debug_str:0000000000015bfb .LASF5009
     /tmp/ccNzw1my.s:94893  .debug_str:000000000001a6b9 .LASF5010
     /tmp/ccNzw1my.s:99033  .debug_str:000000000002b6b3 .LASF5011
     /tmp/ccNzw1my.s:97885  .debug_str:0000000000026bea .LASF5012
     /tmp/ccNzw1my.s:93101  .debug_str:00000000000132a6 .LASF5013
     /tmp/ccNzw1my.s:100949  .debug_str:00000000000333de .LASF5014
     /tmp/ccNzw1my.s:102049  .debug_str:00000000000377cb .LASF5015
     /tmp/ccNzw1my.s:97091  .debug_str:0000000000023c75 .LASF5016
     /tmp/ccNzw1my.s:103039  .debug_str:000000000003b7a2 .LASF5017
     /tmp/ccNzw1my.s:89913  .debug_str:000000000000655f .LASF5018
     /tmp/ccNzw1my.s:101817  .debug_str:0000000000036bfa .LASF5019
     /tmp/ccNzw1my.s:89641  .debug_str:0000000000005313 .LASF5020
     /tmp/ccNzw1my.s:95535  .debug_str:000000000001d2c3 .LASF5021
     /tmp/ccNzw1my.s:105541  .debug_str:0000000000045d34 .LASF5022
     /tmp/ccNzw1my.s:103059  .debug_str:000000000003b92a .LASF5023
     /tmp/ccNzw1my.s:95151  .debug_str:000000000001b8e5 .LASF5024
     /tmp/ccNzw1my.s:98039  .debug_str:0000000000027670 .LASF5025
     /tmp/ccNzw1my.s:101469  .debug_str:0000000000035718 .LASF5026
     /tmp/ccNzw1my.s:105483  .debug_str:0000000000045964 .LASF5027
     /tmp/ccNzw1my.s:91061  .debug_str:000000000000b426 .LASF5028
     /tmp/ccNzw1my.s:99813  .debug_str:000000000002ea0b .LASF5029
     /tmp/ccNzw1my.s:88645  .debug_str:0000000000000e5d .LASF5030
     /tmp/ccNzw1my.s:106451  .debug_str:0000000000049a0b .LASF5031
     /tmp/ccNzw1my.s:92435  .debug_str:000000000001067a .LASF5032
     /tmp/ccNzw1my.s:91143  .debug_str:000000000000ba2e .LASF5033
     /tmp/ccNzw1my.s:97757  .debug_str:0000000000026303 .LASF5034
     /tmp/ccNzw1my.s:94047  .debug_str:0000000000016e77 .LASF5035
     /tmp/ccNzw1my.s:89505  .debug_str:0000000000004a22 .LASF5036
     /tmp/ccNzw1my.s:89495  .debug_str:000000000000497f .LASF5037
     /tmp/ccNzw1my.s:95251  .debug_str:000000000001bf9e .LASF5038
     /tmp/ccNzw1my.s:90095  .debug_str:0000000000007258 .LASF5039
     /tmp/ccNzw1my.s:105003  .debug_str:00000000000439e2 .LASF5040
     /tmp/ccNzw1my.s:95765  .debug_str:000000000001e26d .LASF5041
     /tmp/ccNzw1my.s:93501  .debug_str:0000000000014af4 .LASF5042
     /tmp/ccNzw1my.s:98265  .debug_str:0000000000028574 .LASF5043
     /tmp/ccNzw1my.s:94051  .debug_str:0000000000016ed8 .LASF5044
     /tmp/ccNzw1my.s:102367  .debug_str:00000000000389b4 .LASF5045
     /tmp/ccNzw1my.s:106059  .debug_str:0000000000047ecb .LASF5046
     /tmp/ccNzw1my.s:104603  .debug_str:0000000000042086 .LASF5047
     /tmp/ccNzw1my.s:107013  .debug_str:000000000004c2b9 .LASF5048
     /tmp/ccNzw1my.s:95159  .debug_str:000000000001b967 .LASF5049
     /tmp/ccNzw1my.s:101071  .debug_str:0000000000033cb1 .LASF5050
     /tmp/ccNzw1my.s:105753  .debug_str:0000000000046b19 .LASF5051
     /tmp/ccNzw1my.s:106579  .debug_str:000000000004a297 .LASF5052
     /tmp/ccNzw1my.s:95933  .debug_str:000000000001ee0e .LASF5053
     /tmp/ccNzw1my.s:101841  .debug_str:0000000000036d90 .LASF5054
     /tmp/ccNzw1my.s:96877  .debug_str:0000000000022e1f .LASF5055
     /tmp/ccNzw1my.s:95443  .debug_str:000000000001cc69 .LASF5056
     /tmp/ccNzw1my.s:106251  .debug_str:0000000000048c52 .LASF5057
     /tmp/ccNzw1my.s:106913  .debug_str:000000000004bb7d .LASF5058
     /tmp/ccNzw1my.s:106863  .debug_str:000000000004b7fb .LASF5059
     /tmp/ccNzw1my.s:102655  .debug_str:0000000000039cb1 .LASF5060
     /tmp/ccNzw1my.s:97969  .debug_str:000000000002713b .LASF5061
     /tmp/ccNzw1my.s:98407  .debug_str:0000000000028e3b .LASF5062
     /tmp/ccNzw1my.s:106793  .debug_str:000000000004b259 .LASF5063
     /tmp/ccNzw1my.s:95283  .debug_str:000000000001c1b4 .LASF5064
     /tmp/ccNzw1my.s:104639  .debug_str:0000000000042333 .LASF5065
     /tmp/ccNzw1my.s:97055  .debug_str:0000000000023954 .LASF5066
     /tmp/ccNzw1my.s:100975  .debug_str:00000000000335b6 .LASF5067
     /tmp/ccNzw1my.s:98735  .debug_str:000000000002a383 .LASF5068
     /tmp/ccNzw1my.s:94449  .debug_str:00000000000187f5 .LASF5069
     /tmp/ccNzw1my.s:99411  .debug_str:000000000002cf22 .LASF5070
     /tmp/ccNzw1my.s:92969  .debug_str:0000000000012a16 .LASF5071
     /tmp/ccNzw1my.s:103575  .debug_str:000000000003dabe .LASF5072
     /tmp/ccNzw1my.s:103093  .debug_str:000000000003bb8e .LASF5073
     /tmp/ccNzw1my.s:92441  .debug_str:0000000000010720 .LASF5074
     /tmp/ccNzw1my.s:91091  .debug_str:000000000000b652 .LASF5075
     /tmp/ccNzw1my.s:102801  .debug_str:000000000003a7f1 .LASF5076
     /tmp/ccNzw1my.s:93195  .debug_str:00000000000138b2 .LASF5077
     /tmp/ccNzw1my.s:99953  .debug_str:000000000002f395 .LASF5078
     /tmp/ccNzw1my.s:98537  .debug_str:000000000002969b .LASF5079
     /tmp/ccNzw1my.s:103141  .debug_str:000000000003be96 .LASF5080
     /tmp/ccNzw1my.s:101455  .debug_str:0000000000035625 .LASF5081
     /tmp/ccNzw1my.s:101623  .debug_str:0000000000036009 .LASF5082
     /tmp/ccNzw1my.s:98863  .debug_str:000000000002ab99 .LASF5083
     /tmp/ccNzw1my.s:104635  .debug_str:00000000000422eb .LASF5084
     /tmp/ccNzw1my.s:105305  .debug_str:0000000000044d73 .LASF5085
     /tmp/ccNzw1my.s:100491  .debug_str:0000000000031749 .LASF5086
     /tmp/ccNzw1my.s:92031  .debug_str:000000000000ef66 .LASF5087
     /tmp/ccNzw1my.s:104027  .debug_str:000000000003f990 .LASF5088
     /tmp/ccNzw1my.s:106569  .debug_str:000000000004a1e3 .LASF5089
     /tmp/ccNzw1my.s:97561  .debug_str:000000000002567c .LASF5090
     /tmp/ccNzw1my.s:94413  .debug_str:00000000000185d6 .LASF5091
     /tmp/ccNzw1my.s:102145  .debug_str:0000000000037cdc .LASF5092
     /tmp/ccNzw1my.s:106523  .debug_str:0000000000049eb2 .LASF5093
     /tmp/ccNzw1my.s:99225  .debug_str:000000000002c27a .LASF5094
     /tmp/ccNzw1my.s:91903  .debug_str:000000000000e820 .LASF5095
     /tmp/ccNzw1my.s:98021  .debug_str:0000000000027517 .LASF5096
     /tmp/ccNzw1my.s:106959  .debug_str:000000000004beeb .LASF5097
     /tmp/ccNzw1my.s:90177  .debug_str:00000000000077b0 .LASF5098
     /tmp/ccNzw1my.s:100251  .debug_str:00000000000305e3 .LASF5099
     /tmp/ccNzw1my.s:89325  .debug_str:0000000000003d47 .LASF5100
     /tmp/ccNzw1my.s:104683  .debug_str:00000000000425c3 .LASF5101
     /tmp/ccNzw1my.s:104325  .debug_str:0000000000040d50 .LASF5102
     /tmp/ccNzw1my.s:104523  .debug_str:0000000000041b5c .LASF5103
     /tmp/ccNzw1my.s:103791  .debug_str:000000000003e86a .LASF5104
     /tmp/ccNzw1my.s:90603  .debug_str:000000000000941c .LASF5105
     /tmp/ccNzw1my.s:106587  .debug_str:000000000004a33f .LASF5106
     /tmp/ccNzw1my.s:95067  .debug_str:000000000001b358 .LASF5107
     /tmp/ccNzw1my.s:106839  .debug_str:000000000004b640 .LASF5108
     /tmp/ccNzw1my.s:101671  .debug_str:00000000000363bd .LASF5109
     /tmp/ccNzw1my.s:97735  .debug_str:0000000000026143 .LASF5110
     /tmp/ccNzw1my.s:103707  .debug_str:000000000003e2ea .LASF5111
     /tmp/ccNzw1my.s:89355  .debug_str:0000000000003f91 .LASF5112
     /tmp/ccNzw1my.s:104089  .debug_str:000000000003fda4 .LASF5113
     /tmp/ccNzw1my.s:96243  .debug_str:0000000000020476 .LASF5114
     /tmp/ccNzw1my.s:95943  .debug_str:000000000001ef1f .LASF5115
     /tmp/ccNzw1my.s:103579  .debug_str:000000000003db11 .LASF5116
     /tmp/ccNzw1my.s:100393  .debug_str:000000000003101d .LASF5117
     /tmp/ccNzw1my.s:91035  .debug_str:000000000000b202 .LASF5118
     /tmp/ccNzw1my.s:91529  .debug_str:000000000000d3cd .LASF5119
     /tmp/ccNzw1my.s:101935  .debug_str:00000000000372b3 .LASF5120
     /tmp/ccNzw1my.s:101127  .debug_str:000000000003407b .LASF5121
     /tmp/ccNzw1my.s:94783  .debug_str:0000000000019fe1 .LASF5122
     /tmp/ccNzw1my.s:92165  .debug_str:000000000000f777 .LASF5123
     /tmp/ccNzw1my.s:92981  .debug_str:0000000000012b61 .LASF5124
     /tmp/ccNzw1my.s:101629  .debug_str:0000000000036098 .LASF5125
     /tmp/ccNzw1my.s:91481  .debug_str:000000000000d0ce .LASF5126
     /tmp/ccNzw1my.s:92263  .debug_str:000000000000fcc7 .LASF5127
     /tmp/ccNzw1my.s:96359  .debug_str:0000000000020c7e .LASF5128
     /tmp/ccNzw1my.s:94235  .debug_str:0000000000017a9c .LASF5129
     /tmp/ccNzw1my.s:94491  .debug_str:0000000000018afe .LASF5130
     /tmp/ccNzw1my.s:101151  .debug_str:0000000000034263 .LASF5131
     /tmp/ccNzw1my.s:104829  .debug_str:0000000000042f5e .LASF5132
     /tmp/ccNzw1my.s:91329  .debug_str:000000000000c6a9 .LASF5133
     /tmp/ccNzw1my.s:94589  .debug_str:0000000000019196 .LASF5134
     /tmp/ccNzw1my.s:98211  .debug_str:00000000000281a4 .LASF5135
     /tmp/ccNzw1my.s:89401  .debug_str:000000000000434e .LASF5136
     /tmp/ccNzw1my.s:106009  .debug_str:0000000000047bb0 .LASF5137
     /tmp/ccNzw1my.s:99439  .debug_str:000000000002d0e2 .LASF5138
     /tmp/ccNzw1my.s:106183  .debug_str:000000000004871f .LASF5139
     /tmp/ccNzw1my.s:89653  .debug_str:0000000000005419 .LASF5140
     /tmp/ccNzw1my.s:96477  .debug_str:0000000000021467 .LASF5141
     /tmp/ccNzw1my.s:104935  .debug_str:00000000000435ce .LASF5142
     /tmp/ccNzw1my.s:96527  .debug_str:0000000000021749 .LASF5143
     /tmp/ccNzw1my.s:91443  .debug_str:000000000000cea5 .LASF5144
     /tmp/ccNzw1my.s:97331  .debug_str:0000000000024878 .LASF5145
     /tmp/ccNzw1my.s:91437  .debug_str:000000000000ce32 .LASF5146
     /tmp/ccNzw1my.s:107111  .debug_str:000000000004c90a .LASF5148
     /tmp/ccNzw1my.s:91323  .debug_str:000000000000c640 .LASF5149
     /tmp/ccNzw1my.s:96113  .debug_str:000000000001fc2c .LASF5150
     /tmp/ccNzw1my.s:91453  .debug_str:000000000000cf1d .LASF5151
     /tmp/ccNzw1my.s:98645  .debug_str:0000000000029d30 .LASF5152
     /tmp/ccNzw1my.s:99103  .debug_str:000000000002bb0a .LASF5153
     /tmp/ccNzw1my.s:93405  .debug_str:00000000000144bc .LASF5154
     /tmp/ccNzw1my.s:92197  .debug_str:000000000000f965 .LASF5155
     /tmp/ccNzw1my.s:97809  .debug_str:00000000000266ca .LASF5156
     /tmp/ccNzw1my.s:103445  .debug_str:000000000003d204 .LASF5157
     /tmp/ccNzw1my.s:99511  .debug_str:000000000002d5f9 .LASF5158
     /tmp/ccNzw1my.s:90259  .debug_str:0000000000007cd3 .LASF5159
     /tmp/ccNzw1my.s:103415  .debug_str:000000000003cfea .LASF5160
     /tmp/ccNzw1my.s:95367  .debug_str:000000000001c74b .LASF5161
     /tmp/ccNzw1my.s:101185  .debug_str:00000000000344c2 .LASF5162
     /tmp/ccNzw1my.s:98085  .debug_str:0000000000027975 .LASF5163
     /tmp/ccNzw1my.s:106101  .debug_str:00000000000481c4 .LASF5164
     /tmp/ccNzw1my.s:94027  .debug_str:0000000000016d3a .LASF5165
     /tmp/ccNzw1my.s:105429  .debug_str:000000000004556a .LASF5166
     /tmp/ccNzw1my.s:91237  .debug_str:000000000000c06d .LASF5167
     /tmp/ccNzw1my.s:88493  .debug_str:000000000000042a .LASF5168
     /tmp/ccNzw1my.s:95239  .debug_str:000000000001bec4 .LASF5169
     /tmp/ccNzw1my.s:106687  .debug_str:000000000004aa01 .LASF5170
     /tmp/ccNzw1my.s:91659  .debug_str:000000000000db1b .LASF5171
     /tmp/ccNzw1my.s:103999  .debug_str:000000000003f808 .LASF5172
     /tmp/ccNzw1my.s:95237  .debug_str:000000000001bea4 .LASF5173
     /tmp/ccNzw1my.s:89381  .debug_str:000000000000419e .LASF5174
     /tmp/ccNzw1my.s:96103  .debug_str:000000000001fb81 .LASF5175
     /tmp/ccNzw1my.s:101663  .debug_str:0000000000036304 .LASF5176
     /tmp/ccNzw1my.s:102605  .debug_str:00000000000399d0 .LASF5177
     /tmp/ccNzw1my.s:89139  .debug_str:000000000000317f .LASF5178
     /tmp/ccNzw1my.s:90681  .debug_str:0000000000009a0a .LASF5179
     /tmp/ccNzw1my.s:102071  .debug_str:0000000000037918 .LASF5180
     /tmp/ccNzw1my.s:103703  .debug_str:000000000003e2b1 .LASF5181
     /tmp/ccNzw1my.s:88795  .debug_str:00000000000018c7 .LASF5182
     /tmp/ccNzw1my.s:98901  .debug_str:000000000002adf9 .LASF5183
     /tmp/ccNzw1my.s:104317  .debug_str:0000000000040c9b .LASF5184
     /tmp/ccNzw1my.s:103369  .debug_str:000000000003ce09 .LASF5185
     /tmp/ccNzw1my.s:98019  .debug_str:00000000000274fb .LASF5186
     /tmp/ccNzw1my.s:94977  .debug_str:000000000001ac34 .LASF5187
     /tmp/ccNzw1my.s:93027  .debug_str:0000000000012e9c .LASF5188
     /tmp/ccNzw1my.s:89529  .debug_str:0000000000004c09 .LASF5189
     /tmp/ccNzw1my.s:99131  .debug_str:000000000002bcb0 .LASF5190
     /tmp/ccNzw1my.s:97583  .debug_str:0000000000025816 .LASF5191
     /tmp/ccNzw1my.s:91655  .debug_str:000000000000dae0 .LASF5192
     /tmp/ccNzw1my.s:96711  .debug_str:000000000002232f .LASF5193
     /tmp/ccNzw1my.s:98939  .debug_str:000000000002b068 .LASF5194
     /tmp/ccNzw1my.s:103947  .debug_str:000000000003f44b .LASF5195
     /tmp/ccNzw1my.s:90585  .debug_str:00000000000092db .LASF5196
     /tmp/ccNzw1my.s:102451  .debug_str:0000000000038fbf .LASF5197
     /tmp/ccNzw1my.s:96211  .debug_str:0000000000020233 .LASF5198
     /tmp/ccNzw1my.s:90427  .debug_str:000000000000882e .LASF5199
     /tmp/ccNzw1my.s:106585  .debug_str:000000000004a31e .LASF5200
     /tmp/ccNzw1my.s:102229  .debug_str:0000000000038111 .LASF5201
     /tmp/ccNzw1my.s:94755  .debug_str:0000000000019d4c .LASF5202
     /tmp/ccNzw1my.s:101447  .debug_str:000000000003559d .LASF5203
     /tmp/ccNzw1my.s:90503  .debug_str:0000000000008d87 .LASF5204
     /tmp/ccNzw1my.s:88447  .debug_str:00000000000000c5 .LASF5205
     /tmp/ccNzw1my.s:100543  .debug_str:0000000000031a98 .LASF5206
     /tmp/ccNzw1my.s:92811  .debug_str:0000000000011f87 .LASF5207
     /tmp/ccNzw1my.s:96009  .debug_str:000000000001f3fc .LASF5208
     /tmp/ccNzw1my.s:98009  .debug_str:0000000000027445 .LASF5209
     /tmp/ccNzw1my.s:102585  .debug_str:00000000000398d3 .LASF5210
     /tmp/ccNzw1my.s:106395  .debug_str:0000000000049656 .LASF5211
     /tmp/ccNzw1my.s:99255  .debug_str:000000000002c450 .LASF5212
     /tmp/ccNzw1my.s:89975  .debug_str:000000000000698a .LASF5213
     /tmp/ccNzw1my.s:100809  .debug_str:0000000000032b55 .LASF5214
     /tmp/ccNzw1my.s:92101  .debug_str:000000000000f367 .LASF5215
     /tmp/ccNzw1my.s:106203  .debug_str:0000000000048908 .LASF5216
     /tmp/ccNzw1my.s:90519  .debug_str:0000000000008e6d .LASF5217
     /tmp/ccNzw1my.s:89117  .debug_str:0000000000003029 .LASF5218
     /tmp/ccNzw1my.s:88573  .debug_str:00000000000009b3 .LASF5219
     /tmp/ccNzw1my.s:99349  .debug_str:000000000002cab2 .LASF5220
     /tmp/ccNzw1my.s:90659  .debug_str:00000000000098af .LASF5221
     /tmp/ccNzw1my.s:99833  .debug_str:000000000002eb0b .LASF5222
     /tmp/ccNzw1my.s:90875  .debug_str:000000000000a6a5 .LASF5223
     /tmp/ccNzw1my.s:99159  .debug_str:000000000002be71 .LASF5224
     /tmp/ccNzw1my.s:103553  .debug_str:000000000003d8e5 .LASF5225
     /tmp/ccNzw1my.s:90091  .debug_str:000000000000722a .LASF5226
     /tmp/ccNzw1my.s:95157  .debug_str:000000000001b951 .LASF5227
     /tmp/ccNzw1my.s:91233  .debug_str:000000000000bffc .LASF5228
     /tmp/ccNzw1my.s:99373  .debug_str:000000000002ccc9 .LASF5229
     /tmp/ccNzw1my.s:104419  .debug_str:0000000000041406 .LASF5230
     /tmp/ccNzw1my.s:94735  .debug_str:0000000000019b52 .LASF5231
     /tmp/ccNzw1my.s:106137  .debug_str:00000000000483ed .LASF5232
     /tmp/ccNzw1my.s:98117  .debug_str:0000000000027ba4 .LASF5233
     /tmp/ccNzw1my.s:91757  .debug_str:000000000000e1b1 .LASF5234
     /tmp/ccNzw1my.s:100603  .debug_str:0000000000031e7b .LASF5235
     /tmp/ccNzw1my.s:100689  .debug_str:000000000003235b .LASF5236
     /tmp/ccNzw1my.s:90855  .debug_str:000000000000a540 .LASF5237
     /tmp/ccNzw1my.s:96545  .debug_str:0000000000021866 .LASF5238
     /tmp/ccNzw1my.s:99129  .debug_str:000000000002bc84 .LASF5239
     /tmp/ccNzw1my.s:106377  .debug_str:0000000000049500 .LASF5240
     /tmp/ccNzw1my.s:98079  .debug_str:0000000000027915 .LASF5241
     /tmp/ccNzw1my.s:103487  .debug_str:000000000003d4f6 .LASF5242
     /tmp/ccNzw1my.s:102975  .debug_str:000000000003b3eb .LASF5243
     /tmp/ccNzw1my.s:88441  .debug_str:0000000000000058 .LASF5244
     /tmp/ccNzw1my.s:96029  .debug_str:000000000001f56e .LASF5245
     /tmp/ccNzw1my.s:98241  .debug_str:000000000002839d .LASF5246
     /tmp/ccNzw1my.s:96739  .debug_str:0000000000022510 .LASF5247
     /tmp/ccNzw1my.s:89877  .debug_str:0000000000006313 .LASF5248
     /tmp/ccNzw1my.s:104245  .debug_str:00000000000408b7 .LASF5249
     /tmp/ccNzw1my.s:88961  .debug_str:0000000000002447 .LASF5250
     /tmp/ccNzw1my.s:96347  .debug_str:0000000000020bb2 .LASF5251
     /tmp/ccNzw1my.s:97937  .debug_str:0000000000026f4f .LASF5252
     /tmp/ccNzw1my.s:92859  .debug_str:000000000001229f .LASF5253
     /tmp/ccNzw1my.s:90837  .debug_str:000000000000a42f .LASF5254
     /tmp/ccNzw1my.s:104797  .debug_str:0000000000042d80 .LASF5255
     /tmp/ccNzw1my.s:106141  .debug_str:0000000000048466 .LASF5256
     /tmp/ccNzw1my.s:95501  .debug_str:000000000001d088 .LASF5257
     /tmp/ccNzw1my.s:101887  .debug_str:0000000000036feb .LASF5258
     /tmp/ccNzw1my.s:95957  .debug_str:000000000001f054 .LASF5259
     /tmp/ccNzw1my.s:96709  .debug_str:0000000000022303 .LASF5260
     /tmp/ccNzw1my.s:103467  .debug_str:000000000003d3b4 .LASF5261
     /tmp/ccNzw1my.s:89827  .debug_str:0000000000006007 .LASF5262
     /tmp/ccNzw1my.s:96769  .debug_str:000000000002274d .LASF5263
     /tmp/ccNzw1my.s:103665  .debug_str:000000000003e044 .LASF5264
     /tmp/ccNzw1my.s:91407  .debug_str:000000000000cbf5 .LASF5265
     /tmp/ccNzw1my.s:90989  .debug_str:000000000000aeb0 .LASF5266
     /tmp/ccNzw1my.s:92665  .debug_str:0000000000011532 .LASF5267
     /tmp/ccNzw1my.s:97825  .debug_str:00000000000267c7 .LASF5268
     /tmp/ccNzw1my.s:92721  .debug_str:000000000001193f .LASF5269
     /tmp/ccNzw1my.s:94071  .debug_str:0000000000017025 .LASF5270
     /tmp/ccNzw1my.s:98437  .debug_str:000000000002907d .LASF5271
     /tmp/ccNzw1my.s:89247  .debug_str:000000000000385d .LASF5272
     /tmp/ccNzw1my.s:102371  .debug_str:00000000000389f2 .LASF5273
     /tmp/ccNzw1my.s:92103  .debug_str:000000000000f388 .LASF5274
     /tmp/ccNzw1my.s:90975  .debug_str:000000000000ad89 .LASF5275
     /tmp/ccNzw1my.s:97015  .debug_str:00000000000237c5 .LASF5276
     /tmp/ccNzw1my.s:103645  .debug_str:000000000003df0e .LASF5277
     /tmp/ccNzw1my.s:93331  .debug_str:000000000001410a .LASF5278
     /tmp/ccNzw1my.s:106791  .debug_str:000000000004b23c .LASF5279
     /tmp/ccNzw1my.s:103695  .debug_str:000000000003e244 .LASF5280
     /tmp/ccNzw1my.s:91239  .debug_str:000000000000c0a8 .LASF5281
     /tmp/ccNzw1my.s:90835  .debug_str:000000000000a420 .LASF5282
     /tmp/ccNzw1my.s:96455  .debug_str:000000000002129e .LASF5283
     /tmp/ccNzw1my.s:90575  .debug_str:0000000000009269 .LASF5284
     /tmp/ccNzw1my.s:90749  .debug_str:0000000000009e59 .LASF5285
     /tmp/ccNzw1my.s:96869  .debug_str:0000000000022dcd .LASF5286
     /tmp/ccNzw1my.s:88695  .debug_str:00000000000011e4 .LASF5287
     /tmp/ccNzw1my.s:92579  .debug_str:0000000000010f2e .LASF5288
     /tmp/ccNzw1my.s:95525  .debug_str:000000000001d244 .LASF5289
     /tmp/ccNzw1my.s:101431  .debug_str:0000000000035484 .LASF5290
     /tmp/ccNzw1my.s:94427  .debug_str:0000000000018691 .LASF5291
     /tmp/ccNzw1my.s:95713  .debug_str:000000000001de6f .LASF5292
     /tmp/ccNzw1my.s:95197  .debug_str:000000000001bc47 .LASF5293
     /tmp/ccNzw1my.s:103325  .debug_str:000000000003cace .LASF5294
     /tmp/ccNzw1my.s:89243  .debug_str:0000000000003801 .LASF5295
     /tmp/ccNzw1my.s:89797  .debug_str:0000000000005e08 .LASF5296
     /tmp/ccNzw1my.s:106285  .debug_str:0000000000048ede .LASF5297
     /tmp/ccNzw1my.s:90449  .debug_str:00000000000089c6 .LASF5298
     /tmp/ccNzw1my.s:100923  .debug_str:00000000000332da .LASF5299
     /tmp/ccNzw1my.s:104503  .debug_str:0000000000041a59 .LASF5300
     /tmp/ccNzw1my.s:100695  .debug_str:00000000000323d3 .LASF5301
     /tmp/ccNzw1my.s:98713  .debug_str:000000000002a21a .LASF5303
     /tmp/ccNzw1my.s:93289  .debug_str:0000000000013e82 .LASF5304
     /tmp/ccNzw1my.s:101445  .debug_str:0000000000035594 .LASF5305
     /tmp/ccNzw1my.s:90785  .debug_str:000000000000a02f .LASF5306
     /tmp/ccNzw1my.s:88451  .debug_str:0000000000000127 .LASF5307
     /tmp/ccNzw1my.s:107299  .debug_str:000000000004d600 .LASF5308
     /tmp/ccNzw1my.s:99589  .debug_str:000000000002da8c .LASF5309
     /tmp/ccNzw1my.s:96247  .debug_str:00000000000204b6 .LASF5310
     /tmp/ccNzw1my.s:103885  .debug_str:000000000003ef76 .LASF5311
     /tmp/ccNzw1my.s:96595  .debug_str:0000000000021bcd .LASF5312
     /tmp/ccNzw1my.s:97881  .debug_str:0000000000026bb9 .LASF5313
     /tmp/ccNzw1my.s:94323  .debug_str:0000000000018007 .LASF5314
     /tmp/ccNzw1my.s:103767  .debug_str:000000000003e68d .LASF5315
     /tmp/ccNzw1my.s:102481  .debug_str:0000000000039167 .LASF5316
     /tmp/ccNzw1my.s:100591  .debug_str:0000000000031d83 .LASF5317
     /tmp/ccNzw1my.s:104179  .debug_str:0000000000040403 .LASF5318
     /tmp/ccNzw1my.s:98993  .debug_str:000000000002b3ec .LASF5319
     /tmp/ccNzw1my.s:91371  .debug_str:000000000000c98d .LASF5320
     /tmp/ccNzw1my.s:93351  .debug_str:0000000000014225 .LASF5321
     /tmp/ccNzw1my.s:95761  .debug_str:000000000001e20e .LASF5322
     /tmp/ccNzw1my.s:101905  .debug_str:0000000000037105 .LASF5323
     /tmp/ccNzw1my.s:88985  .debug_str:000000000000261f .LASF5324
     /tmp/ccNzw1my.s:95079  .debug_str:000000000001b412 .LASF5325
     /tmp/ccNzw1my.s:101183  .debug_str:00000000000344a6 .LASF5326
     /tmp/ccNzw1my.s:93985  .debug_str:0000000000016a31 .LASF5327
     /tmp/ccNzw1my.s:101113  .debug_str:0000000000033f47 .LASF5328
     /tmp/ccNzw1my.s:103307  .debug_str:000000000003c96c .LASF5329
     /tmp/ccNzw1my.s:91917  .debug_str:000000000000e8c4 .LASF5330
     /tmp/ccNzw1my.s:105935  .debug_str:0000000000047756 .LASF5331
     /tmp/ccNzw1my.s:90731  .debug_str:0000000000009d02 .LASF5332
     /tmp/ccNzw1my.s:105693  .debug_str:00000000000466cb .LASF5333
     /tmp/ccNzw1my.s:103495  .debug_str:000000000003d5d0 .LASF5334
     /tmp/ccNzw1my.s:91153  .debug_str:000000000000bafa .LASF5335
     /tmp/ccNzw1my.s:93935  .debug_str:000000000001666a .LASF5336
     /tmp/ccNzw1my.s:97277  .debug_str:0000000000024638 .LASF5337
     /tmp/ccNzw1my.s:104541  .debug_str:0000000000041cd1 .LASF5338
     /tmp/ccNzw1my.s:91997  .debug_str:000000000000ed63 .LASF5339
     /tmp/ccNzw1my.s:90941  .debug_str:000000000000aad1 .LASF5340
     /tmp/ccNzw1my.s:99939  .debug_str:000000000002f2e0 .LASF5341
     /tmp/ccNzw1my.s:98125  .debug_str:0000000000027c74 .LASF5342
     /tmp/ccNzw1my.s:97429  .debug_str:0000000000024db8 .LASF5343
     /tmp/ccNzw1my.s:92361  .debug_str:000000000001023a .LASF5344
     /tmp/ccNzw1my.s:93183  .debug_str:00000000000137d2 .LASF5345
     /tmp/ccNzw1my.s:91065  .debug_str:000000000000b472 .LASF5346
     /tmp/ccNzw1my.s:96589  .debug_str:0000000000021b65 .LASF5347
     /tmp/ccNzw1my.s:105909  .debug_str:00000000000475d1 .LASF5348
     /tmp/ccNzw1my.s:102821  .debug_str:000000000003a93f .LASF5349
     /tmp/ccNzw1my.s:101739  .debug_str:000000000003679c .LASF5350
     /tmp/ccNzw1my.s:93561  .debug_str:0000000000014ec4 .LASF5351
     /tmp/ccNzw1my.s:93231  .debug_str:0000000000013ab0 .LASF5352
     /tmp/ccNzw1my.s:93585  .debug_str:000000000001506b .LASF5353
     /tmp/ccNzw1my.s:106029  .debug_str:0000000000047cdf .LASF5354
     /tmp/ccNzw1my.s:106143  .debug_str:0000000000048494 .LASF5355
     /tmp/ccNzw1my.s:104409  .debug_str:0000000000041332 .LASF5356
     /tmp/ccNzw1my.s:102167  .debug_str:0000000000037e58 .LASF5357
     /tmp/ccNzw1my.s:97853  .debug_str:0000000000026a27 .LASF5358
     /tmp/ccNzw1my.s:97923  .debug_str:0000000000026ea3 .LASF5359
     /tmp/ccNzw1my.s:96135  .debug_str:000000000001fd79 .LASF5360
     /tmp/ccNzw1my.s:104205  .debug_str:0000000000040655 .LASF5361
     /tmp/ccNzw1my.s:102275  .debug_str:000000000003837d .LASF5362
     /tmp/ccNzw1my.s:92035  .debug_str:000000000000efd4 .LASF5363
     /tmp/ccNzw1my.s:97985  .debug_str:0000000000027295 .LASF5364
     /tmp/ccNzw1my.s:106081  .debug_str:000000000004806b .LASF5365
     /tmp/ccNzw1my.s:96017  .debug_str:000000000001f4cf .LASF5366
     /tmp/ccNzw1my.s:97225  .debug_str:000000000002436b .LASF5367
     /tmp/ccNzw1my.s:105503  .debug_str:0000000000045b00 .LASF5368
     /tmp/ccNzw1my.s:102555  .debug_str:0000000000039642 .LASF5369
     /tmp/ccNzw1my.s:96981  .debug_str:00000000000235cd .LASF5370
     /tmp/ccNzw1my.s:90115  .debug_str:00000000000073b5 .LASF5371
     /tmp/ccNzw1my.s:93809  .debug_str:0000000000015e3e .LASF5372
     /tmp/ccNzw1my.s:106577  .debug_str:000000000004a27d .LASF5373
     /tmp/ccNzw1my.s:92713  .debug_str:00000000000118a0 .LASF5374
     /tmp/ccNzw1my.s:105087  .debug_str:0000000000043fd1 .LASF5375
     /tmp/ccNzw1my.s:88489  .debug_str:00000000000003e2 .LASF5376
     /tmp/ccNzw1my.s:105397  .debug_str:0000000000045315 .LASF5377
     /tmp/ccNzw1my.s:90345  .debug_str:000000000000830f .LASF5378
     /tmp/ccNzw1my.s:102325  .debug_str:0000000000038701 .LASF5379
     /tmp/ccNzw1my.s:97907  .debug_str:0000000000026d6d .LASF5380
     /tmp/ccNzw1my.s:95215  .debug_str:000000000001bd94 .LASF5381
     /tmp/ccNzw1my.s:99755  .debug_str:000000000002e5f0 .LASF5382
     /tmp/ccNzw1my.s:91317  .debug_str:000000000000c5bf .LASF5383
     /tmp/ccNzw1my.s:95461  .debug_str:000000000001cdda .LASF5384
     /tmp/ccNzw1my.s:100205  .debug_str:0000000000030346 .LASF5385
     /tmp/ccNzw1my.s:105713  .debug_str:0000000000046850 .LASF5386
     /tmp/ccNzw1my.s:102263  .debug_str:00000000000382df .LASF5387
     /tmp/ccNzw1my.s:94493  .debug_str:0000000000018b28 .LASF5388
     /tmp/ccNzw1my.s:98015  .debug_str:00000000000274a3 .LASF5389
     /tmp/ccNzw1my.s:96467  .debug_str:00000000000213a4 .LASF5390
     /tmp/ccNzw1my.s:100817  .debug_str:0000000000032bb3 .LASF5391
     /tmp/ccNzw1my.s:91045  .debug_str:000000000000b31e .LASF5392
     /tmp/ccNzw1my.s:98951  .debug_str:000000000002b180 .LASF5393
     /tmp/ccNzw1my.s:105869  .debug_str:0000000000047314 .LASF5394
     /tmp/ccNzw1my.s:103263  .debug_str:000000000003c6a2 .LASF5395
     /tmp/ccNzw1my.s:92695  .debug_str:0000000000011788 .LASF5396
     /tmp/ccNzw1my.s:105025  .debug_str:0000000000043b8a .LASF5397
     /tmp/ccNzw1my.s:88459  .debug_str:00000000000001b2 .LASF5398
     /tmp/ccNzw1my.s:91501  .debug_str:000000000000d215 .LASF5399
     /tmp/ccNzw1my.s:93557  .debug_str:0000000000014e64 .LASF5400
     /tmp/ccNzw1my.s:101167  .debug_str:00000000000343ad .LASF5401
     /tmp/ccNzw1my.s:92831  .debug_str:0000000000012080 .LASF5402
     /tmp/ccNzw1my.s:105711  .debug_str:0000000000046837 .LASF5403
     /tmp/ccNzw1my.s:88587  .debug_str:0000000000000ad7 .LASF5404
     /tmp/ccNzw1my.s:96337  .debug_str:0000000000020b14 .LASF5405
     /tmp/ccNzw1my.s:101969  .debug_str:00000000000373bb .LASF5406
     /tmp/ccNzw1my.s:97669  .debug_str:0000000000025db5 .LASF5407
     /tmp/ccNzw1my.s:97341  .debug_str:0000000000024955 .LASF5408
     /tmp/ccNzw1my.s:97077  .debug_str:0000000000023ba5 .LASF5409
     /tmp/ccNzw1my.s:95071  .debug_str:000000000001b3ac .LASF5410
     /tmp/ccNzw1my.s:92867  .debug_str:0000000000012317 .LASF5411
     /tmp/ccNzw1my.s:103653  .debug_str:000000000003dfa7 .LASF5412
     /tmp/ccNzw1my.s:103517  .debug_str:000000000003d6e2 .LASF5413
     /tmp/ccNzw1my.s:106801  .debug_str:000000000004b30e .LASF5414
     /tmp/ccNzw1my.s:88691  .debug_str:00000000000011bc .LASF5415
     /tmp/ccNzw1my.s:97255  .debug_str:0000000000024528 .LASF5416
     /tmp/ccNzw1my.s:105723  .debug_str:00000000000468ff .LASF5417
     /tmp/ccNzw1my.s:94455  .debug_str:000000000001885e .LASF5418
     /tmp/ccNzw1my.s:93515  .debug_str:0000000000014bf4 .LASF5419
     /tmp/ccNzw1my.s:92699  .debug_str:00000000000117ae .LASF5420
     /tmp/ccNzw1my.s:106387  .debug_str:00000000000495a2 .LASF5421
     /tmp/ccNzw1my.s:92533  .debug_str:0000000000010cd2 .LASF5422
     /tmp/ccNzw1my.s:99239  .debug_str:000000000002c367 .LASF5423
     /tmp/ccNzw1my.s:93245  .debug_str:0000000000013bba .LASF5424
     /tmp/ccNzw1my.s:92601  .debug_str:000000000001107d .LASF5425
     /tmp/ccNzw1my.s:97547  .debug_str:000000000002553f .LASF5426
     /tmp/ccNzw1my.s:92089  .debug_str:000000000000f280 .LASF5427
     /tmp/ccNzw1my.s:98539  .debug_str:00000000000296c4 .LASF5428
     /tmp/ccNzw1my.s:91795  .debug_str:000000000000e30a .LASF5429
     /tmp/ccNzw1my.s:95889  .debug_str:000000000001eadd .LASF5430
     /tmp/ccNzw1my.s:89947  .debug_str:00000000000067c3 .LASF5431
     /tmp/ccNzw1my.s:89309  .debug_str:0000000000003c41 .LASF5432
     /tmp/ccNzw1my.s:101837  .debug_str:0000000000036d5f .LASF5433
     /tmp/ccNzw1my.s:103893  .debug_str:000000000003f01e .LASF5434
     /tmp/ccNzw1my.s:97891  .debug_str:0000000000026c77 .LASF5435
     /tmp/ccNzw1my.s:104311  .debug_str:0000000000040c3a .LASF5436
     /tmp/ccNzw1my.s:106989  .debug_str:000000000004c0c1 .LASF5437
     /tmp/ccNzw1my.s:106043  .debug_str:0000000000047de1 .LASF5438
     /tmp/ccNzw1my.s:103805  .debug_str:000000000003e970 .LASF5439
     /tmp/ccNzw1my.s:88683  .debug_str:0000000000001123 .LASF5440
     /tmp/ccNzw1my.s:102137  .debug_str:0000000000037c49 .LASF5441
     /tmp/ccNzw1my.s:97159  .debug_str:0000000000023fe0 .LASF5442
     /tmp/ccNzw1my.s:104769  .debug_str:0000000000042bbd .LASF5443
     /tmp/ccNzw1my.s:104927  .debug_str:000000000004356a .LASF5444
     /tmp/ccNzw1my.s:101259  .debug_str:0000000000034987 .LASF5445
     /tmp/ccNzw1my.s:101015  .debug_str:00000000000338b4 .LASF5446
     /tmp/ccNzw1my.s:100081  .debug_str:000000000002fb88 .LASF5447
     /tmp/ccNzw1my.s:102589  .debug_str:0000000000039928 .LASF5448
     /tmp/ccNzw1my.s:88525  .debug_str:000000000000069b .LASF5449
     /tmp/ccNzw1my.s:106049  .debug_str:0000000000047e37 .LASF5450
     /tmp/ccNzw1my.s:100387  .debug_str:0000000000030fc5 .LASF5451
     /tmp/ccNzw1my.s:102673  .debug_str:0000000000039e0c .LASF5452
     /tmp/ccNzw1my.s:103879  .debug_str:000000000003ef2c .LASF5453
     /tmp/ccNzw1my.s:99827  .debug_str:000000000002eabd .LASF5454
     /tmp/ccNzw1my.s:105839  .debug_str:000000000004716b .LASF5455
     /tmp/ccNzw1my.s:106867  .debug_str:000000000004b86b .LASF5456
     /tmp/ccNzw1my.s:98219  .debug_str:0000000000028202 .LASF5457
     /tmp/ccNzw1my.s:93113  .debug_str:0000000000013396 .LASF5459
     /tmp/ccNzw1my.s:102301  .debug_str:000000000003859d .LASF5460
     /tmp/ccNzw1my.s:103945  .debug_str:000000000003f42d .LASF5461
     /tmp/ccNzw1my.s:98929  .debug_str:000000000002af8f .LASF5462
     /tmp/ccNzw1my.s:104549  .debug_str:0000000000041d44 .LASF5463
     /tmp/ccNzw1my.s:101217  .debug_str:00000000000346ad .LASF5464
     /tmp/ccNzw1my.s:99741  .debug_str:000000000002e52c .LASF5465
     /tmp/ccNzw1my.s:96971  .debug_str:0000000000023534 .LASF5466
     /tmp/ccNzw1my.s:88845  .debug_str:0000000000001c69 .LASF5467
     /tmp/ccNzw1my.s:92481  .debug_str:00000000000108f0 .LASF5468
     /tmp/ccNzw1my.s:96081  .debug_str:000000000001fa64 .LASF5469
     /tmp/ccNzw1my.s:98175  .debug_str:0000000000028035 .LASF5470
     /tmp/ccNzw1my.s:104733  .debug_str:000000000004295f .LASF5471
     /tmp/ccNzw1my.s:100023  .debug_str:000000000002f81f .LASF5472
     /tmp/ccNzw1my.s:95121  .debug_str:000000000001b733 .LASF5473
     /tmp/ccNzw1my.s:103513  .debug_str:000000000003d6b9 .LASF5474
     /tmp/ccNzw1my.s:106673  .debug_str:000000000004a93d .LASF5475
     /tmp/ccNzw1my.s:106595  .debug_str:000000000004a401 .LASF5476
     /tmp/ccNzw1my.s:103177  .debug_str:000000000003c0ef .LASF5477
     /tmp/ccNzw1my.s:95333  .debug_str:000000000001c4ba .LASF5478
     /tmp/ccNzw1my.s:88963  .debug_str:0000000000002475 .LASF5479
     /tmp/ccNzw1my.s:90529  .debug_str:0000000000008f9b .LASF5481
     /tmp/ccNzw1my.s:100137  .debug_str:000000000002fe71 .LASF5482
     /tmp/ccNzw1my.s:94743  .debug_str:0000000000019c4a .LASF5483
     /tmp/ccNzw1my.s:97957  .debug_str:000000000002707c .LASF5484
     /tmp/ccNzw1my.s:102637  .debug_str:0000000000039bc4 .LASF5485
     /tmp/ccNzw1my.s:105813  .debug_str:0000000000046fa0 .LASF5486
     /tmp/ccNzw1my.s:95291  .debug_str:000000000001c215 .LASF5487
     /tmp/ccNzw1my.s:89269  .debug_str:0000000000003a12 .LASF5488
     /tmp/ccNzw1my.s:93333  .debug_str:000000000001411e .LASF5489
     /tmp/ccNzw1my.s:96265  .debug_str:00000000000205e1 .LASF5490
     /tmp/ccNzw1my.s:103541  .debug_str:000000000003d870 .LASF5491
     /tmp/ccNzw1my.s:103021  .debug_str:000000000003b69b .LASF5492
     /tmp/ccNzw1my.s:93475  .debug_str:0000000000014946 .LASF5493
     /tmp/ccNzw1my.s:102695  .debug_str:000000000003a005 .LASF5494
     /tmp/ccNzw1my.s:107213  .debug_str:000000000004cffb .LASF5495
     /tmp/ccNzw1my.s:100481  .debug_str:000000000003166a .LASF5496
     /tmp/ccNzw1my.s:97935  .debug_str:0000000000026f29 .LASF5497
     /tmp/ccNzw1my.s:105855  .debug_str:0000000000047263 .LASF5498
     /tmp/ccNzw1my.s:91839  .debug_str:000000000000e5bc .LASF5499
     /tmp/ccNzw1my.s:104557  .debug_str:0000000000041da2 .LASF5500
     /tmp/ccNzw1my.s:89027  .debug_str:0000000000002973 .LASF5501
     /tmp/ccNzw1my.s:90897  .debug_str:000000000000a7f2 .LASF5502
     /tmp/ccNzw1my.s:107171  .debug_str:000000000004ccb2 .LASF5503
     /tmp/ccNzw1my.s:106767  .debug_str:000000000004b010 .LASF5504
     /tmp/ccNzw1my.s:101919  .debug_str:00000000000371ea .LASF5506
     /tmp/ccNzw1my.s:96685  .debug_str:000000000002216b .LASF5507
     /tmp/ccNzw1my.s:101503  .debug_str:0000000000035948 .LASF5508
     /tmp/ccNzw1my.s:94685  .debug_str:000000000001984e .LASF5509
     /tmp/ccNzw1my.s:90067  .debug_str:0000000000007104 .LASF5510
     /tmp/ccNzw1my.s:96639  .debug_str:0000000000021ee9 .LASF5511
     /tmp/ccNzw1my.s:106775  .debug_str:000000000004b0ae .LASF5512
     /tmp/ccNzw1my.s:105489  .debug_str:00000000000459ef .LASF5513
     /tmp/ccNzw1my.s:92899  .debug_str:000000000001252b .LASF5514
     /tmp/ccNzw1my.s:101889  .debug_str:0000000000037017 .LASF5515
     /tmp/ccNzw1my.s:96559  .debug_str:0000000000021961 .LASF5516
     /tmp/ccNzw1my.s:93079  .debug_str:0000000000013181 .LASF5517
     /tmp/ccNzw1my.s:89663  .debug_str:00000000000054c0 .LASF5518
     /tmp/ccNzw1my.s:105981  .debug_str:0000000000047a2d .LASF5519
     /tmp/ccNzw1my.s:89835  .debug_str:000000000000608c .LASF5520
     /tmp/ccNzw1my.s:100573  .debug_str:0000000000031c95 .LASF5521
     /tmp/ccNzw1my.s:93229  .debug_str:0000000000013aa4 .LASF5522
     /tmp/ccNzw1my.s:94079  .debug_str:00000000000170d4 .LASF5523
     /tmp/ccNzw1my.s:104511  .debug_str:0000000000041ad9 .LASF5524
     /tmp/ccNzw1my.s:100889  .debug_str:000000000003302e .LASF5526
     /tmp/ccNzw1my.s:90957  .debug_str:000000000000ac38 .LASF5527
     /tmp/ccNzw1my.s:103749  .debug_str:000000000003e5d2 .LASF5528
     /tmp/ccNzw1my.s:89153  .debug_str:0000000000003250 .LASF5529
     /tmp/ccNzw1my.s:102149  .debug_str:0000000000037d17 .LASF5530
     /tmp/ccNzw1my.s:94803  .debug_str:000000000001a0ff .LASF5531
     /tmp/ccNzw1my.s:94713  .debug_str:0000000000019a22 .LASF5532
     /tmp/ccNzw1my.s:105231  .debug_str:000000000004483b .LASF5533
     /tmp/ccNzw1my.s:97241  .debug_str:000000000002441d .LASF5534
     /tmp/ccNzw1my.s:89475  .debug_str:000000000000482e .LASF5535
     /tmp/ccNzw1my.s:93657  .debug_str:0000000000015562 .LASF5536
     /tmp/ccNzw1my.s:103813  .debug_str:000000000003ea05 .LASF5537
     /tmp/ccNzw1my.s:96209  .debug_str:000000000002021d .LASF5538
     /tmp/ccNzw1my.s:92857  .debug_str:000000000001226a .LASF5539
     /tmp/ccNzw1my.s:89595  .debug_str:0000000000005000 .LASF5540
     /tmp/ccNzw1my.s:92759  .debug_str:0000000000011c23 .LASF5541
     /tmp/ccNzw1my.s:100493  .debug_str:000000000003175c .LASF5542
     /tmp/ccNzw1my.s:92751  .debug_str:0000000000011b77 .LASF5543
     /tmp/ccNzw1my.s:93343  .debug_str:00000000000141bd .LASF5544
     /tmp/ccNzw1my.s:94357  .debug_str:0000000000018178 .LASF5545
     /tmp/ccNzw1my.s:103605  .debug_str:000000000003dca2 .LASF5546
     /tmp/ccNzw1my.s:104925  .debug_str:0000000000043557 .LASF5547
     /tmp/ccNzw1my.s:90803  .debug_str:000000000000a198 .LASF5548
     /tmp/ccNzw1my.s:92095  .debug_str:000000000000f2da .LASF5549
     /tmp/ccNzw1my.s:97855  .debug_str:0000000000026a40 .LASF5550
     /tmp/ccNzw1my.s:96425  .debug_str:0000000000021101 .LASF5551
     /tmp/ccNzw1my.s:104581  .debug_str:0000000000041ef6 .LASF5552
     /tmp/ccNzw1my.s:104701  .debug_str:00000000000426f5 .LASF5553
     /tmp/ccNzw1my.s:92005  .debug_str:000000000000edc7 .LASF5554
     /tmp/ccNzw1my.s:105963  .debug_str:00000000000478c1 .LASF5555
     /tmp/ccNzw1my.s:94017  .debug_str:0000000000016c58 .LASF5556
     /tmp/ccNzw1my.s:92085  .debug_str:000000000000f237 .LASF5557
     /tmp/ccNzw1my.s:96183  .debug_str:0000000000020020 .LASF5558
     /tmp/ccNzw1my.s:100787  .debug_str:00000000000329b6 .LASF5559
     /tmp/ccNzw1my.s:98619  .debug_str:0000000000029bfd .LASF5560
     /tmp/ccNzw1my.s:92217  .debug_str:000000000000facc .LASF5561
     /tmp/ccNzw1my.s:89517  .debug_str:0000000000004b5d .LASF5562
     /tmp/ccNzw1my.s:103281  .debug_str:000000000003c7dc .LASF5563
     /tmp/ccNzw1my.s:92201  .debug_str:000000000000f9b1 .LASF5564
     /tmp/ccNzw1my.s:89997  .debug_str:0000000000006b91 .LASF5565
     /tmp/ccNzw1my.s:97259  .debug_str:0000000000024559 .LASF5566
     /tmp/ccNzw1my.s:94553  .debug_str:0000000000018f1c .LASF5567
     /tmp/ccNzw1my.s:105469  .debug_str:0000000000045855 .LASF5568
     /tmp/ccNzw1my.s:89005  .debug_str:00000000000027cd .LASF5569
     /tmp/ccNzw1my.s:93697  .debug_str:0000000000015713 .LASF5570
     /tmp/ccNzw1my.s:104093  .debug_str:000000000003fdcd .LASF5571
     /tmp/ccNzw1my.s:105577  .debug_str:0000000000045f79 .LASF5572
     /tmp/ccNzw1my.s:99537  .debug_str:000000000002d77a .LASF5573
     /tmp/ccNzw1my.s:88863  .debug_str:0000000000001d8a .LASF5574
     /tmp/ccNzw1my.s:97619  .debug_str:0000000000025a85 .LASF5575
     /tmp/ccNzw1my.s:100091  .debug_str:000000000002fc13 .LASF5576
     /tmp/ccNzw1my.s:91197  .debug_str:000000000000bdc7 .LASF5577
     /tmp/ccNzw1my.s:97787  .debug_str:0000000000026545 .LASF5578
     /tmp/ccNzw1my.s:98869  .debug_str:000000000002abff .LASF5579
     /tmp/ccNzw1my.s:103551  .debug_str:000000000003d8ca .LASF5580
     /tmp/ccNzw1my.s:95541  .debug_str:000000000001d329 .LASF5581
     /tmp/ccNzw1my.s:100663  .debug_str:000000000003218b .LASF5582
     /tmp/ccNzw1my.s:96737  .debug_str:00000000000224f4 .LASF5583
     /tmp/ccNzw1my.s:90705  .debug_str:0000000000009b2f .LASF5584
     /tmp/ccNzw1my.s:105543  .debug_str:0000000000045d62 .LASF5585
     /tmp/ccNzw1my.s:92161  .debug_str:000000000000f71d .LASF5586
     /tmp/ccNzw1my.s:93433  .debug_str:00000000000146cb .LASF5587
     /tmp/ccNzw1my.s:95181  .debug_str:000000000001baee .LASF5588
     /tmp/ccNzw1my.s:99379  .debug_str:000000000002cd3e .LASF5589
     /tmp/ccNzw1my.s:100353  .debug_str:0000000000030d70 .LASF5590
     /tmp/ccNzw1my.s:105947  .debug_str:00000000000477e0 .LASF5591
     /tmp/ccNzw1my.s:95731  .debug_str:000000000001dfaa .LASF5592
     /tmp/ccNzw1my.s:93913  .debug_str:000000000001652a .LASF5593
     /tmp/ccNzw1my.s:105279  .debug_str:0000000000044c09 .LASF5594
     /tmp/ccNzw1my.s:103429  .debug_str:000000000003d115 .LASF5595
     /tmp/ccNzw1my.s:94481  .debug_str:0000000000018a44 .LASF5596
     /tmp/ccNzw1my.s:91461  .debug_str:000000000000cf93 .LASF5597
     /tmp/ccNzw1my.s:96847  .debug_str:0000000000022c4e .LASF5598
     /tmp/ccNzw1my.s:90849  .debug_str:000000000000a4d0 .LASF5599
     /tmp/ccNzw1my.s:97721  .debug_str:0000000000026071 .LASF5600
     /tmp/ccNzw1my.s:90591  .debug_str:000000000000936d .LASF5601
     /tmp/ccNzw1my.s:93589  .debug_str:00000000000150a4 .LASF5602
     /tmp/ccNzw1my.s:97839  .debug_str:00000000000268e5 .LASF5603
     /tmp/ccNzw1my.s:89861  .debug_str:000000000000623e .LASF5604
     /tmp/ccNzw1my.s:99555  .debug_str:000000000002d8b7 .LASF5605
     /tmp/ccNzw1my.s:104783  .debug_str:0000000000042c95 .LASF5606
     /tmp/ccNzw1my.s:89393  .debug_str:00000000000042b8 .LASF5607
     /tmp/ccNzw1my.s:89889  .debug_str:000000000000641f .LASF5608
     /tmp/ccNzw1my.s:91189  .debug_str:000000000000bd0f .LASF5609
     /tmp/ccNzw1my.s:91523  .debug_str:000000000000d366 .LASF5610
     /tmp/ccNzw1my.s:103151  .debug_str:000000000003bf6a .LASF5611
     /tmp/ccNzw1my.s:89387  .debug_str:0000000000004221 .LASF5612
     /tmp/ccNzw1my.s:102315  .debug_str:0000000000038645 .LASF5613
     /tmp/ccNzw1my.s:104929  .debug_str:0000000000043587 .LASF5614
     /tmp/ccNzw1my.s:98191  .debug_str:0000000000028101 .LASF5615
     /tmp/ccNzw1my.s:102387  .debug_str:0000000000038b1a .LASF5616
     /tmp/ccNzw1my.s:97181  .debug_str:0000000000024141 .LASF5617
     /tmp/ccNzw1my.s:102305  .debug_str:00000000000385d7 .LASF5618
     /tmp/ccNzw1my.s:98527  .debug_str:00000000000295ec .LASF5619
     /tmp/ccNzw1my.s:104283  .debug_str:0000000000040a54 .LASF5620
     /tmp/ccNzw1my.s:91083  .debug_str:000000000000b601 .LASF5621
     /tmp/ccNzw1my.s:90411  .debug_str:000000000000876d .LASF5622
     /tmp/ccNzw1my.s:97575  .debug_str:0000000000025789 .LASF5623
     /tmp/ccNzw1my.s:88879  .debug_str:0000000000001e75 .LASF5624
     /tmp/ccNzw1my.s:97397  .debug_str:0000000000024b8a .LASF5625
     /tmp/ccNzw1my.s:97493  .debug_str:000000000002519b .LASF5626
     /tmp/ccNzw1my.s:100623  .debug_str:0000000000031fdb .LASF5627
     /tmp/ccNzw1my.s:104125  .debug_str:0000000000040001 .LASF5629
     /tmp/ccNzw1my.s:103649  .debug_str:000000000003df4a .LASF5630
     /tmp/ccNzw1my.s:95323  .debug_str:000000000001c423 .LASF5631
     /tmp/ccNzw1my.s:102247  .debug_str:00000000000381f1 .LASF5632
     /tmp/ccNzw1my.s:93263  .debug_str:0000000000013cb1 .LASF5633
     /tmp/ccNzw1my.s:102971  .debug_str:000000000003b399 .LASF5634
     /tmp/ccNzw1my.s:90061  .debug_str:0000000000007045 .LASF5635
     /tmp/ccNzw1my.s:90981  .debug_str:000000000000addd .LASF5636
     /tmp/ccNzw1my.s:95091  .debug_str:000000000001b4b2 .LASF5637
     /tmp/ccNzw1my.s:103297  .debug_str:000000000003c8ab .LASF5638
     /tmp/ccNzw1my.s:88613  .debug_str:0000000000000c28 .LASF5639
     /tmp/ccNzw1my.s:97189  .debug_str:00000000000241c9 .LASF5640
     /tmp/ccNzw1my.s:104425  .debug_str:0000000000041480 .LASF5641
     /tmp/ccNzw1my.s:99317  .debug_str:000000000002c8e2 .LASF5642
     /tmp/ccNzw1my.s:99641  .debug_str:000000000002deb9 .LASF5643
     /tmp/ccNzw1my.s:96071  .debug_str:000000000001f9a9 .LASF5644
     /tmp/ccNzw1my.s:100399  .debug_str:0000000000031091 .LASF5645
     /tmp/ccNzw1my.s:104379  .debug_str:0000000000041167 .LASF5646
                           .group:0000000000000000 wm4.0.2cde0bba310258ac5fb120644dc52a54
                           .group:0000000000000000 wm4.stddef.h.39.a38874c8f8a57e66301090908ec2a69f
                           .group:0000000000000000 wm4.stdbool.h.29.07dce69c3b78884144b7f7bd19483461
                           .group:0000000000000000 wm4._newlib_version.h.4.9ba035841e762c3308916a0ce96032e7
                           .group:0000000000000000 wm4.features.h.33.318b64d71e0957639cfb30f1db1f7ec8
                           .group:0000000000000000 wm4._default_types.h.15.61e9869194cab90bdfa4c7fc42203a0e
                           .group:0000000000000000 wm4._intsup.h.10.b28b45fc63caeb010c3f7ee592257700
                           .group:0000000000000000 wm4._stdint.h.10.c24fa3af3bc1706662bb5593a907e841
                           .group:0000000000000000 wm4.stdint.h.23.d53047a68f4a85177f80b422d52785ed
                           .group:0000000000000000 wm4.mss_assert.h.10.09559128d1f6dbd833ab24347e71c76c
                           .group:0000000000000000 wm4.mss_legacy_defines.h.20.594d5f03b0f5314e3b2e801d98173479
                           .group:0000000000000000 wm4.mss_ddr_defs.h.18.58f9a87b5146acaefd5d9382d54140ba
                           .group:0000000000000000 wm4.mss_sysreg.h.19.614456a035a0cca3fd9d4348b0740228
                           .group:0000000000000000 wm4.mss_ddr_sgmii_regs.h.5543.4c565db9c25f7d4b45bd9b264c475c73
                           .group:0000000000000000 wm4.mss_io_config.h.18.b70207dea5a59bac7da73ad6eee375d0
                           .group:0000000000000000 wm4.mss_pll.h.192.d6d9146a5a36ce9e7f6a5ae2e7816970
                           .group:0000000000000000 wm4.mss_scb_nwc_regs.h.19.92192026ece1a0bf26c7a7af9a56e40a
                           .group:0000000000000000 wm4.mss_sw_config.h.37.2f79a8233593e640cb9660b9e2020907
                           .group:0000000000000000 wm4.atomic.h.33.7c17fdf64e267483cec1d3aead0473f4
                           .group:0000000000000000 wm4.bits.h.32.2ced66ae3bdb7651edf1ccfb67de7b38
                           .group:0000000000000000 wm4.encoding.h.34.68f898bac6356b153788044b6c29d177
                           .group:0000000000000000 wm4.fpga_design_config.h.28.572b3893a09debe9cb72c1441369aee0
                           .group:0000000000000000 wm4.hw_memory.h.28.20599cf485f90ffaa97f313798a86238
                           .group:0000000000000000 wm4.hw_apb_split.h.28.a2537f445f7a8784a4f064a3a60be381
                           .group:0000000000000000 wm4.hw_cache.h.28.aa59d0803f1283c480a862ba52ff4d4f
                           .group:0000000000000000 wm4.hw_pmp_hart0.h.28.354eeff78ff2eb91d2783e01dbe4e5a4
                           .group:0000000000000000 wm4.hw_pmp_hart1.h.28.0ab9e64d9d5e4b3cdd2ef9fae2ec18f2
                           .group:0000000000000000 wm4.hw_pmp_hart2.h.28.361fe83e7fd64067a0988f3e9bcd6e5d
                           .group:0000000000000000 wm4.hw_pmp_hart3.h.28.8c3eca8078d58a4979d23ae7fc3ceb35
                           .group:0000000000000000 wm4.hw_pmp_hart4.h.28.f8bf6b50f09effab3f4dfc16a44d5d0e
                           .group:0000000000000000 wm4.hw_mpu_fic0.h.28.3a719367ee0b56c20c7541cca5239296
                           .group:0000000000000000 wm4.hw_mpu_fic1.h.28.35d3b72b131707dc62529924d8a0d281
                           .group:0000000000000000 wm4.hw_mpu_fic2.h.28.88b1cd488fc04fd09199876067a670cb
                           .group:0000000000000000 wm4.hw_mpu_crypto.h.28.45628d14bd81b7ae15853711bd55f118
                           .group:0000000000000000 wm4.hw_mpu_gem0.h.28.e88b73a77e588162ac08b038acfe3e30
                           .group:0000000000000000 wm4.hw_mpu_gem1.h.28.dadc3a640dcfb61a8f24791560fa3605
                           .group:0000000000000000 wm4.hw_mpu_usb.h.28.0b0c25c65da87670d72dffa8e9b51ad6
                           .group:0000000000000000 wm4.hw_mpu_mmc.h.28.a5df85f7a87dfaafd939c0c9743b44a9
                           .group:0000000000000000 wm4.hw_mpu_scb.h.28.2b778d620a29a13b1a33733b3fefaf3e
                           .group:0000000000000000 wm4.hw_mpu_trace.h.28.dbb150e27983d45d78ea646dfe7486fe
                           .group:0000000000000000 wm4.hw_mssio_mux.h.28.b18396e0f5e6c83835b3b8e1dfadc1b4
                           .group:0000000000000000 wm4.hw_hsio_mux.h.28.924a66a0f83f27c24767fbfdaffeb21f
                           .group:0000000000000000 wm4.hw_sgmii_tip.h.28.c2c656c87ab558ebf9f510f55b530997
                           .group:0000000000000000 wm4.hw_ddr_options.h.28.583107ebf3250a7e99a4e34ca34040f9
                           .group:0000000000000000 wm4.hw_ddr_io_bank.h.28.09e373f4be71534c2b0bf629a50788a8
                           .group:0000000000000000 wm4.hw_ddr_mode.h.28.3ecff7868bb6c2027433e8aaf3a6e9d0
                           .group:0000000000000000 wm4.hw_ddr_off_mode.h.28.c8f0d4bcf68d083d8ff0335e558930e9
                           .group:0000000000000000 wm4.hw_ddr_segs.h.28.93c530a254cc8a9c015d0bae044125b2
                           .group:0000000000000000 wm4.hw_ddrc.h.28.d858943fbdd3e7761d52c974b21ea425
                           .group:0000000000000000 wm4.hw_mss_clks.h.28.53b1f012440894624f35e610477ed6d8
                           .group:0000000000000000 wm4.hw_clk_sysreg.h.28.adf2eb2b08eeb2ee56f6129328388395
                           .group:0000000000000000 wm4.hw_clk_mss_pll.h.28.f255323a7f4276a824501e07bd0f464a
                           .group:0000000000000000 wm4.hw_clk_sgmii_pll.h.28.b1aefe04f9cda949aee4586f0025e039
                           .group:0000000000000000 wm4.hw_clk_ddr_pll.h.28.8f0ed359dbfb59ae6f0aa1f29002d60d
                           .group:0000000000000000 wm4.hw_clk_mss_cfm.h.28.365f11189fcbf1e2f08db25b2ea1557a
                           .group:0000000000000000 wm4.hw_clk_sgmii_cfm.h.28.f59fda78ad3b4981ccbc9fbc0d90ca0a
                           .group:0000000000000000 wm4.hw_gen_peripherals.h.28.67a363af3ea61147ac365f904e7b6183
                           .group:0000000000000000 wm4.mss_ddr.h.335.a7fe38050b0f6ce3ee0df6f9cb324a9e
                           .group:0000000000000000 wm4.mss_clint.h.28.3d2c636f4c8175d64797a2e961db02ff
                           .group:0000000000000000 wm4.mss_h2f.h.21.7086260854010c63b41a469cd9f7486d
                           .group:0000000000000000 wm4.mss_hart_ints.h.20.df914e6570bee6a0a5e5635d9329f21b
                           .group:0000000000000000 wm4.mss_mpu.h.20.dd1fa2a8702d0e819fbbb263dc6428d1
                           .group:0000000000000000 wm4.mss_pmp.h.19.8f83d750289fe5e95625891444a65774
                           .group:0000000000000000 wm4.mss_plic.h.38.63bddd8b7aeec5445a0ab9c829719734
                           .group:0000000000000000 wm4.mss_seg.h.38.d7fedb2c993ff2eb58c3c1c5f57af66f
                           .group:0000000000000000 wm4.mss_util.h.31.57922375d48cf596b0783b975bb89aba
                           .group:0000000000000000 wm4.mss_mtrap.h.32.75bfcc4d9a15120a34cb2ee456cde55a
                           .group:0000000000000000 wm4.mss_l2_cache.h.430.934410ee5d62996f3b8869a34907e316
                           .group:0000000000000000 wm4.mss_axiswitch.h.110.fc13072c0144cbd8e516d1d4f8c599b2
                           .group:0000000000000000 wm4.mss_peripherals.h.19.9837bc1f8d1c62dfd266b4590a8830b2
                           .group:0000000000000000 wm4.mss_cfm.h.20.474baf099ef6f60b14912c934c5e47c6
                           .group:0000000000000000 wm4.mss_sgmii.h.18.7850ab5b5e05dabb42db8143f362bae8
                           .group:0000000000000000 wm4.system_startup.h.17.372727b49fdab2e286123d13f6b6542a
                           .group:0000000000000000 wm4.mss_ddr_debug.h.40.79a83a45aea2f09f97e5663e254e5e65
                           .group:0000000000000000 wm4.mss_nwc_init.h.97.aef086bc19e526ee0b159deb73c86168
                           .group:0000000000000000 wm4.system_startup_defs.h.17.d1b3fc4c6c72ec6e24ce3b08c3b99721

UNDEFINED SYMBOLS
plic_hart_lookup
config_l2_cache
mss_set_apb_bus_cr
mss_set_gpio_interrupt_fab_cr
mss_nwc_init
mss_nwc_init_ddr
__stack_top_h0$
__stack_top_h1$
__stack_top_h2$
__stack_top_h3$
__stack_top_h4$
mss_config_clk_rst
mss_enable_fabric
__app_stack_top_h0
__app_stack_top_h1
__app_stack_top_h2
__app_stack_top_h3
__app_stack_top_h4
config_copy
__text_end
__text_start
__text_load
copy_section
__sdata_end
__sdata_start
__sdata_load
__data_end
__data_start
__data_load
__sbss_end
__sbss_start
zero_section
__bss_end
__bss_start
__disable_all_irqs
mpu_configure
pmp_configure
